---
triple:          'arm64-apple-darwin'
binary-path:     '/Users/johnhjediny/Documents/GitHub/json-schema-x-graphql/converters/rust/target/debug/deps/libserde_derive-c42351a2291a48e6.dylib'
relocations:
  - { offset: 0x1E, size: 0x8, addend: 0x0, symName: __RINvMNtNtNtCsdFlNUEO95cG_5alloc11collections5btree4nodeINtB3_8LeafNodeNtNtCscwCr4GBBztI_3syn8lifetime8LifetimeNtNtB5_7set_val9SetValZSTE3newNtNtB9_5alloc6GlobalECs3tyqko2rdGU_12serde_derive, symObjAddr: 0x0, symBinAddr: 0xC60, symSize: 0x70 }
  - { offset: 0xB5DA, size: 0x8, addend: 0x0, symName: __RINvNtNtNtCsdFlNUEO95cG_5alloc11collections5btree4node12slice_insertINtNtNtCs85QQFkKrybG_4core3ptr8non_null7NonNullINtB2_8LeafNodeNtNtCscwCr4GBBztI_3syn8lifetime8LifetimeNtNtB4_7set_val9SetValZSTEEECs3tyqko2rdGU_12serde_derive, symObjAddr: 0x3F4C, symBinAddr: 0x4BAC, symSize: 0x114 }
  - { offset: 0xB740, size: 0x8, addend: 0x0, symName: __RINvNtNtNtCsdFlNUEO95cG_5alloc11collections5btree4node12slice_insertINtNtNtCs85QQFkKrybG_4core3ptr8non_null7NonNullINtB2_8LeafNodeNtNtNtCs3tyqko2rdGU_12serde_derive9internals4name4NameNtNtB4_7set_val9SetValZSTEEEB2a_, symObjAddr: 0x4060, symBinAddr: 0x4CC0, symSize: 0x114 }
  - { offset: 0xB8A6, size: 0x8, addend: 0x0, symName: __RINvNtNtNtCsdFlNUEO95cG_5alloc11collections5btree4node12slice_insertNtNtB4_7set_val9SetValZSTECs3tyqko2rdGU_12serde_derive, symObjAddr: 0x4174, symBinAddr: 0x4DD4, symSize: 0xD8 }
  - { offset: 0xB9BB, size: 0x8, addend: 0x0, symName: __RINvNtNtNtCsdFlNUEO95cG_5alloc11collections5btree4node12slice_insertNtNtCscwCr4GBBztI_3syn8lifetime8LifetimeECs3tyqko2rdGU_12serde_derive, symObjAddr: 0x424C, symBinAddr: 0x4EAC, symSize: 0x144 }
  - { offset: 0xBB42, size: 0x8, addend: 0x0, symName: __RINvNtNtNtCsdFlNUEO95cG_5alloc11collections5btree4node12slice_insertNtNtNtCs3tyqko2rdGU_12serde_derive9internals4name4NameEB1a_, symObjAddr: 0x4390, symBinAddr: 0x4FF0, symSize: 0x144 }
  - { offset: 0xBCC9, size: 0x8, addend: 0x0, symName: __RINvNtNtNtCsdFlNUEO95cG_5alloc11collections5btree4node13move_to_sliceINtNtNtCs85QQFkKrybG_4core3ptr8non_null7NonNullINtB2_8LeafNodeNtNtCscwCr4GBBztI_3syn8lifetime8LifetimeNtNtB4_7set_val9SetValZSTEEECs3tyqko2rdGU_12serde_derive, symObjAddr: 0x44D4, symBinAddr: 0x5134, symSize: 0xB0 }
  - { offset: 0xBD75, size: 0x8, addend: 0x0, symName: __RINvNtNtNtCsdFlNUEO95cG_5alloc11collections5btree4node13move_to_sliceINtNtNtCs85QQFkKrybG_4core3ptr8non_null7NonNullINtB2_8LeafNodeNtNtNtCs3tyqko2rdGU_12serde_derive9internals4name4NameNtNtB4_7set_val9SetValZSTEEEB2b_, symObjAddr: 0x4584, symBinAddr: 0x51E4, symSize: 0xB0 }
  - { offset: 0xBE21, size: 0x8, addend: 0x0, symName: __RINvNtNtNtCsdFlNUEO95cG_5alloc11collections5btree4node13move_to_sliceNtNtB4_7set_val9SetValZSTECs3tyqko2rdGU_12serde_derive, symObjAddr: 0x4634, symBinAddr: 0x5294, symSize: 0xB4 }
  - { offset: 0xBECD, size: 0x8, addend: 0x0, symName: __RINvNtNtNtCsdFlNUEO95cG_5alloc11collections5btree4node13move_to_sliceNtNtCscwCr4GBBztI_3syn8lifetime8LifetimeECs3tyqko2rdGU_12serde_derive, symObjAddr: 0x46E8, symBinAddr: 0x5348, symSize: 0xB4 }
  - { offset: 0xBF79, size: 0x8, addend: 0x0, symName: __RINvNtNtNtCsdFlNUEO95cG_5alloc11collections5btree4node13move_to_sliceNtNtNtCs3tyqko2rdGU_12serde_derive9internals4name4NameEB1b_, symObjAddr: 0x479C, symBinAddr: 0x53FC, symSize: 0xB4 }
  - { offset: 0xC02F, size: 0x8, addend: 0x0, symName: __RNCINvMss_NtNtNtCsdFlNUEO95cG_5alloc11collections5btree4nodeINtB8_7NodeRefNtNtB8_6marker5OwnedNtNtCscwCr4GBBztI_3syn8lifetime8LifetimeNtNtBa_7set_val9SetValZSTNtB1c_14LeafOrInternalE19push_internal_levelNtNtBe_5alloc6GlobalE0Cs3tyqko2rdGU_12serde_derive, symObjAddr: 0x4850, symBinAddr: 0x54B0, symSize: 0x34 }
  - { offset: 0xC088, size: 0x8, addend: 0x0, symName: __RNCINvMss_NtNtNtCsdFlNUEO95cG_5alloc11collections5btree4nodeINtB8_7NodeRefNtNtB8_6marker5OwnedNtNtNtCs3tyqko2rdGU_12serde_derive9internals4name4NameNtNtBa_7set_val9SetValZSTNtB1c_14LeafOrInternalE19push_internal_levelNtNtBe_5alloc6GlobalE0B1A_, symObjAddr: 0x4884, symBinAddr: 0x54E4, symSize: 0x34 }
  - { offset: 0xD05D, size: 0x8, addend: 0x0, symName: __RNvXNvMsT_NtNtNtCsdFlNUEO95cG_5alloc11collections5btree4nodeINtB8_6HandleINtB8_7NodeRefNtNtB8_6marker5DyingpppENtB1p_2KVE12drop_key_valINtB2_7DropperNtNtBa_7set_val9SetValZSTENtNtNtCs85QQFkKrybG_4core3ops4drop4Drop4dropCs3tyqko2rdGU_12serde_derive, symObjAddr: 0x8F04, symBinAddr: 0x9B64, symSize: 0x1C }
  - { offset: 0xDFCB, size: 0x8, addend: 0x0, symName: __RINvMNtNtNtCsdFlNUEO95cG_5alloc11collections5btree4nodeINtB3_8LeafNodeNtNtCscwCr4GBBztI_3syn8lifetime8LifetimeNtNtB5_7set_val9SetValZSTE3newNtNtB9_5alloc6GlobalECs3tyqko2rdGU_12serde_derive, symObjAddr: 0x0, symBinAddr: 0xC60, symSize: 0x70 }
  - { offset: 0xE2C8, size: 0x8, addend: 0x0, symName: __RINvMNtNtNtCsdFlNUEO95cG_5alloc11collections5btree4nodeINtB3_8LeafNodeNtNtNtCs3tyqko2rdGU_12serde_derive9internals4name4NameNtNtB5_7set_val9SetValZSTE3newNtNtB9_5alloc6GlobalEB1c_, symObjAddr: 0x70, symBinAddr: 0xCD0, symSize: 0x70 }
  - { offset: 0xE60C, size: 0x8, addend: 0x0, symName: __RINvMs0_NtNtNtCsdFlNUEO95cG_5alloc11collections5btree6searchINtNtB8_4node7NodeRefNtNtBZ_6marker3MutNtNtCscwCr4GBBztI_3syn8lifetime8LifetimeNtNtB8_7set_val9SetValZSTNtB1j_14LeafOrInternalE14find_key_indexB1z_ECs3tyqko2rdGU_12serde_derive, symObjAddr: 0xE0, symBinAddr: 0xD40, symSize: 0x1D4 }
  - { offset: 0xEA6D, size: 0x8, addend: 0x0, symName: __RINvMs0_NtNtNtCsdFlNUEO95cG_5alloc11collections5btree6searchINtNtB8_4node7NodeRefNtNtBZ_6marker3MutNtNtNtCs3tyqko2rdGU_12serde_derive9internals4name4NameNtNtB8_7set_val9SetValZSTNtB1j_14LeafOrInternalE14find_key_indexB1z_EB1F_, symObjAddr: 0x2B4, symBinAddr: 0xF14, symSize: 0x1D4 }
  - { offset: 0xEE62, size: 0x8, addend: 0x0, symName: __RINvMs0_NtNtNtCsdFlNUEO95cG_5alloc11collections5btree6searchINtNtB8_4node7NodeRefNtNtBZ_6marker5ImmutNtNtCscwCr4GBBztI_3syn8lifetime8LifetimeNtNtB8_7set_val9SetValZSTNtB1j_14LeafOrInternalE14find_key_indexB1B_ECs3tyqko2rdGU_12serde_derive, symObjAddr: 0x488, symBinAddr: 0x10E8, symSize: 0x1D4 }
  - { offset: 0xF1FA, size: 0x8, addend: 0x0, symName: __RINvMs9_NtNtNtCsdFlNUEO95cG_5alloc11collections5btree4nodeINtB6_7NodeRefNtNtB6_6marker5OwnedNtNtCscwCr4GBBztI_3syn8lifetime8LifetimeNtNtB8_7set_val9SetValZSTNtB1a_8InternalE12new_internalNtNtBc_5alloc6GlobalECs3tyqko2rdGU_12serde_derive, symObjAddr: 0x65C, symBinAddr: 0x12BC, symSize: 0x90 }
  - { offset: 0xF44B, size: 0x8, addend: 0x0, symName: __RINvMs9_NtNtNtCsdFlNUEO95cG_5alloc11collections5btree4nodeINtB6_7NodeRefNtNtB6_6marker5OwnedNtNtCscwCr4GBBztI_3syn8lifetime8LifetimeNtNtB8_7set_val9SetValZSTNtB1a_8InternalE17from_new_internalNtNtBc_5alloc6GlobalECs3tyqko2rdGU_12serde_derive, symObjAddr: 0x6EC, symBinAddr: 0x134C, symSize: 0xAC }
  - { offset: 0xF642, size: 0x8, addend: 0x0, symName: __RINvMs9_NtNtNtCsdFlNUEO95cG_5alloc11collections5btree4nodeINtB6_7NodeRefNtNtB6_6marker5OwnedNtNtNtCs3tyqko2rdGU_12serde_derive9internals4name4NameNtNtB8_7set_val9SetValZSTNtB1a_8InternalE12new_internalNtNtBc_5alloc6GlobalEB1y_, symObjAddr: 0x798, symBinAddr: 0x13F8, symSize: 0x90 }
  - { offset: 0xF875, size: 0x8, addend: 0x0, symName: __RINvMs9_NtNtNtCsdFlNUEO95cG_5alloc11collections5btree4nodeINtB6_7NodeRefNtNtB6_6marker5OwnedNtNtNtCs3tyqko2rdGU_12serde_derive9internals4name4NameNtNtB8_7set_val9SetValZSTNtB1a_8InternalE17from_new_internalNtNtBc_5alloc6GlobalEB1y_, symObjAddr: 0x828, symBinAddr: 0x1488, symSize: 0xAC }
  - { offset: 0xFCBB, size: 0x8, addend: 0x0, symName: __RINvMsK_NtNtNtCsdFlNUEO95cG_5alloc11collections5btree4nodeINtB6_6HandleINtB6_7NodeRefNtNtB6_6marker3MutNtNtCscwCr4GBBztI_3syn8lifetime8LifetimeNtNtB8_7set_val9SetValZSTNtB1n_4LeafENtB1n_4EdgeE6insertNtNtBc_5alloc6GlobalECs3tyqko2rdGU_12serde_derive, symObjAddr: 0x8D4, symBinAddr: 0x1534, symSize: 0x4D8 }
  - { offset: 0x10196, size: 0x8, addend: 0x0, symName: __RINvMsK_NtNtNtCsdFlNUEO95cG_5alloc11collections5btree4nodeINtB6_6HandleINtB6_7NodeRefNtNtB6_6marker3MutNtNtNtCs3tyqko2rdGU_12serde_derive9internals4name4NameNtNtB8_7set_val9SetValZSTNtB1n_4LeafENtB1n_4EdgeE6insertNtNtBc_5alloc6GlobalEB1J_, symObjAddr: 0xDAC, symBinAddr: 0x1A0C, symSize: 0x4DC }
  - { offset: 0x105A8, size: 0x8, addend: 0x0, symName: __RINvMsM_NtNtNtCsdFlNUEO95cG_5alloc11collections5btree4nodeINtB6_6HandleINtB6_7NodeRefNtNtB6_6marker3MutNtNtCscwCr4GBBztI_3syn8lifetime8LifetimeNtNtB8_7set_val9SetValZSTNtB1n_8InternalENtB1n_4EdgeE6insertNtNtBc_5alloc6GlobalECs3tyqko2rdGU_12serde_derive, symObjAddr: 0x1288, symBinAddr: 0x1EE8, symSize: 0x4C4 }
  - { offset: 0x10920, size: 0x8, addend: 0x0, symName: __RINvMsM_NtNtNtCsdFlNUEO95cG_5alloc11collections5btree4nodeINtB6_6HandleINtB6_7NodeRefNtNtB6_6marker3MutNtNtNtCs3tyqko2rdGU_12serde_derive9internals4name4NameNtNtB8_7set_val9SetValZSTNtB1n_8InternalENtB1n_4EdgeE6insertNtNtBc_5alloc6GlobalEB1J_, symObjAddr: 0x174C, symBinAddr: 0x23AC, symSize: 0x4C8 }
  - { offset: 0x10C0D, size: 0x8, addend: 0x0, symName: __RINvMsN_NtNtNtCsdFlNUEO95cG_5alloc11collections5btree4nodeINtB6_6HandleINtB6_7NodeRefNtNtB6_6marker3MutNtNtCscwCr4GBBztI_3syn8lifetime8LifetimeNtNtB8_7set_val9SetValZSTNtB1n_4LeafENtB1n_4EdgeE16insert_recursingNtNtBc_5alloc6GlobalNCNvMs6_NtNtB8_3map5entryINtB3O_11VacantEntryB1D_B2h_E12insert_entry0ECs3tyqko2rdGU_12serde_derive, symObjAddr: 0x1C14, symBinAddr: 0x2874, symSize: 0x47C }
  - { offset: 0x10F43, size: 0x8, addend: 0x0, symName: __RINvMsN_NtNtNtCsdFlNUEO95cG_5alloc11collections5btree4nodeINtB6_6HandleINtB6_7NodeRefNtNtB6_6marker3MutNtNtNtCs3tyqko2rdGU_12serde_derive9internals4name4NameNtNtB8_7set_val9SetValZSTNtB1n_4LeafENtB1n_4EdgeE16insert_recursingNtNtBc_5alloc6GlobalNCNvMs6_NtNtB8_3map5entryINtB42_11VacantEntryB1D_B2v_E12insert_entry0EB1J_, symObjAddr: 0x2090, symBinAddr: 0x2CF0, symSize: 0x484 }
  - { offset: 0x111EF, size: 0x8, addend: 0x0, symName: __RINvMsV_NtNtNtCsdFlNUEO95cG_5alloc11collections5btree4nodeINtB6_6HandleINtB6_7NodeRefNtNtB6_6marker3MutNtNtCscwCr4GBBztI_3syn8lifetime8LifetimeNtNtB8_7set_val9SetValZSTNtB1n_4LeafENtB1n_2KVE5splitNtNtBc_5alloc6GlobalECs3tyqko2rdGU_12serde_derive, symObjAddr: 0x2514, symBinAddr: 0x3174, symSize: 0xA8 }
  - { offset: 0x112DB, size: 0x8, addend: 0x0, symName: __RINvMsV_NtNtNtCsdFlNUEO95cG_5alloc11collections5btree4nodeINtB6_6HandleINtB6_7NodeRefNtNtB6_6marker3MutNtNtNtCs3tyqko2rdGU_12serde_derive9internals4name4NameNtNtB8_7set_val9SetValZSTNtB1n_4LeafENtB1n_2KVE5splitNtNtBc_5alloc6GlobalEB1J_, symObjAddr: 0x25BC, symBinAddr: 0x321C, symSize: 0xA8 }
  - { offset: 0x114F0, size: 0x8, addend: 0x0, symName: __RINvMsW_NtNtNtCsdFlNUEO95cG_5alloc11collections5btree4nodeINtB6_6HandleINtB6_7NodeRefNtNtB6_6marker3MutNtNtCscwCr4GBBztI_3syn8lifetime8LifetimeNtNtB8_7set_val9SetValZSTNtB1n_8InternalENtB1n_2KVE5splitNtNtBc_5alloc6GlobalECs3tyqko2rdGU_12serde_derive, symObjAddr: 0x2664, symBinAddr: 0x32C4, symSize: 0x28C }
  - { offset: 0x119B5, size: 0x8, addend: 0x0, symName: __RINvMsW_NtNtNtCsdFlNUEO95cG_5alloc11collections5btree4nodeINtB6_6HandleINtB6_7NodeRefNtNtB6_6marker3MutNtNtNtCs3tyqko2rdGU_12serde_derive9internals4name4NameNtNtB8_7set_val9SetValZSTNtB1n_8InternalENtB1n_2KVE5splitNtNtBc_5alloc6GlobalEB1J_, symObjAddr: 0x28F0, symBinAddr: 0x3550, symSize: 0x28C }
  - { offset: 0x11DB5, size: 0x8, addend: 0x0, symName: __RINvMs_NtNtNtCsdFlNUEO95cG_5alloc11collections5btree4nodeINtB5_12InternalNodeNtNtCscwCr4GBBztI_3syn8lifetime8LifetimeNtNtB7_7set_val9SetValZSTE3newNtNtBb_5alloc6GlobalECs3tyqko2rdGU_12serde_derive, symObjAddr: 0x2B7C, symBinAddr: 0x37DC, symSize: 0x70 }
  - { offset: 0x11FD1, size: 0x8, addend: 0x0, symName: __RINvMs_NtNtNtCsdFlNUEO95cG_5alloc11collections5btree4nodeINtB5_12InternalNodeNtNtNtCs3tyqko2rdGU_12serde_derive9internals4name4NameNtNtB7_7set_val9SetValZSTE3newNtNtBb_5alloc6GlobalEB1j_, symObjAddr: 0x2BEC, symBinAddr: 0x384C, symSize: 0x70 }
  - { offset: 0x122CC, size: 0x8, addend: 0x0, symName: __RINvMs_NtNtNtCsdFlNUEO95cG_5alloc11collections5btree6searchINtNtB7_4node7NodeRefNtNtBY_6marker3MutNtNtCscwCr4GBBztI_3syn8lifetime8LifetimeNtNtB7_7set_val9SetValZSTNtB1i_14LeafOrInternalE11search_treeB1y_ECs3tyqko2rdGU_12serde_derive, symObjAddr: 0x2C5C, symBinAddr: 0x38BC, symSize: 0x240 }
  - { offset: 0x12621, size: 0x8, addend: 0x0, symName: __RINvMs_NtNtNtCsdFlNUEO95cG_5alloc11collections5btree6searchINtNtB7_4node7NodeRefNtNtBY_6marker3MutNtNtNtCs3tyqko2rdGU_12serde_derive9internals4name4NameNtNtB7_7set_val9SetValZSTNtB1i_14LeafOrInternalE11search_treeB1y_EB1E_, symObjAddr: 0x2E9C, symBinAddr: 0x3AFC, symSize: 0x240 }
  - { offset: 0x129B2, size: 0x8, addend: 0x0, symName: __RINvMs_NtNtNtCsdFlNUEO95cG_5alloc11collections5btree6searchINtNtB7_4node7NodeRefNtNtBY_6marker5ImmutNtNtCscwCr4GBBztI_3syn8lifetime8LifetimeNtNtB7_7set_val9SetValZSTNtB1i_14LeafOrInternalE11search_treeB1A_ECs3tyqko2rdGU_12serde_derive, symObjAddr: 0x30DC, symBinAddr: 0x3D3C, symSize: 0x240 }
  - { offset: 0x12C95, size: 0x8, addend: 0x0, symName: __RINvMsh_NtNtNtCsdFlNUEO95cG_5alloc11collections5btree4nodeINtB6_7NodeRefNtNtB6_6marker5DyingNtNtCscwCr4GBBztI_3syn8lifetime8LifetimeNtNtB8_7set_val9SetValZSTNtB1a_14LeafOrInternalE21deallocate_and_ascendNtNtBc_5alloc6GlobalECs3tyqko2rdGU_12serde_derive, symObjAddr: 0x331C, symBinAddr: 0x3F7C, symSize: 0x188 }
  - { offset: 0x12F14, size: 0x8, addend: 0x0, symName: __RINvMsh_NtNtNtCsdFlNUEO95cG_5alloc11collections5btree4nodeINtB6_7NodeRefNtNtB6_6marker5DyingNtNtNtCs3tyqko2rdGU_12serde_derive9internals4name4NameNtNtB8_7set_val9SetValZSTNtB1a_14LeafOrInternalE21deallocate_and_ascendNtNtBc_5alloc6GlobalEB1y_, symObjAddr: 0x34A4, symBinAddr: 0x4104, symSize: 0x188 }
  - { offset: 0x13166, size: 0x8, addend: 0x0, symName: __RINvMsj_NtNtNtCsdFlNUEO95cG_5alloc11collections5btree8navigateINtNtB8_4node6HandleINtB11_7NodeRefNtNtB11_6marker5DyingNtNtCscwCr4GBBztI_3syn8lifetime8LifetimeNtNtB8_7set_val9SetValZSTNtB1z_4LeafENtB1z_4EdgeE16deallocating_endNtNtBc_5alloc6GlobalECs3tyqko2rdGU_12serde_derive, symObjAddr: 0x362C, symBinAddr: 0x428C, symSize: 0xD4 }
  - { offset: 0x133DA, size: 0x8, addend: 0x0, symName: __RINvMsj_NtNtNtCsdFlNUEO95cG_5alloc11collections5btree8navigateINtNtB8_4node6HandleINtB11_7NodeRefNtNtB11_6marker5DyingNtNtCscwCr4GBBztI_3syn8lifetime8LifetimeNtNtB8_7set_val9SetValZSTNtB1z_4LeafENtB1z_4EdgeE17deallocating_nextNtNtBc_5alloc6GlobalECs3tyqko2rdGU_12serde_derive, symObjAddr: 0x3700, symBinAddr: 0x4360, symSize: 0x254 }
  - { offset: 0x1360E, size: 0x8, addend: 0x0, symName: __RINvMsj_NtNtNtCsdFlNUEO95cG_5alloc11collections5btree8navigateINtNtB8_4node6HandleINtB11_7NodeRefNtNtB11_6marker5DyingNtNtNtCs3tyqko2rdGU_12serde_derive9internals4name4NameNtNtB8_7set_val9SetValZSTNtB1z_4LeafENtB1z_4EdgeE16deallocating_endNtNtBc_5alloc6GlobalEB1Y_, symObjAddr: 0x3954, symBinAddr: 0x45B4, symSize: 0xD4 }
  - { offset: 0x13882, size: 0x8, addend: 0x0, symName: __RINvMsj_NtNtNtCsdFlNUEO95cG_5alloc11collections5btree8navigateINtNtB8_4node6HandleINtB11_7NodeRefNtNtB11_6marker5DyingNtNtNtCs3tyqko2rdGU_12serde_derive9internals4name4NameNtNtB8_7set_val9SetValZSTNtB1z_4LeafENtB1z_4EdgeE17deallocating_nextNtNtBc_5alloc6GlobalEB1Y_, symObjAddr: 0x3A28, symBinAddr: 0x4688, symSize: 0x254 }
  - { offset: 0x13ACD, size: 0x8, addend: 0x0, symName: __RINvMsp_NtNtNtCsdFlNUEO95cG_5alloc11collections5btree4nodeINtB6_7NodeRefNtNtB6_6marker3MutNtNtCscwCr4GBBztI_3syn8lifetime8LifetimeNtNtB8_7set_val9SetValZSTNtB1a_8InternalE30correct_childrens_parent_linksINtNtNtCs85QQFkKrybG_4core3ops5range14RangeInclusivejEECs3tyqko2rdGU_12serde_derive, symObjAddr: 0x3C7C, symBinAddr: 0x48DC, symSize: 0xB4 }
  - { offset: 0x13C04, size: 0x8, addend: 0x0, symName: __RINvMsp_NtNtNtCsdFlNUEO95cG_5alloc11collections5btree4nodeINtB6_7NodeRefNtNtB6_6marker3MutNtNtCscwCr4GBBztI_3syn8lifetime8LifetimeNtNtB8_7set_val9SetValZSTNtB1a_8InternalE30correct_childrens_parent_linksINtNtNtCs85QQFkKrybG_4core3ops5range5RangejEECs3tyqko2rdGU_12serde_derive, symObjAddr: 0x3D30, symBinAddr: 0x4990, symSize: 0xB4 }
  - { offset: 0x13D3A, size: 0x8, addend: 0x0, symName: __RINvMsp_NtNtNtCsdFlNUEO95cG_5alloc11collections5btree4nodeINtB6_7NodeRefNtNtB6_6marker3MutNtNtNtCs3tyqko2rdGU_12serde_derive9internals4name4NameNtNtB8_7set_val9SetValZSTNtB1a_8InternalE30correct_childrens_parent_linksINtNtNtCs85QQFkKrybG_4core3ops5range14RangeInclusivejEEB1w_, symObjAddr: 0x3DE4, symBinAddr: 0x4A44, symSize: 0xB4 }
  - { offset: 0x13E71, size: 0x8, addend: 0x0, symName: __RINvMsp_NtNtNtCsdFlNUEO95cG_5alloc11collections5btree4nodeINtB6_7NodeRefNtNtB6_6marker3MutNtNtNtCs3tyqko2rdGU_12serde_derive9internals4name4NameNtNtB8_7set_val9SetValZSTNtB1a_8InternalE30correct_childrens_parent_linksINtNtNtCs85QQFkKrybG_4core3ops5range5RangejEEB1w_, symObjAddr: 0x3E98, symBinAddr: 0x4AF8, symSize: 0xB4 }
  - { offset: 0x14370, size: 0x8, addend: 0x0, symName: __RNvMsJ_NtNtNtCsdFlNUEO95cG_5alloc11collections5btree4nodeINtB5_6HandleINtB5_7NodeRefNtNtB5_6marker3MutNtNtCscwCr4GBBztI_3syn8lifetime8LifetimeNtNtB7_7set_val9SetValZSTNtB1m_4LeafENtB1m_4EdgeE10insert_fitCs3tyqko2rdGU_12serde_derive, symObjAddr: 0x48B8, symBinAddr: 0x5518, symSize: 0x1E4 }
  - { offset: 0x148CF, size: 0x8, addend: 0x0, symName: __RNvMsJ_NtNtNtCsdFlNUEO95cG_5alloc11collections5btree4nodeINtB5_6HandleINtB5_7NodeRefNtNtB5_6marker3MutNtNtNtCs3tyqko2rdGU_12serde_derive9internals4name4NameNtNtB7_7set_val9SetValZSTNtB1m_4LeafENtB1m_4EdgeE10insert_fitB1I_, symObjAddr: 0x4A9C, symBinAddr: 0x56FC, symSize: 0x1E4 }
  - { offset: 0x14D36, size: 0x8, addend: 0x0, symName: __RNvMsL_NtNtNtCsdFlNUEO95cG_5alloc11collections5btree4nodeINtB5_6HandleINtB5_7NodeRefNtNtB5_6marker3MutNtNtCscwCr4GBBztI_3syn8lifetime8LifetimeNtNtB7_7set_val9SetValZSTNtB1m_8InternalENtB1m_4EdgeE19correct_parent_linkCs3tyqko2rdGU_12serde_derive, symObjAddr: 0x4C80, symBinAddr: 0x58E0, symSize: 0x9C }
  - { offset: 0x14F3D, size: 0x8, addend: 0x0, symName: __RNvMsL_NtNtNtCsdFlNUEO95cG_5alloc11collections5btree4nodeINtB5_6HandleINtB5_7NodeRefNtNtB5_6marker3MutNtNtNtCs3tyqko2rdGU_12serde_derive9internals4name4NameNtNtB7_7set_val9SetValZSTNtB1m_8InternalENtB1m_4EdgeE19correct_parent_linkB1I_, symObjAddr: 0x4D1C, symBinAddr: 0x597C, symSize: 0x9C }
  - { offset: 0x15272, size: 0x8, addend: 0x0, symName: __RNvMsM_NtNtNtCsdFlNUEO95cG_5alloc11collections5btree4nodeINtB5_6HandleINtB5_7NodeRefNtNtB5_6marker3MutNtNtCscwCr4GBBztI_3syn8lifetime8LifetimeNtNtB7_7set_val9SetValZSTNtB1m_8InternalENtB1m_4EdgeE10insert_fitCs3tyqko2rdGU_12serde_derive, symObjAddr: 0x4DB8, symBinAddr: 0x5A18, symSize: 0x284 }
  - { offset: 0x15903, size: 0x8, addend: 0x0, symName: __RNvMsM_NtNtNtCsdFlNUEO95cG_5alloc11collections5btree4nodeINtB5_6HandleINtB5_7NodeRefNtNtB5_6marker3MutNtNtNtCs3tyqko2rdGU_12serde_derive9internals4name4NameNtNtB7_7set_val9SetValZSTNtB1m_8InternalENtB1m_4EdgeE10insert_fitB1I_, symObjAddr: 0x503C, symBinAddr: 0x5C9C, symSize: 0x284 }
  - { offset: 0x15E2A, size: 0x8, addend: 0x0, symName: __RNvMsO_NtNtNtCsdFlNUEO95cG_5alloc11collections5btree4nodeINtB5_6HandleINtB5_7NodeRefNtNtB5_6marker3MutNtNtCscwCr4GBBztI_3syn8lifetime8LifetimeNtNtB7_7set_val9SetValZSTNtB1m_8InternalENtB1m_4EdgeE7descendCs3tyqko2rdGU_12serde_derive, symObjAddr: 0x52C0, symBinAddr: 0x5F20, symSize: 0x9C }
  - { offset: 0x16015, size: 0x8, addend: 0x0, symName: __RNvMsO_NtNtNtCsdFlNUEO95cG_5alloc11collections5btree4nodeINtB5_6HandleINtB5_7NodeRefNtNtB5_6marker3MutNtNtNtCs3tyqko2rdGU_12serde_derive9internals4name4NameNtNtB7_7set_val9SetValZSTNtB1m_8InternalENtB1m_4EdgeE7descendB1I_, symObjAddr: 0x535C, symBinAddr: 0x5FBC, symSize: 0x9C }
  - { offset: 0x161D5, size: 0x8, addend: 0x0, symName: __RNvMsO_NtNtNtCsdFlNUEO95cG_5alloc11collections5btree4nodeINtB5_6HandleINtB5_7NodeRefNtNtB5_6marker5DyingNtNtCscwCr4GBBztI_3syn8lifetime8LifetimeNtNtB7_7set_val9SetValZSTNtB1m_8InternalENtB1m_4EdgeE7descendCs3tyqko2rdGU_12serde_derive, symObjAddr: 0x53F8, symBinAddr: 0x6058, symSize: 0x9C }
  - { offset: 0x16395, size: 0x8, addend: 0x0, symName: __RNvMsO_NtNtNtCsdFlNUEO95cG_5alloc11collections5btree4nodeINtB5_6HandleINtB5_7NodeRefNtNtB5_6marker5DyingNtNtNtCs3tyqko2rdGU_12serde_derive9internals4name4NameNtNtB7_7set_val9SetValZSTNtB1m_8InternalENtB1m_4EdgeE7descendB1K_, symObjAddr: 0x5494, symBinAddr: 0x60F4, symSize: 0x9C }
  - { offset: 0x16555, size: 0x8, addend: 0x0, symName: __RNvMsO_NtNtNtCsdFlNUEO95cG_5alloc11collections5btree4nodeINtB5_6HandleINtB5_7NodeRefNtNtB5_6marker5ImmutNtNtCscwCr4GBBztI_3syn8lifetime8LifetimeNtNtB7_7set_val9SetValZSTNtB1m_8InternalENtB1m_4EdgeE7descendCs3tyqko2rdGU_12serde_derive, symObjAddr: 0x5530, symBinAddr: 0x6190, symSize: 0x9C }
  - { offset: 0x16715, size: 0x8, addend: 0x0, symName: __RNvMsO_NtNtNtCsdFlNUEO95cG_5alloc11collections5btree4nodeINtB5_6HandleINtB5_7NodeRefNtNtB5_6marker5ImmutNtNtNtCs3tyqko2rdGU_12serde_derive9internals4name4NameNtNtB7_7set_val9SetValZSTNtB1m_8InternalENtB1m_4EdgeE7descendB1K_, symObjAddr: 0x55CC, symBinAddr: 0x622C, symSize: 0x9C }
  - { offset: 0x169E3, size: 0x8, addend: 0x0, symName: __RNvMsP_NtNtNtCsdFlNUEO95cG_5alloc11collections5btree4nodeINtB5_6HandleINtB5_7NodeRefNtNtB5_6marker5ImmutNtNtCscwCr4GBBztI_3syn8lifetime8LifetimeNtNtB7_7set_val9SetValZSTNtB1m_14LeafOrInternalENtB1m_2KVE7into_kvCs3tyqko2rdGU_12serde_derive, symObjAddr: 0x5668, symBinAddr: 0x62C8, symSize: 0xE0 }
  - { offset: 0x16CD3, size: 0x8, addend: 0x0, symName: __RNvMsP_NtNtNtCsdFlNUEO95cG_5alloc11collections5btree4nodeINtB5_6HandleINtB5_7NodeRefNtNtB5_6marker5ImmutNtNtCscwCr4GBBztI_3syn8lifetime8LifetimeNtNtB7_7set_val9SetValZSTNtB1m_4LeafENtB1m_2KVE7into_kvCs3tyqko2rdGU_12serde_derive, symObjAddr: 0x5748, symBinAddr: 0x63A8, symSize: 0xE0 }
  - { offset: 0x16FB6, size: 0x8, addend: 0x0, symName: __RNvMsP_NtNtNtCsdFlNUEO95cG_5alloc11collections5btree4nodeINtB5_6HandleINtB5_7NodeRefNtNtB5_6marker5ImmutNtNtCscwCr4GBBztI_3syn8lifetime8LifetimeNtNtB7_7set_val9SetValZSTNtB1m_8InternalENtB1m_2KVE7into_kvCs3tyqko2rdGU_12serde_derive, symObjAddr: 0x5828, symBinAddr: 0x6488, symSize: 0xE0 }
  - { offset: 0x172FC, size: 0x8, addend: 0x0, symName: __RNvMsP_NtNtNtCsdFlNUEO95cG_5alloc11collections5btree4nodeINtB5_6HandleINtB5_7NodeRefNtNtB5_6marker5ImmutNtNtNtCs3tyqko2rdGU_12serde_derive9internals4name4NameNtNtB7_7set_val9SetValZSTNtB1m_14LeafOrInternalENtB1m_2KVE7into_kvB1K_, symObjAddr: 0x5908, symBinAddr: 0x6568, symSize: 0xE0 }
  - { offset: 0x17589, size: 0x8, addend: 0x0, symName: __RNvMsQ_NtNtNtCsdFlNUEO95cG_5alloc11collections5btree4nodeINtB5_6HandleINtB5_7NodeRefNtNtB5_6marker3MutNtNtCscwCr4GBBztI_3syn8lifetime8LifetimeNtNtB7_7set_val9SetValZSTNtB1m_14LeafOrInternalENtB1m_2KVE12into_val_mutCs3tyqko2rdGU_12serde_derive, symObjAddr: 0x59E8, symBinAddr: 0x6648, symSize: 0x94 }
  - { offset: 0x176E8, size: 0x8, addend: 0x0, symName: __RNvMsQ_NtNtNtCsdFlNUEO95cG_5alloc11collections5btree4nodeINtB5_6HandleINtB5_7NodeRefNtNtB5_6marker3MutNtNtCscwCr4GBBztI_3syn8lifetime8LifetimeNtNtB7_7set_val9SetValZSTNtB1m_4LeafENtB1m_2KVE12into_val_mutCs3tyqko2rdGU_12serde_derive, symObjAddr: 0x5A7C, symBinAddr: 0x66DC, symSize: 0x94 }
  - { offset: 0x17847, size: 0x8, addend: 0x0, symName: __RNvMsQ_NtNtNtCsdFlNUEO95cG_5alloc11collections5btree4nodeINtB5_6HandleINtB5_7NodeRefNtNtB5_6marker3MutNtNtNtCs3tyqko2rdGU_12serde_derive9internals4name4NameNtNtB7_7set_val9SetValZSTNtB1m_14LeafOrInternalENtB1m_2KVE12into_val_mutB1I_, symObjAddr: 0x5B10, symBinAddr: 0x6770, symSize: 0x94 }
  - { offset: 0x17A08, size: 0x8, addend: 0x0, symName: __RNvMsS_NtNtNtCsdFlNUEO95cG_5alloc11collections5btree4nodeINtB5_6HandleINtB5_7NodeRefNtNtB5_6marker3MutNtNtCscwCr4GBBztI_3syn8lifetime8LifetimeNtNtB7_7set_val9SetValZSTNtB1m_14LeafOrInternalENtB1m_2KVE6kv_mutCs3tyqko2rdGU_12serde_derive, symObjAddr: 0x5BA4, symBinAddr: 0x6804, symSize: 0xF4 }
  - { offset: 0x17CA4, size: 0x8, addend: 0x0, symName: __RNvMsS_NtNtNtCsdFlNUEO95cG_5alloc11collections5btree4nodeINtB5_6HandleINtB5_7NodeRefNtNtB5_6marker3MutNtNtNtCs3tyqko2rdGU_12serde_derive9internals4name4NameNtNtB7_7set_val9SetValZSTNtB1m_14LeafOrInternalENtB1m_2KVE6kv_mutB1I_, symObjAddr: 0x5C98, symBinAddr: 0x68F8, symSize: 0xF4 }
  - { offset: 0x17F22, size: 0x8, addend: 0x0, symName: __RNvMsT_NtNtNtCsdFlNUEO95cG_5alloc11collections5btree4nodeINtB5_6HandleINtB5_7NodeRefNtNtB5_6marker5DyingNtNtCscwCr4GBBztI_3syn8lifetime8LifetimeNtNtB7_7set_val9SetValZSTNtB1m_14LeafOrInternalENtB1m_2KVE12drop_key_valCs3tyqko2rdGU_12serde_derive, symObjAddr: 0x5D8C, symBinAddr: 0x69EC, symSize: 0x120 }
  - { offset: 0x181BF, size: 0x8, addend: 0x0, symName: __RNvMsT_NtNtNtCsdFlNUEO95cG_5alloc11collections5btree4nodeINtB5_6HandleINtB5_7NodeRefNtNtB5_6marker5DyingNtNtNtCs3tyqko2rdGU_12serde_derive9internals4name4NameNtNtB7_7set_val9SetValZSTNtB1m_14LeafOrInternalENtB1m_2KVE12drop_key_valB1K_, symObjAddr: 0x5EAC, symBinAddr: 0x6B0C, symSize: 0x120 }
  - { offset: 0x1861B, size: 0x8, addend: 0x0, symName: __RNvMsU_NtNtNtCsdFlNUEO95cG_5alloc11collections5btree4nodeINtB5_6HandleINtB5_7NodeRefNtNtB5_6marker3MutNtNtCscwCr4GBBztI_3syn8lifetime8LifetimeNtNtB7_7set_val9SetValZSTNtB1m_4LeafENtB1m_2KVE15split_leaf_dataCs3tyqko2rdGU_12serde_derive, symObjAddr: 0x5FCC, symBinAddr: 0x6C2C, symSize: 0x400 }
  - { offset: 0x19040, size: 0x8, addend: 0x0, symName: __RNvMsU_NtNtNtCsdFlNUEO95cG_5alloc11collections5btree4nodeINtB5_6HandleINtB5_7NodeRefNtNtB5_6marker3MutNtNtCscwCr4GBBztI_3syn8lifetime8LifetimeNtNtB7_7set_val9SetValZSTNtB1m_8InternalENtB1m_2KVE15split_leaf_dataCs3tyqko2rdGU_12serde_derive, symObjAddr: 0x63CC, symBinAddr: 0x702C, symSize: 0x400 }
  - { offset: 0x19A65, size: 0x8, addend: 0x0, symName: __RNvMsU_NtNtNtCsdFlNUEO95cG_5alloc11collections5btree4nodeINtB5_6HandleINtB5_7NodeRefNtNtB5_6marker3MutNtNtNtCs3tyqko2rdGU_12serde_derive9internals4name4NameNtNtB7_7set_val9SetValZSTNtB1m_4LeafENtB1m_2KVE15split_leaf_dataB1I_, symObjAddr: 0x67CC, symBinAddr: 0x742C, symSize: 0x400 }
  - { offset: 0x1A48A, size: 0x8, addend: 0x0, symName: __RNvMsU_NtNtNtCsdFlNUEO95cG_5alloc11collections5btree4nodeINtB5_6HandleINtB5_7NodeRefNtNtB5_6marker3MutNtNtNtCs3tyqko2rdGU_12serde_derive9internals4name4NameNtNtB7_7set_val9SetValZSTNtB1m_8InternalENtB1m_2KVE15split_leaf_dataB1I_, symObjAddr: 0x6BCC, symBinAddr: 0x782C, symSize: 0x400 }
  - { offset: 0x1AD66, size: 0x8, addend: 0x0, symName: __RNvMse_NtNtNtCsdFlNUEO95cG_5alloc11collections5btree4nodeINtB5_7NodeRefNtNtB5_6marker3MutNtNtCscwCr4GBBztI_3syn8lifetime8LifetimeNtNtB7_7set_val9SetValZSTNtB19_14LeafOrInternalE6ascendCs3tyqko2rdGU_12serde_derive, symObjAddr: 0x6FCC, symBinAddr: 0x7C2C, symSize: 0x17C }
  - { offset: 0x1B02F, size: 0x8, addend: 0x0, symName: __RNvMse_NtNtNtCsdFlNUEO95cG_5alloc11collections5btree4nodeINtB5_7NodeRefNtNtB5_6marker3MutNtNtNtCs3tyqko2rdGU_12serde_derive9internals4name4NameNtNtB7_7set_val9SetValZSTNtB19_14LeafOrInternalE6ascendB1v_, symObjAddr: 0x7148, symBinAddr: 0x7DA8, symSize: 0x17C }
  - { offset: 0x1B2D1, size: 0x8, addend: 0x0, symName: __RNvMse_NtNtNtCsdFlNUEO95cG_5alloc11collections5btree4nodeINtB5_7NodeRefNtNtB5_6marker5DyingNtNtCscwCr4GBBztI_3syn8lifetime8LifetimeNtNtB7_7set_val9SetValZSTNtB19_14LeafOrInternalE6ascendCs3tyqko2rdGU_12serde_derive, symObjAddr: 0x72C4, symBinAddr: 0x7F24, symSize: 0x17C }
  - { offset: 0x1B573, size: 0x8, addend: 0x0, symName: __RNvMse_NtNtNtCsdFlNUEO95cG_5alloc11collections5btree4nodeINtB5_7NodeRefNtNtB5_6marker5DyingNtNtNtCs3tyqko2rdGU_12serde_derive9internals4name4NameNtNtB7_7set_val9SetValZSTNtB19_14LeafOrInternalE6ascendB1x_, symObjAddr: 0x7440, symBinAddr: 0x80A0, symSize: 0x17C }
  - { offset: 0x1B815, size: 0x8, addend: 0x0, symName: __RNvMse_NtNtNtCsdFlNUEO95cG_5alloc11collections5btree4nodeINtB5_7NodeRefNtNtB5_6marker5ImmutNtNtCscwCr4GBBztI_3syn8lifetime8LifetimeNtNtB7_7set_val9SetValZSTNtB19_14LeafOrInternalE6ascendCs3tyqko2rdGU_12serde_derive, symObjAddr: 0x75BC, symBinAddr: 0x821C, symSize: 0x17C }
  - { offset: 0x1BAB7, size: 0x8, addend: 0x0, symName: __RNvMse_NtNtNtCsdFlNUEO95cG_5alloc11collections5btree4nodeINtB5_7NodeRefNtNtB5_6marker5ImmutNtNtNtCs3tyqko2rdGU_12serde_derive9internals4name4NameNtNtB7_7set_val9SetValZSTNtB19_14LeafOrInternalE6ascendB1x_, symObjAddr: 0x7738, symBinAddr: 0x8398, symSize: 0x17C }
  - { offset: 0x1BCE5, size: 0x8, addend: 0x0, symName: __RNvMsg_NtNtNtCsdFlNUEO95cG_5alloc11collections5btree4nodeINtB5_7NodeRefNtNtB5_6marker5ImmutNtNtCscwCr4GBBztI_3syn8lifetime8LifetimeNtNtB7_7set_val9SetValZSTNtB19_14LeafOrInternalE4keysCs3tyqko2rdGU_12serde_derive, symObjAddr: 0x78B4, symBinAddr: 0x8514, symSize: 0xA4 }
  - { offset: 0x1BEC6, size: 0x8, addend: 0x0, symName: __RNvMsg_NtNtNtCsdFlNUEO95cG_5alloc11collections5btree4nodeINtB5_7NodeRefNtNtB5_6marker5ImmutNtNtNtCs3tyqko2rdGU_12serde_derive9internals4name4NameNtNtB7_7set_val9SetValZSTNtB19_14LeafOrInternalE4keysB1x_, symObjAddr: 0x7958, symBinAddr: 0x85B8, symSize: 0xA4 }
  - { offset: 0x1C190, size: 0x8, addend: 0x0, symName: __RNvMsh_NtNtNtCsdFlNUEO95cG_5alloc11collections5btree8navigateINtNtB7_4node6HandleINtB10_7NodeRefNtNtB10_6marker5ImmutNtNtCscwCr4GBBztI_3syn8lifetime8LifetimeNtNtB7_7set_val9SetValZSTNtB1y_4LeafENtB1y_4EdgeE7next_kvCs3tyqko2rdGU_12serde_derive, symObjAddr: 0x79FC, symBinAddr: 0x865C, symSize: 0x194 }
  - { offset: 0x1C4DD, size: 0x8, addend: 0x0, symName: __RNvMsh_NtNtNtCsdFlNUEO95cG_5alloc11collections5btree8navigateINtNtB7_4node6HandleINtB10_7NodeRefNtNtB10_6marker5ImmutNtNtNtCs3tyqko2rdGU_12serde_derive9internals4name4NameNtNtB7_7set_val9SetValZSTNtB1y_4LeafENtB1y_4EdgeE7next_kvB1X_, symObjAddr: 0x7B90, symBinAddr: 0x87F0, symSize: 0x194 }
  - { offset: 0x1C8CD, size: 0x8, addend: 0x0, symName: __RNvMsp_NtNtNtCsdFlNUEO95cG_5alloc11collections5btree8navigateINtNtB7_4node6HandleINtB10_7NodeRefNtNtB10_6marker5DyingNtNtCscwCr4GBBztI_3syn8lifetime8LifetimeNtNtB7_7set_val9SetValZSTNtB1y_14LeafOrInternalENtB1y_2KVE14next_leaf_edgeCs3tyqko2rdGU_12serde_derive, symObjAddr: 0x7D24, symBinAddr: 0x8984, symSize: 0x210 }
  - { offset: 0x1CD51, size: 0x8, addend: 0x0, symName: __RNvMsp_NtNtNtCsdFlNUEO95cG_5alloc11collections5btree8navigateINtNtB7_4node6HandleINtB10_7NodeRefNtNtB10_6marker5DyingNtNtNtCs3tyqko2rdGU_12serde_derive9internals4name4NameNtNtB7_7set_val9SetValZSTNtB1y_14LeafOrInternalENtB1y_2KVE14next_leaf_edgeB1X_, symObjAddr: 0x7F34, symBinAddr: 0x8B94, symSize: 0x210 }
  - { offset: 0x1D1D5, size: 0x8, addend: 0x0, symName: __RNvMsp_NtNtNtCsdFlNUEO95cG_5alloc11collections5btree8navigateINtNtB7_4node6HandleINtB10_7NodeRefNtNtB10_6marker5ImmutNtNtCscwCr4GBBztI_3syn8lifetime8LifetimeNtNtB7_7set_val9SetValZSTNtB1y_14LeafOrInternalENtB1y_2KVE14next_leaf_edgeCs3tyqko2rdGU_12serde_derive, symObjAddr: 0x8144, symBinAddr: 0x8DA4, symSize: 0x210 }
  - { offset: 0x1D659, size: 0x8, addend: 0x0, symName: __RNvMsp_NtNtNtCsdFlNUEO95cG_5alloc11collections5btree8navigateINtNtB7_4node6HandleINtB10_7NodeRefNtNtB10_6marker5ImmutNtNtNtCs3tyqko2rdGU_12serde_derive9internals4name4NameNtNtB7_7set_val9SetValZSTNtB1y_14LeafOrInternalENtB1y_2KVE14next_leaf_edgeB1X_, symObjAddr: 0x8354, symBinAddr: 0x8FB4, symSize: 0x210 }
  - { offset: 0x1DA8B, size: 0x8, addend: 0x0, symName: __RNvMsu_NtNtNtCsdFlNUEO95cG_5alloc11collections5btree4nodeINtB5_7NodeRefNtNtB5_6marker3MutNtNtCscwCr4GBBztI_3syn8lifetime8LifetimeNtNtB7_7set_val9SetValZSTNtB19_4LeafE16push_with_handleCs3tyqko2rdGU_12serde_derive, symObjAddr: 0x8564, symBinAddr: 0x91C4, symSize: 0x1EC }
  - { offset: 0x1DF63, size: 0x8, addend: 0x0, symName: __RNvMsu_NtNtNtCsdFlNUEO95cG_5alloc11collections5btree4nodeINtB5_7NodeRefNtNtB5_6marker3MutNtNtNtCs3tyqko2rdGU_12serde_derive9internals4name4NameNtNtB7_7set_val9SetValZSTNtB19_4LeafE16push_with_handleB1v_, symObjAddr: 0x8750, symBinAddr: 0x93B0, symSize: 0x1EC }
  - { offset: 0x1E527, size: 0x8, addend: 0x0, symName: __RNvMsv_NtNtNtCsdFlNUEO95cG_5alloc11collections5btree4nodeINtB5_7NodeRefNtNtB5_6marker3MutNtNtCscwCr4GBBztI_3syn8lifetime8LifetimeNtNtB7_7set_val9SetValZSTNtB19_8InternalE4pushCs3tyqko2rdGU_12serde_derive, symObjAddr: 0x893C, symBinAddr: 0x959C, symSize: 0x2E4 }
  - { offset: 0x1EC2F, size: 0x8, addend: 0x0, symName: __RNvMsv_NtNtNtCsdFlNUEO95cG_5alloc11collections5btree4nodeINtB5_7NodeRefNtNtB5_6marker3MutNtNtNtCs3tyqko2rdGU_12serde_derive9internals4name4NameNtNtB7_7set_val9SetValZSTNtB19_8InternalE4pushB1v_, symObjAddr: 0x8C20, symBinAddr: 0x9880, symSize: 0x2E4 }
  - { offset: 0x1F0B4, size: 0x8, addend: 0x0, symName: __RNCNCNvNtCs3tyqko2rdGU_12serde_derive3ser24serialize_struct_visitors_00B7_, symObjAddr: 0x0, symBinAddr: 0x9B80, symSize: 0xF4 }
  - { offset: 0x20091, size: 0x8, addend: 0x0, symName: __RNCNCNvNtCs3tyqko2rdGU_12serde_derive3ser24serialize_struct_visitors_00B7_, symObjAddr: 0x0, symBinAddr: 0x9B80, symSize: 0xF4 }
  - { offset: 0x200FD, size: 0x8, addend: 0x0, symName: __RNCNvNtCs3tyqko2rdGU_12serde_derive3ser24serialize_struct_visitor0B5_, symObjAddr: 0x130C, symBinAddr: 0xAE8C, symSize: 0x44 }
  - { offset: 0x20148, size: 0x8, addend: 0x0, symName: __RNCNvNtCs3tyqko2rdGU_12serde_derive3ser24serialize_struct_visitors_0B5_, symObjAddr: 0x1350, symBinAddr: 0xAED0, symSize: 0xB84 }
  - { offset: 0x20406, size: 0x8, addend: 0x0, symName: __RNCNCNvNtCs3tyqko2rdGU_12serde_derive3ser30serialize_tuple_struct_visitors_00B7_, symObjAddr: 0xF4, symBinAddr: 0x9C74, symSize: 0xF4 }
  - { offset: 0x20472, size: 0x8, addend: 0x0, symName: __RNCNvNtCs3tyqko2rdGU_12serde_derive3ser30serialize_tuple_struct_visitor0B5_, symObjAddr: 0x24E0, symBinAddr: 0xC060, symSize: 0x48 }
  - { offset: 0x204BD, size: 0x8, addend: 0x0, symName: __RNCNvNtCs3tyqko2rdGU_12serde_derive3ser30serialize_tuple_struct_visitors_0B5_, symObjAddr: 0x2528, symBinAddr: 0xC0A8, symSize: 0x698 }
  - { offset: 0x206D0, size: 0x8, addend: 0x0, symName: __RNCNvNtCs3tyqko2rdGU_12serde_derive3ser14serialize_enum0B5_, symObjAddr: 0x1E8, symBinAddr: 0x9D68, symSize: 0x64 }
  - { offset: 0x2074C, size: 0x8, addend: 0x0, symName: __RNCNvNtCs3tyqko2rdGU_12serde_derive3ser16serialize_struct0B5_, symObjAddr: 0x24C, symBinAddr: 0x9DCC, symSize: 0x8C }
  - { offset: 0x20792, size: 0x8, addend: 0x0, symName: __RNCNvNtCs3tyqko2rdGU_12serde_derive3ser17serialize_variant0B5_, symObjAddr: 0x2D8, symBinAddr: 0x9E58, symSize: 0xF0 }
  - { offset: 0x20808, size: 0x8, addend: 0x0, symName: __RNCNvNtCs3tyqko2rdGU_12serde_derive3ser17serialize_variants_0B5_, symObjAddr: 0x3C8, symBinAddr: 0x9F48, symSize: 0x18 }
  - { offset: 0x20855, size: 0x8, addend: 0x0, symName: __RNCNvNtCs3tyqko2rdGU_12serde_derive3ser19wrap_serialize_with0B5_, symObjAddr: 0x3E0, symBinAddr: 0x9F60, symSize: 0x58 }
  - { offset: 0x2089B, size: 0x8, addend: 0x0, symName: __RNCNvNtCs3tyqko2rdGU_12serde_derive3ser21needs_serialize_bound0B5_, symObjAddr: 0x438, symBinAddr: 0x9FB8, symSize: 0xC4 }
  - { offset: 0x208DE, size: 0x8, addend: 0x0, symName: __RNCNvNtCs3tyqko2rdGU_12serde_derive3ser21serialize_transparent0B5_, symObjAddr: 0x4FC, symBinAddr: 0xA07C, symSize: 0x3C }
  - { offset: 0x20921, size: 0x8, addend: 0x0, symName: __RNCNvNtCs3tyqko2rdGU_12serde_derive3ser22serialize_tuple_struct0B5_, symObjAddr: 0x538, symBinAddr: 0xA0B8, symSize: 0x48 }
  - { offset: 0x2096C, size: 0x8, addend: 0x0, symName: __RNCNvNtCs3tyqko2rdGU_12serde_derive3ser22serialize_tuple_structs0_0B5_, symObjAddr: 0x580, symBinAddr: 0xA100, symSize: 0xF8 }
  - { offset: 0x209CC, size: 0x8, addend: 0x0, symName: __RNCNvNtCs3tyqko2rdGU_12serde_derive3ser22serialize_tuple_structs_0B5_, symObjAddr: 0x678, symBinAddr: 0xA1F8, symSize: 0x35C }
  - { offset: 0x20B03, size: 0x8, addend: 0x0, symName: __RNCNvNtCs3tyqko2rdGU_12serde_derive3ser23serialize_struct_as_map0B5_, symObjAddr: 0x9D4, symBinAddr: 0xA554, symSize: 0x44 }
  - { offset: 0x20B5B, size: 0x8, addend: 0x0, symName: __RNCNvNtCs3tyqko2rdGU_12serde_derive3ser23serialize_tuple_variant0B5_, symObjAddr: 0xA18, symBinAddr: 0xA598, symSize: 0x48 }
  - { offset: 0x20BA6, size: 0x8, addend: 0x0, symName: __RNCNvNtCs3tyqko2rdGU_12serde_derive3ser23serialize_tuple_variants0_0B5_, symObjAddr: 0xA60, symBinAddr: 0xA5E0, symSize: 0xF8 }
  - { offset: 0x20C06, size: 0x8, addend: 0x0, symName: __RNCNvNtCs3tyqko2rdGU_12serde_derive3ser23serialize_tuple_variants_0B5_, symObjAddr: 0xB58, symBinAddr: 0xA6D8, symSize: 0x380 }
  - { offset: 0x20D63, size: 0x8, addend: 0x0, symName: __RNCNvNtCs3tyqko2rdGU_12serde_derive3ser24serialize_struct_variant0B5_, symObjAddr: 0xED8, symBinAddr: 0xAA58, symSize: 0x40 }
  - { offset: 0x20D9C, size: 0x8, addend: 0x0, symName: __RNCNvNtCs3tyqko2rdGU_12serde_derive3ser24serialize_struct_variants0_0B5_, symObjAddr: 0xF18, symBinAddr: 0xAA98, symSize: 0x2B8 }
  - { offset: 0x20E74, size: 0x8, addend: 0x0, symName: __RNCNvNtCs3tyqko2rdGU_12serde_derive3ser24serialize_struct_variants1_0B5_, symObjAddr: 0x11D0, symBinAddr: 0xAD50, symSize: 0xF8 }
  - { offset: 0x20ED4, size: 0x8, addend: 0x0, symName: __RNCNvNtCs3tyqko2rdGU_12serde_derive3ser24serialize_struct_variants_0B5_, symObjAddr: 0x12C8, symBinAddr: 0xAE48, symSize: 0x44 }
  - { offset: 0x20F41, size: 0x8, addend: 0x0, symName: __RNCNvNtCs3tyqko2rdGU_12serde_derive3ser26serialize_struct_as_struct0B5_, symObjAddr: 0x1ED4, symBinAddr: 0xBA54, symSize: 0x44 }
  - { offset: 0x20F8C, size: 0x8, addend: 0x0, symName: __RNCNvNtCs3tyqko2rdGU_12serde_derive3ser26serialize_struct_as_structs0_0B5_, symObjAddr: 0x1F18, symBinAddr: 0xBA98, symSize: 0xF8 }
  - { offset: 0x20FEC, size: 0x8, addend: 0x0, symName: __RNCNvNtCs3tyqko2rdGU_12serde_derive3ser26serialize_struct_as_structs_0B5_, symObjAddr: 0x2010, symBinAddr: 0xBB90, symSize: 0x2E0 }
  - { offset: 0x210E0, size: 0x8, addend: 0x0, symName: __RNCNvNtCs3tyqko2rdGU_12serde_derive3ser27wrap_serialize_variant_with0B5_, symObjAddr: 0x22F0, symBinAddr: 0xBE70, symSize: 0x1C }
  - { offset: 0x21119, size: 0x8, addend: 0x0, symName: __RNCNvNtCs3tyqko2rdGU_12serde_derive3ser27wrap_serialize_variant_withs_0B5_, symObjAddr: 0x230C, symBinAddr: 0xBE8C, symSize: 0x1D4 }
  - { offset: 0x21205, size: 0x8, addend: 0x0, symName: __RNCNvNtCs3tyqko2rdGU_12serde_derive3ser35serialize_adjacently_tagged_variant0B5_, symObjAddr: 0x2BC0, symBinAddr: 0xC740, symSize: 0x18 }
  - { offset: 0x2123E, size: 0x8, addend: 0x0, symName: __RNCNvNtCs3tyqko2rdGU_12serde_derive3ser35serialize_adjacently_tagged_variants0_0B5_, symObjAddr: 0x2BD8, symBinAddr: 0xC758, symSize: 0x38 }
  - { offset: 0x21277, size: 0x8, addend: 0x0, symName: __RNCNvNtCs3tyqko2rdGU_12serde_derive3ser35serialize_adjacently_tagged_variants_0B5_, symObjAddr: 0x2C10, symBinAddr: 0xC790, symSize: 0x10C }
  - { offset: 0x21309, size: 0x8, addend: 0x0, symName: __RNCNvNtCs3tyqko2rdGU_12serde_derive3ser37serialize_struct_variant_with_flatten0B5_, symObjAddr: 0x2D1C, symBinAddr: 0xC89C, symSize: 0x44 }
  - { offset: 0x21354, size: 0x8, addend: 0x0, symName: __RNCNvNtCs3tyqko2rdGU_12serde_derive3ser37serialize_struct_variant_with_flattens0_0B5_, symObjAddr: 0x2D60, symBinAddr: 0xC8E0, symSize: 0x18 }
  - { offset: 0x2138D, size: 0x8, addend: 0x0, symName: __RNCNvNtCs3tyqko2rdGU_12serde_derive3ser37serialize_struct_variant_with_flattens_0B5_, symObjAddr: 0x2D78, symBinAddr: 0xC8F8, symSize: 0x18 }
  - { offset: 0x21457, size: 0x8, addend: 0x0, symName: __RNvNtCs3tyqko2rdGU_12serde_derive3ser10get_member, symObjAddr: 0x3A94, symBinAddr: 0xD614, symSize: 0x758 }
  - { offset: 0x21614, size: 0x8, addend: 0x0, symName: __RNvNtCs3tyqko2rdGU_12serde_derive3ser12precondition, symObjAddr: 0x41EC, symBinAddr: 0xDD6C, symSize: 0xE4 }
  - { offset: 0x2164A, size: 0x8, addend: 0x0, symName: __RNvNtCs3tyqko2rdGU_12serde_derive3ser14build_generics, symObjAddr: 0x42D0, symBinAddr: 0xDE50, symSize: 0x260 }
  - { offset: 0x216E2, size: 0x8, addend: 0x0, symName: __RNvNtCs3tyqko2rdGU_12serde_derive3ser14serialize_body, symObjAddr: 0x4530, symBinAddr: 0xE0B0, symSize: 0x258 }
  - { offset: 0x217A5, size: 0x8, addend: 0x0, symName: __RNvNtCs3tyqko2rdGU_12serde_derive3ser14serialize_enum, symObjAddr: 0x4788, symBinAddr: 0xE308, symSize: 0x65C }
  - { offset: 0x2192B, size: 0x8, addend: 0x0, symName: __RNvNtCs3tyqko2rdGU_12serde_derive3ser14serialize_into, symObjAddr: 0x4DE4, symBinAddr: 0xE964, symSize: 0x390 }
  - { offset: 0x219D2, size: 0x8, addend: 0x0, symName: __RNvNtCs3tyqko2rdGU_12serde_derive3ser15effective_style, symObjAddr: 0x5174, symBinAddr: 0xECF4, symSize: 0xB8 }
  - { offset: 0x21A1E, size: 0x8, addend: 0x0, symName: __RNvNtCs3tyqko2rdGU_12serde_derive3ser16serialize_struct, symObjAddr: 0x522C, symBinAddr: 0xEDAC, symSize: 0x190 }
  - { offset: 0x21AC6, size: 0x8, addend: 0x0, symName: __RNvNtCs3tyqko2rdGU_12serde_derive3ser17serialize_variant, symObjAddr: 0x53BC, symBinAddr: 0xEF3C, symSize: 0xE88 }
  - { offset: 0x21F4A, size: 0x8, addend: 0x0, symName: __RNvNtCs3tyqko2rdGU_12serde_derive3ser19wrap_serialize_with, symObjAddr: 0x6244, symBinAddr: 0xFDC4, symSize: 0x10DC }
  - { offset: 0x22434, size: 0x8, addend: 0x0, symName: __RNvNtCs3tyqko2rdGU_12serde_derive3ser21needs_serialize_bound, symObjAddr: 0x7320, symBinAddr: 0x10EA0, symSize: 0xFC }
  - { offset: 0x2246E, size: 0x8, addend: 0x0, symName: __RNvNtCs3tyqko2rdGU_12serde_derive3ser21serialize_transparent, symObjAddr: 0x741C, symBinAddr: 0x10F9C, symSize: 0x3C8 }
  - { offset: 0x225DD, size: 0x8, addend: 0x0, symName: __RNvNtCs3tyqko2rdGU_12serde_derive3ser21serialize_unit_struct, symObjAddr: 0x77E4, symBinAddr: 0x11364, symSize: 0x18C }
  - { offset: 0x22651, size: 0x8, addend: 0x0, symName: __RNvNtCs3tyqko2rdGU_12serde_derive3ser22serialize_tuple_struct, symObjAddr: 0x7970, symBinAddr: 0x114F0, symSize: 0x5B0 }
  - { offset: 0x227ED, size: 0x8, addend: 0x0, symName: __RNvNtCs3tyqko2rdGU_12serde_derive3ser23expand_derive_serialize, symObjAddr: 0x7F20, symBinAddr: 0x11AA0, symSize: 0x10E4 }
  - { offset: 0x22A43, size: 0x8, addend: 0x0, symName: __RNvNtCs3tyqko2rdGU_12serde_derive3ser23serialize_struct_as_map, symObjAddr: 0x9004, symBinAddr: 0x12B84, symSize: 0x5C8 }
  - { offset: 0x22BC7, size: 0x8, addend: 0x0, symName: __RNvNtCs3tyqko2rdGU_12serde_derive3ser23serialize_tuple_variant, symObjAddr: 0x95CC, symBinAddr: 0x1314C, symSize: 0xA14 }
  - { offset: 0x22E61, size: 0x8, addend: 0x0, symName: __RNvNtCs3tyqko2rdGU_12serde_derive3ser24serialize_newtype_struct, symObjAddr: 0x9FE0, symBinAddr: 0x13B60, symSize: 0x3C8 }
  - { offset: 0x22F8C, size: 0x8, addend: 0x0, symName: __RNvNtCs3tyqko2rdGU_12serde_derive3ser24serialize_struct_variant, symObjAddr: 0xA3A8, symBinAddr: 0x13F28, symSize: 0xFA4 }
  - { offset: 0x23328, size: 0x8, addend: 0x0, symName: __RNvNtCs3tyqko2rdGU_12serde_derive3ser24serialize_struct_visitor, symObjAddr: 0xB34C, symBinAddr: 0x14ECC, symSize: 0x90 }
  - { offset: 0x23383, size: 0x8, addend: 0x0, symName: __RNvNtCs3tyqko2rdGU_12serde_derive3ser25wrap_serialize_field_with, symObjAddr: 0xB3DC, symBinAddr: 0x14F5C, symSize: 0x104 }
  - { offset: 0x233F5, size: 0x8, addend: 0x0, symName: __RNvNtCs3tyqko2rdGU_12serde_derive3ser26serialize_struct_as_struct, symObjAddr: 0xB4E0, symBinAddr: 0x15060, symSize: 0x680 }
  - { offset: 0x235BF, size: 0x8, addend: 0x0, symName: __RNvNtCs3tyqko2rdGU_12serde_derive3ser26serialize_struct_tag_field, symObjAddr: 0xBB60, symBinAddr: 0x156E0, symSize: 0x220 }
  - { offset: 0x2366B, size: 0x8, addend: 0x0, symName: __RNvNtCs3tyqko2rdGU_12serde_derive3ser26serialize_untagged_variant, symObjAddr: 0xBD80, symBinAddr: 0x15900, symSize: 0x7C0 }
  - { offset: 0x2384E, size: 0x8, addend: 0x0, symName: __RNvNtCs3tyqko2rdGU_12serde_derive3ser27wrap_serialize_variant_with, symObjAddr: 0xC540, symBinAddr: 0x160C0, symSize: 0x15C }
  - { offset: 0x238C7, size: 0x8, addend: 0x0, symName: __RNvNtCs3tyqko2rdGU_12serde_derive3ser30serialize_tuple_struct_visitor, symObjAddr: 0xC69C, symBinAddr: 0x1621C, symSize: 0xBC }
  - { offset: 0x23923, size: 0x8, addend: 0x0, symName: __RNvNtCs3tyqko2rdGU_12serde_derive3ser35serialize_adjacently_tagged_variant, symObjAddr: 0xC758, symBinAddr: 0x162D8, symSize: 0x2AE8 }
  - { offset: 0x23FDF, size: 0x8, addend: 0x0, symName: __RNvNtCs3tyqko2rdGU_12serde_derive3ser35serialize_externally_tagged_variant, symObjAddr: 0xF240, symBinAddr: 0x18DC0, symSize: 0x964 }
  - { offset: 0x241E1, size: 0x8, addend: 0x0, symName: __RNvNtCs3tyqko2rdGU_12serde_derive3ser35serialize_internally_tagged_variant, symObjAddr: 0xFBA4, symBinAddr: 0x19724, symSize: 0xD1C }
  - { offset: 0x24445, size: 0x8, addend: 0x0, symName: __RNvNtCs3tyqko2rdGU_12serde_derive3ser37serialize_struct_variant_with_flatten, symObjAddr: 0x108C0, symBinAddr: 0x1A440, symSize: 0x1D9C }
  - { offset: 0x24AFE, size: 0x8, addend: 0x0, symName: __RNvNtCs3tyqko2rdGU_12serde_derive3ser6mut_if, symObjAddr: 0x1265C, symBinAddr: 0x1C1DC, symSize: 0xD4 }
  - { offset: 0x27844, size: 0x8, addend: 0x0, symName: __RNvXs1_NtNtNtCs85QQFkKrybG_4core3ops8function5implsQNCNvNtCs3tyqko2rdGU_12serde_derive3ser22serialize_tuple_struct0INtB7_5FnMutTRTjRNtNtNtBU_9internals3ast5FieldEEE8call_mutBU_, symObjAddr: 0x12730, symBinAddr: 0x1C2B0, symSize: 0x30 }
  - { offset: 0x27893, size: 0x8, addend: 0x0, symName: __RNvXs1_NtNtNtCs85QQFkKrybG_4core3ops8function5implsQNCNvNtCs3tyqko2rdGU_12serde_derive3ser23serialize_struct_as_map0INtB7_5FnMutTRRNtNtNtBU_9internals3ast5FieldEE8call_mutBU_, symObjAddr: 0x12760, symBinAddr: 0x1C2E0, symSize: 0x30 }
  - { offset: 0x278E2, size: 0x8, addend: 0x0, symName: __RNvXs1_NtNtNtCs85QQFkKrybG_4core3ops8function5implsQNCNvNtCs3tyqko2rdGU_12serde_derive3ser23serialize_tuple_variant0INtB7_5FnMutTRTjRNtNtNtBU_9internals3ast5FieldEEE8call_mutBU_, symObjAddr: 0x12790, symBinAddr: 0x1C310, symSize: 0x30 }
  - { offset: 0x27931, size: 0x8, addend: 0x0, symName: __RNvXs1_NtNtNtCs85QQFkKrybG_4core3ops8function5implsQNCNvNtCs3tyqko2rdGU_12serde_derive3ser24serialize_struct_variants_0INtB7_5FnMutTRRNtNtNtBU_9internals3ast5FieldEE8call_mutBU_, symObjAddr: 0x127C0, symBinAddr: 0x1C340, symSize: 0x30 }
  - { offset: 0x27980, size: 0x8, addend: 0x0, symName: __RNvXs1_NtNtNtCs85QQFkKrybG_4core3ops8function5implsQNCNvNtCs3tyqko2rdGU_12serde_derive3ser24serialize_struct_visitor0INtB7_5FnMutTRRNtNtNtBU_9internals3ast5FieldEE8call_mutBU_, symObjAddr: 0x127F0, symBinAddr: 0x1C370, symSize: 0x30 }
  - { offset: 0x279CF, size: 0x8, addend: 0x0, symName: __RNvXs1_NtNtNtCs85QQFkKrybG_4core3ops8function5implsQNCNvNtCs3tyqko2rdGU_12serde_derive3ser26serialize_struct_as_struct0INtB7_5FnMutTRRNtNtNtBU_9internals3ast5FieldEE8call_mutBU_, symObjAddr: 0x12820, symBinAddr: 0x1C3A0, symSize: 0x30 }
  - { offset: 0x27A1E, size: 0x8, addend: 0x0, symName: __RNvXs1_NtNtNtCs85QQFkKrybG_4core3ops8function5implsQNCNvNtCs3tyqko2rdGU_12serde_derive3ser30serialize_tuple_struct_visitor0INtB7_5FnMutTRTjRNtNtNtBU_9internals3ast5FieldEEE8call_mutBU_, symObjAddr: 0x12850, symBinAddr: 0x1C3D0, symSize: 0x30 }
  - { offset: 0x27A6D, size: 0x8, addend: 0x0, symName: __RNvXs1_NtNtNtCs85QQFkKrybG_4core3ops8function5implsQNCNvNtCs3tyqko2rdGU_12serde_derive3ser37serialize_struct_variant_with_flatten0INtB7_5FnMutTRRNtNtNtBU_9internals3ast5FieldEE8call_mutBU_, symObjAddr: 0x12880, symBinAddr: 0x1C400, symSize: 0x30 }
  - { offset: 0x2E95E, size: 0x8, addend: 0x0, symName: __RNvMNtCs3tyqko2rdGU_12serde_derive3serNtB2_10Parameters3new, symObjAddr: 0x2D90, symBinAddr: 0xC910, symSize: 0x228 }
  - { offset: 0x2EAA8, size: 0x8, addend: 0x0, symName: __RNvMNtCs3tyqko2rdGU_12serde_derive3serNtB2_10Parameters9type_name, symObjAddr: 0x2FB8, symBinAddr: 0xCB38, symSize: 0x70 }
  - { offset: 0x2EAF4, size: 0x8, addend: 0x0, symName: __RNvMs0_NtCs3tyqko2rdGU_12serde_derive3serNtB5_10TupleTrait17serialize_element, symObjAddr: 0x3028, symBinAddr: 0xCBA8, symSize: 0x3C4 }
  - { offset: 0x2EBD1, size: 0x8, addend: 0x0, symName: __RNvMs_NtCs3tyqko2rdGU_12serde_derive3serNtB4_11StructTrait10skip_field, symObjAddr: 0x33EC, symBinAddr: 0xCF6C, symSize: 0x2E4 }
  - { offset: 0x2EC6D, size: 0x8, addend: 0x0, symName: __RNvMs_NtCs3tyqko2rdGU_12serde_derive3serNtB4_11StructTrait15serialize_field, symObjAddr: 0x36D0, symBinAddr: 0xD250, symSize: 0x3C4 }
  - { offset: 0x2F438, size: 0x8, addend: 0x0, symName: __RINvMsi_NtCsdFlNUEO95cG_5alloc3vecINtB6_3VecNtCsfwj6t2KTYdc_11proc_macro211TokenStreamE14extend_trustedINtNtNtNtCs85QQFkKrybG_4core4iter8adapters3map3MapINtNtB1I_9enumerate9EnumerateINtNtNtB1M_5slice4iter4IterNtNtNtCs3tyqko2rdGU_12serde_derive9internals3ast7VariantEENCNvNtB3r_3ser14serialize_enum0EEB3r_, symObjAddr: 0x0, symBinAddr: 0x1C430, symSize: 0x190 }
  - { offset: 0x37213, size: 0x8, addend: 0x0, symName: __RNvXs1_NtCs85QQFkKrybG_4core7convertINtNtCsdFlNUEO95cG_5alloc3vec3VecNtNtCscwCr4GBBztI_3syn8generics14WherePredicateEINtB5_4IntoINtNtB7_6option6OptionBy_EE4intoCs3tyqko2rdGU_12serde_derive, symObjAddr: 0x69AC, symBinAddr: 0x22DDC, symSize: 0x14 }
  - { offset: 0x3B8A9, size: 0x8, addend: 0x0, symName: __RINvXsd_NtCsdFlNUEO95cG_5alloc3vecINtB6_3VecNtCsfwj6t2KTYdc_11proc_macro211TokenStreamEINtNtNtNtCs85QQFkKrybG_4core4iter6traits7collect12FromIteratorBG_E9from_iterINtNtNtB1u_8adapters10filter_map9FilterMapINtNtB2G_6filter6FilterINtNtB2G_9enumerate9EnumerateINtNtNtB1w_5slice4iter4IterNtNtNtCs3tyqko2rdGU_12serde_derive9internals3ast7VariantEENCNvNtNtB4E_2de15enum_adjacently11deserializes0_0ENCB5w_s1_0EEB4E_, symObjAddr: 0x24A4, symBinAddr: 0x1E8D4, symSize: 0x3C }
  - { offset: 0x3B8EA, size: 0x8, addend: 0x0, symName: __RINvXsd_NtCsdFlNUEO95cG_5alloc3vecINtB6_3VecNtCsfwj6t2KTYdc_11proc_macro211TokenStreamEINtNtNtNtCs85QQFkKrybG_4core4iter6traits7collect12FromIteratorBG_E9from_iterINtNtNtB1u_8adapters10filter_map9FilterMapINtNtNtB1w_5slice4iter4IterNtNtNtCs3tyqko2rdGU_12serde_derive9internals3ast7VariantENCNvNtB3O_7pretend24pretend_fields_used_enum0EEB3O_, symObjAddr: 0x24E0, symBinAddr: 0x1E910, symSize: 0x3C }
  - { offset: 0x3B92B, size: 0x8, addend: 0x0, symName: __RINvXsd_NtCsdFlNUEO95cG_5alloc3vecINtB6_3VecNtCsfwj6t2KTYdc_11proc_macro211TokenStreamEINtNtNtNtCs85QQFkKrybG_4core4iter6traits7collect12FromIteratorBG_E9from_iterINtNtNtB1u_8adapters3map3MapINtNtB2G_6filter6FilterINtNtB2G_9enumerate9EnumerateINtNtNtB1w_5slice4iter4IterNtNtNtCs3tyqko2rdGU_12serde_derive9internals3ast5FieldEENCNvNtB4q_3ser30serialize_tuple_struct_visitor0ENCB5g_s_0EEB4q_, symObjAddr: 0x251C, symBinAddr: 0x1E94C, symSize: 0x3C }
  - { offset: 0x3B96C, size: 0x8, addend: 0x0, symName: __RINvXsd_NtCsdFlNUEO95cG_5alloc3vecINtB6_3VecNtCsfwj6t2KTYdc_11proc_macro211TokenStreamEINtNtNtNtCs85QQFkKrybG_4core4iter6traits7collect12FromIteratorBG_E9from_iterINtNtNtB1u_8adapters3map3MapINtNtB2G_6filter6FilterINtNtB2G_9enumerate9EnumerateINtNtNtB1w_5slice4iter4IterNtNtNtCs3tyqko2rdGU_12serde_derive9internals3ast7VariantEENCNvNtNtB4q_2de15enum_adjacently11deserialize0ENCB5i_s_0EEB4q_, symObjAddr: 0x2558, symBinAddr: 0x1E988, symSize: 0x3C }
  - { offset: 0x3B9AD, size: 0x8, addend: 0x0, symName: __RINvXsd_NtCsdFlNUEO95cG_5alloc3vecINtB6_3VecNtCsfwj6t2KTYdc_11proc_macro211TokenStreamEINtNtNtNtCs85QQFkKrybG_4core4iter6traits7collect12FromIteratorBG_E9from_iterINtNtNtB1u_8adapters3map3MapINtNtB2G_6filter6FilterINtNtNtB1w_5slice4iter4IterNtNtNtCs3tyqko2rdGU_12serde_derive9internals3ast5FieldENCNvNtB3X_3ser24serialize_struct_visitor0ENCB4M_s_0EEB3X_, symObjAddr: 0x2594, symBinAddr: 0x1E9C4, symSize: 0x3C }
  - { offset: 0x3B9EE, size: 0x8, addend: 0x0, symName: __RINvXsd_NtCsdFlNUEO95cG_5alloc3vecINtB6_3VecNtCsfwj6t2KTYdc_11proc_macro211TokenStreamEINtNtNtNtCs85QQFkKrybG_4core4iter6traits7collect12FromIteratorBG_E9from_iterINtNtNtB1u_8adapters3map3MapINtNtB2G_9enumerate9EnumerateINtNtNtB1w_5slice4iter4IterNtNtNtCs3tyqko2rdGU_12serde_derive9internals3ast7VariantEENCNvNtB43_3ser14serialize_enum0EEB43_, symObjAddr: 0x25D0, symBinAddr: 0x1EA00, symSize: 0x3C }
  - { offset: 0x3BA2F, size: 0x8, addend: 0x0, symName: __RINvXsd_NtCsdFlNUEO95cG_5alloc3vecINtB6_3VecNtCsfwj6t2KTYdc_11proc_macro211TokenStreamEINtNtNtNtCs85QQFkKrybG_4core4iter6traits7collect12FromIteratorBG_E9from_iterINtNtNtB1u_8adapters3map3MapINtNtNtB1w_5slice4iter4IterNtNtNtCs3tyqko2rdGU_12serde_derive9internals3ast5FieldENCNvNtB3A_3ser27wrap_serialize_variant_withs_0EEB3A_, symObjAddr: 0x260C, symBinAddr: 0x1EA3C, symSize: 0x40 }
  - { offset: 0x3BA6F, size: 0x8, addend: 0x0, symName: __RINvXsd_NtCsdFlNUEO95cG_5alloc3vecINtB6_3VecNtCsfwj6t2KTYdc_11proc_macro25IdentEINtNtNtNtCs85QQFkKrybG_4core4iter6traits7collect12FromIteratorBG_E9from_iterINtNtNtB1n_8adapters3map3MapINtNtNtB1p_3ops5range5RangejENCNCNvNtCs3tyqko2rdGU_12serde_derive7pretend21pretend_variants_used00EEB3x_, symObjAddr: 0x264C, symBinAddr: 0x1EA7C, symSize: 0x38 }
  - { offset: 0x3BAAF, size: 0x8, addend: 0x0, symName: __RINvXsd_NtCsdFlNUEO95cG_5alloc3vecINtB6_3VecNtNtCs3tyqko2rdGU_12serde_derive2de16FieldWithAliasesEINtNtNtNtCs85QQFkKrybG_4core4iter6traits7collect12FromIteratorBG_E9from_iterINtNtNtB1F_8adapters3map3MapINtNtB2R_6filter6FilterINtNtB2R_9enumerate9EnumerateINtNtNtB1H_5slice4iter4IterNtNtNtBK_9internals3ast5FieldEENCNvNtBI_7struct_11deserialize0ENCB52_s_0EEBK_, symObjAddr: 0x2684, symBinAddr: 0x1EAB4, symSize: 0x3C }
  - { offset: 0x3BAF0, size: 0x8, addend: 0x0, symName: __RINvXsd_NtCsdFlNUEO95cG_5alloc3vecINtB6_3VecNtNtCs3tyqko2rdGU_12serde_derive2de16FieldWithAliasesEINtNtNtNtCs85QQFkKrybG_4core4iter6traits7collect12FromIteratorBG_E9from_iterINtNtNtB1F_8adapters3map3MapINtNtB2R_6filter6FilterINtNtB2R_9enumerate9EnumerateINtNtNtB1H_5slice4iter4IterNtNtNtBK_9internals3ast7VariantEENCNvNtBI_5enum_25prepare_enum_variant_enum0ENCB54_s2_0EEBK_, symObjAddr: 0x26C0, symBinAddr: 0x1EAF0, symSize: 0x3C }
  - { offset: 0x3BB31, size: 0x8, addend: 0x0, symName: __RINvXsd_NtCsdFlNUEO95cG_5alloc3vecINtB6_3VecNtNtCs3tyqko2rdGU_12serde_derive2de16FieldWithAliasesEINtNtNtNtCs85QQFkKrybG_4core4iter6traits7collect12FromIteratorBG_E9from_iterINtNtNtB1F_8adapters3map3MapINtNtNtB1H_5slice4iter4IterNtNtNtBK_9internals3ast7VariantENCNvNtBI_10identifier18deserialize_customs_0EEBK_, symObjAddr: 0x26FC, symBinAddr: 0x1EB2C, symSize: 0x40 }
  - { offset: 0x3BB71, size: 0x8, addend: 0x0, symName: __RINvXsd_NtCsdFlNUEO95cG_5alloc3vecINtB6_3VecNtNtCscwCr4GBBztI_3syn4expr6MemberEINtNtNtNtCs85QQFkKrybG_4core4iter6traits7collect12FromIteratorBG_E9from_iterINtNtNtB1m_8adapters3map3MapINtNtNtB1o_3ops5range5RangejENCNvNtCs3tyqko2rdGU_12serde_derive3ser35serialize_adjacently_tagged_variants_0EEB3u_, symObjAddr: 0x273C, symBinAddr: 0x1EB6C, symSize: 0x38 }
  - { offset: 0x3BBB1, size: 0x8, addend: 0x0, symName: __RINvXsd_NtCsdFlNUEO95cG_5alloc3vecINtB6_3VecNtNtCscwCr4GBBztI_3syn4expr6MemberEINtNtNtNtCs85QQFkKrybG_4core4iter6traits7collect12FromIteratorBG_E9from_iterINtNtNtB1m_8adapters3map3MapINtNtNtB1o_5slice4iter4IterNtNtNtCs3tyqko2rdGU_12serde_derive9internals3ast5FieldENCNvNtB3s_3ser35serialize_adjacently_tagged_variants0_0EEB3s_, symObjAddr: 0x2774, symBinAddr: 0x1EBA4, symSize: 0x40 }
  - { offset: 0x3BBF1, size: 0x8, addend: 0x0, symName: __RINvXsd_NtCsdFlNUEO95cG_5alloc3vecINtB6_3VecNtNtCscwCr4GBBztI_3syn8generics14WherePredicateEINtNtNtNtCs85QQFkKrybG_4core4iter6traits7collect12FromIteratorBG_E9from_iterINtNtBK_10punctuated10PunctuatedBG_NtNtBK_5token5CommaEECs3tyqko2rdGU_12serde_derive, symObjAddr: 0x27B4, symBinAddr: 0x1EBE4, symSize: 0x3C }
  - { offset: 0x3BC32, size: 0x8, addend: 0x0, symName: __RINvXsd_NtCsdFlNUEO95cG_5alloc3vecINtB6_3VecNtNtNtCs3tyqko2rdGU_12serde_derive9internals3ast5FieldEINtNtNtNtCs85QQFkKrybG_4core4iter6traits7collect12FromIteratorBG_E9from_iterINtNtNtB1G_8adapters3map3MapINtNtB2S_9enumerate9EnumerateINtNtCscwCr4GBBztI_3syn10punctuated4IterNtNtB3N_4data5FieldEENCNvBI_15fields_from_ast0EEBM_, symObjAddr: 0x27F0, symBinAddr: 0x1EC20, symSize: 0x3C }
  - { offset: 0x3BC73, size: 0x8, addend: 0x0, symName: __RINvXsd_NtCsdFlNUEO95cG_5alloc3vecINtB6_3VecNtNtNtCs3tyqko2rdGU_12serde_derive9internals3ast7VariantEINtNtNtNtCs85QQFkKrybG_4core4iter6traits7collect12FromIteratorBG_E9from_iterINtNtNtB1I_8adapters3map3MapINtNtCscwCr4GBBztI_3syn10punctuated4IterNtNtB3m_4data7VariantENCNvBI_13enum_from_ast0EEBM_, symObjAddr: 0x282C, symBinAddr: 0x1EC5C, symSize: 0x3C }
  - { offset: 0x3BCB4, size: 0x8, addend: 0x0, symName: __RINvXsd_NtCsdFlNUEO95cG_5alloc3vecINtB6_3VecRNtCsfwj6t2KTYdc_11proc_macro25IdentEINtNtNtNtCs85QQFkKrybG_4core4iter6traits7collect12FromIteratorBG_E9from_iterINtNtNtB1o_8adapters3map3MapINtNtNtB1q_5slice4iter4IterNtNtCs3tyqko2rdGU_12serde_derive2de16FieldWithAliasesENCNvNtB3q_10identifier21deserialize_generated0EEB3s_, symObjAddr: 0x2868, symBinAddr: 0x1EC98, symSize: 0x40 }
  - { offset: 0x3BCF4, size: 0x8, addend: 0x0, symName: __RINvXsd_NtCsdFlNUEO95cG_5alloc3vecINtB6_3VecRNtNtCscwCr4GBBztI_3syn2ty4TypeEINtNtNtNtCs85QQFkKrybG_4core4iter6traits7collect12FromIteratorBG_E9from_iterINtNtNtB1j_8adapters3map3MapINtNtNtB1l_5slice4iter4IterNtNtNtCs3tyqko2rdGU_12serde_derive9internals3ast5FieldENCNvNtB3p_3ser27wrap_serialize_variant_with0EEB3p_, symObjAddr: 0x28A8, symBinAddr: 0x1ECD8, symSize: 0x40 }
  - { offset: 0x3BD34, size: 0x8, addend: 0x0, symName: __RINvXsd_NtCsdFlNUEO95cG_5alloc3vecINtB6_3VecRNtNtCscwCr4GBBztI_3syn4expr6MemberEINtNtNtNtCs85QQFkKrybG_4core4iter6traits7collect12FromIteratorBG_E9from_iterINtNtNtB1n_8adapters3map3MapINtNtNtB1p_5slice4iter4IterNtNtNtCs3tyqko2rdGU_12serde_derive9internals3ast5FieldENCNvNtB3t_3ser37serialize_struct_variant_with_flattens0_0EEB3t_, symObjAddr: 0x28E8, symBinAddr: 0x1ED18, symSize: 0x40 }
  - { offset: 0x3BD74, size: 0x8, addend: 0x0, symName: __RINvXsd_NtCsdFlNUEO95cG_5alloc3vecINtB6_3VecRNtNtCscwCr4GBBztI_3syn4expr6MemberEINtNtNtNtCs85QQFkKrybG_4core4iter6traits7collect12FromIteratorBG_E9from_iterINtNtNtB1n_8adapters3map3MapINtNtNtB1p_5slice4iter4IterNtNtNtCs3tyqko2rdGU_12serde_derive9internals3ast5FieldENCNvNtB3t_7pretend33pretend_fields_used_struct_packed0EEB3t_, symObjAddr: 0x2928, symBinAddr: 0x1ED58, symSize: 0x40 }
  - { offset: 0x3BDB4, size: 0x8, addend: 0x0, symName: __RINvXsd_NtCsdFlNUEO95cG_5alloc3vecINtB6_3VecTRNtNtNtCs3tyqko2rdGU_12serde_derive9internals3ast5FieldNtCsfwj6t2KTYdc_11proc_macro25IdentEEINtNtNtNtCs85QQFkKrybG_4core4iter6traits7collect12FromIteratorBG_E9from_iterINtNtNtB2i_8adapters3map3MapINtNtB3u_9enumerate9EnumerateINtNtNtB2k_5slice4iter4IterBI_EENCNvNtNtBO_2de7struct_15deserialize_map0EEBO_, symObjAddr: 0x2968, symBinAddr: 0x1ED98, symSize: 0x3C }
  - { offset: 0x3BDF5, size: 0x8, addend: 0x0, symName: __RINvXsd_NtCsdFlNUEO95cG_5alloc3vecINtB6_3VechEINtNtNtNtCs85QQFkKrybG_4core4iter6traits7collect12FromIteratorhE9from_iterINtNtNtBP_8adapters3map3MapINtNtNtBR_5slice4iter4IterhENCNvNtB8_3str13replace_ascii0EECs3tyqko2rdGU_12serde_derive, symObjAddr: 0x29A4, symBinAddr: 0x1EDD4, symSize: 0x3C }
  - { offset: 0x3BE41, size: 0x8, addend: 0x0, symName: __RNCINvMsi_NtCsdFlNUEO95cG_5alloc3vecINtB8_3VecNtCsfwj6t2KTYdc_11proc_macro211TokenStreamE14extend_trustedINtNtNtNtCs85QQFkKrybG_4core4iter8adapters3map3MapINtNtB1K_9enumerate9EnumerateINtNtNtB1O_5slice4iter4IterNtNtNtCs3tyqko2rdGU_12serde_derive9internals3ast7VariantEENCNvNtB3t_3ser14serialize_enum0EE0B3t_, symObjAddr: 0x29E0, symBinAddr: 0x1EE10, symSize: 0x3C }
  - { offset: 0x3BEF6, size: 0x8, addend: 0x0, symName: __RNCINvMsi_NtCsdFlNUEO95cG_5alloc3vecINtB8_3VecNtCsfwj6t2KTYdc_11proc_macro211TokenStreamE14extend_trustedINtNtNtNtCs85QQFkKrybG_4core4iter8adapters3map3MapINtNtNtB1O_5slice4iter4IterNtNtNtCs3tyqko2rdGU_12serde_derive9internals3ast5FieldENCNvNtB30_3ser27wrap_serialize_variant_withs_0EE0B30_, symObjAddr: 0x2A1C, symBinAddr: 0x1EE4C, symSize: 0x3C }
  - { offset: 0x3BFAB, size: 0x8, addend: 0x0, symName: __RNCINvMsi_NtCsdFlNUEO95cG_5alloc3vecINtB8_3VecNtCsfwj6t2KTYdc_11proc_macro25IdentE14extend_trustedINtNtNtNtCs85QQFkKrybG_4core4iter8adapters3map3MapINtNtNtB1H_3ops5range5RangejENCNCNvNtCs3tyqko2rdGU_12serde_derive7pretend21pretend_variants_used00EE0B2X_, symObjAddr: 0x2A58, symBinAddr: 0x1EE88, symSize: 0x44 }
  - { offset: 0x3C058, size: 0x8, addend: 0x0, symName: __RNCINvMsi_NtCsdFlNUEO95cG_5alloc3vecINtB8_3VecNtNtCs3tyqko2rdGU_12serde_derive2de16FieldWithAliasesE14extend_trustedINtNtNtNtCs85QQFkKrybG_4core4iter8adapters3map3MapINtNtNtB1Z_5slice4iter4IterNtNtNtBM_9internals3ast7VariantENCNvNtBK_10identifier18deserialize_customs_0EE0BM_, symObjAddr: 0x2A9C, symBinAddr: 0x1EECC, symSize: 0x3C }
  - { offset: 0x3C10D, size: 0x8, addend: 0x0, symName: __RNCINvMsi_NtCsdFlNUEO95cG_5alloc3vecINtB8_3VecNtNtCscwCr4GBBztI_3syn4expr6MemberE14extend_trustedINtNtNtNtCs85QQFkKrybG_4core4iter8adapters3map3MapINtNtNtB1G_3ops5range5RangejENCNvNtCs3tyqko2rdGU_12serde_derive3ser35serialize_adjacently_tagged_variants_0EE0B2U_, symObjAddr: 0x2AD8, symBinAddr: 0x1EF08, symSize: 0x44 }
  - { offset: 0x3C1BA, size: 0x8, addend: 0x0, symName: __RNCINvMsi_NtCsdFlNUEO95cG_5alloc3vecINtB8_3VecNtNtCscwCr4GBBztI_3syn4expr6MemberE14extend_trustedINtNtNtNtCs85QQFkKrybG_4core4iter8adapters3map3MapINtNtNtB1G_5slice4iter4IterNtNtNtCs3tyqko2rdGU_12serde_derive9internals3ast5FieldENCNvNtB2S_3ser35serialize_adjacently_tagged_variants0_0EE0B2S_, symObjAddr: 0x2B1C, symBinAddr: 0x1EF4C, symSize: 0x44 }
  - { offset: 0x3C267, size: 0x8, addend: 0x0, symName: __RNCINvMsi_NtCsdFlNUEO95cG_5alloc3vecINtB8_3VecRNtCsfwj6t2KTYdc_11proc_macro25IdentE14extend_trustedINtNtNtNtCs85QQFkKrybG_4core4iter8adapters3map3MapINtNtNtB1I_5slice4iter4IterNtNtCs3tyqko2rdGU_12serde_derive2de16FieldWithAliasesENCNvNtB2Q_10identifier21deserialize_generated0EE0B2S_, symObjAddr: 0x2B60, symBinAddr: 0x1EF90, symSize: 0x34 }
  - { offset: 0x3C30F, size: 0x8, addend: 0x0, symName: __RNCINvMsi_NtCsdFlNUEO95cG_5alloc3vecINtB8_3VecRNtNtCscwCr4GBBztI_3syn2ty4TypeE14extend_trustedINtNtNtNtCs85QQFkKrybG_4core4iter8adapters3map3MapINtNtNtB1D_5slice4iter4IterNtNtNtCs3tyqko2rdGU_12serde_derive9internals3ast5FieldENCNvNtB2P_3ser27wrap_serialize_variant_with0EE0B2P_, symObjAddr: 0x2B94, symBinAddr: 0x1EFC4, symSize: 0x34 }
  - { offset: 0x3C3B7, size: 0x8, addend: 0x0, symName: __RNCINvMsi_NtCsdFlNUEO95cG_5alloc3vecINtB8_3VecRNtNtCscwCr4GBBztI_3syn4expr6MemberE14extend_trustedINtNtNtNtCs85QQFkKrybG_4core4iter8adapters3map3MapINtNtNtB1H_5slice4iter4IterNtNtNtCs3tyqko2rdGU_12serde_derive9internals3ast5FieldENCNvNtB2T_3ser37serialize_struct_variant_with_flattens0_0EE0B2T_, symObjAddr: 0x2BC8, symBinAddr: 0x1EFF8, symSize: 0x34 }
  - { offset: 0x3C45F, size: 0x8, addend: 0x0, symName: __RNCINvMsi_NtCsdFlNUEO95cG_5alloc3vecINtB8_3VecRNtNtCscwCr4GBBztI_3syn4expr6MemberE14extend_trustedINtNtNtNtCs85QQFkKrybG_4core4iter8adapters3map3MapINtNtNtB1H_5slice4iter4IterNtNtNtCs3tyqko2rdGU_12serde_derive9internals3ast5FieldENCNvNtB2T_7pretend33pretend_fields_used_struct_packed0EE0B2T_, symObjAddr: 0x2BFC, symBinAddr: 0x1F02C, symSize: 0x34 }
  - { offset: 0x3C507, size: 0x8, addend: 0x0, symName: __RNCINvMsi_NtCsdFlNUEO95cG_5alloc3vecINtB8_3VecTRNtNtNtCs3tyqko2rdGU_12serde_derive9internals3ast5FieldNtCsfwj6t2KTYdc_11proc_macro25IdentEE14extend_trustedINtNtNtNtCs85QQFkKrybG_4core4iter8adapters3map3MapINtNtB2y_9enumerate9EnumerateINtNtNtB2C_5slice4iter4IterBK_EENCNvNtNtBQ_2de7struct_15deserialize_map0EE0BQ_, symObjAddr: 0x2C30, symBinAddr: 0x1F060, symSize: 0x3C }
  - { offset: 0x3C5BC, size: 0x8, addend: 0x0, symName: __RNCINvMsi_NtCsdFlNUEO95cG_5alloc3vecINtB8_3VechE14extend_trustedINtNtNtNtCs85QQFkKrybG_4core4iter8adapters3map3MapINtNtNtB19_5slice4iter4IterhENCNvNtBa_3str13replace_ascii0EE0Cs3tyqko2rdGU_12serde_derive, symObjAddr: 0x2C6C, symBinAddr: 0x1F09C, symSize: 0x30 }
  - { offset: 0x3CD89, size: 0x8, addend: 0x0, symName: __RNvNvMs_NtCsdFlNUEO95cG_5alloc3vecINtB6_3VecppE17from_raw_parts_in18precondition_checkCs3tyqko2rdGU_12serde_derive, symObjAddr: 0x4BD0, symBinAddr: 0x21000, symSize: 0xAC }
  - { offset: 0x3CDF7, size: 0x8, addend: 0x0, symName: __RNvNvMs_NtCsdFlNUEO95cG_5alloc3vecINtB6_3VecppE7set_len18precondition_checkCs3tyqko2rdGU_12serde_derive, symObjAddr: 0x4C7C, symBinAddr: 0x210AC, symSize: 0xAC }
  - { offset: 0x3CE6B, size: 0x8, addend: 0x0, symName: __RNvXNtNtCsdFlNUEO95cG_5alloc3vec11spec_extendINtB4_3VecNtCsfwj6t2KTYdc_11proc_macro211TokenStreamEINtB2_10SpecExtendBR_INtNtNtNtCs85QQFkKrybG_4core4iter8adapters10filter_map9FilterMapINtNtB1Y_6filter6FilterINtNtB1Y_9enumerate9EnumerateINtNtNtB22_5slice4iter4IterNtNtNtCs3tyqko2rdGU_12serde_derive9internals3ast7VariantEENCNvNtNtB4i_2de15enum_adjacently11deserializes0_0ENCB5a_s1_0EE11spec_extendB4i_, symObjAddr: 0x4D28, symBinAddr: 0x21158, symSize: 0x24 }
  - { offset: 0x3CEBD, size: 0x8, addend: 0x0, symName: __RNvXNtNtCsdFlNUEO95cG_5alloc3vec11spec_extendINtB4_3VecNtCsfwj6t2KTYdc_11proc_macro211TokenStreamEINtB2_10SpecExtendBR_INtNtNtNtCs85QQFkKrybG_4core4iter8adapters10filter_map9FilterMapINtNtNtB22_5slice4iter4IterNtNtNtCs3tyqko2rdGU_12serde_derive9internals3ast7VariantENCNvNtB3s_7pretend24pretend_fields_used_enum0EE11spec_extendB3s_, symObjAddr: 0x4D4C, symBinAddr: 0x2117C, symSize: 0x24 }
  - { offset: 0x3CF0F, size: 0x8, addend: 0x0, symName: __RNvXNtNtCsdFlNUEO95cG_5alloc3vec11spec_extendINtB4_3VecNtCsfwj6t2KTYdc_11proc_macro211TokenStreamEINtB2_10SpecExtendBR_INtNtNtNtCs85QQFkKrybG_4core4iter8adapters3map3MapINtNtB1Y_6filter6FilterINtNtB1Y_9enumerate9EnumerateINtNtNtB22_5slice4iter4IterNtNtNtCs3tyqko2rdGU_12serde_derive9internals3ast5FieldEENCNvNtB44_3ser30serialize_tuple_struct_visitor0ENCB4U_s_0EE11spec_extendB44_, symObjAddr: 0x4D70, symBinAddr: 0x211A0, symSize: 0x24 }
  - { offset: 0x3CF61, size: 0x8, addend: 0x0, symName: __RNvXNtNtCsdFlNUEO95cG_5alloc3vec11spec_extendINtB4_3VecNtCsfwj6t2KTYdc_11proc_macro211TokenStreamEINtB2_10SpecExtendBR_INtNtNtNtCs85QQFkKrybG_4core4iter8adapters3map3MapINtNtB1Y_6filter6FilterINtNtB1Y_9enumerate9EnumerateINtNtNtB22_5slice4iter4IterNtNtNtCs3tyqko2rdGU_12serde_derive9internals3ast7VariantEENCNvNtNtB44_2de15enum_adjacently11deserialize0ENCB4W_s_0EE11spec_extendB44_, symObjAddr: 0x4D94, symBinAddr: 0x211C4, symSize: 0x24 }
  - { offset: 0x3CFB3, size: 0x8, addend: 0x0, symName: __RNvXNtNtCsdFlNUEO95cG_5alloc3vec11spec_extendINtB4_3VecNtCsfwj6t2KTYdc_11proc_macro211TokenStreamEINtB2_10SpecExtendBR_INtNtNtNtCs85QQFkKrybG_4core4iter8adapters3map3MapINtNtB1Y_6filter6FilterINtNtNtB22_5slice4iter4IterNtNtNtCs3tyqko2rdGU_12serde_derive9internals3ast5FieldENCNvNtB3B_3ser24serialize_struct_visitor0ENCB4q_s_0EE11spec_extendB3B_, symObjAddr: 0x4DB8, symBinAddr: 0x211E8, symSize: 0x24 }
  - { offset: 0x3D005, size: 0x8, addend: 0x0, symName: __RNvXNtNtCsdFlNUEO95cG_5alloc3vec11spec_extendINtB4_3VecNtNtCs3tyqko2rdGU_12serde_derive2de16FieldWithAliasesEINtB2_10SpecExtendBR_INtNtNtNtCs85QQFkKrybG_4core4iter8adapters3map3MapINtNtB29_6filter6FilterINtNtB29_9enumerate9EnumerateINtNtNtB2d_5slice4iter4IterNtNtNtBV_9internals3ast5FieldEENCNvNtBT_7struct_11deserialize0ENCB4G_s_0EE11spec_extendBV_, symObjAddr: 0x4DDC, symBinAddr: 0x2120C, symSize: 0x24 }
  - { offset: 0x3D057, size: 0x8, addend: 0x0, symName: __RNvXNtNtCsdFlNUEO95cG_5alloc3vec11spec_extendINtB4_3VecNtNtCs3tyqko2rdGU_12serde_derive2de16FieldWithAliasesEINtB2_10SpecExtendBR_INtNtNtNtCs85QQFkKrybG_4core4iter8adapters3map3MapINtNtB29_6filter6FilterINtNtB29_9enumerate9EnumerateINtNtNtB2d_5slice4iter4IterNtNtNtBV_9internals3ast7VariantEENCNvNtBT_5enum_25prepare_enum_variant_enum0ENCB4I_s2_0EE11spec_extendBV_, symObjAddr: 0x4E00, symBinAddr: 0x21230, symSize: 0x24 }
  - { offset: 0x3D0A9, size: 0x8, addend: 0x0, symName: __RNvXNtNtCsdFlNUEO95cG_5alloc3vec11spec_extendINtB4_3VecNtNtCscwCr4GBBztI_3syn8generics14WherePredicateEINtB2_10SpecExtendBR_INtNtBV_10punctuated8IntoIterBR_EE11spec_extendCs3tyqko2rdGU_12serde_derive, symObjAddr: 0x4E24, symBinAddr: 0x21254, symSize: 0x24 }
  - { offset: 0x3D0FB, size: 0x8, addend: 0x0, symName: __RNvXNtNtCsdFlNUEO95cG_5alloc3vec11spec_extendINtB4_3VecNtNtNtCs3tyqko2rdGU_12serde_derive9internals3ast5FieldEINtB2_10SpecExtendBR_INtNtNtNtCs85QQFkKrybG_4core4iter8adapters3map3MapINtNtB2a_9enumerate9EnumerateINtNtCscwCr4GBBztI_3syn10punctuated4IterNtNtB3r_4data5FieldEENCNvBT_15fields_from_ast0EE11spec_extendBX_, symObjAddr: 0x4E48, symBinAddr: 0x21278, symSize: 0x24 }
  - { offset: 0x3D14D, size: 0x8, addend: 0x0, symName: __RNvXNtNtCsdFlNUEO95cG_5alloc3vec11spec_extendINtB4_3VecNtNtNtCs3tyqko2rdGU_12serde_derive9internals3ast7VariantEINtB2_10SpecExtendBR_INtNtNtNtCs85QQFkKrybG_4core4iter8adapters3map3MapINtNtCscwCr4GBBztI_3syn10punctuated4IterNtNtB30_4data7VariantENCNvBT_13enum_from_ast0EE11spec_extendBX_, symObjAddr: 0x4E6C, symBinAddr: 0x2129C, symSize: 0x24 }
  - { offset: 0x3D1A5, size: 0x8, addend: 0x0, symName: __RNvXs_NtNtCsdFlNUEO95cG_5alloc3vec11spec_extendINtB6_3VecNtCsfwj6t2KTYdc_11proc_macro211TokenStreamEINtB4_10SpecExtendBT_INtNtNtNtCs85QQFkKrybG_4core4iter8adapters3map3MapINtNtB20_9enumerate9EnumerateINtNtNtB24_5slice4iter4IterNtNtNtCs3tyqko2rdGU_12serde_derive9internals3ast7VariantEENCNvNtB3J_3ser14serialize_enum0EE11spec_extendB3J_, symObjAddr: 0x6D70, symBinAddr: 0x231A0, symSize: 0x24 }
  - { offset: 0x3D1F7, size: 0x8, addend: 0x0, symName: __RNvXs_NtNtCsdFlNUEO95cG_5alloc3vec11spec_extendINtB6_3VecNtCsfwj6t2KTYdc_11proc_macro211TokenStreamEINtB4_10SpecExtendBT_INtNtNtNtCs85QQFkKrybG_4core4iter8adapters3map3MapINtNtNtB24_5slice4iter4IterNtNtNtCs3tyqko2rdGU_12serde_derive9internals3ast5FieldENCNvNtB3g_3ser27wrap_serialize_variant_withs_0EE11spec_extendB3g_, symObjAddr: 0x6D94, symBinAddr: 0x231C4, symSize: 0x34 }
  - { offset: 0x3D248, size: 0x8, addend: 0x0, symName: __RNvXs_NtNtCsdFlNUEO95cG_5alloc3vec11spec_extendINtB6_3VecNtCsfwj6t2KTYdc_11proc_macro25IdentEINtB4_10SpecExtendBT_INtNtNtNtCs85QQFkKrybG_4core4iter8adapters3map3MapINtNtNtB1X_3ops5range5RangejENCNCNvNtCs3tyqko2rdGU_12serde_derive7pretend21pretend_variants_used00EE11spec_extendB3d_, symObjAddr: 0x6DC8, symBinAddr: 0x231F8, symSize: 0x2C }
  - { offset: 0x3D299, size: 0x8, addend: 0x0, symName: __RNvXs_NtNtCsdFlNUEO95cG_5alloc3vec11spec_extendINtB6_3VecNtNtCs3tyqko2rdGU_12serde_derive2de16FieldWithAliasesEINtB4_10SpecExtendBT_INtNtNtNtCs85QQFkKrybG_4core4iter8adapters3map3MapINtNtNtB2f_5slice4iter4IterNtNtNtBX_9internals3ast7VariantENCNvNtBV_10identifier18deserialize_customs_0EE11spec_extendBX_, symObjAddr: 0x6DF4, symBinAddr: 0x23224, symSize: 0x34 }
  - { offset: 0x3D2EA, size: 0x8, addend: 0x0, symName: __RNvXs_NtNtCsdFlNUEO95cG_5alloc3vec11spec_extendINtB6_3VecNtNtCscwCr4GBBztI_3syn4expr6MemberEINtB4_10SpecExtendBT_INtNtNtNtCs85QQFkKrybG_4core4iter8adapters3map3MapINtNtNtB1W_3ops5range5RangejENCNvNtCs3tyqko2rdGU_12serde_derive3ser35serialize_adjacently_tagged_variants_0EE11spec_extendB3a_, symObjAddr: 0x6E28, symBinAddr: 0x23258, symSize: 0x2C }
  - { offset: 0x3D33B, size: 0x8, addend: 0x0, symName: __RNvXs_NtNtCsdFlNUEO95cG_5alloc3vec11spec_extendINtB6_3VecNtNtCscwCr4GBBztI_3syn4expr6MemberEINtB4_10SpecExtendBT_INtNtNtNtCs85QQFkKrybG_4core4iter8adapters3map3MapINtNtNtB1W_5slice4iter4IterNtNtNtCs3tyqko2rdGU_12serde_derive9internals3ast5FieldENCNvNtB38_3ser35serialize_adjacently_tagged_variants0_0EE11spec_extendB38_, symObjAddr: 0x6E54, symBinAddr: 0x23284, symSize: 0x34 }
  - { offset: 0x3D38C, size: 0x8, addend: 0x0, symName: __RNvXs_NtNtCsdFlNUEO95cG_5alloc3vec11spec_extendINtB6_3VecRNtCsfwj6t2KTYdc_11proc_macro25IdentEINtB4_10SpecExtendBT_INtNtNtNtCs85QQFkKrybG_4core4iter8adapters3map3MapINtNtNtB1Y_5slice4iter4IterNtNtCs3tyqko2rdGU_12serde_derive2de16FieldWithAliasesENCNvNtB36_10identifier21deserialize_generated0EE11spec_extendB38_, symObjAddr: 0x6E88, symBinAddr: 0x232B8, symSize: 0x34 }
  - { offset: 0x3D3DD, size: 0x8, addend: 0x0, symName: __RNvXs_NtNtCsdFlNUEO95cG_5alloc3vec11spec_extendINtB6_3VecRNtNtCscwCr4GBBztI_3syn2ty4TypeEINtB4_10SpecExtendBT_INtNtNtNtCs85QQFkKrybG_4core4iter8adapters3map3MapINtNtNtB1T_5slice4iter4IterNtNtNtCs3tyqko2rdGU_12serde_derive9internals3ast5FieldENCNvNtB35_3ser27wrap_serialize_variant_with0EE11spec_extendB35_, symObjAddr: 0x6EBC, symBinAddr: 0x232EC, symSize: 0x34 }
  - { offset: 0x3D42E, size: 0x8, addend: 0x0, symName: __RNvXs_NtNtCsdFlNUEO95cG_5alloc3vec11spec_extendINtB6_3VecRNtNtCscwCr4GBBztI_3syn4expr6MemberEINtB4_10SpecExtendBT_INtNtNtNtCs85QQFkKrybG_4core4iter8adapters3map3MapINtNtNtB1X_5slice4iter4IterNtNtNtCs3tyqko2rdGU_12serde_derive9internals3ast5FieldENCNvNtB39_3ser37serialize_struct_variant_with_flattens0_0EE11spec_extendB39_, symObjAddr: 0x6EF0, symBinAddr: 0x23320, symSize: 0x34 }
  - { offset: 0x3D47F, size: 0x8, addend: 0x0, symName: __RNvXs_NtNtCsdFlNUEO95cG_5alloc3vec11spec_extendINtB6_3VecRNtNtCscwCr4GBBztI_3syn4expr6MemberEINtB4_10SpecExtendBT_INtNtNtNtCs85QQFkKrybG_4core4iter8adapters3map3MapINtNtNtB1X_5slice4iter4IterNtNtNtCs3tyqko2rdGU_12serde_derive9internals3ast5FieldENCNvNtB39_7pretend33pretend_fields_used_struct_packed0EE11spec_extendB39_, symObjAddr: 0x6F24, symBinAddr: 0x23354, symSize: 0x34 }
  - { offset: 0x3D4D0, size: 0x8, addend: 0x0, symName: __RNvXs_NtNtCsdFlNUEO95cG_5alloc3vec11spec_extendINtB6_3VecTRNtNtNtCs3tyqko2rdGU_12serde_derive9internals3ast5FieldNtCsfwj6t2KTYdc_11proc_macro25IdentEEINtB4_10SpecExtendBT_INtNtNtNtCs85QQFkKrybG_4core4iter8adapters3map3MapINtNtB2O_9enumerate9EnumerateINtNtNtB2S_5slice4iter4IterBV_EENCNvNtNtB11_2de7struct_15deserialize_map0EE11spec_extendB11_, symObjAddr: 0x6F58, symBinAddr: 0x23388, symSize: 0x24 }
  - { offset: 0x3D522, size: 0x8, addend: 0x0, symName: __RNvXs_NtNtCsdFlNUEO95cG_5alloc3vec11spec_extendINtB6_3VechEINtB4_10SpecExtendhINtNtNtNtCs85QQFkKrybG_4core4iter8adapters3map3MapINtNtNtB1n_5slice4iter4IterhENCNvNtB8_3str13replace_ascii0EE11spec_extendCs3tyqko2rdGU_12serde_derive, symObjAddr: 0x6F7C, symBinAddr: 0x233AC, symSize: 0x24 }
  - { offset: 0x3D580, size: 0x8, addend: 0x0, symName: __RNvXNtNtCsdFlNUEO95cG_5alloc3vec14spec_from_iterINtB4_3VecNtCsfwj6t2KTYdc_11proc_macro211TokenStreamEINtB2_12SpecFromIterBU_INtNtNtNtCs85QQFkKrybG_4core4iter8adapters10filter_map9FilterMapINtNtB23_6filter6FilterINtNtB23_9enumerate9EnumerateINtNtNtB27_5slice4iter4IterNtNtNtCs3tyqko2rdGU_12serde_derive9internals3ast7VariantEENCNvNtNtB4n_2de15enum_adjacently11deserializes0_0ENCB5f_s1_0EE9from_iterB4n_, symObjAddr: 0x4E90, symBinAddr: 0x212C0, symSize: 0x14 }
  - { offset: 0x3D5BF, size: 0x8, addend: 0x0, symName: __RNvXNtNtCsdFlNUEO95cG_5alloc3vec14spec_from_iterINtB4_3VecNtCsfwj6t2KTYdc_11proc_macro211TokenStreamEINtB2_12SpecFromIterBU_INtNtNtNtCs85QQFkKrybG_4core4iter8adapters10filter_map9FilterMapINtNtNtB27_5slice4iter4IterNtNtNtCs3tyqko2rdGU_12serde_derive9internals3ast7VariantENCNvNtB3x_7pretend24pretend_fields_used_enum0EE9from_iterB3x_, symObjAddr: 0x4EA4, symBinAddr: 0x212D4, symSize: 0x14 }
  - { offset: 0x3D5FE, size: 0x8, addend: 0x0, symName: __RNvXNtNtCsdFlNUEO95cG_5alloc3vec14spec_from_iterINtB4_3VecNtCsfwj6t2KTYdc_11proc_macro211TokenStreamEINtB2_12SpecFromIterBU_INtNtNtNtCs85QQFkKrybG_4core4iter8adapters3map3MapINtNtB23_6filter6FilterINtNtB23_9enumerate9EnumerateINtNtNtB27_5slice4iter4IterNtNtNtCs3tyqko2rdGU_12serde_derive9internals3ast5FieldEENCNvNtB49_3ser30serialize_tuple_struct_visitor0ENCB4Z_s_0EE9from_iterB49_, symObjAddr: 0x4EB8, symBinAddr: 0x212E8, symSize: 0x14 }
  - { offset: 0x3D63D, size: 0x8, addend: 0x0, symName: __RNvXNtNtCsdFlNUEO95cG_5alloc3vec14spec_from_iterINtB4_3VecNtCsfwj6t2KTYdc_11proc_macro211TokenStreamEINtB2_12SpecFromIterBU_INtNtNtNtCs85QQFkKrybG_4core4iter8adapters3map3MapINtNtB23_6filter6FilterINtNtB23_9enumerate9EnumerateINtNtNtB27_5slice4iter4IterNtNtNtCs3tyqko2rdGU_12serde_derive9internals3ast7VariantEENCNvNtNtB49_2de15enum_adjacently11deserialize0ENCB51_s_0EE9from_iterB49_, symObjAddr: 0x4ECC, symBinAddr: 0x212FC, symSize: 0x14 }
  - { offset: 0x3D67C, size: 0x8, addend: 0x0, symName: __RNvXNtNtCsdFlNUEO95cG_5alloc3vec14spec_from_iterINtB4_3VecNtCsfwj6t2KTYdc_11proc_macro211TokenStreamEINtB2_12SpecFromIterBU_INtNtNtNtCs85QQFkKrybG_4core4iter8adapters3map3MapINtNtB23_6filter6FilterINtNtNtB27_5slice4iter4IterNtNtNtCs3tyqko2rdGU_12serde_derive9internals3ast5FieldENCNvNtB3G_3ser24serialize_struct_visitor0ENCB4v_s_0EE9from_iterB3G_, symObjAddr: 0x4EE0, symBinAddr: 0x21310, symSize: 0x14 }
  - { offset: 0x3D6BB, size: 0x8, addend: 0x0, symName: __RNvXNtNtCsdFlNUEO95cG_5alloc3vec14spec_from_iterINtB4_3VecNtCsfwj6t2KTYdc_11proc_macro211TokenStreamEINtB2_12SpecFromIterBU_INtNtNtNtCs85QQFkKrybG_4core4iter8adapters3map3MapINtNtB23_9enumerate9EnumerateINtNtNtB27_5slice4iter4IterNtNtNtCs3tyqko2rdGU_12serde_derive9internals3ast7VariantEENCNvNtB3M_3ser14serialize_enum0EE9from_iterB3M_, symObjAddr: 0x4EF4, symBinAddr: 0x21324, symSize: 0x14 }
  - { offset: 0x3D6FA, size: 0x8, addend: 0x0, symName: __RNvXNtNtCsdFlNUEO95cG_5alloc3vec14spec_from_iterINtB4_3VecNtCsfwj6t2KTYdc_11proc_macro211TokenStreamEINtB2_12SpecFromIterBU_INtNtNtNtCs85QQFkKrybG_4core4iter8adapters3map3MapINtNtNtB27_5slice4iter4IterNtNtNtCs3tyqko2rdGU_12serde_derive9internals3ast5FieldENCNvNtB3j_3ser27wrap_serialize_variant_withs_0EE9from_iterB3j_, symObjAddr: 0x4F08, symBinAddr: 0x21338, symSize: 0x2C }
  - { offset: 0x3D738, size: 0x8, addend: 0x0, symName: __RNvXNtNtCsdFlNUEO95cG_5alloc3vec14spec_from_iterINtB4_3VecNtCsfwj6t2KTYdc_11proc_macro25IdentEINtB2_12SpecFromIterBU_INtNtNtNtCs85QQFkKrybG_4core4iter8adapters3map3MapINtNtNtB20_3ops5range5RangejENCNCNvNtCs3tyqko2rdGU_12serde_derive7pretend21pretend_variants_used00EE9from_iterB3g_, symObjAddr: 0x4F34, symBinAddr: 0x21364, symSize: 0x24 }
  - { offset: 0x3D776, size: 0x8, addend: 0x0, symName: __RNvXNtNtCsdFlNUEO95cG_5alloc3vec14spec_from_iterINtB4_3VecNtNtCs3tyqko2rdGU_12serde_derive2de16FieldWithAliasesEINtB2_12SpecFromIterBU_INtNtNtNtCs85QQFkKrybG_4core4iter8adapters3map3MapINtNtB2e_6filter6FilterINtNtB2e_9enumerate9EnumerateINtNtNtB2i_5slice4iter4IterNtNtNtBY_9internals3ast5FieldEENCNvNtBW_7struct_11deserialize0ENCB4L_s_0EE9from_iterBY_, symObjAddr: 0x4F58, symBinAddr: 0x21388, symSize: 0x14 }
  - { offset: 0x3D7B5, size: 0x8, addend: 0x0, symName: __RNvXNtNtCsdFlNUEO95cG_5alloc3vec14spec_from_iterINtB4_3VecNtNtCs3tyqko2rdGU_12serde_derive2de16FieldWithAliasesEINtB2_12SpecFromIterBU_INtNtNtNtCs85QQFkKrybG_4core4iter8adapters3map3MapINtNtB2e_6filter6FilterINtNtB2e_9enumerate9EnumerateINtNtNtB2i_5slice4iter4IterNtNtNtBY_9internals3ast7VariantEENCNvNtBW_5enum_25prepare_enum_variant_enum0ENCB4N_s2_0EE9from_iterBY_, symObjAddr: 0x4F6C, symBinAddr: 0x2139C, symSize: 0x14 }
  - { offset: 0x3D7F4, size: 0x8, addend: 0x0, symName: __RNvXNtNtCsdFlNUEO95cG_5alloc3vec14spec_from_iterINtB4_3VecNtNtCs3tyqko2rdGU_12serde_derive2de16FieldWithAliasesEINtB2_12SpecFromIterBU_INtNtNtNtCs85QQFkKrybG_4core4iter8adapters3map3MapINtNtNtB2i_5slice4iter4IterNtNtNtBY_9internals3ast7VariantENCNvNtBW_10identifier18deserialize_customs_0EE9from_iterBY_, symObjAddr: 0x4F80, symBinAddr: 0x213B0, symSize: 0x2C }
  - { offset: 0x3D832, size: 0x8, addend: 0x0, symName: __RNvXNtNtCsdFlNUEO95cG_5alloc3vec14spec_from_iterINtB4_3VecNtNtCscwCr4GBBztI_3syn4expr6MemberEINtB2_12SpecFromIterBU_INtNtNtNtCs85QQFkKrybG_4core4iter8adapters3map3MapINtNtNtB1Z_3ops5range5RangejENCNvNtCs3tyqko2rdGU_12serde_derive3ser35serialize_adjacently_tagged_variants_0EE9from_iterB3d_, symObjAddr: 0x4FAC, symBinAddr: 0x213DC, symSize: 0x24 }
  - { offset: 0x3D870, size: 0x8, addend: 0x0, symName: __RNvXNtNtCsdFlNUEO95cG_5alloc3vec14spec_from_iterINtB4_3VecNtNtCscwCr4GBBztI_3syn4expr6MemberEINtB2_12SpecFromIterBU_INtNtNtNtCs85QQFkKrybG_4core4iter8adapters3map3MapINtNtNtB1Z_5slice4iter4IterNtNtNtCs3tyqko2rdGU_12serde_derive9internals3ast5FieldENCNvNtB3b_3ser35serialize_adjacently_tagged_variants0_0EE9from_iterB3b_, symObjAddr: 0x4FD0, symBinAddr: 0x21400, symSize: 0x2C }
  - { offset: 0x3D8AE, size: 0x8, addend: 0x0, symName: __RNvXNtNtCsdFlNUEO95cG_5alloc3vec14spec_from_iterINtB4_3VecNtNtCscwCr4GBBztI_3syn8generics14WherePredicateEINtB2_12SpecFromIterBU_INtNtBY_10punctuated8IntoIterBU_EE9from_iterCs3tyqko2rdGU_12serde_derive, symObjAddr: 0x4FFC, symBinAddr: 0x2142C, symSize: 0x14 }
  - { offset: 0x3D8ED, size: 0x8, addend: 0x0, symName: __RNvXNtNtCsdFlNUEO95cG_5alloc3vec14spec_from_iterINtB4_3VecNtNtNtCs3tyqko2rdGU_12serde_derive9internals3ast5FieldEINtB2_12SpecFromIterBU_INtNtNtNtCs85QQFkKrybG_4core4iter8adapters3map3MapINtNtB2f_9enumerate9EnumerateINtNtCscwCr4GBBztI_3syn10punctuated4IterNtNtB3w_4data5FieldEENCNvBW_15fields_from_ast0EE9from_iterB10_, symObjAddr: 0x5010, symBinAddr: 0x21440, symSize: 0x14 }
  - { offset: 0x3D92C, size: 0x8, addend: 0x0, symName: __RNvXNtNtCsdFlNUEO95cG_5alloc3vec14spec_from_iterINtB4_3VecNtNtNtCs3tyqko2rdGU_12serde_derive9internals3ast7VariantEINtB2_12SpecFromIterBU_INtNtNtNtCs85QQFkKrybG_4core4iter8adapters3map3MapINtNtCscwCr4GBBztI_3syn10punctuated4IterNtNtB35_4data7VariantENCNvBW_13enum_from_ast0EE9from_iterB10_, symObjAddr: 0x5024, symBinAddr: 0x21454, symSize: 0x14 }
  - { offset: 0x3D96B, size: 0x8, addend: 0x0, symName: __RNvXNtNtCsdFlNUEO95cG_5alloc3vec14spec_from_iterINtB4_3VecRNtCsfwj6t2KTYdc_11proc_macro25IdentEINtB2_12SpecFromIterBU_INtNtNtNtCs85QQFkKrybG_4core4iter8adapters3map3MapINtNtNtB21_5slice4iter4IterNtNtCs3tyqko2rdGU_12serde_derive2de16FieldWithAliasesENCNvNtB39_10identifier21deserialize_generated0EE9from_iterB3b_, symObjAddr: 0x5038, symBinAddr: 0x21468, symSize: 0x2C }
  - { offset: 0x3D9A9, size: 0x8, addend: 0x0, symName: __RNvXNtNtCsdFlNUEO95cG_5alloc3vec14spec_from_iterINtB4_3VecRNtNtCscwCr4GBBztI_3syn2ty4TypeEINtB2_12SpecFromIterBU_INtNtNtNtCs85QQFkKrybG_4core4iter8adapters3map3MapINtNtNtB1W_5slice4iter4IterNtNtNtCs3tyqko2rdGU_12serde_derive9internals3ast5FieldENCNvNtB38_3ser27wrap_serialize_variant_with0EE9from_iterB38_, symObjAddr: 0x5064, symBinAddr: 0x21494, symSize: 0x2C }
  - { offset: 0x3D9E7, size: 0x8, addend: 0x0, symName: __RNvXNtNtCsdFlNUEO95cG_5alloc3vec14spec_from_iterINtB4_3VecRNtNtCscwCr4GBBztI_3syn4expr6MemberEINtB2_12SpecFromIterBU_INtNtNtNtCs85QQFkKrybG_4core4iter8adapters3map3MapINtNtNtB20_5slice4iter4IterNtNtNtCs3tyqko2rdGU_12serde_derive9internals3ast5FieldENCNvNtB3c_3ser37serialize_struct_variant_with_flattens0_0EE9from_iterB3c_, symObjAddr: 0x5090, symBinAddr: 0x214C0, symSize: 0x2C }
  - { offset: 0x3DA25, size: 0x8, addend: 0x0, symName: __RNvXNtNtCsdFlNUEO95cG_5alloc3vec14spec_from_iterINtB4_3VecRNtNtCscwCr4GBBztI_3syn4expr6MemberEINtB2_12SpecFromIterBU_INtNtNtNtCs85QQFkKrybG_4core4iter8adapters3map3MapINtNtNtB20_5slice4iter4IterNtNtNtCs3tyqko2rdGU_12serde_derive9internals3ast5FieldENCNvNtB3c_7pretend33pretend_fields_used_struct_packed0EE9from_iterB3c_, symObjAddr: 0x50BC, symBinAddr: 0x214EC, symSize: 0x2C }
  - { offset: 0x3DA63, size: 0x8, addend: 0x0, symName: __RNvXNtNtCsdFlNUEO95cG_5alloc3vec14spec_from_iterINtB4_3VecTRNtNtNtCs3tyqko2rdGU_12serde_derive9internals3ast5FieldNtCsfwj6t2KTYdc_11proc_macro25IdentEEINtB2_12SpecFromIterBU_INtNtNtNtCs85QQFkKrybG_4core4iter8adapters3map3MapINtNtB2R_9enumerate9EnumerateINtNtNtB2V_5slice4iter4IterBW_EENCNvNtNtB12_2de7struct_15deserialize_map0EE9from_iterB12_, symObjAddr: 0x50E8, symBinAddr: 0x21518, symSize: 0x14 }
  - { offset: 0x3DAA2, size: 0x8, addend: 0x0, symName: __RNvXNtNtCsdFlNUEO95cG_5alloc3vec14spec_from_iterINtB4_3VechEINtB2_12SpecFromIterhINtNtNtNtCs85QQFkKrybG_4core4iter8adapters3map3MapINtNtNtB1q_5slice4iter4IterhENCNvNtB6_3str13replace_ascii0EE9from_iterCs3tyqko2rdGU_12serde_derive, symObjAddr: 0x50FC, symBinAddr: 0x2152C, symSize: 0x14 }
  - { offset: 0x3DAED, size: 0x8, addend: 0x0, symName: __RNvXNtNtCsdFlNUEO95cG_5alloc3vec21spec_from_iter_nestedINtB4_3VecNtCsfwj6t2KTYdc_11proc_macro211TokenStreamEINtB2_18SpecFromIterNestedB11_INtNtNtNtCs85QQFkKrybG_4core4iter8adapters10filter_map9FilterMapINtNtB2h_6filter6FilterINtNtB2h_9enumerate9EnumerateINtNtNtB2l_5slice4iter4IterNtNtNtCs3tyqko2rdGU_12serde_derive9internals3ast7VariantEENCNvNtNtB4B_2de15enum_adjacently11deserializes0_0ENCB5t_s1_0EE9from_iterB4B_, symObjAddr: 0x5110, symBinAddr: 0x21540, symSize: 0x270 }
  - { offset: 0x3DDA7, size: 0x8, addend: 0x0, symName: __RNvXNtNtCsdFlNUEO95cG_5alloc3vec21spec_from_iter_nestedINtB4_3VecNtCsfwj6t2KTYdc_11proc_macro211TokenStreamEINtB2_18SpecFromIterNestedB11_INtNtNtNtCs85QQFkKrybG_4core4iter8adapters10filter_map9FilterMapINtNtNtB2l_5slice4iter4IterNtNtNtCs3tyqko2rdGU_12serde_derive9internals3ast7VariantENCNvNtB3L_7pretend24pretend_fields_used_enum0EE9from_iterB3L_, symObjAddr: 0x5380, symBinAddr: 0x217B0, symSize: 0x264 }
  - { offset: 0x3E060, size: 0x8, addend: 0x0, symName: __RNvXNtNtCsdFlNUEO95cG_5alloc3vec21spec_from_iter_nestedINtB4_3VecNtCsfwj6t2KTYdc_11proc_macro211TokenStreamEINtB2_18SpecFromIterNestedB11_INtNtNtNtCs85QQFkKrybG_4core4iter8adapters3map3MapINtNtB2h_6filter6FilterINtNtB2h_9enumerate9EnumerateINtNtNtB2l_5slice4iter4IterNtNtNtCs3tyqko2rdGU_12serde_derive9internals3ast5FieldEENCNvNtB4n_3ser30serialize_tuple_struct_visitor0ENCB5d_s_0EE9from_iterB4n_, symObjAddr: 0x55E4, symBinAddr: 0x21A14, symSize: 0x270 }
  - { offset: 0x3E31A, size: 0x8, addend: 0x0, symName: __RNvXNtNtCsdFlNUEO95cG_5alloc3vec21spec_from_iter_nestedINtB4_3VecNtCsfwj6t2KTYdc_11proc_macro211TokenStreamEINtB2_18SpecFromIterNestedB11_INtNtNtNtCs85QQFkKrybG_4core4iter8adapters3map3MapINtNtB2h_6filter6FilterINtNtB2h_9enumerate9EnumerateINtNtNtB2l_5slice4iter4IterNtNtNtCs3tyqko2rdGU_12serde_derive9internals3ast7VariantEENCNvNtNtB4n_2de15enum_adjacently11deserialize0ENCB5f_s_0EE9from_iterB4n_, symObjAddr: 0x5854, symBinAddr: 0x21C84, symSize: 0x270 }
  - { offset: 0x3E5D4, size: 0x8, addend: 0x0, symName: __RNvXNtNtCsdFlNUEO95cG_5alloc3vec21spec_from_iter_nestedINtB4_3VecNtCsfwj6t2KTYdc_11proc_macro211TokenStreamEINtB2_18SpecFromIterNestedB11_INtNtNtNtCs85QQFkKrybG_4core4iter8adapters3map3MapINtNtB2h_6filter6FilterINtNtNtB2l_5slice4iter4IterNtNtNtCs3tyqko2rdGU_12serde_derive9internals3ast5FieldENCNvNtB3U_3ser24serialize_struct_visitor0ENCB4J_s_0EE9from_iterB3U_, symObjAddr: 0x5AC4, symBinAddr: 0x21EF4, symSize: 0x270 }
  - { offset: 0x3E88E, size: 0x8, addend: 0x0, symName: __RNvXNtNtCsdFlNUEO95cG_5alloc3vec21spec_from_iter_nestedINtB4_3VecNtNtCs3tyqko2rdGU_12serde_derive2de16FieldWithAliasesEINtB2_18SpecFromIterNestedB11_INtNtNtNtCs85QQFkKrybG_4core4iter8adapters3map3MapINtNtB2s_6filter6FilterINtNtB2s_9enumerate9EnumerateINtNtNtB2w_5slice4iter4IterNtNtNtB15_9internals3ast5FieldEENCNvNtB13_7struct_11deserialize0ENCB50_s_0EE9from_iterB15_, symObjAddr: 0x5D34, symBinAddr: 0x22164, symSize: 0x260 }
  - { offset: 0x3EB47, size: 0x8, addend: 0x0, symName: __RNvXNtNtCsdFlNUEO95cG_5alloc3vec21spec_from_iter_nestedINtB4_3VecNtNtCs3tyqko2rdGU_12serde_derive2de16FieldWithAliasesEINtB2_18SpecFromIterNestedB11_INtNtNtNtCs85QQFkKrybG_4core4iter8adapters3map3MapINtNtB2s_6filter6FilterINtNtB2s_9enumerate9EnumerateINtNtNtB2w_5slice4iter4IterNtNtNtB15_9internals3ast7VariantEENCNvNtB13_5enum_25prepare_enum_variant_enum0ENCB52_s2_0EE9from_iterB15_, symObjAddr: 0x5F94, symBinAddr: 0x223C4, symSize: 0x260 }
  - { offset: 0x3EE00, size: 0x8, addend: 0x0, symName: __RNvXNtNtCsdFlNUEO95cG_5alloc3vec21spec_from_iter_nestedINtB4_3VecNtNtCscwCr4GBBztI_3syn8generics14WherePredicateEINtB2_18SpecFromIterNestedB11_INtNtB15_10punctuated8IntoIterB11_EE9from_iterCs3tyqko2rdGU_12serde_derive, symObjAddr: 0x61F4, symBinAddr: 0x22624, symSize: 0x288 }
  - { offset: 0x3F0BA, size: 0x8, addend: 0x0, symName: __RNvXNtNtCsdFlNUEO95cG_5alloc3vec21spec_from_iter_nestedINtB4_3VecNtNtNtCs3tyqko2rdGU_12serde_derive9internals3ast5FieldEINtB2_18SpecFromIterNestedB11_INtNtNtNtCs85QQFkKrybG_4core4iter8adapters3map3MapINtNtB2t_9enumerate9EnumerateINtNtCscwCr4GBBztI_3syn10punctuated4IterNtNtB3K_4data5FieldEENCNvB13_15fields_from_ast0EE9from_iterB17_, symObjAddr: 0x647C, symBinAddr: 0x228AC, symSize: 0x29C }
  - { offset: 0x3F374, size: 0x8, addend: 0x0, symName: __RNvXNtNtCsdFlNUEO95cG_5alloc3vec21spec_from_iter_nestedINtB4_3VecNtNtNtCs3tyqko2rdGU_12serde_derive9internals3ast7VariantEINtB2_18SpecFromIterNestedB11_INtNtNtNtCs85QQFkKrybG_4core4iter8adapters3map3MapINtNtCscwCr4GBBztI_3syn10punctuated4IterNtNtB3j_4data7VariantENCNvB13_13enum_from_ast0EE9from_iterB17_, symObjAddr: 0x6718, symBinAddr: 0x22B48, symSize: 0x294 }
  - { offset: 0x3F634, size: 0x8, addend: 0x0, symName: __RNvXs_NtNtCsdFlNUEO95cG_5alloc3vec21spec_from_iter_nestedINtB6_3VecNtCsfwj6t2KTYdc_11proc_macro211TokenStreamEINtB4_18SpecFromIterNestedB13_INtNtNtNtCs85QQFkKrybG_4core4iter8adapters3map3MapINtNtB2j_9enumerate9EnumerateINtNtNtB2n_5slice4iter4IterNtNtNtCs3tyqko2rdGU_12serde_derive9internals3ast7VariantEENCNvNtB42_3ser14serialize_enum0EE9from_iterB42_, symObjAddr: 0x6FA0, symBinAddr: 0x233D0, symSize: 0x17C }
  - { offset: 0x3F70B, size: 0x8, addend: 0x0, symName: __RNvXs_NtNtCsdFlNUEO95cG_5alloc3vec21spec_from_iter_nestedINtB6_3VecNtCsfwj6t2KTYdc_11proc_macro211TokenStreamEINtB4_18SpecFromIterNestedB13_INtNtNtNtCs85QQFkKrybG_4core4iter8adapters3map3MapINtNtNtB2n_5slice4iter4IterNtNtNtCs3tyqko2rdGU_12serde_derive9internals3ast5FieldENCNvNtB3z_3ser27wrap_serialize_variant_withs_0EE9from_iterB3z_, symObjAddr: 0x711C, symBinAddr: 0x2354C, symSize: 0x164 }
  - { offset: 0x3F7E1, size: 0x8, addend: 0x0, symName: __RNvXs_NtNtCsdFlNUEO95cG_5alloc3vec21spec_from_iter_nestedINtB6_3VecNtCsfwj6t2KTYdc_11proc_macro25IdentEINtB4_18SpecFromIterNestedB13_INtNtNtNtCs85QQFkKrybG_4core4iter8adapters3map3MapINtNtNtB2g_3ops5range5RangejENCNCNvNtCs3tyqko2rdGU_12serde_derive7pretend21pretend_variants_used00EE9from_iterB3w_, symObjAddr: 0x7280, symBinAddr: 0x236B0, symSize: 0x164 }
  - { offset: 0x3F8B7, size: 0x8, addend: 0x0, symName: __RNvXs_NtNtCsdFlNUEO95cG_5alloc3vec21spec_from_iter_nestedINtB6_3VecNtNtCs3tyqko2rdGU_12serde_derive2de16FieldWithAliasesEINtB4_18SpecFromIterNestedB13_INtNtNtNtCs85QQFkKrybG_4core4iter8adapters3map3MapINtNtNtB2y_5slice4iter4IterNtNtNtB17_9internals3ast7VariantENCNvNtB15_10identifier18deserialize_customs_0EE9from_iterB17_, symObjAddr: 0x73E4, symBinAddr: 0x23814, symSize: 0x164 }
  - { offset: 0x3F98D, size: 0x8, addend: 0x0, symName: __RNvXs_NtNtCsdFlNUEO95cG_5alloc3vec21spec_from_iter_nestedINtB6_3VecNtNtCscwCr4GBBztI_3syn4expr6MemberEINtB4_18SpecFromIterNestedB13_INtNtNtNtCs85QQFkKrybG_4core4iter8adapters3map3MapINtNtNtB2f_3ops5range5RangejENCNvNtCs3tyqko2rdGU_12serde_derive3ser35serialize_adjacently_tagged_variants_0EE9from_iterB3t_, symObjAddr: 0x7548, symBinAddr: 0x23978, symSize: 0x164 }
  - { offset: 0x3FA63, size: 0x8, addend: 0x0, symName: __RNvXs_NtNtCsdFlNUEO95cG_5alloc3vec21spec_from_iter_nestedINtB6_3VecNtNtCscwCr4GBBztI_3syn4expr6MemberEINtB4_18SpecFromIterNestedB13_INtNtNtNtCs85QQFkKrybG_4core4iter8adapters3map3MapINtNtNtB2f_5slice4iter4IterNtNtNtCs3tyqko2rdGU_12serde_derive9internals3ast5FieldENCNvNtB3r_3ser35serialize_adjacently_tagged_variants0_0EE9from_iterB3r_, symObjAddr: 0x76AC, symBinAddr: 0x23ADC, symSize: 0x164 }
  - { offset: 0x3FB39, size: 0x8, addend: 0x0, symName: __RNvXs_NtNtCsdFlNUEO95cG_5alloc3vec21spec_from_iter_nestedINtB6_3VecRNtCsfwj6t2KTYdc_11proc_macro25IdentEINtB4_18SpecFromIterNestedB13_INtNtNtNtCs85QQFkKrybG_4core4iter8adapters3map3MapINtNtNtB2h_5slice4iter4IterNtNtCs3tyqko2rdGU_12serde_derive2de16FieldWithAliasesENCNvNtB3p_10identifier21deserialize_generated0EE9from_iterB3r_, symObjAddr: 0x7810, symBinAddr: 0x23C40, symSize: 0x160 }
  - { offset: 0x3FC0F, size: 0x8, addend: 0x0, symName: __RNvXs_NtNtCsdFlNUEO95cG_5alloc3vec21spec_from_iter_nestedINtB6_3VecRNtNtCscwCr4GBBztI_3syn2ty4TypeEINtB4_18SpecFromIterNestedB13_INtNtNtNtCs85QQFkKrybG_4core4iter8adapters3map3MapINtNtNtB2c_5slice4iter4IterNtNtNtCs3tyqko2rdGU_12serde_derive9internals3ast5FieldENCNvNtB3o_3ser27wrap_serialize_variant_with0EE9from_iterB3o_, symObjAddr: 0x7970, symBinAddr: 0x23DA0, symSize: 0x160 }
  - { offset: 0x3FCE5, size: 0x8, addend: 0x0, symName: __RNvXs_NtNtCsdFlNUEO95cG_5alloc3vec21spec_from_iter_nestedINtB6_3VecRNtNtCscwCr4GBBztI_3syn4expr6MemberEINtB4_18SpecFromIterNestedB13_INtNtNtNtCs85QQFkKrybG_4core4iter8adapters3map3MapINtNtNtB2g_5slice4iter4IterNtNtNtCs3tyqko2rdGU_12serde_derive9internals3ast5FieldENCNvNtB3s_3ser37serialize_struct_variant_with_flattens0_0EE9from_iterB3s_, symObjAddr: 0x7AD0, symBinAddr: 0x23F00, symSize: 0x160 }
  - { offset: 0x3FDBB, size: 0x8, addend: 0x0, symName: __RNvXs_NtNtCsdFlNUEO95cG_5alloc3vec21spec_from_iter_nestedINtB6_3VecRNtNtCscwCr4GBBztI_3syn4expr6MemberEINtB4_18SpecFromIterNestedB13_INtNtNtNtCs85QQFkKrybG_4core4iter8adapters3map3MapINtNtNtB2g_5slice4iter4IterNtNtNtCs3tyqko2rdGU_12serde_derive9internals3ast5FieldENCNvNtB3s_7pretend33pretend_fields_used_struct_packed0EE9from_iterB3s_, symObjAddr: 0x7C30, symBinAddr: 0x24060, symSize: 0x160 }
  - { offset: 0x3FE91, size: 0x8, addend: 0x0, symName: __RNvXs_NtNtCsdFlNUEO95cG_5alloc3vec21spec_from_iter_nestedINtB6_3VecTRNtNtNtCs3tyqko2rdGU_12serde_derive9internals3ast5FieldNtCsfwj6t2KTYdc_11proc_macro25IdentEEINtB4_18SpecFromIterNestedB13_INtNtNtNtCs85QQFkKrybG_4core4iter8adapters3map3MapINtNtB37_9enumerate9EnumerateINtNtNtB3b_5slice4iter4IterB15_EENCNvNtNtB1b_2de7struct_15deserialize_map0EE9from_iterB1b_, symObjAddr: 0x7D90, symBinAddr: 0x241C0, symSize: 0x168 }
  - { offset: 0x3FF68, size: 0x8, addend: 0x0, symName: __RNvXs_NtNtCsdFlNUEO95cG_5alloc3vec21spec_from_iter_nestedINtB6_3VechEINtB4_18SpecFromIterNestedhINtNtNtNtCs85QQFkKrybG_4core4iter8adapters3map3MapINtNtNtB1F_5slice4iter4IterhENCNvNtB8_3str13replace_ascii0EE9from_iterCs3tyqko2rdGU_12serde_derive, symObjAddr: 0x7EF8, symBinAddr: 0x24328, symSize: 0x164 }
  - { offset: 0x40046, size: 0x8, addend: 0x0, symName: __RNvXs6_NtCsdFlNUEO95cG_5alloc3vecINtB5_3VecNtCsfwj6t2KTYdc_11proc_macro211TokenStreamENtNtNtCs85QQFkKrybG_4core3ops5deref5Deref5derefCs3tyqko2rdGU_12serde_derive, symObjAddr: 0x6AA0, symBinAddr: 0x22ED0, symSize: 0x24 }
  - { offset: 0x40086, size: 0x8, addend: 0x0, symName: __RNvXs6_NtCsdFlNUEO95cG_5alloc3vecINtB5_3VecNtCsfwj6t2KTYdc_11proc_macro25IdentENtNtNtCs85QQFkKrybG_4core3ops5deref5Deref5derefCs3tyqko2rdGU_12serde_derive, symObjAddr: 0x6AC4, symBinAddr: 0x22EF4, symSize: 0x24 }
  - { offset: 0x400C6, size: 0x8, addend: 0x0, symName: __RNvXs6_NtCsdFlNUEO95cG_5alloc3vecINtB5_3VecNtNtCs3tyqko2rdGU_12serde_derive2de16FieldWithAliasesENtNtNtCs85QQFkKrybG_4core3ops5deref5Deref5derefBJ_, symObjAddr: 0x6AE8, symBinAddr: 0x22F18, symSize: 0x24 }
  - { offset: 0x40106, size: 0x8, addend: 0x0, symName: __RNvXs6_NtCsdFlNUEO95cG_5alloc3vecINtB5_3VecNtNtCscwCr4GBBztI_3syn4expr6MemberENtNtNtCs85QQFkKrybG_4core3ops5deref5Deref5derefCs3tyqko2rdGU_12serde_derive, symObjAddr: 0x6B0C, symBinAddr: 0x22F3C, symSize: 0x24 }
  - { offset: 0x40146, size: 0x8, addend: 0x0, symName: __RNvXs6_NtCsdFlNUEO95cG_5alloc3vecINtB5_3VecNtNtNtCs3tyqko2rdGU_12serde_derive9internals3ast5FieldENtNtNtCs85QQFkKrybG_4core3ops5deref5Deref5derefBL_, symObjAddr: 0x6B30, symBinAddr: 0x22F60, symSize: 0x24 }
  - { offset: 0x40186, size: 0x8, addend: 0x0, symName: __RNvXs6_NtCsdFlNUEO95cG_5alloc3vecINtB5_3VecNtNtNtCs3tyqko2rdGU_12serde_derive9internals3ast7VariantENtNtNtCs85QQFkKrybG_4core3ops5deref5Deref5derefBL_, symObjAddr: 0x6B54, symBinAddr: 0x22F84, symSize: 0x24 }
  - { offset: 0x401C6, size: 0x8, addend: 0x0, symName: __RNvXs6_NtCsdFlNUEO95cG_5alloc3vecINtB5_3VecRNtCsfwj6t2KTYdc_11proc_macro25IdentENtNtNtCs85QQFkKrybG_4core3ops5deref5Deref5derefCs3tyqko2rdGU_12serde_derive, symObjAddr: 0x6B78, symBinAddr: 0x22FA8, symSize: 0x24 }
  - { offset: 0x40206, size: 0x8, addend: 0x0, symName: __RNvXs6_NtCsdFlNUEO95cG_5alloc3vecINtB5_3VecRNtNtCscwCr4GBBztI_3syn4expr6MemberENtNtNtCs85QQFkKrybG_4core3ops5deref5Deref5derefCs3tyqko2rdGU_12serde_derive, symObjAddr: 0x6B9C, symBinAddr: 0x22FCC, symSize: 0x24 }
  - { offset: 0x40246, size: 0x8, addend: 0x0, symName: __RNvXs6_NtCsdFlNUEO95cG_5alloc3vecINtB5_3VecTRNtNtNtCs3tyqko2rdGU_12serde_derive9internals3ast5FieldNtCsfwj6t2KTYdc_11proc_macro25IdentEENtNtNtCs85QQFkKrybG_4core3ops5deref5Deref5derefBN_, symObjAddr: 0x6BC0, symBinAddr: 0x22FF0, symSize: 0x24 }
  - { offset: 0x403DC, size: 0x8, addend: 0x0, symName: __RNvXs7_NtCsdFlNUEO95cG_5alloc3vecINtB5_3VecTNtNtCscwCr4GBBztI_3syn2ty4TypeNtNtBK_5token5CommaEENtNtNtCs85QQFkKrybG_4core3ops5deref8DerefMut9deref_mutCs3tyqko2rdGU_12serde_derive, symObjAddr: 0x6BE4, symBinAddr: 0x23014, symSize: 0x24 }
  - { offset: 0x4041C, size: 0x8, addend: 0x0, symName: __RNvXs7_NtCsdFlNUEO95cG_5alloc3vecINtB5_3VecTNtNtCscwCr4GBBztI_3syn2ty9BareFnArgNtNtBK_5token5CommaEENtNtNtCs85QQFkKrybG_4core3ops5deref8DerefMut9deref_mutCs3tyqko2rdGU_12serde_derive, symObjAddr: 0x6C08, symBinAddr: 0x23038, symSize: 0x24 }
  - { offset: 0x4045C, size: 0x8, addend: 0x0, symName: __RNvXs7_NtCsdFlNUEO95cG_5alloc3vecINtB5_3VecTNtNtCscwCr4GBBztI_3syn4data7VariantNtNtBK_5token5CommaEENtNtNtCs85QQFkKrybG_4core3ops5deref8DerefMut9deref_mutCs3tyqko2rdGU_12serde_derive, symObjAddr: 0x6C2C, symBinAddr: 0x2305C, symSize: 0x24 }
  - { offset: 0x4049C, size: 0x8, addend: 0x0, symName: __RNvXs7_NtCsdFlNUEO95cG_5alloc3vecINtB5_3VecTNtNtCscwCr4GBBztI_3syn4expr4ExprNtNtBK_5token5CommaEENtNtNtCs85QQFkKrybG_4core3ops5deref8DerefMut9deref_mutCs3tyqko2rdGU_12serde_derive, symObjAddr: 0x6C50, symBinAddr: 0x23080, symSize: 0x24 }
  - { offset: 0x404DC, size: 0x8, addend: 0x0, symName: __RNvXs7_NtCsdFlNUEO95cG_5alloc3vecINtB5_3VecTNtNtCscwCr4GBBztI_3syn4path15GenericArgumentNtNtBK_5token5CommaEENtNtNtCs85QQFkKrybG_4core3ops5deref8DerefMut9deref_mutCs3tyqko2rdGU_12serde_derive, symObjAddr: 0x6C74, symBinAddr: 0x230A4, symSize: 0x24 }
  - { offset: 0x4051C, size: 0x8, addend: 0x0, symName: __RNvXs7_NtCsdFlNUEO95cG_5alloc3vecINtB5_3VecTNtNtCscwCr4GBBztI_3syn8generics14TypeParamBoundNtNtBK_5token4PlusEENtNtNtCs85QQFkKrybG_4core3ops5deref8DerefMut9deref_mutCs3tyqko2rdGU_12serde_derive, symObjAddr: 0x6C98, symBinAddr: 0x230C8, symSize: 0x24 }
  - { offset: 0x4055C, size: 0x8, addend: 0x0, symName: __RNvXs7_NtCsdFlNUEO95cG_5alloc3vecINtB5_3VecTNtNtCscwCr4GBBztI_3syn8generics14WherePredicateNtNtBK_5token5CommaEENtNtNtCs85QQFkKrybG_4core3ops5deref8DerefMut9deref_mutCs3tyqko2rdGU_12serde_derive, symObjAddr: 0x6CBC, symBinAddr: 0x230EC, symSize: 0x24 }
  - { offset: 0x40602, size: 0x8, addend: 0x0, symName: __RNvXs9_NtCsdFlNUEO95cG_5alloc3vecINtB5_3VecNtNtCscwCr4GBBztI_3syn8generics14WherePredicateENtNtCs85QQFkKrybG_4core5clone5Clone5cloneCs3tyqko2rdGU_12serde_derive, symObjAddr: 0x6CE0, symBinAddr: 0x23110, symSize: 0x90 }
  - { offset: 0x407D9, size: 0x8, addend: 0x0, symName: __RNvXsb_NtCsdFlNUEO95cG_5alloc3vecINtB5_3VecNtNtCscwCr4GBBztI_3syn8generics14WherePredicateEINtNtNtCs85QQFkKrybG_4core3ops5index5IndexNtNtB1w_5range9RangeFullE5indexCs3tyqko2rdGU_12serde_derive, symObjAddr: 0x805C, symBinAddr: 0x2448C, symSize: 0x80 }
  - { offset: 0x4095B, size: 0x8, addend: 0x0, symName: __RNvXsb_NtCsdFlNUEO95cG_5alloc3vecINtB5_3VecNtNtNtCs3tyqko2rdGU_12serde_derive9internals3ast5FieldEINtNtNtCs85QQFkKrybG_4core3ops5index5IndexjE5indexBL_, symObjAddr: 0x80DC, symBinAddr: 0x2450C, symSize: 0x8C }
  - { offset: 0x40ADD, size: 0x8, addend: 0x0, symName: __RNvXsb_NtCsdFlNUEO95cG_5alloc3vecINtB5_3VecNtNtNtCs3tyqko2rdGU_12serde_derive9internals3ast7VariantEINtNtNtCs85QQFkKrybG_4core3ops5index5IndexINtNtB1F_5range7RangeTojEE5indexBL_, symObjAddr: 0x8168, symBinAddr: 0x24598, symSize: 0xE8 }
  - { offset: 0x40CE0, size: 0x8, addend: 0x0, symName: __RNvXsb_NtCsdFlNUEO95cG_5alloc3vecINtB5_3VecTNtNtCscwCr4GBBztI_3syn4path15GenericArgumentNtNtBK_5token5CommaEEINtNtNtCs85QQFkKrybG_4core3ops5index5IndexjE5indexCs3tyqko2rdGU_12serde_derive, symObjAddr: 0x8250, symBinAddr: 0x24680, symSize: 0x8C }
  - { offset: 0x40E68, size: 0x8, addend: 0x0, symName: __RNvXse_NtCsdFlNUEO95cG_5alloc3vecINtB5_3VecNtNtCscwCr4GBBztI_3syn3lit6LitStrENtNtNtNtCs85QQFkKrybG_4core4iter6traits7collect12IntoIterator9into_iterCs3tyqko2rdGU_12serde_derive, symObjAddr: 0x82DC, symBinAddr: 0x2470C, symSize: 0xDC }
  - { offset: 0x410FA, size: 0x8, addend: 0x0, symName: __RNvXse_NtCsdFlNUEO95cG_5alloc3vecINtB5_3VecNtNtCscwCr4GBBztI_3syn4path11PathSegmentENtNtNtNtCs85QQFkKrybG_4core4iter6traits7collect12IntoIterator9into_iterCs3tyqko2rdGU_12serde_derive, symObjAddr: 0x83B8, symBinAddr: 0x247E8, symSize: 0xE4 }
  - { offset: 0x4138C, size: 0x8, addend: 0x0, symName: __RNvXse_NtCsdFlNUEO95cG_5alloc3vecINtB5_3VecNtNtCscwCr4GBBztI_3syn5error5ErrorENtNtNtNtCs85QQFkKrybG_4core4iter6traits7collect12IntoIterator9into_iterCs3tyqko2rdGU_12serde_derive, symObjAddr: 0x849C, symBinAddr: 0x248CC, symSize: 0xE4 }
  - { offset: 0x4161E, size: 0x8, addend: 0x0, symName: __RNvXse_NtCsdFlNUEO95cG_5alloc3vecINtB5_3VecNtNtCscwCr4GBBztI_3syn8generics12GenericParamENtNtNtNtCs85QQFkKrybG_4core4iter6traits7collect12IntoIterator9into_iterCs3tyqko2rdGU_12serde_derive, symObjAddr: 0x8580, symBinAddr: 0x249B0, symSize: 0xE4 }
  - { offset: 0x418B0, size: 0x8, addend: 0x0, symName: __RNvXse_NtCsdFlNUEO95cG_5alloc3vecINtB5_3VecNtNtCscwCr4GBBztI_3syn8generics14WherePredicateENtNtNtNtCs85QQFkKrybG_4core4iter6traits7collect12IntoIterator9into_iterCs3tyqko2rdGU_12serde_derive, symObjAddr: 0x8664, symBinAddr: 0x24A94, symSize: 0xE4 }
  - { offset: 0x41B42, size: 0x8, addend: 0x0, symName: __RNvXse_NtCsdFlNUEO95cG_5alloc3vecINtB5_3VecNtNtNtCs3tyqko2rdGU_12serde_derive9internals4name4NameENtNtNtNtCs85QQFkKrybG_4core4iter6traits7collect12IntoIterator9into_iterBL_, symObjAddr: 0x8748, symBinAddr: 0x24B78, symSize: 0xDC }
  - { offset: 0x41DD4, size: 0x8, addend: 0x0, symName: __RNvXse_NtCsdFlNUEO95cG_5alloc3vecINtB5_3VecRNtNtCscwCr4GBBztI_3syn2ty8TypePathENtNtNtNtCs85QQFkKrybG_4core4iter6traits7collect12IntoIterator9into_iterCs3tyqko2rdGU_12serde_derive, symObjAddr: 0x8824, symBinAddr: 0x24C54, symSize: 0xDC }
  - { offset: 0x42066, size: 0x8, addend: 0x0, symName: __RNvXse_NtCsdFlNUEO95cG_5alloc3vecINtB5_3VecTNtNtCscwCr4GBBztI_3syn8generics12GenericParamNtNtBK_5token5CommaEENtNtNtNtCs85QQFkKrybG_4core4iter6traits7collect12IntoIterator9into_iterCs3tyqko2rdGU_12serde_derive, symObjAddr: 0x8900, symBinAddr: 0x24D30, symSize: 0xE4 }
  - { offset: 0x422F8, size: 0x8, addend: 0x0, symName: __RNvXse_NtCsdFlNUEO95cG_5alloc3vecINtB5_3VecTNtNtCscwCr4GBBztI_3syn8generics14WherePredicateNtNtBK_5token5CommaEENtNtNtNtCs85QQFkKrybG_4core4iter6traits7collect12IntoIterator9into_iterCs3tyqko2rdGU_12serde_derive, symObjAddr: 0x89E4, symBinAddr: 0x24E14, symSize: 0xE4 }
  - { offset: 0x42590, size: 0x8, addend: 0x0, symName: __RNvXsf_NtCsdFlNUEO95cG_5alloc3vecRINtB5_3VecNtNtNtCs3tyqko2rdGU_12serde_derive9internals3ast5FieldENtNtNtNtCs85QQFkKrybG_4core4iter6traits7collect12IntoIterator9into_iterBM_, symObjAddr: 0x8AC8, symBinAddr: 0x24EF8, symSize: 0xA4 }
  - { offset: 0x427BD, size: 0x8, addend: 0x0, symName: __RNvXsf_NtCsdFlNUEO95cG_5alloc3vecRINtB5_3VecNtNtNtCs3tyqko2rdGU_12serde_derive9internals3ast7VariantENtNtNtNtCs85QQFkKrybG_4core4iter6traits7collect12IntoIterator9into_iterBM_, symObjAddr: 0x8B6C, symBinAddr: 0x24F9C, symSize: 0xA4 }
  - { offset: 0x429F0, size: 0x8, addend: 0x0, symName: __RNvXsg_NtCsdFlNUEO95cG_5alloc3vecQINtB5_3VecNtNtNtCs3tyqko2rdGU_12serde_derive9internals3ast5FieldENtNtNtNtCs85QQFkKrybG_4core4iter6traits7collect12IntoIterator9into_iterBM_, symObjAddr: 0x8C10, symBinAddr: 0x25040, symSize: 0xAC }
  - { offset: 0x42C0C, size: 0x8, addend: 0x0, symName: __RNvXsg_NtCsdFlNUEO95cG_5alloc3vecQINtB5_3VecNtNtNtCs3tyqko2rdGU_12serde_derive9internals3ast7VariantENtNtNtNtCs85QQFkKrybG_4core4iter6traits7collect12IntoIterator9into_iterBM_, symObjAddr: 0x8CBC, symBinAddr: 0x250EC, symSize: 0xAC }
  - { offset: 0x42E2E, size: 0x8, addend: 0x0, symName: __RNvXsn_NtCsdFlNUEO95cG_5alloc3vecINtB5_3VecIBw_NtNtCscwCr4GBBztI_3syn8generics14WherePredicateEENtNtNtCs85QQFkKrybG_4core3ops4drop4Drop4dropCs3tyqko2rdGU_12serde_derive, symObjAddr: 0x8D68, symBinAddr: 0x25198, symSize: 0x38 }
  - { offset: 0x42EDE, size: 0x8, addend: 0x0, symName: __RNvXsn_NtCsdFlNUEO95cG_5alloc3vecINtB5_3VecNtCsfwj6t2KTYdc_11proc_macro211TokenStreamENtNtNtCs85QQFkKrybG_4core3ops4drop4Drop4dropCs3tyqko2rdGU_12serde_derive, symObjAddr: 0x8DA0, symBinAddr: 0x251D0, symSize: 0x38 }
  - { offset: 0x42F8E, size: 0x8, addend: 0x0, symName: __RNvXsn_NtCsdFlNUEO95cG_5alloc3vecINtB5_3VecNtCsfwj6t2KTYdc_11proc_macro25IdentENtNtNtCs85QQFkKrybG_4core3ops4drop4Drop4dropCs3tyqko2rdGU_12serde_derive, symObjAddr: 0x8DD8, symBinAddr: 0x25208, symSize: 0x38 }
  - { offset: 0x4303E, size: 0x8, addend: 0x0, symName: __RNvXsn_NtCsdFlNUEO95cG_5alloc3vecINtB5_3VecNtNtCs3tyqko2rdGU_12serde_derive2de16FieldWithAliasesENtNtNtCs85QQFkKrybG_4core3ops4drop4Drop4dropBJ_, symObjAddr: 0x8E10, symBinAddr: 0x25240, symSize: 0x38 }
  - { offset: 0x430EE, size: 0x8, addend: 0x0, symName: __RNvXsn_NtCsdFlNUEO95cG_5alloc3vecINtB5_3VecNtNtCscwCr4GBBztI_3syn3lit6LitStrENtNtNtCs85QQFkKrybG_4core3ops4drop4Drop4dropCs3tyqko2rdGU_12serde_derive, symObjAddr: 0x8E48, symBinAddr: 0x25278, symSize: 0x38 }
  - { offset: 0x4319E, size: 0x8, addend: 0x0, symName: __RNvXsn_NtCsdFlNUEO95cG_5alloc3vecINtB5_3VecNtNtCscwCr4GBBztI_3syn4expr6MemberENtNtNtCs85QQFkKrybG_4core3ops4drop4Drop4dropCs3tyqko2rdGU_12serde_derive, symObjAddr: 0x8E80, symBinAddr: 0x252B0, symSize: 0x38 }
  - { offset: 0x4324E, size: 0x8, addend: 0x0, symName: __RNvXsn_NtCsdFlNUEO95cG_5alloc3vecINtB5_3VecNtNtCscwCr4GBBztI_3syn5error5ErrorENtNtNtCs85QQFkKrybG_4core3ops4drop4Drop4dropCs3tyqko2rdGU_12serde_derive, symObjAddr: 0x8EB8, symBinAddr: 0x252E8, symSize: 0x38 }
  - { offset: 0x432FE, size: 0x8, addend: 0x0, symName: __RNvXsn_NtCsdFlNUEO95cG_5alloc3vecINtB5_3VecNtNtCscwCr4GBBztI_3syn8generics12GenericParamENtNtNtCs85QQFkKrybG_4core3ops4drop4Drop4dropCs3tyqko2rdGU_12serde_derive, symObjAddr: 0x8EF0, symBinAddr: 0x25320, symSize: 0x38 }
  - { offset: 0x433AE, size: 0x8, addend: 0x0, symName: __RNvXsn_NtCsdFlNUEO95cG_5alloc3vecINtB5_3VecNtNtCscwCr4GBBztI_3syn8generics14WherePredicateENtNtNtCs85QQFkKrybG_4core3ops4drop4Drop4dropCs3tyqko2rdGU_12serde_derive, symObjAddr: 0x8F28, symBinAddr: 0x25358, symSize: 0x38 }
  - { offset: 0x4345E, size: 0x8, addend: 0x0, symName: __RNvXsn_NtCsdFlNUEO95cG_5alloc3vecINtB5_3VecNtNtNtCs3tyqko2rdGU_12serde_derive9internals3ast5FieldENtNtNtCs85QQFkKrybG_4core3ops4drop4Drop4dropBL_, symObjAddr: 0x8F60, symBinAddr: 0x25390, symSize: 0x38 }
  - { offset: 0x4350E, size: 0x8, addend: 0x0, symName: __RNvXsn_NtCsdFlNUEO95cG_5alloc3vecINtB5_3VecNtNtNtCs3tyqko2rdGU_12serde_derive9internals3ast7VariantENtNtNtCs85QQFkKrybG_4core3ops4drop4Drop4dropBL_, symObjAddr: 0x8F98, symBinAddr: 0x253C8, symSize: 0x38 }
  - { offset: 0x435BE, size: 0x8, addend: 0x0, symName: __RNvXsn_NtCsdFlNUEO95cG_5alloc3vecINtB5_3VecNtNtNtCs3tyqko2rdGU_12serde_derive9internals4name4NameENtNtNtCs85QQFkKrybG_4core3ops4drop4Drop4dropBL_, symObjAddr: 0x8FD0, symBinAddr: 0x25400, symSize: 0x38 }
  - { offset: 0x4366E, size: 0x8, addend: 0x0, symName: __RNvXsn_NtCsdFlNUEO95cG_5alloc3vecINtB5_3VecRNtCsfwj6t2KTYdc_11proc_macro25IdentENtNtNtCs85QQFkKrybG_4core3ops4drop4Drop4dropCs3tyqko2rdGU_12serde_derive, symObjAddr: 0x9008, symBinAddr: 0x25438, symSize: 0x24 }
  - { offset: 0x4371E, size: 0x8, addend: 0x0, symName: __RNvXsn_NtCsdFlNUEO95cG_5alloc3vecINtB5_3VecRNtNtCscwCr4GBBztI_3syn2ty4TypeENtNtNtCs85QQFkKrybG_4core3ops4drop4Drop4dropCs3tyqko2rdGU_12serde_derive, symObjAddr: 0x902C, symBinAddr: 0x2545C, symSize: 0x24 }
  - { offset: 0x437CE, size: 0x8, addend: 0x0, symName: __RNvXsn_NtCsdFlNUEO95cG_5alloc3vecINtB5_3VecRNtNtCscwCr4GBBztI_3syn2ty8TypePathENtNtNtCs85QQFkKrybG_4core3ops4drop4Drop4dropCs3tyqko2rdGU_12serde_derive, symObjAddr: 0x9050, symBinAddr: 0x25480, symSize: 0x24 }
  - { offset: 0x4387E, size: 0x8, addend: 0x0, symName: __RNvXsn_NtCsdFlNUEO95cG_5alloc3vecINtB5_3VecRNtNtCscwCr4GBBztI_3syn4expr6MemberENtNtNtCs85QQFkKrybG_4core3ops4drop4Drop4dropCs3tyqko2rdGU_12serde_derive, symObjAddr: 0x9074, symBinAddr: 0x254A4, symSize: 0x24 }
  - { offset: 0x4392E, size: 0x8, addend: 0x0, symName: __RNvXsn_NtCsdFlNUEO95cG_5alloc3vecINtB5_3VecTRNtNtNtCs3tyqko2rdGU_12serde_derive9internals3ast5FieldNtCsfwj6t2KTYdc_11proc_macro25IdentEENtNtNtCs85QQFkKrybG_4core3ops4drop4Drop4dropBN_, symObjAddr: 0x9098, symBinAddr: 0x254C8, symSize: 0x38 }
  - { offset: 0x49317, size: 0x8, addend: 0x0, symName: __RINvMsi_NtCsdFlNUEO95cG_5alloc3vecINtB6_3VecNtCsfwj6t2KTYdc_11proc_macro211TokenStreamE14extend_trustedINtNtNtNtCs85QQFkKrybG_4core4iter8adapters3map3MapINtNtB1I_9enumerate9EnumerateINtNtNtB1M_5slice4iter4IterNtNtNtCs3tyqko2rdGU_12serde_derive9internals3ast7VariantEENCNvNtB3r_3ser14serialize_enum0EEB3r_, symObjAddr: 0x0, symBinAddr: 0x1C430, symSize: 0x190 }
  - { offset: 0x495E8, size: 0x8, addend: 0x0, symName: __RINvMsi_NtCsdFlNUEO95cG_5alloc3vecINtB6_3VecNtCsfwj6t2KTYdc_11proc_macro211TokenStreamE14extend_trustedINtNtNtNtCs85QQFkKrybG_4core4iter8adapters3map3MapINtNtNtB1M_5slice4iter4IterNtNtNtCs3tyqko2rdGU_12serde_derive9internals3ast5FieldENCNvNtB2Y_3ser27wrap_serialize_variant_withs_0EEB2Y_, symObjAddr: 0x190, symBinAddr: 0x1C5C0, symSize: 0x16C }
  - { offset: 0x49982, size: 0x8, addend: 0x0, symName: __RINvMsi_NtCsdFlNUEO95cG_5alloc3vecINtB6_3VecNtCsfwj6t2KTYdc_11proc_macro211TokenStreamE16extend_desugaredINtNtNtNtCs85QQFkKrybG_4core4iter8adapters10filter_map9FilterMapINtNtB1K_6filter6FilterINtNtB1K_9enumerate9EnumerateINtNtNtB1O_5slice4iter4IterNtNtNtCs3tyqko2rdGU_12serde_derive9internals3ast7VariantEENCNvNtNtB44_2de15enum_adjacently11deserializes0_0ENCB4W_s1_0EEB44_, symObjAddr: 0x2FC, symBinAddr: 0x1C72C, symSize: 0x1E0 }
  - { offset: 0x49DB2, size: 0x8, addend: 0x0, symName: __RINvMsi_NtCsdFlNUEO95cG_5alloc3vecINtB6_3VecNtCsfwj6t2KTYdc_11proc_macro211TokenStreamE16extend_desugaredINtNtNtNtCs85QQFkKrybG_4core4iter8adapters10filter_map9FilterMapINtNtNtB1O_5slice4iter4IterNtNtNtCs3tyqko2rdGU_12serde_derive9internals3ast7VariantENCNvNtB3e_7pretend24pretend_fields_used_enum0EEB3e_, symObjAddr: 0x4DC, symBinAddr: 0x1C90C, symSize: 0x1E0 }
  - { offset: 0x4A1E2, size: 0x8, addend: 0x0, symName: __RINvMsi_NtCsdFlNUEO95cG_5alloc3vecINtB6_3VecNtCsfwj6t2KTYdc_11proc_macro211TokenStreamE16extend_desugaredINtNtNtNtCs85QQFkKrybG_4core4iter8adapters3map3MapINtNtB1K_6filter6FilterINtNtB1K_9enumerate9EnumerateINtNtNtB1O_5slice4iter4IterNtNtNtCs3tyqko2rdGU_12serde_derive9internals3ast5FieldEENCNvNtB3Q_3ser30serialize_tuple_struct_visitor0ENCB4G_s_0EEB3Q_, symObjAddr: 0x6BC, symBinAddr: 0x1CAEC, symSize: 0x1E0 }
  - { offset: 0x4A605, size: 0x8, addend: 0x0, symName: __RINvMsi_NtCsdFlNUEO95cG_5alloc3vecINtB6_3VecNtCsfwj6t2KTYdc_11proc_macro211TokenStreamE16extend_desugaredINtNtNtNtCs85QQFkKrybG_4core4iter8adapters3map3MapINtNtB1K_6filter6FilterINtNtB1K_9enumerate9EnumerateINtNtNtB1O_5slice4iter4IterNtNtNtCs3tyqko2rdGU_12serde_derive9internals3ast7VariantEENCNvNtNtB3Q_2de15enum_adjacently11deserialize0ENCB4I_s_0EEB3Q_, symObjAddr: 0x89C, symBinAddr: 0x1CCCC, symSize: 0x1E0 }
  - { offset: 0x4AA28, size: 0x8, addend: 0x0, symName: __RINvMsi_NtCsdFlNUEO95cG_5alloc3vecINtB6_3VecNtCsfwj6t2KTYdc_11proc_macro211TokenStreamE16extend_desugaredINtNtNtNtCs85QQFkKrybG_4core4iter8adapters3map3MapINtNtB1K_6filter6FilterINtNtNtB1O_5slice4iter4IterNtNtNtCs3tyqko2rdGU_12serde_derive9internals3ast5FieldENCNvNtB3n_3ser24serialize_struct_visitor0ENCB4c_s_0EEB3n_, symObjAddr: 0xA7C, symBinAddr: 0x1CEAC, symSize: 0x1E0 }
  - { offset: 0x4ADDB, size: 0x8, addend: 0x0, symName: __RINvMsi_NtCsdFlNUEO95cG_5alloc3vecINtB6_3VecNtCsfwj6t2KTYdc_11proc_macro25IdentE14extend_trustedINtNtNtNtCs85QQFkKrybG_4core4iter8adapters3map3MapINtNtNtB1F_3ops5range5RangejENCNCNvNtCs3tyqko2rdGU_12serde_derive7pretend21pretend_variants_used00EEB2V_, symObjAddr: 0xC5C, symBinAddr: 0x1D08C, symSize: 0x16C }
  - { offset: 0x4B0D1, size: 0x8, addend: 0x0, symName: __RINvMsi_NtCsdFlNUEO95cG_5alloc3vecINtB6_3VecNtNtCs3tyqko2rdGU_12serde_derive2de16FieldWithAliasesE14extend_trustedINtNtNtNtCs85QQFkKrybG_4core4iter8adapters3map3MapINtNtNtB1X_5slice4iter4IterNtNtNtBK_9internals3ast7VariantENCNvNtBI_10identifier18deserialize_customs_0EEBK_, symObjAddr: 0xDC8, symBinAddr: 0x1D1F8, symSize: 0x16C }
  - { offset: 0x4B42A, size: 0x8, addend: 0x0, symName: __RINvMsi_NtCsdFlNUEO95cG_5alloc3vecINtB6_3VecNtNtCs3tyqko2rdGU_12serde_derive2de16FieldWithAliasesE16extend_desugaredINtNtNtNtCs85QQFkKrybG_4core4iter8adapters3map3MapINtNtB1V_6filter6FilterINtNtB1V_9enumerate9EnumerateINtNtNtB1Z_5slice4iter4IterNtNtNtBK_9internals3ast5FieldEENCNvNtBI_7struct_11deserialize0ENCB4s_s_0EEBK_, symObjAddr: 0xF34, symBinAddr: 0x1D364, symSize: 0x1DC }
  - { offset: 0x4B840, size: 0x8, addend: 0x0, symName: __RINvMsi_NtCsdFlNUEO95cG_5alloc3vecINtB6_3VecNtNtCs3tyqko2rdGU_12serde_derive2de16FieldWithAliasesE16extend_desugaredINtNtNtNtCs85QQFkKrybG_4core4iter8adapters3map3MapINtNtB1V_6filter6FilterINtNtB1V_9enumerate9EnumerateINtNtNtB1Z_5slice4iter4IterNtNtNtBK_9internals3ast7VariantEENCNvNtBI_5enum_25prepare_enum_variant_enum0ENCB4u_s2_0EEBK_, symObjAddr: 0x1110, symBinAddr: 0x1D540, symSize: 0x1DC }
  - { offset: 0x4BBF3, size: 0x8, addend: 0x0, symName: __RINvMsi_NtCsdFlNUEO95cG_5alloc3vecINtB6_3VecNtNtCscwCr4GBBztI_3syn4expr6MemberE14extend_trustedINtNtNtNtCs85QQFkKrybG_4core4iter8adapters3map3MapINtNtNtB1E_3ops5range5RangejENCNvNtCs3tyqko2rdGU_12serde_derive3ser35serialize_adjacently_tagged_variants_0EEB2S_, symObjAddr: 0x12EC, symBinAddr: 0x1D71C, symSize: 0x16C }
  - { offset: 0x4BEA8, size: 0x8, addend: 0x0, symName: __RINvMsi_NtCsdFlNUEO95cG_5alloc3vecINtB6_3VecNtNtCscwCr4GBBztI_3syn4expr6MemberE14extend_trustedINtNtNtNtCs85QQFkKrybG_4core4iter8adapters3map3MapINtNtNtB1E_5slice4iter4IterNtNtNtCs3tyqko2rdGU_12serde_derive9internals3ast5FieldENCNvNtB2Q_3ser35serialize_adjacently_tagged_variants0_0EEB2Q_, symObjAddr: 0x1458, symBinAddr: 0x1D888, symSize: 0x16C }
  - { offset: 0x4C235, size: 0x8, addend: 0x0, symName: __RINvMsi_NtCsdFlNUEO95cG_5alloc3vecINtB6_3VecNtNtCscwCr4GBBztI_3syn8generics14WherePredicateE16extend_desugaredINtNtBK_10punctuated8IntoIterBG_EECs3tyqko2rdGU_12serde_derive, symObjAddr: 0x15C4, symBinAddr: 0x1D9F4, symSize: 0x214 }
  - { offset: 0x4C723, size: 0x8, addend: 0x0, symName: __RINvMsi_NtCsdFlNUEO95cG_5alloc3vecINtB6_3VecNtNtNtCs3tyqko2rdGU_12serde_derive9internals3ast5FieldE16extend_desugaredINtNtNtNtCs85QQFkKrybG_4core4iter8adapters3map3MapINtNtB1W_9enumerate9EnumerateINtNtCscwCr4GBBztI_3syn10punctuated4IterNtNtB3d_4data5FieldEENCNvBI_15fields_from_ast0EEBM_, symObjAddr: 0x17D8, symBinAddr: 0x1DC08, symSize: 0x218 }
  - { offset: 0x4CB9B, size: 0x8, addend: 0x0, symName: __RINvMsi_NtCsdFlNUEO95cG_5alloc3vecINtB6_3VecNtNtNtCs3tyqko2rdGU_12serde_derive9internals3ast7VariantE16extend_desugaredINtNtNtNtCs85QQFkKrybG_4core4iter8adapters3map3MapINtNtCscwCr4GBBztI_3syn10punctuated4IterNtNtB2M_4data7VariantENCNvBI_13enum_from_ast0EEBM_, symObjAddr: 0x19F0, symBinAddr: 0x1DE20, symSize: 0x214 }
  - { offset: 0x4CF5B, size: 0x8, addend: 0x0, symName: __RINvMsi_NtCsdFlNUEO95cG_5alloc3vecINtB6_3VecRNtCsfwj6t2KTYdc_11proc_macro25IdentE14extend_trustedINtNtNtNtCs85QQFkKrybG_4core4iter8adapters3map3MapINtNtNtB1G_5slice4iter4IterNtNtCs3tyqko2rdGU_12serde_derive2de16FieldWithAliasesENCNvNtB2O_10identifier21deserialize_generated0EEB2Q_, symObjAddr: 0x1C04, symBinAddr: 0x1E034, symSize: 0x16C }
  - { offset: 0x4D244, size: 0x8, addend: 0x0, symName: __RINvMsi_NtCsdFlNUEO95cG_5alloc3vecINtB6_3VecRNtNtCscwCr4GBBztI_3syn2ty4TypeE14extend_trustedINtNtNtNtCs85QQFkKrybG_4core4iter8adapters3map3MapINtNtNtB1B_5slice4iter4IterNtNtNtCs3tyqko2rdGU_12serde_derive9internals3ast5FieldENCNvNtB2N_3ser27wrap_serialize_variant_with0EEB2N_, symObjAddr: 0x1D70, symBinAddr: 0x1E1A0, symSize: 0x16C }
  - { offset: 0x4D53A, size: 0x8, addend: 0x0, symName: __RINvMsi_NtCsdFlNUEO95cG_5alloc3vecINtB6_3VecRNtNtCscwCr4GBBztI_3syn4expr6MemberE14extend_trustedINtNtNtNtCs85QQFkKrybG_4core4iter8adapters3map3MapINtNtNtB1F_5slice4iter4IterNtNtNtCs3tyqko2rdGU_12serde_derive9internals3ast5FieldENCNvNtB2R_3ser37serialize_struct_variant_with_flattens0_0EEB2R_, symObjAddr: 0x1EDC, symBinAddr: 0x1E30C, symSize: 0x16C }
  - { offset: 0x4D7EF, size: 0x8, addend: 0x0, symName: __RINvMsi_NtCsdFlNUEO95cG_5alloc3vecINtB6_3VecRNtNtCscwCr4GBBztI_3syn4expr6MemberE14extend_trustedINtNtNtNtCs85QQFkKrybG_4core4iter8adapters3map3MapINtNtNtB1F_5slice4iter4IterNtNtNtCs3tyqko2rdGU_12serde_derive9internals3ast5FieldENCNvNtB2R_7pretend33pretend_fields_used_struct_packed0EEB2R_, symObjAddr: 0x2048, symBinAddr: 0x1E478, symSize: 0x16C }
  - { offset: 0x4DAF6, size: 0x8, addend: 0x0, symName: __RINvMsi_NtCsdFlNUEO95cG_5alloc3vecINtB6_3VecTRNtNtNtCs3tyqko2rdGU_12serde_derive9internals3ast5FieldNtCsfwj6t2KTYdc_11proc_macro25IdentEE14extend_trustedINtNtNtNtCs85QQFkKrybG_4core4iter8adapters3map3MapINtNtB2w_9enumerate9EnumerateINtNtNtB2A_5slice4iter4IterBI_EENCNvNtNtBO_2de7struct_15deserialize_map0EEBO_, symObjAddr: 0x21B4, symBinAddr: 0x1E5E4, symSize: 0x178 }
  - { offset: 0x4DDE0, size: 0x8, addend: 0x0, symName: __RINvMsi_NtCsdFlNUEO95cG_5alloc3vecINtB6_3VechE14extend_trustedINtNtNtNtCs85QQFkKrybG_4core4iter8adapters3map3MapINtNtNtB17_5slice4iter4IterhENCNvNtB8_3str13replace_ascii0EECs3tyqko2rdGU_12serde_derive, symObjAddr: 0x232C, symBinAddr: 0x1E75C, symSize: 0x178 }
  - { offset: 0x4E07D, size: 0x8, addend: 0x0, symName: __RNvMNtCsdFlNUEO95cG_5alloc3vecINtB2_3VecIBt_NtNtCscwCr4GBBztI_3syn8generics14WherePredicateEE3newCs3tyqko2rdGU_12serde_derive, symObjAddr: 0x2C9C, symBinAddr: 0x1F0CC, symSize: 0x14 }
  - { offset: 0x4E09A, size: 0x8, addend: 0x0, symName: __RNvMNtCsdFlNUEO95cG_5alloc3vecINtB2_3VecNtNtCscwCr4GBBztI_3syn3lit6LitStrE3newCs3tyqko2rdGU_12serde_derive, symObjAddr: 0x2CB0, symBinAddr: 0x1F0E0, symSize: 0x14 }
  - { offset: 0x4E0B7, size: 0x8, addend: 0x0, symName: __RNvMNtCsdFlNUEO95cG_5alloc3vecINtB2_3VecNtNtCscwCr4GBBztI_3syn4expr6MemberE3newCs3tyqko2rdGU_12serde_derive, symObjAddr: 0x2CC4, symBinAddr: 0x1F0F4, symSize: 0x14 }
  - { offset: 0x4E0D4, size: 0x8, addend: 0x0, symName: __RNvMNtCsdFlNUEO95cG_5alloc3vecINtB2_3VecNtNtCscwCr4GBBztI_3syn5error5ErrorE3newCs3tyqko2rdGU_12serde_derive, symObjAddr: 0x2CD8, symBinAddr: 0x1F108, symSize: 0x14 }
  - { offset: 0x4E153, size: 0x8, addend: 0x0, symName: __RNvMNtCsdFlNUEO95cG_5alloc3vecINtB2_3VecNtNtCscwCr4GBBztI_3syn8generics12GenericParamE13with_capacityCs3tyqko2rdGU_12serde_derive, symObjAddr: 0x2CEC, symBinAddr: 0x1F11C, symSize: 0x48 }
  - { offset: 0x4E22D, size: 0x8, addend: 0x0, symName: __RNvMNtCsdFlNUEO95cG_5alloc3vecINtB2_3VecNtNtCscwCr4GBBztI_3syn8generics14WherePredicateE13with_capacityCs3tyqko2rdGU_12serde_derive, symObjAddr: 0x2D34, symBinAddr: 0x1F164, symSize: 0x48 }
  - { offset: 0x4E2A5, size: 0x8, addend: 0x0, symName: __RNvMNtCsdFlNUEO95cG_5alloc3vecINtB2_3VecNtNtCscwCr4GBBztI_3syn8generics14WherePredicateE3newCs3tyqko2rdGU_12serde_derive, symObjAddr: 0x2D7C, symBinAddr: 0x1F1AC, symSize: 0x14 }
  - { offset: 0x4E2C2, size: 0x8, addend: 0x0, symName: __RNvMNtCsdFlNUEO95cG_5alloc3vecINtB2_3VecNtNtNtCs3tyqko2rdGU_12serde_derive9internals3ast5FieldE3newBI_, symObjAddr: 0x2D90, symBinAddr: 0x1F1C0, symSize: 0x14 }
  - { offset: 0x4E2DF, size: 0x8, addend: 0x0, symName: __RNvMNtCsdFlNUEO95cG_5alloc3vecINtB2_3VecNtNtNtCs3tyqko2rdGU_12serde_derive9internals4name4NameE3newBI_, symObjAddr: 0x2DA4, symBinAddr: 0x1F1D4, symSize: 0x14 }
  - { offset: 0x4E309, size: 0x8, addend: 0x0, symName: __RNvMNtCsdFlNUEO95cG_5alloc3vecINtB2_3VecRNtNtCscwCr4GBBztI_3syn2ty8TypePathE3newCs3tyqko2rdGU_12serde_derive, symObjAddr: 0x2DB8, symBinAddr: 0x1F1E8, symSize: 0x14 }
  - { offset: 0x4E333, size: 0x8, addend: 0x0, symName: __RNvMs_NtCsdFlNUEO95cG_5alloc3vecINtB4_3VecIBv_NtNtCscwCr4GBBztI_3syn8generics14WherePredicateEE3lenCs3tyqko2rdGU_12serde_derive, symObjAddr: 0x2DCC, symBinAddr: 0x1F1FC, symSize: 0x18 }
  - { offset: 0x4E4B5, size: 0x8, addend: 0x0, symName: __RNvMs_NtCsdFlNUEO95cG_5alloc3vecINtB4_3VecIBv_NtNtCscwCr4GBBztI_3syn8generics14WherePredicateEE3popCs3tyqko2rdGU_12serde_derive, symObjAddr: 0x2DE4, symBinAddr: 0x1F214, symSize: 0x108 }
  - { offset: 0x4E64A, size: 0x8, addend: 0x0, symName: __RNvMs_NtCsdFlNUEO95cG_5alloc3vecINtB4_3VecIBv_NtNtCscwCr4GBBztI_3syn8generics14WherePredicateEE4pushCs3tyqko2rdGU_12serde_derive, symObjAddr: 0x2EEC, symBinAddr: 0x1F31C, symSize: 0x24 }
  - { offset: 0x4E76E, size: 0x8, addend: 0x0, symName: __RNvMs_NtCsdFlNUEO95cG_5alloc3vecINtB4_3VecIBv_NtNtCscwCr4GBBztI_3syn8generics14WherePredicateEE8push_mutCs3tyqko2rdGU_12serde_derive, symObjAddr: 0x2F10, symBinAddr: 0x1F340, symSize: 0x108 }
  - { offset: 0x4E922, size: 0x8, addend: 0x0, symName: __RNvMs_NtCsdFlNUEO95cG_5alloc3vecINtB4_3VecNtCsfwj6t2KTYdc_11proc_macro211TokenStreamE4pushCs3tyqko2rdGU_12serde_derive, symObjAddr: 0x3018, symBinAddr: 0x1F448, symSize: 0x24 }
  - { offset: 0x4EA97, size: 0x8, addend: 0x0, symName: __RNvMs_NtCsdFlNUEO95cG_5alloc3vecINtB4_3VecNtCsfwj6t2KTYdc_11proc_macro211TokenStreamE7reserveCs3tyqko2rdGU_12serde_derive, symObjAddr: 0x303C, symBinAddr: 0x1F46C, symSize: 0xC8 }
  - { offset: 0x4EC95, size: 0x8, addend: 0x0, symName: __RNvMs_NtCsdFlNUEO95cG_5alloc3vecINtB4_3VecNtCsfwj6t2KTYdc_11proc_macro211TokenStreamE8as_sliceCs3tyqko2rdGU_12serde_derive, symObjAddr: 0x3104, symBinAddr: 0x1F534, symSize: 0x6C }
  - { offset: 0x4ED74, size: 0x8, addend: 0x0, symName: __RNvMs_NtCsdFlNUEO95cG_5alloc3vecINtB4_3VecNtCsfwj6t2KTYdc_11proc_macro211TokenStreamE8is_emptyCs3tyqko2rdGU_12serde_derive, symObjAddr: 0x3170, symBinAddr: 0x1F5A0, symSize: 0x20 }
  - { offset: 0x4EEA6, size: 0x8, addend: 0x0, symName: __RNvMs_NtCsdFlNUEO95cG_5alloc3vecINtB4_3VecNtCsfwj6t2KTYdc_11proc_macro211TokenStreamE8push_mutCs3tyqko2rdGU_12serde_derive, symObjAddr: 0x3190, symBinAddr: 0x1F5C0, symSize: 0x100 }
  - { offset: 0x4F170, size: 0x8, addend: 0x0, symName: __RNvMs_NtCsdFlNUEO95cG_5alloc3vecINtB4_3VecNtCsfwj6t2KTYdc_11proc_macro25IdentE7reserveCs3tyqko2rdGU_12serde_derive, symObjAddr: 0x3290, symBinAddr: 0x1F6C0, symSize: 0xC8 }
  - { offset: 0x4F37B, size: 0x8, addend: 0x0, symName: __RNvMs_NtCsdFlNUEO95cG_5alloc3vecINtB4_3VecNtCsfwj6t2KTYdc_11proc_macro25IdentE8as_sliceCs3tyqko2rdGU_12serde_derive, symObjAddr: 0x3358, symBinAddr: 0x1F788, symSize: 0x6C }
  - { offset: 0x4F54B, size: 0x8, addend: 0x0, symName: __RNvMs_NtCsdFlNUEO95cG_5alloc3vecINtB4_3VecNtNtCs3tyqko2rdGU_12serde_derive2de16FieldWithAliasesE7reserveBI_, symObjAddr: 0x33C4, symBinAddr: 0x1F7F4, symSize: 0xC8 }
  - { offset: 0x4F749, size: 0x8, addend: 0x0, symName: __RNvMs_NtCsdFlNUEO95cG_5alloc3vecINtB4_3VecNtNtCs3tyqko2rdGU_12serde_derive2de16FieldWithAliasesE8as_sliceBI_, symObjAddr: 0x348C, symBinAddr: 0x1F8BC, symSize: 0x6C }
  - { offset: 0x4F828, size: 0x8, addend: 0x0, symName: __RNvMs_NtCsdFlNUEO95cG_5alloc3vecINtB4_3VecNtNtCs3tyqko2rdGU_12serde_derive2de16FieldWithAliasesE8is_emptyBI_, symObjAddr: 0x34F8, symBinAddr: 0x1F928, symSize: 0x20 }
  - { offset: 0x4F888, size: 0x8, addend: 0x0, symName: __RNvMs_NtCsdFlNUEO95cG_5alloc3vecINtB4_3VecNtNtCscwCr4GBBztI_3syn3lit6LitStrE3lenCs3tyqko2rdGU_12serde_derive, symObjAddr: 0x3518, symBinAddr: 0x1F948, symSize: 0x18 }
  - { offset: 0x4FA0A, size: 0x8, addend: 0x0, symName: __RNvMs_NtCsdFlNUEO95cG_5alloc3vecINtB4_3VecNtNtCscwCr4GBBztI_3syn3lit6LitStrE3popCs3tyqko2rdGU_12serde_derive, symObjAddr: 0x3530, symBinAddr: 0x1F960, symSize: 0xE0 }
  - { offset: 0x4FB9B, size: 0x8, addend: 0x0, symName: __RNvMs_NtCsdFlNUEO95cG_5alloc3vecINtB4_3VecNtNtCscwCr4GBBztI_3syn3lit6LitStrE4pushCs3tyqko2rdGU_12serde_derive, symObjAddr: 0x3610, symBinAddr: 0x1FA40, symSize: 0x2C }
  - { offset: 0x4FCCB, size: 0x8, addend: 0x0, symName: __RNvMs_NtCsdFlNUEO95cG_5alloc3vecINtB4_3VecNtNtCscwCr4GBBztI_3syn3lit6LitStrE8push_mutCs3tyqko2rdGU_12serde_derive, symObjAddr: 0x363C, symBinAddr: 0x1FA6C, symSize: 0xEC }
  - { offset: 0x4FF4F, size: 0x8, addend: 0x0, symName: __RNvMs_NtCsdFlNUEO95cG_5alloc3vecINtB4_3VecNtNtCscwCr4GBBztI_3syn4expr6MemberE17from_raw_parts_inCs3tyqko2rdGU_12serde_derive, symObjAddr: 0x3728, symBinAddr: 0x1FB58, symSize: 0xA8 }
  - { offset: 0x501EB, size: 0x8, addend: 0x0, symName: __RNvMs_NtCsdFlNUEO95cG_5alloc3vecINtB4_3VecNtNtCscwCr4GBBztI_3syn4expr6MemberE7reserveCs3tyqko2rdGU_12serde_derive, symObjAddr: 0x37D0, symBinAddr: 0x1FC00, symSize: 0xC8 }
  - { offset: 0x503F6, size: 0x8, addend: 0x0, symName: __RNvMs_NtCsdFlNUEO95cG_5alloc3vecINtB4_3VecNtNtCscwCr4GBBztI_3syn4expr6MemberE8as_sliceCs3tyqko2rdGU_12serde_derive, symObjAddr: 0x3898, symBinAddr: 0x1FCC8, symSize: 0x6C }
  - { offset: 0x50591, size: 0x8, addend: 0x0, symName: __RNvMs_NtCsdFlNUEO95cG_5alloc3vecINtB4_3VecNtNtCscwCr4GBBztI_3syn4path11PathSegmentE17from_raw_parts_inCs3tyqko2rdGU_12serde_derive, symObjAddr: 0x3904, symBinAddr: 0x1FD34, symSize: 0xA8 }
  - { offset: 0x50724, size: 0x8, addend: 0x0, symName: __RNvMs_NtCsdFlNUEO95cG_5alloc3vecINtB4_3VecNtNtCscwCr4GBBztI_3syn5error5ErrorE4pushCs3tyqko2rdGU_12serde_derive, symObjAddr: 0x39AC, symBinAddr: 0x1FDDC, symSize: 0x24 }
  - { offset: 0x5087C, size: 0x8, addend: 0x0, symName: __RNvMs_NtCsdFlNUEO95cG_5alloc3vecINtB4_3VecNtNtCscwCr4GBBztI_3syn5error5ErrorE8push_mutCs3tyqko2rdGU_12serde_derive, symObjAddr: 0x39D0, symBinAddr: 0x1FE00, symSize: 0x108 }
  - { offset: 0x50A3D, size: 0x8, addend: 0x0, symName: __RNvMs_NtCsdFlNUEO95cG_5alloc3vecINtB4_3VecNtNtCscwCr4GBBztI_3syn8generics12GenericParamE4pushCs3tyqko2rdGU_12serde_derive, symObjAddr: 0x3AD8, symBinAddr: 0x1FF08, symSize: 0x24 }
  - { offset: 0x50B95, size: 0x8, addend: 0x0, symName: __RNvMs_NtCsdFlNUEO95cG_5alloc3vecINtB4_3VecNtNtCscwCr4GBBztI_3syn8generics12GenericParamE8push_mutCs3tyqko2rdGU_12serde_derive, symObjAddr: 0x3AFC, symBinAddr: 0x1FF2C, symSize: 0x124 }
  - { offset: 0x50E2D, size: 0x8, addend: 0x0, symName: __RNvMs_NtCsdFlNUEO95cG_5alloc3vecINtB4_3VecNtNtCscwCr4GBBztI_3syn8generics14TypeParamBoundE17from_raw_parts_inCs3tyqko2rdGU_12serde_derive, symObjAddr: 0x3C20, symBinAddr: 0x20050, symSize: 0xA8 }
  - { offset: 0x50FB3, size: 0x8, addend: 0x0, symName: __RNvMs_NtCsdFlNUEO95cG_5alloc3vecINtB4_3VecNtNtCscwCr4GBBztI_3syn8generics14WherePredicateE4pushCs3tyqko2rdGU_12serde_derive, symObjAddr: 0x3CC8, symBinAddr: 0x200F8, symSize: 0x24 }
  - { offset: 0x5110E, size: 0x8, addend: 0x0, symName: __RNvMs_NtCsdFlNUEO95cG_5alloc3vecINtB4_3VecNtNtCscwCr4GBBztI_3syn8generics14WherePredicateE7reserveCs3tyqko2rdGU_12serde_derive, symObjAddr: 0x3CEC, symBinAddr: 0x2011C, symSize: 0xC8 }
  - { offset: 0x512F9, size: 0x8, addend: 0x0, symName: __RNvMs_NtCsdFlNUEO95cG_5alloc3vecINtB4_3VecNtNtCscwCr4GBBztI_3syn8generics14WherePredicateE7set_lenCs3tyqko2rdGU_12serde_derive, symObjAddr: 0x3DB4, symBinAddr: 0x201E4, symSize: 0x80 }
  - { offset: 0x514BE, size: 0x8, addend: 0x0, symName: __RNvMs_NtCsdFlNUEO95cG_5alloc3vecINtB4_3VecNtNtCscwCr4GBBztI_3syn8generics14WherePredicateE8push_mutCs3tyqko2rdGU_12serde_derive, symObjAddr: 0x3E34, symBinAddr: 0x20264, symSize: 0x124 }
  - { offset: 0x51675, size: 0x8, addend: 0x0, symName: __RNvMs_NtCsdFlNUEO95cG_5alloc3vecINtB4_3VecNtNtNtCs3tyqko2rdGU_12serde_derive9internals3ast5FieldE3lenBK_, symObjAddr: 0x3F58, symBinAddr: 0x20388, symSize: 0x18 }
  - { offset: 0x517C0, size: 0x8, addend: 0x0, symName: __RNvMs_NtCsdFlNUEO95cG_5alloc3vecINtB4_3VecNtNtNtCs3tyqko2rdGU_12serde_derive9internals3ast5FieldE7reserveBK_, symObjAddr: 0x3F70, symBinAddr: 0x203A0, symSize: 0xC8 }
  - { offset: 0x519BE, size: 0x8, addend: 0x0, symName: __RNvMs_NtCsdFlNUEO95cG_5alloc3vecINtB4_3VecNtNtNtCs3tyqko2rdGU_12serde_derive9internals3ast5FieldE8as_sliceBK_, symObjAddr: 0x4038, symBinAddr: 0x20468, symSize: 0x6C }
  - { offset: 0x51A78, size: 0x8, addend: 0x0, symName: __RNvMs_NtCsdFlNUEO95cG_5alloc3vecINtB4_3VecNtNtNtCs3tyqko2rdGU_12serde_derive9internals3ast7VariantE3lenBK_, symObjAddr: 0x40A4, symBinAddr: 0x204D4, symSize: 0x18 }
  - { offset: 0x51BC3, size: 0x8, addend: 0x0, symName: __RNvMs_NtCsdFlNUEO95cG_5alloc3vecINtB4_3VecNtNtNtCs3tyqko2rdGU_12serde_derive9internals3ast7VariantE7reserveBK_, symObjAddr: 0x40BC, symBinAddr: 0x204EC, symSize: 0xC8 }
  - { offset: 0x51DC1, size: 0x8, addend: 0x0, symName: __RNvMs_NtCsdFlNUEO95cG_5alloc3vecINtB4_3VecNtNtNtCs3tyqko2rdGU_12serde_derive9internals3ast7VariantE8as_sliceBK_, symObjAddr: 0x4184, symBinAddr: 0x205B4, symSize: 0x6C }
  - { offset: 0x51E88, size: 0x8, addend: 0x0, symName: __RNvMs_NtCsdFlNUEO95cG_5alloc3vecINtB4_3VecNtNtNtCs3tyqko2rdGU_12serde_derive9internals4name4NameE3lenBK_, symObjAddr: 0x41F0, symBinAddr: 0x20620, symSize: 0x18 }
  - { offset: 0x51ECA, size: 0x8, addend: 0x0, symName: __RNvMs_NtCsdFlNUEO95cG_5alloc3vecINtB4_3VecNtNtNtCs3tyqko2rdGU_12serde_derive9internals4name4NameE4pushBK_, symObjAddr: 0x4208, symBinAddr: 0x20638, symSize: 0x24 }
  - { offset: 0x52022, size: 0x8, addend: 0x0, symName: __RNvMs_NtCsdFlNUEO95cG_5alloc3vecINtB4_3VecNtNtNtCs3tyqko2rdGU_12serde_derive9internals4name4NameE8push_mutBK_, symObjAddr: 0x422C, symBinAddr: 0x2065C, symSize: 0x100 }
  - { offset: 0x522EC, size: 0x8, addend: 0x0, symName: __RNvMs_NtCsdFlNUEO95cG_5alloc3vecINtB4_3VecRNtCsfwj6t2KTYdc_11proc_macro25IdentE7reserveCs3tyqko2rdGU_12serde_derive, symObjAddr: 0x432C, symBinAddr: 0x2075C, symSize: 0xBC }
  - { offset: 0x524F7, size: 0x8, addend: 0x0, symName: __RNvMs_NtCsdFlNUEO95cG_5alloc3vecINtB4_3VecRNtCsfwj6t2KTYdc_11proc_macro25IdentE8as_sliceCs3tyqko2rdGU_12serde_derive, symObjAddr: 0x43E8, symBinAddr: 0x20818, symSize: 0x68 }
  - { offset: 0x526C7, size: 0x8, addend: 0x0, symName: __RNvMs_NtCsdFlNUEO95cG_5alloc3vecINtB4_3VecRNtNtCscwCr4GBBztI_3syn2ty4TypeE7reserveCs3tyqko2rdGU_12serde_derive, symObjAddr: 0x4450, symBinAddr: 0x20880, symSize: 0xBC }
  - { offset: 0x528D2, size: 0x8, addend: 0x0, symName: __RNvMs_NtCsdFlNUEO95cG_5alloc3vecINtB4_3VecRNtNtCscwCr4GBBztI_3syn2ty4TypeE8as_sliceCs3tyqko2rdGU_12serde_derive, symObjAddr: 0x450C, symBinAddr: 0x2093C, symSize: 0x68 }
  - { offset: 0x52999, size: 0x8, addend: 0x0, symName: __RNvMs_NtCsdFlNUEO95cG_5alloc3vecINtB4_3VecRNtNtCscwCr4GBBztI_3syn2ty8TypePathE4pushCs3tyqko2rdGU_12serde_derive, symObjAddr: 0x4574, symBinAddr: 0x209A4, symSize: 0x2C }
  - { offset: 0x52AF0, size: 0x8, addend: 0x0, symName: __RNvMs_NtCsdFlNUEO95cG_5alloc3vecINtB4_3VecRNtNtCscwCr4GBBztI_3syn2ty8TypePathE8push_mutCs3tyqko2rdGU_12serde_derive, symObjAddr: 0x45A0, symBinAddr: 0x209D0, symSize: 0xE4 }
  - { offset: 0x52DB8, size: 0x8, addend: 0x0, symName: __RNvMs_NtCsdFlNUEO95cG_5alloc3vecINtB4_3VecRNtNtCscwCr4GBBztI_3syn4expr6MemberE7reserveCs3tyqko2rdGU_12serde_derive, symObjAddr: 0x4684, symBinAddr: 0x20AB4, symSize: 0xBC }
  - { offset: 0x52FC3, size: 0x8, addend: 0x0, symName: __RNvMs_NtCsdFlNUEO95cG_5alloc3vecINtB4_3VecRNtNtCscwCr4GBBztI_3syn4expr6MemberE8as_sliceCs3tyqko2rdGU_12serde_derive, symObjAddr: 0x4740, symBinAddr: 0x20B70, symSize: 0x68 }
  - { offset: 0x53158, size: 0x8, addend: 0x0, symName: __RNvMs_NtCsdFlNUEO95cG_5alloc3vecINtB4_3VecTNtNtCscwCr4GBBztI_3syn2ty4TypeNtNtBJ_5token5CommaEE12as_mut_sliceCs3tyqko2rdGU_12serde_derive, symObjAddr: 0x47A8, symBinAddr: 0x20BD8, symSize: 0x6C }
  - { offset: 0x53302, size: 0x8, addend: 0x0, symName: __RNvMs_NtCsdFlNUEO95cG_5alloc3vecINtB4_3VecTNtNtCscwCr4GBBztI_3syn2ty9BareFnArgNtNtBJ_5token5CommaEE12as_mut_sliceCs3tyqko2rdGU_12serde_derive, symObjAddr: 0x4814, symBinAddr: 0x20C44, symSize: 0x6C }
  - { offset: 0x534AC, size: 0x8, addend: 0x0, symName: __RNvMs_NtCsdFlNUEO95cG_5alloc3vecINtB4_3VecTNtNtCscwCr4GBBztI_3syn4data7VariantNtNtBJ_5token5CommaEE12as_mut_sliceCs3tyqko2rdGU_12serde_derive, symObjAddr: 0x4880, symBinAddr: 0x20CB0, symSize: 0x6C }
  - { offset: 0x53656, size: 0x8, addend: 0x0, symName: __RNvMs_NtCsdFlNUEO95cG_5alloc3vecINtB4_3VecTNtNtCscwCr4GBBztI_3syn4expr4ExprNtNtBJ_5token5CommaEE12as_mut_sliceCs3tyqko2rdGU_12serde_derive, symObjAddr: 0x48EC, symBinAddr: 0x20D1C, symSize: 0x6C }
  - { offset: 0x53800, size: 0x8, addend: 0x0, symName: __RNvMs_NtCsdFlNUEO95cG_5alloc3vecINtB4_3VecTNtNtCscwCr4GBBztI_3syn4path15GenericArgumentNtNtBJ_5token5CommaEE12as_mut_sliceCs3tyqko2rdGU_12serde_derive, symObjAddr: 0x4958, symBinAddr: 0x20D88, symSize: 0x6C }
  - { offset: 0x539AA, size: 0x8, addend: 0x0, symName: __RNvMs_NtCsdFlNUEO95cG_5alloc3vecINtB4_3VecTNtNtCscwCr4GBBztI_3syn8generics14TypeParamBoundNtNtBJ_5token4PlusEE12as_mut_sliceCs3tyqko2rdGU_12serde_derive, symObjAddr: 0x49C4, symBinAddr: 0x20DF4, symSize: 0x6C }
  - { offset: 0x53B54, size: 0x8, addend: 0x0, symName: __RNvMs_NtCsdFlNUEO95cG_5alloc3vecINtB4_3VecTNtNtCscwCr4GBBztI_3syn8generics14WherePredicateNtNtBJ_5token5CommaEE12as_mut_sliceCs3tyqko2rdGU_12serde_derive, symObjAddr: 0x4A30, symBinAddr: 0x20E60, symSize: 0x6C }
  - { offset: 0x53D39, size: 0x8, addend: 0x0, symName: __RNvMs_NtCsdFlNUEO95cG_5alloc3vecINtB4_3VecTRNtNtNtCs3tyqko2rdGU_12serde_derive9internals3ast5FieldNtCsfwj6t2KTYdc_11proc_macro25IdentEE7reserveBM_, symObjAddr: 0x4A9C, symBinAddr: 0x20ECC, symSize: 0xC8 }
  - { offset: 0x53F44, size: 0x8, addend: 0x0, symName: __RNvMs_NtCsdFlNUEO95cG_5alloc3vecINtB4_3VecTRNtNtNtCs3tyqko2rdGU_12serde_derive9internals3ast5FieldNtCsfwj6t2KTYdc_11proc_macro25IdentEE8as_sliceBM_, symObjAddr: 0x4B64, symBinAddr: 0x20F94, symSize: 0x6C }
  - { offset: 0x551DE, size: 0x8, addend: 0x0, symName: __RNvXs4_NtNtCshi3DZH3dfhk_5quote9___private3extINtNtCsdFlNUEO95cG_5alloc3vec3VecNtCsfwj6t2KTYdc_11proc_macro211TokenStreamENtB5_16RepAsIteratorExt15quote_into_iterCs3tyqko2rdGU_12serde_derive, symObjAddr: 0x69C0, symBinAddr: 0x22DF0, symSize: 0x38 }
  - { offset: 0x55213, size: 0x8, addend: 0x0, symName: __RNvXs4_NtNtCshi3DZH3dfhk_5quote9___private3extINtNtCsdFlNUEO95cG_5alloc3vec3VecNtCsfwj6t2KTYdc_11proc_macro25IdentENtB5_16RepAsIteratorExt15quote_into_iterCs3tyqko2rdGU_12serde_derive, symObjAddr: 0x69F8, symBinAddr: 0x22E28, symSize: 0x38 }
  - { offset: 0x55248, size: 0x8, addend: 0x0, symName: __RNvXs4_NtNtCshi3DZH3dfhk_5quote9___private3extINtNtCsdFlNUEO95cG_5alloc3vec3VecRNtCsfwj6t2KTYdc_11proc_macro25IdentENtB5_16RepAsIteratorExt15quote_into_iterCs3tyqko2rdGU_12serde_derive, symObjAddr: 0x6A30, symBinAddr: 0x22E60, symSize: 0x38 }
  - { offset: 0x5527D, size: 0x8, addend: 0x0, symName: __RNvXs4_NtNtCshi3DZH3dfhk_5quote9___private3extINtNtCsdFlNUEO95cG_5alloc3vec3VecRNtNtCscwCr4GBBztI_3syn4expr6MemberENtB5_16RepAsIteratorExt15quote_into_iterCs3tyqko2rdGU_12serde_derive, symObjAddr: 0x6A68, symBinAddr: 0x22E98, symSize: 0x38 }
  - { offset: 0x5775A, size: 0x8, addend: 0x0, symName: __RINvXs2E_NtNtCs85QQFkKrybG_4core5slice4iterINtB7_4IterNtNtCs3tyqko2rdGU_12serde_derive2de16FieldWithAliasesENtNtNtNtBb_4iter6traits8iterator8Iterator4folduNCINvNtNtB1O_8adapters3map8map_foldRBQ_RNtCsfwj6t2KTYdc_11proc_macro25IdentuNCNvNtBS_10identifier21deserialize_generated0NCINvNvB1I_8for_each4callB36_NCINvMsi_NtCsdFlNUEO95cG_5alloc3vecINtB52_3VecB36_E14extend_trustedINtB2y_3MapBF_B3H_EE0E0E0EBU_, symObjAddr: 0x0, symBinAddr: 0x25500, symSize: 0x1B8 }
  - { offset: 0x5EF2B, size: 0x8, addend: 0x0, symName: __RINvXs2E_NtNtCs85QQFkKrybG_4core5slice4iterINtB7_4IterNtNtCs3tyqko2rdGU_12serde_derive2de16FieldWithAliasesENtNtNtNtBb_4iter6traits8iterator8Iterator4folduNCINvNtNtB1O_8adapters3map8map_foldRBQ_RNtCsfwj6t2KTYdc_11proc_macro25IdentuNCNvNtBS_10identifier21deserialize_generated0NCINvNvB1I_8for_each4callB36_NCINvMsi_NtCsdFlNUEO95cG_5alloc3vecINtB52_3VecB36_E14extend_trustedINtB2y_3MapBF_B3H_EE0E0E0EBU_, symObjAddr: 0x0, symBinAddr: 0x25500, symSize: 0x1B8 }
  - { offset: 0x5F080, size: 0x8, addend: 0x0, symName: __RINvXs2E_NtNtCs85QQFkKrybG_4core5slice4iterINtB7_4IterNtNtNtCs3tyqko2rdGU_12serde_derive9internals3ast5FieldENtNtNtNtBb_4iter6traits8iterator8Iterator3allNCNvNtNtBW_2de7struct_15deserialize_maps3_0EBW_, symObjAddr: 0x1B8, symBinAddr: 0x256B8, symSize: 0xAC }
  - { offset: 0x5F0E5, size: 0x8, addend: 0x0, symName: __RINvXs2E_NtNtCs85QQFkKrybG_4core5slice4iterINtB7_4IterNtNtNtCs3tyqko2rdGU_12serde_derive9internals3ast5FieldENtNtNtNtBb_4iter6traits8iterator8Iterator3anyNCNvNtBW_2de11has_flatten0EBW_, symObjAddr: 0x264, symBinAddr: 0x25764, symSize: 0xAC }
  - { offset: 0x5F14A, size: 0x8, addend: 0x0, symName: __RINvXs2E_NtNtCs85QQFkKrybG_4core5slice4iterINtB7_4IterNtNtNtCs3tyqko2rdGU_12serde_derive9internals3ast5FieldENtNtNtNtBb_4iter6traits8iterator8Iterator3anyNCNvNtBW_3ser16serialize_struct0EBW_, symObjAddr: 0x310, symBinAddr: 0x25810, symSize: 0xAC }
  - { offset: 0x5F1AF, size: 0x8, addend: 0x0, symName: __RINvXs2E_NtNtCs85QQFkKrybG_4core5slice4iterINtB7_4IterNtNtNtCs3tyqko2rdGU_12serde_derive9internals3ast5FieldENtNtNtNtBb_4iter6traits8iterator8Iterator3anyNCNvNtBW_3ser24serialize_struct_variant0EBW_, symObjAddr: 0x3BC, symBinAddr: 0x258BC, symSize: 0xAC }
  - { offset: 0x5F214, size: 0x8, addend: 0x0, symName: __RINvXs2E_NtNtCs85QQFkKrybG_4core5slice4iterINtB7_4IterNtNtNtCs3tyqko2rdGU_12serde_derive9internals3ast5FieldENtNtNtNtBb_4iter6traits8iterator8Iterator4findNCNvNtBW_2de23deserialize_transparent0EBW_, symObjAddr: 0x468, symBinAddr: 0x25968, symSize: 0xAC }
  - { offset: 0x5F279, size: 0x8, addend: 0x0, symName: __RINvXs2E_NtNtCs85QQFkKrybG_4core5slice4iterINtB7_4IterNtNtNtCs3tyqko2rdGU_12serde_derive9internals3ast5FieldENtNtNtNtBb_4iter6traits8iterator8Iterator4findNCNvNtBW_3ser21serialize_transparent0EBW_, symObjAddr: 0x514, symBinAddr: 0x25A14, symSize: 0xAC }
  - { offset: 0x5F2DE, size: 0x8, addend: 0x0, symName: __RINvXs2E_NtNtCs85QQFkKrybG_4core5slice4iterINtB7_4IterNtNtNtCs3tyqko2rdGU_12serde_derive9internals3ast5FieldENtNtNtNtBb_4iter6traits8iterator8Iterator4findQNCNvNtBW_3ser23serialize_struct_as_map0EBW_, symObjAddr: 0x5C0, symBinAddr: 0x25AC0, symSize: 0xB0 }
  - { offset: 0x5F343, size: 0x8, addend: 0x0, symName: __RINvXs2E_NtNtCs85QQFkKrybG_4core5slice4iterINtB7_4IterNtNtNtCs3tyqko2rdGU_12serde_derive9internals3ast5FieldENtNtNtNtBb_4iter6traits8iterator8Iterator4findQNCNvNtBW_3ser24serialize_struct_variants_0EBW_, symObjAddr: 0x670, symBinAddr: 0x25B70, symSize: 0xB0 }
  - { offset: 0x5F3A8, size: 0x8, addend: 0x0, symName: __RINvXs2E_NtNtCs85QQFkKrybG_4core5slice4iterINtB7_4IterNtNtNtCs3tyqko2rdGU_12serde_derive9internals3ast5FieldENtNtNtNtBb_4iter6traits8iterator8Iterator4findQNCNvNtBW_3ser24serialize_struct_visitor0EBW_, symObjAddr: 0x720, symBinAddr: 0x25C20, symSize: 0xB0 }
  - { offset: 0x5F40D, size: 0x8, addend: 0x0, symName: __RINvXs2E_NtNtCs85QQFkKrybG_4core5slice4iterINtB7_4IterNtNtNtCs3tyqko2rdGU_12serde_derive9internals3ast5FieldENtNtNtNtBb_4iter6traits8iterator8Iterator4findQNCNvNtBW_3ser26serialize_struct_as_struct0EBW_, symObjAddr: 0x7D0, symBinAddr: 0x25CD0, symSize: 0xB0 }
  - { offset: 0x5F472, size: 0x8, addend: 0x0, symName: __RINvXs2E_NtNtCs85QQFkKrybG_4core5slice4iterINtB7_4IterNtNtNtCs3tyqko2rdGU_12serde_derive9internals3ast5FieldENtNtNtNtBb_4iter6traits8iterator8Iterator4findQNCNvNtBW_3ser37serialize_struct_variant_with_flatten0EBW_, symObjAddr: 0x880, symBinAddr: 0x25D80, symSize: 0xB0 }
  - { offset: 0x5F4D7, size: 0x8, addend: 0x0, symName: __RINvXs2E_NtNtCs85QQFkKrybG_4core5slice4iterINtB7_4IterNtNtNtCs3tyqko2rdGU_12serde_derive9internals3ast5FieldENtNtNtNtBb_4iter6traits8iterator8Iterator4findQNCNvNtBW_5bound10with_bounds0_0EBW_, symObjAddr: 0x930, symBinAddr: 0x25E30, symSize: 0xB0 }
  - { offset: 0x5F53C, size: 0x8, addend: 0x0, symName: __RINvXs2E_NtNtCs85QQFkKrybG_4core5slice4iterINtB7_4IterNtNtNtCs3tyqko2rdGU_12serde_derive9internals3ast5FieldENtNtNtNtBb_4iter6traits8iterator8Iterator4findQNCNvNtBW_5bound10with_bounds_0EBW_, symObjAddr: 0x9E0, symBinAddr: 0x25EE0, symSize: 0xB0 }
  - { offset: 0x5F5A1, size: 0x8, addend: 0x0, symName: __RINvXs2E_NtNtCs85QQFkKrybG_4core5slice4iterINtB7_4IterNtNtNtCs3tyqko2rdGU_12serde_derive9internals3ast5FieldENtNtNtNtBb_4iter6traits8iterator8Iterator4foldNtCsfwj6t2KTYdc_11proc_macro211TokenStreamNCINvNtNtB1P_8adapters6filter11filter_foldRBQ_B2t_NCNvNtBW_3ser24serialize_struct_variants_0NCINvNtB3g_3map8map_foldB3P_B2t_B2t_NCB3Z_s0_0NCB3Z_s1_0E0E0EBW_, symObjAddr: 0xA90, symBinAddr: 0x25F90, symSize: 0x234 }
  - { offset: 0x5F6FC, size: 0x8, addend: 0x0, symName: __RINvXs2E_NtNtCs85QQFkKrybG_4core5slice4iterINtB7_4IterNtNtNtCs3tyqko2rdGU_12serde_derive9internals3ast5FieldENtNtNtNtBb_4iter6traits8iterator8Iterator4foldNtCsfwj6t2KTYdc_11proc_macro211TokenStreamNCINvNtNtB1P_8adapters6filter11filter_foldRBQ_B2t_NCNvNtBW_3ser26serialize_struct_as_struct0NCINvNtB3g_3map8map_foldB3P_B2t_B2t_NCB3Z_s_0NCB3Z_s0_0E0E0EBW_, symObjAddr: 0xCC4, symBinAddr: 0x261C4, symSize: 0x244 }
  - { offset: 0x5F857, size: 0x8, addend: 0x0, symName: __RINvXs2E_NtNtCs85QQFkKrybG_4core5slice4iterINtB7_4IterNtNtNtCs3tyqko2rdGU_12serde_derive9internals3ast5FieldENtNtNtNtBb_4iter6traits8iterator8Iterator4foldNtCsfwj6t2KTYdc_11proc_macro211TokenStreamNCINvNvXs_NtNtB1P_8adapters9enumerateINtB3j_9EnumeratepEB1J_4fold9enumerateRBQ_B2t_NCINvNtB3l_6filter11filter_foldTjB4m_EB2t_NCNvNtBW_3ser22serialize_tuple_struct0NCINvNtB3l_3map8map_foldB4Z_B2t_B2t_NCB5c_s_0NCB5c_s0_0E0E0E0EBW_, symObjAddr: 0xF08, symBinAddr: 0x26408, symSize: 0x23C }
  - { offset: 0x5F9B2, size: 0x8, addend: 0x0, symName: __RINvXs2E_NtNtCs85QQFkKrybG_4core5slice4iterINtB7_4IterNtNtNtCs3tyqko2rdGU_12serde_derive9internals3ast5FieldENtNtNtNtBb_4iter6traits8iterator8Iterator4foldNtCsfwj6t2KTYdc_11proc_macro211TokenStreamNCINvNvXs_NtNtB1P_8adapters9enumerateINtB3j_9EnumeratepEB1J_4fold9enumerateRBQ_B2t_NCINvNtB3l_6filter11filter_foldTjB4m_EB2t_NCNvNtBW_3ser23serialize_tuple_variant0NCINvNtB3l_3map8map_foldB4Z_B2t_B2t_NCB5c_s_0NCB5c_s0_0E0E0E0EBW_, symObjAddr: 0x1144, symBinAddr: 0x26644, symSize: 0x244 }
  - { offset: 0x5FB0D, size: 0x8, addend: 0x0, symName: __RINvXs2E_NtNtCs85QQFkKrybG_4core5slice4iterINtB7_4IterNtNtNtCs3tyqko2rdGU_12serde_derive9internals3ast5FieldENtNtNtNtBb_4iter6traits8iterator8Iterator4foldjNCINvNtNtB1P_8adapters3map8map_foldRBQ_jjNCINvNvXs1_NtB2B_6filterINtB3k_6FilterppEB1J_5count8to_usizeB33_NCNvNtBW_2de15deserialize_seq0E0NCINvXsK_NtB1N_5accumjNtB4Q_3Sum3sumINtB2z_3MapBF_B39_EE0E0EBW_, symObjAddr: 0x1388, symBinAddr: 0x26888, symSize: 0x1C4 }
  - { offset: 0x5FC66, size: 0x8, addend: 0x0, symName: __RINvXs2E_NtNtCs85QQFkKrybG_4core5slice4iterINtB7_4IterNtNtNtCs3tyqko2rdGU_12serde_derive9internals3ast5FieldENtNtNtNtBb_4iter6traits8iterator8Iterator4foldjNCINvNtNtB1P_8adapters3map8map_foldRBQ_jjNCINvNvXs1_NtB2B_6filterINtB3k_6FilterppEB1J_5count8to_usizeB33_NCNvNtNtBW_2de5tuple11deserialize0E0NCINvXsK_NtB1N_5accumjNtB4U_3Sum3sumINtB2z_3MapBF_B39_EE0E0EBW_, symObjAddr: 0x154C, symBinAddr: 0x26A4C, symSize: 0x1C4 }
  - { offset: 0x5FDBF, size: 0x8, addend: 0x0, symName: __RINvXs2E_NtNtCs85QQFkKrybG_4core5slice4iterINtB7_4IterNtNtNtCs3tyqko2rdGU_12serde_derive9internals3ast5FieldENtNtNtNtBb_4iter6traits8iterator8Iterator4folduNCINvNtNtB1P_8adapters3map8map_foldRBQ_NtCsfwj6t2KTYdc_11proc_macro211TokenStreamuNCNvNtBW_3ser27wrap_serialize_variant_withs_0NCINvNvB1J_8for_each4callB37_NCINvMsi_NtCsdFlNUEO95cG_5alloc3vecINtB59_3VecB37_E14extend_trustedINtB2z_3MapBF_B3O_EE0E0E0EBW_, symObjAddr: 0x1710, symBinAddr: 0x26C10, symSize: 0x1C0 }
  - { offset: 0x5FF14, size: 0x8, addend: 0x0, symName: __RINvXs2E_NtNtCs85QQFkKrybG_4core5slice4iterINtB7_4IterNtNtNtCs3tyqko2rdGU_12serde_derive9internals3ast5FieldENtNtNtNtBb_4iter6traits8iterator8Iterator4folduNCINvNtNtB1P_8adapters3map8map_foldRBQ_NtNtCscwCr4GBBztI_3syn4expr6MemberuNCNvNtBW_3ser35serialize_adjacently_tagged_variants0_0NCINvNvB1J_8for_each4callB37_NCINvMsi_NtCsdFlNUEO95cG_5alloc3vecINtB5a_3VecB37_E14extend_trustedINtB2z_3MapBF_B3G_EE0E0E0EBW_, symObjAddr: 0x18D0, symBinAddr: 0x26DD0, symSize: 0x1C0 }
  - { offset: 0x60069, size: 0x8, addend: 0x0, symName: __RINvXs2E_NtNtCs85QQFkKrybG_4core5slice4iterINtB7_4IterNtNtNtCs3tyqko2rdGU_12serde_derive9internals3ast5FieldENtNtNtNtBb_4iter6traits8iterator8Iterator4folduNCINvNtNtB1P_8adapters3map8map_foldRBQ_RNtNtCscwCr4GBBztI_3syn2ty4TypeuNCNvNtBW_3ser27wrap_serialize_variant_with0NCINvNvB1J_8for_each4callB37_NCINvMsi_NtCsdFlNUEO95cG_5alloc3vecINtB4W_3VecB37_E14extend_trustedINtB2z_3MapBF_B3D_EE0E0E0EBW_, symObjAddr: 0x1A90, symBinAddr: 0x26F90, symSize: 0x1C0 }
  - { offset: 0x601BE, size: 0x8, addend: 0x0, symName: __RINvXs2E_NtNtCs85QQFkKrybG_4core5slice4iterINtB7_4IterNtNtNtCs3tyqko2rdGU_12serde_derive9internals3ast5FieldENtNtNtNtBb_4iter6traits8iterator8Iterator4folduNCINvNtNtB1P_8adapters3map8map_foldRBQ_RNtNtCscwCr4GBBztI_3syn4expr6MemberuNCNvNtBW_3ser37serialize_struct_variant_with_flattens0_0NCINvNvB1J_8for_each4callB37_NCINvMsi_NtCsdFlNUEO95cG_5alloc3vecINtB5d_3VecB37_E14extend_trustedINtB2z_3MapBF_B3H_EE0E0E0EBW_, symObjAddr: 0x1C50, symBinAddr: 0x27150, symSize: 0x1C0 }
  - { offset: 0x60313, size: 0x8, addend: 0x0, symName: __RINvXs2E_NtNtCs85QQFkKrybG_4core5slice4iterINtB7_4IterNtNtNtCs3tyqko2rdGU_12serde_derive9internals3ast5FieldENtNtNtNtBb_4iter6traits8iterator8Iterator4folduNCINvNtNtB1P_8adapters3map8map_foldRBQ_RNtNtCscwCr4GBBztI_3syn4expr6MemberuNCNvNtBW_7pretend33pretend_fields_used_struct_packed0NCINvNvB1J_8for_each4callB37_NCINvMsi_NtCsdFlNUEO95cG_5alloc3vecINtB5a_3VecB37_E14extend_trustedINtB2z_3MapBF_B3H_EE0E0E0EBW_, symObjAddr: 0x1E10, symBinAddr: 0x27310, symSize: 0x1C0 }
  - { offset: 0x60468, size: 0x8, addend: 0x0, symName: __RINvXs2E_NtNtCs85QQFkKrybG_4core5slice4iterINtB7_4IterNtNtNtCs3tyqko2rdGU_12serde_derive9internals3ast5FieldENtNtNtNtBb_4iter6traits8iterator8Iterator4folduNCINvNvXs_NtNtB1P_8adapters9enumerateINtB2E_9EnumeratepEB1J_4fold9enumerateRBQ_uNCINvNtB2G_3map8map_foldTjB3H_ETB3H_NtCsfwj6t2KTYdc_11proc_macro25IdentEuNCNvNtNtBW_2de7struct_15deserialize_map0NCINvNvB1J_8for_each4callB4h_NCINvMsi_NtCsdFlNUEO95cG_5alloc3vecINtB6d_3VecB4h_E14extend_trustedINtB3R_3MapIB36_BF_EB4X_EE0E0E0E0EBW_, symObjAddr: 0x1FD0, symBinAddr: 0x274D0, symSize: 0x1C0 }
  - { offset: 0x605BD, size: 0x8, addend: 0x0, symName: __RINvXs2E_NtNtCs85QQFkKrybG_4core5slice4iterINtB7_4IterNtNtNtCs3tyqko2rdGU_12serde_derive9internals3ast7VariantENtNtNtNtBb_4iter6traits8iterator8Iterator3allNCNvNtNtBW_2de15enum_externally11deserializes0_0EBW_, symObjAddr: 0x2190, symBinAddr: 0x27690, symSize: 0xAC }
  - { offset: 0x60622, size: 0x8, addend: 0x0, symName: __RINvXs2E_NtNtCs85QQFkKrybG_4core5slice4iterINtB7_4IterNtNtNtCs3tyqko2rdGU_12serde_derive9internals3ast7VariantENtNtNtNtBb_4iter6traits8iterator8Iterator4findQNCNvNtNtBW_2de13enum_untagged11deserialize0EBW_, symObjAddr: 0x223C, symBinAddr: 0x2773C, symSize: 0xB0 }
  - { offset: 0x60687, size: 0x8, addend: 0x0, symName: __RINvXs2E_NtNtCs85QQFkKrybG_4core5slice4iterINtB7_4IterNtNtNtCs3tyqko2rdGU_12serde_derive9internals3ast7VariantENtNtNtNtBb_4iter6traits8iterator8Iterator4folduNCINvNtNtB1R_8adapters3map8map_foldRBQ_NtNtBW_2de16FieldWithAliasesuNCNvNtB3b_10identifier18deserialize_customs_0NCINvNvB1L_8for_each4callB39_NCINvMsi_NtCsdFlNUEO95cG_5alloc3vecINtB4X_3VecB39_E14extend_trustedINtB2B_3MapBF_B3C_EE0E0E0EBW_, symObjAddr: 0x22EC, symBinAddr: 0x277EC, symSize: 0x1C0 }
  - { offset: 0x607DC, size: 0x8, addend: 0x0, symName: __RINvXs2E_NtNtCs85QQFkKrybG_4core5slice4iterINtB7_4IterNtNtNtCs3tyqko2rdGU_12serde_derive9internals3ast7VariantENtNtNtNtBb_4iter6traits8iterator8Iterator4folduNCINvNvXs_NtNtB1R_8adapters9enumerateINtB2G_9EnumeratepEB1L_4fold9enumerateRBQ_uNCINvNtB2I_3map8map_foldTjB3J_ENtCsfwj6t2KTYdc_11proc_macro211TokenStreamuNCNvNtBW_3ser14serialize_enum0NCINvNvB1L_8for_each4callB4j_NCINvMsi_NtCsdFlNUEO95cG_5alloc3vecINtB66_3VecB4j_E14extend_trustedINtB3T_3MapIB38_BF_EB50_EE0E0E0E0EBW_, symObjAddr: 0x24AC, symBinAddr: 0x279AC, symSize: 0x1C0 }
  - { offset: 0x60931, size: 0x8, addend: 0x0, symName: __RINvXs2E_NtNtCs85QQFkKrybG_4core5slice4iterINtB7_4IterNtNtNtCs3tyqko2rdGU_12serde_derive9internals3ast7VariantENtNtNtNtBb_4iter6traits8iterator8Iterator8find_mapNtCsfwj6t2KTYdc_11proc_macro211TokenStreamQNCNvNtBW_7pretend24pretend_fields_used_enum0EBW_, symObjAddr: 0x266C, symBinAddr: 0x27B6C, symSize: 0xDC }
  - { offset: 0x609B5, size: 0x8, addend: 0x0, symName: __RINvXs2E_NtNtCs85QQFkKrybG_4core5slice4iterINtB7_4IterNtNtNtCs3tyqko2rdGU_12serde_derive9internals3ast7VariantENtNtNtNtBb_4iter6traits8iterator8Iterator8find_mapRSNtNtCscwCr4GBBztI_3syn8generics14WherePredicateQNCNvNtBW_5bound35with_where_predicates_from_variants0EBW_, symObjAddr: 0x2748, symBinAddr: 0x27C48, symSize: 0xE4 }
  - { offset: 0x60A39, size: 0x8, addend: 0x0, symName: __RINvXs2E_NtNtCs85QQFkKrybG_4core5slice4iterINtB7_4IterNtNtNtCs3tyqko2rdGU_12serde_derive9internals3ast7VariantENtNtNtNtBb_4iter6traits8iterator8Iterator8positionNCNvNtNtBW_2de5enum_11deserialize0EBW_, symObjAddr: 0x282C, symBinAddr: 0x27D2C, symSize: 0x184 }
  - { offset: 0x60AF7, size: 0x8, addend: 0x0, symName: __RINvXs2E_NtNtCs85QQFkKrybG_4core5slice4iterINtB7_4IterNtNtNtCs3tyqko2rdGU_12serde_derive9internals3ast7VariantENtNtNtNtBb_4iter6traits8iterator8Iterator9rpositionNCNvBS_13enum_from_asts_0EBW_, symObjAddr: 0x29B0, symBinAddr: 0x27EB0, symSize: 0x160 }
  - { offset: 0x60BBC, size: 0x8, addend: 0x0, symName: __RINvXs2E_NtNtCs85QQFkKrybG_4core5slice4iterINtB7_4IterTRNtNtNtCs3tyqko2rdGU_12serde_derive9internals3ast5FieldNtCsfwj6t2KTYdc_11proc_macro25IdentEENtNtNtNtBb_4iter6traits8iterator8Iterator4findQNCNvNtNtBY_2de7struct_15deserialize_maps1_0EBY_, symObjAddr: 0x2B10, symBinAddr: 0x28010, symSize: 0xB0 }
  - { offset: 0x60C21, size: 0x8, addend: 0x0, symName: __RINvXs2E_NtNtCs85QQFkKrybG_4core5slice4iterINtB7_4IterTRNtNtNtCs3tyqko2rdGU_12serde_derive9internals3ast5FieldNtCsfwj6t2KTYdc_11proc_macro25IdentEENtNtNtNtBb_4iter6traits8iterator8Iterator4findQNCNvNtNtBY_2de7struct_15deserialize_maps4_0EBY_, symObjAddr: 0x2BC0, symBinAddr: 0x280C0, symSize: 0xB0 }
  - { offset: 0x60C86, size: 0x8, addend: 0x0, symName: __RINvXs2E_NtNtCs85QQFkKrybG_4core5slice4iterINtB7_4IterTRNtNtNtCs3tyqko2rdGU_12serde_derive9internals3ast5FieldNtCsfwj6t2KTYdc_11proc_macro25IdentEENtNtNtNtBb_4iter6traits8iterator8Iterator4findQNCNvNtNtBY_2de7struct_15deserialize_maps6_0EBY_, symObjAddr: 0x2C70, symBinAddr: 0x28170, symSize: 0xB0 }
  - { offset: 0x60CEB, size: 0x8, addend: 0x0, symName: __RINvXs2E_NtNtCs85QQFkKrybG_4core5slice4iterINtB7_4IterTRNtNtNtCs3tyqko2rdGU_12serde_derive9internals3ast5FieldNtCsfwj6t2KTYdc_11proc_macro25IdentEENtNtNtNtBb_4iter6traits8iterator8Iterator4findQNCNvNtNtBY_2de7struct_15deserialize_maps_0EBY_, symObjAddr: 0x2D20, symBinAddr: 0x28220, symSize: 0xB0 }
  - { offset: 0x60D50, size: 0x8, addend: 0x0, symName: __RINvXs2E_NtNtCs85QQFkKrybG_4core5slice4iterINtB7_4IterhENtNtNtNtBb_4iter6traits8iterator8Iterator4folduNCINvNtNtBY_8adapters3map8map_foldRhhuNCNvNtCsdFlNUEO95cG_5alloc3str13replace_ascii0NCINvNvBS_8for_each4callhNCINvMsi_NtB2l_3vecINtB3x_3VechE14extend_trustedINtB1I_3MapBF_B2f_EE0E0E0ECs3tyqko2rdGU_12serde_derive, symObjAddr: 0x2DD0, symBinAddr: 0x282D0, symSize: 0x1B8 }
  - { offset: 0x60EA5, size: 0x8, addend: 0x0, symName: __RNvXs2E_NtNtCs85QQFkKrybG_4core5slice4iterINtB6_4IterNtCsfwj6t2KTYdc_11proc_macro211TokenStreamENtNtNtNtBa_4iter6traits8iterator8Iterator4nextCs3tyqko2rdGU_12serde_derive, symObjAddr: 0x4D3C, symBinAddr: 0x2A23C, symSize: 0xA8 }
  - { offset: 0x60FDF, size: 0x8, addend: 0x0, symName: __RNvXs2E_NtNtCs85QQFkKrybG_4core5slice4iterINtB6_4IterNtCsfwj6t2KTYdc_11proc_macro25IdentENtNtNtNtBa_4iter6traits8iterator8Iterator4nextCs3tyqko2rdGU_12serde_derive, symObjAddr: 0x4DE4, symBinAddr: 0x2A2E4, symSize: 0xA8 }
  - { offset: 0x61119, size: 0x8, addend: 0x0, symName: __RNvXs2E_NtNtCs85QQFkKrybG_4core5slice4iterINtB6_4IterNtNtCs3tyqko2rdGU_12serde_derive2de16FieldWithAliasesENtNtNtNtBa_4iter6traits8iterator8Iterator4nextBT_, symObjAddr: 0x4E8C, symBinAddr: 0x2A38C, symSize: 0xA8 }
  - { offset: 0x61253, size: 0x8, addend: 0x0, symName: __RNvXs2E_NtNtCs85QQFkKrybG_4core5slice4iterINtB6_4IterNtNtCs3tyqko2rdGU_12serde_derive2de16FieldWithAliasesENtNtNtNtBa_4iter6traits8iterator8Iterator9size_hintBT_, symObjAddr: 0x4F34, symBinAddr: 0x2A434, symSize: 0x60 }
  - { offset: 0x612C2, size: 0x8, addend: 0x0, symName: __RNvXs2E_NtNtCs85QQFkKrybG_4core5slice4iterINtB6_4IterNtNtCscwCr4GBBztI_3syn4expr6MemberENtNtNtNtBa_4iter6traits8iterator8Iterator4nextCs3tyqko2rdGU_12serde_derive, symObjAddr: 0x4F94, symBinAddr: 0x2A494, symSize: 0xA8 }
  - { offset: 0x613FC, size: 0x8, addend: 0x0, symName: __RNvXs2E_NtNtCs85QQFkKrybG_4core5slice4iterINtB6_4IterNtNtCscwCr4GBBztI_3syn8generics14WherePredicateENtNtNtNtBa_4iter6traits8iterator8Iterator4nextCs3tyqko2rdGU_12serde_derive, symObjAddr: 0x503C, symBinAddr: 0x2A53C, symSize: 0xA8 }
  - { offset: 0x61536, size: 0x8, addend: 0x0, symName: __RNvXs2E_NtNtCs85QQFkKrybG_4core5slice4iterINtB6_4IterNtNtCscwCr4GBBztI_3syn8lifetime8LifetimeENtNtNtNtBa_4iter6traits8iterator8Iterator4nextCs3tyqko2rdGU_12serde_derive, symObjAddr: 0x50E4, symBinAddr: 0x2A5E4, symSize: 0xA8 }
  - { offset: 0x61670, size: 0x8, addend: 0x0, symName: __RNvXs2E_NtNtCs85QQFkKrybG_4core5slice4iterINtB6_4IterNtNtNtCs3tyqko2rdGU_12serde_derive9internals3ast5FieldENtNtNtNtBa_4iter6traits8iterator8Iterator10advance_byBV_, symObjAddr: 0x518C, symBinAddr: 0x2A68C, symSize: 0xB8 }
  - { offset: 0x617AD, size: 0x8, addend: 0x0, symName: __RNvXs2E_NtNtCs85QQFkKrybG_4core5slice4iterINtB6_4IterNtNtNtCs3tyqko2rdGU_12serde_derive9internals3ast5FieldENtNtNtNtBa_4iter6traits8iterator8Iterator24___iterator_get_uncheckedBV_, symObjAddr: 0x5244, symBinAddr: 0x2A744, symSize: 0x28 }
  - { offset: 0x61808, size: 0x8, addend: 0x0, symName: __RNvXs2E_NtNtCs85QQFkKrybG_4core5slice4iterINtB6_4IterNtNtNtCs3tyqko2rdGU_12serde_derive9internals3ast5FieldENtNtNtNtBa_4iter6traits8iterator8Iterator3nthBV_, symObjAddr: 0x526C, symBinAddr: 0x2A76C, symSize: 0x128 }
  - { offset: 0x619F8, size: 0x8, addend: 0x0, symName: __RNvXs2E_NtNtCs85QQFkKrybG_4core5slice4iterINtB6_4IterNtNtNtCs3tyqko2rdGU_12serde_derive9internals3ast5FieldENtNtNtNtBa_4iter6traits8iterator8Iterator4nextBV_, symObjAddr: 0x5394, symBinAddr: 0x2A894, symSize: 0xA8 }
  - { offset: 0x61B32, size: 0x8, addend: 0x0, symName: __RNvXs2E_NtNtCs85QQFkKrybG_4core5slice4iterINtB6_4IterNtNtNtCs3tyqko2rdGU_12serde_derive9internals3ast5FieldENtNtNtNtBa_4iter6traits8iterator8Iterator9size_hintBV_, symObjAddr: 0x543C, symBinAddr: 0x2A93C, symSize: 0x60 }
  - { offset: 0x61BA1, size: 0x8, addend: 0x0, symName: __RNvXs2E_NtNtCs85QQFkKrybG_4core5slice4iterINtB6_4IterNtNtNtCs3tyqko2rdGU_12serde_derive9internals3ast7VariantENtNtNtNtBa_4iter6traits8iterator8Iterator4nextBV_, symObjAddr: 0x549C, symBinAddr: 0x2A99C, symSize: 0xA8 }
  - { offset: 0x61CDB, size: 0x8, addend: 0x0, symName: __RNvXs2E_NtNtCs85QQFkKrybG_4core5slice4iterINtB6_4IterNtNtNtCs3tyqko2rdGU_12serde_derive9internals3ast7VariantENtNtNtNtBa_4iter6traits8iterator8Iterator9size_hintBV_, symObjAddr: 0x5544, symBinAddr: 0x2AA44, symSize: 0x60 }
  - { offset: 0x61D4A, size: 0x8, addend: 0x0, symName: __RNvXs2E_NtNtCs85QQFkKrybG_4core5slice4iterINtB6_4IterNtNtNtCs3tyqko2rdGU_12serde_derive9internals4name4NameENtNtNtNtBa_4iter6traits8iterator8Iterator4nextBV_, symObjAddr: 0x55A4, symBinAddr: 0x2AAA4, symSize: 0xA8 }
  - { offset: 0x61E84, size: 0x8, addend: 0x0, symName: __RNvXs2E_NtNtCs85QQFkKrybG_4core5slice4iterINtB6_4IterRNtCsfwj6t2KTYdc_11proc_macro25IdentENtNtNtNtBa_4iter6traits8iterator8Iterator4nextCs3tyqko2rdGU_12serde_derive, symObjAddr: 0x564C, symBinAddr: 0x2AB4C, symSize: 0xA8 }
  - { offset: 0x61FBE, size: 0x8, addend: 0x0, symName: __RNvXs2E_NtNtCs85QQFkKrybG_4core5slice4iterINtB6_4IterRNtNtCscwCr4GBBztI_3syn2ty4TypeENtNtNtNtBa_4iter6traits8iterator8Iterator4nextCs3tyqko2rdGU_12serde_derive, symObjAddr: 0x56F4, symBinAddr: 0x2ABF4, symSize: 0xA8 }
  - { offset: 0x620F8, size: 0x8, addend: 0x0, symName: __RNvXs2E_NtNtCs85QQFkKrybG_4core5slice4iterINtB6_4IterRNtNtCscwCr4GBBztI_3syn4expr6MemberENtNtNtNtBa_4iter6traits8iterator8Iterator4nextCs3tyqko2rdGU_12serde_derive, symObjAddr: 0x579C, symBinAddr: 0x2AC9C, symSize: 0xA8 }
  - { offset: 0x62232, size: 0x8, addend: 0x0, symName: __RNvXs2E_NtNtCs85QQFkKrybG_4core5slice4iterINtB6_4IterTRNtNtNtCs3tyqko2rdGU_12serde_derive9internals3ast5FieldNtCsfwj6t2KTYdc_11proc_macro25IdentEENtNtNtNtBa_4iter6traits8iterator8Iterator4nextBX_, symObjAddr: 0x5844, symBinAddr: 0x2AD44, symSize: 0xA8 }
  - { offset: 0x6236C, size: 0x8, addend: 0x0, symName: __RNvXs2E_NtNtCs85QQFkKrybG_4core5slice4iterINtB6_4IterTReNtNtNtCs3tyqko2rdGU_12serde_derive9internals4case10RenameRuleEENtNtNtNtBa_4iter6traits8iterator8Iterator4nextBY_, symObjAddr: 0x58EC, symBinAddr: 0x2ADEC, symSize: 0xA8 }
  - { offset: 0x624A6, size: 0x8, addend: 0x0, symName: __RNvXs2E_NtNtCs85QQFkKrybG_4core5slice4iterINtB6_4IterhENtNtNtNtBa_4iter6traits8iterator8Iterator9size_hintCs3tyqko2rdGU_12serde_derive, symObjAddr: 0x5994, symBinAddr: 0x2AE94, symSize: 0x60 }
  - { offset: 0x62DAF, size: 0x8, addend: 0x0, symName: __RNvXs2F_NtNtCs85QQFkKrybG_4core5slice4iterINtB6_4IterNtNtNtCs3tyqko2rdGU_12serde_derive9internals3ast7VariantENtNtNtNtBa_4iter6traits12double_ended19DoubleEndedIterator9next_backBV_, symObjAddr: 0x59F4, symBinAddr: 0x2AEF4, symSize: 0x108 }
  - { offset: 0x62F0F, size: 0x8, addend: 0x0, symName: __RNvXs2F_NtNtCs85QQFkKrybG_4core5slice4iterINtB6_4IterTNtNtCscwCr4GBBztI_3syn2ty4TypeNtNtBU_5token5CommaEENtNtNtNtBa_4iter6traits12double_ended19DoubleEndedIterator9next_backCs3tyqko2rdGU_12serde_derive, symObjAddr: 0x5AFC, symBinAddr: 0x2AFFC, symSize: 0x108 }
  - { offset: 0x6306F, size: 0x8, addend: 0x0, symName: __RNvXs2F_NtNtCs85QQFkKrybG_4core5slice4iterINtB6_4IterTNtNtCscwCr4GBBztI_3syn2ty9BareFnArgNtNtBU_5token5CommaEENtNtNtNtBa_4iter6traits12double_ended19DoubleEndedIterator9next_backCs3tyqko2rdGU_12serde_derive, symObjAddr: 0x5C04, symBinAddr: 0x2B104, symSize: 0x108 }
  - { offset: 0x631CF, size: 0x8, addend: 0x0, symName: __RNvXs2F_NtNtCs85QQFkKrybG_4core5slice4iterINtB6_4IterTNtNtCscwCr4GBBztI_3syn4data7VariantNtNtBU_5token5CommaEENtNtNtNtBa_4iter6traits12double_ended19DoubleEndedIterator9next_backCs3tyqko2rdGU_12serde_derive, symObjAddr: 0x5D0C, symBinAddr: 0x2B20C, symSize: 0x108 }
  - { offset: 0x6332F, size: 0x8, addend: 0x0, symName: __RNvXs2F_NtNtCs85QQFkKrybG_4core5slice4iterINtB6_4IterTNtNtCscwCr4GBBztI_3syn4path15GenericArgumentNtNtBU_5token5CommaEENtNtNtNtBa_4iter6traits12double_ended19DoubleEndedIterator9next_backCs3tyqko2rdGU_12serde_derive, symObjAddr: 0x5E14, symBinAddr: 0x2B314, symSize: 0x108 }
  - { offset: 0x63671, size: 0x8, addend: 0x0, symName: __RNvXs2M_NtNtCs85QQFkKrybG_4core5slice4iterINtB6_7IterMutNtNtNtCs3tyqko2rdGU_12serde_derive9internals3ast5FieldENtNtNtNtBa_4iter6traits8iterator8Iterator4nextBY_, symObjAddr: 0x5F1C, symBinAddr: 0x2B41C, symSize: 0xA8 }
  - { offset: 0x63796, size: 0x8, addend: 0x0, symName: __RNvXs2M_NtNtCs85QQFkKrybG_4core5slice4iterINtB6_7IterMutNtNtNtCs3tyqko2rdGU_12serde_derive9internals3ast7VariantENtNtNtNtBa_4iter6traits8iterator8Iterator4nextBY_, symObjAddr: 0x5FC4, symBinAddr: 0x2B4C4, symSize: 0xA8 }
  - { offset: 0x638BB, size: 0x8, addend: 0x0, symName: __RNvXs2M_NtNtCs85QQFkKrybG_4core5slice4iterINtB6_7IterMutTNtNtCscwCr4GBBztI_3syn2ty4TypeNtNtBX_5token5CommaEENtNtNtNtBa_4iter6traits8iterator8Iterator4nextCs3tyqko2rdGU_12serde_derive, symObjAddr: 0x606C, symBinAddr: 0x2B56C, symSize: 0xA8 }
  - { offset: 0x639E0, size: 0x8, addend: 0x0, symName: __RNvXs2M_NtNtCs85QQFkKrybG_4core5slice4iterINtB6_7IterMutTNtNtCscwCr4GBBztI_3syn2ty9BareFnArgNtNtBX_5token5CommaEENtNtNtNtBa_4iter6traits8iterator8Iterator4nextCs3tyqko2rdGU_12serde_derive, symObjAddr: 0x6114, symBinAddr: 0x2B614, symSize: 0xA8 }
  - { offset: 0x63B05, size: 0x8, addend: 0x0, symName: __RNvXs2M_NtNtCs85QQFkKrybG_4core5slice4iterINtB6_7IterMutTNtNtCscwCr4GBBztI_3syn4data7VariantNtNtBX_5token5CommaEENtNtNtNtBa_4iter6traits8iterator8Iterator4nextCs3tyqko2rdGU_12serde_derive, symObjAddr: 0x61BC, symBinAddr: 0x2B6BC, symSize: 0xA8 }
  - { offset: 0x63C2A, size: 0x8, addend: 0x0, symName: __RNvXs2M_NtNtCs85QQFkKrybG_4core5slice4iterINtB6_7IterMutTNtNtCscwCr4GBBztI_3syn4expr4ExprNtNtBX_5token5CommaEENtNtNtNtBa_4iter6traits8iterator8Iterator4nextCs3tyqko2rdGU_12serde_derive, symObjAddr: 0x6264, symBinAddr: 0x2B764, symSize: 0xA8 }
  - { offset: 0x63D4F, size: 0x8, addend: 0x0, symName: __RNvXs2M_NtNtCs85QQFkKrybG_4core5slice4iterINtB6_7IterMutTNtNtCscwCr4GBBztI_3syn4path15GenericArgumentNtNtBX_5token5CommaEENtNtNtNtBa_4iter6traits8iterator8Iterator4nextCs3tyqko2rdGU_12serde_derive, symObjAddr: 0x630C, symBinAddr: 0x2B80C, symSize: 0xA8 }
  - { offset: 0x63E74, size: 0x8, addend: 0x0, symName: __RNvXs2M_NtNtCs85QQFkKrybG_4core5slice4iterINtB6_7IterMutTNtNtCscwCr4GBBztI_3syn8generics14TypeParamBoundNtNtBX_5token4PlusEENtNtNtNtBa_4iter6traits8iterator8Iterator4nextCs3tyqko2rdGU_12serde_derive, symObjAddr: 0x63B4, symBinAddr: 0x2B8B4, symSize: 0xA8 }
  - { offset: 0x63F99, size: 0x8, addend: 0x0, symName: __RNvXs2M_NtNtCs85QQFkKrybG_4core5slice4iterINtB6_7IterMutTNtNtCscwCr4GBBztI_3syn8generics14WherePredicateNtNtBX_5token5CommaEENtNtNtNtBa_4iter6traits8iterator8Iterator4nextCs3tyqko2rdGU_12serde_derive, symObjAddr: 0x645C, symBinAddr: 0x2B95C, symSize: 0xA8 }
  - { offset: 0x640C4, size: 0x8, addend: 0x0, symName: __RNvXs2N_NtNtCs85QQFkKrybG_4core5slice4iterINtB6_7IterMutTNtNtCscwCr4GBBztI_3syn2ty4TypeNtNtBX_5token5CommaEENtNtNtNtBa_4iter6traits12double_ended19DoubleEndedIterator9next_backCs3tyqko2rdGU_12serde_derive, symObjAddr: 0x6504, symBinAddr: 0x2BA04, symSize: 0x108 }
  - { offset: 0x64224, size: 0x8, addend: 0x0, symName: __RNvXs2N_NtNtCs85QQFkKrybG_4core5slice4iterINtB6_7IterMutTNtNtCscwCr4GBBztI_3syn2ty9BareFnArgNtNtBX_5token5CommaEENtNtNtNtBa_4iter6traits12double_ended19DoubleEndedIterator9next_backCs3tyqko2rdGU_12serde_derive, symObjAddr: 0x660C, symBinAddr: 0x2BB0C, symSize: 0x108 }
  - { offset: 0x64384, size: 0x8, addend: 0x0, symName: __RNvXs2N_NtNtCs85QQFkKrybG_4core5slice4iterINtB6_7IterMutTNtNtCscwCr4GBBztI_3syn4data7VariantNtNtBX_5token5CommaEENtNtNtNtBa_4iter6traits12double_ended19DoubleEndedIterator9next_backCs3tyqko2rdGU_12serde_derive, symObjAddr: 0x6714, symBinAddr: 0x2BC14, symSize: 0x108 }
  - { offset: 0x644E4, size: 0x8, addend: 0x0, symName: __RNvXs2N_NtNtCs85QQFkKrybG_4core5slice4iterINtB6_7IterMutTNtNtCscwCr4GBBztI_3syn4expr4ExprNtNtBX_5token5CommaEENtNtNtNtBa_4iter6traits12double_ended19DoubleEndedIterator9next_backCs3tyqko2rdGU_12serde_derive, symObjAddr: 0x681C, symBinAddr: 0x2BD1C, symSize: 0x108 }
  - { offset: 0x64644, size: 0x8, addend: 0x0, symName: __RNvXs2N_NtNtCs85QQFkKrybG_4core5slice4iterINtB6_7IterMutTNtNtCscwCr4GBBztI_3syn4path15GenericArgumentNtNtBX_5token5CommaEENtNtNtNtBa_4iter6traits12double_ended19DoubleEndedIterator9next_backCs3tyqko2rdGU_12serde_derive, symObjAddr: 0x6924, symBinAddr: 0x2BE24, symSize: 0x108 }
  - { offset: 0x647A4, size: 0x8, addend: 0x0, symName: __RNvXs2N_NtNtCs85QQFkKrybG_4core5slice4iterINtB6_7IterMutTNtNtCscwCr4GBBztI_3syn8generics14TypeParamBoundNtNtBX_5token4PlusEENtNtNtNtBa_4iter6traits12double_ended19DoubleEndedIterator9next_backCs3tyqko2rdGU_12serde_derive, symObjAddr: 0x6A2C, symBinAddr: 0x2BF2C, symSize: 0x108 }
  - { offset: 0x64904, size: 0x8, addend: 0x0, symName: __RNvXs2N_NtNtCs85QQFkKrybG_4core5slice4iterINtB6_7IterMutTNtNtCscwCr4GBBztI_3syn8generics14WherePredicateNtNtBX_5token5CommaEENtNtNtNtBa_4iter6traits12double_ended19DoubleEndedIterator9next_backCs3tyqko2rdGU_12serde_derive, symObjAddr: 0x6B34, symBinAddr: 0x2C034, symSize: 0x108 }
  - { offset: 0x64A6A, size: 0x8, addend: 0x0, symName: __RNvXs5_NtNtCs85QQFkKrybG_4core5slice4iterINtB5_4IterNtNtCs3tyqko2rdGU_12serde_derive2de16FieldWithAliasesENtNtB9_5clone5Clone5cloneBS_, symObjAddr: 0x6C3C, symBinAddr: 0x2C13C, symSize: 0x20 }
  - { offset: 0x64A9F, size: 0x8, addend: 0x0, symName: __RNvXs5_NtNtCs85QQFkKrybG_4core5slice4iterINtB5_4IterNtNtNtCs3tyqko2rdGU_12serde_derive9internals3ast7VariantENtNtB9_5clone5Clone5cloneBU_, symObjAddr: 0x6C5C, symBinAddr: 0x2C15C, symSize: 0x20 }
  - { offset: 0x64AD4, size: 0x8, addend: 0x0, symName: __RNvXs5_NtNtCs85QQFkKrybG_4core5slice4iterINtB5_4IterTNtNtCscwCr4GBBztI_3syn2ty4TypeNtNtBT_5token5CommaEENtNtB9_5clone5Clone5cloneCs3tyqko2rdGU_12serde_derive, symObjAddr: 0x6C7C, symBinAddr: 0x2C17C, symSize: 0x20 }
  - { offset: 0x64B09, size: 0x8, addend: 0x0, symName: __RNvXs5_NtNtCs85QQFkKrybG_4core5slice4iterINtB5_4IterTNtNtCscwCr4GBBztI_3syn2ty9BareFnArgNtNtBT_5token5CommaEENtNtB9_5clone5Clone5cloneCs3tyqko2rdGU_12serde_derive, symObjAddr: 0x6C9C, symBinAddr: 0x2C19C, symSize: 0x20 }
  - { offset: 0x64B3E, size: 0x8, addend: 0x0, symName: __RNvXs5_NtNtCs85QQFkKrybG_4core5slice4iterINtB5_4IterTNtNtCscwCr4GBBztI_3syn4data7VariantNtNtBT_5token5CommaEENtNtB9_5clone5Clone5cloneCs3tyqko2rdGU_12serde_derive, symObjAddr: 0x6CBC, symBinAddr: 0x2C1BC, symSize: 0x20 }
  - { offset: 0x64B73, size: 0x8, addend: 0x0, symName: __RNvXs5_NtNtCs85QQFkKrybG_4core5slice4iterINtB5_4IterTNtNtCscwCr4GBBztI_3syn4path15GenericArgumentNtNtBT_5token5CommaEENtNtB9_5clone5Clone5cloneCs3tyqko2rdGU_12serde_derive, symObjAddr: 0x6CDC, symBinAddr: 0x2C1DC, symSize: 0x20 }
  - { offset: 0x657B4, size: 0x8, addend: 0x0, symName: __RNvXsn_NtNtNtCs85QQFkKrybG_4core4iter8adapters7flattenINtNtNtBb_5slice4iter4IterNtNtNtCs3tyqko2rdGU_12serde_derive9internals3ast5FieldENtB5_21ConstSizeIntoIterator4sizeB1m_, symObjAddr: 0x6CFC, symBinAddr: 0x2C1FC, symSize: 0x18 }
  - { offset: 0x66044, size: 0x8, addend: 0x0, symName: __RNvYINtNtNtCs85QQFkKrybG_4core5slice4iter4IterNtNtNtCs3tyqko2rdGU_12serde_derive9internals3ast5FieldENtNtNtNtB9_4iter8adapters3zip27TrustedRandomAccessNoCoerce4sizeBO_, symObjAddr: 0x6D64, symBinAddr: 0x2C264, symSize: 0x2C }
  - { offset: 0x660B1, size: 0x8, addend: 0x0, symName: __RINvYINtNtNtCs85QQFkKrybG_4core5slice4iter4IterNtNtCs3tyqko2rdGU_12serde_derive2de16FieldWithAliasesENtNtNtNtBa_4iter6traits8iterator8Iterator3mapNtCsfwj6t2KTYdc_11proc_macro211TokenStreamNCNvNtBL_10identifier22deserialize_identifier0EBN_, symObjAddr: 0x2F88, symBinAddr: 0x28488, symSize: 0x30 }
  - { offset: 0x6611E, size: 0x8, addend: 0x0, symName: __RINvYINtNtNtCs85QQFkKrybG_4core5slice4iter4IterNtNtCs3tyqko2rdGU_12serde_derive2de16FieldWithAliasesENtNtNtNtBa_4iter6traits8iterator8Iterator3mapNtCsfwj6t2KTYdc_11proc_macro211TokenStreamNCNvNtBL_10identifier22deserialize_identifiers_0EBN_, symObjAddr: 0x2FB8, symBinAddr: 0x284B8, symSize: 0x30 }
  - { offset: 0x6618B, size: 0x8, addend: 0x0, symName: __RINvYINtNtNtCs85QQFkKrybG_4core5slice4iter4IterNtNtCs3tyqko2rdGU_12serde_derive2de16FieldWithAliasesENtNtNtNtBa_4iter6traits8iterator8Iterator3mapRINtNtNtNtCsdFlNUEO95cG_5alloc11collections5btree3set8BTreeSetNtNtNtBN_9internals4name4NameENCNvNtBL_10identifier18deserialize_customs0_0EBN_, symObjAddr: 0x2FE8, symBinAddr: 0x284E8, symSize: 0x1C }
  - { offset: 0x661E3, size: 0x8, addend: 0x0, symName: __RINvYINtNtNtCs85QQFkKrybG_4core5slice4iter4IterNtNtCs3tyqko2rdGU_12serde_derive2de16FieldWithAliasesENtNtNtNtBa_4iter6traits8iterator8Iterator3mapRINtNtNtNtCsdFlNUEO95cG_5alloc11collections5btree3set8BTreeSetNtNtNtBN_9internals4name4NameENCNvNtBL_7struct_11deserializes0_0EBN_, symObjAddr: 0x3004, symBinAddr: 0x28504, symSize: 0x1C }
  - { offset: 0x6623B, size: 0x8, addend: 0x0, symName: __RINvYINtNtNtCs85QQFkKrybG_4core5slice4iter4IterNtNtCs3tyqko2rdGU_12serde_derive2de16FieldWithAliasesENtNtNtNtBa_4iter6traits8iterator8Iterator3mapRNtCsfwj6t2KTYdc_11proc_macro25IdentNCNvNtBL_10identifier21deserialize_generated0EBN_, symObjAddr: 0x3020, symBinAddr: 0x28520, symSize: 0x1C }
  - { offset: 0x66293, size: 0x8, addend: 0x0, symName: __RINvYINtNtNtCs85QQFkKrybG_4core5slice4iter4IterNtNtCs3tyqko2rdGU_12serde_derive2de16FieldWithAliasesENtNtNtNtBa_4iter6traits8iterator8Iterator8flat_mapRINtNtNtNtCsdFlNUEO95cG_5alloc11collections5btree3set8BTreeSetNtNtNtBN_9internals4name4NameENCNvNtBL_10identifier18deserialize_customs0_0EBN_, symObjAddr: 0x303C, symBinAddr: 0x2853C, symSize: 0xA8 }
  - { offset: 0x6632E, size: 0x8, addend: 0x0, symName: __RINvYINtNtNtCs85QQFkKrybG_4core5slice4iter4IterNtNtCs3tyqko2rdGU_12serde_derive2de16FieldWithAliasesENtNtNtNtBa_4iter6traits8iterator8Iterator8flat_mapRINtNtNtNtCsdFlNUEO95cG_5alloc11collections5btree3set8BTreeSetNtNtNtBN_9internals4name4NameENCNvNtBL_7struct_11deserializes0_0EBN_, symObjAddr: 0x30E4, symBinAddr: 0x285E4, symSize: 0xA8 }
  - { offset: 0x663C9, size: 0x8, addend: 0x0, symName: __RINvYINtNtNtCs85QQFkKrybG_4core5slice4iter4IterNtNtCscwCr4GBBztI_3syn8generics14WherePredicateENtNtNtNtBa_4iter6traits8iterator8Iterator6clonedBJ_ECs3tyqko2rdGU_12serde_derive, symObjAddr: 0x318C, symBinAddr: 0x2868C, symSize: 0x1C }
  - { offset: 0x66409, size: 0x8, addend: 0x0, symName: __RINvYINtNtNtCs85QQFkKrybG_4core5slice4iter4IterNtNtNtCs3tyqko2rdGU_12serde_derive9internals3ast5FieldENtNtNtNtBa_4iter6traits8iterator8Iterator3mapNtCsfwj6t2KTYdc_11proc_macro211TokenStreamNCNvNtBP_2de23deserialize_transparents_0EBP_, symObjAddr: 0x31A8, symBinAddr: 0x286A8, symSize: 0x30 }
  - { offset: 0x66476, size: 0x8, addend: 0x0, symName: __RINvYINtNtNtCs85QQFkKrybG_4core5slice4iter4IterNtNtNtCs3tyqko2rdGU_12serde_derive9internals3ast5FieldENtNtNtNtBa_4iter6traits8iterator8Iterator3mapNtCsfwj6t2KTYdc_11proc_macro211TokenStreamNCNvNtBP_3ser27wrap_serialize_variant_withs_0EBP_, symObjAddr: 0x31D8, symBinAddr: 0x286D8, symSize: 0x1C }
  - { offset: 0x664CE, size: 0x8, addend: 0x0, symName: __RINvYINtNtNtCs85QQFkKrybG_4core5slice4iter4IterNtNtNtCs3tyqko2rdGU_12serde_derive9internals3ast5FieldENtNtNtNtBa_4iter6traits8iterator8Iterator3mapNtNtCscwCr4GBBztI_3syn4expr6MemberNCNvNtBP_3ser35serialize_adjacently_tagged_variants0_0EBP_, symObjAddr: 0x31F4, symBinAddr: 0x286F4, symSize: 0x1C }
  - { offset: 0x66526, size: 0x8, addend: 0x0, symName: __RINvYINtNtNtCs85QQFkKrybG_4core5slice4iter4IterNtNtNtCs3tyqko2rdGU_12serde_derive9internals3ast5FieldENtNtNtNtBa_4iter6traits8iterator8Iterator3mapRNtNtCscwCr4GBBztI_3syn2ty4TypeNCNvNtBP_2de25unwrap_to_variant_closure0EBP_, symObjAddr: 0x3210, symBinAddr: 0x28710, symSize: 0x1C }
  - { offset: 0x6657E, size: 0x8, addend: 0x0, symName: __RINvYINtNtNtCs85QQFkKrybG_4core5slice4iter4IterNtNtNtCs3tyqko2rdGU_12serde_derive9internals3ast5FieldENtNtNtNtBa_4iter6traits8iterator8Iterator3mapRNtNtCscwCr4GBBztI_3syn2ty4TypeNCNvNtBP_3ser27wrap_serialize_variant_with0EBP_, symObjAddr: 0x322C, symBinAddr: 0x2872C, symSize: 0x1C }
  - { offset: 0x665D6, size: 0x8, addend: 0x0, symName: __RINvYINtNtNtCs85QQFkKrybG_4core5slice4iter4IterNtNtNtCs3tyqko2rdGU_12serde_derive9internals3ast5FieldENtNtNtNtBa_4iter6traits8iterator8Iterator3mapRNtNtCscwCr4GBBztI_3syn2ty4TypeNCNvNtNtBP_2de15enum_externally29wrap_deserialize_variant_with0EBP_, symObjAddr: 0x3248, symBinAddr: 0x28748, symSize: 0x1C }
  - { offset: 0x6662E, size: 0x8, addend: 0x0, symName: __RINvYINtNtNtCs85QQFkKrybG_4core5slice4iter4IterNtNtNtCs3tyqko2rdGU_12serde_derive9internals3ast5FieldENtNtNtNtBa_4iter6traits8iterator8Iterator3mapRNtNtCscwCr4GBBztI_3syn4expr6MemberNCNCNvNtBP_7pretend21pretend_variants_used0s_0EBP_, symObjAddr: 0x3264, symBinAddr: 0x28764, symSize: 0x1C }
  - { offset: 0x66686, size: 0x8, addend: 0x0, symName: __RINvYINtNtNtCs85QQFkKrybG_4core5slice4iter4IterNtNtNtCs3tyqko2rdGU_12serde_derive9internals3ast5FieldENtNtNtNtBa_4iter6traits8iterator8Iterator3mapRNtNtCscwCr4GBBztI_3syn4expr6MemberNCNCNvNtBP_7pretend24pretend_fields_used_enum00EBP_, symObjAddr: 0x3280, symBinAddr: 0x28780, symSize: 0x1C }
  - { offset: 0x666DE, size: 0x8, addend: 0x0, symName: __RINvYINtNtNtCs85QQFkKrybG_4core5slice4iter4IterNtNtNtCs3tyqko2rdGU_12serde_derive9internals3ast5FieldENtNtNtNtBa_4iter6traits8iterator8Iterator3mapRNtNtCscwCr4GBBztI_3syn4expr6MemberNCNvNtBP_2de15deserialize_seqs0_0EBP_, symObjAddr: 0x329C, symBinAddr: 0x2879C, symSize: 0x1C }
  - { offset: 0x66736, size: 0x8, addend: 0x0, symName: __RINvYINtNtNtCs85QQFkKrybG_4core5slice4iter4IterNtNtNtCs3tyqko2rdGU_12serde_derive9internals3ast5FieldENtNtNtNtBa_4iter6traits8iterator8Iterator3mapRNtNtCscwCr4GBBztI_3syn4expr6MemberNCNvNtBP_2de25unwrap_to_variant_closures0_0EBP_, symObjAddr: 0x32B8, symBinAddr: 0x287B8, symSize: 0x1C }
  - { offset: 0x6678E, size: 0x8, addend: 0x0, symName: __RINvYINtNtNtCs85QQFkKrybG_4core5slice4iter4IterNtNtNtCs3tyqko2rdGU_12serde_derive9internals3ast5FieldENtNtNtNtBa_4iter6traits8iterator8Iterator3mapRNtNtCscwCr4GBBztI_3syn4expr6MemberNCNvNtBP_3ser17serialize_variants_0EBP_, symObjAddr: 0x32D4, symBinAddr: 0x287D4, symSize: 0x1C }
  - { offset: 0x667E6, size: 0x8, addend: 0x0, symName: __RINvYINtNtNtCs85QQFkKrybG_4core5slice4iter4IterNtNtNtCs3tyqko2rdGU_12serde_derive9internals3ast5FieldENtNtNtNtBa_4iter6traits8iterator8Iterator3mapRNtNtCscwCr4GBBztI_3syn4expr6MemberNCNvNtBP_3ser37serialize_struct_variant_with_flattens0_0EBP_, symObjAddr: 0x32F0, symBinAddr: 0x287F0, symSize: 0x1C }
  - { offset: 0x6683E, size: 0x8, addend: 0x0, symName: __RINvYINtNtNtCs85QQFkKrybG_4core5slice4iter4IterNtNtNtCs3tyqko2rdGU_12serde_derive9internals3ast5FieldENtNtNtNtBa_4iter6traits8iterator8Iterator3mapRNtNtCscwCr4GBBztI_3syn4expr6MemberNCNvNtBP_7pretend26pretend_fields_used_struct0EBP_, symObjAddr: 0x330C, symBinAddr: 0x2880C, symSize: 0x1C }
  - { offset: 0x66896, size: 0x8, addend: 0x0, symName: __RINvYINtNtNtCs85QQFkKrybG_4core5slice4iter4IterNtNtNtCs3tyqko2rdGU_12serde_derive9internals3ast5FieldENtNtNtNtBa_4iter6traits8iterator8Iterator3mapRNtNtCscwCr4GBBztI_3syn4expr6MemberNCNvNtBP_7pretend33pretend_fields_used_struct_packed0EBP_, symObjAddr: 0x3328, symBinAddr: 0x28828, symSize: 0x1C }
  - { offset: 0x668EE, size: 0x8, addend: 0x0, symName: __RINvYINtNtNtCs85QQFkKrybG_4core5slice4iter4IterNtNtNtCs3tyqko2rdGU_12serde_derive9internals3ast5FieldENtNtNtNtBa_4iter6traits8iterator8Iterator3mapRRNtNtCscwCr4GBBztI_3syn2ty4TypeNCNvNtBP_3ser35serialize_adjacently_tagged_variant0EBP_, symObjAddr: 0x3344, symBinAddr: 0x28844, symSize: 0x1C }
  - { offset: 0x66946, size: 0x8, addend: 0x0, symName: __RINvYINtNtNtCs85QQFkKrybG_4core5slice4iter4IterNtNtNtCs3tyqko2rdGU_12serde_derive9internals3ast5FieldENtNtNtNtBa_4iter6traits8iterator8Iterator3mapRRNtNtCscwCr4GBBztI_3syn2ty4TypeNCNvNtBP_3ser37serialize_struct_variant_with_flattens_0EBP_, symObjAddr: 0x3360, symBinAddr: 0x28860, symSize: 0x1C }
  - { offset: 0x6699E, size: 0x8, addend: 0x0, symName: __RINvYINtNtNtCs85QQFkKrybG_4core5slice4iter4IterNtNtNtCs3tyqko2rdGU_12serde_derive9internals3ast5FieldENtNtNtNtBa_4iter6traits8iterator8Iterator3mapjNCINvNvXs1_NtNtB1I_8adapters6filterINtB2x_6FilterppEB1C_5count8to_usizeRBJ_NCNvNtBP_2de15deserialize_seq0E0EBP_, symObjAddr: 0x337C, symBinAddr: 0x2887C, symSize: 0x1C }
  - { offset: 0x669F6, size: 0x8, addend: 0x0, symName: __RINvYINtNtNtCs85QQFkKrybG_4core5slice4iter4IterNtNtNtCs3tyqko2rdGU_12serde_derive9internals3ast5FieldENtNtNtNtBa_4iter6traits8iterator8Iterator3mapjNCINvNvXs1_NtNtB1I_8adapters6filterINtB2x_6FilterppEB1C_5count8to_usizeRBJ_NCNvNtNtBP_2de5tuple11deserialize0E0EBP_, symObjAddr: 0x3398, symBinAddr: 0x28898, symSize: 0x1C }
  - { offset: 0x66A4E, size: 0x8, addend: 0x0, symName: __RINvYINtNtNtCs85QQFkKrybG_4core5slice4iter4IterNtNtNtCs3tyqko2rdGU_12serde_derive9internals3ast5FieldENtNtNtNtBa_4iter6traits8iterator8Iterator6filterNCNvNtBP_2de15deserialize_seq0EBP_, symObjAddr: 0x33B4, symBinAddr: 0x288B4, symSize: 0x1C }
  - { offset: 0x66A9D, size: 0x8, addend: 0x0, symName: __RINvYINtNtNtCs85QQFkKrybG_4core5slice4iter4IterNtNtNtCs3tyqko2rdGU_12serde_derive9internals3ast5FieldENtNtNtNtBa_4iter6traits8iterator8Iterator6filterNCNvNtBP_3ser23serialize_struct_as_map0EBP_, symObjAddr: 0x33D0, symBinAddr: 0x288D0, symSize: 0x1C }
  - { offset: 0x66AEC, size: 0x8, addend: 0x0, symName: __RINvYINtNtNtCs85QQFkKrybG_4core5slice4iter4IterNtNtNtCs3tyqko2rdGU_12serde_derive9internals3ast5FieldENtNtNtNtBa_4iter6traits8iterator8Iterator6filterNCNvNtBP_3ser24serialize_struct_variants_0EBP_, symObjAddr: 0x33EC, symBinAddr: 0x288EC, symSize: 0x1C }
  - { offset: 0x66B3B, size: 0x8, addend: 0x0, symName: __RINvYINtNtNtCs85QQFkKrybG_4core5slice4iter4IterNtNtNtCs3tyqko2rdGU_12serde_derive9internals3ast5FieldENtNtNtNtBa_4iter6traits8iterator8Iterator6filterNCNvNtBP_3ser24serialize_struct_visitor0EBP_, symObjAddr: 0x3408, symBinAddr: 0x28908, symSize: 0x1C }
  - { offset: 0x66B8A, size: 0x8, addend: 0x0, symName: __RINvYINtNtNtCs85QQFkKrybG_4core5slice4iter4IterNtNtNtCs3tyqko2rdGU_12serde_derive9internals3ast5FieldENtNtNtNtBa_4iter6traits8iterator8Iterator6filterNCNvNtBP_3ser26serialize_struct_as_struct0EBP_, symObjAddr: 0x3424, symBinAddr: 0x28924, symSize: 0x1C }
  - { offset: 0x66BD9, size: 0x8, addend: 0x0, symName: __RINvYINtNtNtCs85QQFkKrybG_4core5slice4iter4IterNtNtNtCs3tyqko2rdGU_12serde_derive9internals3ast5FieldENtNtNtNtBa_4iter6traits8iterator8Iterator6filterNCNvNtBP_3ser37serialize_struct_variant_with_flatten0EBP_, symObjAddr: 0x3440, symBinAddr: 0x28940, symSize: 0x1C }
  - { offset: 0x66C28, size: 0x8, addend: 0x0, symName: __RINvYINtNtNtCs85QQFkKrybG_4core5slice4iter4IterNtNtNtCs3tyqko2rdGU_12serde_derive9internals3ast5FieldENtNtNtNtBa_4iter6traits8iterator8Iterator6filterNCNvNtBP_5bound10with_bounds0_0EBP_, symObjAddr: 0x345C, symBinAddr: 0x2895C, symSize: 0x30 }
  - { offset: 0x66C8C, size: 0x8, addend: 0x0, symName: __RINvYINtNtNtCs85QQFkKrybG_4core5slice4iter4IterNtNtNtCs3tyqko2rdGU_12serde_derive9internals3ast5FieldENtNtNtNtBa_4iter6traits8iterator8Iterator6filterNCNvNtBP_5bound10with_bounds_0EBP_, symObjAddr: 0x348C, symBinAddr: 0x2898C, symSize: 0x3C }
  - { offset: 0x66CF0, size: 0x8, addend: 0x0, symName: __RINvYINtNtNtCs85QQFkKrybG_4core5slice4iter4IterNtNtNtCs3tyqko2rdGU_12serde_derive9internals3ast5FieldENtNtNtNtBa_4iter6traits8iterator8Iterator6filterNCNvNtNtBP_2de5tuple11deserialize0EBP_, symObjAddr: 0x34C8, symBinAddr: 0x289C8, symSize: 0x1C }
  - { offset: 0x66D3F, size: 0x8, addend: 0x0, symName: __RINvYINtNtNtCs85QQFkKrybG_4core5slice4iter4IterNtNtNtCs3tyqko2rdGU_12serde_derive9internals3ast5FieldENtNtNtNtBa_4iter6traits8iterator8Iterator8try_folduNCINvNvXs_NtNtB1I_8adapters9enumerateINtB2B_9EnumeratepEB1C_8try_fold9enumerateRBJ_uINtNtNtBa_3ops12control_flow11ControlFlowTjB3I_EENCINvNvB1C_4find5checkB4s_QNCNvNtBP_3ser22serialize_tuple_struct0E0E0B3N_EBP_, symObjAddr: 0x34E4, symBinAddr: 0x289E4, symSize: 0x178 }
  - { offset: 0x66DF2, size: 0x8, addend: 0x0, symName: __RINvYINtNtNtCs85QQFkKrybG_4core5slice4iter4IterNtNtNtCs3tyqko2rdGU_12serde_derive9internals3ast5FieldENtNtNtNtBa_4iter6traits8iterator8Iterator8try_folduNCINvNvXs_NtNtB1I_8adapters9enumerateINtB2B_9EnumeratepEB1C_8try_fold9enumerateRBJ_uINtNtNtBa_3ops12control_flow11ControlFlowTjB3I_EENCINvNvB1C_4find5checkB4s_QNCNvNtBP_3ser23serialize_tuple_variant0E0E0B3N_EBP_, symObjAddr: 0x365C, symBinAddr: 0x28B5C, symSize: 0x178 }
  - { offset: 0x66EA5, size: 0x8, addend: 0x0, symName: __RINvYINtNtNtCs85QQFkKrybG_4core5slice4iter4IterNtNtNtCs3tyqko2rdGU_12serde_derive9internals3ast5FieldENtNtNtNtBa_4iter6traits8iterator8Iterator8try_folduNCINvNvXs_NtNtB1I_8adapters9enumerateINtB2B_9EnumeratepEB1C_8try_fold9enumerateRBJ_uINtNtNtBa_3ops12control_flow11ControlFlowTjB3I_EENCINvNvB1C_4find5checkB4s_QNCNvNtBP_3ser30serialize_tuple_struct_visitor0E0E0B3N_EBP_, symObjAddr: 0x37D4, symBinAddr: 0x28CD4, symSize: 0x178 }
  - { offset: 0x66F58, size: 0x8, addend: 0x0, symName: __RINvYINtNtNtCs85QQFkKrybG_4core5slice4iter4IterNtNtNtCs3tyqko2rdGU_12serde_derive9internals3ast5FieldENtNtNtNtBa_4iter6traits8iterator8Iterator8try_folduNCINvNvXs_NtNtB1I_8adapters9enumerateINtB2B_9EnumeratepEB1C_8try_fold9enumerateRBJ_uINtNtNtBa_3ops12control_flow11ControlFlowTjB3I_EENCINvNvB1C_4find5checkB4s_QNCNvNtNtBP_2de7struct_11deserialize0E0E0B3N_EBP_, symObjAddr: 0x394C, symBinAddr: 0x28E4C, symSize: 0x178 }
  - { offset: 0x6700B, size: 0x8, addend: 0x0, symName: __RINvYINtNtNtCs85QQFkKrybG_4core5slice4iter4IterNtNtNtCs3tyqko2rdGU_12serde_derive9internals3ast7VariantENtNtNtNtBa_4iter6traits8iterator8Iterator10filter_mapNtCsfwj6t2KTYdc_11proc_macro211TokenStreamNCNvNtBP_7pretend24pretend_fields_used_enum0EBP_, symObjAddr: 0x3AC4, symBinAddr: 0x28FC4, symSize: 0x30 }
  - { offset: 0x67078, size: 0x8, addend: 0x0, symName: __RINvYINtNtNtCs85QQFkKrybG_4core5slice4iter4IterNtNtNtCs3tyqko2rdGU_12serde_derive9internals3ast7VariantENtNtNtNtBa_4iter6traits8iterator8Iterator10filter_mapRSNtNtCscwCr4GBBztI_3syn8generics14WherePredicateNCNvNtBP_5bound35with_where_predicates_from_variants0EBP_, symObjAddr: 0x3AF4, symBinAddr: 0x28FF4, symSize: 0x30 }
  - { offset: 0x670E5, size: 0x8, addend: 0x0, symName: __RINvYINtNtNtCs85QQFkKrybG_4core5slice4iter4IterNtNtNtCs3tyqko2rdGU_12serde_derive9internals3ast7VariantENtNtNtNtBa_4iter6traits8iterator8Iterator3mapIB4_NtBL_5FieldENCNvMs_BL_NtBL_4Data10all_fields0EBP_, symObjAddr: 0x3B24, symBinAddr: 0x29024, symSize: 0x1C }
  - { offset: 0x6713D, size: 0x8, addend: 0x0, symName: __RINvYINtNtNtCs85QQFkKrybG_4core5slice4iter4IterNtNtNtCs3tyqko2rdGU_12serde_derive9internals3ast7VariantENtNtNtNtBa_4iter6traits8iterator8Iterator3mapNtCsfwj6t2KTYdc_11proc_macro211TokenStreamNCNvNtBP_7pretend21pretend_variants_used0EBP_, symObjAddr: 0x3B40, symBinAddr: 0x29040, symSize: 0x3C }
  - { offset: 0x671AA, size: 0x8, addend: 0x0, symName: __RINvYINtNtNtCs85QQFkKrybG_4core5slice4iter4IterNtNtNtCs3tyqko2rdGU_12serde_derive9internals3ast7VariantENtNtNtNtBa_4iter6traits8iterator8Iterator3mapNtNtBP_2de16FieldWithAliasesNCNvNtB2p_10identifier18deserialize_customs_0EBP_, symObjAddr: 0x3B7C, symBinAddr: 0x2907C, symSize: 0x1C }
  - { offset: 0x67202, size: 0x8, addend: 0x0, symName: __RINvYINtNtNtCs85QQFkKrybG_4core5slice4iter4IterNtNtNtCs3tyqko2rdGU_12serde_derive9internals3ast7VariantENtNtNtNtBa_4iter6traits8iterator8Iterator6filterNCNvNtNtBP_2de13enum_untagged11deserialize0EBP_, symObjAddr: 0x3B98, symBinAddr: 0x29098, symSize: 0x1C }
  - { offset: 0x67251, size: 0x8, addend: 0x0, symName: __RINvYINtNtNtCs85QQFkKrybG_4core5slice4iter4IterNtNtNtCs3tyqko2rdGU_12serde_derive9internals3ast7VariantENtNtNtNtBa_4iter6traits8iterator8Iterator8flat_mapIB4_NtBL_5FieldENCNvMs_BL_NtBL_4Data10all_fields0EBP_, symObjAddr: 0x3BB4, symBinAddr: 0x290B4, symSize: 0x78 }
  - { offset: 0x672EC, size: 0x8, addend: 0x0, symName: __RINvYINtNtNtCs85QQFkKrybG_4core5slice4iter4IterNtNtNtCs3tyqko2rdGU_12serde_derive9internals3ast7VariantENtNtNtNtBa_4iter6traits8iterator8Iterator8try_foldjNCINvNtNtB1K_8adapters3map12map_try_foldRBJ_IB4_NtBL_5FieldEjINtNtNtBa_3ops12control_flow11ControlFlowujENCNvMs_BL_NtBL_4Data10all_fields0NCINvNvMsg_NtB2A_7flattenINtB4S_13FlattenCompatppE13iter_try_fold7flattenB3b_jB3s_INvNvXsi_B4S_B56_B1E_10advance_by7advanceB3b_EE0E0B3s_EBP_, symObjAddr: 0x3C2C, symBinAddr: 0x2912C, symSize: 0x178 }
  - { offset: 0x673A0, size: 0x8, addend: 0x0, symName: __RINvYINtNtNtCs85QQFkKrybG_4core5slice4iter4IterNtNtNtCs3tyqko2rdGU_12serde_derive9internals3ast7VariantENtNtNtNtBa_4iter6traits8iterator8Iterator8try_folduNCINvNvXs_NtNtB1K_8adapters9enumerateINtB2D_9EnumeratepEB1E_8try_fold9enumerateRBJ_uINtNtNtBa_3ops12control_flow11ControlFlowNtCsfwj6t2KTYdc_11proc_macro211TokenStreamENCINvNtB2F_6filter15filter_try_foldTjB3K_EuB3P_NCNvNtNtBP_2de15enum_adjacently11deserializes0_0NCINvNvB1E_8find_map5checkB5K_B4u_QNCB5Y_s1_0E0E0E0B3P_EBP_, symObjAddr: 0x3DA4, symBinAddr: 0x292A4, symSize: 0x134 }
  - { offset: 0x6745C, size: 0x8, addend: 0x0, symName: __RINvYINtNtNtCs85QQFkKrybG_4core5slice4iter4IterNtNtNtCs3tyqko2rdGU_12serde_derive9internals3ast7VariantENtNtNtNtBa_4iter6traits8iterator8Iterator8try_folduNCINvNvXs_NtNtB1K_8adapters9enumerateINtB2D_9EnumeratepEB1E_8try_fold9enumerateRBJ_uINtNtNtBa_3ops12control_flow11ControlFlowTjB3K_EENCINvNtB2F_6filter15filter_try_foldB4u_uB3P_NCNvNtNtBP_2de5enum_25prepare_enum_variant_enum0NCINvNvB1E_4find5checkB4u_NCB5m_s_0E0E0E0B3P_EBP_, symObjAddr: 0x3ED8, symBinAddr: 0x293D8, symSize: 0x178 }
  - { offset: 0x6750F, size: 0x8, addend: 0x0, symName: __RINvYINtNtNtCs85QQFkKrybG_4core5slice4iter4IterNtNtNtCs3tyqko2rdGU_12serde_derive9internals3ast7VariantENtNtNtNtBa_4iter6traits8iterator8Iterator8try_folduNCINvNvXs_NtNtB1K_8adapters9enumerateINtB2D_9EnumeratepEB1E_8try_fold9enumerateRBJ_uINtNtNtBa_3ops12control_flow11ControlFlowTjB3K_EENCINvNvB1E_4find5checkB4u_QNCNvNtNtBP_2de15enum_adjacently11deserialize0E0E0B3P_EBP_, symObjAddr: 0x4050, symBinAddr: 0x29550, symSize: 0x178 }
  - { offset: 0x675C2, size: 0x8, addend: 0x0, symName: __RINvYINtNtNtCs85QQFkKrybG_4core5slice4iter4IterNtNtNtCs3tyqko2rdGU_12serde_derive9internals3ast7VariantENtNtNtNtBa_4iter6traits8iterator8Iterator8try_folduNCINvNvXs_NtNtB1K_8adapters9enumerateINtB2D_9EnumeratepEB1E_8try_fold9enumerateRBJ_uINtNtNtBa_3ops12control_flow11ControlFlowTjB3K_EENCINvNvB1E_4find5checkB4u_QNCNvNtNtBP_2de15enum_externally11deserialize0E0E0B3P_EBP_, symObjAddr: 0x41C8, symBinAddr: 0x296C8, symSize: 0x178 }
  - { offset: 0x67675, size: 0x8, addend: 0x0, symName: __RINvYINtNtNtCs85QQFkKrybG_4core5slice4iter4IterNtNtNtCs3tyqko2rdGU_12serde_derive9internals3ast7VariantENtNtNtNtBa_4iter6traits8iterator8Iterator8try_folduNCINvNvXs_NtNtB1K_8adapters9enumerateINtB2D_9EnumeratepEB1E_8try_fold9enumerateRBJ_uINtNtNtBa_3ops12control_flow11ControlFlowTjB3K_EENCINvNvB1E_4find5checkB4u_QNCNvNtNtBP_2de15enum_internally11deserialize0E0E0B3P_EBP_, symObjAddr: 0x4340, symBinAddr: 0x29840, symSize: 0x178 }
  - { offset: 0x67728, size: 0x8, addend: 0x0, symName: __RINvYINtNtNtCs85QQFkKrybG_4core5slice4iter4IterNtNtNtCs3tyqko2rdGU_12serde_derive9internals3ast7VariantENtNtNtNtBa_4iter6traits8iterator8Iterator8try_folduNCINvNvXs_NtNtB1K_8adapters9enumerateINtB2D_9EnumeratepEB1E_8try_fold9enumerateRBJ_uINtNtNtBa_3ops12control_flow11ControlFlowTjB3K_EENCINvNvB1E_4find5checkB4u_QNCNvNtNtBP_2de5enum_25prepare_enum_variant_enum0E0E0B3P_EBP_, symObjAddr: 0x44B8, symBinAddr: 0x299B8, symSize: 0x178 }
  - { offset: 0x677DB, size: 0x8, addend: 0x0, symName: __RINvYINtNtNtCs85QQFkKrybG_4core5slice4iter4IterTRNtNtNtCs3tyqko2rdGU_12serde_derive9internals3ast5FieldNtCsfwj6t2KTYdc_11proc_macro25IdentEENtNtNtNtBa_4iter6traits8iterator8Iterator3mapNtB1F_11TokenStreamNCNvNtNtBR_2de7struct_15deserialize_maps8_0EBR_, symObjAddr: 0x4630, symBinAddr: 0x29B30, symSize: 0x30 }
  - { offset: 0x67848, size: 0x8, addend: 0x0, symName: __RINvYINtNtNtCs85QQFkKrybG_4core5slice4iter4IterTRNtNtNtCs3tyqko2rdGU_12serde_derive9internals3ast5FieldNtCsfwj6t2KTYdc_11proc_macro25IdentEENtNtNtNtBa_4iter6traits8iterator8Iterator6filterNCNvNtNtBR_2de7struct_15deserialize_maps1_0EBR_, symObjAddr: 0x4660, symBinAddr: 0x29B60, symSize: 0x1C }
  - { offset: 0x67897, size: 0x8, addend: 0x0, symName: __RINvYINtNtNtCs85QQFkKrybG_4core5slice4iter4IterTRNtNtNtCs3tyqko2rdGU_12serde_derive9internals3ast5FieldNtCsfwj6t2KTYdc_11proc_macro25IdentEENtNtNtNtBa_4iter6traits8iterator8Iterator6filterNCNvNtNtBR_2de7struct_15deserialize_maps4_0EBR_, symObjAddr: 0x467C, symBinAddr: 0x29B7C, symSize: 0x1C }
  - { offset: 0x678E6, size: 0x8, addend: 0x0, symName: __RINvYINtNtNtCs85QQFkKrybG_4core5slice4iter4IterTRNtNtNtCs3tyqko2rdGU_12serde_derive9internals3ast5FieldNtCsfwj6t2KTYdc_11proc_macro25IdentEENtNtNtNtBa_4iter6traits8iterator8Iterator6filterNCNvNtNtBR_2de7struct_15deserialize_maps6_0EBR_, symObjAddr: 0x4698, symBinAddr: 0x29B98, symSize: 0x1C }
  - { offset: 0x67935, size: 0x8, addend: 0x0, symName: __RINvYINtNtNtCs85QQFkKrybG_4core5slice4iter4IterTRNtNtNtCs3tyqko2rdGU_12serde_derive9internals3ast5FieldNtCsfwj6t2KTYdc_11proc_macro25IdentEENtNtNtNtBa_4iter6traits8iterator8Iterator6filterNCNvNtNtBR_2de7struct_15deserialize_maps_0EBR_, symObjAddr: 0x46B4, symBinAddr: 0x29BB4, symSize: 0x1C }
  - { offset: 0x67984, size: 0x8, addend: 0x0, symName: __RNvYINtNtNtCs85QQFkKrybG_4core5slice4iter4IterNtNtCs3tyqko2rdGU_12serde_derive2de16FieldWithAliasesENtNtNtNtB9_4iter6traits8iterator8Iterator9enumerateBM_, symObjAddr: 0x6D14, symBinAddr: 0x2C214, symSize: 0x28 }
  - { offset: 0x679D0, size: 0x8, addend: 0x0, symName: __RNvYINtNtNtCs85QQFkKrybG_4core5slice4iter4IterNtNtNtCs3tyqko2rdGU_12serde_derive9internals3ast5FieldENtNtNtNtB9_4iter6traits8iterator8Iterator9enumerateBO_, symObjAddr: 0x6D3C, symBinAddr: 0x2C23C, symSize: 0x28 }
  - { offset: 0x67A1C, size: 0x8, addend: 0x0, symName: __RNvYINtNtNtCs85QQFkKrybG_4core5slice4iter4IterNtNtNtCs3tyqko2rdGU_12serde_derive9internals3ast7VariantENtNtNtNtB9_4iter6traits8iterator8Iterator9enumerateBO_, symObjAddr: 0x6D90, symBinAddr: 0x2C290, symSize: 0x28 }
  - { offset: 0x67A68, size: 0x8, addend: 0x0, symName: __RNvYINtNtNtCs85QQFkKrybG_4core5slice4iter4IterTReNtNtNtCs3tyqko2rdGU_12serde_derive9internals4case10RenameRuleEENtNtNtNtB9_4iter6traits8iterator8Iterator9enumerateBR_, symObjAddr: 0x6DB8, symBinAddr: 0x2C2B8, symSize: 0x28 }
  - { offset: 0x67C60, size: 0x8, addend: 0x0, symName: __RNvXNtNtNtCs85QQFkKrybG_4core4iter6traits7collectINtNtNtB8_5slice4iter4IterNtNtNtCs3tyqko2rdGU_12serde_derive9internals3ast5FieldENtB2_12IntoIterator9into_iterB1h_, symObjAddr: 0x4D20, symBinAddr: 0x2A220, symSize: 0x1C }
  - { offset: 0x6F148, size: 0x8, addend: 0x0, symName: __RNvMs4_NtNtCs85QQFkKrybG_4core5slice4iterINtB5_4IterNtCsfwj6t2KTYdc_11proc_macro211TokenStreamE3newCs3tyqko2rdGU_12serde_derive, symObjAddr: 0x46D0, symBinAddr: 0x29BD0, symSize: 0x50 }
  - { offset: 0x6F305, size: 0x8, addend: 0x0, symName: __RNvMs4_NtNtCs85QQFkKrybG_4core5slice4iterINtB5_4IterNtCsfwj6t2KTYdc_11proc_macro25IdentE3newCs3tyqko2rdGU_12serde_derive, symObjAddr: 0x4720, symBinAddr: 0x29C20, symSize: 0x58 }
  - { offset: 0x6F4A8, size: 0x8, addend: 0x0, symName: __RNvMs4_NtNtCs85QQFkKrybG_4core5slice4iterINtB5_4IterNtNtCs3tyqko2rdGU_12serde_derive2de16FieldWithAliasesE3newBS_, symObjAddr: 0x4778, symBinAddr: 0x29C78, symSize: 0x50 }
  - { offset: 0x6F672, size: 0x8, addend: 0x0, symName: __RNvMs4_NtNtCs85QQFkKrybG_4core5slice4iterINtB5_4IterNtNtCscwCr4GBBztI_3syn4expr6MemberE3newCs3tyqko2rdGU_12serde_derive, symObjAddr: 0x47C8, symBinAddr: 0x29CC8, symSize: 0x58 }
  - { offset: 0x6F815, size: 0x8, addend: 0x0, symName: __RNvMs4_NtNtCs85QQFkKrybG_4core5slice4iterINtB5_4IterNtNtCscwCr4GBBztI_3syn8generics14WherePredicateE3newCs3tyqko2rdGU_12serde_derive, symObjAddr: 0x4820, symBinAddr: 0x29D20, symSize: 0x58 }
  - { offset: 0x6F9B8, size: 0x8, addend: 0x0, symName: __RNvMs4_NtNtCs85QQFkKrybG_4core5slice4iterINtB5_4IterNtNtNtCs3tyqko2rdGU_12serde_derive9internals3ast5FieldE3newBU_, symObjAddr: 0x4878, symBinAddr: 0x29D78, symSize: 0x58 }
  - { offset: 0x6FB5B, size: 0x8, addend: 0x0, symName: __RNvMs4_NtNtCs85QQFkKrybG_4core5slice4iterINtB5_4IterNtNtNtCs3tyqko2rdGU_12serde_derive9internals3ast7VariantE3newBU_, symObjAddr: 0x48D0, symBinAddr: 0x29DD0, symSize: 0x58 }
  - { offset: 0x6FD18, size: 0x8, addend: 0x0, symName: __RNvMs4_NtNtCs85QQFkKrybG_4core5slice4iterINtB5_4IterRNtCsfwj6t2KTYdc_11proc_macro25IdentE3newCs3tyqko2rdGU_12serde_derive, symObjAddr: 0x4928, symBinAddr: 0x29E28, symSize: 0x50 }
  - { offset: 0x6FEE2, size: 0x8, addend: 0x0, symName: __RNvMs4_NtNtCs85QQFkKrybG_4core5slice4iterINtB5_4IterRNtNtCscwCr4GBBztI_3syn2ty4TypeE3newCs3tyqko2rdGU_12serde_derive, symObjAddr: 0x4978, symBinAddr: 0x29E78, symSize: 0x50 }
  - { offset: 0x700AC, size: 0x8, addend: 0x0, symName: __RNvMs4_NtNtCs85QQFkKrybG_4core5slice4iterINtB5_4IterRNtNtCscwCr4GBBztI_3syn4expr6MemberE3newCs3tyqko2rdGU_12serde_derive, symObjAddr: 0x49C8, symBinAddr: 0x29EC8, symSize: 0x50 }
  - { offset: 0x7025C, size: 0x8, addend: 0x0, symName: __RNvMs4_NtNtCs85QQFkKrybG_4core5slice4iterINtB5_4IterTRNtNtNtCs3tyqko2rdGU_12serde_derive9internals3ast5FieldNtCsfwj6t2KTYdc_11proc_macro25IdentEE3newBW_, symObjAddr: 0x4A18, symBinAddr: 0x29F18, symSize: 0x50 }
  - { offset: 0x70462, size: 0x8, addend: 0x0, symName: __RNvMs4_NtNtCs85QQFkKrybG_4core5slice4iterINtB5_4IterTReNtNtNtCs3tyqko2rdGU_12serde_derive9internals4case10RenameRuleEE3newBX_, symObjAddr: 0x4A68, symBinAddr: 0x29F68, symSize: 0x58 }
  - { offset: 0x7062C, size: 0x8, addend: 0x0, symName: __RNvMsa_NtNtCs85QQFkKrybG_4core5slice4iterINtB5_7IterMutTNtNtCscwCr4GBBztI_3syn2ty4TypeNtNtBW_5token5CommaEE3newCs3tyqko2rdGU_12serde_derive, symObjAddr: 0x4AC0, symBinAddr: 0x29FC0, symSize: 0x58 }
  - { offset: 0x707F6, size: 0x8, addend: 0x0, symName: __RNvMsa_NtNtCs85QQFkKrybG_4core5slice4iterINtB5_7IterMutTNtNtCscwCr4GBBztI_3syn2ty9BareFnArgNtNtBW_5token5CommaEE3newCs3tyqko2rdGU_12serde_derive, symObjAddr: 0x4B18, symBinAddr: 0x2A018, symSize: 0x58 }
  - { offset: 0x709C0, size: 0x8, addend: 0x0, symName: __RNvMsa_NtNtCs85QQFkKrybG_4core5slice4iterINtB5_7IterMutTNtNtCscwCr4GBBztI_3syn4data7VariantNtNtBW_5token5CommaEE3newCs3tyqko2rdGU_12serde_derive, symObjAddr: 0x4B70, symBinAddr: 0x2A070, symSize: 0x58 }
  - { offset: 0x70B8A, size: 0x8, addend: 0x0, symName: __RNvMsa_NtNtCs85QQFkKrybG_4core5slice4iterINtB5_7IterMutTNtNtCscwCr4GBBztI_3syn4expr4ExprNtNtBW_5token5CommaEE3newCs3tyqko2rdGU_12serde_derive, symObjAddr: 0x4BC8, symBinAddr: 0x2A0C8, symSize: 0x58 }
  - { offset: 0x70D54, size: 0x8, addend: 0x0, symName: __RNvMsa_NtNtCs85QQFkKrybG_4core5slice4iterINtB5_7IterMutTNtNtCscwCr4GBBztI_3syn4path15GenericArgumentNtNtBW_5token5CommaEE3newCs3tyqko2rdGU_12serde_derive, symObjAddr: 0x4C20, symBinAddr: 0x2A120, symSize: 0x58 }
  - { offset: 0x70F1E, size: 0x8, addend: 0x0, symName: __RNvMsa_NtNtCs85QQFkKrybG_4core5slice4iterINtB5_7IterMutTNtNtCscwCr4GBBztI_3syn8generics14TypeParamBoundNtNtBW_5token4PlusEE3newCs3tyqko2rdGU_12serde_derive, symObjAddr: 0x4C78, symBinAddr: 0x2A178, symSize: 0x50 }
  - { offset: 0x710E8, size: 0x8, addend: 0x0, symName: __RNvMsa_NtNtCs85QQFkKrybG_4core5slice4iterINtB5_7IterMutTNtNtCscwCr4GBBztI_3syn8generics14WherePredicateNtNtBW_5token5CommaEE3newCs3tyqko2rdGU_12serde_derive, symObjAddr: 0x4CC8, symBinAddr: 0x2A1C8, symSize: 0x58 }
  - { offset: 0x72CAE, size: 0x8, addend: 0x0, symName: __RINvMNtNtCs3tyqko2rdGU_12serde_derive9internals4attrINtB3_4AttrINtNtCsdFlNUEO95cG_5alloc3vec3VecNtNtCscwCr4GBBztI_3syn8generics14WherePredicateEE3setRNtNtB1A_4path4PathEB7_, symObjAddr: 0x0, symBinAddr: 0x2C2E0, symSize: 0x274 }
  - { offset: 0x74491, size: 0x8, addend: 0x0, symName: __RINvNtNtCs3tyqko2rdGU_12serde_derive9internals4attr14get_ser_and_deINtNtCsdFlNUEO95cG_5alloc3vec3VecNtNtCscwCr4GBBztI_3syn8generics14WherePredicateENvB2_20parse_lit_into_whereB13_EB6_, symObjAddr: 0x2648, symBinAddr: 0x2E928, symSize: 0x554 }
  - { offset: 0x74593, size: 0x8, addend: 0x0, symName: __RINvNtNtCs3tyqko2rdGU_12serde_derive9internals4attr14get_ser_and_deNtNtCscwCr4GBBztI_3syn3lit6LitStrNvB2_12get_lit_str2INtNtCs85QQFkKrybG_4core6option6OptionB13_EEB6_, symObjAddr: 0x2B9C, symBinAddr: 0x2EE7C, symSize: 0x520 }
  - { offset: 0x7469A, size: 0x8, addend: 0x0, symName: __RNCINvNtNtCs3tyqko2rdGU_12serde_derive9internals4attr14get_ser_and_deINtNtCsdFlNUEO95cG_5alloc3vec3VecNtNtCscwCr4GBBztI_3syn8generics14WherePredicateENvB4_20parse_lit_into_whereB15_E0B8_, symObjAddr: 0x30BC, symBinAddr: 0x2F39C, symSize: 0x44C }
  - { offset: 0x747C1, size: 0x8, addend: 0x0, symName: __RNCINvNtNtCs3tyqko2rdGU_12serde_derive9internals4attr14get_ser_and_deNtNtCscwCr4GBBztI_3syn3lit6LitStrNvB4_12get_lit_str2INtNtCs85QQFkKrybG_4core6option6OptionB15_EE0B8_, symObjAddr: 0x3508, symBinAddr: 0x2F7E8, symSize: 0x414 }
  - { offset: 0x748F6, size: 0x8, addend: 0x0, symName: __RNCNvMs3_NtNtCs3tyqko2rdGU_12serde_derive9internals4attrNtB7_9Container8de_bound0Bb_, symObjAddr: 0x391C, symBinAddr: 0x2FBFC, symSize: 0x3C }
  - { offset: 0x7493C, size: 0x8, addend: 0x0, symName: __RNCNvMs3_NtNtCs3tyqko2rdGU_12serde_derive9internals4attrNtB7_9Container8from_ast0Bb_, symObjAddr: 0x3958, symBinAddr: 0x2FC38, symSize: 0x291C }
  - { offset: 0x75114, size: 0x8, addend: 0x0, symName: __RNCNvMs3_NtNtCs3tyqko2rdGU_12serde_derive9internals4attrNtB7_9Container8from_asts_0Bb_, symObjAddr: 0x6274, symBinAddr: 0x32554, symSize: 0x208 }
  - { offset: 0x751BA, size: 0x8, addend: 0x0, symName: __RNCNvMs3_NtNtCs3tyqko2rdGU_12serde_derive9internals4attrNtB7_9Container9ser_bound0Bb_, symObjAddr: 0x647C, symBinAddr: 0x3275C, symSize: 0x3C }
  - { offset: 0x75206, size: 0x8, addend: 0x0, symName: __RNCNvMs4_NtNtCs3tyqko2rdGU_12serde_derive9internals4attrNtB7_7Variant8de_bound0Bb_, symObjAddr: 0x64B8, symBinAddr: 0x32798, symSize: 0x3C }
  - { offset: 0x7524C, size: 0x8, addend: 0x0, symName: __RNCNvMs4_NtNtCs3tyqko2rdGU_12serde_derive9internals4attrNtB7_7Variant8from_ast0Bb_, symObjAddr: 0x64F4, symBinAddr: 0x327D4, symSize: 0x1764 }
  - { offset: 0x75736, size: 0x8, addend: 0x0, symName: __RNCNvMs4_NtNtCs3tyqko2rdGU_12serde_derive9internals4attrNtB7_7Variant9ser_bound0Bb_, symObjAddr: 0x7C58, symBinAddr: 0x33F38, symSize: 0x3C }
  - { offset: 0x75782, size: 0x8, addend: 0x0, symName: __RNCNvMs6_NtNtCs3tyqko2rdGU_12serde_derive9internals4attrNtB7_5Field8de_bound0Bb_, symObjAddr: 0x7C94, symBinAddr: 0x33F74, symSize: 0x3C }
  - { offset: 0x757C8, size: 0x8, addend: 0x0, symName: __RNCNvMs6_NtNtCs3tyqko2rdGU_12serde_derive9internals4attrNtB7_5Field8from_ast0Bb_, symObjAddr: 0x7CD0, symBinAddr: 0x33FB0, symSize: 0x34 }
  - { offset: 0x75801, size: 0x8, addend: 0x0, symName: __RNCNvMs6_NtNtCs3tyqko2rdGU_12serde_derive9internals4attrNtB7_5Field8from_asts_0Bb_, symObjAddr: 0x7D04, symBinAddr: 0x33FE4, symSize: 0x1914 }
  - { offset: 0x75D0E, size: 0x8, addend: 0x0, symName: __RNCNvMs6_NtNtCs3tyqko2rdGU_12serde_derive9internals4attrNtB7_5Field9ser_bound0Bb_, symObjAddr: 0x9618, symBinAddr: 0x358F8, symSize: 0x3C }
  - { offset: 0x75D55, size: 0x8, addend: 0x0, symName: __RNCNvNtNtCs3tyqko2rdGU_12serde_derive9internals4attr24parse_lit_into_lifetimes0B7_, symObjAddr: 0x9654, symBinAddr: 0x35934, symSize: 0x398 }
  - { offset: 0x765F8, size: 0x8, addend: 0x0, symName: __RNvNtNtCs3tyqko2rdGU_12serde_derive9internals4attr10decide_tag, symObjAddr: 0xF540, symBinAddr: 0x3B820, symSize: 0xB90 }
  - { offset: 0x7681A, size: 0x8, addend: 0x0, symName: __RNvNtNtCs3tyqko2rdGU_12serde_derive9internals4attr11get_lit_str, symObjAddr: 0x100D0, symBinAddr: 0x3C3B0, symSize: 0x60 }
  - { offset: 0x76866, size: 0x8, addend: 0x0, symName: __RNvNtNtCs3tyqko2rdGU_12serde_derive9internals4attr11get_renames, symObjAddr: 0x10130, symBinAddr: 0x3C410, symSize: 0x214 }
  - { offset: 0x768F9, size: 0x8, addend: 0x0, symName: __RNvNtNtCs3tyqko2rdGU_12serde_derive9internals4attr11is_slice_u8, symObjAddr: 0x10344, symBinAddr: 0x3C624, symSize: 0xF0 }
  - { offset: 0x7693D, size: 0x8, addend: 0x0, symName: __RNvNtNtCs3tyqko2rdGU_12serde_derive9internals4attr12get_lit_str2, symObjAddr: 0x10434, symBinAddr: 0x3C714, symSize: 0x4E4 }
  - { offset: 0x76B04, size: 0x8, addend: 0x0, symName: __RNvNtNtCs3tyqko2rdGU_12serde_derive9internals4attr12is_reference, symObjAddr: 0x10918, symBinAddr: 0x3CBF8, symSize: 0x120 }
  - { offset: 0x76B57, size: 0x8, addend: 0x0, symName: __RNvNtNtCs3tyqko2rdGU_12serde_derive9internals4attr17collect_lifetimes, symObjAddr: 0x10A38, symBinAddr: 0x3CD18, symSize: 0x7AC }
  - { offset: 0x76D60, size: 0x8, addend: 0x0, symName: __RNvNtNtCs3tyqko2rdGU_12serde_derive9internals4attr17decide_identifier, symObjAddr: 0x111E4, symBinAddr: 0x3D4C4, symSize: 0x5E8 }
  - { offset: 0x76EB1, size: 0x8, addend: 0x0, symName: __RNvNtNtCs3tyqko2rdGU_12serde_derive9internals4attr17is_primitive_path, symObjAddr: 0x117CC, symBinAddr: 0x3DAAC, symSize: 0xFC }
  - { offset: 0x76EEE, size: 0x8, addend: 0x0, symName: __RNvNtNtCs3tyqko2rdGU_12serde_derive9internals4attr17is_primitive_type, symObjAddr: 0x118C8, symBinAddr: 0x3DBA8, symSize: 0xE0 }
  - { offset: 0x76F41, size: 0x8, addend: 0x0, symName: __RNvNtNtCs3tyqko2rdGU_12serde_derive9internals4attr17parse_lit_into_ty, symObjAddr: 0x119A8, symBinAddr: 0x3DC88, symSize: 0x334 }
  - { offset: 0x77055, size: 0x8, addend: 0x0, symName: __RNvNtNtCs3tyqko2rdGU_12serde_derive9internals4attr19parse_lit_into_path, symObjAddr: 0x11CDC, symBinAddr: 0x3DFBC, symSize: 0x310 }
  - { offset: 0x77152, size: 0x8, addend: 0x0, symName: __RNvNtNtCs3tyqko2rdGU_12serde_derive9internals4attr20borrowable_lifetimes, symObjAddr: 0x11FEC, symBinAddr: 0x3E2CC, symSize: 0x18C }
  - { offset: 0x77211, size: 0x8, addend: 0x0, symName: __RNvNtNtCs3tyqko2rdGU_12serde_derive9internals4attr20get_multiple_renames, symObjAddr: 0x12178, symBinAddr: 0x3E458, symSize: 0x240 }
  - { offset: 0x77295, size: 0x8, addend: 0x0, symName: __RNvNtNtCs3tyqko2rdGU_12serde_derive9internals4attr20get_where_predicates, symObjAddr: 0x123B8, symBinAddr: 0x3E698, symSize: 0x234 }
  - { offset: 0x77319, size: 0x8, addend: 0x0, symName: __RNvNtNtCs3tyqko2rdGU_12serde_derive9internals4attr20parse_lit_into_where, symObjAddr: 0x125EC, symBinAddr: 0x3E8CC, symSize: 0x280 }
  - { offset: 0x773F7, size: 0x8, addend: 0x0, symName: __RNvNtNtCs3tyqko2rdGU_12serde_derive9internals4attr22is_implicitly_borrowed, symObjAddr: 0x1286C, symBinAddr: 0x3EB4C, symSize: 0x80 }
  - { offset: 0x77425, size: 0x8, addend: 0x0, symName: __RNvNtNtCs3tyqko2rdGU_12serde_derive9internals4attr24parse_lit_into_expr_path, symObjAddr: 0x128EC, symBinAddr: 0x3EBCC, symSize: 0x310 }
  - { offset: 0x77522, size: 0x8, addend: 0x0, symName: __RNvNtNtCs3tyqko2rdGU_12serde_derive9internals4attr24parse_lit_into_lifetimes, symObjAddr: 0x12BFC, symBinAddr: 0x3EEDC, symSize: 0x3AC }
  - { offset: 0x77607, size: 0x8, addend: 0x0, symName: __RNvNtNtCs3tyqko2rdGU_12serde_derive9internals4attr29collect_lifetimes_from_tokens, symObjAddr: 0x12FA8, symBinAddr: 0x3F288, symSize: 0x388 }
  - { offset: 0x776E1, size: 0x8, addend: 0x0, symName: __RNvNtNtCs3tyqko2rdGU_12serde_derive9internals4attr32is_implicitly_borrowed_reference, symObjAddr: 0x13330, symBinAddr: 0x3F610, symSize: 0x88 }
  - { offset: 0x7770F, size: 0x8, addend: 0x0, symName: __RNvNtNtCs3tyqko2rdGU_12serde_derive9internals4attr5unraw, symObjAddr: 0x133B8, symBinAddr: 0x3F698, symSize: 0xE0 }
  - { offset: 0x7773B, size: 0x8, addend: 0x0, symName: __RNvNtNtCs3tyqko2rdGU_12serde_derive9internals4attr6is_cow, symObjAddr: 0x13498, symBinAddr: 0x3F778, symSize: 0x26C }
  - { offset: 0x77814, size: 0x8, addend: 0x0, symName: __RNvNtNtCs3tyqko2rdGU_12serde_derive9internals4attr6is_str, symObjAddr: 0x13704, symBinAddr: 0x3F9E4, symSize: 0x44 }
  - { offset: 0x77842, size: 0x8, addend: 0x0, symName: __RNvNtNtCs3tyqko2rdGU_12serde_derive9internals4attr9is_option, symObjAddr: 0x13748, symBinAddr: 0x3FA28, symSize: 0x224 }
  - { offset: 0x8168F, size: 0x8, addend: 0x0, symName: __RNvXsh_NtCscwCr4GBBztI_3syn5parseNCNvMs3_NtNtCs3tyqko2rdGU_12serde_derive9internals4attrNtBD_9Container8from_asts_0NtB5_6Parser14___parse_scopedBH_, symObjAddr: 0x1396C, symBinAddr: 0x3FC4C, symSize: 0x354 }
  - { offset: 0x817DC, size: 0x8, addend: 0x0, symName: __RNvXsh_NtCscwCr4GBBztI_3syn5parseNCNvNtNtCs3tyqko2rdGU_12serde_derive9internals4attr24parse_lit_into_lifetimes0NtB5_6Parser14___parse_scopedBD_, symObjAddr: 0x13CC0, symBinAddr: 0x3FFA0, symSize: 0x3B8 }
  - { offset: 0x82186, size: 0x8, addend: 0x0, symName: __RINvMNtNtCs3tyqko2rdGU_12serde_derive9internals4attrINtB3_4AttrINtNtCsdFlNUEO95cG_5alloc3vec3VecNtNtCscwCr4GBBztI_3syn8generics14WherePredicateEE3setRNtNtB1A_4path4PathEB7_, symObjAddr: 0x0, symBinAddr: 0x2C2E0, symSize: 0x274 }
  - { offset: 0x82246, size: 0x8, addend: 0x0, symName: __RINvMNtNtCs3tyqko2rdGU_12serde_derive9internals4attrINtB3_4AttrINtNtCsdFlNUEO95cG_5alloc3vec3VecNtNtCscwCr4GBBztI_3syn8generics14WherePredicateEE7set_optRNtNtB1A_4path4PathEB7_, symObjAddr: 0x274, symBinAddr: 0x2C554, symSize: 0xE0 }
  - { offset: 0x8234A, size: 0x8, addend: 0x0, symName: __RINvMNtNtCs3tyqko2rdGU_12serde_derive9internals4attrINtB3_4AttrINtNtNtNtCsdFlNUEO95cG_5alloc11collections5btree3set8BTreeSetNtNtCscwCr4GBBztI_3syn8lifetime8LifetimeEE3setRNtNtB22_4path4PathEB7_, symObjAddr: 0x354, symBinAddr: 0x2C634, symSize: 0x27C }
  - { offset: 0x82417, size: 0x8, addend: 0x0, symName: __RINvMNtNtCs3tyqko2rdGU_12serde_derive9internals4attrINtB3_4AttrNtB3_15BorrowAttributeE3setRNtNtCscwCr4GBBztI_3syn4path4PathEB7_, symObjAddr: 0x5D0, symBinAddr: 0x2C8B0, symSize: 0x27C }
  - { offset: 0x824E4, size: 0x8, addend: 0x0, symName: __RINvMNtNtCs3tyqko2rdGU_12serde_derive9internals4attrINtB3_4AttrNtB3_7DefaultE3setNtNtCscwCr4GBBztI_3syn4path4PathEB7_, symObjAddr: 0x84C, symBinAddr: 0x2CB2C, symSize: 0x280 }
  - { offset: 0x825A5, size: 0x8, addend: 0x0, symName: __RINvMNtNtCs3tyqko2rdGU_12serde_derive9internals4attrINtB3_4AttrNtB3_7DefaultE3setRNtNtCscwCr4GBBztI_3syn4path4PathEB7_, symObjAddr: 0xACC, symBinAddr: 0x2CDAC, symSize: 0x288 }
  - { offset: 0x82672, size: 0x8, addend: 0x0, symName: __RINvMNtNtCs3tyqko2rdGU_12serde_derive9internals4attrINtB3_4AttrNtNtB5_4case10RenameRuleE3setRNtNtCscwCr4GBBztI_3syn4path4PathEB7_, symObjAddr: 0xD54, symBinAddr: 0x2D034, symSize: 0x20C }
  - { offset: 0x8273E, size: 0x8, addend: 0x0, symName: __RINvMNtNtCs3tyqko2rdGU_12serde_derive9internals4attrINtB3_4AttrNtNtB5_4name4NameE3setRNtNtCscwCr4GBBztI_3syn4path4PathEB7_, symObjAddr: 0xF60, symBinAddr: 0x2D240, symSize: 0x274 }
  - { offset: 0x827FE, size: 0x8, addend: 0x0, symName: __RINvMNtNtCs3tyqko2rdGU_12serde_derive9internals4attrINtB3_4AttrNtNtB5_4name4NameE7set_optRNtNtCscwCr4GBBztI_3syn4path4PathEB7_, symObjAddr: 0x11D4, symBinAddr: 0x2D4B4, symSize: 0xE0 }
  - { offset: 0x82871, size: 0x8, addend: 0x0, symName: __RINvMNtNtCs3tyqko2rdGU_12serde_derive9internals4attrINtB3_4AttrNtNtCscwCr4GBBztI_3syn2ty4TypeE3setRNtNtB13_4path4PathEB7_, symObjAddr: 0x12B4, symBinAddr: 0x2D594, symSize: 0x27C }
  - { offset: 0x82931, size: 0x8, addend: 0x0, symName: __RINvMNtNtCs3tyqko2rdGU_12serde_derive9internals4attrINtB3_4AttrNtNtCscwCr4GBBztI_3syn2ty4TypeE7set_optRNtNtB13_4path4PathEB7_, symObjAddr: 0x1530, symBinAddr: 0x2D810, symSize: 0xE8 }
  - { offset: 0x829A4, size: 0x8, addend: 0x0, symName: __RINvMNtNtCs3tyqko2rdGU_12serde_derive9internals4attrINtB3_4AttrNtNtCscwCr4GBBztI_3syn4expr8ExprPathE3setRNtNtB13_4path4PathEB7_, symObjAddr: 0x1618, symBinAddr: 0x2D8F8, symSize: 0x288 }
  - { offset: 0x82A71, size: 0x8, addend: 0x0, symName: __RINvMNtNtCs3tyqko2rdGU_12serde_derive9internals4attrINtB3_4AttrNtNtCscwCr4GBBztI_3syn4path4PathE3setRBZ_EB7_, symObjAddr: 0x18A0, symBinAddr: 0x2DB80, symSize: 0x288 }
  - { offset: 0x82B3E, size: 0x8, addend: 0x0, symName: __RINvMNtNtCs3tyqko2rdGU_12serde_derive9internals4attrINtB3_4AttrNtNtCsdFlNUEO95cG_5alloc6string6StringE3setRNtNtCscwCr4GBBztI_3syn4path4PathEB7_, symObjAddr: 0x1B28, symBinAddr: 0x2DE08, symSize: 0x274 }
  - { offset: 0x82C0B, size: 0x8, addend: 0x0, symName: __RINvMNtNtCs3tyqko2rdGU_12serde_derive9internals4attrINtB3_4AttruE3setNtNtCscwCr4GBBztI_3syn4path4PathEB7_, symObjAddr: 0x1D9C, symBinAddr: 0x2E07C, symSize: 0x1FC }
  - { offset: 0x82CCA, size: 0x8, addend: 0x0, symName: __RINvMNtNtCs3tyqko2rdGU_12serde_derive9internals4attrINtB3_4AttruE3setRNtNtCscwCr4GBBztI_3syn4path4PathEB7_, symObjAddr: 0x1F98, symBinAddr: 0x2E278, symSize: 0x204 }
  - { offset: 0x82D95, size: 0x8, addend: 0x0, symName: __RINvMs0_NtNtCs3tyqko2rdGU_12serde_derive9internals4attrINtB6_7VecAttrINtNtCsdFlNUEO95cG_5alloc3vec3VecNtNtCscwCr4GBBztI_3syn8generics14WherePredicateEE6insertRNtNtB1G_4path4PathEBa_, symObjAddr: 0x219C, symBinAddr: 0x2E47C, symSize: 0x170 }
  - { offset: 0x82DF3, size: 0x8, addend: 0x0, symName: __RINvMs0_NtNtCs3tyqko2rdGU_12serde_derive9internals4attrINtB6_7VecAttrNtNtB8_4name4NameE6insertRNtNtCscwCr4GBBztI_3syn4path4PathEBa_, symObjAddr: 0x230C, symBinAddr: 0x2E5EC, symSize: 0x170 }
  - { offset: 0x82E51, size: 0x8, addend: 0x0, symName: __RINvMs0_NtNtCs3tyqko2rdGU_12serde_derive9internals4attrINtB6_7VecAttrNtNtCscwCr4GBBztI_3syn3lit6LitStrE6insertRNtNtB19_4path4PathEBa_, symObjAddr: 0x247C, symBinAddr: 0x2E75C, symSize: 0x15C }
  - { offset: 0x82EAE, size: 0x8, addend: 0x0, symName: __RINvMs_NtNtCs3tyqko2rdGU_12serde_derive9internals4attrNtB5_8BoolAttr8set_trueNtNtCscwCr4GBBztI_3syn4path4PathEB9_, symObjAddr: 0x25D8, symBinAddr: 0x2E8B8, symSize: 0x34 }
  - { offset: 0x82EE8, size: 0x8, addend: 0x0, symName: __RINvMs_NtNtCs3tyqko2rdGU_12serde_derive9internals4attrNtB5_8BoolAttr8set_trueRNtNtCscwCr4GBBztI_3syn4path4PathEB9_, symObjAddr: 0x260C, symBinAddr: 0x2E8EC, symSize: 0x3C }
  - { offset: 0x82F21, size: 0x8, addend: 0x0, symName: __RNvMNtNtCs3tyqko2rdGU_12serde_derive9internals4attrINtB2_4AttrINtNtCsdFlNUEO95cG_5alloc3vec3VecNtNtCscwCr4GBBztI_3syn8generics14WherePredicateEE3getB6_, symObjAddr: 0x99EC, symBinAddr: 0x35CCC, symSize: 0x38 }
  - { offset: 0x82F4D, size: 0x8, addend: 0x0, symName: __RNvMNtNtCs3tyqko2rdGU_12serde_derive9internals4attrINtB2_4AttrINtNtCsdFlNUEO95cG_5alloc3vec3VecNtNtCscwCr4GBBztI_3syn8generics14WherePredicateEE4noneB6_, symObjAddr: 0x9A24, symBinAddr: 0x35D04, symSize: 0x90 }
  - { offset: 0x82F86, size: 0x8, addend: 0x0, symName: __RNvMNtNtCs3tyqko2rdGU_12serde_derive9internals4attrINtB2_4AttrINtNtNtNtCsdFlNUEO95cG_5alloc11collections5btree3set8BTreeSetNtNtCscwCr4GBBztI_3syn8lifetime8LifetimeEE3getB6_, symObjAddr: 0x9AB4, symBinAddr: 0x35D94, symSize: 0x38 }
  - { offset: 0x82FB2, size: 0x8, addend: 0x0, symName: __RNvMNtNtCs3tyqko2rdGU_12serde_derive9internals4attrINtB2_4AttrINtNtNtNtCsdFlNUEO95cG_5alloc11collections5btree3set8BTreeSetNtNtCscwCr4GBBztI_3syn8lifetime8LifetimeEE4noneB6_, symObjAddr: 0x9AEC, symBinAddr: 0x35DCC, symSize: 0x8C }
  - { offset: 0x82FEB, size: 0x8, addend: 0x0, symName: __RNvMNtNtCs3tyqko2rdGU_12serde_derive9internals4attrINtB2_4AttrNtB2_15BorrowAttributeE3getB6_, symObjAddr: 0x9B78, symBinAddr: 0x35E58, symSize: 0x50 }
  - { offset: 0x83017, size: 0x8, addend: 0x0, symName: __RNvMNtNtCs3tyqko2rdGU_12serde_derive9internals4attrINtB2_4AttrNtB2_15BorrowAttributeE4noneB6_, symObjAddr: 0x9BC8, symBinAddr: 0x35EA8, symSize: 0x90 }
  - { offset: 0x83050, size: 0x8, addend: 0x0, symName: __RNvMNtNtCs3tyqko2rdGU_12serde_derive9internals4attrINtB2_4AttrNtB2_7DefaultE11set_if_noneB6_, symObjAddr: 0x9C58, symBinAddr: 0x35F38, symSize: 0x150 }
  - { offset: 0x8308A, size: 0x8, addend: 0x0, symName: __RNvMNtNtCs3tyqko2rdGU_12serde_derive9internals4attrINtB2_4AttrNtB2_7DefaultE3getB6_, symObjAddr: 0x9DA8, symBinAddr: 0x36088, symSize: 0x50 }
  - { offset: 0x830B6, size: 0x8, addend: 0x0, symName: __RNvMNtNtCs3tyqko2rdGU_12serde_derive9internals4attrINtB2_4AttrNtB2_7DefaultE4noneB6_, symObjAddr: 0x9DF8, symBinAddr: 0x360D8, symSize: 0x98 }
  - { offset: 0x830EF, size: 0x8, addend: 0x0, symName: __RNvMNtNtCs3tyqko2rdGU_12serde_derive9internals4attrINtB2_4AttrNtNtB4_4case10RenameRuleE3getB6_, symObjAddr: 0x9E90, symBinAddr: 0x36170, symSize: 0x38 }
  - { offset: 0x8311B, size: 0x8, addend: 0x0, symName: __RNvMNtNtCs3tyqko2rdGU_12serde_derive9internals4attrINtB2_4AttrNtNtB4_4case10RenameRuleE4noneB6_, symObjAddr: 0x9EC8, symBinAddr: 0x361A8, symSize: 0x80 }
  - { offset: 0x83154, size: 0x8, addend: 0x0, symName: __RNvMNtNtCs3tyqko2rdGU_12serde_derive9internals4attrINtB2_4AttrNtNtB4_4name4NameE11set_if_noneB6_, symObjAddr: 0x9F48, symBinAddr: 0x36228, symSize: 0x13C }
  - { offset: 0x8318E, size: 0x8, addend: 0x0, symName: __RNvMNtNtCs3tyqko2rdGU_12serde_derive9internals4attrINtB2_4AttrNtNtB4_4name4NameE3getB6_, symObjAddr: 0xA084, symBinAddr: 0x36364, symSize: 0x34 }
  - { offset: 0x831BA, size: 0x8, addend: 0x0, symName: __RNvMNtNtCs3tyqko2rdGU_12serde_derive9internals4attrINtB2_4AttrNtNtB4_4name4NameE4noneB6_, symObjAddr: 0xA0B8, symBinAddr: 0x36398, symSize: 0x90 }
  - { offset: 0x831F3, size: 0x8, addend: 0x0, symName: __RNvMNtNtCs3tyqko2rdGU_12serde_derive9internals4attrINtB2_4AttrNtNtCscwCr4GBBztI_3syn2ty4TypeE3getB6_, symObjAddr: 0xA148, symBinAddr: 0x36428, symSize: 0x50 }
  - { offset: 0x8321F, size: 0x8, addend: 0x0, symName: __RNvMNtNtCs3tyqko2rdGU_12serde_derive9internals4attrINtB2_4AttrNtNtCscwCr4GBBztI_3syn2ty4TypeE4noneB6_, symObjAddr: 0xA198, symBinAddr: 0x36478, symSize: 0x98 }
  - { offset: 0x83258, size: 0x8, addend: 0x0, symName: __RNvMNtNtCs3tyqko2rdGU_12serde_derive9internals4attrINtB2_4AttrNtNtCscwCr4GBBztI_3syn4expr8ExprPathE11set_if_noneB6_, symObjAddr: 0xA230, symBinAddr: 0x36510, symSize: 0x150 }
  - { offset: 0x83292, size: 0x8, addend: 0x0, symName: __RNvMNtNtCs3tyqko2rdGU_12serde_derive9internals4attrINtB2_4AttrNtNtCscwCr4GBBztI_3syn4expr8ExprPathE3getB6_, symObjAddr: 0xA380, symBinAddr: 0x36660, symSize: 0x50 }
  - { offset: 0x832BE, size: 0x8, addend: 0x0, symName: __RNvMNtNtCs3tyqko2rdGU_12serde_derive9internals4attrINtB2_4AttrNtNtCscwCr4GBBztI_3syn4expr8ExprPathE4noneB6_, symObjAddr: 0xA3D0, symBinAddr: 0x366B0, symSize: 0x94 }
  - { offset: 0x832F7, size: 0x8, addend: 0x0, symName: __RNvMNtNtCs3tyqko2rdGU_12serde_derive9internals4attrINtB2_4AttrNtNtCscwCr4GBBztI_3syn4path4PathE3getB6_, symObjAddr: 0xA464, symBinAddr: 0x36744, symSize: 0x50 }
  - { offset: 0x83323, size: 0x8, addend: 0x0, symName: __RNvMNtNtCs3tyqko2rdGU_12serde_derive9internals4attrINtB2_4AttrNtNtCscwCr4GBBztI_3syn4path4PathE4noneB6_, symObjAddr: 0xA4B4, symBinAddr: 0x36794, symSize: 0x94 }
  - { offset: 0x8337A, size: 0x8, addend: 0x0, symName: __RNvMNtNtCs3tyqko2rdGU_12serde_derive9internals4attrINtB2_4AttrNtNtCsdFlNUEO95cG_5alloc6string6StringE15get_with_tokensB6_, symObjAddr: 0xA548, symBinAddr: 0x36828, symSize: 0xF0 }
  - { offset: 0x833C3, size: 0x8, addend: 0x0, symName: __RNvMNtNtCs3tyqko2rdGU_12serde_derive9internals4attrINtB2_4AttrNtNtCsdFlNUEO95cG_5alloc6string6StringE3getB6_, symObjAddr: 0xA638, symBinAddr: 0x36918, symSize: 0x38 }
  - { offset: 0x833EF, size: 0x8, addend: 0x0, symName: __RNvMNtNtCs3tyqko2rdGU_12serde_derive9internals4attrINtB2_4AttrNtNtCsdFlNUEO95cG_5alloc6string6StringE4noneB6_, symObjAddr: 0xA670, symBinAddr: 0x36950, symSize: 0x90 }
  - { offset: 0x83446, size: 0x8, addend: 0x0, symName: __RNvMNtNtCs3tyqko2rdGU_12serde_derive9internals4attrINtB2_4AttruE15get_with_tokensB6_, symObjAddr: 0xA700, symBinAddr: 0x369E0, symSize: 0xC4 }
  - { offset: 0x8348F, size: 0x8, addend: 0x0, symName: __RNvMNtNtCs3tyqko2rdGU_12serde_derive9internals4attrINtB2_4AttruE4noneB6_, symObjAddr: 0xA7C4, symBinAddr: 0x36AA4, symSize: 0x7C }
  - { offset: 0x834C8, size: 0x8, addend: 0x0, symName: __RNvMs0_NtNtCs3tyqko2rdGU_12serde_derive9internals4attrINtB5_7VecAttrINtNtCsdFlNUEO95cG_5alloc3vec3VecNtNtCscwCr4GBBztI_3syn8generics14WherePredicateEE11at_most_oneB9_, symObjAddr: 0xA840, symBinAddr: 0x36B20, symSize: 0x1EC }
  - { offset: 0x83563, size: 0x8, addend: 0x0, symName: __RNvMs0_NtNtCs3tyqko2rdGU_12serde_derive9internals4attrINtB5_7VecAttrINtNtCsdFlNUEO95cG_5alloc3vec3VecNtNtCscwCr4GBBztI_3syn8generics14WherePredicateEE4noneB9_, symObjAddr: 0xAA2C, symBinAddr: 0x36D0C, symSize: 0xBC }
  - { offset: 0x8359C, size: 0x8, addend: 0x0, symName: __RNvMs0_NtNtCs3tyqko2rdGU_12serde_derive9internals4attrINtB5_7VecAttrNtNtB7_4name4NameE3getB9_, symObjAddr: 0xAAE8, symBinAddr: 0x36DC8, symSize: 0x3C }
  - { offset: 0x835C8, size: 0x8, addend: 0x0, symName: __RNvMs0_NtNtCs3tyqko2rdGU_12serde_derive9internals4attrINtB5_7VecAttrNtNtB7_4name4NameE4noneB9_, symObjAddr: 0xAB24, symBinAddr: 0x36E04, symSize: 0xBC }
  - { offset: 0x83601, size: 0x8, addend: 0x0, symName: __RNvMs0_NtNtCs3tyqko2rdGU_12serde_derive9internals4attrINtB5_7VecAttrNtNtCscwCr4GBBztI_3syn3lit6LitStrE11at_most_oneB9_, symObjAddr: 0xABE0, symBinAddr: 0x36EC0, symSize: 0x1FC }
  - { offset: 0x8369C, size: 0x8, addend: 0x0, symName: __RNvMs0_NtNtCs3tyqko2rdGU_12serde_derive9internals4attrINtB5_7VecAttrNtNtCscwCr4GBBztI_3syn3lit6LitStrE3getB9_, symObjAddr: 0xADDC, symBinAddr: 0x370BC, symSize: 0x3C }
  - { offset: 0x836C8, size: 0x8, addend: 0x0, symName: __RNvMs0_NtNtCs3tyqko2rdGU_12serde_derive9internals4attrINtB5_7VecAttrNtNtCscwCr4GBBztI_3syn3lit6LitStrE4noneB9_, symObjAddr: 0xAE18, symBinAddr: 0x370F8, symSize: 0xBC }
  - { offset: 0x83701, size: 0x8, addend: 0x0, symName: __RNvMs1_NtNtCs3tyqko2rdGU_12serde_derive9internals4attrNtB5_14RenameAllRules2or, symObjAddr: 0xAED4, symBinAddr: 0x371B4, symSize: 0x68 }
  - { offset: 0x8379D, size: 0x8, addend: 0x0, symName: __RNvMs3_NtNtCs3tyqko2rdGU_12serde_derive9internals4attrNtB5_9Container10identifier, symObjAddr: 0xAF3C, symBinAddr: 0x3721C, symSize: 0x28 }
  - { offset: 0x837C0, size: 0x8, addend: 0x0, symName: __RNvMs3_NtNtCs3tyqko2rdGU_12serde_derive9internals4attrNtB5_9Container11transparent, symObjAddr: 0xAF64, symBinAddr: 0x37244, symSize: 0x2C }
  - { offset: 0x837F0, size: 0x8, addend: 0x0, symName: __RNvMs3_NtNtCs3tyqko2rdGU_12serde_derive9internals4attrNtB5_9Container13type_try_from, symObjAddr: 0xAF90, symBinAddr: 0x37270, symSize: 0x34 }
  - { offset: 0x83813, size: 0x8, addend: 0x0, symName: __RNvMs3_NtNtCs3tyqko2rdGU_12serde_derive9internals4attrNtB5_9Container14non_exhaustive, symObjAddr: 0xAFC4, symBinAddr: 0x372A4, symSize: 0x2C }
  - { offset: 0x83836, size: 0x8, addend: 0x0, symName: __RNvMs3_NtNtCs3tyqko2rdGU_12serde_derive9internals4attrNtB5_9Container16rename_all_rules, symObjAddr: 0xAFF0, symBinAddr: 0x372D0, symSize: 0x30 }
  - { offset: 0x83859, size: 0x8, addend: 0x0, symName: __RNvMs3_NtNtCs3tyqko2rdGU_12serde_derive9internals4attrNtB5_9Container17custom_serde_path, symObjAddr: 0xB020, symBinAddr: 0x37300, symSize: 0x34 }
  - { offset: 0x8387C, size: 0x8, addend: 0x0, symName: __RNvMs3_NtNtCs3tyqko2rdGU_12serde_derive9internals4attrNtB5_9Container19deny_unknown_fields, symObjAddr: 0xB054, symBinAddr: 0x37334, symSize: 0x2C }
  - { offset: 0x8389F, size: 0x8, addend: 0x0, symName: __RNvMs3_NtNtCs3tyqko2rdGU_12serde_derive9internals4attrNtB5_9Container23rename_all_fields_rules, symObjAddr: 0xB080, symBinAddr: 0x37360, symSize: 0x30 }
  - { offset: 0x838CF, size: 0x8, addend: 0x0, symName: __RNvMs3_NtNtCs3tyqko2rdGU_12serde_derive9internals4attrNtB5_9Container3tag, symObjAddr: 0xB0B0, symBinAddr: 0x37390, symSize: 0x24 }
  - { offset: 0x838FF, size: 0x8, addend: 0x0, symName: __RNvMs3_NtNtCs3tyqko2rdGU_12serde_derive9internals4attrNtB5_9Container4name, symObjAddr: 0xB0D4, symBinAddr: 0x373B4, symSize: 0x24 }
  - { offset: 0x83922, size: 0x8, addend: 0x0, symName: __RNvMs3_NtNtCs3tyqko2rdGU_12serde_derive9internals4attrNtB5_9Container6remote, symObjAddr: 0xB0F8, symBinAddr: 0x373D8, symSize: 0x34 }
  - { offset: 0x83952, size: 0x8, addend: 0x0, symName: __RNvMs3_NtNtCs3tyqko2rdGU_12serde_derive9internals4attrNtB5_9Container7default, symObjAddr: 0xB12C, symBinAddr: 0x3740C, symSize: 0x24 }
  - { offset: 0x8399C, size: 0x8, addend: 0x0, symName: __RNvMs3_NtNtCs3tyqko2rdGU_12serde_derive9internals4attrNtB5_9Container8de_bound, symObjAddr: 0xB150, symBinAddr: 0x37430, symSize: 0x38 }
  - { offset: 0x839CC, size: 0x8, addend: 0x0, symName: __RNvMs3_NtNtCs3tyqko2rdGU_12serde_derive9internals4attrNtB5_9Container8from_ast, symObjAddr: 0xB188, symBinAddr: 0x37468, symSize: 0x1598 }
  - { offset: 0x83CCA, size: 0x8, addend: 0x0, symName: __RNvMs3_NtNtCs3tyqko2rdGU_12serde_derive9internals4attrNtB5_9Container9expecting, symObjAddr: 0xC720, symBinAddr: 0x38A00, symSize: 0x38 }
  - { offset: 0x83CED, size: 0x8, addend: 0x0, symName: __RNvMs3_NtNtCs3tyqko2rdGU_12serde_derive9internals4attrNtB5_9Container9is_packed, symObjAddr: 0xC758, symBinAddr: 0x38A38, symSize: 0x2C }
  - { offset: 0x83D10, size: 0x8, addend: 0x0, symName: __RNvMs3_NtNtCs3tyqko2rdGU_12serde_derive9internals4attrNtB5_9Container9ser_bound, symObjAddr: 0xC784, symBinAddr: 0x38A64, symSize: 0x38 }
  - { offset: 0x83D33, size: 0x8, addend: 0x0, symName: __RNvMs3_NtNtCs3tyqko2rdGU_12serde_derive9internals4attrNtB5_9Container9type_from, symObjAddr: 0xC7BC, symBinAddr: 0x38A9C, symSize: 0x34 }
  - { offset: 0x83D56, size: 0x8, addend: 0x0, symName: __RNvMs3_NtNtCs3tyqko2rdGU_12serde_derive9internals4attrNtB5_9Container9type_into, symObjAddr: 0xC7F0, symBinAddr: 0x38AD0, symSize: 0x34 }
  - { offset: 0x83D93, size: 0x8, addend: 0x0, symName: __RNvMs4_NtNtCs3tyqko2rdGU_12serde_derive9internals4attrNtB5_7Variant14serialize_with, symObjAddr: 0xC824, symBinAddr: 0x38B04, symSize: 0x34 }
  - { offset: 0x83DC3, size: 0x8, addend: 0x0, symName: __RNvMs4_NtNtCs3tyqko2rdGU_12serde_derive9internals4attrNtB5_7Variant15rename_by_rules, symObjAddr: 0xC858, symBinAddr: 0x38B38, symSize: 0x1B0 }
  - { offset: 0x83DF5, size: 0x8, addend: 0x0, symName: __RNvMs4_NtNtCs3tyqko2rdGU_12serde_derive9internals4attrNtB5_7Variant16deserialize_with, symObjAddr: 0xCA08, symBinAddr: 0x38CE8, symSize: 0x34 }
  - { offset: 0x83E18, size: 0x8, addend: 0x0, symName: __RNvMs4_NtNtCs3tyqko2rdGU_12serde_derive9internals4attrNtB5_7Variant16rename_all_rules, symObjAddr: 0xCA3C, symBinAddr: 0x38D1C, symSize: 0x30 }
  - { offset: 0x83E3B, size: 0x8, addend: 0x0, symName: __RNvMs4_NtNtCs3tyqko2rdGU_12serde_derive9internals4attrNtB5_7Variant16skip_serializing, symObjAddr: 0xCA6C, symBinAddr: 0x38D4C, symSize: 0x2C }
  - { offset: 0x83E5E, size: 0x8, addend: 0x0, symName: __RNvMs4_NtNtCs3tyqko2rdGU_12serde_derive9internals4attrNtB5_7Variant18skip_deserializing, symObjAddr: 0xCA98, symBinAddr: 0x38D78, symSize: 0x2C }
  - { offset: 0x83E81, size: 0x8, addend: 0x0, symName: __RNvMs4_NtNtCs3tyqko2rdGU_12serde_derive9internals4attrNtB5_7Variant4name, symObjAddr: 0xCAC4, symBinAddr: 0x38DA4, symSize: 0x24 }
  - { offset: 0x83EA4, size: 0x8, addend: 0x0, symName: __RNvMs4_NtNtCs3tyqko2rdGU_12serde_derive9internals4attrNtB5_7Variant5other, symObjAddr: 0xCAE8, symBinAddr: 0x38DC8, symSize: 0x2C }
  - { offset: 0x83ED4, size: 0x8, addend: 0x0, symName: __RNvMs4_NtNtCs3tyqko2rdGU_12serde_derive9internals4attrNtB5_7Variant7aliases, symObjAddr: 0xCB14, symBinAddr: 0x38DF4, symSize: 0x34 }
  - { offset: 0x83EF7, size: 0x8, addend: 0x0, symName: __RNvMs4_NtNtCs3tyqko2rdGU_12serde_derive9internals4attrNtB5_7Variant8de_bound, symObjAddr: 0xCB48, symBinAddr: 0x38E28, symSize: 0x38 }
  - { offset: 0x83F27, size: 0x8, addend: 0x0, symName: __RNvMs4_NtNtCs3tyqko2rdGU_12serde_derive9internals4attrNtB5_7Variant8from_ast, symObjAddr: 0xCB80, symBinAddr: 0x38E60, symSize: 0xC04 }
  - { offset: 0x840F6, size: 0x8, addend: 0x0, symName: __RNvMs4_NtNtCs3tyqko2rdGU_12serde_derive9internals4attrNtB5_7Variant8untagged, symObjAddr: 0xD784, symBinAddr: 0x39A64, symSize: 0x2C }
  - { offset: 0x84119, size: 0x8, addend: 0x0, symName: __RNvMs4_NtNtCs3tyqko2rdGU_12serde_derive9internals4attrNtB5_7Variant9ser_bound, symObjAddr: 0xD7B0, symBinAddr: 0x39A90, symSize: 0x38 }
  - { offset: 0x8413C, size: 0x8, addend: 0x0, symName: __RNvMs5_NtNtCs3tyqko2rdGU_12serde_derive9internals4attrNtB5_7Default7is_none, symObjAddr: 0xD7E8, symBinAddr: 0x39AC8, symSize: 0x7C }
  - { offset: 0x8416C, size: 0x8, addend: 0x0, symName: __RNvMs6_NtNtCs3tyqko2rdGU_12serde_derive9internals4attrNtB5_5Field11transparent, symObjAddr: 0xD864, symBinAddr: 0x39B44, symSize: 0x2C }
  - { offset: 0x8418F, size: 0x8, addend: 0x0, symName: __RNvMs6_NtNtCs3tyqko2rdGU_12serde_derive9internals4attrNtB5_5Field14serialize_with, symObjAddr: 0xD890, symBinAddr: 0x39B70, symSize: 0x34 }
  - { offset: 0x841BF, size: 0x8, addend: 0x0, symName: __RNvMs6_NtNtCs3tyqko2rdGU_12serde_derive9internals4attrNtB5_5Field15rename_by_rules, symObjAddr: 0xD8C4, symBinAddr: 0x39BA4, symSize: 0x1A8 }
  - { offset: 0x841F1, size: 0x8, addend: 0x0, symName: __RNvMs6_NtNtCs3tyqko2rdGU_12serde_derive9internals4attrNtB5_5Field16deserialize_with, symObjAddr: 0xDA6C, symBinAddr: 0x39D4C, symSize: 0x34 }
  - { offset: 0x84214, size: 0x8, addend: 0x0, symName: __RNvMs6_NtNtCs3tyqko2rdGU_12serde_derive9internals4attrNtB5_5Field16mark_transparent, symObjAddr: 0xDAA0, symBinAddr: 0x39D80, symSize: 0x2C }
  - { offset: 0x84237, size: 0x8, addend: 0x0, symName: __RNvMs6_NtNtCs3tyqko2rdGU_12serde_derive9internals4attrNtB5_5Field16skip_serializing, symObjAddr: 0xDACC, symBinAddr: 0x39DAC, symSize: 0x2C }
  - { offset: 0x84267, size: 0x8, addend: 0x0, symName: __RNvMs6_NtNtCs3tyqko2rdGU_12serde_derive9internals4attrNtB5_5Field18borrowed_lifetimes, symObjAddr: 0xDAF8, symBinAddr: 0x39DD8, symSize: 0x24 }
  - { offset: 0x8428A, size: 0x8, addend: 0x0, symName: __RNvMs6_NtNtCs3tyqko2rdGU_12serde_derive9internals4attrNtB5_5Field18skip_deserializing, symObjAddr: 0xDB1C, symBinAddr: 0x39DFC, symSize: 0x2C }
  - { offset: 0x842AD, size: 0x8, addend: 0x0, symName: __RNvMs6_NtNtCs3tyqko2rdGU_12serde_derive9internals4attrNtB5_5Field19skip_serializing_if, symObjAddr: 0xDB48, symBinAddr: 0x39E28, symSize: 0x34 }
  - { offset: 0x842D0, size: 0x8, addend: 0x0, symName: __RNvMs6_NtNtCs3tyqko2rdGU_12serde_derive9internals4attrNtB5_5Field4name, symObjAddr: 0xDB7C, symBinAddr: 0x39E5C, symSize: 0x24 }
  - { offset: 0x842F3, size: 0x8, addend: 0x0, symName: __RNvMs6_NtNtCs3tyqko2rdGU_12serde_derive9internals4attrNtB5_5Field6getter, symObjAddr: 0xDBA0, symBinAddr: 0x39E80, symSize: 0x34 }
  - { offset: 0x84316, size: 0x8, addend: 0x0, symName: __RNvMs6_NtNtCs3tyqko2rdGU_12serde_derive9internals4attrNtB5_5Field7aliases, symObjAddr: 0xDBD4, symBinAddr: 0x39EB4, symSize: 0x34 }
  - { offset: 0x84339, size: 0x8, addend: 0x0, symName: __RNvMs6_NtNtCs3tyqko2rdGU_12serde_derive9internals4attrNtB5_5Field7default, symObjAddr: 0xDC08, symBinAddr: 0x39EE8, symSize: 0x24 }
  - { offset: 0x8435C, size: 0x8, addend: 0x0, symName: __RNvMs6_NtNtCs3tyqko2rdGU_12serde_derive9internals4attrNtB5_5Field7flatten, symObjAddr: 0xDC2C, symBinAddr: 0x39F0C, symSize: 0x2C }
  - { offset: 0x8437F, size: 0x8, addend: 0x0, symName: __RNvMs6_NtNtCs3tyqko2rdGU_12serde_derive9internals4attrNtB5_5Field8de_bound, symObjAddr: 0xDC58, symBinAddr: 0x39F38, symSize: 0x38 }
  - { offset: 0x843BC, size: 0x8, addend: 0x0, symName: __RNvMs6_NtNtCs3tyqko2rdGU_12serde_derive9internals4attrNtB5_5Field8from_ast, symObjAddr: 0xDC90, symBinAddr: 0x39F70, symSize: 0x17E4 }
  - { offset: 0x8479E, size: 0x8, addend: 0x0, symName: __RNvMs6_NtNtCs3tyqko2rdGU_12serde_derive9internals4attrNtB5_5Field9ser_bound, symObjAddr: 0xF474, symBinAddr: 0x3B754, symSize: 0x38 }
  - { offset: 0x847CE, size: 0x8, addend: 0x0, symName: __RNvMs_NtNtCs3tyqko2rdGU_12serde_derive9internals4attrNtB4_8BoolAttr3get, symObjAddr: 0xF4AC, symBinAddr: 0x3B78C, symSize: 0x34 }
  - { offset: 0x847F0, size: 0x8, addend: 0x0, symName: __RNvMs_NtNtCs3tyqko2rdGU_12serde_derive9internals4attrNtB4_8BoolAttr4none, symObjAddr: 0xF4E0, symBinAddr: 0x3B7C0, symSize: 0x60 }
  - { offset: 0x84DDF, size: 0x8, addend: 0x0, symName: __RINvNtCs85QQFkKrybG_4core3mem4takeINtNtCscwCr4GBBztI_3syn10punctuated10PunctuatedNtNtBB_4path11PathSegmentNtNtBB_5token7PathSepEECs3tyqko2rdGU_12serde_derive, symObjAddr: 0x0, symBinAddr: 0x40358, symSize: 0x54 }
  - { offset: 0x8573F, size: 0x8, addend: 0x0, symName: __RINvNtCscwCr4GBBztI_3syn10punctuated9do_extendNtNtB4_4path11PathSegmentNtNtB4_5token7PathSepINtNtNtNtCs85QQFkKrybG_4core4iter8adapters4skip4SkipINtB2_9IntoPairsBI_B17_EEECs3tyqko2rdGU_12serde_derive, symObjAddr: 0xB0, symBinAddr: 0x40408, symSize: 0x3B0 }
  - { offset: 0x8583C, size: 0x8, addend: 0x0, symName: __RINvXs0_NtCscwCr4GBBztI_3syn10punctuatedINtB6_10PunctuatedNtNtB8_4path11PathSegmentNtNtB8_5token7PathSepEINtNtNtNtCs85QQFkKrybG_4core4iter6traits7collect12FromIteratorBU_E9from_iterINtNtNtCsdFlNUEO95cG_5alloc3vec9into_iter8IntoIterBU_EECs3tyqko2rdGU_12serde_derive, symObjAddr: 0x970, symBinAddr: 0x40CC8, symSize: 0xD4 }
  - { offset: 0x8589C, size: 0x8, addend: 0x0, symName: __RINvXs0_NtCscwCr4GBBztI_3syn10punctuatedINtB6_10PunctuatedNtNtB8_4path15GenericArgumentNtNtB8_5token5CommaEINtNtNtNtCs85QQFkKrybG_4core4iter6traits7collect12FromIteratorBU_E9from_iterINtNtNtB1O_8adapters3map3MapINtB6_4IterNtNtB8_8generics12GenericParamENCNvNtCs3tyqko2rdGU_12serde_derive5bound12type_of_item0EEB49_, symObjAddr: 0xA44, symBinAddr: 0x40D9C, symSize: 0xC8 }
  - { offset: 0x858FB, size: 0x8, addend: 0x0, symName: __RINvXs0_NtCscwCr4GBBztI_3syn10punctuatedINtB6_10PunctuatedNtNtB8_8generics12GenericParamNtNtB8_5token5CommaEINtNtNtNtCs85QQFkKrybG_4core4iter6traits7collect12FromIteratorBU_E9from_iterINtNtNtB1P_8adapters3map3MapINtB6_4IterBU_ENCNvNtCs3tyqko2rdGU_12serde_derive5bound16without_defaults0EEB3J_, symObjAddr: 0xB0C, symBinAddr: 0x40E64, symSize: 0xC8 }
  - { offset: 0x8595A, size: 0x8, addend: 0x0, symName: __RINvXs0_NtCscwCr4GBBztI_3syn10punctuatedINtB6_10PunctuatedNtNtB8_8generics12GenericParamNtNtB8_5token5CommaEINtNtNtNtCs85QQFkKrybG_4core4iter6traits7collect12FromIteratorBU_E9from_iterINtNtNtB1P_8adapters5chain5ChainINtNtB1R_6option8IntoIterBU_EINtB6_8IntoIterBU_EEECs3tyqko2rdGU_12serde_derive, symObjAddr: 0xBD4, symBinAddr: 0x40F2C, symSize: 0xE0 }
  - { offset: 0x859BA, size: 0x8, addend: 0x0, symName: __RINvXs0_NtCscwCr4GBBztI_3syn10punctuatedINtB6_10PunctuatedNtNtB8_8generics12GenericParamNtNtB8_5token5CommaEINtNtNtNtCs85QQFkKrybG_4core4iter6traits7collect12FromIteratorBU_E9from_iterINtNtNtB1P_8adapters5chain5ChainINtNtB1R_6option8IntoIterBU_EINtNtB31_3map3MapINtNtB31_6cloned6ClonedINtB6_4IterBU_EENCNvNtCs3tyqko2rdGU_12serde_derive5bound19with_lifetime_bound0EEEB4V_, symObjAddr: 0xCB4, symBinAddr: 0x4100C, symSize: 0xE0 }
  - { offset: 0x85A1A, size: 0x8, addend: 0x0, symName: __RINvXs0_NtCscwCr4GBBztI_3syn10punctuatedINtB6_10PunctuatedNtNtB8_8generics14TypeParamBoundNtNtB8_5token4PlusEINtNtNtNtCs85QQFkKrybG_4core4iter6traits7collect12FromIteratorBU_E9from_iterINtNtNtCsdFlNUEO95cG_5alloc3vec9into_iter8IntoIterBU_EECs3tyqko2rdGU_12serde_derive, symObjAddr: 0xD94, symBinAddr: 0x410EC, symSize: 0xD4 }
  - { offset: 0x85A7A, size: 0x8, addend: 0x0, symName: __RINvXs0_NtCscwCr4GBBztI_3syn10punctuatedINtB6_10PunctuatedNtNtB8_8lifetime8LifetimeNtNtB8_5token4PlusEINtNtNtNtCs85QQFkKrybG_4core4iter6traits7collect12FromIteratorBU_E9from_iterINtNtNtB1J_8adapters6cloned6ClonedINtNtNtNtCsdFlNUEO95cG_5alloc11collections5btree3set4IterBU_EEECs3tyqko2rdGU_12serde_derive, symObjAddr: 0xE68, symBinAddr: 0x411C0, symSize: 0xD0 }
  - { offset: 0x85AE0, size: 0x8, addend: 0x0, symName: __RINvXs1_NtCscwCr4GBBztI_3syn10punctuatedINtB6_10PunctuatedNtNtB8_4path11PathSegmentNtNtB8_5token7PathSepEINtNtNtNtCs85QQFkKrybG_4core4iter6traits7collect6ExtendBU_E6extendINtNtNtCsdFlNUEO95cG_5alloc3vec9into_iter8IntoIterBU_EECs3tyqko2rdGU_12serde_derive, symObjAddr: 0xF38, symBinAddr: 0x41290, symSize: 0xF8 }
  - { offset: 0x85B62, size: 0x8, addend: 0x0, symName: __RINvXs1_NtCscwCr4GBBztI_3syn10punctuatedINtB6_10PunctuatedNtNtB8_4path15GenericArgumentNtNtB8_5token5CommaEINtNtNtNtCs85QQFkKrybG_4core4iter6traits7collect6ExtendBU_E6extendINtNtNtB1O_8adapters3map3MapINtB6_4IterNtNtB8_8generics12GenericParamENCNvNtCs3tyqko2rdGU_12serde_derive5bound12type_of_item0EEB3Z_, symObjAddr: 0x1030, symBinAddr: 0x41388, symSize: 0xF8 }
  - { offset: 0x85BE3, size: 0x8, addend: 0x0, symName: __RINvXs1_NtCscwCr4GBBztI_3syn10punctuatedINtB6_10PunctuatedNtNtB8_8generics12GenericParamNtNtB8_5token5CommaEINtNtNtNtCs85QQFkKrybG_4core4iter6traits7collect6ExtendBU_E6extendINtNtNtB1P_8adapters3map3MapINtB6_4IterBU_ENCNvNtCs3tyqko2rdGU_12serde_derive5bound16without_defaults0EEB3z_, symObjAddr: 0x1128, symBinAddr: 0x41480, symSize: 0xF8 }
  - { offset: 0x85C64, size: 0x8, addend: 0x0, symName: __RINvXs1_NtCscwCr4GBBztI_3syn10punctuatedINtB6_10PunctuatedNtNtB8_8generics12GenericParamNtNtB8_5token5CommaEINtNtNtNtCs85QQFkKrybG_4core4iter6traits7collect6ExtendBU_E6extendINtNtNtB1P_8adapters5chain5ChainINtNtB1R_6option8IntoIterBU_EINtB6_8IntoIterBU_EEECs3tyqko2rdGU_12serde_derive, symObjAddr: 0x1220, symBinAddr: 0x41578, symSize: 0xFC }
  - { offset: 0x85CE7, size: 0x8, addend: 0x0, symName: __RINvXs1_NtCscwCr4GBBztI_3syn10punctuatedINtB6_10PunctuatedNtNtB8_8generics12GenericParamNtNtB8_5token5CommaEINtNtNtNtCs85QQFkKrybG_4core4iter6traits7collect6ExtendBU_E6extendINtNtNtB1P_8adapters5chain5ChainINtNtB1R_6option8IntoIterBU_EINtNtB2R_3map3MapINtNtB2R_6cloned6ClonedINtB6_4IterBU_EENCNvNtCs3tyqko2rdGU_12serde_derive5bound19with_lifetime_bound0EEEB4L_, symObjAddr: 0x131C, symBinAddr: 0x41674, symSize: 0xFC }
  - { offset: 0x85D6A, size: 0x8, addend: 0x0, symName: __RINvXs1_NtCscwCr4GBBztI_3syn10punctuatedINtB6_10PunctuatedNtNtB8_8generics14TypeParamBoundNtNtB8_5token4PlusEINtNtNtNtCs85QQFkKrybG_4core4iter6traits7collect6ExtendBU_E6extendINtNtNtCsdFlNUEO95cG_5alloc3vec9into_iter8IntoIterBU_EECs3tyqko2rdGU_12serde_derive, symObjAddr: 0x1418, symBinAddr: 0x41770, symSize: 0xF4 }
  - { offset: 0x85DEC, size: 0x8, addend: 0x0, symName: __RINvXs1_NtCscwCr4GBBztI_3syn10punctuatedINtB6_10PunctuatedNtNtB8_8generics14WherePredicateNtNtB8_5token5CommaEINtNtNtNtCs85QQFkKrybG_4core4iter6traits7collect6ExtendBU_E6extendINtNtNtB1R_8adapters3map3MapINtNtB2T_5chain5ChainIB2P_INtNtB2T_6filter6FilterIB2P_NtBW_10TypeParamsNCNvNtCs3tyqko2rdGU_12serde_derive5bound10with_bounds1_0ENCB4r_s2_0ENCB4r_s3_0EINtNtB2T_6cloned6ClonedINtNtNtCsdFlNUEO95cG_5alloc3vec9into_iter8IntoIterRNtNtB8_2ty8TypePathEEENCB4r_s4_0EEB4v_, symObjAddr: 0x150C, symBinAddr: 0x41864, symSize: 0xF8 }
  - { offset: 0x85E6F, size: 0x8, addend: 0x0, symName: __RINvXs1_NtCscwCr4GBBztI_3syn10punctuatedINtB6_10PunctuatedNtNtB8_8generics14WherePredicateNtNtB8_5token5CommaEINtNtNtNtCs85QQFkKrybG_4core4iter6traits7collect6ExtendBU_E6extendINtNtNtB1R_8adapters6cloned6ClonedINtNtNtB1T_5slice4iter4IterBU_EEECs3tyqko2rdGU_12serde_derive, symObjAddr: 0x1604, symBinAddr: 0x4195C, symSize: 0xE0 }
  - { offset: 0x85EF0, size: 0x8, addend: 0x0, symName: __RINvXs1_NtCscwCr4GBBztI_3syn10punctuatedINtB6_10PunctuatedNtNtB8_8generics14WherePredicateNtNtB8_5token5CommaEINtNtNtNtCs85QQFkKrybG_4core4iter6traits7collect6ExtendBU_E6extendINtNtNtB1R_8adapters7flatten7FlatMapINtNtB2T_10filter_map9FilterMapINtNtCsdFlNUEO95cG_5alloc5boxed3BoxDNtNtB1P_8iterator8Iteratorp4ItemRNtNtNtCs3tyqko2rdGU_12serde_derive9internals3ast5FieldEL_ENCNvNtB56_5bound33with_where_predicates_from_fields0EINtNtB3Y_3vec3VecBU_ENvMNtB3Y_5sliceSBU_6to_vecEEB56_, symObjAddr: 0x16E4, symBinAddr: 0x41A3C, symSize: 0xF8 }
  - { offset: 0x85F73, size: 0x8, addend: 0x0, symName: __RINvXs1_NtCscwCr4GBBztI_3syn10punctuatedINtB6_10PunctuatedNtNtB8_8generics14WherePredicateNtNtB8_5token5CommaEINtNtNtNtCs85QQFkKrybG_4core4iter6traits7collect6ExtendBU_E6extendINtNtNtB1R_8adapters7flatten7FlatMapINtNtB2T_10filter_map9FilterMapINtNtNtB1T_5slice4iter4IterNtNtNtCs3tyqko2rdGU_12serde_derive9internals3ast7VariantENCNvNtB4q_5bound35with_where_predicates_from_variants0EINtNtCsdFlNUEO95cG_5alloc3vec3VecBU_ENvMNtB6d_5sliceSBU_6to_vecEEB4q_, symObjAddr: 0x17DC, symBinAddr: 0x41B34, symSize: 0xF8 }
  - { offset: 0x85FF6, size: 0x8, addend: 0x0, symName: __RINvXs1_NtCscwCr4GBBztI_3syn10punctuatedINtB6_10PunctuatedNtNtB8_8lifetime8LifetimeNtNtB8_5token4PlusEINtNtNtNtCs85QQFkKrybG_4core4iter6traits7collect6ExtendBU_E6extendINtNtNtB1J_8adapters6cloned6ClonedINtNtNtNtCsdFlNUEO95cG_5alloc11collections5btree3set4IterBU_EEECs3tyqko2rdGU_12serde_derive, symObjAddr: 0x18D4, symBinAddr: 0x41C2C, symSize: 0xD8 }
  - { offset: 0x8607F, size: 0x8, addend: 0x0, symName: __RINvXs2_NtCscwCr4GBBztI_3syn10punctuatedINtB6_10PunctuatedNtNtB8_4path11PathSegmentNtNtB8_5token7PathSepEINtNtNtNtCs85QQFkKrybG_4core4iter6traits7collect12FromIteratorINtB6_4PairBU_B1j_EE9from_iterINtNtNtB1M_8adapters4skip4SkipINtB6_9IntoPairsBU_B1j_EEECs3tyqko2rdGU_12serde_derive, symObjAddr: 0x19AC, symBinAddr: 0x41D04, symSize: 0xF0 }
  - { offset: 0x860E5, size: 0x8, addend: 0x0, symName: __RINvXs3_NtCscwCr4GBBztI_3syn10punctuatedINtB6_10PunctuatedNtNtB8_4path11PathSegmentNtNtB8_5token7PathSepEINtNtNtNtCs85QQFkKrybG_4core4iter6traits7collect6ExtendINtB6_4PairBU_B1j_EE6extendINtNtNtB1M_8adapters4skip4SkipINtB6_9IntoPairsBU_B1j_EEECs3tyqko2rdGU_12serde_derive, symObjAddr: 0x1A9C, symBinAddr: 0x41DF4, symSize: 0x124 }
  - { offset: 0x86186, size: 0x8, addend: 0x0, symName: __RNCNCNvXsC_NtCscwCr4GBBztI_3syn10punctuatedINtB9_14PrivateIterMutNtNtBb_2ty4TypeNtNtBb_5token5CommaENtNtNtNtCs85QQFkKrybG_4core4iter6traits12double_ended19DoubleEndedIterator9next_back00Cs3tyqko2rdGU_12serde_derive, symObjAddr: 0x3804, symBinAddr: 0x43B5C, symSize: 0x14 }
  - { offset: 0x861D1, size: 0x8, addend: 0x0, symName: __RNCNCNvXsC_NtCscwCr4GBBztI_3syn10punctuatedINtB9_14PrivateIterMutNtNtBb_2ty9BareFnArgNtNtBb_5token5CommaENtNtNtNtCs85QQFkKrybG_4core4iter6traits12double_ended19DoubleEndedIterator9next_back00Cs3tyqko2rdGU_12serde_derive, symObjAddr: 0x3818, symBinAddr: 0x43B70, symSize: 0x14 }
  - { offset: 0x8621C, size: 0x8, addend: 0x0, symName: __RNCNCNvXsC_NtCscwCr4GBBztI_3syn10punctuatedINtB9_14PrivateIterMutNtNtBb_4data7VariantNtNtBb_5token5CommaENtNtNtNtCs85QQFkKrybG_4core4iter6traits12double_ended19DoubleEndedIterator9next_back00Cs3tyqko2rdGU_12serde_derive, symObjAddr: 0x382C, symBinAddr: 0x43B84, symSize: 0x14 }
  - { offset: 0x86267, size: 0x8, addend: 0x0, symName: __RNCNCNvXsC_NtCscwCr4GBBztI_3syn10punctuatedINtB9_14PrivateIterMutNtNtBb_4expr4ExprNtNtBb_5token5CommaENtNtNtNtCs85QQFkKrybG_4core4iter6traits12double_ended19DoubleEndedIterator9next_back00Cs3tyqko2rdGU_12serde_derive, symObjAddr: 0x3840, symBinAddr: 0x43B98, symSize: 0x14 }
  - { offset: 0x862B2, size: 0x8, addend: 0x0, symName: __RNCNCNvXsC_NtCscwCr4GBBztI_3syn10punctuatedINtB9_14PrivateIterMutNtNtBb_4path15GenericArgumentNtNtBb_5token5CommaENtNtNtNtCs85QQFkKrybG_4core4iter6traits12double_ended19DoubleEndedIterator9next_back00Cs3tyqko2rdGU_12serde_derive, symObjAddr: 0x3854, symBinAddr: 0x43BAC, symSize: 0x14 }
  - { offset: 0x862FD, size: 0x8, addend: 0x0, symName: __RNCNCNvXsC_NtCscwCr4GBBztI_3syn10punctuatedINtB9_14PrivateIterMutNtNtBb_8generics14TypeParamBoundNtNtBb_5token4PlusENtNtNtNtCs85QQFkKrybG_4core4iter6traits12double_ended19DoubleEndedIterator9next_back00Cs3tyqko2rdGU_12serde_derive, symObjAddr: 0x3868, symBinAddr: 0x43BC0, symSize: 0x14 }
  - { offset: 0x86348, size: 0x8, addend: 0x0, symName: __RNCNCNvXsC_NtCscwCr4GBBztI_3syn10punctuatedINtB9_14PrivateIterMutNtNtBb_8generics14WherePredicateNtNtBb_5token5CommaENtNtNtNtCs85QQFkKrybG_4core4iter6traits12double_ended19DoubleEndedIterator9next_back00Cs3tyqko2rdGU_12serde_derive, symObjAddr: 0x387C, symBinAddr: 0x43BD4, symSize: 0x14 }
  - { offset: 0x863C5, size: 0x8, addend: 0x0, symName: __RNCNvXsC_NtCscwCr4GBBztI_3syn10punctuatedINtB7_14PrivateIterMutNtNtB9_2ty4TypeNtNtB9_5token5CommaENtNtNtNtCs85QQFkKrybG_4core4iter6traits12double_ended19DoubleEndedIterator9next_back0Cs3tyqko2rdGU_12serde_derive, symObjAddr: 0x3B1C, symBinAddr: 0x43E74, symSize: 0x38 }
  - { offset: 0x86407, size: 0x8, addend: 0x0, symName: __RNCNvXsC_NtCscwCr4GBBztI_3syn10punctuatedINtB7_14PrivateIterMutNtNtB9_2ty9BareFnArgNtNtB9_5token5CommaENtNtNtNtCs85QQFkKrybG_4core4iter6traits12double_ended19DoubleEndedIterator9next_back0Cs3tyqko2rdGU_12serde_derive, symObjAddr: 0x3B54, symBinAddr: 0x43EAC, symSize: 0x38 }
  - { offset: 0x86449, size: 0x8, addend: 0x0, symName: __RNCNvXsC_NtCscwCr4GBBztI_3syn10punctuatedINtB7_14PrivateIterMutNtNtB9_4data7VariantNtNtB9_5token5CommaENtNtNtNtCs85QQFkKrybG_4core4iter6traits12double_ended19DoubleEndedIterator9next_back0Cs3tyqko2rdGU_12serde_derive, symObjAddr: 0x3B8C, symBinAddr: 0x43EE4, symSize: 0x38 }
  - { offset: 0x8648B, size: 0x8, addend: 0x0, symName: __RNCNvXsC_NtCscwCr4GBBztI_3syn10punctuatedINtB7_14PrivateIterMutNtNtB9_4expr4ExprNtNtB9_5token5CommaENtNtNtNtCs85QQFkKrybG_4core4iter6traits12double_ended19DoubleEndedIterator9next_back0Cs3tyqko2rdGU_12serde_derive, symObjAddr: 0x3BC4, symBinAddr: 0x43F1C, symSize: 0x38 }
  - { offset: 0x864CD, size: 0x8, addend: 0x0, symName: __RNCNvXsC_NtCscwCr4GBBztI_3syn10punctuatedINtB7_14PrivateIterMutNtNtB9_4path15GenericArgumentNtNtB9_5token5CommaENtNtNtNtCs85QQFkKrybG_4core4iter6traits12double_ended19DoubleEndedIterator9next_back0Cs3tyqko2rdGU_12serde_derive, symObjAddr: 0x3BFC, symBinAddr: 0x43F54, symSize: 0x38 }
  - { offset: 0x8650F, size: 0x8, addend: 0x0, symName: __RNCNvXsC_NtCscwCr4GBBztI_3syn10punctuatedINtB7_14PrivateIterMutNtNtB9_8generics14TypeParamBoundNtNtB9_5token4PlusENtNtNtNtCs85QQFkKrybG_4core4iter6traits12double_ended19DoubleEndedIterator9next_back0Cs3tyqko2rdGU_12serde_derive, symObjAddr: 0x3C34, symBinAddr: 0x43F8C, symSize: 0x38 }
  - { offset: 0x86551, size: 0x8, addend: 0x0, symName: __RNCNvXsC_NtCscwCr4GBBztI_3syn10punctuatedINtB7_14PrivateIterMutNtNtB9_8generics14WherePredicateNtNtB9_5token5CommaENtNtNtNtCs85QQFkKrybG_4core4iter6traits12double_ended19DoubleEndedIterator9next_back0Cs3tyqko2rdGU_12serde_derive, symObjAddr: 0x3C6C, symBinAddr: 0x43FC4, symSize: 0x38 }
  - { offset: 0x86594, size: 0x8, addend: 0x0, symName: __RNvXsC_NtCscwCr4GBBztI_3syn10punctuatedINtB5_14PrivateIterMutNtNtB7_2ty4TypeNtNtB7_5token5CommaENtNtNtNtCs85QQFkKrybG_4core4iter6traits12double_ended19DoubleEndedIterator9next_backCs3tyqko2rdGU_12serde_derive, symObjAddr: 0x723C, symBinAddr: 0x47594, symSize: 0x40 }
  - { offset: 0x865D4, size: 0x8, addend: 0x0, symName: __RNvXsC_NtCscwCr4GBBztI_3syn10punctuatedINtB5_14PrivateIterMutNtNtB7_2ty9BareFnArgNtNtB7_5token5CommaENtNtNtNtCs85QQFkKrybG_4core4iter6traits12double_ended19DoubleEndedIterator9next_backCs3tyqko2rdGU_12serde_derive, symObjAddr: 0x727C, symBinAddr: 0x475D4, symSize: 0x40 }
  - { offset: 0x86614, size: 0x8, addend: 0x0, symName: __RNvXsC_NtCscwCr4GBBztI_3syn10punctuatedINtB5_14PrivateIterMutNtNtB7_4data7VariantNtNtB7_5token5CommaENtNtNtNtCs85QQFkKrybG_4core4iter6traits12double_ended19DoubleEndedIterator9next_backCs3tyqko2rdGU_12serde_derive, symObjAddr: 0x72BC, symBinAddr: 0x47614, symSize: 0x40 }
  - { offset: 0x86654, size: 0x8, addend: 0x0, symName: __RNvXsC_NtCscwCr4GBBztI_3syn10punctuatedINtB5_14PrivateIterMutNtNtB7_4expr4ExprNtNtB7_5token5CommaENtNtNtNtCs85QQFkKrybG_4core4iter6traits12double_ended19DoubleEndedIterator9next_backCs3tyqko2rdGU_12serde_derive, symObjAddr: 0x72FC, symBinAddr: 0x47654, symSize: 0x40 }
  - { offset: 0x86694, size: 0x8, addend: 0x0, symName: __RNvXsC_NtCscwCr4GBBztI_3syn10punctuatedINtB5_14PrivateIterMutNtNtB7_4path15GenericArgumentNtNtB7_5token5CommaENtNtNtNtCs85QQFkKrybG_4core4iter6traits12double_ended19DoubleEndedIterator9next_backCs3tyqko2rdGU_12serde_derive, symObjAddr: 0x733C, symBinAddr: 0x47694, symSize: 0x40 }
  - { offset: 0x866D4, size: 0x8, addend: 0x0, symName: __RNvXsC_NtCscwCr4GBBztI_3syn10punctuatedINtB5_14PrivateIterMutNtNtB7_8generics14TypeParamBoundNtNtB7_5token4PlusENtNtNtNtCs85QQFkKrybG_4core4iter6traits12double_ended19DoubleEndedIterator9next_backCs3tyqko2rdGU_12serde_derive, symObjAddr: 0x737C, symBinAddr: 0x476D4, symSize: 0x40 }
  - { offset: 0x86714, size: 0x8, addend: 0x0, symName: __RNvXsC_NtCscwCr4GBBztI_3syn10punctuatedINtB5_14PrivateIterMutNtNtB7_8generics14WherePredicateNtNtB7_5token5CommaENtNtNtNtCs85QQFkKrybG_4core4iter6traits12double_ended19DoubleEndedIterator9next_backCs3tyqko2rdGU_12serde_derive, symObjAddr: 0x73BC, symBinAddr: 0x47714, symSize: 0x40 }
  - { offset: 0x86764, size: 0x8, addend: 0x0, symName: __RNCNCNvXst_NtCscwCr4GBBztI_3syn10punctuatedINtB9_11PrivateIterNtNtBb_2ty4TypeNtNtBb_5token5CommaENtNtNtNtCs85QQFkKrybG_4core4iter6traits12double_ended19DoubleEndedIterator9next_back00Cs3tyqko2rdGU_12serde_derive, symObjAddr: 0x3890, symBinAddr: 0x43BE8, symSize: 0x14 }
  - { offset: 0x867AF, size: 0x8, addend: 0x0, symName: __RNCNCNvXst_NtCscwCr4GBBztI_3syn10punctuatedINtB9_11PrivateIterNtNtBb_2ty9BareFnArgNtNtBb_5token5CommaENtNtNtNtCs85QQFkKrybG_4core4iter6traits12double_ended19DoubleEndedIterator9next_back00Cs3tyqko2rdGU_12serde_derive, symObjAddr: 0x38A4, symBinAddr: 0x43BFC, symSize: 0x14 }
  - { offset: 0x867FA, size: 0x8, addend: 0x0, symName: __RNCNCNvXst_NtCscwCr4GBBztI_3syn10punctuatedINtB9_11PrivateIterNtNtBb_4data7VariantNtNtBb_5token5CommaENtNtNtNtCs85QQFkKrybG_4core4iter6traits12double_ended19DoubleEndedIterator9next_back00Cs3tyqko2rdGU_12serde_derive, symObjAddr: 0x38B8, symBinAddr: 0x43C10, symSize: 0x14 }
  - { offset: 0x86845, size: 0x8, addend: 0x0, symName: __RNCNCNvXst_NtCscwCr4GBBztI_3syn10punctuatedINtB9_11PrivateIterNtNtBb_4path15GenericArgumentNtNtBb_5token5CommaENtNtNtNtCs85QQFkKrybG_4core4iter6traits12double_ended19DoubleEndedIterator9next_back00Cs3tyqko2rdGU_12serde_derive, symObjAddr: 0x38CC, symBinAddr: 0x43C24, symSize: 0x14 }
  - { offset: 0x868AD, size: 0x8, addend: 0x0, symName: __RNCNvXst_NtCscwCr4GBBztI_3syn10punctuatedINtB7_11PrivateIterNtNtB9_2ty4TypeNtNtB9_5token5CommaENtNtNtNtCs85QQFkKrybG_4core4iter6traits12double_ended19DoubleEndedIterator9next_back0Cs3tyqko2rdGU_12serde_derive, symObjAddr: 0x3DC4, symBinAddr: 0x4411C, symSize: 0x38 }
  - { offset: 0x868EF, size: 0x8, addend: 0x0, symName: __RNCNvXst_NtCscwCr4GBBztI_3syn10punctuatedINtB7_11PrivateIterNtNtB9_2ty9BareFnArgNtNtB9_5token5CommaENtNtNtNtCs85QQFkKrybG_4core4iter6traits12double_ended19DoubleEndedIterator9next_back0Cs3tyqko2rdGU_12serde_derive, symObjAddr: 0x3DFC, symBinAddr: 0x44154, symSize: 0x38 }
  - { offset: 0x86931, size: 0x8, addend: 0x0, symName: __RNCNvXst_NtCscwCr4GBBztI_3syn10punctuatedINtB7_11PrivateIterNtNtB9_4data7VariantNtNtB9_5token5CommaENtNtNtNtCs85QQFkKrybG_4core4iter6traits12double_ended19DoubleEndedIterator9next_back0Cs3tyqko2rdGU_12serde_derive, symObjAddr: 0x3E34, symBinAddr: 0x4418C, symSize: 0x38 }
  - { offset: 0x86973, size: 0x8, addend: 0x0, symName: __RNCNvXst_NtCscwCr4GBBztI_3syn10punctuatedINtB7_11PrivateIterNtNtB9_4path15GenericArgumentNtNtB9_5token5CommaENtNtNtNtCs85QQFkKrybG_4core4iter6traits12double_ended19DoubleEndedIterator9next_back0Cs3tyqko2rdGU_12serde_derive, symObjAddr: 0x3E6C, symBinAddr: 0x441C4, symSize: 0x38 }
  - { offset: 0x869B6, size: 0x8, addend: 0x0, symName: __RNvXst_NtCscwCr4GBBztI_3syn10punctuatedINtB5_11PrivateIterNtNtB7_2ty4TypeNtNtB7_5token5CommaENtNtNtNtCs85QQFkKrybG_4core4iter6traits12double_ended19DoubleEndedIterator9next_backCs3tyqko2rdGU_12serde_derive, symObjAddr: 0x8E48, symBinAddr: 0x491A0, symSize: 0x40 }
  - { offset: 0x869F6, size: 0x8, addend: 0x0, symName: __RNvXst_NtCscwCr4GBBztI_3syn10punctuatedINtB5_11PrivateIterNtNtB7_2ty9BareFnArgNtNtB7_5token5CommaENtNtNtNtCs85QQFkKrybG_4core4iter6traits12double_ended19DoubleEndedIterator9next_backCs3tyqko2rdGU_12serde_derive, symObjAddr: 0x8E88, symBinAddr: 0x491E0, symSize: 0x40 }
  - { offset: 0x86A36, size: 0x8, addend: 0x0, symName: __RNvXst_NtCscwCr4GBBztI_3syn10punctuatedINtB5_11PrivateIterNtNtB7_4data7VariantNtNtB7_5token5CommaENtNtNtNtCs85QQFkKrybG_4core4iter6traits12double_ended19DoubleEndedIterator9next_backCs3tyqko2rdGU_12serde_derive, symObjAddr: 0x8EC8, symBinAddr: 0x49220, symSize: 0x40 }
  - { offset: 0x86A76, size: 0x8, addend: 0x0, symName: __RNvXst_NtCscwCr4GBBztI_3syn10punctuatedINtB5_11PrivateIterNtNtB7_4path15GenericArgumentNtNtB7_5token5CommaENtNtNtNtCs85QQFkKrybG_4core4iter6traits12double_ended19DoubleEndedIterator9next_backCs3tyqko2rdGU_12serde_derive, symObjAddr: 0x8F08, symBinAddr: 0x49260, symSize: 0x40 }
  - { offset: 0x86AC1, size: 0x8, addend: 0x0, symName: __RNCNvXsB_NtCscwCr4GBBztI_3syn10punctuatedINtB7_14PrivateIterMutNtNtB9_2ty4TypeNtNtB9_5token5CommaENtNtNtNtCs85QQFkKrybG_4core4iter6traits8iterator8Iterator4next0Cs3tyqko2rdGU_12serde_derive, symObjAddr: 0x3924, symBinAddr: 0x43C7C, symSize: 0x14 }
  - { offset: 0x86B0C, size: 0x8, addend: 0x0, symName: __RNCNvXsB_NtCscwCr4GBBztI_3syn10punctuatedINtB7_14PrivateIterMutNtNtB9_2ty4TypeNtNtB9_5token5CommaENtNtNtNtCs85QQFkKrybG_4core4iter6traits8iterator8Iterator4nexts_0Cs3tyqko2rdGU_12serde_derive, symObjAddr: 0x3938, symBinAddr: 0x43C90, symSize: 0x34 }
  - { offset: 0x86B4E, size: 0x8, addend: 0x0, symName: __RNCNvXsB_NtCscwCr4GBBztI_3syn10punctuatedINtB7_14PrivateIterMutNtNtB9_2ty9BareFnArgNtNtB9_5token5CommaENtNtNtNtCs85QQFkKrybG_4core4iter6traits8iterator8Iterator4next0Cs3tyqko2rdGU_12serde_derive, symObjAddr: 0x396C, symBinAddr: 0x43CC4, symSize: 0x14 }
  - { offset: 0x86B99, size: 0x8, addend: 0x0, symName: __RNCNvXsB_NtCscwCr4GBBztI_3syn10punctuatedINtB7_14PrivateIterMutNtNtB9_2ty9BareFnArgNtNtB9_5token5CommaENtNtNtNtCs85QQFkKrybG_4core4iter6traits8iterator8Iterator4nexts_0Cs3tyqko2rdGU_12serde_derive, symObjAddr: 0x3980, symBinAddr: 0x43CD8, symSize: 0x34 }
  - { offset: 0x86BDB, size: 0x8, addend: 0x0, symName: __RNCNvXsB_NtCscwCr4GBBztI_3syn10punctuatedINtB7_14PrivateIterMutNtNtB9_4data7VariantNtNtB9_5token5CommaENtNtNtNtCs85QQFkKrybG_4core4iter6traits8iterator8Iterator4next0Cs3tyqko2rdGU_12serde_derive, symObjAddr: 0x39B4, symBinAddr: 0x43D0C, symSize: 0x14 }
  - { offset: 0x86C26, size: 0x8, addend: 0x0, symName: __RNCNvXsB_NtCscwCr4GBBztI_3syn10punctuatedINtB7_14PrivateIterMutNtNtB9_4data7VariantNtNtB9_5token5CommaENtNtNtNtCs85QQFkKrybG_4core4iter6traits8iterator8Iterator4nexts_0Cs3tyqko2rdGU_12serde_derive, symObjAddr: 0x39C8, symBinAddr: 0x43D20, symSize: 0x34 }
  - { offset: 0x86C68, size: 0x8, addend: 0x0, symName: __RNCNvXsB_NtCscwCr4GBBztI_3syn10punctuatedINtB7_14PrivateIterMutNtNtB9_4expr4ExprNtNtB9_5token5CommaENtNtNtNtCs85QQFkKrybG_4core4iter6traits8iterator8Iterator4next0Cs3tyqko2rdGU_12serde_derive, symObjAddr: 0x39FC, symBinAddr: 0x43D54, symSize: 0x14 }
  - { offset: 0x86CB3, size: 0x8, addend: 0x0, symName: __RNCNvXsB_NtCscwCr4GBBztI_3syn10punctuatedINtB7_14PrivateIterMutNtNtB9_4expr4ExprNtNtB9_5token5CommaENtNtNtNtCs85QQFkKrybG_4core4iter6traits8iterator8Iterator4nexts_0Cs3tyqko2rdGU_12serde_derive, symObjAddr: 0x3A10, symBinAddr: 0x43D68, symSize: 0x34 }
  - { offset: 0x86CF5, size: 0x8, addend: 0x0, symName: __RNCNvXsB_NtCscwCr4GBBztI_3syn10punctuatedINtB7_14PrivateIterMutNtNtB9_4path15GenericArgumentNtNtB9_5token5CommaENtNtNtNtCs85QQFkKrybG_4core4iter6traits8iterator8Iterator4next0Cs3tyqko2rdGU_12serde_derive, symObjAddr: 0x3A44, symBinAddr: 0x43D9C, symSize: 0x14 }
  - { offset: 0x86D40, size: 0x8, addend: 0x0, symName: __RNCNvXsB_NtCscwCr4GBBztI_3syn10punctuatedINtB7_14PrivateIterMutNtNtB9_4path15GenericArgumentNtNtB9_5token5CommaENtNtNtNtCs85QQFkKrybG_4core4iter6traits8iterator8Iterator4nexts_0Cs3tyqko2rdGU_12serde_derive, symObjAddr: 0x3A58, symBinAddr: 0x43DB0, symSize: 0x34 }
  - { offset: 0x86D82, size: 0x8, addend: 0x0, symName: __RNCNvXsB_NtCscwCr4GBBztI_3syn10punctuatedINtB7_14PrivateIterMutNtNtB9_8generics14TypeParamBoundNtNtB9_5token4PlusENtNtNtNtCs85QQFkKrybG_4core4iter6traits8iterator8Iterator4next0Cs3tyqko2rdGU_12serde_derive, symObjAddr: 0x3A8C, symBinAddr: 0x43DE4, symSize: 0x14 }
  - { offset: 0x86DCD, size: 0x8, addend: 0x0, symName: __RNCNvXsB_NtCscwCr4GBBztI_3syn10punctuatedINtB7_14PrivateIterMutNtNtB9_8generics14TypeParamBoundNtNtB9_5token4PlusENtNtNtNtCs85QQFkKrybG_4core4iter6traits8iterator8Iterator4nexts_0Cs3tyqko2rdGU_12serde_derive, symObjAddr: 0x3AA0, symBinAddr: 0x43DF8, symSize: 0x34 }
  - { offset: 0x86E0F, size: 0x8, addend: 0x0, symName: __RNCNvXsB_NtCscwCr4GBBztI_3syn10punctuatedINtB7_14PrivateIterMutNtNtB9_8generics14WherePredicateNtNtB9_5token5CommaENtNtNtNtCs85QQFkKrybG_4core4iter6traits8iterator8Iterator4next0Cs3tyqko2rdGU_12serde_derive, symObjAddr: 0x3AD4, symBinAddr: 0x43E2C, symSize: 0x14 }
  - { offset: 0x86E5A, size: 0x8, addend: 0x0, symName: __RNCNvXsB_NtCscwCr4GBBztI_3syn10punctuatedINtB7_14PrivateIterMutNtNtB9_8generics14WherePredicateNtNtB9_5token5CommaENtNtNtNtCs85QQFkKrybG_4core4iter6traits8iterator8Iterator4nexts_0Cs3tyqko2rdGU_12serde_derive, symObjAddr: 0x3AE8, symBinAddr: 0x43E40, symSize: 0x34 }
  - { offset: 0x86ECE, size: 0x8, addend: 0x0, symName: __RNvXsB_NtCscwCr4GBBztI_3syn10punctuatedINtB5_14PrivateIterMutNtNtB7_2ty4TypeNtNtB7_5token5CommaENtNtNtNtCs85QQFkKrybG_4core4iter6traits8iterator8Iterator4nextCs3tyqko2rdGU_12serde_derive, symObjAddr: 0x7060, symBinAddr: 0x473B8, symSize: 0x44 }
  - { offset: 0x86F0E, size: 0x8, addend: 0x0, symName: __RNvXsB_NtCscwCr4GBBztI_3syn10punctuatedINtB5_14PrivateIterMutNtNtB7_2ty9BareFnArgNtNtB7_5token5CommaENtNtNtNtCs85QQFkKrybG_4core4iter6traits8iterator8Iterator4nextCs3tyqko2rdGU_12serde_derive, symObjAddr: 0x70A4, symBinAddr: 0x473FC, symSize: 0x44 }
  - { offset: 0x86F4E, size: 0x8, addend: 0x0, symName: __RNvXsB_NtCscwCr4GBBztI_3syn10punctuatedINtB5_14PrivateIterMutNtNtB7_4data7VariantNtNtB7_5token5CommaENtNtNtNtCs85QQFkKrybG_4core4iter6traits8iterator8Iterator4nextCs3tyqko2rdGU_12serde_derive, symObjAddr: 0x70E8, symBinAddr: 0x47440, symSize: 0x44 }
  - { offset: 0x86F8E, size: 0x8, addend: 0x0, symName: __RNvXsB_NtCscwCr4GBBztI_3syn10punctuatedINtB5_14PrivateIterMutNtNtB7_4expr4ExprNtNtB7_5token5CommaENtNtNtNtCs85QQFkKrybG_4core4iter6traits8iterator8Iterator4nextCs3tyqko2rdGU_12serde_derive, symObjAddr: 0x712C, symBinAddr: 0x47484, symSize: 0x44 }
  - { offset: 0x86FCE, size: 0x8, addend: 0x0, symName: __RNvXsB_NtCscwCr4GBBztI_3syn10punctuatedINtB5_14PrivateIterMutNtNtB7_4path15GenericArgumentNtNtB7_5token5CommaENtNtNtNtCs85QQFkKrybG_4core4iter6traits8iterator8Iterator4nextCs3tyqko2rdGU_12serde_derive, symObjAddr: 0x7170, symBinAddr: 0x474C8, symSize: 0x44 }
  - { offset: 0x8700E, size: 0x8, addend: 0x0, symName: __RNvXsB_NtCscwCr4GBBztI_3syn10punctuatedINtB5_14PrivateIterMutNtNtB7_8generics14TypeParamBoundNtNtB7_5token4PlusENtNtNtNtCs85QQFkKrybG_4core4iter6traits8iterator8Iterator4nextCs3tyqko2rdGU_12serde_derive, symObjAddr: 0x71B4, symBinAddr: 0x4750C, symSize: 0x44 }
  - { offset: 0x8704E, size: 0x8, addend: 0x0, symName: __RNvXsB_NtCscwCr4GBBztI_3syn10punctuatedINtB5_14PrivateIterMutNtNtB7_8generics14WherePredicateNtNtB7_5token5CommaENtNtNtNtCs85QQFkKrybG_4core4iter6traits8iterator8Iterator4nextCs3tyqko2rdGU_12serde_derive, symObjAddr: 0x71F8, symBinAddr: 0x47550, symSize: 0x44 }
  - { offset: 0x87099, size: 0x8, addend: 0x0, symName: __RNCNvXss_NtCscwCr4GBBztI_3syn10punctuatedINtB7_11PrivateIterNtNtB9_2ty4TypeNtNtB9_5token5CommaENtNtNtNtCs85QQFkKrybG_4core4iter6traits8iterator8Iterator4next0Cs3tyqko2rdGU_12serde_derive, symObjAddr: 0x3CA4, symBinAddr: 0x43FFC, symSize: 0x14 }
  - { offset: 0x870E4, size: 0x8, addend: 0x0, symName: __RNCNvXss_NtCscwCr4GBBztI_3syn10punctuatedINtB7_11PrivateIterNtNtB9_2ty4TypeNtNtB9_5token5CommaENtNtNtNtCs85QQFkKrybG_4core4iter6traits8iterator8Iterator4nexts_0Cs3tyqko2rdGU_12serde_derive, symObjAddr: 0x3CB8, symBinAddr: 0x44010, symSize: 0x34 }
  - { offset: 0x87126, size: 0x8, addend: 0x0, symName: __RNCNvXss_NtCscwCr4GBBztI_3syn10punctuatedINtB7_11PrivateIterNtNtB9_2ty9BareFnArgNtNtB9_5token5CommaENtNtNtNtCs85QQFkKrybG_4core4iter6traits8iterator8Iterator4next0Cs3tyqko2rdGU_12serde_derive, symObjAddr: 0x3CEC, symBinAddr: 0x44044, symSize: 0x14 }
  - { offset: 0x87171, size: 0x8, addend: 0x0, symName: __RNCNvXss_NtCscwCr4GBBztI_3syn10punctuatedINtB7_11PrivateIterNtNtB9_2ty9BareFnArgNtNtB9_5token5CommaENtNtNtNtCs85QQFkKrybG_4core4iter6traits8iterator8Iterator4nexts_0Cs3tyqko2rdGU_12serde_derive, symObjAddr: 0x3D00, symBinAddr: 0x44058, symSize: 0x34 }
  - { offset: 0x871B3, size: 0x8, addend: 0x0, symName: __RNCNvXss_NtCscwCr4GBBztI_3syn10punctuatedINtB7_11PrivateIterNtNtB9_4data7VariantNtNtB9_5token5CommaENtNtNtNtCs85QQFkKrybG_4core4iter6traits8iterator8Iterator4next0Cs3tyqko2rdGU_12serde_derive, symObjAddr: 0x3D34, symBinAddr: 0x4408C, symSize: 0x14 }
  - { offset: 0x871FE, size: 0x8, addend: 0x0, symName: __RNCNvXss_NtCscwCr4GBBztI_3syn10punctuatedINtB7_11PrivateIterNtNtB9_4data7VariantNtNtB9_5token5CommaENtNtNtNtCs85QQFkKrybG_4core4iter6traits8iterator8Iterator4nexts_0Cs3tyqko2rdGU_12serde_derive, symObjAddr: 0x3D48, symBinAddr: 0x440A0, symSize: 0x34 }
  - { offset: 0x87240, size: 0x8, addend: 0x0, symName: __RNCNvXss_NtCscwCr4GBBztI_3syn10punctuatedINtB7_11PrivateIterNtNtB9_4path15GenericArgumentNtNtB9_5token5CommaENtNtNtNtCs85QQFkKrybG_4core4iter6traits8iterator8Iterator4next0Cs3tyqko2rdGU_12serde_derive, symObjAddr: 0x3D7C, symBinAddr: 0x440D4, symSize: 0x14 }
  - { offset: 0x8728B, size: 0x8, addend: 0x0, symName: __RNCNvXss_NtCscwCr4GBBztI_3syn10punctuatedINtB7_11PrivateIterNtNtB9_4path15GenericArgumentNtNtB9_5token5CommaENtNtNtNtCs85QQFkKrybG_4core4iter6traits8iterator8Iterator4nexts_0Cs3tyqko2rdGU_12serde_derive, symObjAddr: 0x3D90, symBinAddr: 0x440E8, symSize: 0x34 }
  - { offset: 0x872EA, size: 0x8, addend: 0x0, symName: __RNvXss_NtCscwCr4GBBztI_3syn10punctuatedINtB5_11PrivateIterNtNtB7_2ty4TypeNtNtB7_5token5CommaENtNtNtNtCs85QQFkKrybG_4core4iter6traits8iterator8Iterator4nextCs3tyqko2rdGU_12serde_derive, symObjAddr: 0x8D38, symBinAddr: 0x49090, symSize: 0x44 }
  - { offset: 0x8732A, size: 0x8, addend: 0x0, symName: __RNvXss_NtCscwCr4GBBztI_3syn10punctuatedINtB5_11PrivateIterNtNtB7_2ty9BareFnArgNtNtB7_5token5CommaENtNtNtNtCs85QQFkKrybG_4core4iter6traits8iterator8Iterator4nextCs3tyqko2rdGU_12serde_derive, symObjAddr: 0x8D7C, symBinAddr: 0x490D4, symSize: 0x44 }
  - { offset: 0x8736A, size: 0x8, addend: 0x0, symName: __RNvXss_NtCscwCr4GBBztI_3syn10punctuatedINtB5_11PrivateIterNtNtB7_4data7VariantNtNtB7_5token5CommaENtNtNtNtCs85QQFkKrybG_4core4iter6traits8iterator8Iterator4nextCs3tyqko2rdGU_12serde_derive, symObjAddr: 0x8DC0, symBinAddr: 0x49118, symSize: 0x44 }
  - { offset: 0x873AA, size: 0x8, addend: 0x0, symName: __RNvXss_NtCscwCr4GBBztI_3syn10punctuatedINtB5_11PrivateIterNtNtB7_4path15GenericArgumentNtNtB7_5token5CommaENtNtNtNtCs85QQFkKrybG_4core4iter6traits8iterator8Iterator4nextCs3tyqko2rdGU_12serde_derive, symObjAddr: 0x8E04, symBinAddr: 0x4915C, symSize: 0x44 }
  - { offset: 0x8751C, size: 0x8, addend: 0x0, symName: __RNvXs4_NtCscwCr4GBBztI_3syn10punctuatedINtB5_10PunctuatedNtNtB7_8generics12GenericParamNtNtB7_5token5CommaENtNtNtNtCs85QQFkKrybG_4core4iter6traits7collect12IntoIterator9into_iterCs3tyqko2rdGU_12serde_derive, symObjAddr: 0x66A4, symBinAddr: 0x469FC, symSize: 0x360 }
  - { offset: 0x875C0, size: 0x8, addend: 0x0, symName: __RNvXs4_NtCscwCr4GBBztI_3syn10punctuatedINtB5_10PunctuatedNtNtB7_8generics14WherePredicateNtNtB7_5token5CommaENtNtNtNtCs85QQFkKrybG_4core4iter6traits7collect12IntoIterator9into_iterCs3tyqko2rdGU_12serde_derive, symObjAddr: 0x6A04, symBinAddr: 0x46D5C, symSize: 0x360 }
  - { offset: 0x8766A, size: 0x8, addend: 0x0, symName: __RNvXs5_NtCscwCr4GBBztI_3syn10punctuatedRINtB5_10PunctuatedNtNtB7_2ty4TypeNtNtB7_5token5CommaENtNtNtNtCs85QQFkKrybG_4core4iter6traits7collect12IntoIterator9into_iterCs3tyqko2rdGU_12serde_derive, symObjAddr: 0x6D64, symBinAddr: 0x470BC, symSize: 0x34 }
  - { offset: 0x876AA, size: 0x8, addend: 0x0, symName: __RNvXs5_NtCscwCr4GBBztI_3syn10punctuatedRINtB5_10PunctuatedNtNtB7_2ty9BareFnArgNtNtB7_5token5CommaENtNtNtNtCs85QQFkKrybG_4core4iter6traits7collect12IntoIterator9into_iterCs3tyqko2rdGU_12serde_derive, symObjAddr: 0x6D98, symBinAddr: 0x470F0, symSize: 0x34 }
  - { offset: 0x876EA, size: 0x8, addend: 0x0, symName: __RNvXs5_NtCscwCr4GBBztI_3syn10punctuatedRINtB5_10PunctuatedNtNtB7_4data7VariantNtNtB7_5token5CommaENtNtNtNtCs85QQFkKrybG_4core4iter6traits7collect12IntoIterator9into_iterCs3tyqko2rdGU_12serde_derive, symObjAddr: 0x6DCC, symBinAddr: 0x47124, symSize: 0x34 }
  - { offset: 0x8772A, size: 0x8, addend: 0x0, symName: __RNvXs5_NtCscwCr4GBBztI_3syn10punctuatedRINtB5_10PunctuatedNtNtB7_4path11PathSegmentNtNtB7_5token7PathSepENtNtNtNtCs85QQFkKrybG_4core4iter6traits7collect12IntoIterator9into_iterCs3tyqko2rdGU_12serde_derive, symObjAddr: 0x6E00, symBinAddr: 0x47158, symSize: 0x34 }
  - { offset: 0x8776A, size: 0x8, addend: 0x0, symName: __RNvXs5_NtCscwCr4GBBztI_3syn10punctuatedRINtB5_10PunctuatedNtNtB7_4path15GenericArgumentNtNtB7_5token5CommaENtNtNtNtCs85QQFkKrybG_4core4iter6traits7collect12IntoIterator9into_iterCs3tyqko2rdGU_12serde_derive, symObjAddr: 0x6E34, symBinAddr: 0x4718C, symSize: 0x34 }
  - { offset: 0x877B0, size: 0x8, addend: 0x0, symName: __RNvXs6_NtCscwCr4GBBztI_3syn10punctuatedQINtB5_10PunctuatedNtNtB7_2ty4TypeNtNtB7_5token5CommaENtNtNtNtCs85QQFkKrybG_4core4iter6traits7collect12IntoIterator9into_iterCs3tyqko2rdGU_12serde_derive, symObjAddr: 0x6E68, symBinAddr: 0x471C0, symSize: 0x34 }
  - { offset: 0x877F0, size: 0x8, addend: 0x0, symName: __RNvXs6_NtCscwCr4GBBztI_3syn10punctuatedQINtB5_10PunctuatedNtNtB7_2ty9BareFnArgNtNtB7_5token5CommaENtNtNtNtCs85QQFkKrybG_4core4iter6traits7collect12IntoIterator9into_iterCs3tyqko2rdGU_12serde_derive, symObjAddr: 0x6E9C, symBinAddr: 0x471F4, symSize: 0x34 }
  - { offset: 0x87830, size: 0x8, addend: 0x0, symName: __RNvXs6_NtCscwCr4GBBztI_3syn10punctuatedQINtB5_10PunctuatedNtNtB7_4data7VariantNtNtB7_5token5CommaENtNtNtNtCs85QQFkKrybG_4core4iter6traits7collect12IntoIterator9into_iterCs3tyqko2rdGU_12serde_derive, symObjAddr: 0x6ED0, symBinAddr: 0x47228, symSize: 0x34 }
  - { offset: 0x87870, size: 0x8, addend: 0x0, symName: __RNvXs6_NtCscwCr4GBBztI_3syn10punctuatedQINtB5_10PunctuatedNtNtB7_4expr4ExprNtNtB7_5token5CommaENtNtNtNtCs85QQFkKrybG_4core4iter6traits7collect12IntoIterator9into_iterCs3tyqko2rdGU_12serde_derive, symObjAddr: 0x6F04, symBinAddr: 0x4725C, symSize: 0x34 }
  - { offset: 0x878B0, size: 0x8, addend: 0x0, symName: __RNvXs6_NtCscwCr4GBBztI_3syn10punctuatedQINtB5_10PunctuatedNtNtB7_4path11PathSegmentNtNtB7_5token7PathSepENtNtNtNtCs85QQFkKrybG_4core4iter6traits7collect12IntoIterator9into_iterCs3tyqko2rdGU_12serde_derive, symObjAddr: 0x6F38, symBinAddr: 0x47290, symSize: 0x34 }
  - { offset: 0x878F0, size: 0x8, addend: 0x0, symName: __RNvXs6_NtCscwCr4GBBztI_3syn10punctuatedQINtB5_10PunctuatedNtNtB7_4path15GenericArgumentNtNtB7_5token5CommaENtNtNtNtCs85QQFkKrybG_4core4iter6traits7collect12IntoIterator9into_iterCs3tyqko2rdGU_12serde_derive, symObjAddr: 0x6F6C, symBinAddr: 0x472C4, symSize: 0x34 }
  - { offset: 0x87930, size: 0x8, addend: 0x0, symName: __RNvXs6_NtCscwCr4GBBztI_3syn10punctuatedQINtB5_10PunctuatedNtNtB7_8generics12GenericParamNtNtB7_5token5CommaENtNtNtNtCs85QQFkKrybG_4core4iter6traits7collect12IntoIterator9into_iterCs3tyqko2rdGU_12serde_derive, symObjAddr: 0x6FA0, symBinAddr: 0x472F8, symSize: 0x34 }
  - { offset: 0x87970, size: 0x8, addend: 0x0, symName: __RNvXs6_NtCscwCr4GBBztI_3syn10punctuatedQINtB5_10PunctuatedNtNtB7_8generics14TypeParamBoundNtNtB7_5token4PlusENtNtNtNtCs85QQFkKrybG_4core4iter6traits7collect12IntoIterator9into_iterCs3tyqko2rdGU_12serde_derive, symObjAddr: 0x6FD4, symBinAddr: 0x4732C, symSize: 0x34 }
  - { offset: 0x879B0, size: 0x8, addend: 0x0, symName: __RNvXs6_NtCscwCr4GBBztI_3syn10punctuatedQINtB5_10PunctuatedNtNtB7_8generics14WherePredicateNtNtB7_5token5CommaENtNtNtNtCs85QQFkKrybG_4core4iter6traits7collect12IntoIterator9into_iterCs3tyqko2rdGU_12serde_derive, symObjAddr: 0x7008, symBinAddr: 0x47360, symSize: 0x34 }
  - { offset: 0x879F6, size: 0x8, addend: 0x0, symName: __RNvXs7_NtCscwCr4GBBztI_3syn10punctuatedINtB5_10PunctuatedNtNtB7_4path11PathSegmentNtNtB7_5token7PathSepENtNtCs85QQFkKrybG_4core7default7Default7defaultCs3tyqko2rdGU_12serde_derive, symObjAddr: 0x703C, symBinAddr: 0x47394, symSize: 0x24 }
  - { offset: 0x87A2D, size: 0x8, addend: 0x0, symName: __RNvXsD_NtCscwCr4GBBztI_3syn10punctuatedINtB5_14PrivateIterMutNtNtB7_2ty4TypeNtNtB7_5token5CommaENtNtNtNtCs85QQFkKrybG_4core4iter6traits10exact_size17ExactSizeIterator3lenCs3tyqko2rdGU_12serde_derive, symObjAddr: 0x73FC, symBinAddr: 0x47754, symSize: 0x94 }
  - { offset: 0x87AA5, size: 0x8, addend: 0x0, symName: __RNvXsD_NtCscwCr4GBBztI_3syn10punctuatedINtB5_14PrivateIterMutNtNtB7_2ty9BareFnArgNtNtB7_5token5CommaENtNtNtNtCs85QQFkKrybG_4core4iter6traits10exact_size17ExactSizeIterator3lenCs3tyqko2rdGU_12serde_derive, symObjAddr: 0x7490, symBinAddr: 0x477E8, symSize: 0x94 }
  - { offset: 0x87B1D, size: 0x8, addend: 0x0, symName: __RNvXsD_NtCscwCr4GBBztI_3syn10punctuatedINtB5_14PrivateIterMutNtNtB7_4data7VariantNtNtB7_5token5CommaENtNtNtNtCs85QQFkKrybG_4core4iter6traits10exact_size17ExactSizeIterator3lenCs3tyqko2rdGU_12serde_derive, symObjAddr: 0x7524, symBinAddr: 0x4787C, symSize: 0x94 }
  - { offset: 0x87B95, size: 0x8, addend: 0x0, symName: __RNvXsD_NtCscwCr4GBBztI_3syn10punctuatedINtB5_14PrivateIterMutNtNtB7_4expr4ExprNtNtB7_5token5CommaENtNtNtNtCs85QQFkKrybG_4core4iter6traits10exact_size17ExactSizeIterator3lenCs3tyqko2rdGU_12serde_derive, symObjAddr: 0x75B8, symBinAddr: 0x47910, symSize: 0x94 }
  - { offset: 0x87C0D, size: 0x8, addend: 0x0, symName: __RNvXsD_NtCscwCr4GBBztI_3syn10punctuatedINtB5_14PrivateIterMutNtNtB7_4path15GenericArgumentNtNtB7_5token5CommaENtNtNtNtCs85QQFkKrybG_4core4iter6traits10exact_size17ExactSizeIterator3lenCs3tyqko2rdGU_12serde_derive, symObjAddr: 0x764C, symBinAddr: 0x479A4, symSize: 0x94 }
  - { offset: 0x87C85, size: 0x8, addend: 0x0, symName: __RNvXsD_NtCscwCr4GBBztI_3syn10punctuatedINtB5_14PrivateIterMutNtNtB7_8generics14TypeParamBoundNtNtB7_5token4PlusENtNtNtNtCs85QQFkKrybG_4core4iter6traits10exact_size17ExactSizeIterator3lenCs3tyqko2rdGU_12serde_derive, symObjAddr: 0x76E0, symBinAddr: 0x47A38, symSize: 0x94 }
  - { offset: 0x87CFD, size: 0x8, addend: 0x0, symName: __RNvXsD_NtCscwCr4GBBztI_3syn10punctuatedINtB5_14PrivateIterMutNtNtB7_8generics14WherePredicateNtNtB7_5token5CommaENtNtNtNtCs85QQFkKrybG_4core4iter6traits10exact_size17ExactSizeIterator3lenCs3tyqko2rdGU_12serde_derive, symObjAddr: 0x7774, symBinAddr: 0x47ACC, symSize: 0x94 }
  - { offset: 0x87D7B, size: 0x8, addend: 0x0, symName: __RNvXsJ_NtCscwCr4GBBztI_3syn10punctuatedINtB5_10PunctuatedNtNtB7_4path15GenericArgumentNtNtB7_5token5CommaEINtNtNtCs85QQFkKrybG_4core3ops5index5IndexjE5indexCs3tyqko2rdGU_12serde_derive, symObjAddr: 0x7808, symBinAddr: 0x47B60, symSize: 0x174 }
  - { offset: 0x87DE6, size: 0x8, addend: 0x0, symName: __RNvXsj_NtCscwCr4GBBztI_3syn10punctuatedINtB5_8IntoIterNtNtB7_8generics12GenericParamENtNtNtNtCs85QQFkKrybG_4core4iter6traits8iterator8Iterator4nextCs3tyqko2rdGU_12serde_derive, symObjAddr: 0x8918, symBinAddr: 0x48C70, symSize: 0x34 }
  - { offset: 0x87E1D, size: 0x8, addend: 0x0, symName: __RNvXsj_NtCscwCr4GBBztI_3syn10punctuatedINtB5_8IntoIterNtNtB7_8generics14WherePredicateENtNtNtNtCs85QQFkKrybG_4core4iter6traits8iterator8Iterator4nextCs3tyqko2rdGU_12serde_derive, symObjAddr: 0x894C, symBinAddr: 0x48CA4, symSize: 0x34 }
  - { offset: 0x87E54, size: 0x8, addend: 0x0, symName: __RNvXsj_NtCscwCr4GBBztI_3syn10punctuatedINtB5_8IntoIterNtNtB7_8generics14WherePredicateENtNtNtNtCs85QQFkKrybG_4core4iter6traits8iterator8Iterator9size_hintCs3tyqko2rdGU_12serde_derive, symObjAddr: 0x8980, symBinAddr: 0x48CD8, symSize: 0x68 }
  - { offset: 0x87E91, size: 0x8, addend: 0x0, symName: __RNvXsl_NtCscwCr4GBBztI_3syn10punctuatedINtB5_8IntoIterNtNtB7_8generics14WherePredicateENtNtNtNtCs85QQFkKrybG_4core4iter6traits10exact_size17ExactSizeIterator3lenCs3tyqko2rdGU_12serde_derive, symObjAddr: 0x8A14, symBinAddr: 0x48D6C, symSize: 0x34 }
  - { offset: 0x87ECE, size: 0x8, addend: 0x0, symName: __RNvXsp_NtCscwCr4GBBztI_3syn10punctuatedINtB5_4IterNtNtB7_2ty4TypeENtNtNtNtCs85QQFkKrybG_4core4iter6traits8iterator8Iterator4nextCs3tyqko2rdGU_12serde_derive, symObjAddr: 0x8AB8, symBinAddr: 0x48E10, symSize: 0x48 }
  - { offset: 0x87F05, size: 0x8, addend: 0x0, symName: __RNvXsp_NtCscwCr4GBBztI_3syn10punctuatedINtB5_4IterNtNtB7_2ty9BareFnArgENtNtNtNtCs85QQFkKrybG_4core4iter6traits8iterator8Iterator4nextCs3tyqko2rdGU_12serde_derive, symObjAddr: 0x8B00, symBinAddr: 0x48E58, symSize: 0x48 }
  - { offset: 0x87F3C, size: 0x8, addend: 0x0, symName: __RNvXsp_NtCscwCr4GBBztI_3syn10punctuatedINtB5_4IterNtNtB7_4data5FieldENtNtNtNtCs85QQFkKrybG_4core4iter6traits8iterator8Iterator9size_hintCs3tyqko2rdGU_12serde_derive, symObjAddr: 0x8B48, symBinAddr: 0x48EA0, symSize: 0x68 }
  - { offset: 0x87F73, size: 0x8, addend: 0x0, symName: __RNvXsp_NtCscwCr4GBBztI_3syn10punctuatedINtB5_4IterNtNtB7_4data7VariantENtNtNtNtCs85QQFkKrybG_4core4iter6traits8iterator8Iterator4nextCs3tyqko2rdGU_12serde_derive, symObjAddr: 0x8BB0, symBinAddr: 0x48F08, symSize: 0x48 }
  - { offset: 0x87FAA, size: 0x8, addend: 0x0, symName: __RNvXsp_NtCscwCr4GBBztI_3syn10punctuatedINtB5_4IterNtNtB7_4data7VariantENtNtNtNtCs85QQFkKrybG_4core4iter6traits8iterator8Iterator9size_hintCs3tyqko2rdGU_12serde_derive, symObjAddr: 0x8BF8, symBinAddr: 0x48F50, symSize: 0x68 }
  - { offset: 0x87FE1, size: 0x8, addend: 0x0, symName: __RNvXsp_NtCscwCr4GBBztI_3syn10punctuatedINtB5_4IterNtNtB7_4path15GenericArgumentENtNtNtNtCs85QQFkKrybG_4core4iter6traits8iterator8Iterator4nextCs3tyqko2rdGU_12serde_derive, symObjAddr: 0x8C60, symBinAddr: 0x48FB8, symSize: 0x48 }
  - { offset: 0x8801E, size: 0x8, addend: 0x0, symName: __RNvXsr_NtCscwCr4GBBztI_3syn10punctuatedINtB5_4IterNtNtB7_4data5FieldENtNtNtNtCs85QQFkKrybG_4core4iter6traits10exact_size17ExactSizeIterator3lenCs3tyqko2rdGU_12serde_derive, symObjAddr: 0x8CA8, symBinAddr: 0x49000, symSize: 0x48 }
  - { offset: 0x88055, size: 0x8, addend: 0x0, symName: __RNvXsr_NtCscwCr4GBBztI_3syn10punctuatedINtB5_4IterNtNtB7_4data7VariantENtNtNtNtCs85QQFkKrybG_4core4iter6traits10exact_size17ExactSizeIterator3lenCs3tyqko2rdGU_12serde_derive, symObjAddr: 0x8CF0, symBinAddr: 0x49048, symSize: 0x48 }
  - { offset: 0x88092, size: 0x8, addend: 0x0, symName: __RNvXsu_NtCscwCr4GBBztI_3syn10punctuatedINtB5_11PrivateIterNtNtB7_2ty4TypeNtNtB7_5token5CommaENtNtNtNtCs85QQFkKrybG_4core4iter6traits10exact_size17ExactSizeIterator3lenCs3tyqko2rdGU_12serde_derive, symObjAddr: 0x8F48, symBinAddr: 0x492A0, symSize: 0x94 }
  - { offset: 0x8810A, size: 0x8, addend: 0x0, symName: __RNvXsu_NtCscwCr4GBBztI_3syn10punctuatedINtB5_11PrivateIterNtNtB7_2ty9BareFnArgNtNtB7_5token5CommaENtNtNtNtCs85QQFkKrybG_4core4iter6traits10exact_size17ExactSizeIterator3lenCs3tyqko2rdGU_12serde_derive, symObjAddr: 0x8FDC, symBinAddr: 0x49334, symSize: 0x94 }
  - { offset: 0x88182, size: 0x8, addend: 0x0, symName: __RNvXsu_NtCscwCr4GBBztI_3syn10punctuatedINtB5_11PrivateIterNtNtB7_4data7VariantNtNtB7_5token5CommaENtNtNtNtCs85QQFkKrybG_4core4iter6traits10exact_size17ExactSizeIterator3lenCs3tyqko2rdGU_12serde_derive, symObjAddr: 0x9070, symBinAddr: 0x493C8, symSize: 0x94 }
  - { offset: 0x881FA, size: 0x8, addend: 0x0, symName: __RNvXsu_NtCscwCr4GBBztI_3syn10punctuatedINtB5_11PrivateIterNtNtB7_4path15GenericArgumentNtNtB7_5token5CommaENtNtNtNtCs85QQFkKrybG_4core4iter6traits10exact_size17ExactSizeIterator3lenCs3tyqko2rdGU_12serde_derive, symObjAddr: 0x9104, symBinAddr: 0x4945C, symSize: 0x94 }
  - { offset: 0x88278, size: 0x8, addend: 0x0, symName: __RNvXsv_NtCscwCr4GBBztI_3syn10punctuatedINtB5_11PrivateIterNtNtB7_2ty4TypeNtNtB7_5token5CommaENtNtCs85QQFkKrybG_4core5clone5Clone5cloneCs3tyqko2rdGU_12serde_derive, symObjAddr: 0x9198, symBinAddr: 0x494F0, symSize: 0x68 }
  - { offset: 0x882B8, size: 0x8, addend: 0x0, symName: __RNvXsv_NtCscwCr4GBBztI_3syn10punctuatedINtB5_11PrivateIterNtNtB7_2ty9BareFnArgNtNtB7_5token5CommaENtNtCs85QQFkKrybG_4core5clone5Clone5cloneCs3tyqko2rdGU_12serde_derive, symObjAddr: 0x9200, symBinAddr: 0x49558, symSize: 0x68 }
  - { offset: 0x882F8, size: 0x8, addend: 0x0, symName: __RNvXsv_NtCscwCr4GBBztI_3syn10punctuatedINtB5_11PrivateIterNtNtB7_4data7VariantNtNtB7_5token5CommaENtNtCs85QQFkKrybG_4core5clone5Clone5cloneCs3tyqko2rdGU_12serde_derive, symObjAddr: 0x9268, symBinAddr: 0x495C0, symSize: 0x68 }
  - { offset: 0x88338, size: 0x8, addend: 0x0, symName: __RNvXsv_NtCscwCr4GBBztI_3syn10punctuatedINtB5_11PrivateIterNtNtB7_4path15GenericArgumentNtNtB7_5token5CommaENtNtCs85QQFkKrybG_4core5clone5Clone5cloneCs3tyqko2rdGU_12serde_derive, symObjAddr: 0x92D0, symBinAddr: 0x49628, symSize: 0x68 }
  - { offset: 0x8837E, size: 0x8, addend: 0x0, symName: __RNvXsw_NtCscwCr4GBBztI_3syn10punctuatedINtB5_11PrivateIterNtNtB7_2ty4TypeNtNtB7_5token5CommaEINtB5_9IterTraitBU_E9clone_boxCs3tyqko2rdGU_12serde_derive, symObjAddr: 0x9338, symBinAddr: 0x49690, symSize: 0x94 }
  - { offset: 0x883DC, size: 0x8, addend: 0x0, symName: __RNvXsw_NtCscwCr4GBBztI_3syn10punctuatedINtB5_11PrivateIterNtNtB7_2ty9BareFnArgNtNtB7_5token5CommaEINtB5_9IterTraitBU_E9clone_boxCs3tyqko2rdGU_12serde_derive, symObjAddr: 0x93CC, symBinAddr: 0x49724, symSize: 0x94 }
  - { offset: 0x8843A, size: 0x8, addend: 0x0, symName: __RNvXsw_NtCscwCr4GBBztI_3syn10punctuatedINtB5_11PrivateIterNtNtB7_4data7VariantNtNtB7_5token5CommaEINtB5_9IterTraitBU_E9clone_boxCs3tyqko2rdGU_12serde_derive, symObjAddr: 0x9460, symBinAddr: 0x497B8, symSize: 0x94 }
  - { offset: 0x88498, size: 0x8, addend: 0x0, symName: __RNvXsw_NtCscwCr4GBBztI_3syn10punctuatedINtB5_11PrivateIterNtNtB7_4path15GenericArgumentNtNtB7_5token5CommaEINtB5_9IterTraitBU_E9clone_boxCs3tyqko2rdGU_12serde_derive, symObjAddr: 0x94F4, symBinAddr: 0x4984C, symSize: 0x94 }
  - { offset: 0x884FC, size: 0x8, addend: 0x0, symName: __RNvXsy_NtCscwCr4GBBztI_3syn10punctuatedINtB5_7IterMutNtNtB7_2ty4TypeENtNtNtNtCs85QQFkKrybG_4core4iter6traits8iterator8Iterator4nextCs3tyqko2rdGU_12serde_derive, symObjAddr: 0x96A0, symBinAddr: 0x499F8, symSize: 0x48 }
  - { offset: 0x88533, size: 0x8, addend: 0x0, symName: __RNvXsy_NtCscwCr4GBBztI_3syn10punctuatedINtB5_7IterMutNtNtB7_2ty9BareFnArgENtNtNtNtCs85QQFkKrybG_4core4iter6traits8iterator8Iterator4nextCs3tyqko2rdGU_12serde_derive, symObjAddr: 0x96E8, symBinAddr: 0x49A40, symSize: 0x48 }
  - { offset: 0x8856A, size: 0x8, addend: 0x0, symName: __RNvXsy_NtCscwCr4GBBztI_3syn10punctuatedINtB5_7IterMutNtNtB7_4data5FieldENtNtNtNtCs85QQFkKrybG_4core4iter6traits8iterator8Iterator4nextCs3tyqko2rdGU_12serde_derive, symObjAddr: 0x9730, symBinAddr: 0x49A88, symSize: 0x48 }
  - { offset: 0x885A1, size: 0x8, addend: 0x0, symName: __RNvXsy_NtCscwCr4GBBztI_3syn10punctuatedINtB5_7IterMutNtNtB7_4data7VariantENtNtNtNtCs85QQFkKrybG_4core4iter6traits8iterator8Iterator4nextCs3tyqko2rdGU_12serde_derive, symObjAddr: 0x9778, symBinAddr: 0x49AD0, symSize: 0x48 }
  - { offset: 0x885D8, size: 0x8, addend: 0x0, symName: __RNvXsy_NtCscwCr4GBBztI_3syn10punctuatedINtB5_7IterMutNtNtB7_4expr4ExprENtNtNtNtCs85QQFkKrybG_4core4iter6traits8iterator8Iterator4nextCs3tyqko2rdGU_12serde_derive, symObjAddr: 0x97C0, symBinAddr: 0x49B18, symSize: 0x48 }
  - { offset: 0x8860F, size: 0x8, addend: 0x0, symName: __RNvXsy_NtCscwCr4GBBztI_3syn10punctuatedINtB5_7IterMutNtNtB7_4path11PathSegmentENtNtNtNtCs85QQFkKrybG_4core4iter6traits8iterator8Iterator4nextCs3tyqko2rdGU_12serde_derive, symObjAddr: 0x9808, symBinAddr: 0x49B60, symSize: 0x48 }
  - { offset: 0x88646, size: 0x8, addend: 0x0, symName: __RNvXsy_NtCscwCr4GBBztI_3syn10punctuatedINtB5_7IterMutNtNtB7_4path15GenericArgumentENtNtNtNtCs85QQFkKrybG_4core4iter6traits8iterator8Iterator4nextCs3tyqko2rdGU_12serde_derive, symObjAddr: 0x9850, symBinAddr: 0x49BA8, symSize: 0x48 }
  - { offset: 0x8867D, size: 0x8, addend: 0x0, symName: __RNvXsy_NtCscwCr4GBBztI_3syn10punctuatedINtB5_7IterMutNtNtB7_8generics14TypeParamBoundENtNtNtNtCs85QQFkKrybG_4core4iter6traits8iterator8Iterator4nextCs3tyqko2rdGU_12serde_derive, symObjAddr: 0x9898, symBinAddr: 0x49BF0, symSize: 0x48 }
  - { offset: 0x886B4, size: 0x8, addend: 0x0, symName: __RNvXsy_NtCscwCr4GBBztI_3syn10punctuatedINtB5_7IterMutNtNtB7_8generics14WherePredicateENtNtNtNtCs85QQFkKrybG_4core4iter6traits8iterator8Iterator4nextCs3tyqko2rdGU_12serde_derive, symObjAddr: 0x98E0, symBinAddr: 0x49C38, symSize: 0x48 }
  - { offset: 0x8D5B2, size: 0x8, addend: 0x0, symName: __RNvXsh_NtCscwCr4GBBztI_3syn5parseNvMNtB7_10punctuatedINtBy_10PunctuatedNtNtB7_8generics14WherePredicateNtNtB7_5token5CommaE16parse_terminatedNtB5_6Parser14___parse_scopedCs3tyqko2rdGU_12serde_derive, symObjAddr: 0x8544, symBinAddr: 0x4889C, symSize: 0x3A8 }
  - { offset: 0x8DFAD, size: 0x8, addend: 0x0, symName: __RNCINvNtNtCs9bTl5rSDVcL_10proc_macro6bridge6client10run_clientNtB4_11TokenStreamINtNtCs85QQFkKrybG_4core6option6OptionBY_ENCNCINvMs6_B4_INtB4_6ClientNtB8_11TokenStreamB2n_E7expand1NvCs3tyqko2rdGU_12serde_derive16derive_serializeE00E0B2U_, symObjAddr: 0x3134, symBinAddr: 0x4348C, symSize: 0x318 }
  - { offset: 0x8E1D2, size: 0x8, addend: 0x0, symName: __RNCINvNtNtCs9bTl5rSDVcL_10proc_macro6bridge6client10run_clientNtB4_11TokenStreamINtNtCs85QQFkKrybG_4core6option6OptionBY_ENCNCINvMs6_B4_INtB4_6ClientNtB8_11TokenStreamB2n_E7expand1NvCs3tyqko2rdGU_12serde_derive18derive_deserializeE00E0B2U_, symObjAddr: 0x344C, symBinAddr: 0x437A4, symSize: 0x318 }
  - { offset: 0x8E3FC, size: 0x8, addend: 0x0, symName: __RNCNCINvNtNtCs9bTl5rSDVcL_10proc_macro6bridge6client10run_clientNtB6_11TokenStreamINtNtCs85QQFkKrybG_4core6option6OptionB10_ENCNCINvMs6_B6_INtB6_6ClientNtBa_11TokenStreamB2q_E7expand1NvCs3tyqko2rdGU_12serde_derive16derive_serializeE00E00B2X_, symObjAddr: 0x37B4, symBinAddr: 0x43B0C, symSize: 0x28 }
  - { offset: 0x8E456, size: 0x8, addend: 0x0, symName: __RNCNCINvNtNtCs9bTl5rSDVcL_10proc_macro6bridge6client10run_clientNtB6_11TokenStreamINtNtCs85QQFkKrybG_4core6option6OptionB10_ENCNCINvMs6_B6_INtB6_6ClientNtBa_11TokenStreamB2q_E7expand1NvCs3tyqko2rdGU_12serde_derive18derive_deserializeE00E00B2X_, symObjAddr: 0x37DC, symBinAddr: 0x43B34, symSize: 0x28 }
  - { offset: 0x8E4E7, size: 0x8, addend: 0x0, symName: __RNCNCINvMs6_NtNtCs9bTl5rSDVcL_10proc_macro6bridge6clientINtBa_6ClientNtBe_11TokenStreamB15_E7expand1NvCs3tyqko2rdGU_12serde_derive16derive_serializeE00B1C_, symObjAddr: 0x3764, symBinAddr: 0x43ABC, symSize: 0x28 }
  - { offset: 0x8E52F, size: 0x8, addend: 0x0, symName: __RNCNCINvMs6_NtNtCs9bTl5rSDVcL_10proc_macro6bridge6clientINtBa_6ClientNtBe_11TokenStreamB15_E7expand1NvCs3tyqko2rdGU_12serde_derive18derive_deserializeE00B1C_, symObjAddr: 0x378C, symBinAddr: 0x43AE4, symSize: 0x28 }
  - { offset: 0x8E59E, size: 0x8, addend: 0x0, symName: __RNCINvMs6_NtNtCs9bTl5rSDVcL_10proc_macro6bridge6clientINtB8_6ClientNtBc_11TokenStreamB13_E7expand1NvCs3tyqko2rdGU_12serde_derive16derive_serializeE0B1A_, symObjAddr: 0x30D4, symBinAddr: 0x4342C, symSize: 0x30 }
  - { offset: 0x8E5E7, size: 0x8, addend: 0x0, symName: __RNCINvMs6_NtNtCs9bTl5rSDVcL_10proc_macro6bridge6clientINtB8_6ClientNtBc_11TokenStreamB13_E7expand1NvCs3tyqko2rdGU_12serde_derive18derive_deserializeE0B1A_, symObjAddr: 0x3104, symBinAddr: 0x4345C, symSize: 0x30 }
  - { offset: 0x8E632, size: 0x8, addend: 0x0, symName: __RINvNtNtCs9bTl5rSDVcL_10proc_macro6bridge6client10run_clientNtB2_11TokenStreamINtNtCs85QQFkKrybG_4core6option6OptionBW_ENCNCINvMs6_B2_INtB2_6ClientNtB6_11TokenStreamB2l_E7expand1NvCs3tyqko2rdGU_12serde_derive16derive_serializeE00EB2S_, symObjAddr: 0x460, symBinAddr: 0x407B8, symSize: 0x21C }
  - { offset: 0x8E81B, size: 0x8, addend: 0x0, symName: __RINvNtNtCs9bTl5rSDVcL_10proc_macro6bridge6client10run_clientNtB2_11TokenStreamINtNtCs85QQFkKrybG_4core6option6OptionBW_ENCNCINvMs6_B2_INtB2_6ClientNtB6_11TokenStreamB2l_E7expand1NvCs3tyqko2rdGU_12serde_derive18derive_deserializeE00EB2S_, symObjAddr: 0x67C, symBinAddr: 0x409D4, symSize: 0x21C }
  - { offset: 0x8EA36, size: 0x8, addend: 0x0, symName: __RNvXsf_NtNtCs9bTl5rSDVcL_10proc_macro6bridge6clientNtB5_11TokenStreamINtNtB7_3rpc6EncodeuE6encodeCs3tyqko2rdGU_12serde_derive, symObjAddr: 0x84F4, symBinAddr: 0x4884C, symSize: 0x50 }
  - { offset: 0x8EB47, size: 0x8, addend: 0x0, symName: __RNvXsi_NtNtCs9bTl5rSDVcL_10proc_macro6bridge6clientNtB5_11TokenStreamINtNtB7_3rpc9DecodeMutuE6decodeCs3tyqko2rdGU_12serde_derive, symObjAddr: 0x88EC, symBinAddr: 0x48C44, symSize: 0x2C }
  - { offset: 0x8EB90, size: 0x8, addend: 0x0, symName: __RNvXsk_NtNtCs9bTl5rSDVcL_10proc_macro6bridge6clientNtB5_4SpanINtNtB7_3rpc9DecodeMutuE6decodeCs3tyqko2rdGU_12serde_derive, symObjAddr: 0x89E8, symBinAddr: 0x48D40, symSize: 0x2C }
  - { offset: 0x8F09A, size: 0x8, addend: 0x0, symName: __RINvNvNtNtCs9bTl5rSDVcL_10proc_macro6bridge14selfless_reify31reify_to_extern_c_fn_hrt_bridge7wrapperNtNtB6_6buffer6BufferNCINvMs6_NtB6_6clientINtB24_6ClientNtB8_11TokenStreamB2u_E7expand1NvCs3tyqko2rdGU_12serde_derive16derive_serializeE0EB31_, symObjAddr: 0x898, symBinAddr: 0x40BF0, symSize: 0x6C }
  - { offset: 0x8F131, size: 0x8, addend: 0x0, symName: __RINvNvNtNtCs9bTl5rSDVcL_10proc_macro6bridge14selfless_reify31reify_to_extern_c_fn_hrt_bridge7wrapperNtNtB6_6buffer6BufferNCINvMs6_NtB6_6clientINtB24_6ClientNtB8_11TokenStreamB2u_E7expand1NvCs3tyqko2rdGU_12serde_derive18derive_deserializeE0EB31_, symObjAddr: 0x904, symBinAddr: 0x40C5C, symSize: 0x6C }
  - { offset: 0x8F5F0, size: 0x8, addend: 0x0, symName: __RNvMs9_NtCs85QQFkKrybG_4core3numj11checked_addCs3tyqko2rdGU_12serde_derive, symObjAddr: 0x5EE8, symBinAddr: 0x46240, symSize: 0x7C }
  - { offset: 0x8F67A, size: 0x8, addend: 0x0, symName: __RNvNvMs9_NtCs85QQFkKrybG_4core3numj13unchecked_add18precondition_checkCs3tyqko2rdGU_12serde_derive, symObjAddr: 0x61D0, symBinAddr: 0x46528, symSize: 0xB0 }
  - { offset: 0x8F97F, size: 0x8, addend: 0x0, symName: __RNvNvMs3_NtCs85QQFkKrybG_4core3numi13unchecked_neg18precondition_checkCs3tyqko2rdGU_12serde_derive, symObjAddr: 0x6118, symBinAddr: 0x46470, symSize: 0xB8 }
  - { offset: 0x9425F, size: 0x8, addend: 0x0, symName: __RNvXs_NtNtCs85QQFkKrybG_4core5slice4iterRSTReNtNtNtCs3tyqko2rdGU_12serde_derive9internals4case10RenameRuleENtNtNtNtB8_4iter6traits7collect12IntoIterator9into_iterBN_, symObjAddr: 0x7C10, symBinAddr: 0x47F68, symSize: 0x58 }
  - { offset: 0x94588, size: 0x8, addend: 0x0, symName: __RNvNvNtNtCs85QQFkKrybG_4core5slice3raw14from_raw_parts18precondition_checkCs3tyqko2rdGU_12serde_derive, symObjAddr: 0x6280, symBinAddr: 0x465D8, symSize: 0x1D8 }
  - { offset: 0x94726, size: 0x8, addend: 0x0, symName: __RNvNvNtNtCs85QQFkKrybG_4core5slice3raw18from_raw_parts_mut18precondition_checkCs3tyqko2rdGU_12serde_derive, symObjAddr: 0x6458, symBinAddr: 0x467B0, symSize: 0x1D8 }
  - { offset: 0x948C5, size: 0x8, addend: 0x0, symName: __RNvMNtCs85QQFkKrybG_4core5sliceSTReNtNtNtCs3tyqko2rdGU_12serde_derive9internals4case10RenameRuleE4iterBD_, symObjAddr: 0x3EA4, symBinAddr: 0x441FC, symSize: 0x28 }
  - { offset: 0x9495D, size: 0x8, addend: 0x0, symName: __RINvNtCs85QQFkKrybG_4core3mem4takeINtNtCscwCr4GBBztI_3syn10punctuated10PunctuatedNtNtBB_4path11PathSegmentNtNtBB_5token7PathSepEECs3tyqko2rdGU_12serde_derive, symObjAddr: 0x0, symBinAddr: 0x40358, symSize: 0x54 }
  - { offset: 0x949BA, size: 0x8, addend: 0x0, symName: __RINvNtCs85QQFkKrybG_4core3mem7replaceNtNtCscwCr4GBBztI_3syn4path4PathECs3tyqko2rdGU_12serde_derive, symObjAddr: 0x54, symBinAddr: 0x403AC, symSize: 0x5C }
  - { offset: 0x951B3, size: 0x8, addend: 0x0, symName: __RNvXsn_NtNtCs85QQFkKrybG_4core5panic11unwind_safeINtB5_16AssertUnwindSafeNCINvNtNtCs9bTl5rSDVcL_10proc_macro6bridge6client10run_clientNtB1e_11TokenStreamINtNtB9_6option6OptionB28_ENCNCINvMs6_B1e_INtB1e_6ClientNtB1i_11TokenStreamB3l_E7expand1NvCs3tyqko2rdGU_12serde_derive16derive_serializeE00E0EINtNtNtB9_3ops8function6FnOnceuE9call_onceB3T_, symObjAddr: 0x8A48, symBinAddr: 0x48DA0, symSize: 0x38 }
  - { offset: 0x9520B, size: 0x8, addend: 0x0, symName: __RNvXsn_NtNtCs85QQFkKrybG_4core5panic11unwind_safeINtB5_16AssertUnwindSafeNCINvNtNtCs9bTl5rSDVcL_10proc_macro6bridge6client10run_clientNtB1e_11TokenStreamINtNtB9_6option6OptionB28_ENCNCINvMs6_B1e_INtB1e_6ClientNtB1i_11TokenStreamB3l_E7expand1NvCs3tyqko2rdGU_12serde_derive18derive_deserializeE00E0EINtNtNtB9_3ops8function6FnOnceuE9call_onceB3T_, symObjAddr: 0x8A80, symBinAddr: 0x48DD8, symSize: 0x38 }
  - { offset: 0x95D6D, size: 0x8, addend: 0x0, symName: __RINvXs_NtNtNtCs85QQFkKrybG_4core4iter8adapters6clonedINtB5_6ClonedINtNtBb_6option4IterNtNtCscwCr4GBBztI_3syn8lifetime8LifetimeEENtNtNtB9_6traits8iterator8Iterator4folduNCINvNvB22_8for_each4callB1m_NCINvXsl_NtNtNtCsdFlNUEO95cG_5alloc11collections5btree3setINtB3i_8BTreeSetB1m_EINtNtB26_7collect6ExtendB1m_E6extendBP_E0E0ECs3tyqko2rdGU_12serde_derive, symObjAddr: 0x1BC0, symBinAddr: 0x41F18, symSize: 0xA0 }
  - { offset: 0x95E02, size: 0x8, addend: 0x0, symName: __RINvXs_NtNtNtCs85QQFkKrybG_4core4iter8adapters6clonedINtB5_6ClonedINtNtNtNtCsdFlNUEO95cG_5alloc11collections5btree3set4IterNtNtCscwCr4GBBztI_3syn8lifetime8LifetimeEENtNtNtB9_6traits8iterator8Iterator4folduNCINvNvB2D_8for_each4callB1X_NCINvXsl_B15_INtB15_8BTreeSetB1X_EINtNtB2H_7collect6ExtendB1X_E6extendBP_E0E0ECs3tyqko2rdGU_12serde_derive, symObjAddr: 0x1C60, symBinAddr: 0x41FB8, symSize: 0xD4 }
  - { offset: 0x95E98, size: 0x8, addend: 0x0, symName: __RNvXs_NtNtNtCs85QQFkKrybG_4core4iter8adapters6clonedINtB4_6ClonedINtNtCscwCr4GBBztI_3syn10punctuated4IterNtNtB16_8generics12GenericParamEENtNtNtB8_6traits8iterator8Iterator4nextCs3tyqko2rdGU_12serde_derive, symObjAddr: 0x7C68, symBinAddr: 0x47FC0, symSize: 0x84 }
  - { offset: 0x95F0D, size: 0x8, addend: 0x0, symName: __RNvXs_NtNtNtCs85QQFkKrybG_4core4iter8adapters6clonedINtB4_6ClonedINtNtNtBa_5slice4iter4IterNtNtCscwCr4GBBztI_3syn8generics14WherePredicateEENtNtNtB8_6traits8iterator8Iterator4nextCs3tyqko2rdGU_12serde_derive, symObjAddr: 0x7CEC, symBinAddr: 0x48044, symSize: 0x84 }
  - { offset: 0x95F82, size: 0x8, addend: 0x0, symName: __RNvXs_NtNtNtCs85QQFkKrybG_4core4iter8adapters6clonedINtB4_6ClonedINtNtNtCsdFlNUEO95cG_5alloc3vec9into_iter8IntoIterRNtNtCscwCr4GBBztI_3syn2ty8TypePathEENtNtNtB8_6traits8iterator8Iterator4nextCs3tyqko2rdGU_12serde_derive, symObjAddr: 0x7D70, symBinAddr: 0x480C8, symSize: 0x7C }
  - { offset: 0x95FF7, size: 0x8, addend: 0x0, symName: __RNvXs_NtNtNtCs85QQFkKrybG_4core4iter8adapters6clonedINtB4_6ClonedINtNtNtNtCsdFlNUEO95cG_5alloc11collections5btree3set4IterNtNtCscwCr4GBBztI_3syn8lifetime8LifetimeEENtNtNtB8_6traits8iterator8Iterator4nextCs3tyqko2rdGU_12serde_derive, symObjAddr: 0x7DEC, symBinAddr: 0x48144, symSize: 0x78 }
  - { offset: 0x964A5, size: 0x8, addend: 0x0, symName: __RINvYINtNtCscwCr4GBBztI_3syn10punctuated11PrivateIterNtNtB8_2ty4TypeNtNtB8_5token5CommaENtNtNtNtCs85QQFkKrybG_4core4iter6traits8iterator8Iterator8try_foldINtNtNtB1w_3num7nonzero7NonZerojENCNvXs_NvB1o_10advance_byB3_NtB36_13SpecAdvanceBy15spec_advance_by0INtNtB1w_6option6OptionB2s_EECs3tyqko2rdGU_12serde_derive, symObjAddr: 0x1D34, symBinAddr: 0x4208C, symSize: 0x150 }
  - { offset: 0x96559, size: 0x8, addend: 0x0, symName: __RINvYINtNtCscwCr4GBBztI_3syn10punctuated11PrivateIterNtNtB8_2ty9BareFnArgNtNtB8_5token5CommaENtNtNtNtCs85QQFkKrybG_4core4iter6traits8iterator8Iterator8try_foldINtNtNtB1B_3num7nonzero7NonZerojENCNvXs_NvB1t_10advance_byB3_NtB3b_13SpecAdvanceBy15spec_advance_by0INtNtB1B_6option6OptionB2x_EECs3tyqko2rdGU_12serde_derive, symObjAddr: 0x1E84, symBinAddr: 0x421DC, symSize: 0x150 }
  - { offset: 0x9660D, size: 0x8, addend: 0x0, symName: __RINvYINtNtCscwCr4GBBztI_3syn10punctuated11PrivateIterNtNtB8_4data7VariantNtNtB8_5token5CommaENtNtNtNtCs85QQFkKrybG_4core4iter6traits8iterator8Iterator8try_foldINtNtNtB1B_3num7nonzero7NonZerojENCNvXs_NvB1t_10advance_byB3_NtB3b_13SpecAdvanceBy15spec_advance_by0INtNtB1B_6option6OptionB2x_EECs3tyqko2rdGU_12serde_derive, symObjAddr: 0x1FD4, symBinAddr: 0x4232C, symSize: 0x150 }
  - { offset: 0x966C1, size: 0x8, addend: 0x0, symName: __RINvYINtNtCscwCr4GBBztI_3syn10punctuated11PrivateIterNtNtB8_4path15GenericArgumentNtNtB8_5token5CommaENtNtNtNtCs85QQFkKrybG_4core4iter6traits8iterator8Iterator8try_foldINtNtNtB1K_3num7nonzero7NonZerojENCNvXs_NvB1C_10advance_byB3_NtB3k_13SpecAdvanceBy15spec_advance_by0INtNtB1K_6option6OptionB2G_EECs3tyqko2rdGU_12serde_derive, symObjAddr: 0x2124, symBinAddr: 0x4247C, symSize: 0x150 }
  - { offset: 0x96775, size: 0x8, addend: 0x0, symName: __RINvYINtNtCscwCr4GBBztI_3syn10punctuated14PrivateIterMutNtNtB8_2ty4TypeNtNtB8_5token5CommaENtNtNtNtCs85QQFkKrybG_4core4iter6traits8iterator8Iterator8try_foldINtNtNtB1z_3num7nonzero7NonZerojENCNvXs_NvB1r_10advance_byB3_NtB39_13SpecAdvanceBy15spec_advance_by0INtNtB1z_6option6OptionB2v_EECs3tyqko2rdGU_12serde_derive, symObjAddr: 0x2274, symBinAddr: 0x425CC, symSize: 0x150 }
  - { offset: 0x96829, size: 0x8, addend: 0x0, symName: __RINvYINtNtCscwCr4GBBztI_3syn10punctuated14PrivateIterMutNtNtB8_2ty9BareFnArgNtNtB8_5token5CommaENtNtNtNtCs85QQFkKrybG_4core4iter6traits8iterator8Iterator8try_foldINtNtNtB1E_3num7nonzero7NonZerojENCNvXs_NvB1w_10advance_byB3_NtB3e_13SpecAdvanceBy15spec_advance_by0INtNtB1E_6option6OptionB2A_EECs3tyqko2rdGU_12serde_derive, symObjAddr: 0x23C4, symBinAddr: 0x4271C, symSize: 0x150 }
  - { offset: 0x968DD, size: 0x8, addend: 0x0, symName: __RINvYINtNtCscwCr4GBBztI_3syn10punctuated14PrivateIterMutNtNtB8_4data7VariantNtNtB8_5token5CommaENtNtNtNtCs85QQFkKrybG_4core4iter6traits8iterator8Iterator8try_foldINtNtNtB1E_3num7nonzero7NonZerojENCNvXs_NvB1w_10advance_byB3_NtB3e_13SpecAdvanceBy15spec_advance_by0INtNtB1E_6option6OptionB2A_EECs3tyqko2rdGU_12serde_derive, symObjAddr: 0x2514, symBinAddr: 0x4286C, symSize: 0x150 }
  - { offset: 0x96991, size: 0x8, addend: 0x0, symName: __RINvYINtNtCscwCr4GBBztI_3syn10punctuated14PrivateIterMutNtNtB8_4expr4ExprNtNtB8_5token5CommaENtNtNtNtCs85QQFkKrybG_4core4iter6traits8iterator8Iterator8try_foldINtNtNtB1B_3num7nonzero7NonZerojENCNvXs_NvB1t_10advance_byB3_NtB3b_13SpecAdvanceBy15spec_advance_by0INtNtB1B_6option6OptionB2x_EECs3tyqko2rdGU_12serde_derive, symObjAddr: 0x2664, symBinAddr: 0x429BC, symSize: 0x150 }
  - { offset: 0x96A45, size: 0x8, addend: 0x0, symName: __RINvYINtNtCscwCr4GBBztI_3syn10punctuated14PrivateIterMutNtNtB8_4path15GenericArgumentNtNtB8_5token5CommaENtNtNtNtCs85QQFkKrybG_4core4iter6traits8iterator8Iterator8try_foldINtNtNtB1N_3num7nonzero7NonZerojENCNvXs_NvB1F_10advance_byB3_NtB3n_13SpecAdvanceBy15spec_advance_by0INtNtB1N_6option6OptionB2J_EECs3tyqko2rdGU_12serde_derive, symObjAddr: 0x27B4, symBinAddr: 0x42B0C, symSize: 0x150 }
  - { offset: 0x96AF9, size: 0x8, addend: 0x0, symName: __RINvYINtNtCscwCr4GBBztI_3syn10punctuated14PrivateIterMutNtNtB8_8generics14TypeParamBoundNtNtB8_5token4PlusENtNtNtNtCs85QQFkKrybG_4core4iter6traits8iterator8Iterator8try_foldINtNtNtB1P_3num7nonzero7NonZerojENCNvXs_NvB1H_10advance_byB3_NtB3p_13SpecAdvanceBy15spec_advance_by0INtNtB1P_6option6OptionB2L_EECs3tyqko2rdGU_12serde_derive, symObjAddr: 0x2904, symBinAddr: 0x42C5C, symSize: 0x150 }
  - { offset: 0x96BAD, size: 0x8, addend: 0x0, symName: __RINvYINtNtCscwCr4GBBztI_3syn10punctuated14PrivateIterMutNtNtB8_8generics14WherePredicateNtNtB8_5token5CommaENtNtNtNtCs85QQFkKrybG_4core4iter6traits8iterator8Iterator8try_foldINtNtNtB1Q_3num7nonzero7NonZerojENCNvXs_NvB1I_10advance_byB3_NtB3q_13SpecAdvanceBy15spec_advance_by0INtNtB1Q_6option6OptionB2M_EECs3tyqko2rdGU_12serde_derive, symObjAddr: 0x2A54, symBinAddr: 0x42DAC, symSize: 0x150 }
  - { offset: 0x96C61, size: 0x8, addend: 0x0, symName: __RINvYINtNtCscwCr4GBBztI_3syn10punctuated4IterNtNtB8_4data7VariantENtNtNtNtCs85QQFkKrybG_4core4iter6traits8iterator8Iterator3mapNtNtNtCs3tyqko2rdGU_12serde_derive9internals3ast7VariantNCNvB23_13enum_from_ast0EB27_, symObjAddr: 0x2BA4, symBinAddr: 0x42EFC, symSize: 0x38 }
  - { offset: 0x96CCE, size: 0x8, addend: 0x0, symName: __RINvYINtNtCscwCr4GBBztI_3syn10punctuated4IterNtNtB8_8generics12GenericParamENtNtNtNtCs85QQFkKrybG_4core4iter6traits8iterator8Iterator3mapBH_NCNvNtCs3tyqko2rdGU_12serde_derive5bound16without_defaults0EB2k_, symObjAddr: 0x2BDC, symBinAddr: 0x42F34, symSize: 0x1C }
  - { offset: 0x96D26, size: 0x8, addend: 0x0, symName: __RINvYINtNtCscwCr4GBBztI_3syn10punctuated4IterNtNtB8_8generics12GenericParamENtNtNtNtCs85QQFkKrybG_4core4iter6traits8iterator8Iterator3mapNtNtB8_4path15GenericArgumentNCNvNtCs3tyqko2rdGU_12serde_derive5bound12type_of_item0EB2K_, symObjAddr: 0x2BF8, symBinAddr: 0x42F50, symSize: 0x1C }
  - { offset: 0x96D7E, size: 0x8, addend: 0x0, symName: __RINvYINtNtCscwCr4GBBztI_3syn10punctuated4IterNtNtB8_8generics12GenericParamENtNtNtNtCs85QQFkKrybG_4core4iter6traits8iterator8Iterator6clonedBH_ECs3tyqko2rdGU_12serde_derive, symObjAddr: 0x2C14, symBinAddr: 0x42F6C, symSize: 0x1C }
  - { offset: 0x96DBE, size: 0x8, addend: 0x0, symName: __RINvYINtNtCscwCr4GBBztI_3syn10punctuated9IntoPairsNtNtB8_4path11PathSegmentNtNtB8_5token7PathSepENtNtNtNtCs85QQFkKrybG_4core4iter6traits8iterator8Iterator8try_foldINtNtNtB1F_3num7nonzero7NonZerojENCNvXs_NvB1x_10advance_byB3_NtB3f_13SpecAdvanceBy15spec_advance_by0INtNtB1F_6option6OptionB2B_EECs3tyqko2rdGU_12serde_derive, symObjAddr: 0x2C30, symBinAddr: 0x42F88, symSize: 0x1B0 }
  - { offset: 0x96E73, size: 0x8, addend: 0x0, symName: __RINvYINtNtNtNtCs85QQFkKrybG_4core4iter8adapters6cloned6ClonedINtNtBc_6option4IterNtNtCscwCr4GBBztI_3syn8lifetime8LifetimeEENtNtNtBa_6traits8iterator8Iterator8for_eachNCINvXsl_NtNtNtCsdFlNUEO95cG_5alloc11collections5btree3setINtB2N_8BTreeSetB1h_EINtNtB21_7collect6ExtendB1h_E6extendB3_E0ECs3tyqko2rdGU_12serde_derive, symObjAddr: 0x2DE0, symBinAddr: 0x43138, symSize: 0x2C }
  - { offset: 0x96EBE, size: 0x8, addend: 0x0, symName: __RINvYINtNtNtNtCs85QQFkKrybG_4core4iter8adapters6cloned6ClonedINtNtCscwCr4GBBztI_3syn10punctuated4IterNtNtB12_8generics12GenericParamEENtNtNtBa_6traits8iterator8Iterator3mapB1B_NCNvNtCs3tyqko2rdGU_12serde_derive5bound19with_lifetime_bound0EB2U_, symObjAddr: 0x2E0C, symBinAddr: 0x43164, symSize: 0x30 }
  - { offset: 0x96F2B, size: 0x8, addend: 0x0, symName: __RINvYINtNtNtNtCs85QQFkKrybG_4core4iter8adapters6cloned6ClonedINtNtNtNtCsdFlNUEO95cG_5alloc11collections5btree3set4IterNtNtCscwCr4GBBztI_3syn8lifetime8LifetimeEENtNtNtBa_6traits8iterator8Iterator7collectINtNtB1W_10punctuated10PunctuatedB1S_NtNtB1W_5token4PlusEECs3tyqko2rdGU_12serde_derive, symObjAddr: 0x2E3C, symBinAddr: 0x43194, symSize: 0x6C }
  - { offset: 0x96FC1, size: 0x8, addend: 0x0, symName: __RINvYINtNtNtNtCs85QQFkKrybG_4core4iter8adapters6cloned6ClonedINtNtNtNtCsdFlNUEO95cG_5alloc11collections5btree3set4IterNtNtCscwCr4GBBztI_3syn8lifetime8LifetimeEENtNtNtBa_6traits8iterator8Iterator8for_eachNCINvXsl_B10_INtB10_8BTreeSetB1S_EINtNtB2C_7collect6ExtendB1S_E6extendB3_E0ECs3tyqko2rdGU_12serde_derive, symObjAddr: 0x2EA8, symBinAddr: 0x43200, symSize: 0x24 }
  - { offset: 0x9700D, size: 0x8, addend: 0x0, symName: __RINvYNtNtCsfwj6t2KTYdc_11proc_macro212token_stream8IntoIterNtNtNtNtCs85QQFkKrybG_4core4iter6traits8iterator8Iterator3mapNtB7_9TokenTreeNCNvNtNtCs3tyqko2rdGU_12serde_derive9internals6respan6respan0EB2h_, symObjAddr: 0x2ECC, symBinAddr: 0x43224, symSize: 0x50 }
  - { offset: 0x9707B, size: 0x8, addend: 0x0, symName: __RINvYNtNtCsfwj6t2KTYdc_11proc_macro212token_stream8IntoIterNtNtNtNtCs85QQFkKrybG_4core4iter6traits8iterator8Iterator4folduNCINvNtNtB11_8adapters3map8map_foldNtB7_9TokenTreeB2v_uNCNvNtNtCs3tyqko2rdGU_12serde_derive9internals6respan6respan0NCIB1Z_B2v_NtCs9bTl5rSDVcL_10proc_macro9TokenTreeuNvNtB7_3imp19into_compiler_tokenNCINvNvBV_8for_each4callB3Z_NCINvXsg_B41_NtB41_11TokenStreamINtNtBZ_7collect12FromIteratorB3Z_E9from_iterINtB21_3MapIB6Q_B3_B2P_EB4C_EE0E0E0E0EB2X_, symObjAddr: 0x2F1C, symBinAddr: 0x43274, symSize: 0xDC }
  - { offset: 0x9710C, size: 0x8, addend: 0x0, symName: __RINvYNtNtCsfwj6t2KTYdc_11proc_macro212token_stream8IntoIterNtNtNtNtCs85QQFkKrybG_4core4iter6traits8iterator8Iterator4folduNCINvNtNtB11_8adapters3map8map_foldNtB7_9TokenTreeB2v_uNCNvNtNtCs3tyqko2rdGU_12serde_derive9internals6respan6respan0NCINvNvBV_8for_each4callB2v_NCINvXsa_NtB7_8fallbackNtB4p_11TokenStreamINtNtBZ_7collect6ExtendB2v_E6extendINtB21_3MapB3_B2P_EE0E0E0EB2X_, symObjAddr: 0x2FF8, symBinAddr: 0x43350, symSize: 0xDC }
  - { offset: 0x971A7, size: 0x8, addend: 0x0, symName: __RNvXs_NvNtNtNtNtCs85QQFkKrybG_4core4iter6traits8iterator8Iterator10advance_byINtNtCscwCr4GBBztI_3syn10punctuated11PrivateIterNtNtB1i_2ty4TypeNtNtB1i_5token5CommaENtB4_13SpecAdvanceBy15spec_advance_byCs3tyqko2rdGU_12serde_derive, symObjAddr: 0x7E64, symBinAddr: 0x481BC, symSize: 0x8C }
  - { offset: 0x97255, size: 0x8, addend: 0x0, symName: __RNvXs_NvNtNtNtNtCs85QQFkKrybG_4core4iter6traits8iterator8Iterator10advance_byINtNtCscwCr4GBBztI_3syn10punctuated11PrivateIterNtNtB1i_2ty9BareFnArgNtNtB1i_5token5CommaENtB4_13SpecAdvanceBy15spec_advance_byCs3tyqko2rdGU_12serde_derive, symObjAddr: 0x7EF0, symBinAddr: 0x48248, symSize: 0x8C }
  - { offset: 0x97303, size: 0x8, addend: 0x0, symName: __RNvXs_NvNtNtNtNtCs85QQFkKrybG_4core4iter6traits8iterator8Iterator10advance_byINtNtCscwCr4GBBztI_3syn10punctuated11PrivateIterNtNtB1i_4data7VariantNtNtB1i_5token5CommaENtB4_13SpecAdvanceBy15spec_advance_byCs3tyqko2rdGU_12serde_derive, symObjAddr: 0x7F7C, symBinAddr: 0x482D4, symSize: 0x8C }
  - { offset: 0x973B1, size: 0x8, addend: 0x0, symName: __RNvXs_NvNtNtNtNtCs85QQFkKrybG_4core4iter6traits8iterator8Iterator10advance_byINtNtCscwCr4GBBztI_3syn10punctuated11PrivateIterNtNtB1i_4path15GenericArgumentNtNtB1i_5token5CommaENtB4_13SpecAdvanceBy15spec_advance_byCs3tyqko2rdGU_12serde_derive, symObjAddr: 0x8008, symBinAddr: 0x48360, symSize: 0x8C }
  - { offset: 0x9745F, size: 0x8, addend: 0x0, symName: __RNvXs_NvNtNtNtNtCs85QQFkKrybG_4core4iter6traits8iterator8Iterator10advance_byINtNtCscwCr4GBBztI_3syn10punctuated14PrivateIterMutNtNtB1i_2ty4TypeNtNtB1i_5token5CommaENtB4_13SpecAdvanceBy15spec_advance_byCs3tyqko2rdGU_12serde_derive, symObjAddr: 0x8094, symBinAddr: 0x483EC, symSize: 0x8C }
  - { offset: 0x9750D, size: 0x8, addend: 0x0, symName: __RNvXs_NvNtNtNtNtCs85QQFkKrybG_4core4iter6traits8iterator8Iterator10advance_byINtNtCscwCr4GBBztI_3syn10punctuated14PrivateIterMutNtNtB1i_2ty9BareFnArgNtNtB1i_5token5CommaENtB4_13SpecAdvanceBy15spec_advance_byCs3tyqko2rdGU_12serde_derive, symObjAddr: 0x8120, symBinAddr: 0x48478, symSize: 0x8C }
  - { offset: 0x975BB, size: 0x8, addend: 0x0, symName: __RNvXs_NvNtNtNtNtCs85QQFkKrybG_4core4iter6traits8iterator8Iterator10advance_byINtNtCscwCr4GBBztI_3syn10punctuated14PrivateIterMutNtNtB1i_4data7VariantNtNtB1i_5token5CommaENtB4_13SpecAdvanceBy15spec_advance_byCs3tyqko2rdGU_12serde_derive, symObjAddr: 0x81AC, symBinAddr: 0x48504, symSize: 0x8C }
  - { offset: 0x97669, size: 0x8, addend: 0x0, symName: __RNvXs_NvNtNtNtNtCs85QQFkKrybG_4core4iter6traits8iterator8Iterator10advance_byINtNtCscwCr4GBBztI_3syn10punctuated14PrivateIterMutNtNtB1i_4expr4ExprNtNtB1i_5token5CommaENtB4_13SpecAdvanceBy15spec_advance_byCs3tyqko2rdGU_12serde_derive, symObjAddr: 0x8238, symBinAddr: 0x48590, symSize: 0x8C }
  - { offset: 0x97717, size: 0x8, addend: 0x0, symName: __RNvXs_NvNtNtNtNtCs85QQFkKrybG_4core4iter6traits8iterator8Iterator10advance_byINtNtCscwCr4GBBztI_3syn10punctuated14PrivateIterMutNtNtB1i_4path15GenericArgumentNtNtB1i_5token5CommaENtB4_13SpecAdvanceBy15spec_advance_byCs3tyqko2rdGU_12serde_derive, symObjAddr: 0x82C4, symBinAddr: 0x4861C, symSize: 0x8C }
  - { offset: 0x977C5, size: 0x8, addend: 0x0, symName: __RNvXs_NvNtNtNtNtCs85QQFkKrybG_4core4iter6traits8iterator8Iterator10advance_byINtNtCscwCr4GBBztI_3syn10punctuated14PrivateIterMutNtNtB1i_8generics14TypeParamBoundNtNtB1i_5token4PlusENtB4_13SpecAdvanceBy15spec_advance_byCs3tyqko2rdGU_12serde_derive, symObjAddr: 0x8350, symBinAddr: 0x486A8, symSize: 0x8C }
  - { offset: 0x97873, size: 0x8, addend: 0x0, symName: __RNvXs_NvNtNtNtNtCs85QQFkKrybG_4core4iter6traits8iterator8Iterator10advance_byINtNtCscwCr4GBBztI_3syn10punctuated14PrivateIterMutNtNtB1i_8generics14WherePredicateNtNtB1i_5token5CommaENtB4_13SpecAdvanceBy15spec_advance_byCs3tyqko2rdGU_12serde_derive, symObjAddr: 0x83DC, symBinAddr: 0x48734, symSize: 0x8C }
  - { offset: 0x97921, size: 0x8, addend: 0x0, symName: __RNvXs_NvNtNtNtNtCs85QQFkKrybG_4core4iter6traits8iterator8Iterator10advance_byINtNtCscwCr4GBBztI_3syn10punctuated9IntoPairsNtNtB1i_4path11PathSegmentNtNtB1i_5token7PathSepENtB4_13SpecAdvanceBy15spec_advance_byCs3tyqko2rdGU_12serde_derive, symObjAddr: 0x8468, symBinAddr: 0x487C0, symSize: 0x8C }
  - { offset: 0x97A2B, size: 0x8, addend: 0x0, symName: __RNvYINtNtCscwCr4GBBztI_3syn10punctuated11PrivateIterNtNtB7_2ty4TypeNtNtB7_5token5CommaENtNtNtNtCs85QQFkKrybG_4core4iter6traits8iterator8Iterator10advance_byCs3tyqko2rdGU_12serde_derive, symObjAddr: 0x9B14, symBinAddr: 0x49E6C, symSize: 0x28 }
  - { offset: 0x97A71, size: 0x8, addend: 0x0, symName: __RNvYINtNtCscwCr4GBBztI_3syn10punctuated11PrivateIterNtNtB7_2ty4TypeNtNtB7_5token5CommaENtNtNtNtCs85QQFkKrybG_4core4iter6traits8iterator8Iterator3nthCs3tyqko2rdGU_12serde_derive, symObjAddr: 0x9B3C, symBinAddr: 0x49E94, symSize: 0x7C }
  - { offset: 0x97B41, size: 0x8, addend: 0x0, symName: __RNvYINtNtCscwCr4GBBztI_3syn10punctuated11PrivateIterNtNtB7_2ty4TypeNtNtB7_5token5CommaENtNtNtNtCs85QQFkKrybG_4core4iter6traits8iterator8Iterator9size_hintCs3tyqko2rdGU_12serde_derive, symObjAddr: 0x9BB8, symBinAddr: 0x49F10, symSize: 0x34 }
  - { offset: 0x97B76, size: 0x8, addend: 0x0, symName: __RNvYINtNtCscwCr4GBBztI_3syn10punctuated11PrivateIterNtNtB7_2ty9BareFnArgNtNtB7_5token5CommaENtNtNtNtCs85QQFkKrybG_4core4iter6traits8iterator8Iterator10advance_byCs3tyqko2rdGU_12serde_derive, symObjAddr: 0x9DD8, symBinAddr: 0x4A130, symSize: 0x28 }
  - { offset: 0x97BBC, size: 0x8, addend: 0x0, symName: __RNvYINtNtCscwCr4GBBztI_3syn10punctuated11PrivateIterNtNtB7_2ty9BareFnArgNtNtB7_5token5CommaENtNtNtNtCs85QQFkKrybG_4core4iter6traits8iterator8Iterator3nthCs3tyqko2rdGU_12serde_derive, symObjAddr: 0x9E00, symBinAddr: 0x4A158, symSize: 0x7C }
  - { offset: 0x97C8C, size: 0x8, addend: 0x0, symName: __RNvYINtNtCscwCr4GBBztI_3syn10punctuated11PrivateIterNtNtB7_2ty9BareFnArgNtNtB7_5token5CommaENtNtNtNtCs85QQFkKrybG_4core4iter6traits8iterator8Iterator9size_hintCs3tyqko2rdGU_12serde_derive, symObjAddr: 0x9E7C, symBinAddr: 0x4A1D4, symSize: 0x34 }
  - { offset: 0x97CC1, size: 0x8, addend: 0x0, symName: __RNvYINtNtCscwCr4GBBztI_3syn10punctuated11PrivateIterNtNtB7_4data7VariantNtNtB7_5token5CommaENtNtNtNtCs85QQFkKrybG_4core4iter6traits8iterator8Iterator10advance_byCs3tyqko2rdGU_12serde_derive, symObjAddr: 0xA09C, symBinAddr: 0x4A3F4, symSize: 0x28 }
  - { offset: 0x97D07, size: 0x8, addend: 0x0, symName: __RNvYINtNtCscwCr4GBBztI_3syn10punctuated11PrivateIterNtNtB7_4data7VariantNtNtB7_5token5CommaENtNtNtNtCs85QQFkKrybG_4core4iter6traits8iterator8Iterator3nthCs3tyqko2rdGU_12serde_derive, symObjAddr: 0xA0C4, symBinAddr: 0x4A41C, symSize: 0x7C }
  - { offset: 0x97DD7, size: 0x8, addend: 0x0, symName: __RNvYINtNtCscwCr4GBBztI_3syn10punctuated11PrivateIterNtNtB7_4data7VariantNtNtB7_5token5CommaENtNtNtNtCs85QQFkKrybG_4core4iter6traits8iterator8Iterator9size_hintCs3tyqko2rdGU_12serde_derive, symObjAddr: 0xA140, symBinAddr: 0x4A498, symSize: 0x34 }
  - { offset: 0x97E0C, size: 0x8, addend: 0x0, symName: __RNvYINtNtCscwCr4GBBztI_3syn10punctuated11PrivateIterNtNtB7_4path15GenericArgumentNtNtB7_5token5CommaENtNtNtNtCs85QQFkKrybG_4core4iter6traits8iterator8Iterator10advance_byCs3tyqko2rdGU_12serde_derive, symObjAddr: 0xA360, symBinAddr: 0x4A6B8, symSize: 0x28 }
  - { offset: 0x97E52, size: 0x8, addend: 0x0, symName: __RNvYINtNtCscwCr4GBBztI_3syn10punctuated11PrivateIterNtNtB7_4path15GenericArgumentNtNtB7_5token5CommaENtNtNtNtCs85QQFkKrybG_4core4iter6traits8iterator8Iterator3nthCs3tyqko2rdGU_12serde_derive, symObjAddr: 0xA388, symBinAddr: 0x4A6E0, symSize: 0x7C }
  - { offset: 0x97F22, size: 0x8, addend: 0x0, symName: __RNvYINtNtCscwCr4GBBztI_3syn10punctuated11PrivateIterNtNtB7_4path15GenericArgumentNtNtB7_5token5CommaENtNtNtNtCs85QQFkKrybG_4core4iter6traits8iterator8Iterator9size_hintCs3tyqko2rdGU_12serde_derive, symObjAddr: 0xA404, symBinAddr: 0x4A75C, symSize: 0x34 }
  - { offset: 0x97F57, size: 0x8, addend: 0x0, symName: __RNvYINtNtCscwCr4GBBztI_3syn10punctuated14PrivateIterMutNtNtB7_2ty4TypeNtNtB7_5token5CommaENtNtNtNtCs85QQFkKrybG_4core4iter6traits8iterator8Iterator10advance_byCs3tyqko2rdGU_12serde_derive, symObjAddr: 0xA624, symBinAddr: 0x4A97C, symSize: 0x28 }
  - { offset: 0x97F9D, size: 0x8, addend: 0x0, symName: __RNvYINtNtCscwCr4GBBztI_3syn10punctuated14PrivateIterMutNtNtB7_2ty4TypeNtNtB7_5token5CommaENtNtNtNtCs85QQFkKrybG_4core4iter6traits8iterator8Iterator3nthCs3tyqko2rdGU_12serde_derive, symObjAddr: 0xA64C, symBinAddr: 0x4A9A4, symSize: 0x7C }
  - { offset: 0x9806D, size: 0x8, addend: 0x0, symName: __RNvYINtNtCscwCr4GBBztI_3syn10punctuated14PrivateIterMutNtNtB7_2ty4TypeNtNtB7_5token5CommaENtNtNtNtCs85QQFkKrybG_4core4iter6traits8iterator8Iterator9size_hintCs3tyqko2rdGU_12serde_derive, symObjAddr: 0xA6C8, symBinAddr: 0x4AA20, symSize: 0x34 }
  - { offset: 0x980A2, size: 0x8, addend: 0x0, symName: __RNvYINtNtCscwCr4GBBztI_3syn10punctuated14PrivateIterMutNtNtB7_2ty9BareFnArgNtNtB7_5token5CommaENtNtNtNtCs85QQFkKrybG_4core4iter6traits8iterator8Iterator10advance_byCs3tyqko2rdGU_12serde_derive, symObjAddr: 0xA8E8, symBinAddr: 0x4AC40, symSize: 0x28 }
  - { offset: 0x980E8, size: 0x8, addend: 0x0, symName: __RNvYINtNtCscwCr4GBBztI_3syn10punctuated14PrivateIterMutNtNtB7_2ty9BareFnArgNtNtB7_5token5CommaENtNtNtNtCs85QQFkKrybG_4core4iter6traits8iterator8Iterator3nthCs3tyqko2rdGU_12serde_derive, symObjAddr: 0xA910, symBinAddr: 0x4AC68, symSize: 0x7C }
  - { offset: 0x981B8, size: 0x8, addend: 0x0, symName: __RNvYINtNtCscwCr4GBBztI_3syn10punctuated14PrivateIterMutNtNtB7_2ty9BareFnArgNtNtB7_5token5CommaENtNtNtNtCs85QQFkKrybG_4core4iter6traits8iterator8Iterator9size_hintCs3tyqko2rdGU_12serde_derive, symObjAddr: 0xA98C, symBinAddr: 0x4ACE4, symSize: 0x34 }
  - { offset: 0x981ED, size: 0x8, addend: 0x0, symName: __RNvYINtNtCscwCr4GBBztI_3syn10punctuated14PrivateIterMutNtNtB7_4data7VariantNtNtB7_5token5CommaENtNtNtNtCs85QQFkKrybG_4core4iter6traits8iterator8Iterator10advance_byCs3tyqko2rdGU_12serde_derive, symObjAddr: 0xABAC, symBinAddr: 0x4AF04, symSize: 0x28 }
  - { offset: 0x98233, size: 0x8, addend: 0x0, symName: __RNvYINtNtCscwCr4GBBztI_3syn10punctuated14PrivateIterMutNtNtB7_4data7VariantNtNtB7_5token5CommaENtNtNtNtCs85QQFkKrybG_4core4iter6traits8iterator8Iterator3nthCs3tyqko2rdGU_12serde_derive, symObjAddr: 0xABD4, symBinAddr: 0x4AF2C, symSize: 0x7C }
  - { offset: 0x98303, size: 0x8, addend: 0x0, symName: __RNvYINtNtCscwCr4GBBztI_3syn10punctuated14PrivateIterMutNtNtB7_4data7VariantNtNtB7_5token5CommaENtNtNtNtCs85QQFkKrybG_4core4iter6traits8iterator8Iterator9size_hintCs3tyqko2rdGU_12serde_derive, symObjAddr: 0xAC50, symBinAddr: 0x4AFA8, symSize: 0x34 }
  - { offset: 0x98338, size: 0x8, addend: 0x0, symName: __RNvYINtNtCscwCr4GBBztI_3syn10punctuated14PrivateIterMutNtNtB7_4expr4ExprNtNtB7_5token5CommaENtNtNtNtCs85QQFkKrybG_4core4iter6traits8iterator8Iterator10advance_byCs3tyqko2rdGU_12serde_derive, symObjAddr: 0xAE70, symBinAddr: 0x4B1C8, symSize: 0x28 }
  - { offset: 0x9837E, size: 0x8, addend: 0x0, symName: __RNvYINtNtCscwCr4GBBztI_3syn10punctuated14PrivateIterMutNtNtB7_4expr4ExprNtNtB7_5token5CommaENtNtNtNtCs85QQFkKrybG_4core4iter6traits8iterator8Iterator3nthCs3tyqko2rdGU_12serde_derive, symObjAddr: 0xAE98, symBinAddr: 0x4B1F0, symSize: 0x7C }
  - { offset: 0x9844E, size: 0x8, addend: 0x0, symName: __RNvYINtNtCscwCr4GBBztI_3syn10punctuated14PrivateIterMutNtNtB7_4expr4ExprNtNtB7_5token5CommaENtNtNtNtCs85QQFkKrybG_4core4iter6traits8iterator8Iterator9size_hintCs3tyqko2rdGU_12serde_derive, symObjAddr: 0xAF14, symBinAddr: 0x4B26C, symSize: 0x34 }
  - { offset: 0x98483, size: 0x8, addend: 0x0, symName: __RNvYINtNtCscwCr4GBBztI_3syn10punctuated14PrivateIterMutNtNtB7_4path15GenericArgumentNtNtB7_5token5CommaENtNtNtNtCs85QQFkKrybG_4core4iter6traits8iterator8Iterator10advance_byCs3tyqko2rdGU_12serde_derive, symObjAddr: 0xB134, symBinAddr: 0x4B48C, symSize: 0x28 }
  - { offset: 0x984C9, size: 0x8, addend: 0x0, symName: __RNvYINtNtCscwCr4GBBztI_3syn10punctuated14PrivateIterMutNtNtB7_4path15GenericArgumentNtNtB7_5token5CommaENtNtNtNtCs85QQFkKrybG_4core4iter6traits8iterator8Iterator3nthCs3tyqko2rdGU_12serde_derive, symObjAddr: 0xB15C, symBinAddr: 0x4B4B4, symSize: 0x7C }
  - { offset: 0x98599, size: 0x8, addend: 0x0, symName: __RNvYINtNtCscwCr4GBBztI_3syn10punctuated14PrivateIterMutNtNtB7_4path15GenericArgumentNtNtB7_5token5CommaENtNtNtNtCs85QQFkKrybG_4core4iter6traits8iterator8Iterator9size_hintCs3tyqko2rdGU_12serde_derive, symObjAddr: 0xB1D8, symBinAddr: 0x4B530, symSize: 0x34 }
  - { offset: 0x985CE, size: 0x8, addend: 0x0, symName: __RNvYINtNtCscwCr4GBBztI_3syn10punctuated14PrivateIterMutNtNtB7_8generics14TypeParamBoundNtNtB7_5token4PlusENtNtNtNtCs85QQFkKrybG_4core4iter6traits8iterator8Iterator10advance_byCs3tyqko2rdGU_12serde_derive, symObjAddr: 0xB3F8, symBinAddr: 0x4B750, symSize: 0x28 }
  - { offset: 0x98614, size: 0x8, addend: 0x0, symName: __RNvYINtNtCscwCr4GBBztI_3syn10punctuated14PrivateIterMutNtNtB7_8generics14TypeParamBoundNtNtB7_5token4PlusENtNtNtNtCs85QQFkKrybG_4core4iter6traits8iterator8Iterator3nthCs3tyqko2rdGU_12serde_derive, symObjAddr: 0xB420, symBinAddr: 0x4B778, symSize: 0x7C }
  - { offset: 0x986E4, size: 0x8, addend: 0x0, symName: __RNvYINtNtCscwCr4GBBztI_3syn10punctuated14PrivateIterMutNtNtB7_8generics14TypeParamBoundNtNtB7_5token4PlusENtNtNtNtCs85QQFkKrybG_4core4iter6traits8iterator8Iterator9size_hintCs3tyqko2rdGU_12serde_derive, symObjAddr: 0xB49C, symBinAddr: 0x4B7F4, symSize: 0x34 }
  - { offset: 0x98719, size: 0x8, addend: 0x0, symName: __RNvYINtNtCscwCr4GBBztI_3syn10punctuated14PrivateIterMutNtNtB7_8generics14WherePredicateNtNtB7_5token5CommaENtNtNtNtCs85QQFkKrybG_4core4iter6traits8iterator8Iterator10advance_byCs3tyqko2rdGU_12serde_derive, symObjAddr: 0xB6BC, symBinAddr: 0x4BA14, symSize: 0x28 }
  - { offset: 0x9875F, size: 0x8, addend: 0x0, symName: __RNvYINtNtCscwCr4GBBztI_3syn10punctuated14PrivateIterMutNtNtB7_8generics14WherePredicateNtNtB7_5token5CommaENtNtNtNtCs85QQFkKrybG_4core4iter6traits8iterator8Iterator3nthCs3tyqko2rdGU_12serde_derive, symObjAddr: 0xB6E4, symBinAddr: 0x4BA3C, symSize: 0x7C }
  - { offset: 0x9882F, size: 0x8, addend: 0x0, symName: __RNvYINtNtCscwCr4GBBztI_3syn10punctuated14PrivateIterMutNtNtB7_8generics14WherePredicateNtNtB7_5token5CommaENtNtNtNtCs85QQFkKrybG_4core4iter6traits8iterator8Iterator9size_hintCs3tyqko2rdGU_12serde_derive, symObjAddr: 0xB760, symBinAddr: 0x4BAB8, symSize: 0x34 }
  - { offset: 0x98864, size: 0x8, addend: 0x0, symName: __RNvYINtNtCscwCr4GBBztI_3syn10punctuated4IterNtNtB7_4data5FieldENtNtNtNtCs85QQFkKrybG_4core4iter6traits8iterator8Iterator9enumerateCs3tyqko2rdGU_12serde_derive, symObjAddr: 0xB794, symBinAddr: 0x4BAEC, symSize: 0x28 }
  - { offset: 0x988B0, size: 0x8, addend: 0x0, symName: __RNvYINtNtCscwCr4GBBztI_3syn10punctuated9IntoPairsNtNtB7_4path11PathSegmentNtNtB7_5token7PathSepENtNtNtNtCs85QQFkKrybG_4core4iter6traits8iterator8Iterator10advance_byCs3tyqko2rdGU_12serde_derive, symObjAddr: 0xB7BC, symBinAddr: 0x4BB14, symSize: 0x28 }
  - { offset: 0x988F6, size: 0x8, addend: 0x0, symName: __RNvYINtNtCscwCr4GBBztI_3syn10punctuated9IntoPairsNtNtB7_4path11PathSegmentNtNtB7_5token7PathSepENtNtNtNtCs85QQFkKrybG_4core4iter6traits8iterator8Iterator3nthCs3tyqko2rdGU_12serde_derive, symObjAddr: 0xB7E4, symBinAddr: 0x4BB3C, symSize: 0x84 }
  - { offset: 0x989C6, size: 0x8, addend: 0x0, symName: __RNvYINtNtCscwCr4GBBztI_3syn10punctuated9IntoPairsNtNtB7_4path11PathSegmentNtNtB7_5token7PathSepENtNtNtNtCs85QQFkKrybG_4core4iter6traits8iterator8Iterator4skipCs3tyqko2rdGU_12serde_derive, symObjAddr: 0xB868, symBinAddr: 0x4BBC0, symSize: 0x50 }
  - { offset: 0x98A2E, size: 0x8, addend: 0x0, symName: __RNvXNtNtNtCs85QQFkKrybG_4core4iter6traits7collectINtNtNtB6_8adapters6cloned6ClonedINtNtB8_6option4IterNtNtCscwCr4GBBztI_3syn8lifetime8LifetimeEENtB2_12IntoIterator9into_iterCs3tyqko2rdGU_12serde_derive, symObjAddr: 0x6630, symBinAddr: 0x46988, symSize: 0x14 }
  - { offset: 0x98A65, size: 0x8, addend: 0x0, symName: __RNvXNtNtNtCs85QQFkKrybG_4core4iter6traits7collectINtNtNtB6_8adapters6cloned6ClonedINtNtNtB8_5slice4iter4IterNtNtCscwCr4GBBztI_3syn8generics14WherePredicateEENtB2_12IntoIterator9into_iterCs3tyqko2rdGU_12serde_derive, symObjAddr: 0x6644, symBinAddr: 0x4699C, symSize: 0x1C }
  - { offset: 0x98A9C, size: 0x8, addend: 0x0, symName: __RNvXNtNtNtCs85QQFkKrybG_4core4iter6traits7collectINtNtNtB6_8adapters6cloned6ClonedINtNtNtCsdFlNUEO95cG_5alloc3vec9into_iter8IntoIterRNtNtCscwCr4GBBztI_3syn2ty8TypePathEENtB2_12IntoIterator9into_iterCs3tyqko2rdGU_12serde_derive, symObjAddr: 0x6660, symBinAddr: 0x469B8, symSize: 0x14 }
  - { offset: 0x98AD3, size: 0x8, addend: 0x0, symName: __RNvXNtNtNtCs85QQFkKrybG_4core4iter6traits7collectINtNtNtB6_8adapters6cloned6ClonedINtNtNtNtCsdFlNUEO95cG_5alloc11collections5btree3set4IterNtNtCscwCr4GBBztI_3syn8lifetime8LifetimeEENtB2_12IntoIterator9into_iterCs3tyqko2rdGU_12serde_derive, symObjAddr: 0x6674, symBinAddr: 0x469CC, symSize: 0x30 }
  - { offset: 0x98B17, size: 0x8, addend: 0x0, symName: __RNvYINtNtCscwCr4GBBztI_3syn10punctuated11PrivateIterNtNtB7_2ty4TypeNtNtB7_5token5CommaENtNtNtNtCs85QQFkKrybG_4core4iter6traits10exact_size17ExactSizeIterator8is_emptyCs3tyqko2rdGU_12serde_derive, symObjAddr: 0x9928, symBinAddr: 0x49C80, symSize: 0x2C }
  - { offset: 0x98B4C, size: 0x8, addend: 0x0, symName: __RNvYINtNtCscwCr4GBBztI_3syn10punctuated11PrivateIterNtNtB7_2ty9BareFnArgNtNtB7_5token5CommaENtNtNtNtCs85QQFkKrybG_4core4iter6traits10exact_size17ExactSizeIterator8is_emptyCs3tyqko2rdGU_12serde_derive, symObjAddr: 0x9BEC, symBinAddr: 0x49F44, symSize: 0x2C }
  - { offset: 0x98B81, size: 0x8, addend: 0x0, symName: __RNvYINtNtCscwCr4GBBztI_3syn10punctuated11PrivateIterNtNtB7_4data7VariantNtNtB7_5token5CommaENtNtNtNtCs85QQFkKrybG_4core4iter6traits10exact_size17ExactSizeIterator8is_emptyCs3tyqko2rdGU_12serde_derive, symObjAddr: 0x9EB0, symBinAddr: 0x4A208, symSize: 0x2C }
  - { offset: 0x98BB6, size: 0x8, addend: 0x0, symName: __RNvYINtNtCscwCr4GBBztI_3syn10punctuated11PrivateIterNtNtB7_4path15GenericArgumentNtNtB7_5token5CommaENtNtNtNtCs85QQFkKrybG_4core4iter6traits10exact_size17ExactSizeIterator8is_emptyCs3tyqko2rdGU_12serde_derive, symObjAddr: 0xA174, symBinAddr: 0x4A4CC, symSize: 0x2C }
  - { offset: 0x98BEB, size: 0x8, addend: 0x0, symName: __RNvYINtNtCscwCr4GBBztI_3syn10punctuated14PrivateIterMutNtNtB7_2ty4TypeNtNtB7_5token5CommaENtNtNtNtCs85QQFkKrybG_4core4iter6traits10exact_size17ExactSizeIterator8is_emptyCs3tyqko2rdGU_12serde_derive, symObjAddr: 0xA438, symBinAddr: 0x4A790, symSize: 0x2C }
  - { offset: 0x98C20, size: 0x8, addend: 0x0, symName: __RNvYINtNtCscwCr4GBBztI_3syn10punctuated14PrivateIterMutNtNtB7_2ty9BareFnArgNtNtB7_5token5CommaENtNtNtNtCs85QQFkKrybG_4core4iter6traits10exact_size17ExactSizeIterator8is_emptyCs3tyqko2rdGU_12serde_derive, symObjAddr: 0xA6FC, symBinAddr: 0x4AA54, symSize: 0x2C }
  - { offset: 0x98C55, size: 0x8, addend: 0x0, symName: __RNvYINtNtCscwCr4GBBztI_3syn10punctuated14PrivateIterMutNtNtB7_4data7VariantNtNtB7_5token5CommaENtNtNtNtCs85QQFkKrybG_4core4iter6traits10exact_size17ExactSizeIterator8is_emptyCs3tyqko2rdGU_12serde_derive, symObjAddr: 0xA9C0, symBinAddr: 0x4AD18, symSize: 0x2C }
  - { offset: 0x98C8A, size: 0x8, addend: 0x0, symName: __RNvYINtNtCscwCr4GBBztI_3syn10punctuated14PrivateIterMutNtNtB7_4expr4ExprNtNtB7_5token5CommaENtNtNtNtCs85QQFkKrybG_4core4iter6traits10exact_size17ExactSizeIterator8is_emptyCs3tyqko2rdGU_12serde_derive, symObjAddr: 0xAC84, symBinAddr: 0x4AFDC, symSize: 0x2C }
  - { offset: 0x98CBF, size: 0x8, addend: 0x0, symName: __RNvYINtNtCscwCr4GBBztI_3syn10punctuated14PrivateIterMutNtNtB7_4path15GenericArgumentNtNtB7_5token5CommaENtNtNtNtCs85QQFkKrybG_4core4iter6traits10exact_size17ExactSizeIterator8is_emptyCs3tyqko2rdGU_12serde_derive, symObjAddr: 0xAF48, symBinAddr: 0x4B2A0, symSize: 0x2C }
  - { offset: 0x98CF4, size: 0x8, addend: 0x0, symName: __RNvYINtNtCscwCr4GBBztI_3syn10punctuated14PrivateIterMutNtNtB7_8generics14TypeParamBoundNtNtB7_5token4PlusENtNtNtNtCs85QQFkKrybG_4core4iter6traits10exact_size17ExactSizeIterator8is_emptyCs3tyqko2rdGU_12serde_derive, symObjAddr: 0xB20C, symBinAddr: 0x4B564, symSize: 0x2C }
  - { offset: 0x98D29, size: 0x8, addend: 0x0, symName: __RNvYINtNtCscwCr4GBBztI_3syn10punctuated14PrivateIterMutNtNtB7_8generics14WherePredicateNtNtB7_5token5CommaENtNtNtNtCs85QQFkKrybG_4core4iter6traits10exact_size17ExactSizeIterator8is_emptyCs3tyqko2rdGU_12serde_derive, symObjAddr: 0xB4D0, symBinAddr: 0x4B828, symSize: 0x2C }
  - { offset: 0x98D6A, size: 0x8, addend: 0x0, symName: __RNvYINtNtCscwCr4GBBztI_3syn10punctuated11PrivateIterNtNtB7_2ty4TypeNtNtB7_5token5CommaENtNtNtNtCs85QQFkKrybG_4core4iter6traits12double_ended19DoubleEndedIterator15advance_back_byCs3tyqko2rdGU_12serde_derive, symObjAddr: 0x9954, symBinAddr: 0x49CAC, symSize: 0x158 }
  - { offset: 0x98EE8, size: 0x8, addend: 0x0, symName: __RNvYINtNtCscwCr4GBBztI_3syn10punctuated11PrivateIterNtNtB7_2ty4TypeNtNtB7_5token5CommaENtNtNtNtCs85QQFkKrybG_4core4iter6traits12double_ended19DoubleEndedIterator8nth_backCs3tyqko2rdGU_12serde_derive, symObjAddr: 0x9AAC, symBinAddr: 0x49E04, symSize: 0x68 }
  - { offset: 0x98F66, size: 0x8, addend: 0x0, symName: __RNvYINtNtCscwCr4GBBztI_3syn10punctuated11PrivateIterNtNtB7_2ty9BareFnArgNtNtB7_5token5CommaENtNtNtNtCs85QQFkKrybG_4core4iter6traits12double_ended19DoubleEndedIterator15advance_back_byCs3tyqko2rdGU_12serde_derive, symObjAddr: 0x9C18, symBinAddr: 0x49F70, symSize: 0x158 }
  - { offset: 0x990E4, size: 0x8, addend: 0x0, symName: __RNvYINtNtCscwCr4GBBztI_3syn10punctuated11PrivateIterNtNtB7_2ty9BareFnArgNtNtB7_5token5CommaENtNtNtNtCs85QQFkKrybG_4core4iter6traits12double_ended19DoubleEndedIterator8nth_backCs3tyqko2rdGU_12serde_derive, symObjAddr: 0x9D70, symBinAddr: 0x4A0C8, symSize: 0x68 }
  - { offset: 0x99162, size: 0x8, addend: 0x0, symName: __RNvYINtNtCscwCr4GBBztI_3syn10punctuated11PrivateIterNtNtB7_4data7VariantNtNtB7_5token5CommaENtNtNtNtCs85QQFkKrybG_4core4iter6traits12double_ended19DoubleEndedIterator15advance_back_byCs3tyqko2rdGU_12serde_derive, symObjAddr: 0x9EDC, symBinAddr: 0x4A234, symSize: 0x158 }
  - { offset: 0x992E0, size: 0x8, addend: 0x0, symName: __RNvYINtNtCscwCr4GBBztI_3syn10punctuated11PrivateIterNtNtB7_4data7VariantNtNtB7_5token5CommaENtNtNtNtCs85QQFkKrybG_4core4iter6traits12double_ended19DoubleEndedIterator8nth_backCs3tyqko2rdGU_12serde_derive, symObjAddr: 0xA034, symBinAddr: 0x4A38C, symSize: 0x68 }
  - { offset: 0x9935E, size: 0x8, addend: 0x0, symName: __RNvYINtNtCscwCr4GBBztI_3syn10punctuated11PrivateIterNtNtB7_4path15GenericArgumentNtNtB7_5token5CommaENtNtNtNtCs85QQFkKrybG_4core4iter6traits12double_ended19DoubleEndedIterator15advance_back_byCs3tyqko2rdGU_12serde_derive, symObjAddr: 0xA1A0, symBinAddr: 0x4A4F8, symSize: 0x158 }
  - { offset: 0x994DC, size: 0x8, addend: 0x0, symName: __RNvYINtNtCscwCr4GBBztI_3syn10punctuated11PrivateIterNtNtB7_4path15GenericArgumentNtNtB7_5token5CommaENtNtNtNtCs85QQFkKrybG_4core4iter6traits12double_ended19DoubleEndedIterator8nth_backCs3tyqko2rdGU_12serde_derive, symObjAddr: 0xA2F8, symBinAddr: 0x4A650, symSize: 0x68 }
  - { offset: 0x9955A, size: 0x8, addend: 0x0, symName: __RNvYINtNtCscwCr4GBBztI_3syn10punctuated14PrivateIterMutNtNtB7_2ty4TypeNtNtB7_5token5CommaENtNtNtNtCs85QQFkKrybG_4core4iter6traits12double_ended19DoubleEndedIterator15advance_back_byCs3tyqko2rdGU_12serde_derive, symObjAddr: 0xA464, symBinAddr: 0x4A7BC, symSize: 0x158 }
  - { offset: 0x996D8, size: 0x8, addend: 0x0, symName: __RNvYINtNtCscwCr4GBBztI_3syn10punctuated14PrivateIterMutNtNtB7_2ty4TypeNtNtB7_5token5CommaENtNtNtNtCs85QQFkKrybG_4core4iter6traits12double_ended19DoubleEndedIterator8nth_backCs3tyqko2rdGU_12serde_derive, symObjAddr: 0xA5BC, symBinAddr: 0x4A914, symSize: 0x68 }
  - { offset: 0x99756, size: 0x8, addend: 0x0, symName: __RNvYINtNtCscwCr4GBBztI_3syn10punctuated14PrivateIterMutNtNtB7_2ty9BareFnArgNtNtB7_5token5CommaENtNtNtNtCs85QQFkKrybG_4core4iter6traits12double_ended19DoubleEndedIterator15advance_back_byCs3tyqko2rdGU_12serde_derive, symObjAddr: 0xA728, symBinAddr: 0x4AA80, symSize: 0x158 }
  - { offset: 0x998D4, size: 0x8, addend: 0x0, symName: __RNvYINtNtCscwCr4GBBztI_3syn10punctuated14PrivateIterMutNtNtB7_2ty9BareFnArgNtNtB7_5token5CommaENtNtNtNtCs85QQFkKrybG_4core4iter6traits12double_ended19DoubleEndedIterator8nth_backCs3tyqko2rdGU_12serde_derive, symObjAddr: 0xA880, symBinAddr: 0x4ABD8, symSize: 0x68 }
  - { offset: 0x99952, size: 0x8, addend: 0x0, symName: __RNvYINtNtCscwCr4GBBztI_3syn10punctuated14PrivateIterMutNtNtB7_4data7VariantNtNtB7_5token5CommaENtNtNtNtCs85QQFkKrybG_4core4iter6traits12double_ended19DoubleEndedIterator15advance_back_byCs3tyqko2rdGU_12serde_derive, symObjAddr: 0xA9EC, symBinAddr: 0x4AD44, symSize: 0x158 }
  - { offset: 0x99AD0, size: 0x8, addend: 0x0, symName: __RNvYINtNtCscwCr4GBBztI_3syn10punctuated14PrivateIterMutNtNtB7_4data7VariantNtNtB7_5token5CommaENtNtNtNtCs85QQFkKrybG_4core4iter6traits12double_ended19DoubleEndedIterator8nth_backCs3tyqko2rdGU_12serde_derive, symObjAddr: 0xAB44, symBinAddr: 0x4AE9C, symSize: 0x68 }
  - { offset: 0x99B4E, size: 0x8, addend: 0x0, symName: __RNvYINtNtCscwCr4GBBztI_3syn10punctuated14PrivateIterMutNtNtB7_4expr4ExprNtNtB7_5token5CommaENtNtNtNtCs85QQFkKrybG_4core4iter6traits12double_ended19DoubleEndedIterator15advance_back_byCs3tyqko2rdGU_12serde_derive, symObjAddr: 0xACB0, symBinAddr: 0x4B008, symSize: 0x158 }
  - { offset: 0x99CCC, size: 0x8, addend: 0x0, symName: __RNvYINtNtCscwCr4GBBztI_3syn10punctuated14PrivateIterMutNtNtB7_4expr4ExprNtNtB7_5token5CommaENtNtNtNtCs85QQFkKrybG_4core4iter6traits12double_ended19DoubleEndedIterator8nth_backCs3tyqko2rdGU_12serde_derive, symObjAddr: 0xAE08, symBinAddr: 0x4B160, symSize: 0x68 }
  - { offset: 0x99D4A, size: 0x8, addend: 0x0, symName: __RNvYINtNtCscwCr4GBBztI_3syn10punctuated14PrivateIterMutNtNtB7_4path15GenericArgumentNtNtB7_5token5CommaENtNtNtNtCs85QQFkKrybG_4core4iter6traits12double_ended19DoubleEndedIterator15advance_back_byCs3tyqko2rdGU_12serde_derive, symObjAddr: 0xAF74, symBinAddr: 0x4B2CC, symSize: 0x158 }
  - { offset: 0x99EC8, size: 0x8, addend: 0x0, symName: __RNvYINtNtCscwCr4GBBztI_3syn10punctuated14PrivateIterMutNtNtB7_4path15GenericArgumentNtNtB7_5token5CommaENtNtNtNtCs85QQFkKrybG_4core4iter6traits12double_ended19DoubleEndedIterator8nth_backCs3tyqko2rdGU_12serde_derive, symObjAddr: 0xB0CC, symBinAddr: 0x4B424, symSize: 0x68 }
  - { offset: 0x99F46, size: 0x8, addend: 0x0, symName: __RNvYINtNtCscwCr4GBBztI_3syn10punctuated14PrivateIterMutNtNtB7_8generics14TypeParamBoundNtNtB7_5token4PlusENtNtNtNtCs85QQFkKrybG_4core4iter6traits12double_ended19DoubleEndedIterator15advance_back_byCs3tyqko2rdGU_12serde_derive, symObjAddr: 0xB238, symBinAddr: 0x4B590, symSize: 0x158 }
  - { offset: 0x9A0C4, size: 0x8, addend: 0x0, symName: __RNvYINtNtCscwCr4GBBztI_3syn10punctuated14PrivateIterMutNtNtB7_8generics14TypeParamBoundNtNtB7_5token4PlusENtNtNtNtCs85QQFkKrybG_4core4iter6traits12double_ended19DoubleEndedIterator8nth_backCs3tyqko2rdGU_12serde_derive, symObjAddr: 0xB390, symBinAddr: 0x4B6E8, symSize: 0x68 }
  - { offset: 0x9A142, size: 0x8, addend: 0x0, symName: __RNvYINtNtCscwCr4GBBztI_3syn10punctuated14PrivateIterMutNtNtB7_8generics14WherePredicateNtNtB7_5token5CommaENtNtNtNtCs85QQFkKrybG_4core4iter6traits12double_ended19DoubleEndedIterator15advance_back_byCs3tyqko2rdGU_12serde_derive, symObjAddr: 0xB4FC, symBinAddr: 0x4B854, symSize: 0x158 }
  - { offset: 0x9A2C0, size: 0x8, addend: 0x0, symName: __RNvYINtNtCscwCr4GBBztI_3syn10punctuated14PrivateIterMutNtNtB7_8generics14WherePredicateNtNtB7_5token5CommaENtNtNtNtCs85QQFkKrybG_4core4iter6traits12double_ended19DoubleEndedIterator8nth_backCs3tyqko2rdGU_12serde_derive, symObjAddr: 0xB654, symBinAddr: 0x4B9AC, symSize: 0x68 }
  - { offset: 0x9C2A0, size: 0x8, addend: 0x0, symName: __RNvXsw_NtCsdFlNUEO95cG_5alloc6stringNtNtNtCs3tyqko2rdGU_12serde_derive9internals4case10ParseErrorNtB5_8ToString9to_stringBE_, symObjAddr: 0x9588, symBinAddr: 0x498E0, symSize: 0x24 }
  - { offset: 0x9C2DD, size: 0x8, addend: 0x0, symName: __RNvXsx_NtCsdFlNUEO95cG_5alloc6stringNtNtNtCs3tyqko2rdGU_12serde_derive9internals4case10ParseErrorNtB5_12SpecToString14spec_to_stringBE_, symObjAddr: 0x95AC, symBinAddr: 0x49904, symSize: 0xF4 }
  - { offset: 0x9D22D, size: 0x8, addend: 0x0, symName: __RNvNtNtCs3tyqko2rdGU_12serde_derive9internals4case12RENAME_RULES, symObjAddr: 0xD348, symBinAddr: 0x2EDF70, symSize: 0x0 }
  - { offset: 0x9D2F9, size: 0x8, addend: 0x0, symName: __RNvXs_NtNtCs3tyqko2rdGU_12serde_derive9internals4caseNtB4_10ParseErrorNtNtCs85QQFkKrybG_4core3fmt7Display3fmt, symObjAddr: 0x797C, symBinAddr: 0x47CD4, symSize: 0x294 }
  - { offset: 0x9D725, size: 0x8, addend: 0x0, symName: __RNCNvNtNtCs3tyqko2rdGU_12serde_derive9internals6respan6respan0B7_, symObjAddr: 0x38E0, symBinAddr: 0x43C38, symSize: 0x44 }
  - { offset: 0x9D764, size: 0x8, addend: 0x0, symName: __RNvNtNtCs3tyqko2rdGU_12serde_derive9internals6respan12respan_token, symObjAddr: 0x5F64, symBinAddr: 0x462BC, symSize: 0x150 }
  - { offset: 0x9D7B4, size: 0x8, addend: 0x0, symName: __RNvNtNtCs3tyqko2rdGU_12serde_derive9internals6respan6respan, symObjAddr: 0x60B4, symBinAddr: 0x4640C, symSize: 0x64 }
  - { offset: 0x9E398, size: 0x8, addend: 0x0, symName: __RNvMNtCscwCr4GBBztI_3syn10punctuatedINtB2_10PunctuatedNtNtB4_2ty4TypeNtNtB4_5token5CommaE4iterCs3tyqko2rdGU_12serde_derive, symObjAddr: 0x3ECC, symBinAddr: 0x44224, symSize: 0xC8 }
  - { offset: 0x9E44B, size: 0x8, addend: 0x0, symName: __RNvMNtCscwCr4GBBztI_3syn10punctuatedINtB2_10PunctuatedNtNtB4_2ty4TypeNtNtB4_5token5CommaE8iter_mutCs3tyqko2rdGU_12serde_derive, symObjAddr: 0x3F94, symBinAddr: 0x442EC, symSize: 0xC8 }
  - { offset: 0x9E4E4, size: 0x8, addend: 0x0, symName: __RNvMNtCscwCr4GBBztI_3syn10punctuatedINtB2_10PunctuatedNtNtB4_2ty9BareFnArgNtNtB4_5token5CommaE4iterCs3tyqko2rdGU_12serde_derive, symObjAddr: 0x405C, symBinAddr: 0x443B4, symSize: 0xC8 }
  - { offset: 0x9E57D, size: 0x8, addend: 0x0, symName: __RNvMNtCscwCr4GBBztI_3syn10punctuatedINtB2_10PunctuatedNtNtB4_2ty9BareFnArgNtNtB4_5token5CommaE8iter_mutCs3tyqko2rdGU_12serde_derive, symObjAddr: 0x4124, symBinAddr: 0x4447C, symSize: 0xC8 }
  - { offset: 0x9E5E8, size: 0x8, addend: 0x0, symName: __RNvMNtCscwCr4GBBztI_3syn10punctuatedINtB2_10PunctuatedNtNtB4_4data7VariantNtNtB4_5token5CommaE4iterCs3tyqko2rdGU_12serde_derive, symObjAddr: 0x41EC, symBinAddr: 0x44544, symSize: 0xC8 }
  - { offset: 0x9E681, size: 0x8, addend: 0x0, symName: __RNvMNtCscwCr4GBBztI_3syn10punctuatedINtB2_10PunctuatedNtNtB4_4data7VariantNtNtB4_5token5CommaE8iter_mutCs3tyqko2rdGU_12serde_derive, symObjAddr: 0x42B4, symBinAddr: 0x4460C, symSize: 0xC8 }
  - { offset: 0x9E71A, size: 0x8, addend: 0x0, symName: __RNvMNtCscwCr4GBBztI_3syn10punctuatedINtB2_10PunctuatedNtNtB4_4expr4ExprNtNtB4_5token5CommaE8iter_mutCs3tyqko2rdGU_12serde_derive, symObjAddr: 0x437C, symBinAddr: 0x446D4, symSize: 0xC8 }
  - { offset: 0x9E76B, size: 0x8, addend: 0x0, symName: __RNvMNtCscwCr4GBBztI_3syn10punctuatedINtB2_10PunctuatedNtNtB4_4path11PathSegmentNtNtB4_5token7PathSepE4pushCs3tyqko2rdGU_12serde_derive, symObjAddr: 0x4444, symBinAddr: 0x4479C, symSize: 0x10C }
  - { offset: 0x9E7BB, size: 0x8, addend: 0x0, symName: __RNvMNtCscwCr4GBBztI_3syn10punctuatedINtB2_10PunctuatedNtNtB4_4path15GenericArgumentNtNtB4_5token5CommaE3lenCs3tyqko2rdGU_12serde_derive, symObjAddr: 0x4550, symBinAddr: 0x448A8, symSize: 0xA0 }
  - { offset: 0x9E82A, size: 0x8, addend: 0x0, symName: __RNvMNtCscwCr4GBBztI_3syn10punctuatedINtB2_10PunctuatedNtNtB4_4path15GenericArgumentNtNtB4_5token5CommaE4iterCs3tyqko2rdGU_12serde_derive, symObjAddr: 0x45F0, symBinAddr: 0x44948, symSize: 0xC8 }
  - { offset: 0x9E888, size: 0x8, addend: 0x0, symName: __RNvMNtCscwCr4GBBztI_3syn10punctuatedINtB2_10PunctuatedNtNtB4_4path15GenericArgumentNtNtB4_5token5CommaE4pushCs3tyqko2rdGU_12serde_derive, symObjAddr: 0x46B8, symBinAddr: 0x44A10, symSize: 0x124 }
  - { offset: 0x9E906, size: 0x8, addend: 0x0, symName: __RNvMNtCscwCr4GBBztI_3syn10punctuatedINtB2_10PunctuatedNtNtB4_4path15GenericArgumentNtNtB4_5token5CommaE8iter_mutCs3tyqko2rdGU_12serde_derive, symObjAddr: 0x47DC, symBinAddr: 0x44B34, symSize: 0xC8 }
  - { offset: 0x9E964, size: 0x8, addend: 0x0, symName: __RNvMNtCscwCr4GBBztI_3syn10punctuatedINtB2_10PunctuatedNtNtB4_8generics12GenericParamNtNtB4_5token5CommaE3lenCs3tyqko2rdGU_12serde_derive, symObjAddr: 0x48A4, symBinAddr: 0x44BFC, symSize: 0xA0 }
  - { offset: 0x9E9A5, size: 0x8, addend: 0x0, symName: __RNvMNtCscwCr4GBBztI_3syn10punctuatedINtB2_10PunctuatedNtNtB4_8generics12GenericParamNtNtB4_5token5CommaE4pushCs3tyqko2rdGU_12serde_derive, symObjAddr: 0x4944, symBinAddr: 0x44C9C, symSize: 0x124 }
  - { offset: 0x9E9F5, size: 0x8, addend: 0x0, symName: __RNvMNtCscwCr4GBBztI_3syn10punctuatedINtB2_10PunctuatedNtNtB4_8generics14TypeParamBoundNtNtB4_5token4PlusE4pushCs3tyqko2rdGU_12serde_derive, symObjAddr: 0x4A68, symBinAddr: 0x44DC0, symSize: 0x11C }
  - { offset: 0x9EA73, size: 0x8, addend: 0x0, symName: __RNvMNtCscwCr4GBBztI_3syn10punctuatedINtB2_10PunctuatedNtNtB4_8generics14TypeParamBoundNtNtB4_5token4PlusE8iter_mutCs3tyqko2rdGU_12serde_derive, symObjAddr: 0x4B84, symBinAddr: 0x44EDC, symSize: 0xC8 }
  - { offset: 0x9EAF8, size: 0x8, addend: 0x0, symName: __RNvMNtCscwCr4GBBztI_3syn10punctuatedINtB2_10PunctuatedNtNtB4_8generics14WherePredicateNtNtB4_5token5CommaE16parse_terminatedCs3tyqko2rdGU_12serde_derive, symObjAddr: 0x4C4C, symBinAddr: 0x44FA4, symSize: 0x3C }
  - { offset: 0x9EB45, size: 0x8, addend: 0x0, symName: __RNvMNtCscwCr4GBBztI_3syn10punctuatedINtB2_10PunctuatedNtNtB4_8generics14WherePredicateNtNtB4_5token5CommaE21parse_terminated_withCs3tyqko2rdGU_12serde_derive, symObjAddr: 0x4C88, symBinAddr: 0x44FE0, symSize: 0x370 }
  - { offset: 0x9EC57, size: 0x8, addend: 0x0, symName: __RNvMNtCscwCr4GBBztI_3syn10punctuatedINtB2_10PunctuatedNtNtB4_8generics14WherePredicateNtNtB4_5token5CommaE3lenCs3tyqko2rdGU_12serde_derive, symObjAddr: 0x4FF8, symBinAddr: 0x45350, symSize: 0xA0 }
  - { offset: 0x9EC98, size: 0x8, addend: 0x0, symName: __RNvMNtCscwCr4GBBztI_3syn10punctuatedINtB2_10PunctuatedNtNtB4_8generics14WherePredicateNtNtB4_5token5CommaE4pushCs3tyqko2rdGU_12serde_derive, symObjAddr: 0x5098, symBinAddr: 0x453F0, symSize: 0x124 }
  - { offset: 0x9ED16, size: 0x8, addend: 0x0, symName: __RNvMNtCscwCr4GBBztI_3syn10punctuatedINtB2_10PunctuatedNtNtB4_8generics14WherePredicateNtNtB4_5token5CommaE8iter_mutCs3tyqko2rdGU_12serde_derive, symObjAddr: 0x51BC, symBinAddr: 0x45514, symSize: 0xC8 }
  - { offset: 0x9ED74, size: 0x8, addend: 0x0, symName: __RNvMNtCscwCr4GBBztI_3syn10punctuatedINtB2_10PunctuatedNtNtB4_8lifetime8LifetimeNtNtB4_5token4PlusE4pushCs3tyqko2rdGU_12serde_derive, symObjAddr: 0x5284, symBinAddr: 0x455DC, symSize: 0x108 }
  - { offset: 0x9EDB7, size: 0x8, addend: 0x0, symName: __RNvMNtNtCs3tyqko2rdGU_12serde_derive9internals4caseNtB2_10RenameRule14apply_to_field, symObjAddr: 0x538C, symBinAddr: 0x456E4, symSize: 0x4B0 }
  - { offset: 0x9EE55, size: 0x8, addend: 0x0, symName: __RNvMNtNtCs3tyqko2rdGU_12serde_derive9internals4caseNtB2_10RenameRule16apply_to_variant, symObjAddr: 0x583C, symBinAddr: 0x45B94, symSize: 0x53C }
  - { offset: 0x9EED6, size: 0x8, addend: 0x0, symName: __RNvMNtNtCs3tyqko2rdGU_12serde_derive9internals4caseNtB2_10RenameRule2or, symObjAddr: 0x5D78, symBinAddr: 0x460D0, symSize: 0x6C }
  - { offset: 0x9EF06, size: 0x8, addend: 0x0, symName: __RNvMNtNtCs3tyqko2rdGU_12serde_derive9internals4caseNtB2_10RenameRule8from_str, symObjAddr: 0x5DE4, symBinAddr: 0x4613C, symSize: 0x104 }
  - { offset: 0xA0780, size: 0x8, addend: 0x0, symName: __RINvMs0_NtNtNtCswz7ZwgBZOU_3std11collections4hash3setINtB6_7HashSetNtCsfwj6t2KTYdc_11proc_macro25IdentE8containsB13_ECs3tyqko2rdGU_12serde_derive, symObjAddr: 0x0, symBinAddr: 0x4BC64, symSize: 0x5C }
  - { offset: 0xA07DC, size: 0x8, addend: 0x0, symName: __RNvXsw_NtCsdFlNUEO95cG_5alloc6stringNtCsfwj6t2KTYdc_11proc_macro211TokenStreamNtB5_8ToString9to_stringCs3tyqko2rdGU_12serde_derive, symObjAddr: 0xE31C, symBinAddr: 0x59F80, symSize: 0x24 }
  - { offset: 0xA0813, size: 0x8, addend: 0x0, symName: __RNvXsw_NtCsdFlNUEO95cG_5alloc6stringNtNtCscwCr4GBBztI_3syn8lifetime8LifetimeNtB5_8ToString9to_stringCs3tyqko2rdGU_12serde_derive, symObjAddr: 0xE340, symBinAddr: 0x59FA4, symSize: 0x24 }
  - { offset: 0xA0850, size: 0x8, addend: 0x0, symName: __RNvXsx_NtCsdFlNUEO95cG_5alloc6stringNtCsfwj6t2KTYdc_11proc_macro211TokenStreamNtB5_12SpecToString14spec_to_stringCs3tyqko2rdGU_12serde_derive, symObjAddr: 0xE364, symBinAddr: 0x59FC8, symSize: 0xF4 }
  - { offset: 0xA091A, size: 0x8, addend: 0x0, symName: __RNvXsx_NtCsdFlNUEO95cG_5alloc6stringNtNtCscwCr4GBBztI_3syn8lifetime8LifetimeNtB5_12SpecToString14spec_to_stringCs3tyqko2rdGU_12serde_derive, symObjAddr: 0xE458, symBinAddr: 0x5A0BC, symSize: 0xF4 }
  - { offset: 0xA4D79, size: 0x8, addend: 0x0, symName: __RINvXs3_NtNtCs85QQFkKrybG_4core4hash5implsRNtCsfwj6t2KTYdc_11proc_macro25IdentNtB8_4Hash4hashNtNtNtCswz7ZwgBZOU_3std4hash6random13DefaultHasherECs3tyqko2rdGU_12serde_derive, symObjAddr: 0x5C, symBinAddr: 0x4BCC0, symSize: 0x30 }
  - { offset: 0xA52FA, size: 0x8, addend: 0x0, symName: __RINvXs_NtNtNtCs85QQFkKrybG_4core4iter8adapters8peekableINtB5_8PeekableINtNtB7_6filter6FilterINtNtB7_9enumerate9EnumerateINtNtNtBb_5slice4iter4IterNtNtNtCs3tyqko2rdGU_12serde_derive9internals3ast5FieldEENCNvNtB2q_3ser22serialize_tuple_struct0EENtNtNtB9_6traits8iterator8Iterator4foldNtCsfwj6t2KTYdc_11proc_macro211TokenStreamNCINvNtB7_3map8map_foldTjRB2k_EB4w_B4w_NCB3g_s_0NCB3g_s0_0E0EB2q_, symObjAddr: 0x22C, symBinAddr: 0x4BE90, symSize: 0x16C }
  - { offset: 0xA5399, size: 0x8, addend: 0x0, symName: __RINvXs_NtNtNtCs85QQFkKrybG_4core4iter8adapters8peekableINtB5_8PeekableINtNtB7_6filter6FilterINtNtB7_9enumerate9EnumerateINtNtNtBb_5slice4iter4IterNtNtNtCs3tyqko2rdGU_12serde_derive9internals3ast5FieldEENCNvNtB2q_3ser23serialize_tuple_variant0EENtNtNtB9_6traits8iterator8Iterator4foldNtCsfwj6t2KTYdc_11proc_macro211TokenStreamNCINvNtB7_3map8map_foldTjRB2k_EB4x_B4x_NCB3g_s_0NCB3g_s0_0E0EB2q_, symObjAddr: 0x398, symBinAddr: 0x4BFFC, symSize: 0x184 }
  - { offset: 0xA5438, size: 0x8, addend: 0x0, symName: __RINvXs_NtNtNtCs85QQFkKrybG_4core4iter8adapters8peekableINtB5_8PeekableINtNtB7_6filter6FilterINtNtNtBb_5slice4iter4IterNtNtNtCs3tyqko2rdGU_12serde_derive9internals3ast5FieldENCNvNtB1Y_3ser24serialize_struct_variants_0EENtNtNtB9_6traits8iterator8Iterator4foldNtCsfwj6t2KTYdc_11proc_macro211TokenStreamNCINvNtB7_3map8map_foldRB1S_B47_B47_NCB2N_s0_0NCB2N_s1_0E0EB1Y_, symObjAddr: 0x51C, symBinAddr: 0x4C180, symSize: 0x158 }
  - { offset: 0xA54D7, size: 0x8, addend: 0x0, symName: __RINvXs_NtNtNtCs85QQFkKrybG_4core4iter8adapters8peekableINtB5_8PeekableINtNtB7_6filter6FilterINtNtNtBb_5slice4iter4IterNtNtNtCs3tyqko2rdGU_12serde_derive9internals3ast5FieldENCNvNtB1Y_3ser26serialize_struct_as_struct0EENtNtNtB9_6traits8iterator8Iterator4foldNtCsfwj6t2KTYdc_11proc_macro211TokenStreamNCINvNtB7_3map8map_foldRB1S_B47_B47_NCB2N_s_0NCB2N_s0_0E0EB1Y_, symObjAddr: 0x674, symBinAddr: 0x4C2D8, symSize: 0x150 }
  - { offset: 0xA56A1, size: 0x8, addend: 0x0, symName: __RNCNvMs3_NtNtNtCs85QQFkKrybG_4core4iter8adapters8peekableINtB7_8PeekableINtNtB9_6filter6FilterINtNtB9_9enumerate9EnumerateINtNtNtBd_5slice4iter4IterNtNtNtCs3tyqko2rdGU_12serde_derive9internals3ast5FieldEENCNvNtB2s_3ser22serialize_tuple_struct0EE4peek0B2s_, symObjAddr: 0xAAC, symBinAddr: 0x4C710, symSize: 0x24 }
  - { offset: 0xA56D8, size: 0x8, addend: 0x0, symName: __RNCNvMs3_NtNtNtCs85QQFkKrybG_4core4iter8adapters8peekableINtB7_8PeekableINtNtB9_6filter6FilterINtNtB9_9enumerate9EnumerateINtNtNtBd_5slice4iter4IterNtNtNtCs3tyqko2rdGU_12serde_derive9internals3ast5FieldEENCNvNtB2s_3ser23serialize_tuple_variant0EE4peek0B2s_, symObjAddr: 0xAD0, symBinAddr: 0x4C734, symSize: 0x24 }
  - { offset: 0xA570F, size: 0x8, addend: 0x0, symName: __RNCNvMs3_NtNtNtCs85QQFkKrybG_4core4iter8adapters8peekableINtB7_8PeekableINtNtB9_6filter6FilterINtNtNtBd_5slice4iter4IterNtNtNtCs3tyqko2rdGU_12serde_derive9internals3ast5FieldENCNvNtB20_3ser23serialize_struct_as_map0EE4peek0B20_, symObjAddr: 0xAF4, symBinAddr: 0x4C758, symSize: 0x24 }
  - { offset: 0xA5746, size: 0x8, addend: 0x0, symName: __RNCNvMs3_NtNtNtCs85QQFkKrybG_4core4iter8adapters8peekableINtB7_8PeekableINtNtB9_6filter6FilterINtNtNtBd_5slice4iter4IterNtNtNtCs3tyqko2rdGU_12serde_derive9internals3ast5FieldENCNvNtB20_3ser24serialize_struct_variants_0EE4peek0B20_, symObjAddr: 0xB18, symBinAddr: 0x4C77C, symSize: 0x24 }
  - { offset: 0xA577D, size: 0x8, addend: 0x0, symName: __RNCNvMs3_NtNtNtCs85QQFkKrybG_4core4iter8adapters8peekableINtB7_8PeekableINtNtB9_6filter6FilterINtNtNtBd_5slice4iter4IterNtNtNtCs3tyqko2rdGU_12serde_derive9internals3ast5FieldENCNvNtB20_3ser26serialize_struct_as_struct0EE4peek0B20_, symObjAddr: 0xB3C, symBinAddr: 0x4C7A0, symSize: 0x24 }
  - { offset: 0xA57B4, size: 0x8, addend: 0x0, symName: __RNCNvMs3_NtNtNtCs85QQFkKrybG_4core4iter8adapters8peekableINtB7_8PeekableINtNtB9_6filter6FilterINtNtNtBd_5slice4iter4IterNtNtNtCs3tyqko2rdGU_12serde_derive9internals3ast5FieldENCNvNtB20_3ser37serialize_struct_variant_with_flatten0EE4peek0B20_, symObjAddr: 0xB60, symBinAddr: 0x4C7C4, symSize: 0x24 }
  - { offset: 0xA58D3, size: 0x8, addend: 0x0, symName: __RNvXs3_NtNtNtCs85QQFkKrybG_4core4iter8adapters3zipINtB5_3ZipINtNtB7_3map3MapINtNtNtBb_3ops5range5RangejEFjENtCsfwj6t2KTYdc_11proc_macro25IdentEINtNtNtBb_5slice4iter4IterNtNtNtCs3tyqko2rdGU_12serde_derive9internals3ast5FieldEEINtB5_7ZipImplBW_B2h_E3newB2N_, symObjAddr: 0xDF98, symBinAddr: 0x59BFC, symSize: 0xC4 }
  - { offset: 0xA5967, size: 0x8, addend: 0x0, symName: __RNvXs3_NtNtNtCs85QQFkKrybG_4core4iter8adapters3zipINtB5_3ZipINtNtB7_3map3MapINtNtNtBb_3ops5range5RangejEFjENtCsfwj6t2KTYdc_11proc_macro25IdentEINtNtNtBb_5slice4iter4IterNtNtNtCs3tyqko2rdGU_12serde_derive9internals3ast5FieldEEINtB5_7ZipImplBW_B2h_E4nextB2N_, symObjAddr: 0xE05C, symBinAddr: 0x59CC0, symSize: 0xE0 }
  - { offset: 0xA59C3, size: 0x8, addend: 0x0, symName: __RNvXs_NtNtNtCs85QQFkKrybG_4core4iter8adapters3zipINtB4_3ZipINtNtB6_3map3MapINtNtNtBa_3ops5range5RangejEFjENtCsfwj6t2KTYdc_11proc_macro25IdentEINtNtNtBa_5slice4iter4IterNtNtNtCs3tyqko2rdGU_12serde_derive9internals3ast5FieldEENtNtNtB8_6traits8iterator8Iterator4nextB2M_, symObjAddr: 0xE280, symBinAddr: 0x59EE4, symSize: 0x24 }
  - { offset: 0xA5BD7, size: 0x8, addend: 0x0, symName: __RNvXs_NtNtNtCs85QQFkKrybG_4core4iter8adapters4skipINtB4_4SkipINtNtCscwCr4GBBztI_3syn10punctuated9IntoPairsNtNtB12_4path11PathSegmentNtNtB12_5token7PathSepEENtNtNtB8_6traits8iterator8Iterator4nextCs3tyqko2rdGU_12serde_derive, symObjAddr: 0xE2A4, symBinAddr: 0x59F08, symSize: 0x78 }
  - { offset: 0xA5D31, size: 0x8, addend: 0x0, symName: __RINvYINtNtNtNtCs85QQFkKrybG_4core4iter8adapters3zip3ZipINtNtB8_3map3MapINtNtNtBc_3ops5range5RangejEFjENtCsfwj6t2KTYdc_11proc_macro25IdentEINtNtNtBc_5slice4iter4IterNtNtNtCs3tyqko2rdGU_12serde_derive9internals3ast5FieldEENtNtNtBa_6traits8iterator8Iterator3mapNtB1E_11TokenStreamNCNvNtB2I_2de15deserialize_seqs_0EB2I_, symObjAddr: 0x848, symBinAddr: 0x4C4AC, symSize: 0x58 }
  - { offset: 0xA5DA0, size: 0x8, addend: 0x0, symName: __RINvYINtNtNtNtCs85QQFkKrybG_4core4iter8adapters4skip4SkipINtNtCscwCr4GBBztI_3syn10punctuated9IntoPairsNtNtBY_4path11PathSegmentNtNtBY_5token7PathSepEENtNtNtBa_6traits8iterator8Iterator7collectINtBW_10PunctuatedB1C_B21_EECs3tyqko2rdGU_12serde_derive, symObjAddr: 0x8A0, symBinAddr: 0x4C504, symSize: 0x6C }
  - { offset: 0xA5E36, size: 0x8, addend: 0x0, symName: __RINvYINtNtNtNtCs85QQFkKrybG_4core4iter8adapters8peekable8PeekableINtNtB8_6filter6FilterINtNtB8_9enumerate9EnumerateINtNtNtBc_5slice4iter4IterNtNtNtCs3tyqko2rdGU_12serde_derive9internals3ast5FieldEENCNvNtB2l_3ser22serialize_tuple_struct0EENtNtNtBa_6traits8iterator8Iterator3mapNtCsfwj6t2KTYdc_11proc_macro211TokenStreamNCB3b_s_0EB2l_, symObjAddr: 0x90C, symBinAddr: 0x4C570, symSize: 0x50 }
  - { offset: 0xA5EA4, size: 0x8, addend: 0x0, symName: __RINvYINtNtNtNtCs85QQFkKrybG_4core4iter8adapters8peekable8PeekableINtNtB8_6filter6FilterINtNtB8_9enumerate9EnumerateINtNtNtBc_5slice4iter4IterNtNtNtCs3tyqko2rdGU_12serde_derive9internals3ast5FieldEENCNvNtB2l_3ser23serialize_tuple_variant0EENtNtNtBa_6traits8iterator8Iterator3mapNtCsfwj6t2KTYdc_11proc_macro211TokenStreamNCB3b_s_0EB2l_, symObjAddr: 0x95C, symBinAddr: 0x4C5C0, symSize: 0x30 }
  - { offset: 0xA5F12, size: 0x8, addend: 0x0, symName: __RINvYINtNtNtNtCs85QQFkKrybG_4core4iter8adapters8peekable8PeekableINtNtB8_6filter6FilterINtNtNtBc_5slice4iter4IterNtNtNtCs3tyqko2rdGU_12serde_derive9internals3ast5FieldENCNvNtB1T_3ser24serialize_struct_variants_0EENtNtNtBa_6traits8iterator8Iterator3mapNtCsfwj6t2KTYdc_11proc_macro211TokenStreamNCB2I_s0_0EB1T_, symObjAddr: 0x98C, symBinAddr: 0x4C5F0, symSize: 0x1C }
  - { offset: 0xA5F7F, size: 0x8, addend: 0x0, symName: __RINvYINtNtNtNtCs85QQFkKrybG_4core4iter8adapters8peekable8PeekableINtNtB8_6filter6FilterINtNtNtBc_5slice4iter4IterNtNtNtCs3tyqko2rdGU_12serde_derive9internals3ast5FieldENCNvNtB1T_3ser26serialize_struct_as_struct0EENtNtNtBa_6traits8iterator8Iterator3mapNtCsfwj6t2KTYdc_11proc_macro211TokenStreamNCB2I_s_0EB1T_, symObjAddr: 0x9A8, symBinAddr: 0x4C60C, symSize: 0x28 }
  - { offset: 0xA5FFD, size: 0x8, addend: 0x0, symName: __RNCINvXsK_NtNtNtCs85QQFkKrybG_4core4iter6traits5accumjNtB8_3Sum3sumINtNtNtBc_8adapters3map3MapINtNtNtBe_5slice4iter4IterNtNtNtCs3tyqko2rdGU_12serde_derive9internals3ast5FieldENCINvNvXs1_NtB18_6filterINtB2Y_6FilterppENtNtBa_8iterator8Iterator5count8to_usizeRB1U_NCNvNtB20_2de15deserialize_seq0E0EE0B20_, symObjAddr: 0x9D0, symBinAddr: 0x4C634, symSize: 0x48 }
  - { offset: 0xA604A, size: 0x8, addend: 0x0, symName: __RNCINvXsK_NtNtNtCs85QQFkKrybG_4core4iter6traits5accumjNtB8_3Sum3sumINtNtNtBc_8adapters3map3MapINtNtNtBe_5slice4iter4IterNtNtNtCs3tyqko2rdGU_12serde_derive9internals3ast5FieldENCINvNvXs1_NtB18_6filterINtB2Y_6FilterppENtNtBa_8iterator8Iterator5count8to_usizeRB1U_NCNvNtNtB20_2de5tuple11deserialize0E0EE0B20_, symObjAddr: 0xA18, symBinAddr: 0x4C67C, symSize: 0x48 }
  - { offset: 0xA60B2, size: 0x8, addend: 0x0, symName: __RNvXNtNtNtCs85QQFkKrybG_4core4iter6traits7collectINtNtNtB6_8adapters4skip4SkipINtNtCscwCr4GBBztI_3syn10punctuated9IntoPairsNtNtB1j_4path11PathSegmentNtNtB1j_5token7PathSepEENtB2_12IntoIterator9into_iterCs3tyqko2rdGU_12serde_derive, symObjAddr: 0xDED8, symBinAddr: 0x59B3C, symSize: 0x30 }
  - { offset: 0xA64A7, size: 0x8, addend: 0x0, symName: __RNvMNtCs85QQFkKrybG_4core5sliceSNtCsfwj6t2KTYdc_11proc_macro211TokenStream4iterCs3tyqko2rdGU_12serde_derive, symObjAddr: 0x18F0, symBinAddr: 0x4D554, symSize: 0x28 }
  - { offset: 0xA64DE, size: 0x8, addend: 0x0, symName: __RNvMNtCs85QQFkKrybG_4core5sliceSNtCsfwj6t2KTYdc_11proc_macro211TokenStream8is_emptyCs3tyqko2rdGU_12serde_derive, symObjAddr: 0x1918, symBinAddr: 0x4D57C, symSize: 0x1C }
  - { offset: 0xA6513, size: 0x8, addend: 0x0, symName: __RNvMNtCs85QQFkKrybG_4core5sliceSNtCsfwj6t2KTYdc_11proc_macro25Ident4iterCs3tyqko2rdGU_12serde_derive, symObjAddr: 0x1934, symBinAddr: 0x4D598, symSize: 0x28 }
  - { offset: 0xA654A, size: 0x8, addend: 0x0, symName: __RNvMNtCs85QQFkKrybG_4core5sliceSRNtCsfwj6t2KTYdc_11proc_macro25Ident4iterCs3tyqko2rdGU_12serde_derive, symObjAddr: 0x195C, symBinAddr: 0x4D5C0, symSize: 0x28 }
  - { offset: 0xA6852, size: 0x8, addend: 0x0, symName: __RNvXs1b_NtCs85QQFkKrybG_4core3fmtRNtNtCscwCr4GBBztI_3syn8lifetime8LifetimeNtB6_7Display3fmtCs3tyqko2rdGU_12serde_derive, symObjAddr: 0xDF30, symBinAddr: 0x59B94, symSize: 0x30 }
  - { offset: 0xA69D2, size: 0x8, addend: 0x0, symName: __RNvYNtCsfwj6t2KTYdc_11proc_macro25IdentINtNtCs85QQFkKrybG_4core3cmp9PartialEqReE2neCs3tyqko2rdGU_12serde_derive, symObjAddr: 0xE594, symBinAddr: 0x5A1F8, symSize: 0x30 }
  - { offset: 0xA6A2D, size: 0x8, addend: 0x0, symName: __RNvXNtCs85QQFkKrybG_4core6borrowNtCsfwj6t2KTYdc_11proc_macro25IdentINtB2_6BorrowBu_E6borrowCs3tyqko2rdGU_12serde_derive, symObjAddr: 0xDD78, symBinAddr: 0x599DC, symSize: 0x14 }
  - { offset: 0xA6A62, size: 0x8, addend: 0x0, symName: __RNvXNtCs85QQFkKrybG_4core6borrowNtNtCscwCr4GBBztI_3syn8lifetime8LifetimeINtB2_6BorrowBu_E6borrowCs3tyqko2rdGU_12serde_derive, symObjAddr: 0xDD8C, symBinAddr: 0x599F0, symSize: 0x14 }
  - { offset: 0xA6AA3, size: 0x8, addend: 0x0, symName: __RNvXs1_NtCs85QQFkKrybG_4core7convertNtCsfwj6t2KTYdc_11proc_macro211TokenStreamINtB5_4IntoNtCs9bTl5rSDVcL_10proc_macro11TokenStreamE4intoCs3tyqko2rdGU_12serde_derive, symObjAddr: 0xDF08, symBinAddr: 0x59B6C, symSize: 0x14 }
  - { offset: 0xA6AE4, size: 0x8, addend: 0x0, symName: __RNvXs1_NtCs85QQFkKrybG_4core7convertNtCsfwj6t2KTYdc_11proc_macro25IdentINtB5_4IntoNtNtCscwCr4GBBztI_3syn4path4PathE4intoCs3tyqko2rdGU_12serde_derive, symObjAddr: 0xDF1C, symBinAddr: 0x59B80, symSize: 0x14 }
  - { offset: 0xA7633, size: 0x8, addend: 0x0, symName: __RINvXs6_Csfwj6t2KTYdc_11proc_macro2NtB6_11TokenStreamINtNtNtNtCs85QQFkKrybG_4core4iter6traits7collect12FromIteratorNtB6_9TokenTreeE9from_iterINtNtNtBW_8adapters3map3MapNtNtB6_12token_stream8IntoIterNCNvNtNtCs3tyqko2rdGU_12serde_derive9internals6respan6respan0EEB3i_, symObjAddr: 0x1D8, symBinAddr: 0x4BE3C, symSize: 0x54 }
  - { offset: 0xA7671, size: 0x8, addend: 0x0, symName: __RINvXsz_Csfwj6t2KTYdc_11proc_macro2NtB6_5IdentNtNtCs85QQFkKrybG_4core4hash4Hash4hashNtNtNtCswz7ZwgBZOU_3std4hash6random13DefaultHasherECs3tyqko2rdGU_12serde_derive, symObjAddr: 0x7C4, symBinAddr: 0x4C428, symSize: 0x84 }
  - { offset: 0xA76B9, size: 0x8, addend: 0x0, symName: __RNvXsG_Csfwj6t2KTYdc_11proc_macro2NtB5_11TokenStreamNtNtCs85QQFkKrybG_4core5clone5Clone5cloneCs3tyqko2rdGU_12serde_derive, symObjAddr: 0xE13C, symBinAddr: 0x59DA0, symSize: 0x78 }
  - { offset: 0xA76EB, size: 0x8, addend: 0x0, symName: __RNvXsI_Csfwj6t2KTYdc_11proc_macro2NtB5_4SpanNtNtCs85QQFkKrybG_4core5clone5Clone5cloneCs3tyqko2rdGU_12serde_derive, symObjAddr: 0xE1B4, symBinAddr: 0x59E18, symSize: 0x18 }
  - { offset: 0xA771F, size: 0x8, addend: 0x0, symName: __RNvXsX_Csfwj6t2KTYdc_11proc_macro2NtB5_7SpacingNtNtCs85QQFkKrybG_4core3cmp9PartialEq2eqCs3tyqko2rdGU_12serde_derive, symObjAddr: 0xE1CC, symBinAddr: 0x59E30, symSize: 0x3C }
  - { offset: 0xA779E, size: 0x8, addend: 0x0, symName: __RNvXsY_Csfwj6t2KTYdc_11proc_macro2NtB5_5IdentNtNtCs85QQFkKrybG_4core5clone5Clone5cloneCs3tyqko2rdGU_12serde_derive, symObjAddr: 0xE208, symBinAddr: 0x59E6C, symSize: 0x78 }
  - { offset: 0xA7E4E, size: 0x8, addend: 0x0, symName: __RNCNCNvNtNtCs3tyqko2rdGU_12serde_derive2de10identifier22deserialize_identifiers_00B9_, symObjAddr: 0xA60, symBinAddr: 0x4C6C4, symSize: 0x4C }
  - { offset: 0xA7E8C, size: 0x8, addend: 0x0, symName: __RNCNvNtNtCs3tyqko2rdGU_12serde_derive2de10identifier22deserialize_identifier0B7_, symObjAddr: 0xFE8, symBinAddr: 0x4CC4C, symSize: 0x3A4 }
  - { offset: 0xA8109, size: 0x8, addend: 0x0, symName: __RNCNvNtNtCs3tyqko2rdGU_12serde_derive2de10identifier22deserialize_identifiers0_0B7_, symObjAddr: 0x138C, symBinAddr: 0x4CFF0, symSize: 0x19C }
  - { offset: 0xA81C3, size: 0x8, addend: 0x0, symName: __RNCNvNtNtCs3tyqko2rdGU_12serde_derive2de10identifier22deserialize_identifiers_0B7_, symObjAddr: 0x1528, symBinAddr: 0x4D18C, symSize: 0x3C8 }
  - { offset: 0xA847F, size: 0x8, addend: 0x0, symName: __RNCNvNtNtCs3tyqko2rdGU_12serde_derive2de10identifier18deserialize_custom0B7_, symObjAddr: 0xB84, symBinAddr: 0x4C7E8, symSize: 0x398 }
  - { offset: 0xA8527, size: 0x8, addend: 0x0, symName: __RNCNvNtNtCs3tyqko2rdGU_12serde_derive2de10identifier18deserialize_customs0_0B7_, symObjAddr: 0xF1C, symBinAddr: 0x4CB80, symSize: 0x1C }
  - { offset: 0xA855D, size: 0x8, addend: 0x0, symName: __RNCNvNtNtCs3tyqko2rdGU_12serde_derive2de10identifier18deserialize_customs_0B7_, symObjAddr: 0xF38, symBinAddr: 0x4CB9C, symSize: 0x98 }
  - { offset: 0xA85C5, size: 0x8, addend: 0x0, symName: __RNCNvNtNtCs3tyqko2rdGU_12serde_derive2de10identifier21deserialize_generated0B7_, symObjAddr: 0xFD0, symBinAddr: 0x4CC34, symSize: 0x18 }
  - { offset: 0xA8603, size: 0x8, addend: 0x0, symName: __RNvNtNtCs3tyqko2rdGU_12serde_derive2de10identifier18deserialize_custom, symObjAddr: 0x244C, symBinAddr: 0x4E0B0, symSize: 0x1D24 }
  - { offset: 0xA8CD6, size: 0x8, addend: 0x0, symName: __RNvNtNtCs3tyqko2rdGU_12serde_derive2de10identifier21deserialize_generated, symObjAddr: 0x4170, symBinAddr: 0x4FDD4, symSize: 0x10A0 }
  - { offset: 0xA8FA2, size: 0x8, addend: 0x0, symName: __RNvNtNtCs3tyqko2rdGU_12serde_derive2de10identifier22deserialize_identifier, symObjAddr: 0x5210, symBinAddr: 0x50E74, symSize: 0x8B18 }
  - { offset: 0xAA09C, size: 0x8, addend: 0x0, symName: __RNvNtCs3tyqko2rdGU_12serde_derive5dummy13wrap_in_const, symObjAddr: 0x1CC0, symBinAddr: 0x4D924, symSize: 0x78C }
  - { offset: 0xAA4D2, size: 0x8, addend: 0x0, symName: __RNvXCsfieuf5LernF_9hashbrownNtCsfwj6t2KTYdc_11proc_macro25IdentINtB2_10EquivalentBq_E10equivalentCs3tyqko2rdGU_12serde_derive, symObjAddr: 0xDD28, symBinAddr: 0x5998C, symSize: 0x50 }
  - { offset: 0xAA701, size: 0x8, addend: 0x0, symName: __RINvXs5_NtNtNtCswz7ZwgBZOU_3std11collections4hash3setINtB6_7HashSetNtCsfwj6t2KTYdc_11proc_macro25IdentEINtNtNtNtCs85QQFkKrybG_4core4iter6traits7collect12FromIteratorB13_E9from_iterINtNtNtB1K_8adapters3map3MapNtNtCscwCr4GBBztI_3syn8generics10TypeParamsNCNvNtCs3tyqko2rdGU_12serde_derive5bound10with_bound0EEB47_, symObjAddr: 0x8C, symBinAddr: 0x4BCF0, symSize: 0x14C }
  - { offset: 0xAA92C, size: 0x8, addend: 0x0, symName: __RINvMs0_NtNtNtCswz7ZwgBZOU_3std11collections4hash3setINtB6_7HashSetNtCsfwj6t2KTYdc_11proc_macro25IdentE8containsB13_ECs3tyqko2rdGU_12serde_derive, symObjAddr: 0x0, symBinAddr: 0x4BC64, symSize: 0x5C }
  - { offset: 0xB0044, size: 0x8, addend: 0x0, symName: __RNvMNtNtNtCswz7ZwgBZOU_3std11collections4hash3setINtB2_7HashSetNtCsfwj6t2KTYdc_11proc_macro25IdentE3newCs3tyqko2rdGU_12serde_derive, symObjAddr: 0x1984, symBinAddr: 0x4D5E8, symSize: 0x54 }
  - { offset: 0xB0117, size: 0x8, addend: 0x0, symName: __RNvMs0_NtNtNtCswz7ZwgBZOU_3std11collections4hash3setINtB5_7HashSetNtCsfwj6t2KTYdc_11proc_macro25IdentE6insertCs3tyqko2rdGU_12serde_derive, symObjAddr: 0x19D8, symBinAddr: 0x4D63C, symSize: 0x48 }
  - { offset: 0xB021E, size: 0x8, addend: 0x0, symName: __RNvMs3_NtNtNtCs85QQFkKrybG_4core4iter8adapters8peekableINtB5_8PeekableINtNtB7_6filter6FilterINtNtB7_9enumerate9EnumerateINtNtNtBb_5slice4iter4IterNtNtNtCs3tyqko2rdGU_12serde_derive9internals3ast5FieldEENCNvNtB2q_3ser22serialize_tuple_struct0EE4peekB2q_, symObjAddr: 0x1A20, symBinAddr: 0x4D684, symSize: 0x70 }
  - { offset: 0xB02D5, size: 0x8, addend: 0x0, symName: __RNvMs3_NtNtNtCs85QQFkKrybG_4core4iter8adapters8peekableINtB5_8PeekableINtNtB7_6filter6FilterINtNtB7_9enumerate9EnumerateINtNtNtBb_5slice4iter4IterNtNtNtCs3tyqko2rdGU_12serde_derive9internals3ast5FieldEENCNvNtB2q_3ser23serialize_tuple_variant0EE4peekB2q_, symObjAddr: 0x1A90, symBinAddr: 0x4D6F4, symSize: 0x70 }
  - { offset: 0xB03B3, size: 0x8, addend: 0x0, symName: __RNvMs3_NtNtNtCs85QQFkKrybG_4core4iter8adapters8peekableINtB5_8PeekableINtNtB7_6filter6FilterINtNtNtBb_5slice4iter4IterNtNtNtCs3tyqko2rdGU_12serde_derive9internals3ast5FieldENCNvNtB1Y_3ser23serialize_struct_as_map0EE4peekB1Y_, symObjAddr: 0x1B00, symBinAddr: 0x4D764, symSize: 0x70 }
  - { offset: 0xB046A, size: 0x8, addend: 0x0, symName: __RNvMs3_NtNtNtCs85QQFkKrybG_4core4iter8adapters8peekableINtB5_8PeekableINtNtB7_6filter6FilterINtNtNtBb_5slice4iter4IterNtNtNtCs3tyqko2rdGU_12serde_derive9internals3ast5FieldENCNvNtB1Y_3ser24serialize_struct_variants_0EE4peekB1Y_, symObjAddr: 0x1B70, symBinAddr: 0x4D7D4, symSize: 0x70 }
  - { offset: 0xB0521, size: 0x8, addend: 0x0, symName: __RNvMs3_NtNtNtCs85QQFkKrybG_4core4iter8adapters8peekableINtB5_8PeekableINtNtB7_6filter6FilterINtNtNtBb_5slice4iter4IterNtNtNtCs3tyqko2rdGU_12serde_derive9internals3ast5FieldENCNvNtB1Y_3ser26serialize_struct_as_struct0EE4peekB1Y_, symObjAddr: 0x1BE0, symBinAddr: 0x4D844, symSize: 0x70 }
  - { offset: 0xB05D8, size: 0x8, addend: 0x0, symName: __RNvMs3_NtNtNtCs85QQFkKrybG_4core4iter8adapters8peekableINtB5_8PeekableINtNtB7_6filter6FilterINtNtNtBb_5slice4iter4IterNtNtNtCs3tyqko2rdGU_12serde_derive9internals3ast5FieldENCNvNtB1Y_3ser37serialize_struct_variant_with_flatten0EE4peekB1Y_, symObjAddr: 0x1C50, symBinAddr: 0x4D8B4, symSize: 0x70 }
  - { offset: 0xB06A7, size: 0x8, addend: 0x0, symName: __RNvXNtCshi3DZH3dfhk_5quote14ident_fragmentRjNtB2_13IdentFragment3fmtCs3tyqko2rdGU_12serde_derive, symObjAddr: 0xDDA0, symBinAddr: 0x59A04, symSize: 0x40 }
  - { offset: 0xB06EA, size: 0x8, addend: 0x0, symName: __RNvXNtCshi3DZH3dfhk_5quote14ident_fragmentRjNtB2_13IdentFragment4spanCs3tyqko2rdGU_12serde_derive, symObjAddr: 0xDDE0, symBinAddr: 0x59A44, symSize: 0x38 }
  - { offset: 0xB0725, size: 0x8, addend: 0x0, symName: __RNvYjNtNtCshi3DZH3dfhk_5quote14ident_fragment13IdentFragment4spanCs3tyqko2rdGU_12serde_derive, symObjAddr: 0xE7CC, symBinAddr: 0x5A430, symSize: 0x24 }
  - { offset: 0xB0766, size: 0x8, addend: 0x0, symName: __RNvXNtCshi3DZH3dfhk_5quote9to_tokensRNtCsfwj6t2KTYdc_11proc_macro211TokenStreamNtB2_8ToTokens9to_tokensCs3tyqko2rdGU_12serde_derive, symObjAddr: 0xDE18, symBinAddr: 0x59A7C, symSize: 0x40 }
  - { offset: 0xB07A5, size: 0x8, addend: 0x0, symName: __RNvXNtCshi3DZH3dfhk_5quote9to_tokensRNtCsfwj6t2KTYdc_11proc_macro25IdentNtB2_8ToTokens9to_tokensCs3tyqko2rdGU_12serde_derive, symObjAddr: 0xDE58, symBinAddr: 0x59ABC, symSize: 0x40 }
  - { offset: 0xB07E4, size: 0x8, addend: 0x0, symName: __RNvXNtCshi3DZH3dfhk_5quote9to_tokensRRNtCsfwj6t2KTYdc_11proc_macro25IdentNtB2_8ToTokens9to_tokensCs3tyqko2rdGU_12serde_derive, symObjAddr: 0xDE98, symBinAddr: 0x59AFC, symSize: 0x40 }
  - { offset: 0xB0829, size: 0x8, addend: 0x0, symName: __RNvYRNtCsfwj6t2KTYdc_11proc_macro25IdentNtNtCshi3DZH3dfhk_5quote9to_tokens8ToTokens15to_token_streamCs3tyqko2rdGU_12serde_derive, symObjAddr: 0xE60C, symBinAddr: 0x5A270, symSize: 0x8C }
  - { offset: 0xB0873, size: 0x8, addend: 0x0, symName: __RNvYRNtCsfwj6t2KTYdc_11proc_macro25IdentNtNtCshi3DZH3dfhk_5quote9to_tokens8ToTokens17into_token_streamCs3tyqko2rdGU_12serde_derive, symObjAddr: 0xE698, symBinAddr: 0x5A2FC, symSize: 0x54 }
  - { offset: 0xB08A8, size: 0x8, addend: 0x0, symName: __RNvYRNtNtCscwCr4GBBztI_3syn8lifetime8LifetimeNtNtCshi3DZH3dfhk_5quote9to_tokens8ToTokens15to_token_streamCs3tyqko2rdGU_12serde_derive, symObjAddr: 0xE6EC, symBinAddr: 0x5A350, symSize: 0x8C }
  - { offset: 0xB08F2, size: 0x8, addend: 0x0, symName: __RNvYRNtNtCscwCr4GBBztI_3syn8lifetime8LifetimeNtNtCshi3DZH3dfhk_5quote9to_tokens8ToTokens17into_token_streamCs3tyqko2rdGU_12serde_derive, symObjAddr: 0xE778, symBinAddr: 0x5A3DC, symSize: 0x54 }
  - { offset: 0xB0938, size: 0x8, addend: 0x0, symName: __RNvXs2_NtNtCshi3DZH3dfhk_5quote9___private3extSNtCsfwj6t2KTYdc_11proc_macro211TokenStreamNtB5_16RepAsIteratorExt15quote_into_iterCs3tyqko2rdGU_12serde_derive, symObjAddr: 0xDF60, symBinAddr: 0x59BC4, symSize: 0x38 }
  - { offset: 0xB0973, size: 0x8, addend: 0x0, symName: __RNvYNtCsfwj6t2KTYdc_11proc_macro211TokenStreamNtNtNtCshi3DZH3dfhk_5quote9___private3ext14RepToTokensExt15quote_into_iterCs3tyqko2rdGU_12serde_derive, symObjAddr: 0xE54C, symBinAddr: 0x5A1B0, symSize: 0x24 }
  - { offset: 0xB09A8, size: 0x8, addend: 0x0, symName: __RNvYNtCsfwj6t2KTYdc_11proc_macro211TokenStreamNtNtNtCshi3DZH3dfhk_5quote9___private3ext14RepToTokensExt4nextCs3tyqko2rdGU_12serde_derive, symObjAddr: 0xE570, symBinAddr: 0x5A1D4, symSize: 0x24 }
  - { offset: 0xB09DD, size: 0x8, addend: 0x0, symName: __RNvYNtCsfwj6t2KTYdc_11proc_macro25IdentNtNtNtCshi3DZH3dfhk_5quote9___private3ext14RepToTokensExt15quote_into_iterCs3tyqko2rdGU_12serde_derive, symObjAddr: 0xE5C4, symBinAddr: 0x5A228, symSize: 0x24 }
  - { offset: 0xB0A12, size: 0x8, addend: 0x0, symName: __RNvYNtCsfwj6t2KTYdc_11proc_macro25IdentNtNtNtCshi3DZH3dfhk_5quote9___private3ext14RepToTokensExt4nextCs3tyqko2rdGU_12serde_derive, symObjAddr: 0xE5E8, symBinAddr: 0x5A24C, symSize: 0x24 }
  - { offset: 0xB0FA1, size: 0x8, addend: 0x0, symName: __RINvMNtCscwCr4GBBztI_3syn4attrNtB3_9Attribute15parse_args_withNCINvNtB5_4meta6parserNCNvMs3_NtNtCs3tyqko2rdGU_12serde_derive9internals4attrNtB1s_9Container8from_ast0E0EB1w_, symObjAddr: 0x0, symBinAddr: 0x5A454, symSize: 0x3A4 }
  - { offset: 0xB129E, size: 0x8, addend: 0x0, symName: __RNvXsF_NtNtCs85QQFkKrybG_4core4iter5rangejNtB5_4Step13steps_betweenCs3tyqko2rdGU_12serde_derive, symObjAddr: 0xDDE0, symBinAddr: 0x68234, symSize: 0x8C }
  - { offset: 0xB12F9, size: 0x8, addend: 0x0, symName: __RNvXsF_NtNtCs85QQFkKrybG_4core4iter5rangejNtB5_4Step17forward_uncheckedCs3tyqko2rdGU_12serde_derive, symObjAddr: 0xDE6C, symBinAddr: 0x682C0, symSize: 0x50 }
  - { offset: 0xB1391, size: 0x8, addend: 0x0, symName: __RNvXsF_NtNtCs85QQFkKrybG_4core4iter5rangejNtB5_4Step7forwardCs3tyqko2rdGU_12serde_derive, symObjAddr: 0xDEBC, symBinAddr: 0x68310, symSize: 0xC0 }
  - { offset: 0xB1601, size: 0x8, addend: 0x0, symName: __RNvXs_NtNtCs85QQFkKrybG_4core5slice4iterRSNtNtNtCs3tyqko2rdGU_12serde_derive9internals3ast5FieldNtNtNtNtB8_4iter6traits7collect12IntoIterator9into_iterBK_, symObjAddr: 0xE370, symBinAddr: 0x687C4, symSize: 0x58 }
  - { offset: 0xB173E, size: 0x8, addend: 0x0, symName: __RNvXs_NtNtCs85QQFkKrybG_4core5slice4iterRSNtNtNtCs3tyqko2rdGU_12serde_derive9internals3ast7VariantNtNtNtNtB8_4iter6traits7collect12IntoIterator9into_iterBK_, symObjAddr: 0xE3C8, symBinAddr: 0x6881C, symSize: 0x58 }
  - { offset: 0xB195A, size: 0x8, addend: 0x0, symName: __RNvMNtCs85QQFkKrybG_4core5sliceSNtNtCs3tyqko2rdGU_12serde_derive2de16FieldWithAliases4iterBy_, symObjAddr: 0x4E6C, symBinAddr: 0x5F2C0, symSize: 0x28 }
  - { offset: 0xB1991, size: 0x8, addend: 0x0, symName: __RNvMNtCs85QQFkKrybG_4core5sliceSNtNtNtCs3tyqko2rdGU_12serde_derive9internals3ast5Field4iterBA_, symObjAddr: 0x4E94, symBinAddr: 0x5F2E8, symSize: 0x28 }
  - { offset: 0xB19C8, size: 0x8, addend: 0x0, symName: __RNvMNtCs85QQFkKrybG_4core5sliceSNtNtNtCs3tyqko2rdGU_12serde_derive9internals3ast5Field4lastBA_, symObjAddr: 0x4EBC, symBinAddr: 0x5F310, symSize: 0x58 }
  - { offset: 0xB1A15, size: 0x8, addend: 0x0, symName: __RNvMNtCs85QQFkKrybG_4core5sliceSNtNtNtCs3tyqko2rdGU_12serde_derive9internals3ast5Field5firstBA_, symObjAddr: 0x4F14, symBinAddr: 0x5F368, symSize: 0x44 }
  - { offset: 0xB1A86, size: 0x8, addend: 0x0, symName: __RNvMNtCs85QQFkKrybG_4core5sliceSNtNtNtCs3tyqko2rdGU_12serde_derive9internals3ast7Variant18split_at_uncheckedBA_, symObjAddr: 0x4F58, symBinAddr: 0x5F3AC, symSize: 0xFC }
  - { offset: 0xB1BDF, size: 0x8, addend: 0x0, symName: __RNvMNtCs85QQFkKrybG_4core5sliceSNtNtNtCs3tyqko2rdGU_12serde_derive9internals3ast7Variant4iterBA_, symObjAddr: 0x5054, symBinAddr: 0x5F4A8, symSize: 0x28 }
  - { offset: 0xB1C16, size: 0x8, addend: 0x0, symName: __RNvMNtCs85QQFkKrybG_4core5sliceSNtNtNtCs3tyqko2rdGU_12serde_derive9internals3ast7Variant4lastBA_, symObjAddr: 0x507C, symBinAddr: 0x5F4D0, symSize: 0x58 }
  - { offset: 0xB1C96, size: 0x8, addend: 0x0, symName: __RNvMNtCs85QQFkKrybG_4core5sliceSNtNtNtCs3tyqko2rdGU_12serde_derive9internals3ast7Variant8split_atBA_, symObjAddr: 0x50D4, symBinAddr: 0x5F528, symSize: 0xD8 }
  - { offset: 0xB1D10, size: 0x8, addend: 0x0, symName: __RNvMNtCs85QQFkKrybG_4core5sliceSTRNtNtNtCs3tyqko2rdGU_12serde_derive9internals3ast5FieldNtCsfwj6t2KTYdc_11proc_macro25IdentE4iterBC_, symObjAddr: 0x51AC, symBinAddr: 0x5F600, symSize: 0x28 }
  - { offset: 0xB2E60, size: 0x8, addend: 0x0, symName: __RNvXsG_NtCs85QQFkKrybG_4core4cellINtB5_6RefMutINtNtB7_6option6OptionINtNtCsdFlNUEO95cG_5alloc3vec3VecNtNtCscwCr4GBBztI_3syn5error5ErrorEEENtNtNtB7_3ops5deref8DerefMut9deref_mutCs3tyqko2rdGU_12serde_derive, symObjAddr: 0xDF7C, symBinAddr: 0x683D0, symSize: 0x18 }
  - { offset: 0xB2EB2, size: 0x8, addend: 0x0, symName: __RNvXsv_NtCs85QQFkKrybG_4core4cellNtB5_9BorrowRefNtNtNtB7_3ops4drop4Drop4dropCs3tyqko2rdGU_12serde_derive, symObjAddr: 0xF1B0, symBinAddr: 0x69604, symSize: 0x28 }
  - { offset: 0xB2F22, size: 0x8, addend: 0x0, symName: __RNvXsx_NtCs85QQFkKrybG_4core4cellINtB5_3RefINtNtB7_6option6OptionINtNtCsdFlNUEO95cG_5alloc3vec3VecNtNtCscwCr4GBBztI_3syn5error5ErrorEEENtNtNtB7_3ops5deref5Deref5derefCs3tyqko2rdGU_12serde_derive, symObjAddr: 0xF1D8, symBinAddr: 0x6962C, symSize: 0x18 }
  - { offset: 0xB6521, size: 0x8, addend: 0x0, symName: __RNCNvMsp_NtNtCs85QQFkKrybG_4core3str4iterINtB7_20MatchIndicesInternalcE4next0Cs3tyqko2rdGU_12serde_derive, symObjAddr: 0x3478, symBinAddr: 0x5D8CC, symSize: 0xA8 }
  - { offset: 0xB66B1, size: 0x8, addend: 0x0, symName: __RNvXNtNtCs85QQFkKrybG_4core3str4iterNtB2_5CharsNtNtNtNtB6_4iter6traits8iterator8Iterator4nextCs3tyqko2rdGU_12serde_derive, symObjAddr: 0xD748, symBinAddr: 0x67B9C, symSize: 0x80 }
  - { offset: 0xB6783, size: 0x8, addend: 0x0, symName: __RNvXs3_NtNtCs85QQFkKrybG_4core3str4iterNtB5_11CharIndicesNtNtNtNtB9_4iter6traits8iterator8Iterator4nextCs3tyqko2rdGU_12serde_derive, symObjAddr: 0xDC2C, symBinAddr: 0x68080, symSize: 0x130 }
  - { offset: 0xB6960, size: 0x8, addend: 0x0, symName: __RNvXs2_NtNtCs85QQFkKrybG_4core3str7patterncNtB5_7Pattern13into_searcherCs3tyqko2rdGU_12serde_derive, symObjAddr: 0xDAE4, symBinAddr: 0x67F38, symSize: 0x114 }
  - { offset: 0xB6A78, size: 0x8, addend: 0x0, symName: __RNvXs2_NtNtCs85QQFkKrybG_4core3str7patterncNtB5_7Pattern15as_utf8_patternCs3tyqko2rdGU_12serde_derive, symObjAddr: 0xDBF8, symBinAddr: 0x6804C, symSize: 0x34 }
  - { offset: 0xB6B13, size: 0x8, addend: 0x0, symName: __RNvXs_NtNtCs85QQFkKrybG_4core3str7patternNtB4_12CharSearcherNtB4_8Searcher10next_matchCs3tyqko2rdGU_12serde_derive, symObjAddr: 0xDF94, symBinAddr: 0x683E8, symSize: 0x3BC }
  - { offset: 0xB7036, size: 0x8, addend: 0x0, symName: __RNvXs_NtNtCs85QQFkKrybG_4core3str7patternNtB4_12CharSearcherNtB4_8Searcher8haystackCs3tyqko2rdGU_12serde_derive, symObjAddr: 0xE350, symBinAddr: 0x687A4, symSize: 0x20 }
  - { offset: 0xB71BD, size: 0x8, addend: 0x0, symName: __RNvNvNtNtCs85QQFkKrybG_4core4char7convert18from_u32_unchecked18precondition_checkCs3tyqko2rdGU_12serde_derive, symObjAddr: 0xD644, symBinAddr: 0x67A98, symSize: 0x104 }
  - { offset: 0xB7554, size: 0x8, addend: 0x0, symName: __RNCNvMs_NtNtCs3tyqko2rdGU_12serde_derive9internals3astNtB6_4Data10all_fields0Ba_, symObjAddr: 0x33EC, symBinAddr: 0x5D840, symSize: 0x3C }
  - { offset: 0xB7590, size: 0x8, addend: 0x0, symName: __RNCNvMs_NtNtCs3tyqko2rdGU_12serde_derive9internals3astNtB6_4Data10has_getter0Ba_, symObjAddr: 0x3428, symBinAddr: 0x5D87C, symSize: 0x50 }
  - { offset: 0xB75D4, size: 0x8, addend: 0x0, symName: __RNCNvNtNtCs3tyqko2rdGU_12serde_derive9internals3ast13enum_from_ast0B7_, symObjAddr: 0x4830, symBinAddr: 0x5EC84, symSize: 0x180 }
  - { offset: 0xB7672, size: 0x8, addend: 0x0, symName: __RNCNvNtNtCs3tyqko2rdGU_12serde_derive9internals3ast13enum_from_asts_0B7_, symObjAddr: 0x49B0, symBinAddr: 0x5EE04, symSize: 0x44 }
  - { offset: 0xB76B5, size: 0x8, addend: 0x0, symName: __RNCNvNtNtCs3tyqko2rdGU_12serde_derive9internals3ast15fields_from_ast0B7_, symObjAddr: 0x49F4, symBinAddr: 0x5EE48, symSize: 0x164 }
  - { offset: 0xB7874, size: 0x8, addend: 0x0, symName: __RNvNtNtCs3tyqko2rdGU_12serde_derive9internals3ast13enum_from_ast, symObjAddr: 0xD14C, symBinAddr: 0x675A0, symSize: 0x278 }
  - { offset: 0xB7938, size: 0x8, addend: 0x0, symName: __RNvNtNtCs3tyqko2rdGU_12serde_derive9internals3ast15fields_from_ast, symObjAddr: 0xD3C4, symBinAddr: 0x67818, symSize: 0xB0 }
  - { offset: 0xB799C, size: 0x8, addend: 0x0, symName: __RNvNtNtCs3tyqko2rdGU_12serde_derive9internals3ast15struct_from_ast, symObjAddr: 0xD474, symBinAddr: 0x678C8, symSize: 0x1D0 }
  - { offset: 0xB8644, size: 0x8, addend: 0x0, symName: __RNCNvNtCs3tyqko2rdGU_12serde_derive2de11has_flatten0B5_, symObjAddr: 0x3520, symBinAddr: 0x5D974, symSize: 0x8C }
  - { offset: 0xB868A, size: 0x8, addend: 0x0, symName: __RNCNvNtCs3tyqko2rdGU_12serde_derive2de15deserialize_seq0B5_, symObjAddr: 0x35AC, symBinAddr: 0x5DA00, symSize: 0x40 }
  - { offset: 0xB86C3, size: 0x8, addend: 0x0, symName: __RNCNvNtCs3tyqko2rdGU_12serde_derive2de15deserialize_seqs0_0B5_, symObjAddr: 0x35EC, symBinAddr: 0x5DA40, symSize: 0x18 }
  - { offset: 0xB86FC, size: 0x8, addend: 0x0, symName: __RNCNvNtCs3tyqko2rdGU_12serde_derive2de15deserialize_seqs_0B5_, symObjAddr: 0x3604, symBinAddr: 0x5DA58, symSize: 0xBBC }
  - { offset: 0xB89ED, size: 0x8, addend: 0x0, symName: __RNCNvNtCs3tyqko2rdGU_12serde_derive2de18borrowed_lifetimes0B5_, symObjAddr: 0x41C0, symBinAddr: 0x5E614, symSize: 0x94 }
  - { offset: 0xB8A33, size: 0x8, addend: 0x0, symName: __RNCNvNtCs3tyqko2rdGU_12serde_derive2de23deserialize_transparent0B5_, symObjAddr: 0x4254, symBinAddr: 0x5E6A8, symSize: 0x3C }
  - { offset: 0xB8A6C, size: 0x8, addend: 0x0, symName: __RNCNvNtCs3tyqko2rdGU_12serde_derive2de23deserialize_transparents_0B5_, symObjAddr: 0x4290, symBinAddr: 0x5E6E4, symSize: 0x450 }
  - { offset: 0xB8BA3, size: 0x8, addend: 0x0, symName: __RNCNvNtCs3tyqko2rdGU_12serde_derive2de23needs_deserialize_bound0B5_, symObjAddr: 0x46E0, symBinAddr: 0x5EB34, symSize: 0xC4 }
  - { offset: 0xB8BE6, size: 0x8, addend: 0x0, symName: __RNCNvNtCs3tyqko2rdGU_12serde_derive2de25unwrap_to_variant_closure0B5_, symObjAddr: 0x47A4, symBinAddr: 0x5EBF8, symSize: 0x1C }
  - { offset: 0xB8C1F, size: 0x8, addend: 0x0, symName: __RNCNvNtCs3tyqko2rdGU_12serde_derive2de25unwrap_to_variant_closures0_0B5_, symObjAddr: 0x47C0, symBinAddr: 0x5EC14, symSize: 0x18 }
  - { offset: 0xB8C58, size: 0x8, addend: 0x0, symName: __RNCNvNtCs3tyqko2rdGU_12serde_derive2de25unwrap_to_variant_closures_0B5_, symObjAddr: 0x47D8, symBinAddr: 0x5EC2C, symSize: 0x58 }
  - { offset: 0xB8DE8, size: 0x8, addend: 0x0, symName: __RNvNtCs3tyqko2rdGU_12serde_derive2de11has_flatten, symObjAddr: 0x5EB4, symBinAddr: 0x60308, symSize: 0x4C }
  - { offset: 0xB8E16, size: 0x8, addend: 0x0, symName: __RNvNtCs3tyqko2rdGU_12serde_derive2de12precondition, symObjAddr: 0x5F00, symBinAddr: 0x60354, symSize: 0x50 }
  - { offset: 0xB8E4C, size: 0x8, addend: 0x0, symName: __RNvNtCs3tyqko2rdGU_12serde_derive2de14build_generics, symObjAddr: 0x5F50, symBinAddr: 0x603A4, symSize: 0x608 }
  - { offset: 0xB8F69, size: 0x8, addend: 0x0, symName: __RNvNtCs3tyqko2rdGU_12serde_derive2de15deserialize_seq, symObjAddr: 0x6558, symBinAddr: 0x609AC, symSize: 0xFB4 }
  - { offset: 0xB94E7, size: 0x8, addend: 0x0, symName: __RNvNtCs3tyqko2rdGU_12serde_derive2de15effective_style, symObjAddr: 0x750C, symBinAddr: 0x61960, symSize: 0xB8 }
  - { offset: 0xB9533, size: 0x8, addend: 0x0, symName: __RNvNtCs3tyqko2rdGU_12serde_derive2de15expr_is_missing, symObjAddr: 0x75C4, symBinAddr: 0x61A18, symSize: 0x918 }
  - { offset: 0xB9751, size: 0x8, addend: 0x0, symName: __RNvNtCs3tyqko2rdGU_12serde_derive2de16deserialize_body, symObjAddr: 0x7EDC, symBinAddr: 0x62330, symSize: 0x354 }
  - { offset: 0xB9833, size: 0x8, addend: 0x0, symName: __RNvNtCs3tyqko2rdGU_12serde_derive2de16deserialize_from, symObjAddr: 0x8230, symBinAddr: 0x62684, symSize: 0x32C }
  - { offset: 0xB98A2, size: 0x8, addend: 0x0, symName: __RNvNtCs3tyqko2rdGU_12serde_derive2de16requires_default, symObjAddr: 0x855C, symBinAddr: 0x629B0, symSize: 0x90 }
  - { offset: 0xB98DC, size: 0x8, addend: 0x0, symName: __RNvNtCs3tyqko2rdGU_12serde_derive2de18borrowed_lifetimes, symObjAddr: 0x85EC, symBinAddr: 0x62A40, symSize: 0x24C }
  - { offset: 0xB994E, size: 0x8, addend: 0x0, symName: __RNvNtCs3tyqko2rdGU_12serde_derive2de18precondition_sized, symObjAddr: 0x8838, symBinAddr: 0x62C8C, symSize: 0x128 }
  - { offset: 0xB99AE, size: 0x8, addend: 0x0, symName: __RNvNtCs3tyqko2rdGU_12serde_derive2de19expr_is_missing_seq, symObjAddr: 0x8960, symBinAddr: 0x62DB4, symSize: 0x688 }
  - { offset: 0xB9B2D, size: 0x8, addend: 0x0, symName: __RNvNtCs3tyqko2rdGU_12serde_derive2de20deserialize_try_from, symObjAddr: 0x8FE8, symBinAddr: 0x6343C, symSize: 0x4D8 }
  - { offset: 0xB9BC8, size: 0x8, addend: 0x0, symName: __RNvNtCs3tyqko2rdGU_12serde_derive2de21wrap_deserialize_with, symObjAddr: 0x94C0, symBinAddr: 0x63914, symSize: 0xE3C }
  - { offset: 0xB9E57, size: 0x8, addend: 0x0, symName: __RNvNtCs3tyqko2rdGU_12serde_derive2de23deserialize_transparent, symObjAddr: 0xA2FC, symBinAddr: 0x64750, symSize: 0x6C0 }
  - { offset: 0xBA09C, size: 0x8, addend: 0x0, symName: __RNvNtCs3tyqko2rdGU_12serde_derive2de23needs_deserialize_bound, symObjAddr: 0xA9BC, symBinAddr: 0x64E10, symSize: 0xFC }
  - { offset: 0xBA0D6, size: 0x8, addend: 0x0, symName: __RNvNtCs3tyqko2rdGU_12serde_derive2de25deserialize_in_place_body, symObjAddr: 0xAAB8, symBinAddr: 0x64F0C, symSize: 0x30 }
  - { offset: 0xBA113, size: 0x8, addend: 0x0, symName: __RNvNtCs3tyqko2rdGU_12serde_derive2de25expand_derive_deserialize, symObjAddr: 0xAAE8, symBinAddr: 0x64F3C, symSize: 0x1134 }
  - { offset: 0xBA395, size: 0x8, addend: 0x0, symName: __RNvNtCs3tyqko2rdGU_12serde_derive2de25unwrap_to_variant_closure, symObjAddr: 0xBC1C, symBinAddr: 0x66070, symSize: 0xE7C }
  - { offset: 0xBA923, size: 0x8, addend: 0x0, symName: __RNvNtCs3tyqko2rdGU_12serde_derive2de26de_type_generics_to_tokens, symObjAddr: 0xCA98, symBinAddr: 0x66EEC, symSize: 0x2A8 }
  - { offset: 0xBA9AA, size: 0x8, addend: 0x0, symName: __RNvNtCs3tyqko2rdGU_12serde_derive2de27precondition_no_de_lifetime, symObjAddr: 0xCD40, symBinAddr: 0x67194, symSize: 0x248 }
  - { offset: 0xBAA0B, size: 0x8, addend: 0x0, symName: __RNvNtCs3tyqko2rdGU_12serde_derive2de27wrap_deserialize_field_with, symObjAddr: 0xCF88, symBinAddr: 0x673DC, symSize: 0xD8 }
  - { offset: 0xBAA6D, size: 0x8, addend: 0x0, symName: __RNvNtCs3tyqko2rdGU_12serde_derive2de7field_i, symObjAddr: 0xD060, symBinAddr: 0x674B4, symSize: 0xEC }
  - { offset: 0xBAADD, size: 0x8, addend: 0x0, symName: __RNvXs0_NtCs3tyqko2rdGU_12serde_derive2deNtB5_14DeImplGenericsNtNtCshi3DZH3dfhk_5quote9to_tokens8ToTokens9to_tokens, symObjAddr: 0xD7F8, symBinAddr: 0x67C4C, symSize: 0x1D8 }
  - { offset: 0xBAB68, size: 0x8, addend: 0x0, symName: __RNvXs1_NtCs3tyqko2rdGU_12serde_derive2deNtB5_14DeTypeGenericsNtNtCshi3DZH3dfhk_5quote9to_tokens8ToTokens9to_tokens, symObjAddr: 0xDA80, symBinAddr: 0x67ED4, symSize: 0x64 }
  - { offset: 0xBB474, size: 0x8, addend: 0x0, symName: __RNvXs1J_NtCs9bTl5rSDVcL_10proc_macro6bridgeINtB6_11ExpnGlobalsNtNtB6_6client4SpanEINtNtB6_3rpc9DecodeMutuE6decodeCs3tyqko2rdGU_12serde_derive, symObjAddr: 0xD9D0, symBinAddr: 0x67E24, symSize: 0xB0 }
  - { offset: 0xBB4CB, size: 0x8, addend: 0x0, symName: __RNvXs9_NtNtCs9bTl5rSDVcL_10proc_macro6bridge3rpcTINtB7_11ExpnGlobalsNtNtB7_6client4SpanENtB16_11TokenStreamEINtB5_9DecodeMutuE6decodeCs3tyqko2rdGU_12serde_derive, symObjAddr: 0xDD5C, symBinAddr: 0x681B0, symSize: 0x84 }
  - { offset: 0xBCA6F, size: 0x8, addend: 0x0, symName: __RNvXNvXNvMNtCsdFlNUEO95cG_5alloc5sliceSp9to_vec_inpNtB5_10ConvertVec6to_vecINtB2_9DropGuardNtNtCscwCr4GBBztI_3syn8generics14WherePredicateNtNtBa_5alloc6GlobalENtNtNtCs85QQFkKrybG_4core3ops4drop4Drop4dropCs3tyqko2rdGU_12serde_derive, symObjAddr: 0xD7C8, symBinAddr: 0x67C1C, symSize: 0x30 }
  - { offset: 0xC1A84, size: 0x8, addend: 0x0, symName: __RNCINvNtCscwCr4GBBztI_3syn4meta6parserNCNvMs3_NtNtCs3tyqko2rdGU_12serde_derive9internals4attrNtBI_9Container8from_ast0E0BM_, symObjAddr: 0x3004, symBinAddr: 0x5D458, symSize: 0xFC }
  - { offset: 0xC1AC9, size: 0x8, addend: 0x0, symName: __RNCINvNtCscwCr4GBBztI_3syn4meta6parserNCNvMs4_NtNtCs3tyqko2rdGU_12serde_derive9internals4attrNtBI_7Variant8from_ast0E0BM_, symObjAddr: 0x3100, symBinAddr: 0x5D554, symSize: 0xF4 }
  - { offset: 0xC1B0E, size: 0x8, addend: 0x0, symName: __RNCINvNtCscwCr4GBBztI_3syn4meta6parserNCNvMs6_NtNtCs3tyqko2rdGU_12serde_derive9internals4attrNtBI_5Field8from_asts_0E0BM_, symObjAddr: 0x31F4, symBinAddr: 0x5D648, symSize: 0xF4 }
  - { offset: 0xC1B53, size: 0x8, addend: 0x0, symName: __RNCINvNtCscwCr4GBBztI_3syn4meta6parserNCNvNtCs3tyqko2rdGU_12serde_derive10deprecated19contains_deprecated0E0BG_, symObjAddr: 0x32E8, symBinAddr: 0x5D73C, symSize: 0xE0 }
  - { offset: 0xC1C49, size: 0x8, addend: 0x0, symName: __RINvNtCscwCr4GBBztI_3syn4meta17parse_nested_metaNCINvNtNtCs3tyqko2rdGU_12serde_derive9internals4attr14get_ser_and_deINtNtCsdFlNUEO95cG_5alloc3vec3VecNtNtB4_8generics14WherePredicateENvBP_20parse_lit_into_whereB1Q_E0EBT_, symObjAddr: 0x1A28, symBinAddr: 0x5BE7C, symSize: 0x36C }
  - { offset: 0xC1D0B, size: 0x8, addend: 0x0, symName: __RINvNtCscwCr4GBBztI_3syn4meta17parse_nested_metaNCINvNtNtCs3tyqko2rdGU_12serde_derive9internals4attr14get_ser_and_deNtNtB4_3lit6LitStrNvBP_12get_lit_str2INtNtCs85QQFkKrybG_4core6option6OptionB1Q_EE0EBT_, symObjAddr: 0x1D94, symBinAddr: 0x5C1E8, symSize: 0x36C }
  - { offset: 0xC1DCD, size: 0x8, addend: 0x0, symName: __RINvNtCscwCr4GBBztI_3syn4meta17parse_nested_metaNCNvMs3_NtNtCs3tyqko2rdGU_12serde_derive9internals4attrNtBS_9Container8from_ast0EBW_, symObjAddr: 0x2100, symBinAddr: 0x5C554, symSize: 0x36C }
  - { offset: 0xC1E8F, size: 0x8, addend: 0x0, symName: __RINvNtCscwCr4GBBztI_3syn4meta17parse_nested_metaNCNvMs4_NtNtCs3tyqko2rdGU_12serde_derive9internals4attrNtBS_7Variant8from_ast0EBW_, symObjAddr: 0x246C, symBinAddr: 0x5C8C0, symSize: 0x36C }
  - { offset: 0xC1F51, size: 0x8, addend: 0x0, symName: __RINvNtCscwCr4GBBztI_3syn4meta17parse_nested_metaNCNvMs6_NtNtCs3tyqko2rdGU_12serde_derive9internals4attrNtBS_5Field8from_asts_0EBW_, symObjAddr: 0x27D8, symBinAddr: 0x5CC2C, symSize: 0x36C }
  - { offset: 0xC2013, size: 0x8, addend: 0x0, symName: __RINvNtCscwCr4GBBztI_3syn4meta17parse_nested_metaNCNvNtCs3tyqko2rdGU_12serde_derive10deprecated19contains_deprecated0EBQ_, symObjAddr: 0x2B44, symBinAddr: 0x5CF98, symSize: 0x380 }
  - { offset: 0xC20D5, size: 0x8, addend: 0x0, symName: __RINvNtCscwCr4GBBztI_3syn4meta6parserNCNvMs3_NtNtCs3tyqko2rdGU_12serde_derive9internals4attrNtBG_9Container8from_ast0EBK_, symObjAddr: 0x2EC4, symBinAddr: 0x5D318, symSize: 0x40 }
  - { offset: 0xC210B, size: 0x8, addend: 0x0, symName: __RINvNtCscwCr4GBBztI_3syn4meta6parserNCNvMs4_NtNtCs3tyqko2rdGU_12serde_derive9internals4attrNtBG_7Variant8from_ast0EBK_, symObjAddr: 0x2F04, symBinAddr: 0x5D358, symSize: 0x40 }
  - { offset: 0xC2141, size: 0x8, addend: 0x0, symName: __RINvNtCscwCr4GBBztI_3syn4meta6parserNCNvMs6_NtNtCs3tyqko2rdGU_12serde_derive9internals4attrNtBG_5Field8from_asts_0EBK_, symObjAddr: 0x2F44, symBinAddr: 0x5D398, symSize: 0x40 }
  - { offset: 0xC2177, size: 0x8, addend: 0x0, symName: __RINvNtCscwCr4GBBztI_3syn4meta6parserNCNvNtCs3tyqko2rdGU_12serde_derive10deprecated19contains_deprecated0EBE_, symObjAddr: 0x2F84, symBinAddr: 0x5D3D8, symSize: 0x24 }
  - { offset: 0xC243F, size: 0x8, addend: 0x0, symName: __RNvXsh_NtCscwCr4GBBztI_3syn5parseNCINvNtB7_4meta6parserNCNvMs3_NtNtCs3tyqko2rdGU_12serde_derive9internals4attrNtBZ_9Container8from_ast0E0NtB5_6Parser14___parse_scopedB13_, symObjAddr: 0xE420, symBinAddr: 0x68874, symSize: 0x364 }
  - { offset: 0xC258C, size: 0x8, addend: 0x0, symName: __RNvXsh_NtCscwCr4GBBztI_3syn5parseNCINvNtB7_4meta6parserNCNvMs4_NtNtCs3tyqko2rdGU_12serde_derive9internals4attrNtBZ_7Variant8from_ast0E0NtB5_6Parser14___parse_scopedB13_, symObjAddr: 0xE784, symBinAddr: 0x68BD8, symSize: 0x364 }
  - { offset: 0xC26D9, size: 0x8, addend: 0x0, symName: __RNvXsh_NtCscwCr4GBBztI_3syn5parseNCINvNtB7_4meta6parserNCNvMs6_NtNtCs3tyqko2rdGU_12serde_derive9internals4attrNtBZ_5Field8from_asts_0E0NtB5_6Parser14___parse_scopedB13_, symObjAddr: 0xEAE8, symBinAddr: 0x68F3C, symSize: 0x374 }
  - { offset: 0xC2826, size: 0x8, addend: 0x0, symName: __RNvXsh_NtCscwCr4GBBztI_3syn5parseNCINvNtB7_4meta6parserNCNvNtCs3tyqko2rdGU_12serde_derive10deprecated19contains_deprecated0E0NtB5_6Parser14___parse_scopedBX_, symObjAddr: 0xEE5C, symBinAddr: 0x692B0, symSize: 0x354 }
  - { offset: 0xC31DA, size: 0x8, addend: 0x0, symName: __RINvMNtCscwCr4GBBztI_3syn4attrNtB3_9Attribute15parse_args_withNCINvNtB5_4meta6parserNCNvMs3_NtNtCs3tyqko2rdGU_12serde_derive9internals4attrNtB1s_9Container8from_ast0E0EB1w_, symObjAddr: 0x0, symBinAddr: 0x5A454, symSize: 0x3A4 }
  - { offset: 0xC335E, size: 0x8, addend: 0x0, symName: __RINvMNtCscwCr4GBBztI_3syn4attrNtB3_9Attribute15parse_args_withNCINvNtB5_4meta6parserNCNvMs4_NtNtCs3tyqko2rdGU_12serde_derive9internals4attrNtB1s_7Variant8from_ast0E0EB1w_, symObjAddr: 0x3A4, symBinAddr: 0x5A7F8, symSize: 0x3A4 }
  - { offset: 0xC34D5, size: 0x8, addend: 0x0, symName: __RINvMNtCscwCr4GBBztI_3syn4attrNtB3_9Attribute15parse_args_withNCINvNtB5_4meta6parserNCNvMs6_NtNtCs3tyqko2rdGU_12serde_derive9internals4attrNtB1s_5Field8from_asts_0E0EB1w_, symObjAddr: 0x748, symBinAddr: 0x5AB9C, symSize: 0x39C }
  - { offset: 0xC3632, size: 0x8, addend: 0x0, symName: __RINvMNtCscwCr4GBBztI_3syn4attrNtB3_9Attribute15parse_args_withNCNvMs3_NtNtCs3tyqko2rdGU_12serde_derive9internals4attrNtB16_9Container8from_asts_0EB1a_, symObjAddr: 0xAE4, symBinAddr: 0x5AF38, symSize: 0x384 }
  - { offset: 0xC3782, size: 0x8, addend: 0x0, symName: __RINvMNtCscwCr4GBBztI_3syn4attrNtB3_9Attribute17parse_nested_metaNCNvMs3_NtNtCs3tyqko2rdGU_12serde_derive9internals4attrNtB18_9Container8from_ast0EB1c_, symObjAddr: 0xE68, symBinAddr: 0x5B2BC, symSize: 0x58 }
  - { offset: 0xC37BE, size: 0x8, addend: 0x0, symName: __RINvMNtCscwCr4GBBztI_3syn4attrNtB3_9Attribute17parse_nested_metaNCNvMs4_NtNtCs3tyqko2rdGU_12serde_derive9internals4attrNtB18_7Variant8from_ast0EB1c_, symObjAddr: 0xEC0, symBinAddr: 0x5B314, symSize: 0x58 }
  - { offset: 0xC37FA, size: 0x8, addend: 0x0, symName: __RINvMNtCscwCr4GBBztI_3syn4attrNtB3_9Attribute17parse_nested_metaNCNvMs6_NtNtCs3tyqko2rdGU_12serde_derive9internals4attrNtB18_5Field8from_asts_0EB1c_, symObjAddr: 0xF18, symBinAddr: 0x5B36C, symSize: 0x58 }
  - { offset: 0xC38C5, size: 0x8, addend: 0x0, symName: __RINvMNtCscwCr4GBBztI_3syn4metaNtB3_15ParseNestedMeta17parse_nested_metaNCINvNtNtCs3tyqko2rdGU_12serde_derive9internals4attr14get_ser_and_deINtNtCsdFlNUEO95cG_5alloc3vec3VecNtNtB5_8generics14WherePredicateENvB1c_20parse_lit_into_whereB2d_E0EB1g_, symObjAddr: 0xF70, symBinAddr: 0x5B3C4, symSize: 0x190 }
  - { offset: 0xC398C, size: 0x8, addend: 0x0, symName: __RINvMNtCscwCr4GBBztI_3syn4metaNtB3_15ParseNestedMeta17parse_nested_metaNCINvNtNtCs3tyqko2rdGU_12serde_derive9internals4attr14get_ser_and_deNtNtB5_3lit6LitStrNvB1c_12get_lit_str2INtNtCs85QQFkKrybG_4core6option6OptionB2d_EE0EB1g_, symObjAddr: 0x1100, symBinAddr: 0x5B554, symSize: 0x190 }
  - { offset: 0xC3B06, size: 0x8, addend: 0x0, symName: __RINvMNtCscwCr4GBBztI_3syn4metaNtB3_15ParseNestedMeta5errorNtNtCs85QQFkKrybG_4core3fmt9ArgumentsECs3tyqko2rdGU_12serde_derive, symObjAddr: 0x1290, symBinAddr: 0x5B6E4, symSize: 0x10C }
  - { offset: 0xC3B7E, size: 0x8, addend: 0x0, symName: __RINvMNtCscwCr4GBBztI_3syn4metaNtB3_15ParseNestedMeta5errorReECs3tyqko2rdGU_12serde_derive, symObjAddr: 0x139C, symBinAddr: 0x5B7F0, symSize: 0x100 }
  - { offset: 0xC3C02, size: 0x8, addend: 0x0, symName: __RINvMs0_NtCscwCr4GBBztI_3syn4attrNtB6_8MetaList15parse_args_withNCINvNtB8_4meta6parserNCNvMs3_NtNtCs3tyqko2rdGU_12serde_derive9internals4attrNtB1u_9Container8from_ast0E0EB1y_, symObjAddr: 0x149C, symBinAddr: 0x5B8F0, symSize: 0x114 }
  - { offset: 0xC3C54, size: 0x8, addend: 0x0, symName: __RINvMs0_NtCscwCr4GBBztI_3syn4attrNtB6_8MetaList15parse_args_withNCINvNtB8_4meta6parserNCNvMs4_NtNtCs3tyqko2rdGU_12serde_derive9internals4attrNtB1u_7Variant8from_ast0E0EB1y_, symObjAddr: 0x15B0, symBinAddr: 0x5BA04, symSize: 0x114 }
  - { offset: 0xC3CA6, size: 0x8, addend: 0x0, symName: __RINvMs0_NtCscwCr4GBBztI_3syn4attrNtB6_8MetaList15parse_args_withNCINvNtB8_4meta6parserNCNvMs6_NtNtCs3tyqko2rdGU_12serde_derive9internals4attrNtB1u_5Field8from_asts_0E0EB1y_, symObjAddr: 0x16C4, symBinAddr: 0x5BB18, symSize: 0x114 }
  - { offset: 0xC3CF8, size: 0x8, addend: 0x0, symName: __RINvMs0_NtCscwCr4GBBztI_3syn4attrNtB6_8MetaList15parse_args_withNCINvNtB8_4meta6parserNCNvNtCs3tyqko2rdGU_12serde_derive10deprecated19contains_deprecated0E0EB1s_, symObjAddr: 0x17D8, symBinAddr: 0x5BC2C, symSize: 0xFC }
  - { offset: 0xC3D49, size: 0x8, addend: 0x0, symName: __RINvMs0_NtCscwCr4GBBztI_3syn4attrNtB6_8MetaList15parse_args_withNCNvMs3_NtNtCs3tyqko2rdGU_12serde_derive9internals4attrNtB18_9Container8from_asts_0EB1c_, symObjAddr: 0x18D4, symBinAddr: 0x5BD28, symSize: 0xFC }
  - { offset: 0xC3D9A, size: 0x8, addend: 0x0, symName: __RINvMs0_NtCscwCr4GBBztI_3syn4attrNtB6_8MetaList17parse_nested_metaNCNvNtCs3tyqko2rdGU_12serde_derive10deprecated19contains_deprecated0EB18_, symObjAddr: 0x19D0, symBinAddr: 0x5BE24, symSize: 0x58 }
  - { offset: 0xC3DE4, size: 0x8, addend: 0x0, symName: __RINvXs8_NtCsfieuf5LernF_9hashbrown3setINtB6_7HashSetNtCsfwj6t2KTYdc_11proc_macro25IdentNtNtNtCswz7ZwgBZOU_3std4hash6random11RandomStateEINtNtNtNtCs85QQFkKrybG_4core4iter6traits7collect6ExtendBO_E6extendINtNtNtB2h_8adapters3map3MapNtNtCscwCr4GBBztI_3syn8generics10TypeParamsNCNvNtCs3tyqko2rdGU_12serde_derive5bound10with_bound0EEB4t_, symObjAddr: 0x2FA8, symBinAddr: 0x5D3FC, symSize: 0x5C }
  - { offset: 0xC3E46, size: 0x8, addend: 0x0, symName: __RNCINvXs8_NtCsfieuf5LernF_9hashbrown3setINtB8_7HashSetNtCsfwj6t2KTYdc_11proc_macro25IdentNtNtNtCswz7ZwgBZOU_3std4hash6random11RandomStateEINtNtNtNtCs85QQFkKrybG_4core4iter6traits7collect6ExtendBQ_E6extendINtNtNtB2j_8adapters3map3MapNtNtCscwCr4GBBztI_3syn8generics10TypeParamsNCNvNtCs3tyqko2rdGU_12serde_derive5bound10with_bound0EE0B4v_, symObjAddr: 0x33C8, symBinAddr: 0x5D81C, symSize: 0x24 }
  - { offset: 0xC4020, size: 0x8, addend: 0x0, symName: __RNvMNtCs3tyqko2rdGU_12serde_derive2deNtB2_10Parameters25generics_with_de_lifetime, symObjAddr: 0x4B58, symBinAddr: 0x5EFAC, symSize: 0x70 }
  - { offset: 0xC40A5, size: 0x8, addend: 0x0, symName: __RNvMNtCs3tyqko2rdGU_12serde_derive2deNtB2_10Parameters3new, symObjAddr: 0x4BC8, symBinAddr: 0x5F01C, symSize: 0x234 }
  - { offset: 0xC416F, size: 0x8, addend: 0x0, symName: __RNvMNtCs3tyqko2rdGU_12serde_derive2deNtB2_10Parameters9type_name, symObjAddr: 0x4DFC, symBinAddr: 0x5F250, symSize: 0x70 }
  - { offset: 0xC424B, size: 0x8, addend: 0x0, symName: __RNvMNtNtCs3tyqko2rdGU_12serde_derive9internals3astNtB2_9Container8from_ast, symObjAddr: 0x51D4, symBinAddr: 0x5F628, symSize: 0x650 }
  - { offset: 0xC43EE, size: 0x8, addend: 0x0, symName: __RNvMs_NtCs3tyqko2rdGU_12serde_derive2deNtB4_17BorrowedLifetimes11de_lifetime, symObjAddr: 0x5824, symBinAddr: 0x5FC78, symSize: 0x9C }
  - { offset: 0xC4411, size: 0x8, addend: 0x0, symName: __RNvMs_NtCs3tyqko2rdGU_12serde_derive2deNtB4_17BorrowedLifetimes17de_lifetime_param, symObjAddr: 0x58C0, symBinAddr: 0x5FD14, symSize: 0x17C }
  - { offset: 0xC44C1, size: 0x8, addend: 0x0, symName: __RNvMs_NtNtCs3tyqko2rdGU_12serde_derive9internals3astNtB4_4Data10all_fields, symObjAddr: 0x5A3C, symBinAddr: 0x5FE90, symSize: 0x17C }
  - { offset: 0xC4551, size: 0x8, addend: 0x0, symName: __RNvMs_NtNtCs3tyqko2rdGU_12serde_derive9internals3astNtB4_4Data10has_getter, symObjAddr: 0x5BB8, symBinAddr: 0x6000C, symSize: 0x84 }
  - { offset: 0xC4583, size: 0x8, addend: 0x0, symName: __RNvMsh_NtCs85QQFkKrybG_4core4cellINtB5_7RefCellINtNtB7_6option6OptionINtNtCsdFlNUEO95cG_5alloc3vec3VecNtNtCscwCr4GBBztI_3syn5error5ErrorEEE3newCs3tyqko2rdGU_12serde_derive, symObjAddr: 0x5C3C, symBinAddr: 0x60090, symSize: 0x34 }
  - { offset: 0xC45F8, size: 0x8, addend: 0x0, symName: __RNvMsi_NtCs85QQFkKrybG_4core4cellINtB5_7RefCellINtNtB7_6option6OptionINtNtCsdFlNUEO95cG_5alloc3vec3VecNtNtCscwCr4GBBztI_3syn5error5ErrorEEE10borrow_mutCs3tyqko2rdGU_12serde_derive, symObjAddr: 0x5C70, symBinAddr: 0x600C4, symSize: 0x60 }
  - { offset: 0xC46F9, size: 0x8, addend: 0x0, symName: __RNvMsi_NtCs85QQFkKrybG_4core4cellINtB5_7RefCellINtNtB7_6option6OptionINtNtCsdFlNUEO95cG_5alloc3vec3VecNtNtCscwCr4GBBztI_3syn5error5ErrorEEE10try_borrowCs3tyqko2rdGU_12serde_derive, symObjAddr: 0x5CD0, symBinAddr: 0x60124, symSize: 0xCC }
  - { offset: 0xC48BC, size: 0x8, addend: 0x0, symName: __RNvMsi_NtCs85QQFkKrybG_4core4cellINtB5_7RefCellINtNtB7_6option6OptionINtNtCsdFlNUEO95cG_5alloc3vec3VecNtNtCscwCr4GBBztI_3syn5error5ErrorEEE14try_borrow_mutCs3tyqko2rdGU_12serde_derive, symObjAddr: 0x5D9C, symBinAddr: 0x601F0, symSize: 0xB8 }
  - { offset: 0xC49B7, size: 0x8, addend: 0x0, symName: __RNvMsi_NtCs85QQFkKrybG_4core4cellINtB5_7RefCellINtNtB7_6option6OptionINtNtCsdFlNUEO95cG_5alloc3vec3VecNtNtCscwCr4GBBztI_3syn5error5ErrorEEE6borrowCs3tyqko2rdGU_12serde_derive, symObjAddr: 0x5E54, symBinAddr: 0x602A8, symSize: 0x60 }
  - { offset: 0xC551F, size: 0x8, addend: 0x0, symName: __RINvCscwCr4GBBztI_3syn5parseNtNtB2_6derive11DeriveInputECs3tyqko2rdGU_12serde_derive, symObjAddr: 0x0, symBinAddr: 0x69644, symSize: 0x30 }
  - { offset: 0xC6CA1, size: 0x8, addend: 0x0, symName: __RNvNtCs3tyqko2rdGU_12serde_derive9internals7ungroup, symObjAddr: 0x9128, symBinAddr: 0x726DC, symSize: 0xD0 }
  - { offset: 0xC6E26, size: 0x8, addend: 0x0, symName: __RNCNCNvNtCs3tyqko2rdGU_12serde_derive7pretend21pretend_variants_used00B7_, symObjAddr: 0x518C, symBinAddr: 0x6E740, symSize: 0x120 }
  - { offset: 0xC6EAF, size: 0x8, addend: 0x0, symName: __RNCNCNvNtCs3tyqko2rdGU_12serde_derive7pretend21pretend_variants_used0s_0B7_, symObjAddr: 0x52AC, symBinAddr: 0x6E860, symSize: 0x18 }
  - { offset: 0xC6EF4, size: 0x8, addend: 0x0, symName: __RNCNvNtCs3tyqko2rdGU_12serde_derive7pretend21pretend_variants_used0B5_, symObjAddr: 0x55BC, symBinAddr: 0x6EB70, symSize: 0x920 }
  - { offset: 0xC72B7, size: 0x8, addend: 0x0, symName: __RNCNCNvNtCs3tyqko2rdGU_12serde_derive7pretend24pretend_fields_used_enum00B7_, symObjAddr: 0x52C4, symBinAddr: 0x6E878, symSize: 0x18 }
  - { offset: 0xC72ED, size: 0x8, addend: 0x0, symName: __RNCNCNvNtCs3tyqko2rdGU_12serde_derive7pretend24pretend_fields_used_enum0s_0B7_, symObjAddr: 0x52DC, symBinAddr: 0x6E890, symSize: 0x120 }
  - { offset: 0xC7385, size: 0x8, addend: 0x0, symName: __RNCNvNtCs3tyqko2rdGU_12serde_derive7pretend24pretend_fields_used_enum0B5_, symObjAddr: 0x5EDC, symBinAddr: 0x6F490, symSize: 0x37C }
  - { offset: 0xC7554, size: 0x8, addend: 0x0, symName: __RNCNvNtCs3tyqko2rdGU_12serde_derive7pretend26pretend_fields_used_struct0B5_, symObjAddr: 0x6258, symBinAddr: 0x6F80C, symSize: 0x18 }
  - { offset: 0xC758A, size: 0x8, addend: 0x0, symName: __RNCNvNtCs3tyqko2rdGU_12serde_derive7pretend26pretend_fields_used_structs_0B5_, symObjAddr: 0x6270, symBinAddr: 0x6F824, symSize: 0x120 }
  - { offset: 0xC7627, size: 0x8, addend: 0x0, symName: __RNCNvNtCs3tyqko2rdGU_12serde_derive7pretend33pretend_fields_used_struct_packed0B5_, symObjAddr: 0x6390, symBinAddr: 0x6F944, symSize: 0x18 }
  - { offset: 0xC7665, size: 0x8, addend: 0x0, symName: __RNvNtCs3tyqko2rdGU_12serde_derive7pretend12pretend_used, symObjAddr: 0x7BC0, symBinAddr: 0x71174, symSize: 0x108 }
  - { offset: 0xC76DE, size: 0x8, addend: 0x0, symName: __RNvNtCs3tyqko2rdGU_12serde_derive7pretend19pretend_fields_used, symObjAddr: 0x7CC8, symBinAddr: 0x7127C, symSize: 0x164 }
  - { offset: 0xC774A, size: 0x8, addend: 0x0, symName: __RNvNtCs3tyqko2rdGU_12serde_derive7pretend21pretend_variants_used, symObjAddr: 0x7E2C, symBinAddr: 0x713E0, symSize: 0x204 }
  - { offset: 0xC7884, size: 0x8, addend: 0x0, symName: __RNvNtCs3tyqko2rdGU_12serde_derive7pretend24pretend_fields_used_enum, symObjAddr: 0x8030, symBinAddr: 0x715E4, symSize: 0x444 }
  - { offset: 0xC7A47, size: 0x8, addend: 0x0, symName: __RNvNtCs3tyqko2rdGU_12serde_derive7pretend26pretend_fields_used_struct, symObjAddr: 0x8474, symBinAddr: 0x71A28, symSize: 0x558 }
  - { offset: 0xC7C3C, size: 0x8, addend: 0x0, symName: __RNvNtCs3tyqko2rdGU_12serde_derive7pretend33pretend_fields_used_struct_packed, symObjAddr: 0x89CC, symBinAddr: 0x71F80, symSize: 0x75C }
  - { offset: 0xC7EF2, size: 0x8, addend: 0x0, symName: __RNCNvNtNtCs3tyqko2rdGU_12serde_derive2de15enum_externally11deserialize0B7_, symObjAddr: 0x63A8, symBinAddr: 0x6F95C, symSize: 0x44 }
  - { offset: 0xC7F39, size: 0x8, addend: 0x0, symName: __RNCNvNtNtCs3tyqko2rdGU_12serde_derive2de15enum_externally11deserializes0_0B7_, symObjAddr: 0x63EC, symBinAddr: 0x6F9A0, symSize: 0x40 }
  - { offset: 0xC7F6F, size: 0x8, addend: 0x0, symName: __RNCNvNtNtCs3tyqko2rdGU_12serde_derive2de15enum_externally11deserializes_0B7_, symObjAddr: 0x642C, symBinAddr: 0x6F9E0, symSize: 0x1FC }
  - { offset: 0xC806A, size: 0x8, addend: 0x0, symName: __RNCNvNtNtCs3tyqko2rdGU_12serde_derive2de15enum_externally29wrap_deserialize_variant_with0B7_, symObjAddr: 0x6628, symBinAddr: 0x6FBDC, symSize: 0x1C }
  - { offset: 0xC80A8, size: 0x8, addend: 0x0, symName: __RNvNtNtCs3tyqko2rdGU_12serde_derive2de15enum_externally11deserialize, symObjAddr: 0x91F8, symBinAddr: 0x727AC, symSize: 0x1928 }
  - { offset: 0xC848C, size: 0x8, addend: 0x0, symName: __RNvNtNtCs3tyqko2rdGU_12serde_derive2de15enum_externally29wrap_deserialize_variant_with, symObjAddr: 0xAB20, symBinAddr: 0x740D4, symSize: 0x304 }
  - { offset: 0xC85FC, size: 0x8, addend: 0x0, symName: __RNvNtNtCs3tyqko2rdGU_12serde_derive2de15enum_externally37deserialize_externally_tagged_variant, symObjAddr: 0xAE24, symBinAddr: 0x743D8, symSize: 0x780 }
  - { offset: 0xC873F, size: 0x8, addend: 0x0, symName: __RNvNtNtCs3tyqko2rdGU_12serde_derive2de15enum_externally45deserialize_externally_tagged_newtype_variant, symObjAddr: 0xB5A4, symBinAddr: 0x74B58, symSize: 0xB14 }
  - { offset: 0xC897B, size: 0x8, addend: 0x0, symName: __RNvNtNtCs3tyqko2rdGU_12serde_derive2de4unit11deserialize, symObjAddr: 0xC0B8, symBinAddr: 0x7566C, symSize: 0x1258 }
  - { offset: 0xC9899, size: 0x8, addend: 0x0, symName: __RINvNtCs85QQFkKrybG_4core3ptr13drop_in_placeANtCsfwj6t2KTYdc_11proc_macro211TokenStreamj1_ECs3tyqko2rdGU_12serde_derive, symObjAddr: 0x4EC, symBinAddr: 0x69B30, symSize: 0xA4 }
  - { offset: 0xC98C8, size: 0x8, addend: 0x0, symName: __RINvNtCs85QQFkKrybG_4core3ptr13drop_in_placeINtNtB4_4cell10UnsafeCellINtNtB4_6option6OptionINtNtCsdFlNUEO95cG_5alloc3vec3VecNtNtCscwCr4GBBztI_3syn5error5ErrorEEEECs3tyqko2rdGU_12serde_derive, symObjAddr: 0x620, symBinAddr: 0x69BD4, symSize: 0x24 }
  - { offset: 0xC98F7, size: 0x8, addend: 0x0, symName: __RINvNtCs85QQFkKrybG_4core3ptr13drop_in_placeINtNtB4_4cell10UnsafeCellNtNtNtCs9bTl5rSDVcL_10proc_macro6bridge6client6BridgeEECs3tyqko2rdGU_12serde_derive, symObjAddr: 0x644, symBinAddr: 0x69BF8, symSize: 0x24 }
  - { offset: 0xC9926, size: 0x8, addend: 0x0, symName: __RINvNtCs85QQFkKrybG_4core3ptr13drop_in_placeINtNtB4_4cell3RefINtNtB4_6option6OptionINtNtCsdFlNUEO95cG_5alloc3vec3VecNtNtCscwCr4GBBztI_3syn5error5ErrorEEEECs3tyqko2rdGU_12serde_derive, symObjAddr: 0x668, symBinAddr: 0x69C1C, symSize: 0x24 }
  - { offset: 0xC9955, size: 0x8, addend: 0x0, symName: __RINvNtCs85QQFkKrybG_4core3ptr13drop_in_placeINtNtB4_4cell6RefMutINtNtB4_6option6OptionINtNtCsdFlNUEO95cG_5alloc3vec3VecNtNtCscwCr4GBBztI_3syn5error5ErrorEEEECs3tyqko2rdGU_12serde_derive, symObjAddr: 0x68C, symBinAddr: 0x69C40, symSize: 0x24 }
  - { offset: 0xC9984, size: 0x8, addend: 0x0, symName: __RINvNtCs85QQFkKrybG_4core3ptr13drop_in_placeINtNtB4_4cell7RefCellINtNtB4_6option6OptionINtNtCsdFlNUEO95cG_5alloc3vec3VecNtNtCscwCr4GBBztI_3syn5error5ErrorEEEECs3tyqko2rdGU_12serde_derive, symObjAddr: 0x6B0, symBinAddr: 0x69C64, symSize: 0x24 }
  - { offset: 0xC99B3, size: 0x8, addend: 0x0, symName: __RINvNtCs85QQFkKrybG_4core3ptr13drop_in_placeINtNtB4_4cell7RefCellNtNtNtCs9bTl5rSDVcL_10proc_macro6bridge6client6BridgeEECs3tyqko2rdGU_12serde_derive, symObjAddr: 0x6D4, symBinAddr: 0x69C88, symSize: 0x24 }
  - { offset: 0xC99E2, size: 0x8, addend: 0x0, symName: __RINvNtCs85QQFkKrybG_4core3ptr13drop_in_placeINtNtB4_6option4ItemNtNtCscwCr4GBBztI_3syn8generics12GenericParamEECs3tyqko2rdGU_12serde_derive, symObjAddr: 0x6F8, symBinAddr: 0x69CAC, symSize: 0x24 }
  - { offset: 0xC9A11, size: 0x8, addend: 0x0, symName: __RINvNtCs85QQFkKrybG_4core3ptr13drop_in_placeINtNtB4_6option6OptionINtBJ_8IntoIterNtNtCscwCr4GBBztI_3syn8generics12GenericParamEEECs3tyqko2rdGU_12serde_derive, symObjAddr: 0x71C, symBinAddr: 0x69CD0, symSize: 0x44 }
  - { offset: 0xC9A40, size: 0x8, addend: 0x0, symName: __RINvNtCs85QQFkKrybG_4core3ptr13drop_in_placeINtNtB4_6option6OptionINtNtCscwCr4GBBztI_3syn10punctuated8IntoIterNtNtB17_8generics12GenericParamEEECs3tyqko2rdGU_12serde_derive, symObjAddr: 0x760, symBinAddr: 0x69D14, symSize: 0x44 }
  - { offset: 0xC9A6F, size: 0x8, addend: 0x0, symName: __RINvNtCs85QQFkKrybG_4core3ptr13drop_in_placeINtNtB4_6option6OptionINtNtCsdFlNUEO95cG_5alloc3vec3VecNtNtCscwCr4GBBztI_3syn5error5ErrorEEECs3tyqko2rdGU_12serde_derive, symObjAddr: 0x7A4, symBinAddr: 0x69D58, symSize: 0x48 }
  - { offset: 0xC9A9E, size: 0x8, addend: 0x0, symName: __RINvNtCs85QQFkKrybG_4core3ptr13drop_in_placeINtNtB4_6option6OptionINtNtCsdFlNUEO95cG_5alloc3vec3VecNtNtCscwCr4GBBztI_3syn8generics14WherePredicateEEECs3tyqko2rdGU_12serde_derive, symObjAddr: 0x7EC, symBinAddr: 0x69DA0, symSize: 0x48 }
  - { offset: 0xC9ACD, size: 0x8, addend: 0x0, symName: __RINvNtCs85QQFkKrybG_4core3ptr13drop_in_placeINtNtB4_6option6OptionINtNtNtCsdFlNUEO95cG_5alloc3vec9into_iter8IntoIterNtNtCscwCr4GBBztI_3syn8generics14WherePredicateEEECs3tyqko2rdGU_12serde_derive, symObjAddr: 0x834, symBinAddr: 0x69DE8, symSize: 0x44 }
  - { offset: 0xC9AFC, size: 0x8, addend: 0x0, symName: __RINvNtCs85QQFkKrybG_4core3ptr13drop_in_placeINtNtB4_6option6OptionINtNtNtNtB4_4iter8adapters3map3MapINtNtB17_10filter_map9FilterMapINtNtCsdFlNUEO95cG_5alloc5boxed3BoxDNtNtNtB19_6traits8iterator8Iteratorp4ItemRNtNtNtCs3tyqko2rdGU_12serde_derive9internals3ast5FieldEL_ENCNvNtB3r_5bound33with_where_predicates_from_fields0ENvMNtB2a_5sliceSNtNtCscwCr4GBBztI_3syn8generics14WherePredicate6to_vecEEEB3r_, symObjAddr: 0x878, symBinAddr: 0x69E2C, symSize: 0x44 }
  - { offset: 0xC9B2B, size: 0x8, addend: 0x0, symName: __RINvNtCs85QQFkKrybG_4core3ptr13drop_in_placeINtNtB4_6option6OptionINtNtNtNtB4_4iter8adapters3map3MapINtNtB17_6cloned6ClonedINtNtCscwCr4GBBztI_3syn10punctuated4IterNtNtB22_8generics12GenericParamEENCNvNtCs3tyqko2rdGU_12serde_derive5bound19with_lifetime_bound0EEEB3e_, symObjAddr: 0x8BC, symBinAddr: 0x69E70, symSize: 0x44 }
  - { offset: 0xC9B5A, size: 0x8, addend: 0x0, symName: __RINvNtCs85QQFkKrybG_4core3ptr13drop_in_placeINtNtB4_6option6OptionINtNtNtNtB4_4iter8adapters3map3MapINtNtB17_6filter6FilterIB13_NtNtCscwCr4GBBztI_3syn8generics10TypeParamsNCNvNtCs3tyqko2rdGU_12serde_derive5bound10with_bounds1_0ENCB2L_s2_0ENCB2L_s3_0EEEB2P_, symObjAddr: 0x900, symBinAddr: 0x69EB4, symSize: 0x44 }
  - { offset: 0xC9B89, size: 0x8, addend: 0x0, symName: __RINvNtCs85QQFkKrybG_4core3ptr13drop_in_placeINtNtB4_6option6OptionINtNtNtNtB4_4iter8adapters6cloned6ClonedINtNtNtCsdFlNUEO95cG_5alloc3vec9into_iter8IntoIterRNtNtCscwCr4GBBztI_3syn2ty8TypePathEEEECs3tyqko2rdGU_12serde_derive, symObjAddr: 0x944, symBinAddr: 0x69EF8, symSize: 0x44 }
  - { offset: 0xC9BB8, size: 0x8, addend: 0x0, symName: __RINvNtCs85QQFkKrybG_4core3ptr13drop_in_placeINtNtB4_6option6OptionINtNtNtNtCsdFlNUEO95cG_5alloc11collections5btree3set8BTreeSetNtNtCscwCr4GBBztI_3syn8lifetime8LifetimeEEECs3tyqko2rdGU_12serde_derive, symObjAddr: 0x988, symBinAddr: 0x69F3C, symSize: 0x40 }
  - { offset: 0xC9BE7, size: 0x8, addend: 0x0, symName: __RINvNtCs85QQFkKrybG_4core3ptr13drop_in_placeINtNtB4_6option6OptionNtNtCs3tyqko2rdGU_12serde_derive8fragment5StmtsEEB16_, symObjAddr: 0x9C8, symBinAddr: 0x69F7C, symSize: 0x44 }
  - { offset: 0xC9C16, size: 0x8, addend: 0x0, symName: __RINvNtCs85QQFkKrybG_4core3ptr13drop_in_placeINtNtB4_6option6OptionNtNtCscwCr4GBBztI_3syn2ty8TypePathEECs3tyqko2rdGU_12serde_derive, symObjAddr: 0xA0C, symBinAddr: 0x69FC0, symSize: 0x48 }
  - { offset: 0xC9C45, size: 0x8, addend: 0x0, symName: __RINvNtCs85QQFkKrybG_4core3ptr13drop_in_placeINtNtB4_6option6OptionNtNtCscwCr4GBBztI_3syn4expr8ExprPathEECs3tyqko2rdGU_12serde_derive, symObjAddr: 0xA54, symBinAddr: 0x6A008, symSize: 0x48 }
  - { offset: 0xC9C74, size: 0x8, addend: 0x0, symName: __RINvNtCs85QQFkKrybG_4core3ptr13drop_in_placeINtNtB4_6option6OptionNtNtCscwCr4GBBztI_3syn4path4PathEECs3tyqko2rdGU_12serde_derive, symObjAddr: 0xA9C, symBinAddr: 0x6A050, symSize: 0x48 }
  - { offset: 0xC9CA3, size: 0x8, addend: 0x0, symName: __RINvNtCs85QQFkKrybG_4core3ptr13drop_in_placeINtNtB4_6option6OptionNtNtCscwCr4GBBztI_3syn8generics12GenericParamEECs3tyqko2rdGU_12serde_derive, symObjAddr: 0xAE4, symBinAddr: 0x6A098, symSize: 0x44 }
  - { offset: 0xC9CD2, size: 0x8, addend: 0x0, symName: __RINvNtCs85QQFkKrybG_4core3ptr13drop_in_placeINtNtB4_6option6OptionNtNtCscwCr4GBBztI_3syn8generics13LifetimeParamEECs3tyqko2rdGU_12serde_derive, symObjAddr: 0xB28, symBinAddr: 0x6A0DC, symSize: 0x48 }
  - { offset: 0xC9D01, size: 0x8, addend: 0x0, symName: __RINvNtCs85QQFkKrybG_4core3ptr13drop_in_placeINtNtB4_6option6OptionNtNtCscwCr4GBBztI_3syn8generics14WherePredicateEECs3tyqko2rdGU_12serde_derive, symObjAddr: 0xB70, symBinAddr: 0x6A124, symSize: 0x44 }
  - { offset: 0xC9D30, size: 0x8, addend: 0x0, symName: __RINvNtCs85QQFkKrybG_4core3ptr13drop_in_placeINtNtB4_6option6OptionNtNtNtCs3tyqko2rdGU_12serde_derive9internals4attr15BorrowAttributeEEB18_, symObjAddr: 0xBB4, symBinAddr: 0x6A168, symSize: 0x44 }
  - { offset: 0xC9D5F, size: 0x8, addend: 0x0, symName: __RINvNtCs85QQFkKrybG_4core3ptr13drop_in_placeINtNtB4_6option6OptionNtNtNtCs3tyqko2rdGU_12serde_derive9internals4attr7DefaultEEB18_, symObjAddr: 0xBF8, symBinAddr: 0x6A1AC, symSize: 0x4C }
  - { offset: 0xC9D8E, size: 0x8, addend: 0x0, symName: __RINvNtCs85QQFkKrybG_4core3ptr13drop_in_placeINtNtB4_6option6OptionNtNtNtCs3tyqko2rdGU_12serde_derive9internals4name4NameEEB18_, symObjAddr: 0xC44, symBinAddr: 0x6A1F8, symSize: 0x48 }
  - { offset: 0xC9DBD, size: 0x8, addend: 0x0, symName: __RINvNtCs85QQFkKrybG_4core3ptr13drop_in_placeINtNtB4_6option6OptionTNtCsfwj6t2KTYdc_11proc_macro211TokenStreamNtNtCsdFlNUEO95cG_5alloc6string6StringEEECs3tyqko2rdGU_12serde_derive, symObjAddr: 0xC8C, symBinAddr: 0x6A240, symSize: 0x48 }
  - { offset: 0xC9DEC, size: 0x8, addend: 0x0, symName: __RINvNtCs85QQFkKrybG_4core3ptr13drop_in_placeINtNtB4_6option6OptionTNtCsfwj6t2KTYdc_11proc_macro211TokenStreamuEEECs3tyqko2rdGU_12serde_derive, symObjAddr: 0xCD4, symBinAddr: 0x6A288, symSize: 0x48 }
  - { offset: 0xC9E1B, size: 0x8, addend: 0x0, symName: __RINvNtCs85QQFkKrybG_4core3ptr13drop_in_placeINtNtB4_6option8IntoIterNtNtCscwCr4GBBztI_3syn8generics12GenericParamEECs3tyqko2rdGU_12serde_derive, symObjAddr: 0xD1C, symBinAddr: 0x6A2D0, symSize: 0x24 }
  - { offset: 0xC9E4A, size: 0x8, addend: 0x0, symName: __RINvNtCs85QQFkKrybG_4core3ptr13drop_in_placeINtNtB4_6result6ResultINtNtNtNtCsdFlNUEO95cG_5alloc11collections5btree3set8BTreeSetNtNtCscwCr4GBBztI_3syn8lifetime8LifetimeENtNtB25_5error5ErrorEECs3tyqko2rdGU_12serde_derive, symObjAddr: 0xD40, symBinAddr: 0x6A2F4, symSize: 0x50 }
  - { offset: 0xC9E79, size: 0x8, addend: 0x0, symName: __RINvNtCs85QQFkKrybG_4core3ptr13drop_in_placeINtNtB4_6result6ResultNtNtCscwCr4GBBztI_3syn2ty4TypeNtNtB16_5error5ErrorEECs3tyqko2rdGU_12serde_derive, symObjAddr: 0xD90, symBinAddr: 0x6A344, symSize: 0x58 }
  - { offset: 0xC9EA8, size: 0x8, addend: 0x0, symName: __RINvNtCs85QQFkKrybG_4core3ptr13drop_in_placeINtNtB4_6result6ResultNtNtCscwCr4GBBztI_3syn4expr8ExprPathNtNtB16_5error5ErrorEECs3tyqko2rdGU_12serde_derive, symObjAddr: 0xDE8, symBinAddr: 0x6A39C, symSize: 0x5C }
  - { offset: 0xC9ED7, size: 0x8, addend: 0x0, symName: __RINvNtCs85QQFkKrybG_4core3ptr13drop_in_placeINtNtB4_6result6ResultuNtNtCscwCr4GBBztI_3syn5error5ErrorEECs3tyqko2rdGU_12serde_derive, symObjAddr: 0xE44, symBinAddr: 0x6A3F8, symSize: 0x48 }
  - { offset: 0xC9F06, size: 0x8, addend: 0x0, symName: __RINvNtCs85QQFkKrybG_4core3ptr13drop_in_placeINtNtCscwCr4GBBztI_3syn10punctuated4IterNtNtBL_2ty4TypeEECs3tyqko2rdGU_12serde_derive, symObjAddr: 0xE8C, symBinAddr: 0x6A440, symSize: 0x24 }
  - { offset: 0xC9F35, size: 0x8, addend: 0x0, symName: __RINvNtCs85QQFkKrybG_4core3ptr13drop_in_placeINtNtCscwCr4GBBztI_3syn10punctuated4IterNtNtBL_2ty9BareFnArgEECs3tyqko2rdGU_12serde_derive, symObjAddr: 0xEB0, symBinAddr: 0x6A464, symSize: 0x24 }
  - { offset: 0xC9F64, size: 0x8, addend: 0x0, symName: __RINvNtCs85QQFkKrybG_4core3ptr13drop_in_placeINtNtCscwCr4GBBztI_3syn10punctuated4IterNtNtBL_4data5FieldEECs3tyqko2rdGU_12serde_derive, symObjAddr: 0xED4, symBinAddr: 0x6A488, symSize: 0x24 }
  - { offset: 0xC9F93, size: 0x8, addend: 0x0, symName: __RINvNtCs85QQFkKrybG_4core3ptr13drop_in_placeINtNtCscwCr4GBBztI_3syn10punctuated4IterNtNtBL_4data7VariantEECs3tyqko2rdGU_12serde_derive, symObjAddr: 0xEF8, symBinAddr: 0x6A4AC, symSize: 0x24 }
  - { offset: 0xC9FC2, size: 0x8, addend: 0x0, symName: __RINvNtCs85QQFkKrybG_4core3ptr13drop_in_placeINtNtCscwCr4GBBztI_3syn10punctuated4IterNtNtBL_4path15GenericArgumentEECs3tyqko2rdGU_12serde_derive, symObjAddr: 0xF1C, symBinAddr: 0x6A4D0, symSize: 0x24 }
  - { offset: 0xC9FF1, size: 0x8, addend: 0x0, symName: __RINvNtCs85QQFkKrybG_4core3ptr13drop_in_placeINtNtCscwCr4GBBztI_3syn10punctuated4IterNtNtBL_8generics12GenericParamEECs3tyqko2rdGU_12serde_derive, symObjAddr: 0xF40, symBinAddr: 0x6A4F4, symSize: 0x24 }
  - { offset: 0xCA020, size: 0x8, addend: 0x0, symName: __RINvNtCs85QQFkKrybG_4core3ptr13drop_in_placeINtNtCscwCr4GBBztI_3syn10punctuated7IterMutNtNtBL_2ty4TypeEECs3tyqko2rdGU_12serde_derive, symObjAddr: 0xF64, symBinAddr: 0x6A518, symSize: 0x24 }
  - { offset: 0xCA04F, size: 0x8, addend: 0x0, symName: __RINvNtCs85QQFkKrybG_4core3ptr13drop_in_placeINtNtCscwCr4GBBztI_3syn10punctuated7IterMutNtNtBL_2ty9BareFnArgEECs3tyqko2rdGU_12serde_derive, symObjAddr: 0xF88, symBinAddr: 0x6A53C, symSize: 0x24 }
  - { offset: 0xCA07E, size: 0x8, addend: 0x0, symName: __RINvNtCs85QQFkKrybG_4core3ptr13drop_in_placeINtNtCscwCr4GBBztI_3syn10punctuated7IterMutNtNtBL_4data5FieldEECs3tyqko2rdGU_12serde_derive, symObjAddr: 0xFAC, symBinAddr: 0x6A560, symSize: 0x24 }
  - { offset: 0xCA0AD, size: 0x8, addend: 0x0, symName: __RINvNtCs85QQFkKrybG_4core3ptr13drop_in_placeINtNtCscwCr4GBBztI_3syn10punctuated7IterMutNtNtBL_4data7VariantEECs3tyqko2rdGU_12serde_derive, symObjAddr: 0xFD0, symBinAddr: 0x6A584, symSize: 0x24 }
  - { offset: 0xCA0DC, size: 0x8, addend: 0x0, symName: __RINvNtCs85QQFkKrybG_4core3ptr13drop_in_placeINtNtCscwCr4GBBztI_3syn10punctuated7IterMutNtNtBL_4expr4ExprEECs3tyqko2rdGU_12serde_derive, symObjAddr: 0xFF4, symBinAddr: 0x6A5A8, symSize: 0x24 }
  - { offset: 0xCA10B, size: 0x8, addend: 0x0, symName: __RINvNtCs85QQFkKrybG_4core3ptr13drop_in_placeINtNtCscwCr4GBBztI_3syn10punctuated7IterMutNtNtBL_4path15GenericArgumentEECs3tyqko2rdGU_12serde_derive, symObjAddr: 0x1018, symBinAddr: 0x6A5CC, symSize: 0x24 }
  - { offset: 0xCA13A, size: 0x8, addend: 0x0, symName: __RINvNtCs85QQFkKrybG_4core3ptr13drop_in_placeINtNtCscwCr4GBBztI_3syn10punctuated7IterMutNtNtBL_8generics12GenericParamEECs3tyqko2rdGU_12serde_derive, symObjAddr: 0x103C, symBinAddr: 0x6A5F0, symSize: 0x24 }
  - { offset: 0xCA169, size: 0x8, addend: 0x0, symName: __RINvNtCs85QQFkKrybG_4core3ptr13drop_in_placeINtNtCscwCr4GBBztI_3syn10punctuated7IterMutNtNtBL_8generics14TypeParamBoundEECs3tyqko2rdGU_12serde_derive, symObjAddr: 0x1060, symBinAddr: 0x6A614, symSize: 0x24 }
  - { offset: 0xCA198, size: 0x8, addend: 0x0, symName: __RINvNtCs85QQFkKrybG_4core3ptr13drop_in_placeINtNtCscwCr4GBBztI_3syn10punctuated7IterMutNtNtBL_8generics14WherePredicateEECs3tyqko2rdGU_12serde_derive, symObjAddr: 0x1084, symBinAddr: 0x6A638, symSize: 0x24 }
  - { offset: 0xCA1C7, size: 0x8, addend: 0x0, symName: __RINvNtCs85QQFkKrybG_4core3ptr13drop_in_placeINtNtCscwCr4GBBztI_3syn10punctuated8IntoIterNtNtBL_8generics12GenericParamEECs3tyqko2rdGU_12serde_derive, symObjAddr: 0x10A8, symBinAddr: 0x6A65C, symSize: 0x24 }
  - { offset: 0xCA1F6, size: 0x8, addend: 0x0, symName: __RINvNtCs85QQFkKrybG_4core3ptr13drop_in_placeINtNtCscwCr4GBBztI_3syn10punctuated8IntoIterNtNtBL_8generics14WherePredicateEECs3tyqko2rdGU_12serde_derive, symObjAddr: 0x10CC, symBinAddr: 0x6A680, symSize: 0x24 }
  - { offset: 0xCA225, size: 0x8, addend: 0x0, symName: __RINvNtCs85QQFkKrybG_4core3ptr13drop_in_placeINtNtCsdFlNUEO95cG_5alloc3vec3VecIBH_NtNtCscwCr4GBBztI_3syn8generics14WherePredicateEEECs3tyqko2rdGU_12serde_derive, symObjAddr: 0x10F0, symBinAddr: 0x6A6A4, symSize: 0x5C }
  - { offset: 0xCA254, size: 0x8, addend: 0x0, symName: __RINvNtCs85QQFkKrybG_4core3ptr13drop_in_placeINtNtCsdFlNUEO95cG_5alloc3vec3VecNtCsfwj6t2KTYdc_11proc_macro211TokenStreamEECs3tyqko2rdGU_12serde_derive, symObjAddr: 0x114C, symBinAddr: 0x6A700, symSize: 0x5C }
  - { offset: 0xCA283, size: 0x8, addend: 0x0, symName: __RINvNtCs85QQFkKrybG_4core3ptr13drop_in_placeINtNtCsdFlNUEO95cG_5alloc3vec3VecNtCsfwj6t2KTYdc_11proc_macro25IdentEECs3tyqko2rdGU_12serde_derive, symObjAddr: 0x11A8, symBinAddr: 0x6A75C, symSize: 0x5C }
  - { offset: 0xCA2B2, size: 0x8, addend: 0x0, symName: __RINvNtCs85QQFkKrybG_4core3ptr13drop_in_placeINtNtCsdFlNUEO95cG_5alloc3vec3VecNtNtCs3tyqko2rdGU_12serde_derive2de16FieldWithAliasesEEB1h_, symObjAddr: 0x1204, symBinAddr: 0x6A7B8, symSize: 0x5C }
  - { offset: 0xCA2E1, size: 0x8, addend: 0x0, symName: __RINvNtCs85QQFkKrybG_4core3ptr13drop_in_placeINtNtCsdFlNUEO95cG_5alloc3vec3VecNtNtCscwCr4GBBztI_3syn3lit6LitStrEECs3tyqko2rdGU_12serde_derive, symObjAddr: 0x1260, symBinAddr: 0x6A814, symSize: 0x5C }
  - { offset: 0xCA310, size: 0x8, addend: 0x0, symName: __RINvNtCs85QQFkKrybG_4core3ptr13drop_in_placeINtNtCsdFlNUEO95cG_5alloc3vec3VecNtNtCscwCr4GBBztI_3syn4expr6MemberEECs3tyqko2rdGU_12serde_derive, symObjAddr: 0x12BC, symBinAddr: 0x6A870, symSize: 0x5C }
  - { offset: 0xCA33F, size: 0x8, addend: 0x0, symName: __RINvNtCs85QQFkKrybG_4core3ptr13drop_in_placeINtNtCsdFlNUEO95cG_5alloc3vec3VecNtNtCscwCr4GBBztI_3syn5error5ErrorEECs3tyqko2rdGU_12serde_derive, symObjAddr: 0x1318, symBinAddr: 0x6A8CC, symSize: 0x5C }
  - { offset: 0xCA36E, size: 0x8, addend: 0x0, symName: __RINvNtCs85QQFkKrybG_4core3ptr13drop_in_placeINtNtCsdFlNUEO95cG_5alloc3vec3VecNtNtCscwCr4GBBztI_3syn8generics12GenericParamEECs3tyqko2rdGU_12serde_derive, symObjAddr: 0x1374, symBinAddr: 0x6A928, symSize: 0x5C }
  - { offset: 0xCA39D, size: 0x8, addend: 0x0, symName: __RINvNtCs85QQFkKrybG_4core3ptr13drop_in_placeINtNtCsdFlNUEO95cG_5alloc3vec3VecNtNtCscwCr4GBBztI_3syn8generics14WherePredicateEECs3tyqko2rdGU_12serde_derive, symObjAddr: 0x13D0, symBinAddr: 0x6A984, symSize: 0x5C }
  - { offset: 0xCA3CC, size: 0x8, addend: 0x0, symName: __RINvNtCs85QQFkKrybG_4core3ptr13drop_in_placeINtNtCsdFlNUEO95cG_5alloc3vec3VecNtNtNtCs3tyqko2rdGU_12serde_derive9internals3ast5FieldEEB1j_, symObjAddr: 0x142C, symBinAddr: 0x6A9E0, symSize: 0x5C }
  - { offset: 0xCA3FB, size: 0x8, addend: 0x0, symName: __RINvNtCs85QQFkKrybG_4core3ptr13drop_in_placeINtNtCsdFlNUEO95cG_5alloc3vec3VecNtNtNtCs3tyqko2rdGU_12serde_derive9internals3ast7VariantEEB1j_, symObjAddr: 0x1488, symBinAddr: 0x6AA3C, symSize: 0x5C }
  - { offset: 0xCA42A, size: 0x8, addend: 0x0, symName: __RINvNtCs85QQFkKrybG_4core3ptr13drop_in_placeINtNtCsdFlNUEO95cG_5alloc3vec3VecNtNtNtCs3tyqko2rdGU_12serde_derive9internals4name4NameEEB1j_, symObjAddr: 0x14E4, symBinAddr: 0x6AA98, symSize: 0x5C }
  - { offset: 0xCA459, size: 0x8, addend: 0x0, symName: __RINvNtCs85QQFkKrybG_4core3ptr13drop_in_placeINtNtCsdFlNUEO95cG_5alloc3vec3VecRNtCsfwj6t2KTYdc_11proc_macro25IdentEECs3tyqko2rdGU_12serde_derive, symObjAddr: 0x1540, symBinAddr: 0x6AAF4, symSize: 0x5C }
  - { offset: 0xCA488, size: 0x8, addend: 0x0, symName: __RINvNtCs85QQFkKrybG_4core3ptr13drop_in_placeINtNtCsdFlNUEO95cG_5alloc3vec3VecRNtNtCscwCr4GBBztI_3syn2ty4TypeEECs3tyqko2rdGU_12serde_derive, symObjAddr: 0x159C, symBinAddr: 0x6AB50, symSize: 0x5C }
  - { offset: 0xCA4B7, size: 0x8, addend: 0x0, symName: __RINvNtCs85QQFkKrybG_4core3ptr13drop_in_placeINtNtCsdFlNUEO95cG_5alloc3vec3VecRNtNtCscwCr4GBBztI_3syn2ty8TypePathEECs3tyqko2rdGU_12serde_derive, symObjAddr: 0x15F8, symBinAddr: 0x6ABAC, symSize: 0x5C }
  - { offset: 0xCA4E6, size: 0x8, addend: 0x0, symName: __RINvNtCs85QQFkKrybG_4core3ptr13drop_in_placeINtNtCsdFlNUEO95cG_5alloc3vec3VecRNtNtCscwCr4GBBztI_3syn4expr6MemberEECs3tyqko2rdGU_12serde_derive, symObjAddr: 0x1654, symBinAddr: 0x6AC08, symSize: 0x5C }
  - { offset: 0xCA515, size: 0x8, addend: 0x0, symName: __RINvNtCs85QQFkKrybG_4core3ptr13drop_in_placeINtNtCsdFlNUEO95cG_5alloc3vec3VecTRNtNtNtCs3tyqko2rdGU_12serde_derive9internals3ast5FieldNtCsfwj6t2KTYdc_11proc_macro25IdentEEEB1l_, symObjAddr: 0x16B0, symBinAddr: 0x6AC64, symSize: 0x5C }
  - { offset: 0xCA544, size: 0x8, addend: 0x0, symName: __RINvNtCs85QQFkKrybG_4core3ptr13drop_in_placeINtNtCsdFlNUEO95cG_5alloc5boxed3BoxDNtNtB4_5error5ErrorNtNtB4_6marker4SyncNtB1B_4SendEL_EECs3tyqko2rdGU_12serde_derive, symObjAddr: 0x170C, symBinAddr: 0x6ACC0, symSize: 0x80 }
  - { offset: 0xCA573, size: 0x8, addend: 0x0, symName: __RINvNtCs85QQFkKrybG_4core3ptr13drop_in_placeINtNtCsdFlNUEO95cG_5alloc5boxed3BoxDNtNtNtNtB4_4iter6traits8iterator8Iteratorp4ItemRNtNtNtCs3tyqko2rdGU_12serde_derive9internals3ast5FieldEL_EEB28_, symObjAddr: 0x178C, symBinAddr: 0x6AD40, symSize: 0x80 }
  - { offset: 0xCA5A2, size: 0x8, addend: 0x0, symName: __RINvNtCs85QQFkKrybG_4core3ptr13drop_in_placeINtNtCsdFlNUEO95cG_5alloc5boxed3BoxINtNtCscwCr4GBBztI_3syn5drops6NoDropDINtNtB1k_10punctuated12IterMutTraitNtNtB1k_2ty4TypeEp4ItemQB2p_EL_EEECs3tyqko2rdGU_12serde_derive, symObjAddr: 0x180C, symBinAddr: 0x6ADC0, symSize: 0x2C }
  - { offset: 0xCA5D1, size: 0x8, addend: 0x0, symName: __RINvNtCs85QQFkKrybG_4core3ptr13drop_in_placeINtNtCsdFlNUEO95cG_5alloc5boxed3BoxINtNtCscwCr4GBBztI_3syn5drops6NoDropDINtNtB1k_10punctuated12IterMutTraitNtNtB1k_2ty9BareFnArgEp4ItemQB2p_EL_EEECs3tyqko2rdGU_12serde_derive, symObjAddr: 0x1838, symBinAddr: 0x6ADEC, symSize: 0x2C }
  - { offset: 0xCA600, size: 0x8, addend: 0x0, symName: __RINvNtCs85QQFkKrybG_4core3ptr13drop_in_placeINtNtCsdFlNUEO95cG_5alloc5boxed3BoxINtNtCscwCr4GBBztI_3syn5drops6NoDropDINtNtB1k_10punctuated12IterMutTraitNtNtB1k_4data5FieldEp4ItemQB2p_EL_EEECs3tyqko2rdGU_12serde_derive, symObjAddr: 0x1864, symBinAddr: 0x6AE18, symSize: 0x2C }
  - { offset: 0xCA62F, size: 0x8, addend: 0x0, symName: __RINvNtCs85QQFkKrybG_4core3ptr13drop_in_placeINtNtCsdFlNUEO95cG_5alloc5boxed3BoxINtNtCscwCr4GBBztI_3syn5drops6NoDropDINtNtB1k_10punctuated12IterMutTraitNtNtB1k_4data7VariantEp4ItemQB2p_EL_EEECs3tyqko2rdGU_12serde_derive, symObjAddr: 0x1890, symBinAddr: 0x6AE44, symSize: 0x2C }
  - { offset: 0xCA65E, size: 0x8, addend: 0x0, symName: __RINvNtCs85QQFkKrybG_4core3ptr13drop_in_placeINtNtCsdFlNUEO95cG_5alloc5boxed3BoxINtNtCscwCr4GBBztI_3syn5drops6NoDropDINtNtB1k_10punctuated12IterMutTraitNtNtB1k_4expr4ExprEp4ItemQB2p_EL_EEECs3tyqko2rdGU_12serde_derive, symObjAddr: 0x18BC, symBinAddr: 0x6AE70, symSize: 0x2C }
  - { offset: 0xCA68D, size: 0x8, addend: 0x0, symName: __RINvNtCs85QQFkKrybG_4core3ptr13drop_in_placeINtNtCsdFlNUEO95cG_5alloc5boxed3BoxINtNtCscwCr4GBBztI_3syn5drops6NoDropDINtNtB1k_10punctuated12IterMutTraitNtNtB1k_4path15GenericArgumentEp4ItemQB2p_EL_EEECs3tyqko2rdGU_12serde_derive, symObjAddr: 0x18E8, symBinAddr: 0x6AE9C, symSize: 0x2C }
  - { offset: 0xCA6BC, size: 0x8, addend: 0x0, symName: __RINvNtCs85QQFkKrybG_4core3ptr13drop_in_placeINtNtCsdFlNUEO95cG_5alloc5boxed3BoxINtNtCscwCr4GBBztI_3syn5drops6NoDropDINtNtB1k_10punctuated12IterMutTraitNtNtB1k_8generics12GenericParamEp4ItemQB2p_EL_EEECs3tyqko2rdGU_12serde_derive, symObjAddr: 0x1914, symBinAddr: 0x6AEC8, symSize: 0x2C }
  - { offset: 0xCA6EB, size: 0x8, addend: 0x0, symName: __RINvNtCs85QQFkKrybG_4core3ptr13drop_in_placeINtNtCsdFlNUEO95cG_5alloc5boxed3BoxINtNtCscwCr4GBBztI_3syn5drops6NoDropDINtNtB1k_10punctuated12IterMutTraitNtNtB1k_8generics14TypeParamBoundEp4ItemQB2p_EL_EEECs3tyqko2rdGU_12serde_derive, symObjAddr: 0x1940, symBinAddr: 0x6AEF4, symSize: 0x2C }
  - { offset: 0xCA71A, size: 0x8, addend: 0x0, symName: __RINvNtCs85QQFkKrybG_4core3ptr13drop_in_placeINtNtCsdFlNUEO95cG_5alloc5boxed3BoxINtNtCscwCr4GBBztI_3syn5drops6NoDropDINtNtB1k_10punctuated12IterMutTraitNtNtB1k_8generics14WherePredicateEp4ItemQB2p_EL_EEECs3tyqko2rdGU_12serde_derive, symObjAddr: 0x196C, symBinAddr: 0x6AF20, symSize: 0x2C }
  - { offset: 0xCA749, size: 0x8, addend: 0x0, symName: __RINvNtCs85QQFkKrybG_4core3ptr13drop_in_placeINtNtCsdFlNUEO95cG_5alloc5boxed3BoxINtNtCscwCr4GBBztI_3syn5drops6NoDropDINtNtB1k_10punctuated9IterTraitNtNtB1k_2ty4TypeEp4ItemRB2l_EL_EEECs3tyqko2rdGU_12serde_derive, symObjAddr: 0x1998, symBinAddr: 0x6AF4C, symSize: 0x2C }
  - { offset: 0xCA778, size: 0x8, addend: 0x0, symName: __RINvNtCs85QQFkKrybG_4core3ptr13drop_in_placeINtNtCsdFlNUEO95cG_5alloc5boxed3BoxINtNtCscwCr4GBBztI_3syn5drops6NoDropDINtNtB1k_10punctuated9IterTraitNtNtB1k_2ty9BareFnArgEp4ItemRB2l_EL_EEECs3tyqko2rdGU_12serde_derive, symObjAddr: 0x19C4, symBinAddr: 0x6AF78, symSize: 0x2C }
  - { offset: 0xCA7A7, size: 0x8, addend: 0x0, symName: __RINvNtCs85QQFkKrybG_4core3ptr13drop_in_placeINtNtCsdFlNUEO95cG_5alloc5boxed3BoxINtNtCscwCr4GBBztI_3syn5drops6NoDropDINtNtB1k_10punctuated9IterTraitNtNtB1k_4data5FieldEp4ItemRB2l_EL_EEECs3tyqko2rdGU_12serde_derive, symObjAddr: 0x19F0, symBinAddr: 0x6AFA4, symSize: 0x2C }
  - { offset: 0xCA7D6, size: 0x8, addend: 0x0, symName: __RINvNtCs85QQFkKrybG_4core3ptr13drop_in_placeINtNtCsdFlNUEO95cG_5alloc5boxed3BoxINtNtCscwCr4GBBztI_3syn5drops6NoDropDINtNtB1k_10punctuated9IterTraitNtNtB1k_4data7VariantEp4ItemRB2l_EL_EEECs3tyqko2rdGU_12serde_derive, symObjAddr: 0x1A1C, symBinAddr: 0x6AFD0, symSize: 0x2C }
  - { offset: 0xCA805, size: 0x8, addend: 0x0, symName: __RINvNtCs85QQFkKrybG_4core3ptr13drop_in_placeINtNtCsdFlNUEO95cG_5alloc5boxed3BoxINtNtCscwCr4GBBztI_3syn5drops6NoDropDINtNtB1k_10punctuated9IterTraitNtNtB1k_4path15GenericArgumentEp4ItemRB2l_EL_EEECs3tyqko2rdGU_12serde_derive, symObjAddr: 0x1A48, symBinAddr: 0x6AFFC, symSize: 0x2C }
  - { offset: 0xCA834, size: 0x8, addend: 0x0, symName: __RINvNtCs85QQFkKrybG_4core3ptr13drop_in_placeINtNtCsdFlNUEO95cG_5alloc5boxed3BoxINtNtCscwCr4GBBztI_3syn5drops6NoDropDINtNtB1k_10punctuated9IterTraitNtNtB1k_8generics12GenericParamEp4ItemRB2l_EL_EEECs3tyqko2rdGU_12serde_derive, symObjAddr: 0x1A74, symBinAddr: 0x6B028, symSize: 0x2C }
  - { offset: 0xCA863, size: 0x8, addend: 0x0, symName: __RINvNtCs85QQFkKrybG_4core3ptr13drop_in_placeINtNtCsdFlNUEO95cG_5alloc5boxed3BoxINtNtNtNtBL_11collections5btree4node12InternalNodeNtNtCscwCr4GBBztI_3syn8lifetime8LifetimeNtNtB1k_7set_val9SetValZSTEEECs3tyqko2rdGU_12serde_derive, symObjAddr: 0x1AA0, symBinAddr: 0x6B054, symSize: 0x2C }
  - { offset: 0xCA892, size: 0x8, addend: 0x0, symName: __RINvNtCs85QQFkKrybG_4core3ptr13drop_in_placeINtNtCsdFlNUEO95cG_5alloc5boxed3BoxINtNtNtNtBL_11collections5btree4node12InternalNodeNtNtNtCs3tyqko2rdGU_12serde_derive9internals4name4NameNtNtB1k_7set_val9SetValZSTEEEB29_, symObjAddr: 0x1ACC, symBinAddr: 0x6B080, symSize: 0x2C }
  - { offset: 0xCA8C1, size: 0x8, addend: 0x0, symName: __RINvNtCs85QQFkKrybG_4core3ptr13drop_in_placeINtNtCsdFlNUEO95cG_5alloc5boxed3BoxINtNtNtNtBL_11collections5btree4node8LeafNodeNtNtCscwCr4GBBztI_3syn8lifetime8LifetimeNtNtB1k_7set_val9SetValZSTEEECs3tyqko2rdGU_12serde_derive, symObjAddr: 0x1AF8, symBinAddr: 0x6B0AC, symSize: 0x2C }
  - { offset: 0xCA8F0, size: 0x8, addend: 0x0, symName: __RINvNtCs85QQFkKrybG_4core3ptr13drop_in_placeINtNtCsdFlNUEO95cG_5alloc5boxed3BoxINtNtNtNtBL_11collections5btree4node8LeafNodeNtNtNtCs3tyqko2rdGU_12serde_derive9internals4name4NameNtNtB1k_7set_val9SetValZSTEEEB24_, symObjAddr: 0x1B24, symBinAddr: 0x6B0D8, symSize: 0x2C }
  - { offset: 0xCA91F, size: 0x8, addend: 0x0, symName: __RINvNtCs85QQFkKrybG_4core3ptr13drop_in_placeINtNtCsdFlNUEO95cG_5alloc5boxed3BoxNtNtNtCswz7ZwgBZOU_3std2io5error6CustomEECs3tyqko2rdGU_12serde_derive, symObjAddr: 0x1B50, symBinAddr: 0x6B104, symSize: 0x60 }
  - { offset: 0xCA94E, size: 0x8, addend: 0x0, symName: __RINvNtCs85QQFkKrybG_4core3ptr13drop_in_placeINtNtCsdFlNUEO95cG_5alloc7raw_vec6RawVecINtNtBL_3vec3VecNtNtCscwCr4GBBztI_3syn8generics14WherePredicateEEECs3tyqko2rdGU_12serde_derive, symObjAddr: 0x1BB0, symBinAddr: 0x6B164, symSize: 0x24 }
  - { offset: 0xCA97D, size: 0x8, addend: 0x0, symName: __RINvNtCs85QQFkKrybG_4core3ptr13drop_in_placeINtNtCsdFlNUEO95cG_5alloc7raw_vec6RawVecNtCsfwj6t2KTYdc_11proc_macro211TokenStreamEECs3tyqko2rdGU_12serde_derive, symObjAddr: 0x1BD4, symBinAddr: 0x6B188, symSize: 0x24 }
  - { offset: 0xCA9AC, size: 0x8, addend: 0x0, symName: __RINvNtCs85QQFkKrybG_4core3ptr13drop_in_placeINtNtCsdFlNUEO95cG_5alloc7raw_vec6RawVecNtCsfwj6t2KTYdc_11proc_macro25IdentEECs3tyqko2rdGU_12serde_derive, symObjAddr: 0x1BF8, symBinAddr: 0x6B1AC, symSize: 0x24 }
  - { offset: 0xCA9DB, size: 0x8, addend: 0x0, symName: __RINvNtCs85QQFkKrybG_4core3ptr13drop_in_placeINtNtCsdFlNUEO95cG_5alloc7raw_vec6RawVecNtNtCs3tyqko2rdGU_12serde_derive2de16FieldWithAliasesEEB1o_, symObjAddr: 0x1C1C, symBinAddr: 0x6B1D0, symSize: 0x24 }
  - { offset: 0xCAA0A, size: 0x8, addend: 0x0, symName: __RINvNtCs85QQFkKrybG_4core3ptr13drop_in_placeINtNtCsdFlNUEO95cG_5alloc7raw_vec6RawVecNtNtCscwCr4GBBztI_3syn3lit6LitStrEECs3tyqko2rdGU_12serde_derive, symObjAddr: 0x1C40, symBinAddr: 0x6B1F4, symSize: 0x24 }
  - { offset: 0xCAA39, size: 0x8, addend: 0x0, symName: __RINvNtCs85QQFkKrybG_4core3ptr13drop_in_placeINtNtCsdFlNUEO95cG_5alloc7raw_vec6RawVecNtNtCscwCr4GBBztI_3syn4expr6MemberEECs3tyqko2rdGU_12serde_derive, symObjAddr: 0x1C64, symBinAddr: 0x6B218, symSize: 0x24 }
  - { offset: 0xCAA68, size: 0x8, addend: 0x0, symName: __RINvNtCs85QQFkKrybG_4core3ptr13drop_in_placeINtNtCsdFlNUEO95cG_5alloc7raw_vec6RawVecNtNtCscwCr4GBBztI_3syn4path11PathSegmentEECs3tyqko2rdGU_12serde_derive, symObjAddr: 0x1C88, symBinAddr: 0x6B23C, symSize: 0x24 }
  - { offset: 0xCAA97, size: 0x8, addend: 0x0, symName: __RINvNtCs85QQFkKrybG_4core3ptr13drop_in_placeINtNtCsdFlNUEO95cG_5alloc7raw_vec6RawVecNtNtCscwCr4GBBztI_3syn5error5ErrorEECs3tyqko2rdGU_12serde_derive, symObjAddr: 0x1CAC, symBinAddr: 0x6B260, symSize: 0x24 }
  - { offset: 0xCAAC6, size: 0x8, addend: 0x0, symName: __RINvNtCs85QQFkKrybG_4core3ptr13drop_in_placeINtNtCsdFlNUEO95cG_5alloc7raw_vec6RawVecNtNtCscwCr4GBBztI_3syn8generics12GenericParamEECs3tyqko2rdGU_12serde_derive, symObjAddr: 0x1CD0, symBinAddr: 0x6B284, symSize: 0x24 }
  - { offset: 0xCAAF5, size: 0x8, addend: 0x0, symName: __RINvNtCs85QQFkKrybG_4core3ptr13drop_in_placeINtNtCsdFlNUEO95cG_5alloc7raw_vec6RawVecNtNtCscwCr4GBBztI_3syn8generics14WherePredicateEECs3tyqko2rdGU_12serde_derive, symObjAddr: 0x1CF4, symBinAddr: 0x6B2A8, symSize: 0x24 }
  - { offset: 0xCAB24, size: 0x8, addend: 0x0, symName: __RINvNtCs85QQFkKrybG_4core3ptr13drop_in_placeINtNtCsdFlNUEO95cG_5alloc7raw_vec6RawVecNtNtNtCs3tyqko2rdGU_12serde_derive9internals3ast5FieldEEB1q_, symObjAddr: 0x1D18, symBinAddr: 0x6B2CC, symSize: 0x24 }
  - { offset: 0xCAB53, size: 0x8, addend: 0x0, symName: __RINvNtCs85QQFkKrybG_4core3ptr13drop_in_placeINtNtCsdFlNUEO95cG_5alloc7raw_vec6RawVecNtNtNtCs3tyqko2rdGU_12serde_derive9internals3ast7VariantEEB1q_, symObjAddr: 0x1D3C, symBinAddr: 0x6B2F0, symSize: 0x24 }
  - { offset: 0xCAB82, size: 0x8, addend: 0x0, symName: __RINvNtCs85QQFkKrybG_4core3ptr13drop_in_placeINtNtCsdFlNUEO95cG_5alloc7raw_vec6RawVecNtNtNtCs3tyqko2rdGU_12serde_derive9internals4name4NameEEB1q_, symObjAddr: 0x1D60, symBinAddr: 0x6B314, symSize: 0x24 }
  - { offset: 0xCABB1, size: 0x8, addend: 0x0, symName: __RINvNtCs85QQFkKrybG_4core3ptr13drop_in_placeINtNtCsdFlNUEO95cG_5alloc7raw_vec6RawVecRNtCsfwj6t2KTYdc_11proc_macro25IdentEECs3tyqko2rdGU_12serde_derive, symObjAddr: 0x1D84, symBinAddr: 0x6B338, symSize: 0x24 }
  - { offset: 0xCABE0, size: 0x8, addend: 0x0, symName: __RINvNtCs85QQFkKrybG_4core3ptr13drop_in_placeINtNtCsdFlNUEO95cG_5alloc7raw_vec6RawVecRNtNtCscwCr4GBBztI_3syn2ty4TypeEECs3tyqko2rdGU_12serde_derive, symObjAddr: 0x1DA8, symBinAddr: 0x6B35C, symSize: 0x24 }
  - { offset: 0xCAC0F, size: 0x8, addend: 0x0, symName: __RINvNtCs85QQFkKrybG_4core3ptr13drop_in_placeINtNtCsdFlNUEO95cG_5alloc7raw_vec6RawVecRNtNtCscwCr4GBBztI_3syn2ty8TypePathEECs3tyqko2rdGU_12serde_derive, symObjAddr: 0x1DCC, symBinAddr: 0x6B380, symSize: 0x24 }
  - { offset: 0xCAC3E, size: 0x8, addend: 0x0, symName: __RINvNtCs85QQFkKrybG_4core3ptr13drop_in_placeINtNtCsdFlNUEO95cG_5alloc7raw_vec6RawVecRNtNtCscwCr4GBBztI_3syn4expr6MemberEECs3tyqko2rdGU_12serde_derive, symObjAddr: 0x1DF0, symBinAddr: 0x6B3A4, symSize: 0x24 }
  - { offset: 0xCAC6D, size: 0x8, addend: 0x0, symName: __RINvNtCs85QQFkKrybG_4core3ptr13drop_in_placeINtNtCsdFlNUEO95cG_5alloc7raw_vec6RawVecTRNtNtNtCs3tyqko2rdGU_12serde_derive9internals3ast5FieldNtCsfwj6t2KTYdc_11proc_macro25IdentEEEB1s_, symObjAddr: 0x1E14, symBinAddr: 0x6B3C8, symSize: 0x24 }
  - { offset: 0xCAC9C, size: 0x8, addend: 0x0, symName: __RINvNtCs85QQFkKrybG_4core3ptr13drop_in_placeINtNtCsfieuf5LernF_9hashbrown10scopeguard10ScopeGuardNtNtBL_3raw13RawTableInnerNCINvMsa_B1z_B1x_14prepare_resizeNtNtCsdFlNUEO95cG_5alloc5alloc6GlobalE0EECs3tyqko2rdGU_12serde_derive, symObjAddr: 0x1E38, symBinAddr: 0x6B3EC, symSize: 0x24 }
  - { offset: 0xCACCB, size: 0x8, addend: 0x0, symName: __RINvNtCs85QQFkKrybG_4core3ptr13drop_in_placeINtNtCsfieuf5LernF_9hashbrown10scopeguard10ScopeGuardQNtNtBL_3raw13RawTableInnerNCNvMsa_B1A_B1y_15rehash_in_place0EECs3tyqko2rdGU_12serde_derive, symObjAddr: 0x1E5C, symBinAddr: 0x6B410, symSize: 0x24 }
  - { offset: 0xCACFA, size: 0x8, addend: 0x0, symName: __RINvNtCs85QQFkKrybG_4core3ptr13drop_in_placeINtNtCsfieuf5LernF_9hashbrown3map7HashMapNtCsfwj6t2KTYdc_11proc_macro25IdentuNtNtNtCswz7ZwgBZOU_3std4hash6random11RandomStateEECs3tyqko2rdGU_12serde_derive, symObjAddr: 0x1E80, symBinAddr: 0x6B434, symSize: 0x24 }
  - { offset: 0xCAD29, size: 0x8, addend: 0x0, symName: __RINvNtCs85QQFkKrybG_4core3ptr13drop_in_placeINtNtCsfieuf5LernF_9hashbrown3raw8RawTableTNtCsfwj6t2KTYdc_11proc_macro25IdentuEEECs3tyqko2rdGU_12serde_derive, symObjAddr: 0x1EA4, symBinAddr: 0x6B458, symSize: 0x24 }
  - { offset: 0xCAD58, size: 0x8, addend: 0x0, symName: __RINvNtCs85QQFkKrybG_4core3ptr13drop_in_placeINtNtCsfieuf5LernF_9hashbrown3set7HashSetNtCsfwj6t2KTYdc_11proc_macro25IdentNtNtNtCswz7ZwgBZOU_3std4hash6random11RandomStateEECs3tyqko2rdGU_12serde_derive, symObjAddr: 0x1EC8, symBinAddr: 0x6B47C, symSize: 0x24 }
  - { offset: 0xCAD87, size: 0x8, addend: 0x0, symName: __RINvNtCs85QQFkKrybG_4core3ptr13drop_in_placeINtNtCshi3DZH3dfhk_5quote9___private9RepInterpNtCsfwj6t2KTYdc_11proc_macro211TokenStreamEECs3tyqko2rdGU_12serde_derive, symObjAddr: 0x1EEC, symBinAddr: 0x6B4A0, symSize: 0x24 }
  - { offset: 0xCADB6, size: 0x8, addend: 0x0, symName: __RINvNtCs85QQFkKrybG_4core3ptr13drop_in_placeINtNtCshi3DZH3dfhk_5quote9___private9RepInterpNtCsfwj6t2KTYdc_11proc_macro25IdentEECs3tyqko2rdGU_12serde_derive, symObjAddr: 0x1F10, symBinAddr: 0x6B4C4, symSize: 0x24 }
  - { offset: 0xCADE5, size: 0x8, addend: 0x0, symName: __RINvNtCs85QQFkKrybG_4core3ptr13drop_in_placeINtNtCshi3DZH3dfhk_5quote9___private9RepInterpNtCsfwj6t2KTYdc_11proc_macro27LiteralEECs3tyqko2rdGU_12serde_derive, symObjAddr: 0x1F34, symBinAddr: 0x6B4E8, symSize: 0x24 }
  - { offset: 0xCAE14, size: 0x8, addend: 0x0, symName: __RINvNtCs85QQFkKrybG_4core3ptr13drop_in_placeINtNtCshi3DZH3dfhk_5quote9___private9RepInterpNtNtCs3tyqko2rdGU_12serde_derive8fragment4ExprEEB1u_, symObjAddr: 0x1F58, symBinAddr: 0x6B50C, symSize: 0x24 }
  - { offset: 0xCAE43, size: 0x8, addend: 0x0, symName: __RINvNtCs85QQFkKrybG_4core3ptr13drop_in_placeINtNtCshi3DZH3dfhk_5quote9___private9RepInterpNtNtCscwCr4GBBztI_3syn4expr6MemberEECs3tyqko2rdGU_12serde_derive, symObjAddr: 0x1F7C, symBinAddr: 0x6B530, symSize: 0x24 }
  - { offset: 0xCAE72, size: 0x8, addend: 0x0, symName: __RINvNtCs85QQFkKrybG_4core3ptr13drop_in_placeINtNtNtB4_3ops12control_flow11ControlFlowNtCsfwj6t2KTYdc_11proc_macro211TokenStreamEECs3tyqko2rdGU_12serde_derive, symObjAddr: 0x1FA0, symBinAddr: 0x6B554, symSize: 0x48 }
  - { offset: 0xCAEA1, size: 0x8, addend: 0x0, symName: __RINvNtCs85QQFkKrybG_4core3ptr13drop_in_placeINtNtNtB4_3ops12control_flow11ControlFlowNtCsfwj6t2KTYdc_11proc_macro25IdentEECs3tyqko2rdGU_12serde_derive, symObjAddr: 0x1FE8, symBinAddr: 0x6B59C, symSize: 0x44 }
  - { offset: 0xCAED0, size: 0x8, addend: 0x0, symName: __RINvNtCs85QQFkKrybG_4core3ptr13drop_in_placeINtNtNtCs3tyqko2rdGU_12serde_derive9internals4attr4AttrINtNtCsdFlNUEO95cG_5alloc3vec3VecNtNtCscwCr4GBBztI_3syn8generics14WherePredicateEEEBN_, symObjAddr: 0x202C, symBinAddr: 0x6B5E0, symSize: 0x60 }
  - { offset: 0xCAEFF, size: 0x8, addend: 0x0, symName: __RINvNtCs85QQFkKrybG_4core3ptr13drop_in_placeINtNtNtCs3tyqko2rdGU_12serde_derive9internals4attr4AttrINtNtNtNtCsdFlNUEO95cG_5alloc11collections5btree3set8BTreeSetNtNtCscwCr4GBBztI_3syn8lifetime8LifetimeEEEBN_, symObjAddr: 0x208C, symBinAddr: 0x6B640, symSize: 0x5C }
  - { offset: 0xCAF2E, size: 0x8, addend: 0x0, symName: __RINvNtCs85QQFkKrybG_4core3ptr13drop_in_placeINtNtNtCs3tyqko2rdGU_12serde_derive9internals4attr4AttrNtBJ_15BorrowAttributeEEBN_, symObjAddr: 0x20E8, symBinAddr: 0x6B69C, symSize: 0x5C }
  - { offset: 0xCAF5D, size: 0x8, addend: 0x0, symName: __RINvNtCs85QQFkKrybG_4core3ptr13drop_in_placeINtNtNtCs3tyqko2rdGU_12serde_derive9internals4attr4AttrNtBJ_7DefaultEEBN_, symObjAddr: 0x2144, symBinAddr: 0x6B6F8, symSize: 0x60 }
  - { offset: 0xCAF8C, size: 0x8, addend: 0x0, symName: __RINvNtCs85QQFkKrybG_4core3ptr13drop_in_placeINtNtNtCs3tyqko2rdGU_12serde_derive9internals4attr4AttrNtNtBL_4case10RenameRuleEEBN_, symObjAddr: 0x21A4, symBinAddr: 0x6B758, symSize: 0x24 }
  - { offset: 0xCAFBB, size: 0x8, addend: 0x0, symName: __RINvNtCs85QQFkKrybG_4core3ptr13drop_in_placeINtNtNtCs3tyqko2rdGU_12serde_derive9internals4attr4AttrNtNtBL_4name4NameEEBN_, symObjAddr: 0x21C8, symBinAddr: 0x6B77C, symSize: 0x60 }
  - { offset: 0xCAFEA, size: 0x8, addend: 0x0, symName: __RINvNtCs85QQFkKrybG_4core3ptr13drop_in_placeINtNtNtCs3tyqko2rdGU_12serde_derive9internals4attr4AttrNtNtCscwCr4GBBztI_3syn2ty4TypeEEBN_, symObjAddr: 0x2228, symBinAddr: 0x6B7DC, symSize: 0x5C }
  - { offset: 0xCB019, size: 0x8, addend: 0x0, symName: __RINvNtCs85QQFkKrybG_4core3ptr13drop_in_placeINtNtNtCs3tyqko2rdGU_12serde_derive9internals4attr4AttrNtNtCscwCr4GBBztI_3syn4expr8ExprPathEEBN_, symObjAddr: 0x2284, symBinAddr: 0x6B838, symSize: 0x60 }
  - { offset: 0xCB048, size: 0x8, addend: 0x0, symName: __RINvNtCs85QQFkKrybG_4core3ptr13drop_in_placeINtNtNtCs3tyqko2rdGU_12serde_derive9internals4attr4AttrNtNtCscwCr4GBBztI_3syn4path4PathEEBN_, symObjAddr: 0x22E4, symBinAddr: 0x6B898, symSize: 0x60 }
  - { offset: 0xCB077, size: 0x8, addend: 0x0, symName: __RINvNtCs85QQFkKrybG_4core3ptr13drop_in_placeINtNtNtCs3tyqko2rdGU_12serde_derive9internals4attr4AttrNtNtCsdFlNUEO95cG_5alloc6string6StringEEBN_, symObjAddr: 0x2344, symBinAddr: 0x6B8F8, symSize: 0x60 }
  - { offset: 0xCB0A6, size: 0x8, addend: 0x0, symName: __RINvNtCs85QQFkKrybG_4core3ptr13drop_in_placeINtNtNtCs3tyqko2rdGU_12serde_derive9internals4attr4AttruEEBN_, symObjAddr: 0x23A4, symBinAddr: 0x6B958, symSize: 0x24 }
  - { offset: 0xCB0D5, size: 0x8, addend: 0x0, symName: __RINvNtCs85QQFkKrybG_4core3ptr13drop_in_placeINtNtNtCs3tyqko2rdGU_12serde_derive9internals4attr7VecAttrINtNtCsdFlNUEO95cG_5alloc3vec3VecNtNtCscwCr4GBBztI_3syn8generics14WherePredicateEEEBN_, symObjAddr: 0x23C8, symBinAddr: 0x6B97C, symSize: 0x5C }
  - { offset: 0xCB104, size: 0x8, addend: 0x0, symName: __RINvNtCs85QQFkKrybG_4core3ptr13drop_in_placeINtNtNtCs3tyqko2rdGU_12serde_derive9internals4attr7VecAttrNtNtBL_4name4NameEEBN_, symObjAddr: 0x2424, symBinAddr: 0x6B9D8, symSize: 0x5C }
  - { offset: 0xCB133, size: 0x8, addend: 0x0, symName: __RINvNtCs85QQFkKrybG_4core3ptr13drop_in_placeINtNtNtCs3tyqko2rdGU_12serde_derive9internals4attr7VecAttrNtNtCscwCr4GBBztI_3syn3lit6LitStrEEBN_, symObjAddr: 0x2480, symBinAddr: 0x6BA34, symSize: 0x5C }
  - { offset: 0xCB162, size: 0x8, addend: 0x0, symName: __RINvNtCs85QQFkKrybG_4core3ptr13drop_in_placeINtNtNtCsdFlNUEO95cG_5alloc3vec9into_iter8IntoIterNtNtCscwCr4GBBztI_3syn3lit6LitStrEECs3tyqko2rdGU_12serde_derive, symObjAddr: 0x24DC, symBinAddr: 0x6BA90, symSize: 0x24 }
  - { offset: 0xCB191, size: 0x8, addend: 0x0, symName: __RINvNtCs85QQFkKrybG_4core3ptr13drop_in_placeINtNtNtCsdFlNUEO95cG_5alloc3vec9into_iter8IntoIterNtNtCscwCr4GBBztI_3syn4path11PathSegmentEECs3tyqko2rdGU_12serde_derive, symObjAddr: 0x2500, symBinAddr: 0x6BAB4, symSize: 0x24 }
  - { offset: 0xCB1C0, size: 0x8, addend: 0x0, symName: __RINvNtCs85QQFkKrybG_4core3ptr13drop_in_placeINtNtNtCsdFlNUEO95cG_5alloc3vec9into_iter8IntoIterNtNtCscwCr4GBBztI_3syn5error5ErrorEECs3tyqko2rdGU_12serde_derive, symObjAddr: 0x2524, symBinAddr: 0x6BAD8, symSize: 0x24 }
  - { offset: 0xCB1EF, size: 0x8, addend: 0x0, symName: __RINvNtCs85QQFkKrybG_4core3ptr13drop_in_placeINtNtNtCsdFlNUEO95cG_5alloc3vec9into_iter8IntoIterNtNtCscwCr4GBBztI_3syn8generics12GenericParamEECs3tyqko2rdGU_12serde_derive, symObjAddr: 0x2548, symBinAddr: 0x6BAFC, symSize: 0x24 }
  - { offset: 0xCB21E, size: 0x8, addend: 0x0, symName: __RINvNtCs85QQFkKrybG_4core3ptr13drop_in_placeINtNtNtCsdFlNUEO95cG_5alloc3vec9into_iter8IntoIterNtNtCscwCr4GBBztI_3syn8generics14WherePredicateEECs3tyqko2rdGU_12serde_derive, symObjAddr: 0x256C, symBinAddr: 0x6BB20, symSize: 0x24 }
  - { offset: 0xCB24D, size: 0x8, addend: 0x0, symName: __RINvNtCs85QQFkKrybG_4core3ptr13drop_in_placeINtNtNtCsdFlNUEO95cG_5alloc3vec9into_iter8IntoIterNtNtNtCs3tyqko2rdGU_12serde_derive9internals4name4NameEEB1A_, symObjAddr: 0x2590, symBinAddr: 0x6BB44, symSize: 0x24 }
  - { offset: 0xCB27C, size: 0x8, addend: 0x0, symName: __RINvNtCs85QQFkKrybG_4core3ptr13drop_in_placeINtNtNtCsdFlNUEO95cG_5alloc3vec9into_iter8IntoIterRNtNtCscwCr4GBBztI_3syn2ty8TypePathEECs3tyqko2rdGU_12serde_derive, symObjAddr: 0x25B4, symBinAddr: 0x6BB68, symSize: 0x24 }
  - { offset: 0xCB2AB, size: 0x8, addend: 0x0, symName: __RINvNtCs85QQFkKrybG_4core3ptr13drop_in_placeINtNtNtCsdFlNUEO95cG_5alloc3vec9into_iter8IntoIterTNtNtCscwCr4GBBztI_3syn8generics12GenericParamNtNtB1z_5token5CommaEEECs3tyqko2rdGU_12serde_derive, symObjAddr: 0x25D8, symBinAddr: 0x6BB8C, symSize: 0x24 }
  - { offset: 0xCB2DA, size: 0x8, addend: 0x0, symName: __RINvNtCs85QQFkKrybG_4core3ptr13drop_in_placeINtNtNtCsdFlNUEO95cG_5alloc3vec9into_iter8IntoIterTNtNtCscwCr4GBBztI_3syn8generics14WherePredicateNtNtB1z_5token5CommaEEECs3tyqko2rdGU_12serde_derive, symObjAddr: 0x25FC, symBinAddr: 0x6BBB0, symSize: 0x24 }
  - { offset: 0xCB309, size: 0x8, addend: 0x0, symName: __RINvNtCs85QQFkKrybG_4core3ptr13drop_in_placeINtNtNtCswz7ZwgBZOU_3std2io5error9ErrorDataINtNtCsdFlNUEO95cG_5alloc5boxed3BoxNtBJ_6CustomEEECs3tyqko2rdGU_12serde_derive, symObjAddr: 0x2620, symBinAddr: 0x6BBD4, symSize: 0x48 }
  - { offset: 0xCB338, size: 0x8, addend: 0x0, symName: __RINvNtCs85QQFkKrybG_4core3ptr13drop_in_placeINtNtNtNtB4_4iter8adapters10filter_map9FilterMapINtNtCsdFlNUEO95cG_5alloc5boxed3BoxDNtNtNtBN_6traits8iterator8Iteratorp4ItemRNtNtNtCs3tyqko2rdGU_12serde_derive9internals3ast5FieldEL_ENCNvNtB2N_5bound33with_where_predicates_from_fields0EEB2N_, symObjAddr: 0x2668, symBinAddr: 0x6BC1C, symSize: 0x24 }
  - { offset: 0xCB367, size: 0x8, addend: 0x0, symName: __RINvNtCs85QQFkKrybG_4core3ptr13drop_in_placeINtNtNtNtB4_4iter8adapters3map3MapIBH_NtNtCscwCr4GBBztI_3syn8generics10TypeParamsNCNvNtCs3tyqko2rdGU_12serde_derive5bound10with_bound0ENCINvXs8_NtCsfieuf5LernF_9hashbrown3setINtB30_7HashSetNtCsfwj6t2KTYdc_11proc_macro25IdentNtNtNtCswz7ZwgBZOU_3std4hash6random11RandomStateEINtNtNtBN_6traits7collect6ExtendB3J_E6extendB1e_E0EEB25_, symObjAddr: 0x268C, symBinAddr: 0x6BC40, symSize: 0x24 }
  - { offset: 0xCB396, size: 0x8, addend: 0x0, symName: __RINvNtCs85QQFkKrybG_4core3ptr13drop_in_placeINtNtNtNtB4_4iter8adapters3map3MapIBH_NtNtCsfwj6t2KTYdc_11proc_macro212token_stream8IntoIterNCNvNtNtCs3tyqko2rdGU_12serde_derive9internals6respan6respan0ENvNtB1m_3imp19into_compiler_tokenEEB2i_, symObjAddr: 0x26B0, symBinAddr: 0x6BC64, symSize: 0x24 }
  - { offset: 0xCB3C5, size: 0x8, addend: 0x0, symName: __RINvNtCs85QQFkKrybG_4core3ptr13drop_in_placeINtNtNtNtB4_4iter8adapters3map3MapINtNtBL_10filter_map9FilterMapINtNtCsdFlNUEO95cG_5alloc5boxed3BoxDNtNtNtBN_6traits8iterator8Iteratorp4ItemRNtNtNtCs3tyqko2rdGU_12serde_derive9internals3ast5FieldEL_ENCNvNtB33_5bound33with_where_predicates_from_fields0ENvMNtB1N_5sliceSNtNtCscwCr4GBBztI_3syn8generics14WherePredicate6to_vecEEB33_, symObjAddr: 0x26D4, symBinAddr: 0x6BC88, symSize: 0x24 }
  - { offset: 0xCB3F4, size: 0x8, addend: 0x0, symName: __RINvNtCs85QQFkKrybG_4core3ptr13drop_in_placeINtNtNtNtB4_4iter8adapters3map3MapINtNtBL_5chain5ChainIBH_INtNtBL_6filter6FilterIBH_NtNtCscwCr4GBBztI_3syn8generics10TypeParamsNCNvNtCs3tyqko2rdGU_12serde_derive5bound10with_bounds1_0ENCB2L_s2_0ENCB2L_s3_0EINtNtBL_6cloned6ClonedINtNtNtCsdFlNUEO95cG_5alloc3vec9into_iter8IntoIterRNtNtB26_2ty8TypePathEEENCB2L_s4_0EEB2P_, symObjAddr: 0x26F8, symBinAddr: 0x6BCAC, symSize: 0x24 }
  - { offset: 0xCB423, size: 0x8, addend: 0x0, symName: __RINvNtCs85QQFkKrybG_4core3ptr13drop_in_placeINtNtNtNtB4_4iter8adapters3map3MapINtNtBL_6cloned6ClonedINtNtCscwCr4GBBztI_3syn10punctuated4IterNtNtB1F_8generics12GenericParamEENCNvNtCs3tyqko2rdGU_12serde_derive5bound19with_lifetime_bound0EEB2R_, symObjAddr: 0x271C, symBinAddr: 0x6BCD0, symSize: 0x24 }
  - { offset: 0xCB452, size: 0x8, addend: 0x0, symName: __RINvNtCs85QQFkKrybG_4core3ptr13drop_in_placeINtNtNtNtB4_4iter8adapters3map3MapINtNtBL_6filter6FilterIBH_NtNtCscwCr4GBBztI_3syn8generics10TypeParamsNCNvNtCs3tyqko2rdGU_12serde_derive5bound10with_bounds1_0ENCB2n_s2_0ENCB2n_s3_0EEB2r_, symObjAddr: 0x2740, symBinAddr: 0x6BCF4, symSize: 0x24 }
  - { offset: 0xCB481, size: 0x8, addend: 0x0, symName: __RINvNtCs85QQFkKrybG_4core3ptr13drop_in_placeINtNtNtNtB4_4iter8adapters3map3MapINtNtBL_9enumerate9EnumerateINtNtCscwCr4GBBztI_3syn10punctuated4IterNtNtB1L_4data5FieldEENCNvNtNtCs3tyqko2rdGU_12serde_derive9internals3ast15fields_from_ast0EEB2N_, symObjAddr: 0x2764, symBinAddr: 0x6BD18, symSize: 0x24 }
  - { offset: 0xCB4B0, size: 0x8, addend: 0x0, symName: __RINvNtCs85QQFkKrybG_4core3ptr13drop_in_placeINtNtNtNtB4_4iter8adapters3map3MapINtNtCscwCr4GBBztI_3syn10punctuated4IterNtNtB1j_4data7VariantENCNvNtNtCs3tyqko2rdGU_12serde_derive9internals3ast13enum_from_ast0EEB2m_, symObjAddr: 0x2788, symBinAddr: 0x6BD3C, symSize: 0x24 }
  - { offset: 0xCB4DF, size: 0x8, addend: 0x0, symName: __RINvNtCs85QQFkKrybG_4core3ptr13drop_in_placeINtNtNtNtB4_4iter8adapters3map3MapINtNtCscwCr4GBBztI_3syn10punctuated4IterNtNtB1j_8generics12GenericParamENCNvNtCs3tyqko2rdGU_12serde_derive5bound12type_of_item0EEB2u_, symObjAddr: 0x27AC, symBinAddr: 0x6BD60, symSize: 0x24 }
  - { offset: 0xCB50E, size: 0x8, addend: 0x0, symName: __RINvNtCs85QQFkKrybG_4core3ptr13drop_in_placeINtNtNtNtB4_4iter8adapters3map3MapINtNtCscwCr4GBBztI_3syn10punctuated4IterNtNtB1j_8generics12GenericParamENCNvNtCs3tyqko2rdGU_12serde_derive5bound16without_defaults0EEB2u_, symObjAddr: 0x27D0, symBinAddr: 0x6BD84, symSize: 0x24 }
  - { offset: 0xCB53D, size: 0x8, addend: 0x0, symName: __RINvNtCs85QQFkKrybG_4core3ptr13drop_in_placeINtNtNtNtB4_4iter8adapters3map3MapNtNtCscwCr4GBBztI_3syn8generics10TypeParamsNCNvNtCs3tyqko2rdGU_12serde_derive5bound10with_bound0EEB21_, symObjAddr: 0x27F4, symBinAddr: 0x6BDA8, symSize: 0x24 }
  - { offset: 0xCB56C, size: 0x8, addend: 0x0, symName: __RINvNtCs85QQFkKrybG_4core3ptr13drop_in_placeINtNtNtNtB4_4iter8adapters3map3MapNtNtCscwCr4GBBztI_3syn8generics10TypeParamsNCNvNtCs3tyqko2rdGU_12serde_derive5bound10with_bounds1_0EEB21_, symObjAddr: 0x2818, symBinAddr: 0x6BDCC, symSize: 0x24 }
  - { offset: 0xCB59B, size: 0x8, addend: 0x0, symName: __RINvNtCs85QQFkKrybG_4core3ptr13drop_in_placeINtNtNtNtB4_4iter8adapters3map3MapNtNtCsfwj6t2KTYdc_11proc_macro212token_stream8IntoIterNCNvNtNtCs3tyqko2rdGU_12serde_derive9internals6respan6respan0EEB2e_, symObjAddr: 0x283C, symBinAddr: 0x6BDF0, symSize: 0x24 }
  - { offset: 0xCB5CA, size: 0x8, addend: 0x0, symName: __RINvNtCs85QQFkKrybG_4core3ptr13drop_in_placeINtNtNtNtB4_4iter8adapters4fuse4FuseINtNtBL_3map3MapINtNtBL_10filter_map9FilterMapINtNtCsdFlNUEO95cG_5alloc5boxed3BoxDNtNtNtBN_6traits8iterator8Iteratorp4ItemRNtNtNtCs3tyqko2rdGU_12serde_derive9internals3ast5FieldEL_ENCNvNtB3l_5bound33with_where_predicates_from_fields0ENvMNtB25_5sliceSNtNtCscwCr4GBBztI_3syn8generics14WherePredicate6to_vecEEEB3l_, symObjAddr: 0x2860, symBinAddr: 0x6BE14, symSize: 0x24 }
  - { offset: 0xCB5F9, size: 0x8, addend: 0x0, symName: __RINvNtCs85QQFkKrybG_4core3ptr13drop_in_placeINtNtNtNtB4_4iter8adapters4skip4SkipINtNtCscwCr4GBBztI_3syn10punctuated9IntoPairsNtNtB1l_4path11PathSegmentNtNtB1l_5token7PathSepEEECs3tyqko2rdGU_12serde_derive, symObjAddr: 0x2884, symBinAddr: 0x6BE38, symSize: 0x24 }
  - { offset: 0xCB628, size: 0x8, addend: 0x0, symName: __RINvNtCs85QQFkKrybG_4core3ptr13drop_in_placeINtNtNtNtB4_4iter8adapters5chain5ChainINtNtB4_6option8IntoIterNtNtCscwCr4GBBztI_3syn8generics12GenericParamEINtNtB1K_10punctuated8IntoIterB1G_EEECs3tyqko2rdGU_12serde_derive, symObjAddr: 0x28A8, symBinAddr: 0x6BE5C, symSize: 0x60 }
  - { offset: 0xCB657, size: 0x8, addend: 0x0, symName: __RINvNtCs85QQFkKrybG_4core3ptr13drop_in_placeINtNtNtNtB4_4iter8adapters5chain5ChainINtNtB4_6option8IntoIterNtNtCscwCr4GBBztI_3syn8generics12GenericParamEINtNtBL_3map3MapINtNtBL_6cloned6ClonedINtNtB1K_10punctuated4IterB1G_EENCNvNtCs3tyqko2rdGU_12serde_derive5bound19with_lifetime_bound0EEEB3E_, symObjAddr: 0x2908, symBinAddr: 0x6BEBC, symSize: 0x60 }
  - { offset: 0xCB686, size: 0x8, addend: 0x0, symName: __RINvNtCs85QQFkKrybG_4core3ptr13drop_in_placeINtNtNtNtB4_4iter8adapters5chain5ChainINtNtBL_3map3MapINtNtBL_6filter6FilterIB1j_NtNtCscwCr4GBBztI_3syn8generics10TypeParamsNCNvNtCs3tyqko2rdGU_12serde_derive5bound10with_bounds1_0ENCB2I_s2_0ENCB2I_s3_0EINtNtBL_6cloned6ClonedINtNtNtCsdFlNUEO95cG_5alloc3vec9into_iter8IntoIterRNtNtB23_2ty8TypePathEEEEB2M_, symObjAddr: 0x2968, symBinAddr: 0x6BF1C, symSize: 0x5C }
  - { offset: 0xCB6B5, size: 0x8, addend: 0x0, symName: __RINvNtCs85QQFkKrybG_4core3ptr13drop_in_placeINtNtNtNtB4_4iter8adapters6cloned6ClonedINtNtCscwCr4GBBztI_3syn10punctuated4IterNtNtB1p_8generics12GenericParamEEECs3tyqko2rdGU_12serde_derive, symObjAddr: 0x29C4, symBinAddr: 0x6BF78, symSize: 0x24 }
  - { offset: 0xCB6E4, size: 0x8, addend: 0x0, symName: __RINvNtCs85QQFkKrybG_4core3ptr13drop_in_placeINtNtNtNtB4_4iter8adapters6cloned6ClonedINtNtNtCsdFlNUEO95cG_5alloc3vec9into_iter8IntoIterRNtNtCscwCr4GBBztI_3syn2ty8TypePathEEECs3tyqko2rdGU_12serde_derive, symObjAddr: 0x29E8, symBinAddr: 0x6BF9C, symSize: 0x24 }
  - { offset: 0xCB713, size: 0x8, addend: 0x0, symName: __RINvNtCs85QQFkKrybG_4core3ptr13drop_in_placeINtNtNtNtB4_4iter8adapters6filter6FilterINtNtBL_3map3MapNtNtCscwCr4GBBztI_3syn8generics10TypeParamsNCNvNtCs3tyqko2rdGU_12serde_derive5bound10with_bounds1_0ENCB2j_s2_0EEB2n_, symObjAddr: 0x2A0C, symBinAddr: 0x6BFC0, symSize: 0x24 }
  - { offset: 0xCB742, size: 0x8, addend: 0x0, symName: __RINvNtCs85QQFkKrybG_4core3ptr13drop_in_placeINtNtNtNtB4_4iter8adapters7flatten13FlattenCompatINtNtBL_3map3MapINtNtBL_10filter_map9FilterMapINtNtCsdFlNUEO95cG_5alloc5boxed3BoxDNtNtNtBN_6traits8iterator8Iteratorp4ItemRNtNtNtCs3tyqko2rdGU_12serde_derive9internals3ast5FieldEL_ENCNvNtB3y_5bound33with_where_predicates_from_fields0ENvMNtB2i_5sliceSNtNtCscwCr4GBBztI_3syn8generics14WherePredicate6to_vecEINtNtNtB2i_3vec9into_iter8IntoIterB5v_EEEB3y_, symObjAddr: 0x2A30, symBinAddr: 0x6BFE4, symSize: 0x8C }
  - { offset: 0xCB771, size: 0x8, addend: 0x0, symName: __RINvNtCs85QQFkKrybG_4core3ptr13drop_in_placeINtNtNtNtB4_4iter8adapters7flatten13FlattenCompatINtNtBL_3map3MapINtNtBL_10filter_map9FilterMapINtNtNtB4_5slice4iter4IterNtNtNtCs3tyqko2rdGU_12serde_derive9internals3ast7VariantENCNvNtB2J_5bound35with_where_predicates_from_variants0ENvMNtCsdFlNUEO95cG_5alloc5sliceSNtNtCscwCr4GBBztI_3syn8generics14WherePredicate6to_vecEINtNtNtB4w_3vec9into_iter8IntoIterB4X_EEEB2J_, symObjAddr: 0x2ABC, symBinAddr: 0x6C070, symSize: 0x60 }
  - { offset: 0xCB7A0, size: 0x8, addend: 0x0, symName: __RINvNtCs85QQFkKrybG_4core3ptr13drop_in_placeINtNtNtNtB4_4iter8adapters7flatten7FlatMapINtNtBL_10filter_map9FilterMapINtNtCsdFlNUEO95cG_5alloc5boxed3BoxDNtNtNtBN_6traits8iterator8Iteratorp4ItemRNtNtNtCs3tyqko2rdGU_12serde_derive9internals3ast5FieldEL_ENCNvNtB3b_5bound33with_where_predicates_from_fields0EINtNtB1V_3vec3VecNtNtCscwCr4GBBztI_3syn8generics14WherePredicateENvMNtB1V_5sliceSB59_6to_vecEEB3b_, symObjAddr: 0x2B1C, symBinAddr: 0x6C0D0, symSize: 0x24 }
  - { offset: 0xCB7CF, size: 0x8, addend: 0x0, symName: __RINvNtCs85QQFkKrybG_4core3ptr13drop_in_placeINtNtNtNtB4_4iter8adapters7flatten7FlatMapINtNtBL_10filter_map9FilterMapINtNtNtB4_5slice4iter4IterNtNtNtCs3tyqko2rdGU_12serde_derive9internals3ast7VariantENCNvNtB2m_5bound35with_where_predicates_from_variants0EINtNtCsdFlNUEO95cG_5alloc3vec3VecNtNtCscwCr4GBBztI_3syn8generics14WherePredicateENvMNtB49_5sliceSB4B_6to_vecEEB2m_, symObjAddr: 0x2B40, symBinAddr: 0x6C0F4, symSize: 0x24 }
  - { offset: 0xCB7FE, size: 0x8, addend: 0x0, symName: __RINvNtCs85QQFkKrybG_4core3ptr13drop_in_placeINtNtNtNtB4_4iter8adapters9enumerate9EnumerateINtNtCscwCr4GBBztI_3syn10punctuated4IterNtNtB1v_4data5FieldEEECs3tyqko2rdGU_12serde_derive, symObjAddr: 0x2B64, symBinAddr: 0x6C118, symSize: 0x24 }
  - { offset: 0xCB82D, size: 0x8, addend: 0x0, symName: __RINvNtCs85QQFkKrybG_4core3ptr13drop_in_placeINtNtNtNtCsdFlNUEO95cG_5alloc11collections5btree3map8BTreeMapNtNtCscwCr4GBBztI_3syn8lifetime8LifetimeNtNtBL_7set_val9SetValZSTEECs3tyqko2rdGU_12serde_derive, symObjAddr: 0x2B88, symBinAddr: 0x6C13C, symSize: 0x24 }
  - { offset: 0xCB85C, size: 0x8, addend: 0x0, symName: __RINvNtCs85QQFkKrybG_4core3ptr13drop_in_placeINtNtNtNtCsdFlNUEO95cG_5alloc11collections5btree3map8BTreeMapNtNtNtCs3tyqko2rdGU_12serde_derive9internals4name4NameNtNtBL_7set_val9SetValZSTEEB1L_, symObjAddr: 0x2BAC, symBinAddr: 0x6C160, symSize: 0x24 }
  - { offset: 0xCB88B, size: 0x8, addend: 0x0, symName: __RINvNtCs85QQFkKrybG_4core3ptr13drop_in_placeINtNtNtNtCsdFlNUEO95cG_5alloc11collections5btree3map8IntoIterNtNtCscwCr4GBBztI_3syn8lifetime8LifetimeNtNtBL_7set_val9SetValZSTEECs3tyqko2rdGU_12serde_derive, symObjAddr: 0x2BD0, symBinAddr: 0x6C184, symSize: 0x24 }
  - { offset: 0xCB8BA, size: 0x8, addend: 0x0, symName: __RINvNtCs85QQFkKrybG_4core3ptr13drop_in_placeINtNtNtNtCsdFlNUEO95cG_5alloc11collections5btree3map8IntoIterNtNtNtCs3tyqko2rdGU_12serde_derive9internals4name4NameNtNtBL_7set_val9SetValZSTEEB1L_, symObjAddr: 0x2BF4, symBinAddr: 0x6C1A8, symSize: 0x24 }
  - { offset: 0xCB8E9, size: 0x8, addend: 0x0, symName: __RINvNtCs85QQFkKrybG_4core3ptr13drop_in_placeINtNtNtNtCsdFlNUEO95cG_5alloc11collections5btree3set8BTreeSetNtNtCscwCr4GBBztI_3syn8lifetime8LifetimeEECs3tyqko2rdGU_12serde_derive, symObjAddr: 0x2C18, symBinAddr: 0x6C1CC, symSize: 0x24 }
  - { offset: 0xCB918, size: 0x8, addend: 0x0, symName: __RINvNtCs85QQFkKrybG_4core3ptr13drop_in_placeINtNtNtNtCsdFlNUEO95cG_5alloc11collections5btree3set8BTreeSetNtNtNtCs3tyqko2rdGU_12serde_derive9internals4name4NameEEB1L_, symObjAddr: 0x2C3C, symBinAddr: 0x6C1F0, symSize: 0x24 }
  - { offset: 0xCB947, size: 0x8, addend: 0x0, symName: __RINvNtCs85QQFkKrybG_4core3ptr13drop_in_placeINtNtNtNtCsdFlNUEO95cG_5alloc11collections5btree4node11SplitResultNtNtCscwCr4GBBztI_3syn8lifetime8LifetimeNtNtBL_7set_val9SetValZSTNtNtBJ_6marker4LeafEECs3tyqko2rdGU_12serde_derive, symObjAddr: 0x2C60, symBinAddr: 0x6C214, symSize: 0x24 }
  - { offset: 0xCB976, size: 0x8, addend: 0x0, symName: __RINvNtCs85QQFkKrybG_4core3ptr13drop_in_placeINtNtNtNtCsdFlNUEO95cG_5alloc11collections5btree4node11SplitResultNtNtCscwCr4GBBztI_3syn8lifetime8LifetimeNtNtBL_7set_val9SetValZSTNtNtBJ_6marker8InternalEECs3tyqko2rdGU_12serde_derive, symObjAddr: 0x2C84, symBinAddr: 0x6C238, symSize: 0x24 }
  - { offset: 0xCB9A5, size: 0x8, addend: 0x0, symName: __RINvNtCs85QQFkKrybG_4core3ptr13drop_in_placeINtNtNtNtCsdFlNUEO95cG_5alloc11collections5btree4node11SplitResultNtNtNtCs3tyqko2rdGU_12serde_derive9internals4name4NameNtNtBL_7set_val9SetValZSTNtNtBJ_6marker4LeafEEB1Q_, symObjAddr: 0x2CA8, symBinAddr: 0x6C25C, symSize: 0x24 }
  - { offset: 0xCB9D4, size: 0x8, addend: 0x0, symName: __RINvNtCs85QQFkKrybG_4core3ptr13drop_in_placeINtNtNtNtCsdFlNUEO95cG_5alloc11collections5btree4node11SplitResultNtNtNtCs3tyqko2rdGU_12serde_derive9internals4name4NameNtNtBL_7set_val9SetValZSTNtNtBJ_6marker8InternalEEB1Q_, symObjAddr: 0x2CCC, symBinAddr: 0x6C280, symSize: 0x24 }
  - { offset: 0xCBA03, size: 0x8, addend: 0x0, symName: __RINvNtCs85QQFkKrybG_4core3ptr13drop_in_placeINtNtNtNtCswz7ZwgBZOU_3std11collections4hash3set7HashSetNtCsfwj6t2KTYdc_11proc_macro25IdentEECs3tyqko2rdGU_12serde_derive, symObjAddr: 0x2CF0, symBinAddr: 0x6C2A4, symSize: 0x24 }
  - { offset: 0xCBA32, size: 0x8, addend: 0x0, symName: __RINvNtCs85QQFkKrybG_4core3ptr13drop_in_placeINtNvMsT_NtNtNtCsdFlNUEO95cG_5alloc11collections5btree4nodeINtBP_6HandleINtBP_7NodeRefNtNtBP_6marker5DyingpppENtB26_2KVE12drop_key_val7DropperNtNtBR_7set_val9SetValZSTEECs3tyqko2rdGU_12serde_derive, symObjAddr: 0x2D14, symBinAddr: 0x6C2C8, symSize: 0x24 }
  - { offset: 0xCBA61, size: 0x8, addend: 0x0, symName: __RINvNtCs85QQFkKrybG_4core3ptr13drop_in_placeINtNvXNvMNtCsdFlNUEO95cG_5alloc5sliceSp9to_vec_inpNtBM_10ConvertVec6to_vec9DropGuardNtNtCscwCr4GBBztI_3syn8generics14WherePredicateNtNtBR_5alloc6GlobalEECs3tyqko2rdGU_12serde_derive, symObjAddr: 0x2D38, symBinAddr: 0x6C2EC, symSize: 0x24 }
  - { offset: 0xCBA90, size: 0x8, addend: 0x0, symName: __RINvNtCs85QQFkKrybG_4core3ptr13drop_in_placeINtNvXsd_NtNtCsdFlNUEO95cG_5alloc3vec9into_iterINtBP_8IntoIterppENtNtNtB4_3ops4drop4Drop4drop9DropGuardNtNtCscwCr4GBBztI_3syn3lit6LitStrNtNtBT_5alloc6GlobalEECs3tyqko2rdGU_12serde_derive, symObjAddr: 0x2D5C, symBinAddr: 0x6C310, symSize: 0x24 }
  - { offset: 0xCBABF, size: 0x8, addend: 0x0, symName: __RINvNtCs85QQFkKrybG_4core3ptr13drop_in_placeINtNvXsd_NtNtCsdFlNUEO95cG_5alloc3vec9into_iterINtBP_8IntoIterppENtNtNtB4_3ops4drop4Drop4drop9DropGuardNtNtCscwCr4GBBztI_3syn4path11PathSegmentNtNtBT_5alloc6GlobalEECs3tyqko2rdGU_12serde_derive, symObjAddr: 0x2D80, symBinAddr: 0x6C334, symSize: 0x24 }
  - { offset: 0xCBAEE, size: 0x8, addend: 0x0, symName: __RINvNtCs85QQFkKrybG_4core3ptr13drop_in_placeINtNvXsd_NtNtCsdFlNUEO95cG_5alloc3vec9into_iterINtBP_8IntoIterppENtNtNtB4_3ops4drop4Drop4drop9DropGuardNtNtCscwCr4GBBztI_3syn5error5ErrorNtNtBT_5alloc6GlobalEECs3tyqko2rdGU_12serde_derive, symObjAddr: 0x2DA4, symBinAddr: 0x6C358, symSize: 0x24 }
  - { offset: 0xCBB1D, size: 0x8, addend: 0x0, symName: __RINvNtCs85QQFkKrybG_4core3ptr13drop_in_placeINtNvXsd_NtNtCsdFlNUEO95cG_5alloc3vec9into_iterINtBP_8IntoIterppENtNtNtB4_3ops4drop4Drop4drop9DropGuardNtNtCscwCr4GBBztI_3syn8generics12GenericParamNtNtBT_5alloc6GlobalEECs3tyqko2rdGU_12serde_derive, symObjAddr: 0x2DC8, symBinAddr: 0x6C37C, symSize: 0x24 }
  - { offset: 0xCBB4C, size: 0x8, addend: 0x0, symName: __RINvNtCs85QQFkKrybG_4core3ptr13drop_in_placeINtNvXsd_NtNtCsdFlNUEO95cG_5alloc3vec9into_iterINtBP_8IntoIterppENtNtNtB4_3ops4drop4Drop4drop9DropGuardNtNtCscwCr4GBBztI_3syn8generics14WherePredicateNtNtBT_5alloc6GlobalEECs3tyqko2rdGU_12serde_derive, symObjAddr: 0x2DEC, symBinAddr: 0x6C3A0, symSize: 0x24 }
  - { offset: 0xCBB7B, size: 0x8, addend: 0x0, symName: __RINvNtCs85QQFkKrybG_4core3ptr13drop_in_placeINtNvXsd_NtNtCsdFlNUEO95cG_5alloc3vec9into_iterINtBP_8IntoIterppENtNtNtB4_3ops4drop4Drop4drop9DropGuardNtNtNtCs3tyqko2rdGU_12serde_derive9internals4name4NameNtNtBT_5alloc6GlobalEEB2r_, symObjAddr: 0x2E10, symBinAddr: 0x6C3C4, symSize: 0x24 }
  - { offset: 0xCBBAA, size: 0x8, addend: 0x0, symName: __RINvNtCs85QQFkKrybG_4core3ptr13drop_in_placeINtNvXsd_NtNtCsdFlNUEO95cG_5alloc3vec9into_iterINtBP_8IntoIterppENtNtNtB4_3ops4drop4Drop4drop9DropGuardRNtNtCscwCr4GBBztI_3syn2ty8TypePathNtNtBT_5alloc6GlobalEECs3tyqko2rdGU_12serde_derive, symObjAddr: 0x2E34, symBinAddr: 0x6C3E8, symSize: 0x24 }
  - { offset: 0xCBBD9, size: 0x8, addend: 0x0, symName: __RINvNtCs85QQFkKrybG_4core3ptr13drop_in_placeINtNvXsd_NtNtCsdFlNUEO95cG_5alloc3vec9into_iterINtBP_8IntoIterppENtNtNtB4_3ops4drop4Drop4drop9DropGuardTNtNtCscwCr4GBBztI_3syn8generics12GenericParamNtNtB2q_5token5CommaENtNtBT_5alloc6GlobalEECs3tyqko2rdGU_12serde_derive, symObjAddr: 0x2E58, symBinAddr: 0x6C40C, symSize: 0x24 }
  - { offset: 0xCBC08, size: 0x8, addend: 0x0, symName: __RINvNtCs85QQFkKrybG_4core3ptr13drop_in_placeINtNvXsd_NtNtCsdFlNUEO95cG_5alloc3vec9into_iterINtBP_8IntoIterppENtNtNtB4_3ops4drop4Drop4drop9DropGuardTNtNtCscwCr4GBBztI_3syn8generics14WherePredicateNtNtB2q_5token5CommaENtNtBT_5alloc6GlobalEECs3tyqko2rdGU_12serde_derive, symObjAddr: 0x2E7C, symBinAddr: 0x6C430, symSize: 0x24 }
  - { offset: 0xCBC37, size: 0x8, addend: 0x0, symName: __RINvNtCs85QQFkKrybG_4core3ptr13drop_in_placeINtNvXsw_NtNtNtCsdFlNUEO95cG_5alloc11collections5btree3mapINtBP_8IntoIterpppENtNtNtB4_3ops4drop4Drop4drop9DropGuardNtNtCscwCr4GBBztI_3syn8lifetime8LifetimeNtNtBR_7set_val9SetValZSTNtNtBV_5alloc6GlobalEECs3tyqko2rdGU_12serde_derive, symObjAddr: 0x2EA0, symBinAddr: 0x6C454, symSize: 0x24 }
  - { offset: 0xCBC66, size: 0x8, addend: 0x0, symName: __RINvNtCs85QQFkKrybG_4core3ptr13drop_in_placeINtNvXsw_NtNtNtCsdFlNUEO95cG_5alloc11collections5btree3mapINtBP_8IntoIterpppENtNtNtB4_3ops4drop4Drop4drop9DropGuardNtNtNtCs3tyqko2rdGU_12serde_derive9internals4name4NameNtNtBR_7set_val9SetValZSTNtNtBV_5alloc6GlobalEEB2D_, symObjAddr: 0x2EC4, symBinAddr: 0x6C478, symSize: 0x24 }
  - { offset: 0xCBC95, size: 0x8, addend: 0x0, symName: __RINvNtCs85QQFkKrybG_4core3ptr13drop_in_placeNCINvMsi_NtCsdFlNUEO95cG_5alloc3vecINtBP_3VecNtCsfwj6t2KTYdc_11proc_macro211TokenStreamE14extend_trustedINtNtNtNtB4_4iter8adapters3map3MapINtNtB2r_9enumerate9EnumerateINtNtNtB4_5slice4iter4IterNtNtNtCs3tyqko2rdGU_12serde_derive9internals3ast7VariantEENCNvNtB3T_3ser14serialize_enum0EE0EB3T_, symObjAddr: 0x2EE8, symBinAddr: 0x6C49C, symSize: 0x24 }
  - { offset: 0xCBCC4, size: 0x8, addend: 0x0, symName: __RINvNtCs85QQFkKrybG_4core3ptr13drop_in_placeNCINvMsi_NtCsdFlNUEO95cG_5alloc3vecINtBP_3VecNtCsfwj6t2KTYdc_11proc_macro211TokenStreamE14extend_trustedINtNtNtNtB4_4iter8adapters3map3MapINtNtNtB4_5slice4iter4IterNtNtNtCs3tyqko2rdGU_12serde_derive9internals3ast5FieldENCNvNtB3q_3ser27wrap_serialize_variant_withs_0EE0EB3q_, symObjAddr: 0x2F0C, symBinAddr: 0x6C4C0, symSize: 0x24 }
  - { offset: 0xCBCF3, size: 0x8, addend: 0x0, symName: __RINvNtCs85QQFkKrybG_4core3ptr13drop_in_placeNCINvMsi_NtCsdFlNUEO95cG_5alloc3vecINtBP_3VecNtCsfwj6t2KTYdc_11proc_macro25IdentE14extend_trustedINtNtNtNtB4_4iter8adapters3map3MapINtNtNtB4_3ops5range5RangejENCNCNvNtCs3tyqko2rdGU_12serde_derive7pretend21pretend_variants_used00EE0EB3n_, symObjAddr: 0x2F30, symBinAddr: 0x6C4E4, symSize: 0x24 }
  - { offset: 0xCBD22, size: 0x8, addend: 0x0, symName: __RINvNtCs85QQFkKrybG_4core3ptr13drop_in_placeNCINvMsi_NtCsdFlNUEO95cG_5alloc3vecINtBP_3VecNtNtCs3tyqko2rdGU_12serde_derive2de16FieldWithAliasesE14extend_trustedINtNtNtNtB4_4iter8adapters3map3MapINtNtNtB4_5slice4iter4IterNtNtNtB1t_9internals3ast7VariantENCNvNtB1r_10identifier18deserialize_customs_0EE0EB1t_, symObjAddr: 0x2F54, symBinAddr: 0x6C508, symSize: 0x24 }
  - { offset: 0xCBD51, size: 0x8, addend: 0x0, symName: __RINvNtCs85QQFkKrybG_4core3ptr13drop_in_placeNCINvMsi_NtCsdFlNUEO95cG_5alloc3vecINtBP_3VecNtNtCscwCr4GBBztI_3syn4expr6MemberE14extend_trustedINtNtNtNtB4_4iter8adapters3map3MapINtNtNtB4_3ops5range5RangejENCNvNtCs3tyqko2rdGU_12serde_derive3ser35serialize_adjacently_tagged_variants_0EE0EB3k_, symObjAddr: 0x2F78, symBinAddr: 0x6C52C, symSize: 0x24 }
  - { offset: 0xCBD80, size: 0x8, addend: 0x0, symName: __RINvNtCs85QQFkKrybG_4core3ptr13drop_in_placeNCINvMsi_NtCsdFlNUEO95cG_5alloc3vecINtBP_3VecNtNtCscwCr4GBBztI_3syn4expr6MemberE14extend_trustedINtNtNtNtB4_4iter8adapters3map3MapINtNtNtB4_5slice4iter4IterNtNtNtCs3tyqko2rdGU_12serde_derive9internals3ast5FieldENCNvNtB3i_3ser35serialize_adjacently_tagged_variants0_0EE0EB3i_, symObjAddr: 0x2F9C, symBinAddr: 0x6C550, symSize: 0x24 }
  - { offset: 0xCBDAF, size: 0x8, addend: 0x0, symName: __RINvNtCs85QQFkKrybG_4core3ptr13drop_in_placeNCINvMsi_NtCsdFlNUEO95cG_5alloc3vecINtBP_3VecRNtCsfwj6t2KTYdc_11proc_macro25IdentE14extend_trustedINtNtNtNtB4_4iter8adapters3map3MapINtNtNtB4_5slice4iter4IterNtNtCs3tyqko2rdGU_12serde_derive2de16FieldWithAliasesENCNvNtB3g_10identifier21deserialize_generated0EE0EB3i_, symObjAddr: 0x2FC0, symBinAddr: 0x6C574, symSize: 0x24 }
  - { offset: 0xCBDDE, size: 0x8, addend: 0x0, symName: __RINvNtCs85QQFkKrybG_4core3ptr13drop_in_placeNCINvMsi_NtCsdFlNUEO95cG_5alloc3vecINtBP_3VecRNtNtCscwCr4GBBztI_3syn2ty4TypeE14extend_trustedINtNtNtNtB4_4iter8adapters3map3MapINtNtNtB4_5slice4iter4IterNtNtNtCs3tyqko2rdGU_12serde_derive9internals3ast5FieldENCNvNtB3f_3ser27wrap_serialize_variant_with0EE0EB3f_, symObjAddr: 0x2FE4, symBinAddr: 0x6C598, symSize: 0x24 }
  - { offset: 0xCBE0D, size: 0x8, addend: 0x0, symName: __RINvNtCs85QQFkKrybG_4core3ptr13drop_in_placeNCINvMsi_NtCsdFlNUEO95cG_5alloc3vecINtBP_3VecRNtNtCscwCr4GBBztI_3syn4expr6MemberE14extend_trustedINtNtNtNtB4_4iter8adapters3map3MapINtNtNtB4_5slice4iter4IterNtNtNtCs3tyqko2rdGU_12serde_derive9internals3ast5FieldENCNvNtB3j_3ser37serialize_struct_variant_with_flattens0_0EE0EB3j_, symObjAddr: 0x3008, symBinAddr: 0x6C5BC, symSize: 0x24 }
  - { offset: 0xCBE3C, size: 0x8, addend: 0x0, symName: __RINvNtCs85QQFkKrybG_4core3ptr13drop_in_placeNCINvMsi_NtCsdFlNUEO95cG_5alloc3vecINtBP_3VecRNtNtCscwCr4GBBztI_3syn4expr6MemberE14extend_trustedINtNtNtNtB4_4iter8adapters3map3MapINtNtNtB4_5slice4iter4IterNtNtNtCs3tyqko2rdGU_12serde_derive9internals3ast5FieldENCNvNtB3j_7pretend33pretend_fields_used_struct_packed0EE0EB3j_, symObjAddr: 0x302C, symBinAddr: 0x6C5E0, symSize: 0x24 }
  - { offset: 0xCBE6B, size: 0x8, addend: 0x0, symName: __RINvNtCs85QQFkKrybG_4core3ptr13drop_in_placeNCINvMsi_NtCsdFlNUEO95cG_5alloc3vecINtBP_3VecTRNtNtNtCs3tyqko2rdGU_12serde_derive9internals3ast5FieldNtCsfwj6t2KTYdc_11proc_macro25IdentEE14extend_trustedINtNtNtNtB4_4iter8adapters3map3MapINtNtB3f_9enumerate9EnumerateINtNtNtB4_5slice4iter4IterB1r_EENCNvNtNtB1x_2de7struct_15deserialize_map0EE0EB1x_, symObjAddr: 0x3050, symBinAddr: 0x6C604, symSize: 0x24 }
  - { offset: 0xCBE9A, size: 0x8, addend: 0x0, symName: __RINvNtCs85QQFkKrybG_4core3ptr13drop_in_placeNCINvMsi_NtCsdFlNUEO95cG_5alloc3vecINtBP_3VechE14extend_trustedINtNtNtNtB4_4iter8adapters3map3MapINtNtNtB4_5slice4iter4IterhENCNvNtBR_3str13replace_ascii0EE0ECs3tyqko2rdGU_12serde_derive, symObjAddr: 0x3074, symBinAddr: 0x6C628, symSize: 0x24 }
  - { offset: 0xCBEC9, size: 0x8, addend: 0x0, symName: __RINvNtCs85QQFkKrybG_4core3ptr13drop_in_placeNCINvNtNtNtB4_4iter8adapters3map8map_foldRNtNtCs3tyqko2rdGU_12serde_derive2de16FieldWithAliasesRNtCsfwj6t2KTYdc_11proc_macro25IdentuNCNvNtB1o_10identifier21deserialize_generated0NCINvNvNtNtNtBP_6traits8iterator8Iterator8for_each4callB2d_NCINvMsi_NtCsdFlNUEO95cG_5alloc3vecINtB4E_3VecB2d_E14extend_trustedINtBL_3MapINtNtNtB4_5slice4iter4IterB1m_EB2O_EE0E0E0EB1q_, symObjAddr: 0x3098, symBinAddr: 0x6C64C, symSize: 0x24 }
  - { offset: 0xCBEF8, size: 0x8, addend: 0x0, symName: __RINvNtCs85QQFkKrybG_4core3ptr13drop_in_placeNCINvNtNtNtB4_4iter8adapters3map8map_foldRNtNtNtCs3tyqko2rdGU_12serde_derive9internals3ast5FieldNtCsfwj6t2KTYdc_11proc_macro211TokenStreamuNCNvNtB1s_3ser27wrap_serialize_variant_withs_0NCINvNvNtNtNtBP_6traits8iterator8Iterator8for_each4callB2e_NCINvMsi_NtCsdFlNUEO95cG_5alloc3vecINtB4L_3VecB2e_E14extend_trustedINtBL_3MapINtNtNtB4_5slice4iter4IterB1m_EB2V_EE0E0E0EB1s_, symObjAddr: 0x30BC, symBinAddr: 0x6C670, symSize: 0x24 }
  - { offset: 0xCBF27, size: 0x8, addend: 0x0, symName: __RINvNtCs85QQFkKrybG_4core3ptr13drop_in_placeNCINvNtNtNtB4_4iter8adapters3map8map_foldRNtNtNtCs3tyqko2rdGU_12serde_derive9internals3ast5FieldNtNtCscwCr4GBBztI_3syn4expr6MemberuNCNvNtB1s_3ser35serialize_adjacently_tagged_variants0_0NCINvNvNtNtNtBP_6traits8iterator8Iterator8for_each4callB2e_NCINvMsi_NtCsdFlNUEO95cG_5alloc3vecINtB4M_3VecB2e_E14extend_trustedINtBL_3MapINtNtNtB4_5slice4iter4IterB1m_EB2N_EE0E0E0EB1s_, symObjAddr: 0x30E0, symBinAddr: 0x6C694, symSize: 0x24 }
  - { offset: 0xCBF56, size: 0x8, addend: 0x0, symName: __RINvNtCs85QQFkKrybG_4core3ptr13drop_in_placeNCINvNtNtNtB4_4iter8adapters3map8map_foldRNtNtNtCs3tyqko2rdGU_12serde_derive9internals3ast5FieldRNtNtCscwCr4GBBztI_3syn2ty4TypeuNCNvNtB1s_3ser27wrap_serialize_variant_with0NCINvNvNtNtNtBP_6traits8iterator8Iterator8for_each4callB2e_NCINvMsi_NtCsdFlNUEO95cG_5alloc3vecINtB4y_3VecB2e_E14extend_trustedINtBL_3MapINtNtNtB4_5slice4iter4IterB1m_EB2K_EE0E0E0EB1s_, symObjAddr: 0x3104, symBinAddr: 0x6C6B8, symSize: 0x24 }
  - { offset: 0xCBF85, size: 0x8, addend: 0x0, symName: __RINvNtCs85QQFkKrybG_4core3ptr13drop_in_placeNCINvNtNtNtB4_4iter8adapters3map8map_foldRNtNtNtCs3tyqko2rdGU_12serde_derive9internals3ast5FieldRNtNtCscwCr4GBBztI_3syn4expr6MemberuNCNvNtB1s_3ser37serialize_struct_variant_with_flattens0_0NCINvNvNtNtNtBP_6traits8iterator8Iterator8for_each4callB2e_NCINvMsi_NtCsdFlNUEO95cG_5alloc3vecINtB4P_3VecB2e_E14extend_trustedINtBL_3MapINtNtNtB4_5slice4iter4IterB1m_EB2O_EE0E0E0EB1s_, symObjAddr: 0x3128, symBinAddr: 0x6C6DC, symSize: 0x24 }
  - { offset: 0xCBFB4, size: 0x8, addend: 0x0, symName: __RINvNtCs85QQFkKrybG_4core3ptr13drop_in_placeNCINvNtNtNtB4_4iter8adapters3map8map_foldRNtNtNtCs3tyqko2rdGU_12serde_derive9internals3ast5FieldRNtNtCscwCr4GBBztI_3syn4expr6MemberuNCNvNtB1s_7pretend33pretend_fields_used_struct_packed0NCINvNvNtNtNtBP_6traits8iterator8Iterator8for_each4callB2e_NCINvMsi_NtCsdFlNUEO95cG_5alloc3vecINtB4M_3VecB2e_E14extend_trustedINtBL_3MapINtNtNtB4_5slice4iter4IterB1m_EB2O_EE0E0E0EB1s_, symObjAddr: 0x314C, symBinAddr: 0x6C700, symSize: 0x24 }
  - { offset: 0xCBFE3, size: 0x8, addend: 0x0, symName: __RINvNtCs85QQFkKrybG_4core3ptr13drop_in_placeNCINvNtNtNtB4_4iter8adapters3map8map_foldRNtNtNtCs3tyqko2rdGU_12serde_derive9internals3ast7VariantNtNtB1s_2de16FieldWithAliasesuNCNvNtB2i_10identifier18deserialize_customs_0NCINvNvNtNtNtBP_6traits8iterator8Iterator8for_each4callB2g_NCINvMsi_NtCsdFlNUEO95cG_5alloc3vecINtB4z_3VecB2g_E14extend_trustedINtBL_3MapINtNtNtB4_5slice4iter4IterB1m_EB2K_EE0E0E0EB1s_, symObjAddr: 0x3170, symBinAddr: 0x6C724, symSize: 0x24 }
  - { offset: 0xCC012, size: 0x8, addend: 0x0, symName: __RINvNtCs85QQFkKrybG_4core3ptr13drop_in_placeNCINvNtNtNtB4_4iter8adapters3map8map_foldRhhuNCNvNtCsdFlNUEO95cG_5alloc3str13replace_ascii0NCINvNvNtNtNtBP_6traits8iterator8Iterator8for_each4callhNCINvMsi_NtB1v_3vecINtB3c_3VechE14extend_trustedINtBL_3MapINtNtNtB4_5slice4iter4IterhEB1p_EE0E0E0ECs3tyqko2rdGU_12serde_derive, symObjAddr: 0x3194, symBinAddr: 0x6C748, symSize: 0x24 }
  - { offset: 0xCC041, size: 0x8, addend: 0x0, symName: __RINvNtCs85QQFkKrybG_4core3ptr13drop_in_placeNCINvNtNtNtB4_4iter8adapters3map8map_foldTjRNtNtNtCs3tyqko2rdGU_12serde_derive9internals3ast5FieldETB1n_NtCsfwj6t2KTYdc_11proc_macro25IdentEuNCNvNtNtB1u_2de7struct_15deserialize_map0NCINvNvNtNtNtBP_6traits8iterator8Iterator8for_each4callB2h_NCINvMsi_NtCsdFlNUEO95cG_5alloc3vecINtB4I_3VecB2h_E14extend_trustedINtBL_3MapINtNtBN_9enumerate9EnumerateINtNtNtB4_5slice4iter4IterB1o_EEB2X_EE0E0E0EB1u_, symObjAddr: 0x31B8, symBinAddr: 0x6C76C, symSize: 0x24 }
  - { offset: 0xCC070, size: 0x8, addend: 0x0, symName: __RINvNtCs85QQFkKrybG_4core3ptr13drop_in_placeNCINvNtNtNtB4_4iter8adapters3map8map_foldTjRNtNtNtCs3tyqko2rdGU_12serde_derive9internals3ast7VariantENtCsfwj6t2KTYdc_11proc_macro211TokenStreamuNCNvNtB1u_3ser14serialize_enum0NCINvNvNtNtNtBP_6traits8iterator8Iterator8for_each4callB2j_NCINvMsi_NtCsdFlNUEO95cG_5alloc3vecINtB4B_3VecB2j_E14extend_trustedINtBL_3MapINtNtBN_9enumerate9EnumerateINtNtNtB4_5slice4iter4IterB1o_EEB30_EE0E0E0EB1u_, symObjAddr: 0x31DC, symBinAddr: 0x6C790, symSize: 0x24 }
  - { offset: 0xCC09F, size: 0x8, addend: 0x0, symName: __RINvNtCs85QQFkKrybG_4core3ptr13drop_in_placeNCINvNtNtNtB4_4iter8adapters3map8map_foldjNtCsfwj6t2KTYdc_11proc_macro25IdentuNCNCNvNtCs3tyqko2rdGU_12serde_derive7pretend21pretend_variants_used00NCINvNvNtNtNtBP_6traits8iterator8Iterator8for_each4callB1m_NCINvMsi_NtCsdFlNUEO95cG_5alloc3vecINtB49_3VecB1m_E14extend_trustedINtBL_3MapINtNtNtB4_3ops5range5RangejEB1W_EE0E0E0EB24_, symObjAddr: 0x3200, symBinAddr: 0x6C7B4, symSize: 0x24 }
  - { offset: 0xCC0CE, size: 0x8, addend: 0x0, symName: __RINvNtCs85QQFkKrybG_4core3ptr13drop_in_placeNCINvNtNtNtB4_4iter8adapters3map8map_foldjNtNtCscwCr4GBBztI_3syn4expr6MemberuNCNvNtCs3tyqko2rdGU_12serde_derive3ser35serialize_adjacently_tagged_variants_0NCINvNvNtNtNtBP_6traits8iterator8Iterator8for_each4callB1m_NCINvMsi_NtCsdFlNUEO95cG_5alloc3vecINtB4h_3VecB1m_E14extend_trustedINtBL_3MapINtNtNtB4_3ops5range5RangejEB1V_EE0E0E0EB21_, symObjAddr: 0x3224, symBinAddr: 0x6C7D8, symSize: 0x24 }
  - { offset: 0xCC0FD, size: 0x8, addend: 0x0, symName: __RINvNtCs85QQFkKrybG_4core3ptr13drop_in_placeNCINvNvNtNtNtNtB4_4iter6traits8iterator8Iterator8for_each4callNtCsfwj6t2KTYdc_11proc_macro211TokenStreamNCINvMsi_NtCsdFlNUEO95cG_5alloc3vecINtB2v_3VecB1G_E14extend_trustedINtNtNtBT_8adapters3map3MapINtNtB3w_9enumerate9EnumerateINtNtNtB4_5slice4iter4IterNtNtNtCs3tyqko2rdGU_12serde_derive9internals3ast7VariantEENCNvNtB4R_3ser14serialize_enum0EE0E0EB4R_, symObjAddr: 0x3248, symBinAddr: 0x6C7FC, symSize: 0x24 }
  - { offset: 0xCC12C, size: 0x8, addend: 0x0, symName: __RINvNtCs85QQFkKrybG_4core3ptr13drop_in_placeNCINvNvNtNtNtNtB4_4iter6traits8iterator8Iterator8for_each4callNtCsfwj6t2KTYdc_11proc_macro211TokenStreamNCINvMsi_NtCsdFlNUEO95cG_5alloc3vecINtB2v_3VecB1G_E14extend_trustedINtNtNtBT_8adapters3map3MapINtNtNtB4_5slice4iter4IterNtNtNtCs3tyqko2rdGU_12serde_derive9internals3ast5FieldENCNvNtB4o_3ser27wrap_serialize_variant_withs_0EE0E0EB4o_, symObjAddr: 0x326C, symBinAddr: 0x6C820, symSize: 0x24 }
  - { offset: 0xCC15B, size: 0x8, addend: 0x0, symName: __RINvNtCs85QQFkKrybG_4core3ptr13drop_in_placeNCINvNvNtNtNtNtB4_4iter6traits8iterator8Iterator8for_each4callNtCsfwj6t2KTYdc_11proc_macro25IdentNCINvMsi_NtCsdFlNUEO95cG_5alloc3vecINtB2o_3VecB1G_E14extend_trustedINtNtNtBT_8adapters3map3MapINtNtNtB4_3ops5range5RangejENCNCNvNtCs3tyqko2rdGU_12serde_derive7pretend21pretend_variants_used00EE0E0EB4l_, symObjAddr: 0x3290, symBinAddr: 0x6C844, symSize: 0x24 }
  - { offset: 0xCC18A, size: 0x8, addend: 0x0, symName: __RINvNtCs85QQFkKrybG_4core3ptr13drop_in_placeNCINvNvNtNtNtNtB4_4iter6traits8iterator8Iterator8for_each4callNtNtCs3tyqko2rdGU_12serde_derive2de16FieldWithAliasesNCINvMsi_NtCsdFlNUEO95cG_5alloc3vecINtB2G_3VecB1G_E14extend_trustedINtNtNtBT_8adapters3map3MapINtNtNtB4_5slice4iter4IterNtNtNtB1K_9internals3ast7VariantENCNvNtB1I_10identifier18deserialize_customs_0EE0E0EB1K_, symObjAddr: 0x32B4, symBinAddr: 0x6C868, symSize: 0x24 }
  - { offset: 0xCC1B9, size: 0x8, addend: 0x0, symName: __RINvNtCs85QQFkKrybG_4core3ptr13drop_in_placeNCINvNvNtNtNtNtB4_4iter6traits8iterator8Iterator8for_each4callNtNtCscwCr4GBBztI_3syn4expr6MemberNCINvMsi_NtCsdFlNUEO95cG_5alloc3vecINtB2n_3VecB1G_E14extend_trustedINtNtNtBT_8adapters3map3MapINtNtNtB4_3ops5range5RangejENCNvNtCs3tyqko2rdGU_12serde_derive3ser35serialize_adjacently_tagged_variants_0EE0E0EB4i_, symObjAddr: 0x32D8, symBinAddr: 0x6C88C, symSize: 0x24 }
  - { offset: 0xCC1E8, size: 0x8, addend: 0x0, symName: __RINvNtCs85QQFkKrybG_4core3ptr13drop_in_placeNCINvNvNtNtNtNtB4_4iter6traits8iterator8Iterator8for_each4callNtNtCscwCr4GBBztI_3syn4expr6MemberNCINvMsi_NtCsdFlNUEO95cG_5alloc3vecINtB2n_3VecB1G_E14extend_trustedINtNtNtBT_8adapters3map3MapINtNtNtB4_5slice4iter4IterNtNtNtCs3tyqko2rdGU_12serde_derive9internals3ast5FieldENCNvNtB4g_3ser35serialize_adjacently_tagged_variants0_0EE0E0EB4g_, symObjAddr: 0x32FC, symBinAddr: 0x6C8B0, symSize: 0x24 }
  - { offset: 0xCC217, size: 0x8, addend: 0x0, symName: __RINvNtCs85QQFkKrybG_4core3ptr13drop_in_placeNCINvNvNtNtNtNtB4_4iter6traits8iterator8Iterator8for_each4callRNtCsfwj6t2KTYdc_11proc_macro25IdentNCINvMsi_NtCsdFlNUEO95cG_5alloc3vecINtB2p_3VecB1G_E14extend_trustedINtNtNtBT_8adapters3map3MapINtNtNtB4_5slice4iter4IterNtNtCs3tyqko2rdGU_12serde_derive2de16FieldWithAliasesENCNvNtB4e_10identifier21deserialize_generated0EE0E0EB4g_, symObjAddr: 0x3320, symBinAddr: 0x6C8D4, symSize: 0x24 }
  - { offset: 0xCC246, size: 0x8, addend: 0x0, symName: __RINvNtCs85QQFkKrybG_4core3ptr13drop_in_placeNCINvNvNtNtNtNtB4_4iter6traits8iterator8Iterator8for_each4callRNtNtCscwCr4GBBztI_3syn2ty4TypeNCINvMsi_NtCsdFlNUEO95cG_5alloc3vecINtB2k_3VecB1G_E14extend_trustedINtNtNtBT_8adapters3map3MapINtNtNtB4_5slice4iter4IterNtNtNtCs3tyqko2rdGU_12serde_derive9internals3ast5FieldENCNvNtB4d_3ser27wrap_serialize_variant_with0EE0E0EB4d_, symObjAddr: 0x3344, symBinAddr: 0x6C8F8, symSize: 0x24 }
  - { offset: 0xCC275, size: 0x8, addend: 0x0, symName: __RINvNtCs85QQFkKrybG_4core3ptr13drop_in_placeNCINvNvNtNtNtNtB4_4iter6traits8iterator8Iterator8for_each4callRNtNtCscwCr4GBBztI_3syn4expr6MemberNCINvMsi_NtCsdFlNUEO95cG_5alloc3vecINtB2o_3VecB1G_E14extend_trustedINtNtNtBT_8adapters3map3MapINtNtNtB4_5slice4iter4IterNtNtNtCs3tyqko2rdGU_12serde_derive9internals3ast5FieldENCNvNtB4h_3ser37serialize_struct_variant_with_flattens0_0EE0E0EB4h_, symObjAddr: 0x3368, symBinAddr: 0x6C91C, symSize: 0x24 }
  - { offset: 0xCC2A4, size: 0x8, addend: 0x0, symName: __RINvNtCs85QQFkKrybG_4core3ptr13drop_in_placeNCINvNvNtNtNtNtB4_4iter6traits8iterator8Iterator8for_each4callRNtNtCscwCr4GBBztI_3syn4expr6MemberNCINvMsi_NtCsdFlNUEO95cG_5alloc3vecINtB2o_3VecB1G_E14extend_trustedINtNtNtBT_8adapters3map3MapINtNtNtB4_5slice4iter4IterNtNtNtCs3tyqko2rdGU_12serde_derive9internals3ast5FieldENCNvNtB4h_7pretend33pretend_fields_used_struct_packed0EE0E0EB4h_, symObjAddr: 0x338C, symBinAddr: 0x6C940, symSize: 0x24 }
  - { offset: 0xCC2D3, size: 0x8, addend: 0x0, symName: __RINvNtCs85QQFkKrybG_4core3ptr13drop_in_placeNCINvNvNtNtNtNtB4_4iter6traits8iterator8Iterator8for_each4callTRNtNtNtCs3tyqko2rdGU_12serde_derive9internals3ast5FieldNtCsfwj6t2KTYdc_11proc_macro25IdentENCINvMsi_NtCsdFlNUEO95cG_5alloc3vecINtB3j_3VecB1G_E14extend_trustedINtNtNtBT_8adapters3map3MapINtNtB4k_9enumerate9EnumerateINtNtNtB4_5slice4iter4IterB1I_EENCNvNtNtB1O_2de7struct_15deserialize_map0EE0E0EB1O_, symObjAddr: 0x33B0, symBinAddr: 0x6C964, symSize: 0x24 }
  - { offset: 0xCC302, size: 0x8, addend: 0x0, symName: __RINvNtCs85QQFkKrybG_4core3ptr13drop_in_placeNCINvNvNtNtNtNtB4_4iter6traits8iterator8Iterator8for_each4callhNCINvMsi_NtCsdFlNUEO95cG_5alloc3vecINtB1Q_3VechE14extend_trustedINtNtNtBT_8adapters3map3MapINtNtNtB4_5slice4iter4IterhENCNvNtB1S_3str13replace_ascii0EE0E0ECs3tyqko2rdGU_12serde_derive, symObjAddr: 0x33D4, symBinAddr: 0x6C988, symSize: 0x24 }
  - { offset: 0xCC331, size: 0x8, addend: 0x0, symName: __RINvNtCs85QQFkKrybG_4core3ptr13drop_in_placeNCINvNvXs_NtNtNtB4_4iter8adapters9enumerateINtBQ_9EnumeratepENtNtNtBU_6traits8iterator8Iterator4fold9enumerateRNtNtNtCs3tyqko2rdGU_12serde_derive9internals3ast5FielduNCINvNtBS_3map8map_foldTjB2s_ETB2s_NtCsfwj6t2KTYdc_11proc_macro25IdentEuNCNvNtNtB2z_2de7struct_15deserialize_map0NCINvNvB1F_8for_each4callB3Q_NCINvMsi_NtCsdFlNUEO95cG_5alloc3vecINtB5N_3VecB3Q_E14extend_trustedINtB3r_3MapIB1o_INtNtNtB4_5slice4iter4IterB2t_EEB4w_EE0E0E0E0EB2z_, symObjAddr: 0x33F8, symBinAddr: 0x6C9AC, symSize: 0x24 }
  - { offset: 0xCC360, size: 0x8, addend: 0x0, symName: __RINvNtCs85QQFkKrybG_4core3ptr13drop_in_placeNCINvNvXs_NtNtNtB4_4iter8adapters9enumerateINtBQ_9EnumeratepENtNtNtBU_6traits8iterator8Iterator4fold9enumerateRNtNtNtCs3tyqko2rdGU_12serde_derive9internals3ast7VariantuNCINvNtBS_3map8map_foldTjB2s_ENtCsfwj6t2KTYdc_11proc_macro211TokenStreamuNCNvNtB2z_3ser14serialize_enum0NCINvNvB1F_8for_each4callB3S_NCINvMsi_NtCsdFlNUEO95cG_5alloc3vecINtB5G_3VecB3S_E14extend_trustedINtB3t_3MapIB1o_INtNtNtB4_5slice4iter4IterB2t_EEB4z_EE0E0E0E0EB2z_, symObjAddr: 0x341C, symBinAddr: 0x6C9D0, symSize: 0x24 }
  - { offset: 0xCC38F, size: 0x8, addend: 0x0, symName: __RINvNtCs85QQFkKrybG_4core3ptr13drop_in_placeNCNCINvNtNtCs9bTl5rSDVcL_10proc_macro6bridge6client10run_clientNtBN_11TokenStreamINtNtB4_6option6OptionB1H_ENCNCINvMs6_BN_INtBN_6ClientNtBR_11TokenStreamB2R_E7expand1NvCs3tyqko2rdGU_12serde_derive16derive_serializeE00E00EB3o_, symObjAddr: 0x3440, symBinAddr: 0x6C9F4, symSize: 0x24 }
  - { offset: 0xCC3BE, size: 0x8, addend: 0x0, symName: __RINvNtCs85QQFkKrybG_4core3ptr13drop_in_placeNCNCINvNtNtCs9bTl5rSDVcL_10proc_macro6bridge6client10run_clientNtBN_11TokenStreamINtNtB4_6option6OptionB1H_ENCNCINvMs6_BN_INtBN_6ClientNtBR_11TokenStreamB2R_E7expand1NvCs3tyqko2rdGU_12serde_derive18derive_deserializeE00E00EB3o_, symObjAddr: 0x3464, symBinAddr: 0x6CA18, symSize: 0x24 }
  - { offset: 0xCC3ED, size: 0x8, addend: 0x0, symName: __RINvNtCs85QQFkKrybG_4core3ptr13drop_in_placeNtNtB4_4cell9BorrowRefECs3tyqko2rdGU_12serde_derive, symObjAddr: 0x3488, symBinAddr: 0x6CA3C, symSize: 0x24 }
  - { offset: 0xCC41C, size: 0x8, addend: 0x0, symName: __RINvNtCs85QQFkKrybG_4core3ptr13drop_in_placeNtNtCs3tyqko2rdGU_12serde_derive2de10ParametersEBK_, symObjAddr: 0x34AC, symBinAddr: 0x6CA60, symSize: 0xEC }
  - { offset: 0xCC44B, size: 0x8, addend: 0x0, symName: __RINvNtCs85QQFkKrybG_4core3ptr13drop_in_placeNtNtCs3tyqko2rdGU_12serde_derive2de16FieldWithAliasesEBK_, symObjAddr: 0x3598, symBinAddr: 0x6CB4C, symSize: 0x24 }
  - { offset: 0xCC47A, size: 0x8, addend: 0x0, symName: __RINvNtCs85QQFkKrybG_4core3ptr13drop_in_placeNtNtCs3tyqko2rdGU_12serde_derive2de17BorrowedLifetimesEBK_, symObjAddr: 0x35BC, symBinAddr: 0x6CB70, symSize: 0x40 }
  - { offset: 0xCC4A9, size: 0x8, addend: 0x0, symName: __RINvNtCs85QQFkKrybG_4core3ptr13drop_in_placeNtNtCs3tyqko2rdGU_12serde_derive3ser10ParametersEBK_, symObjAddr: 0x35FC, symBinAddr: 0x6CBB0, symSize: 0xBC }
  - { offset: 0xCC4D8, size: 0x8, addend: 0x0, symName: __RINvNtCs85QQFkKrybG_4core3ptr13drop_in_placeNtNtCs3tyqko2rdGU_12serde_derive8fragment4ExprEBK_, symObjAddr: 0x36B8, symBinAddr: 0x6CC6C, symSize: 0x24 }
  - { offset: 0xCC507, size: 0x8, addend: 0x0, symName: __RINvNtCs85QQFkKrybG_4core3ptr13drop_in_placeNtNtCs3tyqko2rdGU_12serde_derive8fragment5MatchEBK_, symObjAddr: 0x36DC, symBinAddr: 0x6CC90, symSize: 0x24 }
  - { offset: 0xCC536, size: 0x8, addend: 0x0, symName: __RINvNtCs85QQFkKrybG_4core3ptr13drop_in_placeNtNtCs3tyqko2rdGU_12serde_derive8fragment5StmtsEBK_, symObjAddr: 0x3700, symBinAddr: 0x6CCB4, symSize: 0x24 }
  - { offset: 0xCC565, size: 0x8, addend: 0x0, symName: __RINvNtCs85QQFkKrybG_4core3ptr13drop_in_placeNtNtCs3tyqko2rdGU_12serde_derive8fragment8FragmentEBK_, symObjAddr: 0x3724, symBinAddr: 0x6CCD8, symSize: 0x50 }
  - { offset: 0xCC594, size: 0x8, addend: 0x0, symName: __RINvNtCs85QQFkKrybG_4core3ptr13drop_in_placeNtNtCscwCr4GBBztI_3syn4meta15ParseNestedMetaECs3tyqko2rdGU_12serde_derive, symObjAddr: 0x3774, symBinAddr: 0x6CD28, symSize: 0x24 }
  - { offset: 0xCC5C3, size: 0x8, addend: 0x0, symName: __RINvNtCs85QQFkKrybG_4core3ptr13drop_in_placeNtNtCscwCr4GBBztI_3syn6derive10DataStructECs3tyqko2rdGU_12serde_derive, symObjAddr: 0x3798, symBinAddr: 0x6CD4C, symSize: 0x24 }
  - { offset: 0xCC5F2, size: 0x8, addend: 0x0, symName: __RINvNtCs85QQFkKrybG_4core3ptr13drop_in_placeNtNtCscwCr4GBBztI_3syn6derive11DeriveInputECs3tyqko2rdGU_12serde_derive, symObjAddr: 0x37BC, symBinAddr: 0x6CD70, symSize: 0xEC }
  - { offset: 0xCC621, size: 0x8, addend: 0x0, symName: __RINvNtCs85QQFkKrybG_4core3ptr13drop_in_placeNtNtCscwCr4GBBztI_3syn6derive4DataECs3tyqko2rdGU_12serde_derive, symObjAddr: 0x38A8, symBinAddr: 0x6CE5C, symSize: 0x80 }
  - { offset: 0xCC650, size: 0x8, addend: 0x0, symName: __RINvNtCs85QQFkKrybG_4core3ptr13drop_in_placeNtNtCscwCr4GBBztI_3syn6derive8DataEnumECs3tyqko2rdGU_12serde_derive, symObjAddr: 0x3928, symBinAddr: 0x6CEDC, symSize: 0x24 }
  - { offset: 0xCC67F, size: 0x8, addend: 0x0, symName: __RINvNtCs85QQFkKrybG_4core3ptr13drop_in_placeNtNtCscwCr4GBBztI_3syn6derive9DataUnionECs3tyqko2rdGU_12serde_derive, symObjAddr: 0x394C, symBinAddr: 0x6CF00, symSize: 0x24 }
  - { offset: 0xCC6AE, size: 0x8, addend: 0x0, symName: __RINvNtCs85QQFkKrybG_4core3ptr13drop_in_placeNtNtCscwCr4GBBztI_3syn8generics10TypeParamsECs3tyqko2rdGU_12serde_derive, symObjAddr: 0x3970, symBinAddr: 0x6CF24, symSize: 0x24 }
  - { offset: 0xCC6DD, size: 0x8, addend: 0x0, symName: __RINvNtCs85QQFkKrybG_4core3ptr13drop_in_placeNtNtCscwCr4GBBztI_3syn8generics9LifetimesECs3tyqko2rdGU_12serde_derive, symObjAddr: 0x3994, symBinAddr: 0x6CF48, symSize: 0x24 }
  - { offset: 0xCC70C, size: 0x8, addend: 0x0, symName: __RINvNtCs85QQFkKrybG_4core3ptr13drop_in_placeNtNtNtCs3tyqko2rdGU_12serde_derive9internals3ast4DataEBM_, symObjAddr: 0x39B8, symBinAddr: 0x6CF6C, symSize: 0x58 }
  - { offset: 0xCC73B, size: 0x8, addend: 0x0, symName: __RINvNtCs85QQFkKrybG_4core3ptr13drop_in_placeNtNtNtCs3tyqko2rdGU_12serde_derive9internals3ast5FieldEBM_, symObjAddr: 0x3A10, symBinAddr: 0x6CFC4, symSize: 0x5C }
  - { offset: 0xCC76A, size: 0x8, addend: 0x0, symName: __RINvNtCs85QQFkKrybG_4core3ptr13drop_in_placeNtNtNtCs3tyqko2rdGU_12serde_derive9internals3ast7VariantEBM_, symObjAddr: 0x3A6C, symBinAddr: 0x6D020, symSize: 0x8C }
  - { offset: 0xCC799, size: 0x8, addend: 0x0, symName: __RINvNtCs85QQFkKrybG_4core3ptr13drop_in_placeNtNtNtCs3tyqko2rdGU_12serde_derive9internals3ast9ContainerEBM_, symObjAddr: 0x3AF8, symBinAddr: 0x6D0AC, symSize: 0x8C }
  - { offset: 0xCC7C8, size: 0x8, addend: 0x0, symName: __RINvNtCs85QQFkKrybG_4core3ptr13drop_in_placeNtNtNtCs3tyqko2rdGU_12serde_derive9internals4attr15BorrowAttributeEBM_, symObjAddr: 0x3B84, symBinAddr: 0x6D138, symSize: 0x5C }
  - { offset: 0xCC7F7, size: 0x8, addend: 0x0, symName: __RINvNtCs85QQFkKrybG_4core3ptr13drop_in_placeNtNtNtCs3tyqko2rdGU_12serde_derive9internals4attr5FieldEBM_, symObjAddr: 0x3BE0, symBinAddr: 0x6D194, symSize: 0x1B0 }
  - { offset: 0xCC826, size: 0x8, addend: 0x0, symName: __RINvNtCs85QQFkKrybG_4core3ptr13drop_in_placeNtNtNtCs3tyqko2rdGU_12serde_derive9internals4attr7DefaultEBM_, symObjAddr: 0x3D90, symBinAddr: 0x6D344, symSize: 0x5C }
  - { offset: 0xCC855, size: 0x8, addend: 0x0, symName: __RINvNtCs85QQFkKrybG_4core3ptr13drop_in_placeNtNtNtCs3tyqko2rdGU_12serde_derive9internals4attr7TagTypeEBM_, symObjAddr: 0x3DEC, symBinAddr: 0x6D3A0, symSize: 0xB8 }
  - { offset: 0xCC884, size: 0x8, addend: 0x0, symName: __RINvNtCs85QQFkKrybG_4core3ptr13drop_in_placeNtNtNtCs3tyqko2rdGU_12serde_derive9internals4attr7VariantEBM_, symObjAddr: 0x3EA4, symBinAddr: 0x6D458, symSize: 0x11C }
  - { offset: 0xCC8B3, size: 0x8, addend: 0x0, symName: __RINvNtCs85QQFkKrybG_4core3ptr13drop_in_placeNtNtNtCs3tyqko2rdGU_12serde_derive9internals4attr8BoolAttrEBM_, symObjAddr: 0x3FC0, symBinAddr: 0x6D574, symSize: 0x24 }
  - { offset: 0xCC8E2, size: 0x8, addend: 0x0, symName: __RINvNtCs85QQFkKrybG_4core3ptr13drop_in_placeNtNtNtCs3tyqko2rdGU_12serde_derive9internals4attr9ContainerEBM_, symObjAddr: 0x3FE4, symBinAddr: 0x6D598, symSize: 0x20C }
  - { offset: 0xCC911, size: 0x8, addend: 0x0, symName: __RINvNtCs85QQFkKrybG_4core3ptr13drop_in_placeNtNtNtCs3tyqko2rdGU_12serde_derive9internals4ctxt4CtxtEBM_, symObjAddr: 0x41F0, symBinAddr: 0x6D7A4, symSize: 0x5C }
  - { offset: 0xCC940, size: 0x8, addend: 0x0, symName: __RINvNtCs85QQFkKrybG_4core3ptr13drop_in_placeNtNtNtCs3tyqko2rdGU_12serde_derive9internals4name4NameEBM_, symObjAddr: 0x424C, symBinAddr: 0x6D800, symSize: 0x24 }
  - { offset: 0xCC96F, size: 0x8, addend: 0x0, symName: __RINvNtCs85QQFkKrybG_4core3ptr13drop_in_placeNtNtNtCs3tyqko2rdGU_12serde_derive9internals4name9MultiNameEBM_, symObjAddr: 0x4270, symBinAddr: 0x6D824, symSize: 0x90 }
  - { offset: 0xCC99E, size: 0x8, addend: 0x0, symName: __RINvNtCs85QQFkKrybG_4core3ptr13drop_in_placeNtNtNtCs9bTl5rSDVcL_10proc_macro6bridge3rpc12PanicMessageECs3tyqko2rdGU_12serde_derive, symObjAddr: 0x4300, symBinAddr: 0x6D8B4, symSize: 0x54 }
  - { offset: 0xCC9CD, size: 0x8, addend: 0x0, symName: __RINvNtCs85QQFkKrybG_4core3ptr13drop_in_placeNtNtNtCs9bTl5rSDVcL_10proc_macro6bridge6buffer6BufferECs3tyqko2rdGU_12serde_derive, symObjAddr: 0x4354, symBinAddr: 0x6D908, symSize: 0x24 }
  - { offset: 0xCC9FC, size: 0x8, addend: 0x0, symName: __RINvNtCs85QQFkKrybG_4core3ptr13drop_in_placeNtNtNtCs9bTl5rSDVcL_10proc_macro6bridge6client6BridgeECs3tyqko2rdGU_12serde_derive, symObjAddr: 0x4378, symBinAddr: 0x6D92C, symSize: 0x24 }
  - { offset: 0xCCA2B, size: 0x8, addend: 0x0, symName: __RINvNtCs85QQFkKrybG_4core3ptr13drop_in_placeNtNtNtCswz7ZwgBZOU_3std2io5error5ErrorECs3tyqko2rdGU_12serde_derive, symObjAddr: 0x439C, symBinAddr: 0x6D950, symSize: 0x24 }
  - { offset: 0xCCA5A, size: 0x8, addend: 0x0, symName: __RINvNtCs85QQFkKrybG_4core3ptr13drop_in_placeNtNtNtCswz7ZwgBZOU_3std2io5error6CustomECs3tyqko2rdGU_12serde_derive, symObjAddr: 0x43C0, symBinAddr: 0x6D974, symSize: 0x24 }
  - { offset: 0xCCA89, size: 0x8, addend: 0x0, symName: __RINvNtCs85QQFkKrybG_4core3ptr13drop_in_placeNtNtNtNtCswz7ZwgBZOU_3std2io5error14repr_bitpacked4ReprECs3tyqko2rdGU_12serde_derive, symObjAddr: 0x43E4, symBinAddr: 0x6D998, symSize: 0x24 }
  - { offset: 0xCCAB8, size: 0x8, addend: 0x0, symName: __RINvNtCs85QQFkKrybG_4core3ptr13drop_in_placeNtNvNtNtNtCs9bTl5rSDVcL_10proc_macro6bridge6client5state3set13RestoreOnDropECs3tyqko2rdGU_12serde_derive, symObjAddr: 0x4408, symBinAddr: 0x6D9BC, symSize: 0x24 }
  - { offset: 0xCCAE7, size: 0x8, addend: 0x0, symName: __RINvNtCs85QQFkKrybG_4core3ptr13drop_in_placeNtNvNtNtNtCsdFlNUEO95cG_5alloc11collections5btree3mem7replace10PanicGuardECs3tyqko2rdGU_12serde_derive, symObjAddr: 0x442C, symBinAddr: 0x6D9E0, symSize: 0x24 }
  - { offset: 0xCCB16, size: 0x8, addend: 0x0, symName: __RINvNtCs85QQFkKrybG_4core3ptr13drop_in_placeSINtNtCsdFlNUEO95cG_5alloc3vec3VecNtNtCscwCr4GBBztI_3syn8generics14WherePredicateEECs3tyqko2rdGU_12serde_derive, symObjAddr: 0x4450, symBinAddr: 0x6DA04, symSize: 0xC4 }
  - { offset: 0xCCB45, size: 0x8, addend: 0x0, symName: __RINvNtCs85QQFkKrybG_4core3ptr13drop_in_placeSNtCsfwj6t2KTYdc_11proc_macro211TokenStreamECs3tyqko2rdGU_12serde_derive, symObjAddr: 0x4514, symBinAddr: 0x6DAC8, symSize: 0xB4 }
  - { offset: 0xCCB74, size: 0x8, addend: 0x0, symName: __RINvNtCs85QQFkKrybG_4core3ptr13drop_in_placeSNtCsfwj6t2KTYdc_11proc_macro25IdentECs3tyqko2rdGU_12serde_derive, symObjAddr: 0x45C8, symBinAddr: 0x6DB7C, symSize: 0xC4 }
  - { offset: 0xCCBA3, size: 0x8, addend: 0x0, symName: __RINvNtCs85QQFkKrybG_4core3ptr13drop_in_placeSNtNtCs3tyqko2rdGU_12serde_derive2de16FieldWithAliasesEBL_, symObjAddr: 0x468C, symBinAddr: 0x6DC40, symSize: 0xB4 }
  - { offset: 0xCCBD2, size: 0x8, addend: 0x0, symName: __RINvNtCs85QQFkKrybG_4core3ptr13drop_in_placeSNtNtCscwCr4GBBztI_3syn3lit6LitStrECs3tyqko2rdGU_12serde_derive, symObjAddr: 0x4740, symBinAddr: 0x6DCF4, symSize: 0xB4 }
  - { offset: 0xCCC01, size: 0x8, addend: 0x0, symName: __RINvNtCs85QQFkKrybG_4core3ptr13drop_in_placeSNtNtCscwCr4GBBztI_3syn4expr6MemberECs3tyqko2rdGU_12serde_derive, symObjAddr: 0x47F4, symBinAddr: 0x6DDA8, symSize: 0xC4 }
  - { offset: 0xCCC30, size: 0x8, addend: 0x0, symName: __RINvNtCs85QQFkKrybG_4core3ptr13drop_in_placeSNtNtCscwCr4GBBztI_3syn4path11PathSegmentECs3tyqko2rdGU_12serde_derive, symObjAddr: 0x48B8, symBinAddr: 0x6DE6C, symSize: 0xC4 }
  - { offset: 0xCCC5F, size: 0x8, addend: 0x0, symName: __RINvNtCs85QQFkKrybG_4core3ptr13drop_in_placeSNtNtCscwCr4GBBztI_3syn5error5ErrorECs3tyqko2rdGU_12serde_derive, symObjAddr: 0x497C, symBinAddr: 0x6DF30, symSize: 0xC4 }
  - { offset: 0xCCC8E, size: 0x8, addend: 0x0, symName: __RINvNtCs85QQFkKrybG_4core3ptr13drop_in_placeSNtNtCscwCr4GBBztI_3syn8generics12GenericParamECs3tyqko2rdGU_12serde_derive, symObjAddr: 0x4A40, symBinAddr: 0x6DFF4, symSize: 0xC4 }
  - { offset: 0xCCCBD, size: 0x8, addend: 0x0, symName: __RINvNtCs85QQFkKrybG_4core3ptr13drop_in_placeSNtNtCscwCr4GBBztI_3syn8generics14WherePredicateECs3tyqko2rdGU_12serde_derive, symObjAddr: 0x4B04, symBinAddr: 0x6E0B8, symSize: 0xC4 }
  - { offset: 0xCCCEC, size: 0x8, addend: 0x0, symName: __RINvNtCs85QQFkKrybG_4core3ptr13drop_in_placeSNtNtNtCs3tyqko2rdGU_12serde_derive9internals3ast5FieldEBN_, symObjAddr: 0x4BC8, symBinAddr: 0x6E17C, symSize: 0xC4 }
  - { offset: 0xCCD1B, size: 0x8, addend: 0x0, symName: __RINvNtCs85QQFkKrybG_4core3ptr13drop_in_placeSNtNtNtCs3tyqko2rdGU_12serde_derive9internals3ast7VariantEBN_, symObjAddr: 0x4C8C, symBinAddr: 0x6E240, symSize: 0xC4 }
  - { offset: 0xCCD4A, size: 0x8, addend: 0x0, symName: __RINvNtCs85QQFkKrybG_4core3ptr13drop_in_placeSNtNtNtCs3tyqko2rdGU_12serde_derive9internals4name4NameEBN_, symObjAddr: 0x4D50, symBinAddr: 0x6E304, symSize: 0xB4 }
  - { offset: 0xCCD79, size: 0x8, addend: 0x0, symName: __RINvNtCs85QQFkKrybG_4core3ptr13drop_in_placeSTRNtNtNtCs3tyqko2rdGU_12serde_derive9internals3ast5FieldNtCsfwj6t2KTYdc_11proc_macro25IdentEEBP_, symObjAddr: 0x4E04, symBinAddr: 0x6E3B8, symSize: 0xB4 }
  - { offset: 0xCCDA8, size: 0x8, addend: 0x0, symName: __RINvNtCs85QQFkKrybG_4core3ptr13drop_in_placeTNtCsfwj6t2KTYdc_11proc_macro211TokenStreamNtNtCsdFlNUEO95cG_5alloc6string6StringEECs3tyqko2rdGU_12serde_derive, symObjAddr: 0x4EB8, symBinAddr: 0x6E46C, symSize: 0x60 }
  - { offset: 0xCCDD7, size: 0x8, addend: 0x0, symName: __RINvNtCs85QQFkKrybG_4core3ptr13drop_in_placeTNtCsfwj6t2KTYdc_11proc_macro211TokenStreamuEECs3tyqko2rdGU_12serde_derive, symObjAddr: 0x4F18, symBinAddr: 0x6E4CC, symSize: 0x24 }
  - { offset: 0xCCE06, size: 0x8, addend: 0x0, symName: __RINvNtCs85QQFkKrybG_4core3ptr13drop_in_placeTNtCsfwj6t2KTYdc_11proc_macro25IdentuEECs3tyqko2rdGU_12serde_derive, symObjAddr: 0x4F3C, symBinAddr: 0x6E4F0, symSize: 0x24 }
  - { offset: 0xCCE35, size: 0x8, addend: 0x0, symName: __RINvNtCs85QQFkKrybG_4core3ptr13drop_in_placeTNtNtCscwCr4GBBztI_3syn8lifetime8LifetimeNtNtNtNtCsdFlNUEO95cG_5alloc11collections5btree7set_val9SetValZSTEECs3tyqko2rdGU_12serde_derive, symObjAddr: 0x4F60, symBinAddr: 0x6E514, symSize: 0x24 }
  - { offset: 0xCCE64, size: 0x8, addend: 0x0, symName: __RINvNtCs85QQFkKrybG_4core3ptr13drop_in_placeTNtNtNtCs3tyqko2rdGU_12serde_derive9internals4name4NameNtNtNtNtCsdFlNUEO95cG_5alloc11collections5btree7set_val9SetValZSTEEBN_, symObjAddr: 0x4F84, symBinAddr: 0x6E538, symSize: 0x24 }
  - { offset: 0xCCE93, size: 0x8, addend: 0x0, symName: __RINvNtCs85QQFkKrybG_4core3ptr13drop_in_placeTRNtNtNtCs3tyqko2rdGU_12serde_derive9internals3ast5FieldNtCsfwj6t2KTYdc_11proc_macro25IdentEEBO_, symObjAddr: 0x4FA8, symBinAddr: 0x6E55C, symSize: 0x24 }
  - { offset: 0xCD370, size: 0x8, addend: 0x0, symName: __RNvXs7_NtNtCs85QQFkKrybG_4core3cmp5implsRNtNtCsdFlNUEO95cG_5alloc6string6StringNtB7_9PartialEq2eqCs3tyqko2rdGU_12serde_derive, symObjAddr: 0xDE14, symBinAddr: 0x773C8, symSize: 0x34 }
  - { offset: 0xD1727, size: 0x8, addend: 0x0, symName: __RINvNtNtNtNtCs85QQFkKrybG_4core9core_arch10arm_shared4neon9generated13vget_lane_u64Kl0_ECs3tyqko2rdGU_12serde_derive, symObjAddr: 0x5034, symBinAddr: 0x6E5E8, symSize: 0x18 }
  - { offset: 0xD1756, size: 0x8, addend: 0x0, symName: __RNvNtNtNtNtCs85QQFkKrybG_4core9core_arch10arm_shared4neon9generated18vreinterpret_s8_u8Cs3tyqko2rdGU_12serde_derive, symObjAddr: 0xD310, symBinAddr: 0x768C4, symSize: 0xC }
  - { offset: 0xD1784, size: 0x8, addend: 0x0, symName: __RNvNtNtNtNtCs85QQFkKrybG_4core9core_arch10arm_shared4neon9generated19vreinterpret_u64_u8Cs3tyqko2rdGU_12serde_derive, symObjAddr: 0xD31C, symBinAddr: 0x768D0, symSize: 0xC }
  - { offset: 0xD17B2, size: 0x8, addend: 0x0, symName: __RNvNtNtNtNtCs85QQFkKrybG_4core9core_arch10arm_shared4neon9generated7vceq_u8Cs3tyqko2rdGU_12serde_derive, symObjAddr: 0xD328, symBinAddr: 0x768DC, symSize: 0x14 }
  - { offset: 0xD17EF, size: 0x8, addend: 0x0, symName: __RNvNtNtNtNtCs85QQFkKrybG_4core9core_arch10arm_shared4neon9generated7vorr_u8Cs3tyqko2rdGU_12serde_derive, symObjAddr: 0xD33C, symBinAddr: 0x768F0, symSize: 0x14 }
  - { offset: 0xD182C, size: 0x8, addend: 0x0, symName: __RNvNtNtNtNtCs85QQFkKrybG_4core9core_arch10arm_shared4neon9generated9vdup_n_u8Cs3tyqko2rdGU_12serde_derive, symObjAddr: 0xD350, symBinAddr: 0x76904, symSize: 0x2C }
  - { offset: 0xD1CB0, size: 0x8, addend: 0x0, symName: __RNvMNtCs85QQFkKrybG_4core5sliceSh15copy_from_sliceCs3tyqko2rdGU_12serde_derive, symObjAddr: 0x6944, symBinAddr: 0x6FEF8, symSize: 0xAC }
  - { offset: 0xD1D80, size: 0x8, addend: 0x0, symName: __RNvNvMNtCs85QQFkKrybG_4core5sliceSp18split_at_unchecked18precondition_checkCs3tyqko2rdGU_12serde_derive, symObjAddr: 0xD37C, symBinAddr: 0x76930, symSize: 0xAC }
  - { offset: 0xD1F13, size: 0x8, addend: 0x0, symName: __RNvMNtCs85QQFkKrybG_4core3stre12char_indicesCs3tyqko2rdGU_12serde_derive, symObjAddr: 0x66EC, symBinAddr: 0x6FCA0, symSize: 0x3C }
  - { offset: 0xD1F5F, size: 0x8, addend: 0x0, symName: __RNvMNtCs85QQFkKrybG_4core3stre20make_ascii_lowercaseCs3tyqko2rdGU_12serde_derive, symObjAddr: 0x6728, symBinAddr: 0x6FCDC, symSize: 0xF0 }
  - { offset: 0xD2056, size: 0x8, addend: 0x0, symName: __RNvMNtCs85QQFkKrybG_4core3stre20make_ascii_uppercaseCs3tyqko2rdGU_12serde_derive, symObjAddr: 0x6818, symBinAddr: 0x6FDCC, symSize: 0xF0 }
  - { offset: 0xD212F, size: 0x8, addend: 0x0, symName: __RNvMNtCs85QQFkKrybG_4core3stre5charsCs3tyqko2rdGU_12serde_derive, symObjAddr: 0x6908, symBinAddr: 0x6FEBC, symSize: 0x20 }
  - { offset: 0xD219D, size: 0x8, addend: 0x0, symName: __RNvMNtCs85QQFkKrybG_4core3stre8is_emptyCs3tyqko2rdGU_12serde_derive, symObjAddr: 0x6928, symBinAddr: 0x6FEDC, symSize: 0x1C }
  - { offset: 0xD2B78, size: 0x8, addend: 0x0, symName: __RNSNvYNCINvMs6_NtCsfieuf5LernF_9hashbrown3rawINtBd_8RawTableTNtCsfwj6t2KTYdc_11proc_macro25IdentuEE14reserve_rehashNCINvNtBf_3map11make_hasherBX_uNtNtNtCswz7ZwgBZOU_3std4hash6random11RandomStateE0E0INtNtNtCs85QQFkKrybG_4core3ops8function6FnOnceTQNtBd_13RawTableInnerjEE9call_once6vtableCs3tyqko2rdGU_12serde_derive, symObjAddr: 0x6644, symBinAddr: 0x6FBF8, symSize: 0x38 }
  - { offset: 0xD2BBC, size: 0x8, addend: 0x0, symName: __RNSNvYNCINvMs6_NtCsfieuf5LernF_9hashbrown3rawINtBd_8RawTableTNtCsfwj6t2KTYdc_11proc_macro25IdentuEE24find_or_find_insert_slotNCINvNtBf_3map14equivalent_keyBX_BX_uE0NCINvB24_11make_hasherBX_uNtNtNtCswz7ZwgBZOU_3std4hash6random11RandomStateE0E0INtNtNtCs85QQFkKrybG_4core3ops8function6FnOnceTjEE9call_once6vtableCs3tyqko2rdGU_12serde_derive, symObjAddr: 0x667C, symBinAddr: 0x6FC30, symSize: 0x38 }
  - { offset: 0xD2C00, size: 0x8, addend: 0x0, symName: __RNSNvYNCINvMs6_NtCsfieuf5LernF_9hashbrown3rawINtBd_8RawTableTNtCsfwj6t2KTYdc_11proc_macro25IdentuEE4findNCINvNtBf_3map14equivalent_keyBX_BX_uE0E0INtNtNtCs85QQFkKrybG_4core3ops8function6FnOnceTjEE9call_once6vtableCs3tyqko2rdGU_12serde_derive, symObjAddr: 0x66B4, symBinAddr: 0x6FC68, symSize: 0x38 }
  - { offset: 0xD2C44, size: 0x8, addend: 0x0, symName: __RNvYNCINvMs6_NtCsfieuf5LernF_9hashbrown3rawINtBb_8RawTableTNtCsfwj6t2KTYdc_11proc_macro25IdentuEE14reserve_rehashNCINvNtBd_3map11make_hasherBV_uNtNtNtCswz7ZwgBZOU_3std4hash6random11RandomStateE0E0INtNtNtCs85QQFkKrybG_4core3ops8function6FnOnceTQNtBb_13RawTableInnerjEE9call_onceCs3tyqko2rdGU_12serde_derive, symObjAddr: 0xE270, symBinAddr: 0x77824, symSize: 0x5C }
  - { offset: 0xD2C88, size: 0x8, addend: 0x0, symName: __RNvYNCINvMs6_NtCsfieuf5LernF_9hashbrown3rawINtBb_8RawTableTNtCsfwj6t2KTYdc_11proc_macro25IdentuEE14reserve_rehashNCINvNtBd_3map11make_hasherBV_uNtNtNtCswz7ZwgBZOU_3std4hash6random11RandomStateE0Es_0INtNtNtCs85QQFkKrybG_4core3ops8function6FnOnceTOhEE9call_onceCs3tyqko2rdGU_12serde_derive, symObjAddr: 0xE2CC, symBinAddr: 0x77880, symSize: 0x44 }
  - { offset: 0xD2CC8, size: 0x8, addend: 0x0, symName: __RNvYNCINvMs6_NtCsfieuf5LernF_9hashbrown3rawINtBb_8RawTableTNtCsfwj6t2KTYdc_11proc_macro25IdentuEE24find_or_find_insert_slotNCINvNtBd_3map14equivalent_keyBV_BV_uE0NCINvB22_11make_hasherBV_uNtNtNtCswz7ZwgBZOU_3std4hash6random11RandomStateE0E0INtNtNtCs85QQFkKrybG_4core3ops8function6FnOnceTjEE9call_onceCs3tyqko2rdGU_12serde_derive, symObjAddr: 0xE310, symBinAddr: 0x778C4, symSize: 0x58 }
  - { offset: 0xD2D0C, size: 0x8, addend: 0x0, symName: __RNvYNCINvMs6_NtCsfieuf5LernF_9hashbrown3rawINtBb_8RawTableTNtCsfwj6t2KTYdc_11proc_macro25IdentuEE4findNCINvNtBd_3map14equivalent_keyBV_BV_uE0E0INtNtNtCs85QQFkKrybG_4core3ops8function6FnOnceTjEE9call_onceCs3tyqko2rdGU_12serde_derive, symObjAddr: 0xE368, symBinAddr: 0x7791C, symSize: 0x58 }
  - { offset: 0xD2D50, size: 0x8, addend: 0x0, symName: __RNvYNCNkNvNtNtNtCs9bTl5rSDVcL_10proc_macro6bridge6client5state12BRIDGE_STATE0s_0INtNtNtCs85QQFkKrybG_4core3ops8function6FnOnceTINtNtB1n_6option6OptionQIB22_INtNtB1n_4cell4CellPuEEEEE9call_onceCs3tyqko2rdGU_12serde_derive, symObjAddr: 0xE3C0, symBinAddr: 0x77974, symSize: 0x4C }
  - { offset: 0xD2D94, size: 0x8, addend: 0x0, symName: __RNvYNCNkNvNvMNtNtCswz7ZwgBZOU_3std4hash6randomNtBb_11RandomState3new4KEYS0s_0INtNtNtCs85QQFkKrybG_4core3ops8function6FnOnceTINtNtB1k_6option6OptionQIB1Z_INtNtB1k_4cell4CellTyyEEEEEE9call_onceCs3tyqko2rdGU_12serde_derive, symObjAddr: 0xE40C, symBinAddr: 0x779C0, symSize: 0x4C }
  - { offset: 0xD2DD8, size: 0x8, addend: 0x0, symName: __RNvYNCNvMs3_NtNtCs3tyqko2rdGU_12serde_derive9internals4attrNtBa_9Container8from_asts_0INtNtNtCs85QQFkKrybG_4core3ops8function6FnOnceTRNtNtCscwCr4GBBztI_3syn5parse11ParseBufferEE9call_onceBe_, symObjAddr: 0xE458, symBinAddr: 0x77A0C, symSize: 0x4C }
  - { offset: 0xD2E1C, size: 0x8, addend: 0x0, symName: __RNvYNCNvNtNtCs3tyqko2rdGU_12serde_derive9internals4attr24parse_lit_into_lifetimes0INtNtNtCs85QQFkKrybG_4core3ops8function6FnOnceTRNtNtCscwCr4GBBztI_3syn5parse11ParseBufferEE9call_onceBa_, symObjAddr: 0xE4F4, symBinAddr: 0x77AA8, symSize: 0x50 }
  - { offset: 0xD2E60, size: 0x8, addend: 0x0, symName: __RNvYNcNtINtNtCs85QQFkKrybG_4core6result6ResultuINtNtNtBb_3num7nonzero7NonZerojEE3Err0INtNtNtBb_3ops8function6FnOnceTBJ_EE9call_onceCs3tyqko2rdGU_12serde_derive, symObjAddr: 0xE544, symBinAddr: 0x77AF8, symSize: 0x24 }
  - { offset: 0xD2EA4, size: 0x8, addend: 0x0, symName: __RNvYNvMNtCscwCr4GBBztI_3syn10punctuatedINtB5_10PunctuatedNtNtB7_8generics14WherePredicateNtNtB7_5token5CommaE16parse_terminatedINtNtNtCs85QQFkKrybG_4core3ops8function6FnOnceTRNtNtB7_5parse11ParseBufferEE9call_onceCs3tyqko2rdGU_12serde_derive, symObjAddr: 0xE5B8, symBinAddr: 0x77B6C, symSize: 0x24 }
  - { offset: 0xD2EE8, size: 0x8, addend: 0x0, symName: __RNvYNvMNtCscwCr4GBBztI_3syn5errorNtB5_5Error18into_compile_errorINtNtNtCs85QQFkKrybG_4core3ops8function6FnOnceTBv_EE9call_onceCs3tyqko2rdGU_12serde_derive, symObjAddr: 0xE5DC, symBinAddr: 0x77B90, symSize: 0x34 }
  - { offset: 0xD2F2C, size: 0x8, addend: 0x0, symName: __RNvYNvNvNvMNtNtCswz7ZwgBZOU_3std4hash6randomNtB9_11RandomState3new4KEYS6___initINtNtNtCs85QQFkKrybG_4core3ops8function6FnOnceuE9call_onceCs3tyqko2rdGU_12serde_derive, symObjAddr: 0xE718, symBinAddr: 0x77CCC, symSize: 0x1C }
  - { offset: 0xD2F70, size: 0x8, addend: 0x0, symName: __RNvYNvYINtNtCs85QQFkKrybG_4core6option8IntoIterNtNtCscwCr4GBBztI_3syn8generics12GenericParamENtNtNtNtBa_4iter6traits8iterator8Iterator4nextINtNtNtBa_3ops8function6FnOnceTQB5_EE9call_onceCs3tyqko2rdGU_12serde_derive, symObjAddr: 0xE734, symBinAddr: 0x77CE8, symSize: 0x24 }
  - { offset: 0xD2FB4, size: 0x8, addend: 0x0, symName: __RNvYNvYINtNtCsdFlNUEO95cG_5alloc5boxed3BoxNtNtCscwCr4GBBztI_3syn2ty4TypeEINtNtCs85QQFkKrybG_4core7convert5AsMutBE_E6as_mutINtNtNtB1e_3ops8function6FnOnceTQB5_EE9call_onceCs3tyqko2rdGU_12serde_derive, symObjAddr: 0xE758, symBinAddr: 0x77D0C, symSize: 0x24 }
  - { offset: 0xD2FF8, size: 0x8, addend: 0x0, symName: __RNvYNvYINtNtCsdFlNUEO95cG_5alloc5boxed3BoxNtNtCscwCr4GBBztI_3syn2ty9BareFnArgEINtNtCs85QQFkKrybG_4core7convert5AsMutBE_E6as_mutINtNtNtB1j_3ops8function6FnOnceTQB5_EE9call_onceCs3tyqko2rdGU_12serde_derive, symObjAddr: 0xE77C, symBinAddr: 0x77D30, symSize: 0x24 }
  - { offset: 0xD303C, size: 0x8, addend: 0x0, symName: __RNvYNvYINtNtCsdFlNUEO95cG_5alloc5boxed3BoxNtNtCscwCr4GBBztI_3syn4data7VariantEINtNtCs85QQFkKrybG_4core7convert5AsMutBE_E6as_mutINtNtNtB1j_3ops8function6FnOnceTQB5_EE9call_onceCs3tyqko2rdGU_12serde_derive, symObjAddr: 0xE7A0, symBinAddr: 0x77D54, symSize: 0x24 }
  - { offset: 0xD3080, size: 0x8, addend: 0x0, symName: __RNvYNvYINtNtCsdFlNUEO95cG_5alloc5boxed3BoxNtNtCscwCr4GBBztI_3syn4expr4ExprEINtNtCs85QQFkKrybG_4core7convert5AsMutBE_E6as_mutINtNtNtB1g_3ops8function6FnOnceTQB5_EE9call_onceCs3tyqko2rdGU_12serde_derive, symObjAddr: 0xE7C4, symBinAddr: 0x77D78, symSize: 0x24 }
  - { offset: 0xD30C4, size: 0x8, addend: 0x0, symName: __RNvYNvYINtNtCsdFlNUEO95cG_5alloc5boxed3BoxNtNtCscwCr4GBBztI_3syn4path15GenericArgumentEINtNtCs85QQFkKrybG_4core7convert5AsMutBE_E6as_mutINtNtNtB1s_3ops8function6FnOnceTQB5_EE9call_onceCs3tyqko2rdGU_12serde_derive, symObjAddr: 0xE7E8, symBinAddr: 0x77D9C, symSize: 0x24 }
  - { offset: 0xD3108, size: 0x8, addend: 0x0, symName: __RNvYNvYINtNtCsdFlNUEO95cG_5alloc5boxed3BoxNtNtCscwCr4GBBztI_3syn8generics14TypeParamBoundEINtNtCs85QQFkKrybG_4core7convert5AsMutBE_E6as_mutINtNtNtB1v_3ops8function6FnOnceTQB5_EE9call_onceCs3tyqko2rdGU_12serde_derive, symObjAddr: 0xE80C, symBinAddr: 0x77DC0, symSize: 0x24 }
  - { offset: 0xD314C, size: 0x8, addend: 0x0, symName: __RNvYNvYINtNtCsdFlNUEO95cG_5alloc5boxed3BoxNtNtCscwCr4GBBztI_3syn8generics14WherePredicateEINtNtCs85QQFkKrybG_4core7convert5AsMutBE_E6as_mutINtNtNtB1v_3ops8function6FnOnceTQB5_EE9call_onceCs3tyqko2rdGU_12serde_derive, symObjAddr: 0xE830, symBinAddr: 0x77DE4, symSize: 0x24 }
  - { offset: 0xD3190, size: 0x8, addend: 0x0, symName: __RNvYNvYINtNtNtCs85QQFkKrybG_4core5slice4iter4IterNtNtNtCs3tyqko2rdGU_12serde_derive9internals3ast5FieldENtNtNtNtBc_4iter6traits8iterator8Iterator4nextINtNtNtBc_3ops8function6FnOnceTQB5_EE9call_onceBR_, symObjAddr: 0xE854, symBinAddr: 0x77E08, symSize: 0x24 }
  - { offset: 0xD31D4, size: 0x8, addend: 0x0, symName: __RNvYNvYINtNtNtCs85QQFkKrybG_4core5slice4iter4IterNtNtNtCs3tyqko2rdGU_12serde_derive9internals3ast5FieldENtNtNtNtBc_4iter6traits8iterator8Iterator9size_hintINtNtNtBc_3ops8function6FnOnceTRB5_EE9call_onceBR_, symObjAddr: 0xE878, symBinAddr: 0x77E2C, symSize: 0x24 }
  - { offset: 0xD3218, size: 0x8, addend: 0x0, symName: __RNvYNvYINtNtNtCsdFlNUEO95cG_5alloc3vec9into_iter8IntoIterNtNtCscwCr4GBBztI_3syn8generics14WherePredicateENtNtNtNtCs85QQFkKrybG_4core4iter6traits8iterator8Iterator4nextINtNtNtB1N_3ops8function6FnOnceTQB5_EE9call_onceCs3tyqko2rdGU_12serde_derive, symObjAddr: 0xE89C, symBinAddr: 0x77E50, symSize: 0x24 }
  - { offset: 0xD325C, size: 0x8, addend: 0x0, symName: __RNvYNvYINtNtNtNtCs85QQFkKrybG_4core4iter8adapters3map3MapINtNtBa_10filter_map9FilterMapINtNtCsdFlNUEO95cG_5alloc5boxed3BoxDNtNtNtBc_6traits8iterator8Iteratorp4ItemRNtNtNtCs3tyqko2rdGU_12serde_derive9internals3ast5FieldEL_ENCNvNtB2I_5bound33with_where_predicates_from_fields0ENvMNtB1s_5sliceSNtNtCscwCr4GBBztI_3syn8generics14WherePredicate6to_vecEB1X_4nextINtNtNtBe_3ops8function6FnOnceTQB5_EE9call_onceB2I_, symObjAddr: 0xE8C0, symBinAddr: 0x77E74, symSize: 0x24 }
  - { offset: 0xD32A0, size: 0x8, addend: 0x0, symName: __RNvYNvYINtNtNtNtCs85QQFkKrybG_4core4iter8adapters3map3MapINtNtBa_6filter6FilterIB6_NtNtCscwCr4GBBztI_3syn8generics10TypeParamsNCNvNtCs3tyqko2rdGU_12serde_derive5bound10with_bounds1_0ENCB22_s2_0ENCB22_s3_0ENtNtNtBc_6traits8iterator8Iterator4nextINtNtNtBe_3ops8function6FnOnceTQB5_EE9call_onceB26_, symObjAddr: 0xE8E4, symBinAddr: 0x77E98, symSize: 0x24 }
  - { offset: 0xD32E4, size: 0x8, addend: 0x0, symName: __RNvYNvYINtNtNtNtCsdFlNUEO95cG_5alloc11collections5btree3set4IterNtNtNtCs3tyqko2rdGU_12serde_derive9internals4name4NameENtNtNtNtCs85QQFkKrybG_4core4iter6traits8iterator8Iterator4nextINtNtNtB21_3ops8function6FnOnceTQB5_EE9call_onceB16_, symObjAddr: 0xE908, symBinAddr: 0x77EBC, symSize: 0x24 }
  - { offset: 0xD3328, size: 0x8, addend: 0x0, symName: __RNvYNvYNtNtCscwCr4GBBztI_3syn2ty4TypeNtNtB9_5parse5Parse5parseINtNtNtCs85QQFkKrybG_4core3ops8function6FnOnceTRNtBB_11ParseBufferEE9call_onceCs3tyqko2rdGU_12serde_derive, symObjAddr: 0xE92C, symBinAddr: 0x77EE0, symSize: 0x24 }
  - { offset: 0xD336C, size: 0x8, addend: 0x0, symName: __RNvYNvYNtNtCscwCr4GBBztI_3syn2ty8TypePathNtNtB9_11parse_quote10ParseQuote5parseINtNtNtCs85QQFkKrybG_4core3ops8function6FnOnceTRNtNtB9_5parse11ParseBufferEE9call_onceCs3tyqko2rdGU_12serde_derive, symObjAddr: 0xE950, symBinAddr: 0x77F04, symSize: 0x24 }
  - { offset: 0xD33B0, size: 0x8, addend: 0x0, symName: __RNvYNvYNtNtCscwCr4GBBztI_3syn2ty8TypePathNtNtB9_5parse5Parse5parseINtNtNtCs85QQFkKrybG_4core3ops8function6FnOnceTRNtBF_11ParseBufferEE9call_onceCs3tyqko2rdGU_12serde_derive, symObjAddr: 0xE974, symBinAddr: 0x77F28, symSize: 0x24 }
  - { offset: 0xD33F4, size: 0x8, addend: 0x0, symName: __RNvYNvYNtNtCscwCr4GBBztI_3syn4expr8ExprPathNtNtB9_5parse5Parse5parseINtNtNtCs85QQFkKrybG_4core3ops8function6FnOnceTRNtBH_11ParseBufferEE9call_onceCs3tyqko2rdGU_12serde_derive, symObjAddr: 0xE998, symBinAddr: 0x77F4C, symSize: 0x24 }
  - { offset: 0xD3438, size: 0x8, addend: 0x0, symName: __RNvYNvYNtNtCscwCr4GBBztI_3syn4path4PathNtNtB9_11parse_quote10ParseQuote5parseINtNtNtCs85QQFkKrybG_4core3ops8function6FnOnceTRNtNtB9_5parse11ParseBufferEE9call_onceCs3tyqko2rdGU_12serde_derive, symObjAddr: 0xE9BC, symBinAddr: 0x77F70, symSize: 0x24 }
  - { offset: 0xD347C, size: 0x8, addend: 0x0, symName: __RNvYNvYNtNtCscwCr4GBBztI_3syn4path4PathNtNtB9_5parse5Parse5parseINtNtNtCs85QQFkKrybG_4core3ops8function6FnOnceTRNtBD_11ParseBufferEE9call_onceCs3tyqko2rdGU_12serde_derive, symObjAddr: 0xE9E0, symBinAddr: 0x77F94, symSize: 0x24 }
  - { offset: 0xD34C0, size: 0x8, addend: 0x0, symName: __RNvYNvYNtNtCscwCr4GBBztI_3syn6derive11DeriveInputNtNtB9_5parse5Parse5parseINtNtNtCs85QQFkKrybG_4core3ops8function6FnOnceTRNtBN_11ParseBufferEE9call_onceCs3tyqko2rdGU_12serde_derive, symObjAddr: 0xEA04, symBinAddr: 0x77FB8, symSize: 0x24 }
  - { offset: 0xD3504, size: 0x8, addend: 0x0, symName: __RNvYNvYNtNtCsdFlNUEO95cG_5alloc6string6StringINtNtCs85QQFkKrybG_4core7convert5AsRefeE6as_refINtNtNtBM_3ops8function6FnOnceTRB5_EE9call_onceCs3tyqko2rdGU_12serde_derive, symObjAddr: 0xEA50, symBinAddr: 0x78004, symSize: 0x24 }
  - { offset: 0xD3548, size: 0x8, addend: 0x0, symName: __RNvYNvYNtNtNtCs3tyqko2rdGU_12serde_derive9internals4name4NameINtNtCs85QQFkKrybG_4core7convert4FromRNtNtCscwCr4GBBztI_3syn3lit6LitStrE4fromINtNtNtB12_3ops8function6FnOnceTB1y_EE9call_onceBb_, symObjAddr: 0xEA74, symBinAddr: 0x78028, symSize: 0x24 }
  - { offset: 0xD3597, size: 0x8, addend: 0x0, symName: __RNvXs1_NtNtNtCs85QQFkKrybG_4core3ops8function5implsQNCNvNtCs3tyqko2rdGU_12serde_derive7pretend24pretend_fields_used_enum0INtB7_5FnMutTRNtNtNtBU_9internals3ast7VariantEE8call_mutBU_, symObjAddr: 0xD87C, symBinAddr: 0x76E30, symSize: 0x30 }
  - { offset: 0xD35E6, size: 0x8, addend: 0x0, symName: __RNvXs1_NtNtNtCs85QQFkKrybG_4core3ops8function5implsQNCNvNtNtCs3tyqko2rdGU_12serde_derive2de15enum_externally11deserialize0INtB7_5FnMutTRTjRNtNtNtBW_9internals3ast7VariantEEE8call_mutBW_, symObjAddr: 0xD8AC, symBinAddr: 0x76E60, symSize: 0x30 }
  - { offset: 0xD363C, size: 0x8, addend: 0x0, symName: __RNvYFjENtCsfwj6t2KTYdc_11proc_macro25IdentINtNtNtCs85QQFkKrybG_4core3ops8function5FnMutTjEE8call_mutCs3tyqko2rdGU_12serde_derive, symObjAddr: 0xE1DC, symBinAddr: 0x77790, symSize: 0x30 }
  - { offset: 0xD3680, size: 0x8, addend: 0x0, symName: __RNvYINvNvXsi_NtNtNtCs85QQFkKrybG_4core4iter8adapters7flattenINtBb_13FlattenCompatppENtNtNtBf_6traits8iterator8Iterator10advance_by7advanceINtNtNtBh_5slice4iter4IterNtNtNtCs3tyqko2rdGU_12serde_derive9internals3ast5FieldEEINtNtNtBh_3ops8function5FnMutTjQB2c_EE8call_mutB2I_, symObjAddr: 0xE240, symBinAddr: 0x777F4, symSize: 0x30 }
  - { offset: 0xD36C4, size: 0x8, addend: 0x0, symName: __RNvYNvMNtCsdFlNUEO95cG_5alloc5sliceSNtNtCscwCr4GBBztI_3syn8generics14WherePredicate6to_vecINtNtNtCs85QQFkKrybG_4core3ops8function5FnMutTRBx_EE8call_mutCs3tyqko2rdGU_12serde_derive, symObjAddr: 0xE610, symBinAddr: 0x77BC4, symSize: 0x30 }
  - { offset: 0xD3708, size: 0x8, addend: 0x0, symName: __RNvYNvNtCsfwj6t2KTYdc_11proc_macro23imp19into_compiler_tokenINtNtNtCs85QQFkKrybG_4core3ops8function5FnMutTNtB6_9TokenTreeEE8call_mutCs3tyqko2rdGU_12serde_derive, symObjAddr: 0xE640, symBinAddr: 0x77BF4, symSize: 0x38 }
  - { offset: 0xD374C, size: 0x8, addend: 0x0, symName: __RNvYNvYNtNtCscwCr4GBBztI_3syn8lifetime8LifetimeNtNtCs85QQFkKrybG_4core5clone5Clone5cloneINtNtNtBN_3ops8function5FnMutTRB5_EE8call_mutCs3tyqko2rdGU_12serde_derive, symObjAddr: 0xEA28, symBinAddr: 0x77FDC, symSize: 0x28 }
  - { offset: 0xD3796, size: 0x8, addend: 0x0, symName: __RNvYNvCs3tyqko2rdGU_12serde_derive16derive_serializeINtNtNtCs85QQFkKrybG_4core3ops8function2FnTNtCs9bTl5rSDVcL_10proc_macro11TokenStreamEE4callB4_, symObjAddr: 0xE568, symBinAddr: 0x77B1C, symSize: 0x28 }
  - { offset: 0xD37DA, size: 0x8, addend: 0x0, symName: __RNvYNvCs3tyqko2rdGU_12serde_derive18derive_deserializeINtNtNtCs85QQFkKrybG_4core3ops8function2FnTNtCs9bTl5rSDVcL_10proc_macro11TokenStreamEE4callB4_, symObjAddr: 0xE590, symBinAddr: 0x77B44, symSize: 0x28 }
  - { offset: 0xD381E, size: 0x8, addend: 0x0, symName: __RNvYNvNtNtCs3tyqko2rdGU_12serde_derive9internals4attr12get_lit_str2INtNtNtCs85QQFkKrybG_4core3ops8function2FnTRNtNtB6_4ctxt4CtxtNtNtB6_6symbol6SymbolB22_RNtNtCscwCr4GBBztI_3syn4meta15ParseNestedMetaEE4callB8_, symObjAddr: 0xE678, symBinAddr: 0x77C2C, symSize: 0x50 }
  - { offset: 0xD3862, size: 0x8, addend: 0x0, symName: __RNvYNvNtNtCs3tyqko2rdGU_12serde_derive9internals4attr20parse_lit_into_whereINtNtNtCs85QQFkKrybG_4core3ops8function2FnTRNtNtB6_4ctxt4CtxtNtNtB6_6symbol6SymbolB2a_RNtNtCscwCr4GBBztI_3syn4meta15ParseNestedMetaEE4callB8_, symObjAddr: 0xE6C8, symBinAddr: 0x77C7C, symSize: 0x50 }
  - { offset: 0xD3DE4, size: 0x8, addend: 0x0, symName: __RNvXs1b_NtCs85QQFkKrybG_4core3fmtRNtNtCsdFlNUEO95cG_5alloc6string6StringNtB6_7Display3fmtCs3tyqko2rdGU_12serde_derive, symObjAddr: 0xD8DC, symBinAddr: 0x76E90, symSize: 0x30 }
  - { offset: 0xD3E36, size: 0x8, addend: 0x0, symName: __RNvYFjENtCsfwj6t2KTYdc_11proc_macro25IdentNtNtCs85QQFkKrybG_4core5clone5Clone5cloneCs3tyqko2rdGU_12serde_derive, symObjAddr: 0xE20C, symBinAddr: 0x777C0, symSize: 0x18 }
  - { offset: 0xD3E67, size: 0x8, addend: 0x0, symName: __RNvYNCNvNtNtCs3tyqko2rdGU_12serde_derive2de10identifier22deserialize_identifier0NtNtCs85QQFkKrybG_4core5clone5Clone5cloneBa_, symObjAddr: 0xE4A4, symBinAddr: 0x77A58, symSize: 0x20 }
  - { offset: 0xD3E98, size: 0x8, addend: 0x0, symName: __RNvYNCNvNtNtCs3tyqko2rdGU_12serde_derive2de10identifier22deserialize_identifiers_0NtNtCs85QQFkKrybG_4core5clone5Clone5cloneBa_, symObjAddr: 0xE4C4, symBinAddr: 0x77A78, symSize: 0x20 }
  - { offset: 0xD3EC9, size: 0x8, addend: 0x0, symName: __RNvYNCNvNtNtCs3tyqko2rdGU_12serde_derive2de5enum_25prepare_enum_variant_enum0NtNtCs85QQFkKrybG_4core5clone5Clone5cloneBa_, symObjAddr: 0xE4E4, symBinAddr: 0x77A98, symSize: 0x10 }
  - { offset: 0xD49AB, size: 0x8, addend: 0x0, symName: __RINvCscwCr4GBBztI_3syn5parseNtNtB2_6derive11DeriveInputECs3tyqko2rdGU_12serde_derive, symObjAddr: 0x0, symBinAddr: 0x69644, symSize: 0x30 }
  - { offset: 0xD49E2, size: 0x8, addend: 0x0, symName: __RINvCscwCr4GBBztI_3syn6parse2NtNtB2_2ty8TypePathECs3tyqko2rdGU_12serde_derive, symObjAddr: 0x30, symBinAddr: 0x69674, symSize: 0x24 }
  - { offset: 0xD4AA5, size: 0x8, addend: 0x0, symName: __RINvNtCscwCr4GBBztI_3syn5token7PathSepNtCsfwj6t2KTYdc_11proc_macro24SpanECs3tyqko2rdGU_12serde_derive, symObjAddr: 0x4FCC, symBinAddr: 0x6E580, symSize: 0x48 }
  - { offset: 0xDA1F8, size: 0x8, addend: 0x0, symName: __RNCINvMsm_NtNtNtCsdFlNUEO95cG_5alloc11collections5btree8navigateINtNtBa_4node6HandleINtB13_7NodeRefNtNtB13_6marker5DyingNtNtCscwCr4GBBztI_3syn8lifetime8LifetimeNtNtBa_7set_val9SetValZSTNtB1B_4LeafENtB1B_4EdgeE27deallocating_next_uncheckedNtNtBe_5alloc6GlobalE0Cs3tyqko2rdGU_12serde_derive, symObjAddr: 0x50DC, symBinAddr: 0x6E690, symSize: 0x58 }
  - { offset: 0xDA268, size: 0x8, addend: 0x0, symName: __RNCINvMsm_NtNtNtCsdFlNUEO95cG_5alloc11collections5btree8navigateINtNtBa_4node6HandleINtB13_7NodeRefNtNtB13_6marker5DyingNtNtNtCs3tyqko2rdGU_12serde_derive9internals4name4NameNtNtBa_7set_val9SetValZSTNtB1B_4LeafENtB1B_4EdgeE27deallocating_next_uncheckedNtNtBe_5alloc6GlobalE0B20_, symObjAddr: 0x5134, symBinAddr: 0x6E6E8, symSize: 0x58 }
  - { offset: 0xDA2E4, size: 0x8, addend: 0x0, symName: __RNCNvMsk_NtNtNtCsdFlNUEO95cG_5alloc11collections5btree8navigateINtNtB9_4node6HandleINtB12_7NodeRefNtNtB12_6marker5ImmutNtNtCscwCr4GBBztI_3syn8lifetime8LifetimeNtNtB9_7set_val9SetValZSTNtB1A_4LeafENtB1A_4EdgeE14next_unchecked0Cs3tyqko2rdGU_12serde_derive, symObjAddr: 0x53FC, symBinAddr: 0x6E9B0, symSize: 0xE0 }
