---
triple:          'arm64-apple-darwin'
binary-path:     '/Users/johnhjediny/Documents/GitHub/json-schema-x-graphql/converters/rust/target/debug/deps/libthiserror_impl-649fdb69e3689644.dylib'
relocations:
  - { offset: 0x1E, size: 0x8, addend: 0x0, symName: __RINvMNtNtNtCsdFlNUEO95cG_5alloc11collections5btree4nodeINtB3_8LeafNodeNtCsfwj6t2KTYdc_11proc_macro25IdentNtNtB5_7set_val9SetValZSTE3newNtNtB9_5alloc6GlobalECs4u7P9VlF0C9_14thiserror_impl, symObjAddr: 0x0, symBinAddr: 0xC60, symSize: 0x70 }
  - { offset: 0xFE6C, size: 0x8, addend: 0x0, symName: __RNCINvMss_NtNtNtCsdFlNUEO95cG_5alloc11collections5btree4nodeINtB8_7NodeRefNtNtB8_6marker5OwnedNtCsfwj6t2KTYdc_11proc_macro25IdentNtNtBa_7set_val9SetValZSTNtB1c_14LeafOrInternalE19push_internal_levelNtNtBe_5alloc6GlobalE0Cs4u7P9VlF0C9_14thiserror_impl, symObjAddr: 0xA14C, symBinAddr: 0xADAC, symSize: 0x34 }
  - { offset: 0xFEC5, size: 0x8, addend: 0x0, symName: __RNCINvMss_NtNtNtCsdFlNUEO95cG_5alloc11collections5btree4nodeINtB8_7NodeRefNtNtB8_6marker5OwnedNtNtBe_6string6StringNtNtBa_7set_val9SetValZSTNtB1c_14LeafOrInternalE19push_internal_levelNtNtBe_5alloc6GlobalE0Cs4u7P9VlF0C9_14thiserror_impl, symObjAddr: 0xA180, symBinAddr: 0xADE0, symSize: 0x34 }
  - { offset: 0xFF1E, size: 0x8, addend: 0x0, symName: __RNCINvMss_NtNtNtCsdFlNUEO95cG_5alloc11collections5btree4nodeINtB8_7NodeRefNtNtB8_6marker5OwnedNtNtBe_6string6StringTINtNtBa_3set8BTreeSetB1u_EINtNtCscwCr4GBBztI_3syn10punctuated10PunctuatedNtCsfwj6t2KTYdc_11proc_macro211TokenStreamNtNtB2l_5token4PlusEENtB1c_14LeafOrInternalE19push_internal_levelNtNtBe_5alloc6GlobalE0Cs4u7P9VlF0C9_14thiserror_impl, symObjAddr: 0xA1B4, symBinAddr: 0xAE14, symSize: 0x34 }
  - { offset: 0xFF77, size: 0x8, addend: 0x0, symName: __RNCINvMss_NtNtNtCsdFlNUEO95cG_5alloc11collections5btree4nodeINtB8_7NodeRefNtNtB8_6marker5OwnedRNtCsfwj6t2KTYdc_11proc_macro25IdentNtNtBa_7set_val9SetValZSTNtB1c_14LeafOrInternalE19push_internal_levelNtNtBe_5alloc6GlobalE0Cs4u7P9VlF0C9_14thiserror_impl, symObjAddr: 0xA1E8, symBinAddr: 0xAE48, symSize: 0x34 }
  - { offset: 0xFFD0, size: 0x8, addend: 0x0, symName: __RNCINvMss_NtNtNtCsdFlNUEO95cG_5alloc11collections5btree4nodeINtB8_7NodeRefNtNtB8_6marker5OwnedTjNtNtCs4u7P9VlF0C9_14thiserror_impl4attr5TraitENtNtBa_7set_val9SetValZSTNtB1c_14LeafOrInternalE19push_internal_levelNtNtBe_5alloc6GlobalE0B1A_, symObjAddr: 0xA21C, symBinAddr: 0xAE7C, symSize: 0x34 }
  - { offset: 0x18AF8, size: 0x8, addend: 0x0, symName: __RINvNtNtNtCsdFlNUEO95cG_5alloc11collections5btree4node12slice_insertINtNtNtCs85QQFkKrybG_4core3ptr8non_null7NonNullINtB2_8LeafNodeNtCsfwj6t2KTYdc_11proc_macro25IdentNtNtB4_7set_val9SetValZSTEEECs4u7P9VlF0C9_14thiserror_impl, symObjAddr: 0x8D34, symBinAddr: 0x9994, symSize: 0x114 }
  - { offset: 0x18C5E, size: 0x8, addend: 0x0, symName: __RINvNtNtNtCsdFlNUEO95cG_5alloc11collections5btree4node12slice_insertINtNtNtCs85QQFkKrybG_4core3ptr8non_null7NonNullINtB2_8LeafNodeNtNtB8_6string6StringNtNtB4_7set_val9SetValZSTEEECs4u7P9VlF0C9_14thiserror_impl, symObjAddr: 0x8E48, symBinAddr: 0x9AA8, symSize: 0x114 }
  - { offset: 0x18DC4, size: 0x8, addend: 0x0, symName: __RINvNtNtNtCsdFlNUEO95cG_5alloc11collections5btree4node12slice_insertINtNtNtCs85QQFkKrybG_4core3ptr8non_null7NonNullINtB2_8LeafNodeNtNtB8_6string6StringTINtNtB4_3set8BTreeSetB24_EINtNtCscwCr4GBBztI_3syn10punctuated10PunctuatedNtCsfwj6t2KTYdc_11proc_macro211TokenStreamNtNtB2V_5token4PlusEEEEECs4u7P9VlF0C9_14thiserror_impl, symObjAddr: 0x8F5C, symBinAddr: 0x9BBC, symSize: 0x114 }
  - { offset: 0x18F2A, size: 0x8, addend: 0x0, symName: __RINvNtNtNtCsdFlNUEO95cG_5alloc11collections5btree4node12slice_insertINtNtNtCs85QQFkKrybG_4core3ptr8non_null7NonNullINtB2_8LeafNodeTjNtNtCs4u7P9VlF0C9_14thiserror_impl4attr5TraitENtNtB4_7set_val9SetValZSTEEEB2a_, symObjAddr: 0x9070, symBinAddr: 0x9CD0, symSize: 0x114 }
  - { offset: 0x19090, size: 0x8, addend: 0x0, symName: __RINvNtNtNtCsdFlNUEO95cG_5alloc11collections5btree4node12slice_insertNtCsfwj6t2KTYdc_11proc_macro25IdentECs4u7P9VlF0C9_14thiserror_impl, symObjAddr: 0x9184, symBinAddr: 0x9DE4, symSize: 0x158 }
  - { offset: 0x19217, size: 0x8, addend: 0x0, symName: __RINvNtNtNtCsdFlNUEO95cG_5alloc11collections5btree4node12slice_insertNtNtB4_7set_val9SetValZSTECs4u7P9VlF0C9_14thiserror_impl, symObjAddr: 0x92DC, symBinAddr: 0x9F3C, symSize: 0xD8 }
  - { offset: 0x1932C, size: 0x8, addend: 0x0, symName: __RINvNtNtNtCsdFlNUEO95cG_5alloc11collections5btree4node12slice_insertNtNtB8_6string6StringECs4u7P9VlF0C9_14thiserror_impl, symObjAddr: 0x93B4, symBinAddr: 0xA014, symSize: 0x158 }
  - { offset: 0x194B3, size: 0x8, addend: 0x0, symName: __RINvNtNtNtCsdFlNUEO95cG_5alloc11collections5btree4node12slice_insertTINtNtB4_3set8BTreeSetNtNtB8_6string6StringEINtNtCscwCr4GBBztI_3syn10punctuated10PunctuatedNtCsfwj6t2KTYdc_11proc_macro211TokenStreamNtNtB1R_5token4PlusEEECs4u7P9VlF0C9_14thiserror_impl, symObjAddr: 0x950C, symBinAddr: 0xA16C, symSize: 0x16C }
  - { offset: 0x1963E, size: 0x8, addend: 0x0, symName: __RINvNtNtNtCsdFlNUEO95cG_5alloc11collections5btree4node12slice_insertTjNtNtCs4u7P9VlF0C9_14thiserror_impl4attr5TraitEEB1a_, symObjAddr: 0x9678, symBinAddr: 0xA2D8, symSize: 0x11C }
  - { offset: 0x197A6, size: 0x8, addend: 0x0, symName: __RINvNtNtNtCsdFlNUEO95cG_5alloc11collections5btree4node13move_to_sliceINtNtNtCs85QQFkKrybG_4core3ptr8non_null7NonNullINtB2_8LeafNodeNtCsfwj6t2KTYdc_11proc_macro25IdentNtNtB4_7set_val9SetValZSTEEECs4u7P9VlF0C9_14thiserror_impl, symObjAddr: 0x9794, symBinAddr: 0xA3F4, symSize: 0xB0 }
  - { offset: 0x19852, size: 0x8, addend: 0x0, symName: __RINvNtNtNtCsdFlNUEO95cG_5alloc11collections5btree4node13move_to_sliceINtNtNtCs85QQFkKrybG_4core3ptr8non_null7NonNullINtB2_8LeafNodeNtNtB8_6string6StringNtNtB4_7set_val9SetValZSTEEECs4u7P9VlF0C9_14thiserror_impl, symObjAddr: 0x9844, symBinAddr: 0xA4A4, symSize: 0xB0 }
  - { offset: 0x198FE, size: 0x8, addend: 0x0, symName: __RINvNtNtNtCsdFlNUEO95cG_5alloc11collections5btree4node13move_to_sliceINtNtNtCs85QQFkKrybG_4core3ptr8non_null7NonNullINtB2_8LeafNodeNtNtB8_6string6StringTINtNtB4_3set8BTreeSetB25_EINtNtCscwCr4GBBztI_3syn10punctuated10PunctuatedNtCsfwj6t2KTYdc_11proc_macro211TokenStreamNtNtB2W_5token4PlusEEEEECs4u7P9VlF0C9_14thiserror_impl, symObjAddr: 0x98F4, symBinAddr: 0xA554, symSize: 0xB0 }
  - { offset: 0x199AA, size: 0x8, addend: 0x0, symName: __RINvNtNtNtCsdFlNUEO95cG_5alloc11collections5btree4node13move_to_sliceINtNtNtCs85QQFkKrybG_4core3ptr8non_null7NonNullINtB2_8LeafNodeRNtCsfwj6t2KTYdc_11proc_macro25IdentNtNtB4_7set_val9SetValZSTEEECs4u7P9VlF0C9_14thiserror_impl, symObjAddr: 0x99A4, symBinAddr: 0xA604, symSize: 0xB0 }
  - { offset: 0x19A56, size: 0x8, addend: 0x0, symName: __RINvNtNtNtCsdFlNUEO95cG_5alloc11collections5btree4node13move_to_sliceINtNtNtCs85QQFkKrybG_4core3ptr8non_null7NonNullINtB2_8LeafNodeTjNtNtCs4u7P9VlF0C9_14thiserror_impl4attr5TraitENtNtB4_7set_val9SetValZSTEEEB2b_, symObjAddr: 0x9A54, symBinAddr: 0xA6B4, symSize: 0xB0 }
  - { offset: 0x19B02, size: 0x8, addend: 0x0, symName: __RINvNtNtNtCsdFlNUEO95cG_5alloc11collections5btree4node13move_to_sliceNtCsfwj6t2KTYdc_11proc_macro25IdentECs4u7P9VlF0C9_14thiserror_impl, symObjAddr: 0x9B04, symBinAddr: 0xA764, symSize: 0xB8 }
  - { offset: 0x19BAE, size: 0x8, addend: 0x0, symName: __RINvNtNtNtCsdFlNUEO95cG_5alloc11collections5btree4node13move_to_sliceNtNtB4_7set_val9SetValZSTECs4u7P9VlF0C9_14thiserror_impl, symObjAddr: 0x9BBC, symBinAddr: 0xA81C, symSize: 0xB4 }
  - { offset: 0x19C5A, size: 0x8, addend: 0x0, symName: __RINvNtNtNtCsdFlNUEO95cG_5alloc11collections5btree4node13move_to_sliceNtNtB8_6string6StringECs4u7P9VlF0C9_14thiserror_impl, symObjAddr: 0x9C70, symBinAddr: 0xA8D0, symSize: 0xB8 }
  - { offset: 0x19D06, size: 0x8, addend: 0x0, symName: __RINvNtNtNtCsdFlNUEO95cG_5alloc11collections5btree4node13move_to_sliceRNtCsfwj6t2KTYdc_11proc_macro25IdentECs4u7P9VlF0C9_14thiserror_impl, symObjAddr: 0x9D28, symBinAddr: 0xA988, symSize: 0xB0 }
  - { offset: 0x19DB2, size: 0x8, addend: 0x0, symName: __RINvNtNtNtCsdFlNUEO95cG_5alloc11collections5btree4node13move_to_sliceTINtNtB4_3set8BTreeSetNtNtB8_6string6StringEINtNtCscwCr4GBBztI_3syn10punctuated10PunctuatedNtCsfwj6t2KTYdc_11proc_macro211TokenStreamNtNtB1S_5token4PlusEEECs4u7P9VlF0C9_14thiserror_impl, symObjAddr: 0x9DD8, symBinAddr: 0xAA38, symSize: 0xB8 }
  - { offset: 0x19E5E, size: 0x8, addend: 0x0, symName: __RINvNtNtNtCsdFlNUEO95cG_5alloc11collections5btree4node13move_to_sliceTjNtNtCs4u7P9VlF0C9_14thiserror_impl4attr5TraitEEB1b_, symObjAddr: 0x9E90, symBinAddr: 0xAAF0, symSize: 0xB4 }
  - { offset: 0x19F0A, size: 0x8, addend: 0x0, symName: __RINvNtNtNtCsdFlNUEO95cG_5alloc11collections5btree4node9slice_shrINtNtNtCs85QQFkKrybG_4core3ptr8non_null7NonNullINtB2_8LeafNodeRNtCsfwj6t2KTYdc_11proc_macro25IdentNtNtB4_7set_val9SetValZSTEEECs4u7P9VlF0C9_14thiserror_impl, symObjAddr: 0x9F44, symBinAddr: 0xABA4, symSize: 0xB4 }
  - { offset: 0x19FCC, size: 0x8, addend: 0x0, symName: __RINvNtNtNtCsdFlNUEO95cG_5alloc11collections5btree4node9slice_shrNtNtB4_7set_val9SetValZSTECs4u7P9VlF0C9_14thiserror_impl, symObjAddr: 0x9FF8, symBinAddr: 0xAC58, symSize: 0xA0 }
  - { offset: 0x1A09E, size: 0x8, addend: 0x0, symName: __RINvNtNtNtCsdFlNUEO95cG_5alloc11collections5btree4node9slice_shrRNtCsfwj6t2KTYdc_11proc_macro25IdentECs4u7P9VlF0C9_14thiserror_impl, symObjAddr: 0xA098, symBinAddr: 0xACF8, symSize: 0xB4 }
  - { offset: 0x1B637, size: 0x8, addend: 0x0, symName: __RNvXNvMsT_NtNtNtCsdFlNUEO95cG_5alloc11collections5btree4nodeINtB8_6HandleINtB8_7NodeRefNtNtB8_6marker5DyingpppENtB1p_2KVE12drop_key_valINtB2_7DropperNtNtBa_7set_val9SetValZSTENtNtNtCs85QQFkKrybG_4core3ops4drop4Drop4dropCs4u7P9VlF0C9_14thiserror_impl, symObjAddr: 0x13550, symBinAddr: 0x141B0, symSize: 0x1C }
  - { offset: 0x1B66A, size: 0x8, addend: 0x0, symName: __RNvXNvMsT_NtNtNtCsdFlNUEO95cG_5alloc11collections5btree4nodeINtB8_6HandleINtB8_7NodeRefNtNtB8_6marker5DyingpppENtB1p_2KVE12drop_key_valINtB2_7DropperTINtNtBa_3set8BTreeSetNtNtBe_6string6StringEINtNtCscwCr4GBBztI_3syn10punctuated10PunctuatedNtCsfwj6t2KTYdc_11proc_macro211TokenStreamNtNtB3a_5token4PlusEEENtNtNtCs85QQFkKrybG_4core3ops4drop4Drop4dropCs4u7P9VlF0C9_14thiserror_impl, symObjAddr: 0x1356C, symBinAddr: 0x141CC, symSize: 0x2C }
  - { offset: 0x1D167, size: 0x8, addend: 0x0, symName: __RINvMNtNtNtCsdFlNUEO95cG_5alloc11collections5btree4nodeINtB3_8LeafNodeNtCsfwj6t2KTYdc_11proc_macro25IdentNtNtB5_7set_val9SetValZSTE3newNtNtB9_5alloc6GlobalECs4u7P9VlF0C9_14thiserror_impl, symObjAddr: 0x0, symBinAddr: 0xC60, symSize: 0x70 }
  - { offset: 0x1D431, size: 0x8, addend: 0x0, symName: __RINvMNtNtNtCsdFlNUEO95cG_5alloc11collections5btree4nodeINtB3_8LeafNodeNtNtB9_6string6StringNtNtB5_7set_val9SetValZSTE3newNtNtB9_5alloc6GlobalECs4u7P9VlF0C9_14thiserror_impl, symObjAddr: 0x70, symBinAddr: 0xCD0, symSize: 0x70 }
  - { offset: 0x1D7FB, size: 0x8, addend: 0x0, symName: __RINvMNtNtNtCsdFlNUEO95cG_5alloc11collections5btree4nodeINtB3_8LeafNodeNtNtB9_6string6StringTINtNtB5_3set8BTreeSetB16_EINtNtCscwCr4GBBztI_3syn10punctuated10PunctuatedNtCsfwj6t2KTYdc_11proc_macro211TokenStreamNtNtB1X_5token4PlusEEE3newNtNtB9_5alloc6GlobalECs4u7P9VlF0C9_14thiserror_impl, symObjAddr: 0xE0, symBinAddr: 0xD40, symSize: 0x70 }
  - { offset: 0x1DAC5, size: 0x8, addend: 0x0, symName: __RINvMNtNtNtCsdFlNUEO95cG_5alloc11collections5btree4nodeINtB3_8LeafNodeRNtCsfwj6t2KTYdc_11proc_macro25IdentNtNtB5_7set_val9SetValZSTE3newNtNtB9_5alloc6GlobalECs4u7P9VlF0C9_14thiserror_impl, symObjAddr: 0x150, symBinAddr: 0xDB0, symSize: 0x70 }
  - { offset: 0x1DDA0, size: 0x8, addend: 0x0, symName: __RINvMNtNtNtCsdFlNUEO95cG_5alloc11collections5btree4nodeINtB3_8LeafNodeTjNtNtCs4u7P9VlF0C9_14thiserror_impl4attr5TraitENtNtB5_7set_val9SetValZSTE3newNtNtB9_5alloc6GlobalEB1c_, symObjAddr: 0x1C0, symBinAddr: 0xE20, symSize: 0x70 }
  - { offset: 0x1E365, size: 0x8, addend: 0x0, symName: __RINvMNtNtNtCsdFlNUEO95cG_5alloc11collections5btree6appendINtNtB5_4node7NodeRefNtNtBW_6marker5OwnedRNtCsfwj6t2KTYdc_11proc_macro25IdentNtNtB5_7set_val9SetValZSTNtB1g_14LeafOrInternalE9bulk_pushINtNtB5_17dedup_sorted_iter15DedupSortedIterB1y_B28_INtNtNtNtCs85QQFkKrybG_4core4iter8adapters3map3MapINtNtNtB9_3vec9into_iter8IntoIterB1y_ENCINvMse_NtB5_3setINtB5t_8BTreeSetB1y_E16from_sorted_iterB4I_E0EENtNtB9_5alloc6GlobalECs4u7P9VlF0C9_14thiserror_impl, symObjAddr: 0x230, symBinAddr: 0xE90, symSize: 0x4D8 }
  - { offset: 0x1E971, size: 0x8, addend: 0x0, symName: __RINvMs0_NtNtNtCsdFlNUEO95cG_5alloc11collections5btree6searchINtNtB8_4node7NodeRefNtNtBZ_6marker3MutNtCsfwj6t2KTYdc_11proc_macro25IdentNtNtB8_7set_val9SetValZSTNtB1j_14LeafOrInternalE14find_key_indexB1z_ECs4u7P9VlF0C9_14thiserror_impl, symObjAddr: 0x708, symBinAddr: 0x1368, symSize: 0x1E4 }
  - { offset: 0x1EDD2, size: 0x8, addend: 0x0, symName: __RINvMs0_NtNtNtCsdFlNUEO95cG_5alloc11collections5btree6searchINtNtB8_4node7NodeRefNtNtBZ_6marker3MutNtNtBc_6string6StringNtNtB8_7set_val9SetValZSTNtB1j_14LeafOrInternalE14find_key_indexB1z_ECs4u7P9VlF0C9_14thiserror_impl, symObjAddr: 0x8EC, symBinAddr: 0x154C, symSize: 0x1E4 }
  - { offset: 0x1F1C7, size: 0x8, addend: 0x0, symName: __RINvMs0_NtNtNtCsdFlNUEO95cG_5alloc11collections5btree6searchINtNtB8_4node7NodeRefNtNtBZ_6marker3MutNtNtBc_6string6StringTINtNtB8_3set8BTreeSetB1z_EINtNtCscwCr4GBBztI_3syn10punctuated10PunctuatedNtCsfwj6t2KTYdc_11proc_macro211TokenStreamNtNtB2q_5token4PlusEENtB1j_14LeafOrInternalE14find_key_indexB1z_ECs4u7P9VlF0C9_14thiserror_impl, symObjAddr: 0xAD0, symBinAddr: 0x1730, symSize: 0x1E4 }
  - { offset: 0x1F628, size: 0x8, addend: 0x0, symName: __RINvMs0_NtNtNtCsdFlNUEO95cG_5alloc11collections5btree6searchINtNtB8_4node7NodeRefNtNtBZ_6marker3MutTjNtNtCs4u7P9VlF0C9_14thiserror_impl4attr5TraitENtNtB8_7set_val9SetValZSTNtB1j_14LeafOrInternalE14find_key_indexB1z_EB1F_, symObjAddr: 0xCB4, symBinAddr: 0x1914, symSize: 0x1D4 }
  - { offset: 0x1FA1D, size: 0x8, addend: 0x0, symName: __RINvMs0_NtNtNtCsdFlNUEO95cG_5alloc11collections5btree6searchINtNtB8_4node7NodeRefNtNtBZ_6marker5ImmutNtNtBc_6string6StringTINtNtB8_3set8BTreeSetB1B_EINtNtCscwCr4GBBztI_3syn10punctuated10PunctuatedNtCsfwj6t2KTYdc_11proc_macro211TokenStreamNtNtB2s_5token4PlusEENtB1j_14LeafOrInternalE14find_key_indexB1B_ECs4u7P9VlF0C9_14thiserror_impl, symObjAddr: 0xE88, symBinAddr: 0x1AE8, symSize: 0x1E4 }
  - { offset: 0x1FE71, size: 0x8, addend: 0x0, symName: __RINvMs0_NtNtNtCsdFlNUEO95cG_5alloc11collections5btree6searchINtNtB8_4node7NodeRefNtNtBZ_6marker5ImmutRNtCsfwj6t2KTYdc_11proc_macro25IdentNtNtB8_7set_val9SetValZSTNtB1j_14LeafOrInternalE14find_key_indexB1C_ECs4u7P9VlF0C9_14thiserror_impl, symObjAddr: 0x106C, symBinAddr: 0x1CCC, symSize: 0x1D4 }
  - { offset: 0x201EB, size: 0x8, addend: 0x0, symName: __RINvMs9_NtNtNtCsdFlNUEO95cG_5alloc11collections5btree4nodeINtB6_7NodeRefNtNtB6_6marker5OwnedNtCsfwj6t2KTYdc_11proc_macro25IdentNtNtB8_7set_val9SetValZSTNtB1a_8InternalE12new_internalNtNtBc_5alloc6GlobalECs4u7P9VlF0C9_14thiserror_impl, symObjAddr: 0x1240, symBinAddr: 0x1EA0, symSize: 0x90 }
  - { offset: 0x2041E, size: 0x8, addend: 0x0, symName: __RINvMs9_NtNtNtCsdFlNUEO95cG_5alloc11collections5btree4nodeINtB6_7NodeRefNtNtB6_6marker5OwnedNtCsfwj6t2KTYdc_11proc_macro25IdentNtNtB8_7set_val9SetValZSTNtB1a_8InternalE17from_new_internalNtNtBc_5alloc6GlobalECs4u7P9VlF0C9_14thiserror_impl, symObjAddr: 0x12D0, symBinAddr: 0x1F30, symSize: 0xAC }
  - { offset: 0x20615, size: 0x8, addend: 0x0, symName: __RINvMs9_NtNtNtCsdFlNUEO95cG_5alloc11collections5btree4nodeINtB6_7NodeRefNtNtB6_6marker5OwnedNtNtBc_6string6StringNtNtB8_7set_val9SetValZSTNtB1a_8InternalE12new_internalNtNtBc_5alloc6GlobalECs4u7P9VlF0C9_14thiserror_impl, symObjAddr: 0x137C, symBinAddr: 0x1FDC, symSize: 0x90 }
  - { offset: 0x20848, size: 0x8, addend: 0x0, symName: __RINvMs9_NtNtNtCsdFlNUEO95cG_5alloc11collections5btree4nodeINtB6_7NodeRefNtNtB6_6marker5OwnedNtNtBc_6string6StringNtNtB8_7set_val9SetValZSTNtB1a_8InternalE17from_new_internalNtNtBc_5alloc6GlobalECs4u7P9VlF0C9_14thiserror_impl, symObjAddr: 0x140C, symBinAddr: 0x206C, symSize: 0xAC }
  - { offset: 0x20A3F, size: 0x8, addend: 0x0, symName: __RINvMs9_NtNtNtCsdFlNUEO95cG_5alloc11collections5btree4nodeINtB6_7NodeRefNtNtB6_6marker5OwnedNtNtBc_6string6StringTINtNtB8_3set8BTreeSetB1s_EINtNtCscwCr4GBBztI_3syn10punctuated10PunctuatedNtCsfwj6t2KTYdc_11proc_macro211TokenStreamNtNtB2j_5token4PlusEENtB1a_8InternalE12new_internalNtNtBc_5alloc6GlobalECs4u7P9VlF0C9_14thiserror_impl, symObjAddr: 0x14B8, symBinAddr: 0x2118, symSize: 0x90 }
  - { offset: 0x20C72, size: 0x8, addend: 0x0, symName: __RINvMs9_NtNtNtCsdFlNUEO95cG_5alloc11collections5btree4nodeINtB6_7NodeRefNtNtB6_6marker5OwnedNtNtBc_6string6StringTINtNtB8_3set8BTreeSetB1s_EINtNtCscwCr4GBBztI_3syn10punctuated10PunctuatedNtCsfwj6t2KTYdc_11proc_macro211TokenStreamNtNtB2j_5token4PlusEENtB1a_8InternalE17from_new_internalNtNtBc_5alloc6GlobalECs4u7P9VlF0C9_14thiserror_impl, symObjAddr: 0x1548, symBinAddr: 0x21A8, symSize: 0xAC }
  - { offset: 0x20E69, size: 0x8, addend: 0x0, symName: __RINvMs9_NtNtNtCsdFlNUEO95cG_5alloc11collections5btree4nodeINtB6_7NodeRefNtNtB6_6marker5OwnedRNtCsfwj6t2KTYdc_11proc_macro25IdentNtNtB8_7set_val9SetValZSTNtB1a_8InternalE12new_internalNtNtBc_5alloc6GlobalECs4u7P9VlF0C9_14thiserror_impl, symObjAddr: 0x15F4, symBinAddr: 0x2254, symSize: 0x90 }
  - { offset: 0x2108F, size: 0x8, addend: 0x0, symName: __RINvMs9_NtNtNtCsdFlNUEO95cG_5alloc11collections5btree4nodeINtB6_7NodeRefNtNtB6_6marker5OwnedRNtCsfwj6t2KTYdc_11proc_macro25IdentNtNtB8_7set_val9SetValZSTNtB1a_8InternalE17from_new_internalNtNtBc_5alloc6GlobalECs4u7P9VlF0C9_14thiserror_impl, symObjAddr: 0x1684, symBinAddr: 0x22E4, symSize: 0xAC }
  - { offset: 0x21286, size: 0x8, addend: 0x0, symName: __RINvMs9_NtNtNtCsdFlNUEO95cG_5alloc11collections5btree4nodeINtB6_7NodeRefNtNtB6_6marker5OwnedTjNtNtCs4u7P9VlF0C9_14thiserror_impl4attr5TraitENtNtB8_7set_val9SetValZSTNtB1a_8InternalE12new_internalNtNtBc_5alloc6GlobalEB1y_, symObjAddr: 0x1730, symBinAddr: 0x2390, symSize: 0x90 }
  - { offset: 0x214B9, size: 0x8, addend: 0x0, symName: __RINvMs9_NtNtNtCsdFlNUEO95cG_5alloc11collections5btree4nodeINtB6_7NodeRefNtNtB6_6marker5OwnedTjNtNtCs4u7P9VlF0C9_14thiserror_impl4attr5TraitENtNtB8_7set_val9SetValZSTNtB1a_8InternalE17from_new_internalNtNtBc_5alloc6GlobalEB1y_, symObjAddr: 0x17C0, symBinAddr: 0x2420, symSize: 0xAC }
  - { offset: 0x218C3, size: 0x8, addend: 0x0, symName: __RINvMsK_NtNtNtCsdFlNUEO95cG_5alloc11collections5btree4nodeINtB6_6HandleINtB6_7NodeRefNtNtB6_6marker3MutNtCsfwj6t2KTYdc_11proc_macro25IdentNtNtB8_7set_val9SetValZSTNtB1n_4LeafENtB1n_4EdgeE6insertNtNtBc_5alloc6GlobalECs4u7P9VlF0C9_14thiserror_impl, symObjAddr: 0x186C, symBinAddr: 0x24CC, symSize: 0x4D8 }
  - { offset: 0x21D80, size: 0x8, addend: 0x0, symName: __RINvMsK_NtNtNtCsdFlNUEO95cG_5alloc11collections5btree4nodeINtB6_6HandleINtB6_7NodeRefNtNtB6_6marker3MutNtNtBc_6string6StringNtNtB8_7set_val9SetValZSTNtB1n_4LeafENtB1n_4EdgeE6insertNtNtBc_5alloc6GlobalECs4u7P9VlF0C9_14thiserror_impl, symObjAddr: 0x1D44, symBinAddr: 0x29A4, symSize: 0x4DC }
  - { offset: 0x2225B, size: 0x8, addend: 0x0, symName: __RINvMsK_NtNtNtCsdFlNUEO95cG_5alloc11collections5btree4nodeINtB6_6HandleINtB6_7NodeRefNtNtB6_6marker3MutNtNtBc_6string6StringTINtNtB8_3set8BTreeSetB1D_EINtNtCscwCr4GBBztI_3syn10punctuated10PunctuatedNtCsfwj6t2KTYdc_11proc_macro211TokenStreamNtNtB2u_5token4PlusEENtB1n_4LeafENtB1n_4EdgeE6insertNtNtBc_5alloc6GlobalECs4u7P9VlF0C9_14thiserror_impl, symObjAddr: 0x2220, symBinAddr: 0x2E80, symSize: 0x540 }
  - { offset: 0x22736, size: 0x8, addend: 0x0, symName: __RINvMsK_NtNtNtCsdFlNUEO95cG_5alloc11collections5btree4nodeINtB6_6HandleINtB6_7NodeRefNtNtB6_6marker3MutTjNtNtCs4u7P9VlF0C9_14thiserror_impl4attr5TraitENtNtB8_7set_val9SetValZSTNtB1n_4LeafENtB1n_4EdgeE6insertNtNtBc_5alloc6GlobalEB1J_, symObjAddr: 0x2760, symBinAddr: 0x33C0, symSize: 0x49C }
  - { offset: 0x22B48, size: 0x8, addend: 0x0, symName: __RINvMsM_NtNtNtCsdFlNUEO95cG_5alloc11collections5btree4nodeINtB6_6HandleINtB6_7NodeRefNtNtB6_6marker3MutNtCsfwj6t2KTYdc_11proc_macro25IdentNtNtB8_7set_val9SetValZSTNtB1n_8InternalENtB1n_4EdgeE6insertNtNtBc_5alloc6GlobalECs4u7P9VlF0C9_14thiserror_impl, symObjAddr: 0x2BFC, symBinAddr: 0x385C, symSize: 0x4C4 }
  - { offset: 0x22EC0, size: 0x8, addend: 0x0, symName: __RINvMsM_NtNtNtCsdFlNUEO95cG_5alloc11collections5btree4nodeINtB6_6HandleINtB6_7NodeRefNtNtB6_6marker3MutNtNtBc_6string6StringNtNtB8_7set_val9SetValZSTNtB1n_8InternalENtB1n_4EdgeE6insertNtNtBc_5alloc6GlobalECs4u7P9VlF0C9_14thiserror_impl, symObjAddr: 0x30C0, symBinAddr: 0x3D20, symSize: 0x4C8 }
  - { offset: 0x23238, size: 0x8, addend: 0x0, symName: __RINvMsM_NtNtNtCsdFlNUEO95cG_5alloc11collections5btree4nodeINtB6_6HandleINtB6_7NodeRefNtNtB6_6marker3MutNtNtBc_6string6StringTINtNtB8_3set8BTreeSetB1D_EINtNtCscwCr4GBBztI_3syn10punctuated10PunctuatedNtCsfwj6t2KTYdc_11proc_macro211TokenStreamNtNtB2u_5token4PlusEENtB1n_8InternalENtB1n_4EdgeE6insertNtNtBc_5alloc6GlobalECs4u7P9VlF0C9_14thiserror_impl, symObjAddr: 0x3588, symBinAddr: 0x41E8, symSize: 0x540 }
  - { offset: 0x235B0, size: 0x8, addend: 0x0, symName: __RINvMsM_NtNtNtCsdFlNUEO95cG_5alloc11collections5btree4nodeINtB6_6HandleINtB6_7NodeRefNtNtB6_6marker3MutTjNtNtCs4u7P9VlF0C9_14thiserror_impl4attr5TraitENtNtB8_7set_val9SetValZSTNtB1n_8InternalENtB1n_4EdgeE6insertNtNtBc_5alloc6GlobalEB1J_, symObjAddr: 0x3AC8, symBinAddr: 0x4728, symSize: 0x4AC }
  - { offset: 0x2389D, size: 0x8, addend: 0x0, symName: __RINvMsN_NtNtNtCsdFlNUEO95cG_5alloc11collections5btree4nodeINtB6_6HandleINtB6_7NodeRefNtNtB6_6marker3MutNtCsfwj6t2KTYdc_11proc_macro25IdentNtNtB8_7set_val9SetValZSTNtB1n_4LeafENtB1n_4EdgeE16insert_recursingNtNtBc_5alloc6GlobalNCNvMs6_NtNtB8_3map5entryINtB3J_11VacantEntryB1D_B2c_E12insert_entry0ECs4u7P9VlF0C9_14thiserror_impl, symObjAddr: 0x3F74, symBinAddr: 0x4BD4, symSize: 0x47C }
  - { offset: 0x23BC6, size: 0x8, addend: 0x0, symName: __RINvMsN_NtNtNtCsdFlNUEO95cG_5alloc11collections5btree4nodeINtB6_6HandleINtB6_7NodeRefNtNtB6_6marker3MutNtNtBc_6string6StringNtNtB8_7set_val9SetValZSTNtB1n_4LeafENtB1n_4EdgeE16insert_recursingNtNtBc_5alloc6GlobalNCNvMs6_NtNtB8_3map5entryINtB3v_11VacantEntryB1D_B1Y_E12insert_entry0ECs4u7P9VlF0C9_14thiserror_impl, symObjAddr: 0x43F0, symBinAddr: 0x5050, symSize: 0x484 }
  - { offset: 0x23EFC, size: 0x8, addend: 0x0, symName: __RINvMsN_NtNtNtCsdFlNUEO95cG_5alloc11collections5btree4nodeINtB6_6HandleINtB6_7NodeRefNtNtB6_6marker3MutNtNtBc_6string6StringTINtNtB8_3set8BTreeSetB1D_EINtNtCscwCr4GBBztI_3syn10punctuated10PunctuatedNtCsfwj6t2KTYdc_11proc_macro211TokenStreamNtNtB2u_5token4PlusEENtB1n_4LeafENtB1n_4EdgeE16insert_recursingNtNtBc_5alloc6GlobalNCNvMs6_NtNtB8_3map5entryINtB5j_11VacantEntryB1D_B1Y_E12insert_entry0ECs4u7P9VlF0C9_14thiserror_impl, symObjAddr: 0x4874, symBinAddr: 0x54D4, symSize: 0x55C }
  - { offset: 0x24232, size: 0x8, addend: 0x0, symName: __RINvMsN_NtNtNtCsdFlNUEO95cG_5alloc11collections5btree4nodeINtB6_6HandleINtB6_7NodeRefNtNtB6_6marker3MutTjNtNtCs4u7P9VlF0C9_14thiserror_impl4attr5TraitENtNtB8_7set_val9SetValZSTNtB1n_4LeafENtB1n_4EdgeE16insert_recursingNtNtBc_5alloc6GlobalNCNvMs6_NtNtB8_3map5entryINtB3W_11VacantEntryB1D_B2p_E12insert_entry0EB1J_, symObjAddr: 0x4DD0, symBinAddr: 0x5A30, symSize: 0x438 }
  - { offset: 0x244E0, size: 0x8, addend: 0x0, symName: __RINvMsV_NtNtNtCsdFlNUEO95cG_5alloc11collections5btree4nodeINtB6_6HandleINtB6_7NodeRefNtNtB6_6marker3MutNtCsfwj6t2KTYdc_11proc_macro25IdentNtNtB8_7set_val9SetValZSTNtB1n_4LeafENtB1n_2KVE5splitNtNtBc_5alloc6GlobalECs4u7P9VlF0C9_14thiserror_impl, symObjAddr: 0x5208, symBinAddr: 0x5E68, symSize: 0xA8 }
  - { offset: 0x245CC, size: 0x8, addend: 0x0, symName: __RINvMsV_NtNtNtCsdFlNUEO95cG_5alloc11collections5btree4nodeINtB6_6HandleINtB6_7NodeRefNtNtB6_6marker3MutNtNtBc_6string6StringNtNtB8_7set_val9SetValZSTNtB1n_4LeafENtB1n_2KVE5splitNtNtBc_5alloc6GlobalECs4u7P9VlF0C9_14thiserror_impl, symObjAddr: 0x52B0, symBinAddr: 0x5F10, symSize: 0xA8 }
  - { offset: 0x246B8, size: 0x8, addend: 0x0, symName: __RINvMsV_NtNtNtCsdFlNUEO95cG_5alloc11collections5btree4nodeINtB6_6HandleINtB6_7NodeRefNtNtB6_6marker3MutNtNtBc_6string6StringTINtNtB8_3set8BTreeSetB1D_EINtNtCscwCr4GBBztI_3syn10punctuated10PunctuatedNtCsfwj6t2KTYdc_11proc_macro211TokenStreamNtNtB2u_5token4PlusEENtB1n_4LeafENtB1n_2KVE5splitNtNtBc_5alloc6GlobalECs4u7P9VlF0C9_14thiserror_impl, symObjAddr: 0x5358, symBinAddr: 0x5FB8, symSize: 0xB4 }
  - { offset: 0x247A4, size: 0x8, addend: 0x0, symName: __RINvMsV_NtNtNtCsdFlNUEO95cG_5alloc11collections5btree4nodeINtB6_6HandleINtB6_7NodeRefNtNtB6_6marker3MutTjNtNtCs4u7P9VlF0C9_14thiserror_impl4attr5TraitENtNtB8_7set_val9SetValZSTNtB1n_4LeafENtB1n_2KVE5splitNtNtBc_5alloc6GlobalEB1J_, symObjAddr: 0x540C, symBinAddr: 0x606C, symSize: 0xB4 }
  - { offset: 0x249B9, size: 0x8, addend: 0x0, symName: __RINvMsW_NtNtNtCsdFlNUEO95cG_5alloc11collections5btree4nodeINtB6_6HandleINtB6_7NodeRefNtNtB6_6marker3MutNtCsfwj6t2KTYdc_11proc_macro25IdentNtNtB8_7set_val9SetValZSTNtB1n_8InternalENtB1n_2KVE5splitNtNtBc_5alloc6GlobalECs4u7P9VlF0C9_14thiserror_impl, symObjAddr: 0x54C0, symBinAddr: 0x6120, symSize: 0x28C }
  - { offset: 0x24E7E, size: 0x8, addend: 0x0, symName: __RINvMsW_NtNtNtCsdFlNUEO95cG_5alloc11collections5btree4nodeINtB6_6HandleINtB6_7NodeRefNtNtB6_6marker3MutNtNtBc_6string6StringNtNtB8_7set_val9SetValZSTNtB1n_8InternalENtB1n_2KVE5splitNtNtBc_5alloc6GlobalECs4u7P9VlF0C9_14thiserror_impl, symObjAddr: 0x574C, symBinAddr: 0x63AC, symSize: 0x28C }
  - { offset: 0x25343, size: 0x8, addend: 0x0, symName: __RINvMsW_NtNtNtCsdFlNUEO95cG_5alloc11collections5btree4nodeINtB6_6HandleINtB6_7NodeRefNtNtB6_6marker3MutNtNtBc_6string6StringTINtNtB8_3set8BTreeSetB1D_EINtNtCscwCr4GBBztI_3syn10punctuated10PunctuatedNtCsfwj6t2KTYdc_11proc_macro211TokenStreamNtNtB2u_5token4PlusEENtB1n_8InternalENtB1n_2KVE5splitNtNtBc_5alloc6GlobalECs4u7P9VlF0C9_14thiserror_impl, symObjAddr: 0x59D8, symBinAddr: 0x6638, symSize: 0x2AC }
  - { offset: 0x25808, size: 0x8, addend: 0x0, symName: __RINvMsW_NtNtNtCsdFlNUEO95cG_5alloc11collections5btree4nodeINtB6_6HandleINtB6_7NodeRefNtNtB6_6marker3MutTjNtNtCs4u7P9VlF0C9_14thiserror_impl4attr5TraitENtNtB8_7set_val9SetValZSTNtB1n_8InternalENtB1n_2KVE5splitNtNtBc_5alloc6GlobalEB1J_, symObjAddr: 0x5C84, symBinAddr: 0x68E4, symSize: 0x288 }
  - { offset: 0x25C08, size: 0x8, addend: 0x0, symName: __RINvMs_NtNtNtCsdFlNUEO95cG_5alloc11collections5btree4nodeINtB5_12InternalNodeNtCsfwj6t2KTYdc_11proc_macro25IdentNtNtB7_7set_val9SetValZSTE3newNtNtBb_5alloc6GlobalECs4u7P9VlF0C9_14thiserror_impl, symObjAddr: 0x5F0C, symBinAddr: 0x6B6C, symSize: 0x70 }
  - { offset: 0x25E24, size: 0x8, addend: 0x0, symName: __RINvMs_NtNtNtCsdFlNUEO95cG_5alloc11collections5btree4nodeINtB5_12InternalNodeNtNtBb_6string6StringNtNtB7_7set_val9SetValZSTE3newNtNtBb_5alloc6GlobalECs4u7P9VlF0C9_14thiserror_impl, symObjAddr: 0x5F7C, symBinAddr: 0x6BDC, symSize: 0x70 }
  - { offset: 0x26040, size: 0x8, addend: 0x0, symName: __RINvMs_NtNtNtCsdFlNUEO95cG_5alloc11collections5btree4nodeINtB5_12InternalNodeNtNtBb_6string6StringTINtNtB7_3set8BTreeSetB1d_EINtNtCscwCr4GBBztI_3syn10punctuated10PunctuatedNtCsfwj6t2KTYdc_11proc_macro211TokenStreamNtNtB24_5token4PlusEEE3newNtNtBb_5alloc6GlobalECs4u7P9VlF0C9_14thiserror_impl, symObjAddr: 0x5FEC, symBinAddr: 0x6C4C, symSize: 0x70 }
  - { offset: 0x2625C, size: 0x8, addend: 0x0, symName: __RINvMs_NtNtNtCsdFlNUEO95cG_5alloc11collections5btree4nodeINtB5_12InternalNodeRNtCsfwj6t2KTYdc_11proc_macro25IdentNtNtB7_7set_val9SetValZSTE3newNtNtBb_5alloc6GlobalECs4u7P9VlF0C9_14thiserror_impl, symObjAddr: 0x605C, symBinAddr: 0x6CBC, symSize: 0x70 }
  - { offset: 0x26478, size: 0x8, addend: 0x0, symName: __RINvMs_NtNtNtCsdFlNUEO95cG_5alloc11collections5btree4nodeINtB5_12InternalNodeTjNtNtCs4u7P9VlF0C9_14thiserror_impl4attr5TraitENtNtB7_7set_val9SetValZSTE3newNtNtBb_5alloc6GlobalEB1j_, symObjAddr: 0x60CC, symBinAddr: 0x6D2C, symSize: 0x70 }
  - { offset: 0x26773, size: 0x8, addend: 0x0, symName: __RINvMs_NtNtNtCsdFlNUEO95cG_5alloc11collections5btree6searchINtNtB7_4node7NodeRefNtNtBY_6marker3MutNtCsfwj6t2KTYdc_11proc_macro25IdentNtNtB7_7set_val9SetValZSTNtB1i_14LeafOrInternalE11search_treeB1y_ECs4u7P9VlF0C9_14thiserror_impl, symObjAddr: 0x613C, symBinAddr: 0x6D9C, symSize: 0x240 }
  - { offset: 0x26AC8, size: 0x8, addend: 0x0, symName: __RINvMs_NtNtNtCsdFlNUEO95cG_5alloc11collections5btree6searchINtNtB7_4node7NodeRefNtNtBY_6marker3MutNtNtBb_6string6StringNtNtB7_7set_val9SetValZSTNtB1i_14LeafOrInternalE11search_treeB1y_ECs4u7P9VlF0C9_14thiserror_impl, symObjAddr: 0x637C, symBinAddr: 0x6FDC, symSize: 0x240 }
  - { offset: 0x26E1D, size: 0x8, addend: 0x0, symName: __RINvMs_NtNtNtCsdFlNUEO95cG_5alloc11collections5btree6searchINtNtB7_4node7NodeRefNtNtBY_6marker3MutNtNtBb_6string6StringTINtNtB7_3set8BTreeSetB1y_EINtNtCscwCr4GBBztI_3syn10punctuated10PunctuatedNtCsfwj6t2KTYdc_11proc_macro211TokenStreamNtNtB2p_5token4PlusEENtB1i_14LeafOrInternalE11search_treeB1y_ECs4u7P9VlF0C9_14thiserror_impl, symObjAddr: 0x65BC, symBinAddr: 0x721C, symSize: 0x240 }
  - { offset: 0x27172, size: 0x8, addend: 0x0, symName: __RINvMs_NtNtNtCsdFlNUEO95cG_5alloc11collections5btree6searchINtNtB7_4node7NodeRefNtNtBY_6marker3MutTjNtNtCs4u7P9VlF0C9_14thiserror_impl4attr5TraitENtNtB7_7set_val9SetValZSTNtB1i_14LeafOrInternalE11search_treeB1y_EB1E_, symObjAddr: 0x67FC, symBinAddr: 0x745C, symSize: 0x240 }
  - { offset: 0x27503, size: 0x8, addend: 0x0, symName: __RINvMs_NtNtNtCsdFlNUEO95cG_5alloc11collections5btree6searchINtNtB7_4node7NodeRefNtNtBY_6marker5ImmutNtNtBb_6string6StringTINtNtB7_3set8BTreeSetB1A_EINtNtCscwCr4GBBztI_3syn10punctuated10PunctuatedNtCsfwj6t2KTYdc_11proc_macro211TokenStreamNtNtB2r_5token4PlusEENtB1i_14LeafOrInternalE11search_treeB1A_ECs4u7P9VlF0C9_14thiserror_impl, symObjAddr: 0x6A3C, symBinAddr: 0x769C, symSize: 0x240 }
  - { offset: 0x27858, size: 0x8, addend: 0x0, symName: __RINvMs_NtNtNtCsdFlNUEO95cG_5alloc11collections5btree6searchINtNtB7_4node7NodeRefNtNtBY_6marker5ImmutRNtCsfwj6t2KTYdc_11proc_macro25IdentNtNtB7_7set_val9SetValZSTNtB1i_14LeafOrInternalE11search_treeB1B_ECs4u7P9VlF0C9_14thiserror_impl, symObjAddr: 0x6C7C, symBinAddr: 0x78DC, symSize: 0x240 }
  - { offset: 0x27B3B, size: 0x8, addend: 0x0, symName: __RINvMsh_NtNtNtCsdFlNUEO95cG_5alloc11collections5btree4nodeINtB6_7NodeRefNtNtB6_6marker5DyingNtCsfwj6t2KTYdc_11proc_macro25IdentNtNtB8_7set_val9SetValZSTNtB1a_14LeafOrInternalE21deallocate_and_ascendNtNtBc_5alloc6GlobalECs4u7P9VlF0C9_14thiserror_impl, symObjAddr: 0x6EBC, symBinAddr: 0x7B1C, symSize: 0x188 }
  - { offset: 0x27DBA, size: 0x8, addend: 0x0, symName: __RINvMsh_NtNtNtCsdFlNUEO95cG_5alloc11collections5btree4nodeINtB6_7NodeRefNtNtB6_6marker5DyingNtNtBc_6string6StringNtNtB8_7set_val9SetValZSTNtB1a_14LeafOrInternalE21deallocate_and_ascendNtNtBc_5alloc6GlobalECs4u7P9VlF0C9_14thiserror_impl, symObjAddr: 0x7044, symBinAddr: 0x7CA4, symSize: 0x188 }
  - { offset: 0x28039, size: 0x8, addend: 0x0, symName: __RINvMsh_NtNtNtCsdFlNUEO95cG_5alloc11collections5btree4nodeINtB6_7NodeRefNtNtB6_6marker5DyingNtNtBc_6string6StringTINtNtB8_3set8BTreeSetB1s_EINtNtCscwCr4GBBztI_3syn10punctuated10PunctuatedNtCsfwj6t2KTYdc_11proc_macro211TokenStreamNtNtB2j_5token4PlusEENtB1a_14LeafOrInternalE21deallocate_and_ascendNtNtBc_5alloc6GlobalECs4u7P9VlF0C9_14thiserror_impl, symObjAddr: 0x71CC, symBinAddr: 0x7E2C, symSize: 0x188 }
  - { offset: 0x282B8, size: 0x8, addend: 0x0, symName: __RINvMsh_NtNtNtCsdFlNUEO95cG_5alloc11collections5btree4nodeINtB6_7NodeRefNtNtB6_6marker5DyingRNtCsfwj6t2KTYdc_11proc_macro25IdentNtNtB8_7set_val9SetValZSTNtB1a_14LeafOrInternalE21deallocate_and_ascendNtNtBc_5alloc6GlobalECs4u7P9VlF0C9_14thiserror_impl, symObjAddr: 0x7354, symBinAddr: 0x7FB4, symSize: 0x188 }
  - { offset: 0x28537, size: 0x8, addend: 0x0, symName: __RINvMsh_NtNtNtCsdFlNUEO95cG_5alloc11collections5btree4nodeINtB6_7NodeRefNtNtB6_6marker5DyingTjNtNtCs4u7P9VlF0C9_14thiserror_impl4attr5TraitENtNtB8_7set_val9SetValZSTNtB1a_14LeafOrInternalE21deallocate_and_ascendNtNtBc_5alloc6GlobalEB1y_, symObjAddr: 0x74DC, symBinAddr: 0x813C, symSize: 0x188 }
  - { offset: 0x28789, size: 0x8, addend: 0x0, symName: __RINvMsj_NtNtNtCsdFlNUEO95cG_5alloc11collections5btree8navigateINtNtB8_4node6HandleINtB11_7NodeRefNtNtB11_6marker5DyingNtCsfwj6t2KTYdc_11proc_macro25IdentNtNtB8_7set_val9SetValZSTNtB1z_4LeafENtB1z_4EdgeE16deallocating_endNtNtBc_5alloc6GlobalECs4u7P9VlF0C9_14thiserror_impl, symObjAddr: 0x7664, symBinAddr: 0x82C4, symSize: 0xD4 }
  - { offset: 0x289FD, size: 0x8, addend: 0x0, symName: __RINvMsj_NtNtNtCsdFlNUEO95cG_5alloc11collections5btree8navigateINtNtB8_4node6HandleINtB11_7NodeRefNtNtB11_6marker5DyingNtCsfwj6t2KTYdc_11proc_macro25IdentNtNtB8_7set_val9SetValZSTNtB1z_4LeafENtB1z_4EdgeE17deallocating_nextNtNtBc_5alloc6GlobalECs4u7P9VlF0C9_14thiserror_impl, symObjAddr: 0x7738, symBinAddr: 0x8398, symSize: 0x254 }
  - { offset: 0x28C31, size: 0x8, addend: 0x0, symName: __RINvMsj_NtNtNtCsdFlNUEO95cG_5alloc11collections5btree8navigateINtNtB8_4node6HandleINtB11_7NodeRefNtNtB11_6marker5DyingNtNtBc_6string6StringNtNtB8_7set_val9SetValZSTNtB1z_4LeafENtB1z_4EdgeE16deallocating_endNtNtBc_5alloc6GlobalECs4u7P9VlF0C9_14thiserror_impl, symObjAddr: 0x798C, symBinAddr: 0x85EC, symSize: 0xD4 }
  - { offset: 0x28EA5, size: 0x8, addend: 0x0, symName: __RINvMsj_NtNtNtCsdFlNUEO95cG_5alloc11collections5btree8navigateINtNtB8_4node6HandleINtB11_7NodeRefNtNtB11_6marker5DyingNtNtBc_6string6StringNtNtB8_7set_val9SetValZSTNtB1z_4LeafENtB1z_4EdgeE17deallocating_nextNtNtBc_5alloc6GlobalECs4u7P9VlF0C9_14thiserror_impl, symObjAddr: 0x7A60, symBinAddr: 0x86C0, symSize: 0x254 }
  - { offset: 0x290D9, size: 0x8, addend: 0x0, symName: __RINvMsj_NtNtNtCsdFlNUEO95cG_5alloc11collections5btree8navigateINtNtB8_4node6HandleINtB11_7NodeRefNtNtB11_6marker5DyingNtNtBc_6string6StringTINtNtB8_3set8BTreeSetB1S_EINtNtCscwCr4GBBztI_3syn10punctuated10PunctuatedNtCsfwj6t2KTYdc_11proc_macro211TokenStreamNtNtB2J_5token4PlusEENtB1z_4LeafENtB1z_4EdgeE16deallocating_endNtNtBc_5alloc6GlobalECs4u7P9VlF0C9_14thiserror_impl, symObjAddr: 0x7CB4, symBinAddr: 0x8914, symSize: 0xD4 }
  - { offset: 0x2934D, size: 0x8, addend: 0x0, symName: __RINvMsj_NtNtNtCsdFlNUEO95cG_5alloc11collections5btree8navigateINtNtB8_4node6HandleINtB11_7NodeRefNtNtB11_6marker5DyingNtNtBc_6string6StringTINtNtB8_3set8BTreeSetB1S_EINtNtCscwCr4GBBztI_3syn10punctuated10PunctuatedNtCsfwj6t2KTYdc_11proc_macro211TokenStreamNtNtB2J_5token4PlusEENtB1z_4LeafENtB1z_4EdgeE17deallocating_nextNtNtBc_5alloc6GlobalECs4u7P9VlF0C9_14thiserror_impl, symObjAddr: 0x7D88, symBinAddr: 0x89E8, symSize: 0x254 }
  - { offset: 0x29581, size: 0x8, addend: 0x0, symName: __RINvMsj_NtNtNtCsdFlNUEO95cG_5alloc11collections5btree8navigateINtNtB8_4node6HandleINtB11_7NodeRefNtNtB11_6marker5DyingRNtCsfwj6t2KTYdc_11proc_macro25IdentNtNtB8_7set_val9SetValZSTNtB1z_4LeafENtB1z_4EdgeE16deallocating_endNtNtBc_5alloc6GlobalECs4u7P9VlF0C9_14thiserror_impl, symObjAddr: 0x7FDC, symBinAddr: 0x8C3C, symSize: 0xD4 }
  - { offset: 0x297F5, size: 0x8, addend: 0x0, symName: __RINvMsj_NtNtNtCsdFlNUEO95cG_5alloc11collections5btree8navigateINtNtB8_4node6HandleINtB11_7NodeRefNtNtB11_6marker5DyingRNtCsfwj6t2KTYdc_11proc_macro25IdentNtNtB8_7set_val9SetValZSTNtB1z_4LeafENtB1z_4EdgeE17deallocating_nextNtNtBc_5alloc6GlobalECs4u7P9VlF0C9_14thiserror_impl, symObjAddr: 0x80B0, symBinAddr: 0x8D10, symSize: 0x254 }
  - { offset: 0x29A29, size: 0x8, addend: 0x0, symName: __RINvMsj_NtNtNtCsdFlNUEO95cG_5alloc11collections5btree8navigateINtNtB8_4node6HandleINtB11_7NodeRefNtNtB11_6marker5DyingTjNtNtCs4u7P9VlF0C9_14thiserror_impl4attr5TraitENtNtB8_7set_val9SetValZSTNtB1z_4LeafENtB1z_4EdgeE16deallocating_endNtNtBc_5alloc6GlobalEB1Y_, symObjAddr: 0x8304, symBinAddr: 0x8F64, symSize: 0xD4 }
  - { offset: 0x29C9D, size: 0x8, addend: 0x0, symName: __RINvMsj_NtNtNtCsdFlNUEO95cG_5alloc11collections5btree8navigateINtNtB8_4node6HandleINtB11_7NodeRefNtNtB11_6marker5DyingTjNtNtCs4u7P9VlF0C9_14thiserror_impl4attr5TraitENtNtB8_7set_val9SetValZSTNtB1z_4LeafENtB1z_4EdgeE17deallocating_nextNtNtBc_5alloc6GlobalEB1Y_, symObjAddr: 0x83D8, symBinAddr: 0x9038, symSize: 0x254 }
  - { offset: 0x29EE8, size: 0x8, addend: 0x0, symName: __RINvMsp_NtNtNtCsdFlNUEO95cG_5alloc11collections5btree4nodeINtB6_7NodeRefNtNtB6_6marker3MutNtCsfwj6t2KTYdc_11proc_macro25IdentNtNtB8_7set_val9SetValZSTNtB1a_8InternalE30correct_childrens_parent_linksINtNtNtCs85QQFkKrybG_4core3ops5range14RangeInclusivejEECs4u7P9VlF0C9_14thiserror_impl, symObjAddr: 0x862C, symBinAddr: 0x928C, symSize: 0xB4 }
  - { offset: 0x2A01F, size: 0x8, addend: 0x0, symName: __RINvMsp_NtNtNtCsdFlNUEO95cG_5alloc11collections5btree4nodeINtB6_7NodeRefNtNtB6_6marker3MutNtCsfwj6t2KTYdc_11proc_macro25IdentNtNtB8_7set_val9SetValZSTNtB1a_8InternalE30correct_childrens_parent_linksINtNtNtCs85QQFkKrybG_4core3ops5range5RangejEECs4u7P9VlF0C9_14thiserror_impl, symObjAddr: 0x86E0, symBinAddr: 0x9340, symSize: 0xB4 }
  - { offset: 0x2A155, size: 0x8, addend: 0x0, symName: __RINvMsp_NtNtNtCsdFlNUEO95cG_5alloc11collections5btree4nodeINtB6_7NodeRefNtNtB6_6marker3MutNtNtBc_6string6StringNtNtB8_7set_val9SetValZSTNtB1a_8InternalE30correct_childrens_parent_linksINtNtNtCs85QQFkKrybG_4core3ops5range14RangeInclusivejEECs4u7P9VlF0C9_14thiserror_impl, symObjAddr: 0x8794, symBinAddr: 0x93F4, symSize: 0xB4 }
  - { offset: 0x2A28C, size: 0x8, addend: 0x0, symName: __RINvMsp_NtNtNtCsdFlNUEO95cG_5alloc11collections5btree4nodeINtB6_7NodeRefNtNtB6_6marker3MutNtNtBc_6string6StringNtNtB8_7set_val9SetValZSTNtB1a_8InternalE30correct_childrens_parent_linksINtNtNtCs85QQFkKrybG_4core3ops5range5RangejEECs4u7P9VlF0C9_14thiserror_impl, symObjAddr: 0x8848, symBinAddr: 0x94A8, symSize: 0xB4 }
  - { offset: 0x2A3C2, size: 0x8, addend: 0x0, symName: __RINvMsp_NtNtNtCsdFlNUEO95cG_5alloc11collections5btree4nodeINtB6_7NodeRefNtNtB6_6marker3MutNtNtBc_6string6StringTINtNtB8_3set8BTreeSetB1q_EINtNtCscwCr4GBBztI_3syn10punctuated10PunctuatedNtCsfwj6t2KTYdc_11proc_macro211TokenStreamNtNtB2h_5token4PlusEENtB1a_8InternalE30correct_childrens_parent_linksINtNtNtCs85QQFkKrybG_4core3ops5range14RangeInclusivejEECs4u7P9VlF0C9_14thiserror_impl, symObjAddr: 0x88FC, symBinAddr: 0x955C, symSize: 0xB4 }
  - { offset: 0x2A4F9, size: 0x8, addend: 0x0, symName: __RINvMsp_NtNtNtCsdFlNUEO95cG_5alloc11collections5btree4nodeINtB6_7NodeRefNtNtB6_6marker3MutNtNtBc_6string6StringTINtNtB8_3set8BTreeSetB1q_EINtNtCscwCr4GBBztI_3syn10punctuated10PunctuatedNtCsfwj6t2KTYdc_11proc_macro211TokenStreamNtNtB2h_5token4PlusEENtB1a_8InternalE30correct_childrens_parent_linksINtNtNtCs85QQFkKrybG_4core3ops5range5RangejEECs4u7P9VlF0C9_14thiserror_impl, symObjAddr: 0x89B0, symBinAddr: 0x9610, symSize: 0xB4 }
  - { offset: 0x2A62F, size: 0x8, addend: 0x0, symName: __RINvMsp_NtNtNtCsdFlNUEO95cG_5alloc11collections5btree4nodeINtB6_7NodeRefNtNtB6_6marker3MutRNtCsfwj6t2KTYdc_11proc_macro25IdentNtNtB8_7set_val9SetValZSTNtB1a_8InternalE30correct_childrens_parent_linksINtNtNtCs85QQFkKrybG_4core3ops5range14RangeInclusivejEECs4u7P9VlF0C9_14thiserror_impl, symObjAddr: 0x8A64, symBinAddr: 0x96C4, symSize: 0xB4 }
  - { offset: 0x2A766, size: 0x8, addend: 0x0, symName: __RINvMsp_NtNtNtCsdFlNUEO95cG_5alloc11collections5btree4nodeINtB6_7NodeRefNtNtB6_6marker3MutRNtCsfwj6t2KTYdc_11proc_macro25IdentNtNtB8_7set_val9SetValZSTNtB1a_8InternalE30correct_childrens_parent_linksINtNtNtCs85QQFkKrybG_4core3ops5range5RangejEECs4u7P9VlF0C9_14thiserror_impl, symObjAddr: 0x8B18, symBinAddr: 0x9778, symSize: 0xB4 }
  - { offset: 0x2A89C, size: 0x8, addend: 0x0, symName: __RINvMsp_NtNtNtCsdFlNUEO95cG_5alloc11collections5btree4nodeINtB6_7NodeRefNtNtB6_6marker3MutTjNtNtCs4u7P9VlF0C9_14thiserror_impl4attr5TraitENtNtB8_7set_val9SetValZSTNtB1a_8InternalE30correct_childrens_parent_linksINtNtNtCs85QQFkKrybG_4core3ops5range14RangeInclusivejEEB1w_, symObjAddr: 0x8BCC, symBinAddr: 0x982C, symSize: 0xB4 }
  - { offset: 0x2A9D3, size: 0x8, addend: 0x0, symName: __RINvMsp_NtNtNtCsdFlNUEO95cG_5alloc11collections5btree4nodeINtB6_7NodeRefNtNtB6_6marker3MutTjNtNtCs4u7P9VlF0C9_14thiserror_impl4attr5TraitENtNtB8_7set_val9SetValZSTNtB1a_8InternalE30correct_childrens_parent_linksINtNtNtCs85QQFkKrybG_4core3ops5range5RangejEEB1w_, symObjAddr: 0x8C80, symBinAddr: 0x98E0, symSize: 0xB4 }
  - { offset: 0x2B0A5, size: 0x8, addend: 0x0, symName: __RNvMs0_NtNtNtCsdFlNUEO95cG_5alloc11collections5btree3fixINtNtB7_4node7NodeRefNtNtBV_6marker5OwnedRNtCsfwj6t2KTYdc_11proc_macro25IdentNtNtB7_7set_val9SetValZSTNtB1f_14LeafOrInternalE29fix_right_border_of_plentifulCs4u7P9VlF0C9_14thiserror_impl, symObjAddr: 0xA250, symBinAddr: 0xAEB0, symSize: 0x188 }
  - { offset: 0x2B7F1, size: 0x8, addend: 0x0, symName: __RNvMs10_NtNtNtCsdFlNUEO95cG_5alloc11collections5btree4nodeINtB6_16BalancingContextRNtCsfwj6t2KTYdc_11proc_macro25IdentNtNtB8_7set_val9SetValZSTE15bulk_steal_leftCs4u7P9VlF0C9_14thiserror_impl, symObjAddr: 0xA3D8, symBinAddr: 0xB038, symSize: 0x960 }
  - { offset: 0x2CC3B, size: 0x8, addend: 0x0, symName: __RNvMsJ_NtNtNtCsdFlNUEO95cG_5alloc11collections5btree4nodeINtB5_6HandleINtB5_7NodeRefNtNtB5_6marker3MutNtCsfwj6t2KTYdc_11proc_macro25IdentNtNtB7_7set_val9SetValZSTNtB1m_4LeafENtB1m_4EdgeE10insert_fitCs4u7P9VlF0C9_14thiserror_impl, symObjAddr: 0xAD38, symBinAddr: 0xB998, symSize: 0x1F4 }
  - { offset: 0x2D19A, size: 0x8, addend: 0x0, symName: __RNvMsJ_NtNtNtCsdFlNUEO95cG_5alloc11collections5btree4nodeINtB5_6HandleINtB5_7NodeRefNtNtB5_6marker3MutNtNtBb_6string6StringNtNtB7_7set_val9SetValZSTNtB1m_4LeafENtB1m_4EdgeE10insert_fitCs4u7P9VlF0C9_14thiserror_impl, symObjAddr: 0xAF2C, symBinAddr: 0xBB8C, symSize: 0x1F4 }
  - { offset: 0x2D6F9, size: 0x8, addend: 0x0, symName: __RNvMsJ_NtNtNtCsdFlNUEO95cG_5alloc11collections5btree4nodeINtB5_6HandleINtB5_7NodeRefNtNtB5_6marker3MutNtNtBb_6string6StringTINtNtB7_3set8BTreeSetB1C_EINtNtCscwCr4GBBztI_3syn10punctuated10PunctuatedNtCsfwj6t2KTYdc_11proc_macro211TokenStreamNtNtB2t_5token4PlusEENtB1m_4LeafENtB1m_4EdgeE10insert_fitCs4u7P9VlF0C9_14thiserror_impl, symObjAddr: 0xB120, symBinAddr: 0xBD80, symSize: 0x22C }
  - { offset: 0x2DC58, size: 0x8, addend: 0x0, symName: __RNvMsJ_NtNtNtCsdFlNUEO95cG_5alloc11collections5btree4nodeINtB5_6HandleINtB5_7NodeRefNtNtB5_6marker3MutTjNtNtCs4u7P9VlF0C9_14thiserror_impl4attr5TraitENtNtB7_7set_val9SetValZSTNtB1m_4LeafENtB1m_4EdgeE10insert_fitB1I_, symObjAddr: 0xB34C, symBinAddr: 0xBFAC, symSize: 0x1F0 }
  - { offset: 0x2E0BF, size: 0x8, addend: 0x0, symName: __RNvMsL_NtNtNtCsdFlNUEO95cG_5alloc11collections5btree4nodeINtB5_6HandleINtB5_7NodeRefNtNtB5_6marker3MutNtCsfwj6t2KTYdc_11proc_macro25IdentNtNtB7_7set_val9SetValZSTNtB1m_8InternalENtB1m_4EdgeE19correct_parent_linkCs4u7P9VlF0C9_14thiserror_impl, symObjAddr: 0xB53C, symBinAddr: 0xC19C, symSize: 0x9C }
  - { offset: 0x2E2C6, size: 0x8, addend: 0x0, symName: __RNvMsL_NtNtNtCsdFlNUEO95cG_5alloc11collections5btree4nodeINtB5_6HandleINtB5_7NodeRefNtNtB5_6marker3MutNtNtBb_6string6StringNtNtB7_7set_val9SetValZSTNtB1m_8InternalENtB1m_4EdgeE19correct_parent_linkCs4u7P9VlF0C9_14thiserror_impl, symObjAddr: 0xB5D8, symBinAddr: 0xC238, symSize: 0x9C }
  - { offset: 0x2E4CD, size: 0x8, addend: 0x0, symName: __RNvMsL_NtNtNtCsdFlNUEO95cG_5alloc11collections5btree4nodeINtB5_6HandleINtB5_7NodeRefNtNtB5_6marker3MutNtNtBb_6string6StringTINtNtB7_3set8BTreeSetB1C_EINtNtCscwCr4GBBztI_3syn10punctuated10PunctuatedNtCsfwj6t2KTYdc_11proc_macro211TokenStreamNtNtB2t_5token4PlusEENtB1m_8InternalENtB1m_4EdgeE19correct_parent_linkCs4u7P9VlF0C9_14thiserror_impl, symObjAddr: 0xB674, symBinAddr: 0xC2D4, symSize: 0x9C }
  - { offset: 0x2E6C7, size: 0x8, addend: 0x0, symName: __RNvMsL_NtNtNtCsdFlNUEO95cG_5alloc11collections5btree4nodeINtB5_6HandleINtB5_7NodeRefNtNtB5_6marker3MutRNtCsfwj6t2KTYdc_11proc_macro25IdentNtNtB7_7set_val9SetValZSTNtB1m_8InternalENtB1m_4EdgeE19correct_parent_linkCs4u7P9VlF0C9_14thiserror_impl, symObjAddr: 0xB710, symBinAddr: 0xC370, symSize: 0x9C }
  - { offset: 0x2E8CE, size: 0x8, addend: 0x0, symName: __RNvMsL_NtNtNtCsdFlNUEO95cG_5alloc11collections5btree4nodeINtB5_6HandleINtB5_7NodeRefNtNtB5_6marker3MutTjNtNtCs4u7P9VlF0C9_14thiserror_impl4attr5TraitENtNtB7_7set_val9SetValZSTNtB1m_8InternalENtB1m_4EdgeE19correct_parent_linkB1I_, symObjAddr: 0xB7AC, symBinAddr: 0xC40C, symSize: 0x9C }
  - { offset: 0x2EC03, size: 0x8, addend: 0x0, symName: __RNvMsM_NtNtNtCsdFlNUEO95cG_5alloc11collections5btree4nodeINtB5_6HandleINtB5_7NodeRefNtNtB5_6marker3MutNtCsfwj6t2KTYdc_11proc_macro25IdentNtNtB7_7set_val9SetValZSTNtB1m_8InternalENtB1m_4EdgeE10insert_fitCs4u7P9VlF0C9_14thiserror_impl, symObjAddr: 0xB848, symBinAddr: 0xC4A8, symSize: 0x294 }
  - { offset: 0x2F294, size: 0x8, addend: 0x0, symName: __RNvMsM_NtNtNtCsdFlNUEO95cG_5alloc11collections5btree4nodeINtB5_6HandleINtB5_7NodeRefNtNtB5_6marker3MutNtNtBb_6string6StringNtNtB7_7set_val9SetValZSTNtB1m_8InternalENtB1m_4EdgeE10insert_fitCs4u7P9VlF0C9_14thiserror_impl, symObjAddr: 0xBADC, symBinAddr: 0xC73C, symSize: 0x294 }
  - { offset: 0x2F925, size: 0x8, addend: 0x0, symName: __RNvMsM_NtNtNtCsdFlNUEO95cG_5alloc11collections5btree4nodeINtB5_6HandleINtB5_7NodeRefNtNtB5_6marker3MutNtNtBb_6string6StringTINtNtB7_3set8BTreeSetB1C_EINtNtCscwCr4GBBztI_3syn10punctuated10PunctuatedNtCsfwj6t2KTYdc_11proc_macro211TokenStreamNtNtB2t_5token4PlusEENtB1m_8InternalENtB1m_4EdgeE10insert_fitCs4u7P9VlF0C9_14thiserror_impl, symObjAddr: 0xBD70, symBinAddr: 0xC9D0, symSize: 0x2D0 }
  - { offset: 0x2FFB6, size: 0x8, addend: 0x0, symName: __RNvMsM_NtNtNtCsdFlNUEO95cG_5alloc11collections5btree4nodeINtB5_6HandleINtB5_7NodeRefNtNtB5_6marker3MutTjNtNtCs4u7P9VlF0C9_14thiserror_impl4attr5TraitENtNtB7_7set_val9SetValZSTNtB1m_8InternalENtB1m_4EdgeE10insert_fitB1I_, symObjAddr: 0xC040, symBinAddr: 0xCCA0, symSize: 0x274 }
  - { offset: 0x304DD, size: 0x8, addend: 0x0, symName: __RNvMsO_NtNtNtCsdFlNUEO95cG_5alloc11collections5btree4nodeINtB5_6HandleINtB5_7NodeRefNtNtB5_6marker3MutNtCsfwj6t2KTYdc_11proc_macro25IdentNtNtB7_7set_val9SetValZSTNtB1m_8InternalENtB1m_4EdgeE7descendCs4u7P9VlF0C9_14thiserror_impl, symObjAddr: 0xC2B4, symBinAddr: 0xCF14, symSize: 0x9C }
  - { offset: 0x306C8, size: 0x8, addend: 0x0, symName: __RNvMsO_NtNtNtCsdFlNUEO95cG_5alloc11collections5btree4nodeINtB5_6HandleINtB5_7NodeRefNtNtB5_6marker3MutNtNtBb_6string6StringNtNtB7_7set_val9SetValZSTNtB1m_8InternalENtB1m_4EdgeE7descendCs4u7P9VlF0C9_14thiserror_impl, symObjAddr: 0xC350, symBinAddr: 0xCFB0, symSize: 0x9C }
  - { offset: 0x308B3, size: 0x8, addend: 0x0, symName: __RNvMsO_NtNtNtCsdFlNUEO95cG_5alloc11collections5btree4nodeINtB5_6HandleINtB5_7NodeRefNtNtB5_6marker3MutNtNtBb_6string6StringTINtNtB7_3set8BTreeSetB1C_EINtNtCscwCr4GBBztI_3syn10punctuated10PunctuatedNtCsfwj6t2KTYdc_11proc_macro211TokenStreamNtNtB2t_5token4PlusEENtB1m_8InternalENtB1m_4EdgeE7descendCs4u7P9VlF0C9_14thiserror_impl, symObjAddr: 0xC3EC, symBinAddr: 0xD04C, symSize: 0x9C }
  - { offset: 0x30A9E, size: 0x8, addend: 0x0, symName: __RNvMsO_NtNtNtCsdFlNUEO95cG_5alloc11collections5btree4nodeINtB5_6HandleINtB5_7NodeRefNtNtB5_6marker3MutRNtCsfwj6t2KTYdc_11proc_macro25IdentNtNtB7_7set_val9SetValZSTNtB1m_8InternalENtB1m_4EdgeE7descendCs4u7P9VlF0C9_14thiserror_impl, symObjAddr: 0xC488, symBinAddr: 0xD0E8, symSize: 0x9C }
  - { offset: 0x30C89, size: 0x8, addend: 0x0, symName: __RNvMsO_NtNtNtCsdFlNUEO95cG_5alloc11collections5btree4nodeINtB5_6HandleINtB5_7NodeRefNtNtB5_6marker3MutTjNtNtCs4u7P9VlF0C9_14thiserror_impl4attr5TraitENtNtB7_7set_val9SetValZSTNtB1m_8InternalENtB1m_4EdgeE7descendB1I_, symObjAddr: 0xC524, symBinAddr: 0xD184, symSize: 0x9C }
  - { offset: 0x30E49, size: 0x8, addend: 0x0, symName: __RNvMsO_NtNtNtCsdFlNUEO95cG_5alloc11collections5btree4nodeINtB5_6HandleINtB5_7NodeRefNtNtB5_6marker5DyingNtCsfwj6t2KTYdc_11proc_macro25IdentNtNtB7_7set_val9SetValZSTNtB1m_8InternalENtB1m_4EdgeE7descendCs4u7P9VlF0C9_14thiserror_impl, symObjAddr: 0xC5C0, symBinAddr: 0xD220, symSize: 0x9C }
  - { offset: 0x31009, size: 0x8, addend: 0x0, symName: __RNvMsO_NtNtNtCsdFlNUEO95cG_5alloc11collections5btree4nodeINtB5_6HandleINtB5_7NodeRefNtNtB5_6marker5DyingNtNtBb_6string6StringNtNtB7_7set_val9SetValZSTNtB1m_8InternalENtB1m_4EdgeE7descendCs4u7P9VlF0C9_14thiserror_impl, symObjAddr: 0xC65C, symBinAddr: 0xD2BC, symSize: 0x9C }
  - { offset: 0x311C9, size: 0x8, addend: 0x0, symName: __RNvMsO_NtNtNtCsdFlNUEO95cG_5alloc11collections5btree4nodeINtB5_6HandleINtB5_7NodeRefNtNtB5_6marker5DyingNtNtBb_6string6StringTINtNtB7_3set8BTreeSetB1E_EINtNtCscwCr4GBBztI_3syn10punctuated10PunctuatedNtCsfwj6t2KTYdc_11proc_macro211TokenStreamNtNtB2v_5token4PlusEENtB1m_8InternalENtB1m_4EdgeE7descendCs4u7P9VlF0C9_14thiserror_impl, symObjAddr: 0xC6F8, symBinAddr: 0xD358, symSize: 0x9C }
  - { offset: 0x31389, size: 0x8, addend: 0x0, symName: __RNvMsO_NtNtNtCsdFlNUEO95cG_5alloc11collections5btree4nodeINtB5_6HandleINtB5_7NodeRefNtNtB5_6marker5DyingRNtCsfwj6t2KTYdc_11proc_macro25IdentNtNtB7_7set_val9SetValZSTNtB1m_8InternalENtB1m_4EdgeE7descendCs4u7P9VlF0C9_14thiserror_impl, symObjAddr: 0xC794, symBinAddr: 0xD3F4, symSize: 0x9C }
  - { offset: 0x31549, size: 0x8, addend: 0x0, symName: __RNvMsO_NtNtNtCsdFlNUEO95cG_5alloc11collections5btree4nodeINtB5_6HandleINtB5_7NodeRefNtNtB5_6marker5DyingTjNtNtCs4u7P9VlF0C9_14thiserror_impl4attr5TraitENtNtB7_7set_val9SetValZSTNtB1m_8InternalENtB1m_4EdgeE7descendB1K_, symObjAddr: 0xC830, symBinAddr: 0xD490, symSize: 0x9C }
  - { offset: 0x31709, size: 0x8, addend: 0x0, symName: __RNvMsO_NtNtNtCsdFlNUEO95cG_5alloc11collections5btree4nodeINtB5_6HandleINtB5_7NodeRefNtNtB5_6marker5ImmutNtNtBb_6string6StringTINtNtB7_3set8BTreeSetB1E_EINtNtCscwCr4GBBztI_3syn10punctuated10PunctuatedNtCsfwj6t2KTYdc_11proc_macro211TokenStreamNtNtB2v_5token4PlusEENtB1m_8InternalENtB1m_4EdgeE7descendCs4u7P9VlF0C9_14thiserror_impl, symObjAddr: 0xC8CC, symBinAddr: 0xD52C, symSize: 0x9C }
  - { offset: 0x318C9, size: 0x8, addend: 0x0, symName: __RNvMsO_NtNtNtCsdFlNUEO95cG_5alloc11collections5btree4nodeINtB5_6HandleINtB5_7NodeRefNtNtB5_6marker5ImmutRNtCsfwj6t2KTYdc_11proc_macro25IdentNtNtB7_7set_val9SetValZSTNtB1m_8InternalENtB1m_4EdgeE7descendCs4u7P9VlF0C9_14thiserror_impl, symObjAddr: 0xC968, symBinAddr: 0xD5C8, symSize: 0x9C }
  - { offset: 0x31A89, size: 0x8, addend: 0x0, symName: __RNvMsO_NtNtNtCsdFlNUEO95cG_5alloc11collections5btree4nodeINtB5_6HandleINtB5_7NodeRefNtNtB5_6marker5ImmutTjNtNtCs4u7P9VlF0C9_14thiserror_impl4attr5TraitENtNtB7_7set_val9SetValZSTNtB1m_8InternalENtB1m_4EdgeE7descendB1K_, symObjAddr: 0xCA04, symBinAddr: 0xD664, symSize: 0x9C }
  - { offset: 0x31D57, size: 0x8, addend: 0x0, symName: __RNvMsP_NtNtNtCsdFlNUEO95cG_5alloc11collections5btree4nodeINtB5_6HandleINtB5_7NodeRefNtNtB5_6marker5ImmutNtNtBb_6string6StringTINtNtB7_3set8BTreeSetB1E_EINtNtCscwCr4GBBztI_3syn10punctuated10PunctuatedNtCsfwj6t2KTYdc_11proc_macro211TokenStreamNtNtB2v_5token4PlusEENtB1m_14LeafOrInternalENtB1m_2KVE7into_kvCs4u7P9VlF0C9_14thiserror_impl, symObjAddr: 0xCAA0, symBinAddr: 0xD700, symSize: 0xF4 }
  - { offset: 0x3209E, size: 0x8, addend: 0x0, symName: __RNvMsP_NtNtNtCsdFlNUEO95cG_5alloc11collections5btree4nodeINtB5_6HandleINtB5_7NodeRefNtNtB5_6marker5ImmutRNtCsfwj6t2KTYdc_11proc_macro25IdentNtNtB7_7set_val9SetValZSTNtB1m_14LeafOrInternalENtB1m_2KVE7into_kvCs4u7P9VlF0C9_14thiserror_impl, symObjAddr: 0xCB94, symBinAddr: 0xD7F4, symSize: 0xEC }
  - { offset: 0x323D4, size: 0x8, addend: 0x0, symName: __RNvMsP_NtNtNtCsdFlNUEO95cG_5alloc11collections5btree4nodeINtB5_6HandleINtB5_7NodeRefNtNtB5_6marker5ImmutTjNtNtCs4u7P9VlF0C9_14thiserror_impl4attr5TraitENtNtB7_7set_val9SetValZSTNtB1m_4LeafENtB1m_2KVE7into_kvB1K_, symObjAddr: 0xCC80, symBinAddr: 0xD8E0, symSize: 0xE0 }
  - { offset: 0x326B7, size: 0x8, addend: 0x0, symName: __RNvMsP_NtNtNtCsdFlNUEO95cG_5alloc11collections5btree4nodeINtB5_6HandleINtB5_7NodeRefNtNtB5_6marker5ImmutTjNtNtCs4u7P9VlF0C9_14thiserror_impl4attr5TraitENtNtB7_7set_val9SetValZSTNtB1m_8InternalENtB1m_2KVE7into_kvB1K_, symObjAddr: 0xCD60, symBinAddr: 0xD9C0, symSize: 0xE0 }
  - { offset: 0x32937, size: 0x8, addend: 0x0, symName: __RNvMsQ_NtNtNtCsdFlNUEO95cG_5alloc11collections5btree4nodeINtB5_6HandleINtB5_7NodeRefNtNtB5_6marker3MutNtCsfwj6t2KTYdc_11proc_macro25IdentNtNtB7_7set_val9SetValZSTNtB1m_14LeafOrInternalENtB1m_2KVE12into_val_mutCs4u7P9VlF0C9_14thiserror_impl, symObjAddr: 0xCE40, symBinAddr: 0xDAA0, symSize: 0x94 }
  - { offset: 0x32A96, size: 0x8, addend: 0x0, symName: __RNvMsQ_NtNtNtCsdFlNUEO95cG_5alloc11collections5btree4nodeINtB5_6HandleINtB5_7NodeRefNtNtB5_6marker3MutNtNtBb_6string6StringNtNtB7_7set_val9SetValZSTNtB1m_14LeafOrInternalENtB1m_2KVE12into_val_mutCs4u7P9VlF0C9_14thiserror_impl, symObjAddr: 0xCED4, symBinAddr: 0xDB34, symSize: 0x94 }
  - { offset: 0x32BF5, size: 0x8, addend: 0x0, symName: __RNvMsQ_NtNtNtCsdFlNUEO95cG_5alloc11collections5btree4nodeINtB5_6HandleINtB5_7NodeRefNtNtB5_6marker3MutNtNtBb_6string6StringTINtNtB7_3set8BTreeSetB1C_EINtNtCscwCr4GBBztI_3syn10punctuated10PunctuatedNtCsfwj6t2KTYdc_11proc_macro211TokenStreamNtNtB2t_5token4PlusEENtB1m_14LeafOrInternalENtB1m_2KVE12into_val_mutCs4u7P9VlF0C9_14thiserror_impl, symObjAddr: 0xCF68, symBinAddr: 0xDBC8, symSize: 0x94 }
  - { offset: 0x32D54, size: 0x8, addend: 0x0, symName: __RNvMsQ_NtNtNtCsdFlNUEO95cG_5alloc11collections5btree4nodeINtB5_6HandleINtB5_7NodeRefNtNtB5_6marker3MutRNtCsfwj6t2KTYdc_11proc_macro25IdentNtNtB7_7set_val9SetValZSTNtB1m_4LeafENtB1m_2KVE12into_val_mutCs4u7P9VlF0C9_14thiserror_impl, symObjAddr: 0xCFFC, symBinAddr: 0xDC5C, symSize: 0x94 }
  - { offset: 0x32EB3, size: 0x8, addend: 0x0, symName: __RNvMsQ_NtNtNtCsdFlNUEO95cG_5alloc11collections5btree4nodeINtB5_6HandleINtB5_7NodeRefNtNtB5_6marker3MutTjNtNtCs4u7P9VlF0C9_14thiserror_impl4attr5TraitENtNtB7_7set_val9SetValZSTNtB1m_14LeafOrInternalENtB1m_2KVE12into_val_mutB1I_, symObjAddr: 0xD090, symBinAddr: 0xDCF0, symSize: 0x94 }
  - { offset: 0x33012, size: 0x8, addend: 0x0, symName: __RNvMsQ_NtNtNtCsdFlNUEO95cG_5alloc11collections5btree4nodeINtB5_6HandleINtB5_7NodeRefNtNtB5_6marker3MutTjNtNtCs4u7P9VlF0C9_14thiserror_impl4attr5TraitENtNtB7_7set_val9SetValZSTNtB1m_4LeafENtB1m_2KVE12into_val_mutB1I_, symObjAddr: 0xD124, symBinAddr: 0xDD84, symSize: 0x94 }
  - { offset: 0x331D3, size: 0x8, addend: 0x0, symName: __RNvMsS_NtNtNtCsdFlNUEO95cG_5alloc11collections5btree4nodeINtB5_6HandleINtB5_7NodeRefNtNtB5_6marker3MutNtCsfwj6t2KTYdc_11proc_macro25IdentNtNtB7_7set_val9SetValZSTNtB1m_14LeafOrInternalENtB1m_2KVE6kv_mutCs4u7P9VlF0C9_14thiserror_impl, symObjAddr: 0xD1B8, symBinAddr: 0xDE18, symSize: 0x10C }
  - { offset: 0x3345F, size: 0x8, addend: 0x0, symName: __RNvMsS_NtNtNtCsdFlNUEO95cG_5alloc11collections5btree4nodeINtB5_6HandleINtB5_7NodeRefNtNtB5_6marker3MutNtNtBb_6string6StringNtNtB7_7set_val9SetValZSTNtB1m_14LeafOrInternalENtB1m_2KVE6kv_mutCs4u7P9VlF0C9_14thiserror_impl, symObjAddr: 0xD2C4, symBinAddr: 0xDF24, symSize: 0x10C }
  - { offset: 0x33620, size: 0x8, addend: 0x0, symName: __RNvMsS_NtNtNtCsdFlNUEO95cG_5alloc11collections5btree4nodeINtB5_6HandleINtB5_7NodeRefNtNtB5_6marker3MutRNtCsfwj6t2KTYdc_11proc_macro25IdentNtNtB7_7set_val9SetValZSTNtB1m_8InternalENtB1m_2KVE10replace_kvCs4u7P9VlF0C9_14thiserror_impl, symObjAddr: 0xD3D0, symBinAddr: 0xE030, symSize: 0x78 }
  - { offset: 0x3379B, size: 0x8, addend: 0x0, symName: __RNvMsS_NtNtNtCsdFlNUEO95cG_5alloc11collections5btree4nodeINtB5_6HandleINtB5_7NodeRefNtNtB5_6marker3MutRNtCsfwj6t2KTYdc_11proc_macro25IdentNtNtB7_7set_val9SetValZSTNtB1m_8InternalENtB1m_2KVE6kv_mutCs4u7P9VlF0C9_14thiserror_impl, symObjAddr: 0xD448, symBinAddr: 0xE0A8, symSize: 0x104 }
  - { offset: 0x33A27, size: 0x8, addend: 0x0, symName: __RNvMsS_NtNtNtCsdFlNUEO95cG_5alloc11collections5btree4nodeINtB5_6HandleINtB5_7NodeRefNtNtB5_6marker3MutTjNtNtCs4u7P9VlF0C9_14thiserror_impl4attr5TraitENtNtB7_7set_val9SetValZSTNtB1m_14LeafOrInternalENtB1m_2KVE6kv_mutB1I_, symObjAddr: 0xD54C, symBinAddr: 0xE1AC, symSize: 0xF4 }
  - { offset: 0x33CA5, size: 0x8, addend: 0x0, symName: __RNvMsT_NtNtNtCsdFlNUEO95cG_5alloc11collections5btree4nodeINtB5_6HandleINtB5_7NodeRefNtNtB5_6marker5DyingNtCsfwj6t2KTYdc_11proc_macro25IdentNtNtB7_7set_val9SetValZSTNtB1m_14LeafOrInternalENtB1m_2KVE12drop_key_valCs4u7P9VlF0C9_14thiserror_impl, symObjAddr: 0xD640, symBinAddr: 0xE2A0, symSize: 0x138 }
  - { offset: 0x33F32, size: 0x8, addend: 0x0, symName: __RNvMsT_NtNtNtCsdFlNUEO95cG_5alloc11collections5btree4nodeINtB5_6HandleINtB5_7NodeRefNtNtB5_6marker5DyingNtNtBb_6string6StringNtNtB7_7set_val9SetValZSTNtB1m_14LeafOrInternalENtB1m_2KVE12drop_key_valCs4u7P9VlF0C9_14thiserror_impl, symObjAddr: 0xD778, symBinAddr: 0xE3D8, symSize: 0x138 }
  - { offset: 0x341BF, size: 0x8, addend: 0x0, symName: __RNvMsT_NtNtNtCsdFlNUEO95cG_5alloc11collections5btree4nodeINtB5_6HandleINtB5_7NodeRefNtNtB5_6marker5DyingNtNtBb_6string6StringTINtNtB7_3set8BTreeSetB1E_EINtNtCscwCr4GBBztI_3syn10punctuated10PunctuatedNtCsfwj6t2KTYdc_11proc_macro211TokenStreamNtNtB2v_5token4PlusEENtB1m_14LeafOrInternalENtB1m_2KVE12drop_key_valCs4u7P9VlF0C9_14thiserror_impl, symObjAddr: 0xD8B0, symBinAddr: 0xE510, symSize: 0x138 }
  - { offset: 0x34430, size: 0x8, addend: 0x0, symName: __RNvMsT_NtNtNtCsdFlNUEO95cG_5alloc11collections5btree4nodeINtB5_6HandleINtB5_7NodeRefNtNtB5_6marker5DyingRNtCsfwj6t2KTYdc_11proc_macro25IdentNtNtB7_7set_val9SetValZSTNtB1m_14LeafOrInternalENtB1m_2KVE12drop_key_valCs4u7P9VlF0C9_14thiserror_impl, symObjAddr: 0xD9E8, symBinAddr: 0xE648, symSize: 0x100 }
  - { offset: 0x34683, size: 0x8, addend: 0x0, symName: __RNvMsT_NtNtNtCsdFlNUEO95cG_5alloc11collections5btree4nodeINtB5_6HandleINtB5_7NodeRefNtNtB5_6marker5DyingTjNtNtCs4u7P9VlF0C9_14thiserror_impl4attr5TraitENtNtB7_7set_val9SetValZSTNtB1m_14LeafOrInternalENtB1m_2KVE12drop_key_valB1K_, symObjAddr: 0xDAE8, symBinAddr: 0xE748, symSize: 0xF0 }
  - { offset: 0x3492D, size: 0x8, addend: 0x0, symName: __RNvMsT_NtNtNtCsdFlNUEO95cG_5alloc11collections5btree4nodeINtB5_6HandleINtB5_7NodeRefNtNtB5_6marker5DyingTjNtNtCs4u7P9VlF0C9_14thiserror_impl4attr5TraitENtNtB7_7set_val9SetValZSTNtB1m_14LeafOrInternalENtB1m_2KVE12into_key_valB1K_, symObjAddr: 0xDBD8, symBinAddr: 0xE838, symSize: 0x108 }
  - { offset: 0x34DF4, size: 0x8, addend: 0x0, symName: __RNvMsU_NtNtNtCsdFlNUEO95cG_5alloc11collections5btree4nodeINtB5_6HandleINtB5_7NodeRefNtNtB5_6marker3MutNtCsfwj6t2KTYdc_11proc_macro25IdentNtNtB7_7set_val9SetValZSTNtB1m_4LeafENtB1m_2KVE15split_leaf_dataCs4u7P9VlF0C9_14thiserror_impl, symObjAddr: 0xDCE0, symBinAddr: 0xE940, symSize: 0x434 }
  - { offset: 0x35809, size: 0x8, addend: 0x0, symName: __RNvMsU_NtNtNtCsdFlNUEO95cG_5alloc11collections5btree4nodeINtB5_6HandleINtB5_7NodeRefNtNtB5_6marker3MutNtCsfwj6t2KTYdc_11proc_macro25IdentNtNtB7_7set_val9SetValZSTNtB1m_8InternalENtB1m_2KVE15split_leaf_dataCs4u7P9VlF0C9_14thiserror_impl, symObjAddr: 0xE114, symBinAddr: 0xED74, symSize: 0x434 }
  - { offset: 0x3621E, size: 0x8, addend: 0x0, symName: __RNvMsU_NtNtNtCsdFlNUEO95cG_5alloc11collections5btree4nodeINtB5_6HandleINtB5_7NodeRefNtNtB5_6marker3MutNtNtBb_6string6StringNtNtB7_7set_val9SetValZSTNtB1m_4LeafENtB1m_2KVE15split_leaf_dataCs4u7P9VlF0C9_14thiserror_impl, symObjAddr: 0xE548, symBinAddr: 0xF1A8, symSize: 0x434 }
  - { offset: 0x36C33, size: 0x8, addend: 0x0, symName: __RNvMsU_NtNtNtCsdFlNUEO95cG_5alloc11collections5btree4nodeINtB5_6HandleINtB5_7NodeRefNtNtB5_6marker3MutNtNtBb_6string6StringNtNtB7_7set_val9SetValZSTNtB1m_8InternalENtB1m_2KVE15split_leaf_dataCs4u7P9VlF0C9_14thiserror_impl, symObjAddr: 0xE97C, symBinAddr: 0xF5DC, symSize: 0x434 }
  - { offset: 0x37648, size: 0x8, addend: 0x0, symName: __RNvMsU_NtNtNtCsdFlNUEO95cG_5alloc11collections5btree4nodeINtB5_6HandleINtB5_7NodeRefNtNtB5_6marker3MutNtNtBb_6string6StringTINtNtB7_3set8BTreeSetB1C_EINtNtCscwCr4GBBztI_3syn10punctuated10PunctuatedNtCsfwj6t2KTYdc_11proc_macro211TokenStreamNtNtB2t_5token4PlusEENtB1m_4LeafENtB1m_2KVE15split_leaf_dataCs4u7P9VlF0C9_14thiserror_impl, symObjAddr: 0xEDB0, symBinAddr: 0xFA10, symSize: 0x490 }
  - { offset: 0x380EA, size: 0x8, addend: 0x0, symName: __RNvMsU_NtNtNtCsdFlNUEO95cG_5alloc11collections5btree4nodeINtB5_6HandleINtB5_7NodeRefNtNtB5_6marker3MutNtNtBb_6string6StringTINtNtB7_3set8BTreeSetB1C_EINtNtCscwCr4GBBztI_3syn10punctuated10PunctuatedNtCsfwj6t2KTYdc_11proc_macro211TokenStreamNtNtB2t_5token4PlusEENtB1m_8InternalENtB1m_2KVE15split_leaf_dataCs4u7P9VlF0C9_14thiserror_impl, symObjAddr: 0xF240, symBinAddr: 0xFEA0, symSize: 0x490 }
  - { offset: 0x38B8C, size: 0x8, addend: 0x0, symName: __RNvMsU_NtNtNtCsdFlNUEO95cG_5alloc11collections5btree4nodeINtB5_6HandleINtB5_7NodeRefNtNtB5_6marker3MutTjNtNtCs4u7P9VlF0C9_14thiserror_impl4attr5TraitENtNtB7_7set_val9SetValZSTNtB1m_4LeafENtB1m_2KVE15split_leaf_dataB1I_, symObjAddr: 0xF6D0, symBinAddr: 0x10330, symSize: 0x3D0 }
  - { offset: 0x395B1, size: 0x8, addend: 0x0, symName: __RNvMsU_NtNtNtCsdFlNUEO95cG_5alloc11collections5btree4nodeINtB5_6HandleINtB5_7NodeRefNtNtB5_6marker3MutTjNtNtCs4u7P9VlF0C9_14thiserror_impl4attr5TraitENtNtB7_7set_val9SetValZSTNtB1m_8InternalENtB1m_2KVE15split_leaf_dataB1I_, symObjAddr: 0xFAA0, symBinAddr: 0x10700, symSize: 0x3D0 }
  - { offset: 0x39E05, size: 0x8, addend: 0x0, symName: __RNvMsX_NtNtNtCsdFlNUEO95cG_5alloc11collections5btree4nodeINtB5_6HandleINtB5_7NodeRefNtNtB5_6marker3MutRNtCsfwj6t2KTYdc_11proc_macro25IdentNtNtB7_7set_val9SetValZSTNtB1m_8InternalENtB1m_2KVE22consider_for_balancingCs4u7P9VlF0C9_14thiserror_impl, symObjAddr: 0xFE70, symBinAddr: 0x10AD0, symSize: 0xE4 }
  - { offset: 0x3A054, size: 0x8, addend: 0x0, symName: __RNvMse_NtNtNtCsdFlNUEO95cG_5alloc11collections5btree4nodeINtB5_7NodeRefNtNtB5_6marker3MutNtCsfwj6t2KTYdc_11proc_macro25IdentNtNtB7_7set_val9SetValZSTNtB19_14LeafOrInternalE6ascendCs4u7P9VlF0C9_14thiserror_impl, symObjAddr: 0xFF54, symBinAddr: 0x10BB4, symSize: 0x17C }
  - { offset: 0x3A31D, size: 0x8, addend: 0x0, symName: __RNvMse_NtNtNtCsdFlNUEO95cG_5alloc11collections5btree4nodeINtB5_7NodeRefNtNtB5_6marker3MutNtNtBb_6string6StringNtNtB7_7set_val9SetValZSTNtB19_14LeafOrInternalE6ascendCs4u7P9VlF0C9_14thiserror_impl, symObjAddr: 0x100D0, symBinAddr: 0x10D30, symSize: 0x17C }
  - { offset: 0x3A5E6, size: 0x8, addend: 0x0, symName: __RNvMse_NtNtNtCsdFlNUEO95cG_5alloc11collections5btree4nodeINtB5_7NodeRefNtNtB5_6marker3MutNtNtBb_6string6StringTINtNtB7_3set8BTreeSetB1p_EINtNtCscwCr4GBBztI_3syn10punctuated10PunctuatedNtCsfwj6t2KTYdc_11proc_macro211TokenStreamNtNtB2g_5token4PlusEENtB19_14LeafOrInternalE6ascendCs4u7P9VlF0C9_14thiserror_impl, symObjAddr: 0x1024C, symBinAddr: 0x10EAC, symSize: 0x17C }
  - { offset: 0x3A8AF, size: 0x8, addend: 0x0, symName: __RNvMse_NtNtNtCsdFlNUEO95cG_5alloc11collections5btree4nodeINtB5_7NodeRefNtNtB5_6marker3MutRNtCsfwj6t2KTYdc_11proc_macro25IdentNtNtB7_7set_val9SetValZSTNtB19_14LeafOrInternalE6ascendCs4u7P9VlF0C9_14thiserror_impl, symObjAddr: 0x103C8, symBinAddr: 0x11028, symSize: 0x17C }
  - { offset: 0x3AB78, size: 0x8, addend: 0x0, symName: __RNvMse_NtNtNtCsdFlNUEO95cG_5alloc11collections5btree4nodeINtB5_7NodeRefNtNtB5_6marker3MutTjNtNtCs4u7P9VlF0C9_14thiserror_impl4attr5TraitENtNtB7_7set_val9SetValZSTNtB19_14LeafOrInternalE6ascendB1v_, symObjAddr: 0x10544, symBinAddr: 0x111A4, symSize: 0x17C }
  - { offset: 0x3AE1A, size: 0x8, addend: 0x0, symName: __RNvMse_NtNtNtCsdFlNUEO95cG_5alloc11collections5btree4nodeINtB5_7NodeRefNtNtB5_6marker5DyingNtCsfwj6t2KTYdc_11proc_macro25IdentNtNtB7_7set_val9SetValZSTNtB19_14LeafOrInternalE6ascendCs4u7P9VlF0C9_14thiserror_impl, symObjAddr: 0x106C0, symBinAddr: 0x11320, symSize: 0x17C }
  - { offset: 0x3B0BC, size: 0x8, addend: 0x0, symName: __RNvMse_NtNtNtCsdFlNUEO95cG_5alloc11collections5btree4nodeINtB5_7NodeRefNtNtB5_6marker5DyingNtNtBb_6string6StringNtNtB7_7set_val9SetValZSTNtB19_14LeafOrInternalE6ascendCs4u7P9VlF0C9_14thiserror_impl, symObjAddr: 0x1083C, symBinAddr: 0x1149C, symSize: 0x17C }
  - { offset: 0x3B35E, size: 0x8, addend: 0x0, symName: __RNvMse_NtNtNtCsdFlNUEO95cG_5alloc11collections5btree4nodeINtB5_7NodeRefNtNtB5_6marker5DyingNtNtBb_6string6StringTINtNtB7_3set8BTreeSetB1r_EINtNtCscwCr4GBBztI_3syn10punctuated10PunctuatedNtCsfwj6t2KTYdc_11proc_macro211TokenStreamNtNtB2i_5token4PlusEENtB19_14LeafOrInternalE6ascendCs4u7P9VlF0C9_14thiserror_impl, symObjAddr: 0x109B8, symBinAddr: 0x11618, symSize: 0x17C }
  - { offset: 0x3B600, size: 0x8, addend: 0x0, symName: __RNvMse_NtNtNtCsdFlNUEO95cG_5alloc11collections5btree4nodeINtB5_7NodeRefNtNtB5_6marker5DyingRNtCsfwj6t2KTYdc_11proc_macro25IdentNtNtB7_7set_val9SetValZSTNtB19_14LeafOrInternalE6ascendCs4u7P9VlF0C9_14thiserror_impl, symObjAddr: 0x10B34, symBinAddr: 0x11794, symSize: 0x17C }
  - { offset: 0x3B8A2, size: 0x8, addend: 0x0, symName: __RNvMse_NtNtNtCsdFlNUEO95cG_5alloc11collections5btree4nodeINtB5_7NodeRefNtNtB5_6marker5DyingTjNtNtCs4u7P9VlF0C9_14thiserror_impl4attr5TraitENtNtB7_7set_val9SetValZSTNtB19_14LeafOrInternalE6ascendB1x_, symObjAddr: 0x10CB0, symBinAddr: 0x11910, symSize: 0x17C }
  - { offset: 0x3BB08, size: 0x8, addend: 0x0, symName: __RNvMsg_NtNtNtCsdFlNUEO95cG_5alloc11collections5btree4nodeINtB5_7NodeRefNtNtB5_6marker5ImmutNtCsfwj6t2KTYdc_11proc_macro25IdentNtNtB7_7set_val9SetValZSTNtB19_14LeafOrInternalE4keysCs4u7P9VlF0C9_14thiserror_impl, symObjAddr: 0x10E2C, symBinAddr: 0x11A8C, symSize: 0xA8 }
  - { offset: 0x3BD03, size: 0x8, addend: 0x0, symName: __RNvMsg_NtNtNtCsdFlNUEO95cG_5alloc11collections5btree4nodeINtB5_7NodeRefNtNtB5_6marker5ImmutNtNtBb_6string6StringNtNtB7_7set_val9SetValZSTNtB19_14LeafOrInternalE4keysCs4u7P9VlF0C9_14thiserror_impl, symObjAddr: 0x10ED4, symBinAddr: 0x11B34, symSize: 0xA8 }
  - { offset: 0x3BEC6, size: 0x8, addend: 0x0, symName: __RNvMsg_NtNtNtCsdFlNUEO95cG_5alloc11collections5btree4nodeINtB5_7NodeRefNtNtB5_6marker5ImmutNtNtBb_6string6StringTINtNtB7_3set8BTreeSetB1r_EINtNtCscwCr4GBBztI_3syn10punctuated10PunctuatedNtCsfwj6t2KTYdc_11proc_macro211TokenStreamNtNtB2i_5token4PlusEENtB19_14LeafOrInternalE4keysCs4u7P9VlF0C9_14thiserror_impl, symObjAddr: 0x10F7C, symBinAddr: 0x11BDC, symSize: 0xA8 }
  - { offset: 0x3C0A7, size: 0x8, addend: 0x0, symName: __RNvMsg_NtNtNtCsdFlNUEO95cG_5alloc11collections5btree4nodeINtB5_7NodeRefNtNtB5_6marker5ImmutRNtCsfwj6t2KTYdc_11proc_macro25IdentNtNtB7_7set_val9SetValZSTNtB19_14LeafOrInternalE4keysCs4u7P9VlF0C9_14thiserror_impl, symObjAddr: 0x11024, symBinAddr: 0x11C84, symSize: 0xA8 }
  - { offset: 0x3C295, size: 0x8, addend: 0x0, symName: __RNvMsg_NtNtNtCsdFlNUEO95cG_5alloc11collections5btree4nodeINtB5_7NodeRefNtNtB5_6marker5ImmutTjNtNtCs4u7P9VlF0C9_14thiserror_impl4attr5TraitENtNtB7_7set_val9SetValZSTNtB19_14LeafOrInternalE4keysB1x_, symObjAddr: 0x110CC, symBinAddr: 0x11D2C, symSize: 0xA4 }
  - { offset: 0x3C537, size: 0x8, addend: 0x0, symName: __RNvMsn_NtNtNtCsdFlNUEO95cG_5alloc11collections5btree8navigateINtNtB7_4node7NodeRefNtNtB10_6marker3MutRNtCsfwj6t2KTYdc_11proc_macro25IdentNtNtB7_7set_val9SetValZSTNtB1k_14LeafOrInternalE14last_leaf_edgeCs4u7P9VlF0C9_14thiserror_impl, symObjAddr: 0x11170, symBinAddr: 0x11DD0, symSize: 0xEC }
  - { offset: 0x3C891, size: 0x8, addend: 0x0, symName: __RNvMsp_NtNtNtCsdFlNUEO95cG_5alloc11collections5btree8navigateINtNtB7_4node6HandleINtB10_7NodeRefNtNtB10_6marker5DyingNtCsfwj6t2KTYdc_11proc_macro25IdentNtNtB7_7set_val9SetValZSTNtB1y_14LeafOrInternalENtB1y_2KVE14next_leaf_edgeCs4u7P9VlF0C9_14thiserror_impl, symObjAddr: 0x1125C, symBinAddr: 0x11EBC, symSize: 0x210 }
  - { offset: 0x3CD15, size: 0x8, addend: 0x0, symName: __RNvMsp_NtNtNtCsdFlNUEO95cG_5alloc11collections5btree8navigateINtNtB7_4node6HandleINtB10_7NodeRefNtNtB10_6marker5DyingNtNtBb_6string6StringNtNtB7_7set_val9SetValZSTNtB1y_14LeafOrInternalENtB1y_2KVE14next_leaf_edgeCs4u7P9VlF0C9_14thiserror_impl, symObjAddr: 0x1146C, symBinAddr: 0x120CC, symSize: 0x210 }
  - { offset: 0x3D199, size: 0x8, addend: 0x0, symName: __RNvMsp_NtNtNtCsdFlNUEO95cG_5alloc11collections5btree8navigateINtNtB7_4node6HandleINtB10_7NodeRefNtNtB10_6marker5DyingNtNtBb_6string6StringTINtNtB7_3set8BTreeSetB1R_EINtNtCscwCr4GBBztI_3syn10punctuated10PunctuatedNtCsfwj6t2KTYdc_11proc_macro211TokenStreamNtNtB2I_5token4PlusEENtB1y_14LeafOrInternalENtB1y_2KVE14next_leaf_edgeCs4u7P9VlF0C9_14thiserror_impl, symObjAddr: 0x1167C, symBinAddr: 0x122DC, symSize: 0x210 }
  - { offset: 0x3D61D, size: 0x8, addend: 0x0, symName: __RNvMsp_NtNtNtCsdFlNUEO95cG_5alloc11collections5btree8navigateINtNtB7_4node6HandleINtB10_7NodeRefNtNtB10_6marker5DyingRNtCsfwj6t2KTYdc_11proc_macro25IdentNtNtB7_7set_val9SetValZSTNtB1y_14LeafOrInternalENtB1y_2KVE14next_leaf_edgeCs4u7P9VlF0C9_14thiserror_impl, symObjAddr: 0x1188C, symBinAddr: 0x124EC, symSize: 0x210 }
  - { offset: 0x3DAA1, size: 0x8, addend: 0x0, symName: __RNvMsp_NtNtNtCsdFlNUEO95cG_5alloc11collections5btree8navigateINtNtB7_4node6HandleINtB10_7NodeRefNtNtB10_6marker5DyingTjNtNtCs4u7P9VlF0C9_14thiserror_impl4attr5TraitENtNtB7_7set_val9SetValZSTNtB1y_14LeafOrInternalENtB1y_2KVE14next_leaf_edgeB1X_, symObjAddr: 0x11A9C, symBinAddr: 0x126FC, symSize: 0x210 }
  - { offset: 0x3DED3, size: 0x8, addend: 0x0, symName: __RNvMsu_NtNtNtCsdFlNUEO95cG_5alloc11collections5btree4nodeINtB5_7NodeRefNtNtB5_6marker3MutNtCsfwj6t2KTYdc_11proc_macro25IdentNtNtB7_7set_val9SetValZSTNtB19_4LeafE16push_with_handleCs4u7P9VlF0C9_14thiserror_impl, symObjAddr: 0x11CAC, symBinAddr: 0x1290C, symSize: 0x204 }
  - { offset: 0x3E3AB, size: 0x8, addend: 0x0, symName: __RNvMsu_NtNtNtCsdFlNUEO95cG_5alloc11collections5btree4nodeINtB5_7NodeRefNtNtB5_6marker3MutNtNtBb_6string6StringNtNtB7_7set_val9SetValZSTNtB19_4LeafE16push_with_handleCs4u7P9VlF0C9_14thiserror_impl, symObjAddr: 0x11EB0, symBinAddr: 0x12B10, symSize: 0x204 }
  - { offset: 0x3E8D7, size: 0x8, addend: 0x0, symName: __RNvMsu_NtNtNtCsdFlNUEO95cG_5alloc11collections5btree4nodeINtB5_7NodeRefNtNtB5_6marker3MutNtNtBb_6string6StringTINtNtB7_3set8BTreeSetB1p_EINtNtCscwCr4GBBztI_3syn10punctuated10PunctuatedNtCsfwj6t2KTYdc_11proc_macro211TokenStreamNtNtB2g_5token4PlusEENtB19_4LeafE16push_with_handleCs4u7P9VlF0C9_14thiserror_impl, symObjAddr: 0x120B4, symBinAddr: 0x12D14, symSize: 0x268 }
  - { offset: 0x3EDE0, size: 0x8, addend: 0x0, symName: __RNvMsu_NtNtNtCsdFlNUEO95cG_5alloc11collections5btree4nodeINtB5_7NodeRefNtNtB5_6marker3MutRNtCsfwj6t2KTYdc_11proc_macro25IdentNtNtB7_7set_val9SetValZSTNtB19_4LeafE16push_with_handleCs4u7P9VlF0C9_14thiserror_impl, symObjAddr: 0x1231C, symBinAddr: 0x12F7C, symSize: 0x1B8 }
  - { offset: 0x3F258, size: 0x8, addend: 0x0, symName: __RNvMsu_NtNtNtCsdFlNUEO95cG_5alloc11collections5btree4nodeINtB5_7NodeRefNtNtB5_6marker3MutTjNtNtCs4u7P9VlF0C9_14thiserror_impl4attr5TraitENtNtB7_7set_val9SetValZSTNtB19_4LeafE16push_with_handleB1v_, symObjAddr: 0x124D4, symBinAddr: 0x13134, symSize: 0x1BC }
  - { offset: 0x3F7E8, size: 0x8, addend: 0x0, symName: __RNvMsv_NtNtNtCsdFlNUEO95cG_5alloc11collections5btree4nodeINtB5_7NodeRefNtNtB5_6marker3MutNtCsfwj6t2KTYdc_11proc_macro25IdentNtNtB7_7set_val9SetValZSTNtB19_8InternalE4pushCs4u7P9VlF0C9_14thiserror_impl, symObjAddr: 0x12690, symBinAddr: 0x132F0, symSize: 0x2FC }
  - { offset: 0x3FEF0, size: 0x8, addend: 0x0, symName: __RNvMsv_NtNtNtCsdFlNUEO95cG_5alloc11collections5btree4nodeINtB5_7NodeRefNtNtB5_6marker3MutNtNtBb_6string6StringNtNtB7_7set_val9SetValZSTNtB19_8InternalE4pushCs4u7P9VlF0C9_14thiserror_impl, symObjAddr: 0x1298C, symBinAddr: 0x135EC, symSize: 0x2FC }
  - { offset: 0x4064C, size: 0x8, addend: 0x0, symName: __RNvMsv_NtNtNtCsdFlNUEO95cG_5alloc11collections5btree4nodeINtB5_7NodeRefNtNtB5_6marker3MutNtNtBb_6string6StringTINtNtB7_3set8BTreeSetB1p_EINtNtCscwCr4GBBztI_3syn10punctuated10PunctuatedNtCsfwj6t2KTYdc_11proc_macro211TokenStreamNtNtB2g_5token4PlusEENtB19_8InternalE4pushCs4u7P9VlF0C9_14thiserror_impl, symObjAddr: 0x12C88, symBinAddr: 0x138E8, symSize: 0x35C }
  - { offset: 0x40D86, size: 0x8, addend: 0x0, symName: __RNvMsv_NtNtNtCsdFlNUEO95cG_5alloc11collections5btree4nodeINtB5_7NodeRefNtNtB5_6marker3MutRNtCsfwj6t2KTYdc_11proc_macro25IdentNtNtB7_7set_val9SetValZSTNtB19_8InternalE4pushCs4u7P9VlF0C9_14thiserror_impl, symObjAddr: 0x12FE4, symBinAddr: 0x13C44, symSize: 0x2B4 }
  - { offset: 0x4142E, size: 0x8, addend: 0x0, symName: __RNvMsv_NtNtNtCsdFlNUEO95cG_5alloc11collections5btree4nodeINtB5_7NodeRefNtNtB5_6marker3MutTjNtNtCs4u7P9VlF0C9_14thiserror_impl4attr5TraitENtNtB7_7set_val9SetValZSTNtB19_8InternalE4pushB1v_, symObjAddr: 0x13298, symBinAddr: 0x13EF8, symSize: 0x2B8 }
  - { offset: 0x418A8, size: 0x8, addend: 0x0, symName: __RNCNCNvNtCs4u7P9VlF0C9_14thiserror_impl6expand9impl_enums0_00B7_, symObjAddr: 0x0, symBinAddr: 0x141F8, symSize: 0x1C }
  - { offset: 0x42303, size: 0x8, addend: 0x0, symName: __RNCNCNvNtCs4u7P9VlF0C9_14thiserror_impl6expand9impl_enums0_00B7_, symObjAddr: 0x0, symBinAddr: 0x141F8, symSize: 0x1C }
  - { offset: 0x42344, size: 0x8, addend: 0x0, symName: __RNCNvNtCs4u7P9VlF0C9_14thiserror_impl6expand9impl_enum0B5_, symObjAddr: 0x2E58, symBinAddr: 0x17050, symSize: 0xD8C }
  - { offset: 0x42639, size: 0x8, addend: 0x0, symName: __RNCNvNtCs4u7P9VlF0C9_14thiserror_impl6expand9impl_enums0_0B5_, symObjAddr: 0x3BE4, symBinAddr: 0x17DDC, symSize: 0x44 }
  - { offset: 0x42672, size: 0x8, addend: 0x0, symName: __RNCNvNtCs4u7P9VlF0C9_14thiserror_impl6expand9impl_enums1_0B5_, symObjAddr: 0x3C28, symBinAddr: 0x17E20, symSize: 0x65C }
  - { offset: 0x4287B, size: 0x8, addend: 0x0, symName: __RNCNvNtCs4u7P9VlF0C9_14thiserror_impl6expand9impl_enums2_0B5_, symObjAddr: 0x4284, symBinAddr: 0x1847C, symSize: 0x6A0 }
  - { offset: 0x42A6C, size: 0x8, addend: 0x0, symName: __RNCNvNtCs4u7P9VlF0C9_14thiserror_impl6expand9impl_enums_0B5_, symObjAddr: 0x4924, symBinAddr: 0x18B1C, symSize: 0x1E84 }
  - { offset: 0x43147, size: 0x8, addend: 0x0, symName: __RNCNvNtCs4u7P9VlF0C9_14thiserror_impl6expand10fields_pat0B5_, symObjAddr: 0x1C, symBinAddr: 0x14214, symSize: 0x18 }
  - { offset: 0x43180, size: 0x8, addend: 0x0, symName: __RNCNvNtCs4u7P9VlF0C9_14thiserror_impl6expand10fields_pats_0B5_, symObjAddr: 0x34, symBinAddr: 0x1422C, symSize: 0x178 }
  - { offset: 0x43239, size: 0x8, addend: 0x0, symName: __RNCNvNtCs4u7P9VlF0C9_14thiserror_impl6expand11impl_struct0B5_, symObjAddr: 0x1AC, symBinAddr: 0x143A4, symSize: 0x418 }
  - { offset: 0x432C7, size: 0x8, addend: 0x0, symName: __RNCNvNtCs4u7P9VlF0C9_14thiserror_impl6expand11impl_structs0_0B5_, symObjAddr: 0x5C4, symBinAddr: 0x147BC, symSize: 0x8B4 }
  - { offset: 0x43495, size: 0x8, addend: 0x0, symName: __RNCNvNtCs4u7P9VlF0C9_14thiserror_impl6expand11impl_structs1_0B5_, symObjAddr: 0xE78, symBinAddr: 0x15070, symSize: 0x5FC }
  - { offset: 0x4361F, size: 0x8, addend: 0x0, symName: __RNCNvNtCs4u7P9VlF0C9_14thiserror_impl6expand11impl_structs_0B5_, symObjAddr: 0x1474, symBinAddr: 0x1566C, symSize: 0x1550 }
  - { offset: 0x43970, size: 0x8, addend: 0x0, symName: __RNCNvNtCs4u7P9VlF0C9_14thiserror_impl6expand16from_initializer0B5_, symObjAddr: 0x29C4, symBinAddr: 0x16BBC, symSize: 0x494 }
  - { offset: 0x43A22, size: 0x8, addend: 0x0, symName: __RNvNtCs4u7P9VlF0C9_14thiserror_impl6expand10fields_pat, symObjAddr: 0x67A8, symBinAddr: 0x1A9A0, symSize: 0x4E0 }
  - { offset: 0x43C30, size: 0x8, addend: 0x0, symName: __RNvNtCs4u7P9VlF0C9_14thiserror_impl6expand10try_expand, symObjAddr: 0x6C88, symBinAddr: 0x1AE80, symSize: 0x2A0 }
  - { offset: 0x43D00, size: 0x8, addend: 0x0, symName: __RNvNtCs4u7P9VlF0C9_14thiserror_impl6expand11impl_struct, symObjAddr: 0x6F28, symBinAddr: 0x1B120, symSize: 0x1594 }
  - { offset: 0x44171, size: 0x8, addend: 0x0, symName: __RNvNtCs4u7P9VlF0C9_14thiserror_impl6expand14type_is_option, symObjAddr: 0x84BC, symBinAddr: 0x1C6B4, symSize: 0x44 }
  - { offset: 0x4419F, size: 0x8, addend: 0x0, symName: __RNvNtCs4u7P9VlF0C9_14thiserror_impl6expand14use_as_display, symObjAddr: 0x8500, symBinAddr: 0x1C6F8, symSize: 0x174 }
  - { offset: 0x441E3, size: 0x8, addend: 0x0, symName: __RNvNtCs4u7P9VlF0C9_14thiserror_impl6expand15unoptional_type, symObjAddr: 0x8674, symBinAddr: 0x1C86C, symSize: 0xA8 }
  - { offset: 0x44245, size: 0x8, addend: 0x0, symName: __RNvNtCs4u7P9VlF0C9_14thiserror_impl6expand16from_initializer, symObjAddr: 0x871C, symBinAddr: 0x1C914, symSize: 0x358 }
  - { offset: 0x44338, size: 0x8, addend: 0x0, symName: __RNvNtCs4u7P9VlF0C9_14thiserror_impl6expand24type_parameter_of_option, symObjAddr: 0x8A74, symBinAddr: 0x1CC6C, symSize: 0x200 }
  - { offset: 0x44402, size: 0x8, addend: 0x0, symName: __RNvNtCs4u7P9VlF0C9_14thiserror_impl6expand6derive, symObjAddr: 0x8C74, symBinAddr: 0x1CE6C, symSize: 0xC0 }
  - { offset: 0x44460, size: 0x8, addend: 0x0, symName: __RNvNtCs4u7P9VlF0C9_14thiserror_impl6expand8fallback, symObjAddr: 0x8D34, symBinAddr: 0x1CF2C, symSize: 0xA18 }
  - { offset: 0x445DD, size: 0x8, addend: 0x0, symName: __RNvNtCs4u7P9VlF0C9_14thiserror_impl6expand9impl_enum, symObjAddr: 0x974C, symBinAddr: 0x1D944, symSize: 0x1D84 }
  - { offset: 0x4772C, size: 0x8, addend: 0x0, symName: __RNvXs1_NtNtNtCs85QQFkKrybG_4core3ops8function5implsQNCNvNtCs4u7P9VlF0C9_14thiserror_impl6expand9impl_enums2_0INtB7_5FnMutTRNtNtBU_3ast7VariantEE8call_mutBU_, symObjAddr: 0xB4D0, symBinAddr: 0x1F6C8, symSize: 0x30 }
  - { offset: 0x4ED03, size: 0x8, addend: 0x0, symName: __RINvMs6_NtCsfieuf5LernF_9hashbrown3rawINtB6_8RawTableTRNtNtCscwCr4GBBztI_3syn4expr6MemberjEE14reserve_rehashNCINvNtB8_3map11make_hasherBQ_jNtNtNtCswz7ZwgBZOU_3std4hash6random11RandomStateE0ECs4u7P9VlF0C9_14thiserror_impl, symObjAddr: 0x0, symBinAddr: 0x1ADF10, symSize: 0x7DC }
  - { offset: 0x4ED3F, size: 0x8, addend: 0x0, symName: __RNCINvMs6_NtCsfieuf5LernF_9hashbrown3rawINtB8_8RawTableTRNtNtCscwCr4GBBztI_3syn4expr6MemberjEE14reserve_rehashNCINvNtBa_3map11make_hasherBS_jNtNtNtCswz7ZwgBZOU_3std4hash6random11RandomStateE0E0Cs4u7P9VlF0C9_14thiserror_impl, symObjAddr: 0x1228, symBinAddr: 0x20144, symSize: 0xC8 }
  - { offset: 0x4EF0A, size: 0x8, addend: 0x0, symName: __RNCINvMs6_NtCsfieuf5LernF_9hashbrown3rawINtB8_8RawTableTRNtNtCscwCr4GBBztI_3syn4expr6MemberjEE24find_or_find_insert_slotNCINvNtBa_3map14equivalent_keyBS_BS_jE0NCINvB1Z_11make_hasherBS_jNtNtNtCswz7ZwgBZOU_3std4hash6random11RandomStateE0E0Cs4u7P9VlF0C9_14thiserror_impl, symObjAddr: 0x12F0, symBinAddr: 0x2020C, symSize: 0xCC }
  - { offset: 0x4F0E5, size: 0x8, addend: 0x0, symName: __RNCINvMs6_NtCsfieuf5LernF_9hashbrown3rawINtB8_8RawTableTRNtNtCscwCr4GBBztI_3syn4expr6MemberjEE4findNCINvNtBa_3map14equivalent_keyBT_BS_jE0E0Cs4u7P9VlF0C9_14thiserror_impl, symObjAddr: 0x13BC, symBinAddr: 0x202D8, symSize: 0xCC }
  - { offset: 0x4FA07, size: 0x8, addend: 0x0, symName: __RNCINvMsa_NtCsfieuf5LernF_9hashbrown3rawNtB8_13RawTableInner14prepare_resizeNtNtCsdFlNUEO95cG_5alloc5alloc6GlobalE0Cs4u7P9VlF0C9_14thiserror_impl, symObjAddr: 0x1488, symBinAddr: 0x203A4, symSize: 0xBC }
  - { offset: 0x4FBF2, size: 0x8, addend: 0x0, symName: __RNCNvMsa_NtCsfieuf5LernF_9hashbrown3rawNtB7_13RawTableInner15rehash_in_place0Cs4u7P9VlF0C9_14thiserror_impl, symObjAddr: 0x1544, symBinAddr: 0x20460, symSize: 0x22C }
  - { offset: 0x50157, size: 0x8, addend: 0x0, symName: __RNvNtCsfieuf5LernF_9hashbrown3raw19capacity_to_bucketsCs4u7P9VlF0C9_14thiserror_impl, symObjAddr: 0x2890, symBinAddr: 0x217AC, symSize: 0x218 }
  - { offset: 0x50370, size: 0x8, addend: 0x0, symName: __RNvXsg_NtCsfieuf5LernF_9hashbrown3rawINtB5_8RawTableTRNtNtCscwCr4GBBztI_3syn4expr6MemberjEENtNtNtCs85QQFkKrybG_4core3ops4drop4Drop4dropCs4u7P9VlF0C9_14thiserror_impl, symObjAddr: 0x2AA8, symBinAddr: 0x219C4, symSize: 0x3C }
  - { offset: 0x53B39, size: 0x8, addend: 0x0, symName: __RINvMs6_NtCsfieuf5LernF_9hashbrown3rawINtB6_8RawTableTRNtNtCscwCr4GBBztI_3syn4expr6MemberjEE14reserve_rehashNCINvNtB8_3map11make_hasherBQ_jNtNtNtCswz7ZwgBZOU_3std4hash6random11RandomStateE0ECs4u7P9VlF0C9_14thiserror_impl, symObjAddr: 0x0, symBinAddr: 0x1ADF10, symSize: 0x7DC }
  - { offset: 0x5458B, size: 0x8, addend: 0x0, symName: __RINvMs6_NtCsfieuf5LernF_9hashbrown3rawINtB6_8RawTableTRNtNtCscwCr4GBBztI_3syn4expr6MemberjEE24find_or_find_insert_slotNCINvNtB8_3map14equivalent_keyBQ_BQ_jE0NCINvB1X_11make_hasherBQ_jNtNtNtCswz7ZwgBZOU_3std4hash6random11RandomStateE0ECs4u7P9VlF0C9_14thiserror_impl, symObjAddr: 0x7DC, symBinAddr: 0x1F6F8, symSize: 0x140 }
  - { offset: 0x54A17, size: 0x8, addend: 0x0, symName: __RINvMs6_NtCsfieuf5LernF_9hashbrown3rawINtB6_8RawTableTRNtNtCscwCr4GBBztI_3syn4expr6MemberjEE4findNCINvNtB8_3map14equivalent_keyBR_BQ_jE0ECs4u7P9VlF0C9_14thiserror_impl, symObjAddr: 0x91C, symBinAddr: 0x1F838, symSize: 0x330 }
  - { offset: 0x54EFA, size: 0x8, addend: 0x0, symName: __RINvMs6_NtCsfieuf5LernF_9hashbrown3rawINtB6_8RawTableTRNtNtCscwCr4GBBztI_3syn4expr6MemberjEE7reserveNCINvNtB8_3map11make_hasherBQ_jNtNtNtCswz7ZwgBZOU_3std4hash6random11RandomStateE0ECs4u7P9VlF0C9_14thiserror_impl, symObjAddr: 0xC4C, symBinAddr: 0x1FB68, symSize: 0xCC }
  - { offset: 0x5506E, size: 0x8, addend: 0x0, symName: __RINvMsa_NtCsfieuf5LernF_9hashbrown3rawNtB6_13RawTableInner13drop_elementsTRNtNtCscwCr4GBBztI_3syn4expr6MemberjEECs4u7P9VlF0C9_14thiserror_impl, symObjAddr: 0xD18, symBinAddr: 0x1FC34, symSize: 0x28 }
  - { offset: 0x552D8, size: 0x8, addend: 0x0, symName: __RINvMsa_NtCsfieuf5LernF_9hashbrown3rawNtB6_13RawTableInner16drop_inner_tableTRNtNtCscwCr4GBBztI_3syn4expr6MemberjENtNtCsdFlNUEO95cG_5alloc5alloc6GlobalECs4u7P9VlF0C9_14thiserror_impl, symObjAddr: 0xD40, symBinAddr: 0x1FC5C, symSize: 0xBC }
  - { offset: 0x554F3, size: 0x8, addend: 0x0, symName: __RINvMsa_NtCsfieuf5LernF_9hashbrown3rawNtB6_13RawTableInner17new_uninitializedNtNtCsdFlNUEO95cG_5alloc5alloc6GlobalECs4u7P9VlF0C9_14thiserror_impl, symObjAddr: 0xDFC, symBinAddr: 0x1FD18, symSize: 0x1B0 }
  - { offset: 0x55748, size: 0x8, addend: 0x0, symName: __RINvMsa_NtCsfieuf5LernF_9hashbrown3rawNtB6_13RawTableInner22fallible_with_capacityNtNtCsdFlNUEO95cG_5alloc5alloc6GlobalECs4u7P9VlF0C9_14thiserror_impl, symObjAddr: 0xFAC, symBinAddr: 0x1FEC8, symSize: 0x27C }
  - { offset: 0x5605A, size: 0x8, addend: 0x0, symName: __RNvMs1_NtCsfieuf5LernF_9hashbrown3rawNtB5_11TableLayout20calculate_layout_forCs4u7P9VlF0C9_14thiserror_impl, symObjAddr: 0x1770, symBinAddr: 0x2068C, symSize: 0x220 }
  - { offset: 0x56505, size: 0x8, addend: 0x0, symName: __RNvMs6_NtCsfieuf5LernF_9hashbrown3rawINtB5_8RawTableTRNtNtCscwCr4GBBztI_3syn4expr6MemberjEE14insert_in_slotCs4u7P9VlF0C9_14thiserror_impl, symObjAddr: 0x1990, symBinAddr: 0x208AC, symSize: 0x148 }
  - { offset: 0x569C1, size: 0x8, addend: 0x0, symName: __RNvMsa_NtCsfieuf5LernF_9hashbrown3rawNtB5_13RawTableInner15fix_insert_slotCs4u7P9VlF0C9_14thiserror_impl, symObjAddr: 0x1AD8, symBinAddr: 0x209F4, symSize: 0x124 }
  - { offset: 0x56D47, size: 0x8, addend: 0x0, symName: __RNvMsa_NtCsfieuf5LernF_9hashbrown3rawNtB5_13RawTableInner15rehash_in_placeCs4u7P9VlF0C9_14thiserror_impl, symObjAddr: 0x1BFC, symBinAddr: 0x20B18, symSize: 0x4AC }
  - { offset: 0x57553, size: 0x8, addend: 0x0, symName: __RNvMsa_NtCsfieuf5LernF_9hashbrown3rawNtB5_13RawTableInner16find_insert_slotCs4u7P9VlF0C9_14thiserror_impl, symObjAddr: 0x20A8, symBinAddr: 0x20FC4, symSize: 0x10C }
  - { offset: 0x5774C, size: 0x8, addend: 0x0, symName: __RNvMsa_NtCsfieuf5LernF_9hashbrown3rawNtB5_13RawTableInner19prepare_insert_slotCs4u7P9VlF0C9_14thiserror_impl, symObjAddr: 0x21B4, symBinAddr: 0x210D0, symSize: 0x74 }
  - { offset: 0x57A3D, size: 0x8, addend: 0x0, symName: __RNvMsa_NtCsfieuf5LernF_9hashbrown3rawNtB5_13RawTableInner23prepare_rehash_in_placeCs4u7P9VlF0C9_14thiserror_impl, symObjAddr: 0x2228, symBinAddr: 0x21144, symSize: 0x254 }
  - { offset: 0x5815D, size: 0x8, addend: 0x0, symName: __RNvMsa_NtCsfieuf5LernF_9hashbrown3rawNtB5_13RawTableInner25find_insert_slot_in_groupCs4u7P9VlF0C9_14thiserror_impl, symObjAddr: 0x247C, symBinAddr: 0x21398, symSize: 0x15C }
  - { offset: 0x583FF, size: 0x8, addend: 0x0, symName: __RNvMsa_NtCsfieuf5LernF_9hashbrown3rawNtB5_13RawTableInner30find_or_find_insert_slot_innerCs4u7P9VlF0C9_14thiserror_impl, symObjAddr: 0x25D8, symBinAddr: 0x214F4, symSize: 0x2B8 }
  - { offset: 0x587DE, size: 0x8, addend: 0x0, symName: __RINvMNtCscwCr4GBBztI_3syn5errorNtB3_5Error11new_spannedINtNtCs85QQFkKrybG_4core6option6OptionRNtNtB5_4attr9AttributeEReECs4u7P9VlF0C9_14thiserror_impl, symObjAddr: 0x0, symBinAddr: 0x21A00, symSize: 0xC4 }
  - { offset: 0x5E2B7, size: 0x8, addend: 0x0, symName: __RNvXNtCscwCr4GBBztI_3syn11parse_quoteNtNtB4_8generics14WherePredicateNtB2_10ParseQuote5parseCs4u7P9VlF0C9_14thiserror_impl, symObjAddr: 0x303C, symBinAddr: 0x24A3C, symSize: 0x34 }
  - { offset: 0x5F3B5, size: 0x8, addend: 0x0, symName: __RINvNtCsdFlNUEO95cG_5alloc5slice11stable_sortRNtCsfwj6t2KTYdc_11proc_macro25IdentNvYBH_NtNtCs85QQFkKrybG_4core3cmp10PartialOrd2ltECs4u7P9VlF0C9_14thiserror_impl, symObjAddr: 0x7F8, symBinAddr: 0x221F8, symSize: 0xC4 }
  - { offset: 0x5F87D, size: 0x8, addend: 0x0, symName: __RNvMs9_NtCs85QQFkKrybG_4core3numj11checked_addCs4u7P9VlF0C9_14thiserror_impl, symObjAddr: 0x2AA8, symBinAddr: 0x244A8, symSize: 0x7C }
  - { offset: 0x5F907, size: 0x8, addend: 0x0, symName: __RNvNvMs9_NtCs85QQFkKrybG_4core3numj13unchecked_add18precondition_checkCs4u7P9VlF0C9_14thiserror_impl, symObjAddr: 0x2BDC, symBinAddr: 0x245DC, symSize: 0xB0 }
  - { offset: 0x5FA8C, size: 0x8, addend: 0x0, symName: __RNvNvMs3_NtCs85QQFkKrybG_4core3numi13unchecked_neg18precondition_checkCs4u7P9VlF0C9_14thiserror_impl, symObjAddr: 0x2B24, symBinAddr: 0x24524, symSize: 0xB8 }
  - { offset: 0x629F5, size: 0x8, addend: 0x0, symName: __RINvNtNtNtNtCs85QQFkKrybG_4core5slice4sort6stable5merge5mergeRNtCsfwj6t2KTYdc_11proc_macro25IdentNvYBX_NtNtBa_3cmp10PartialOrd2ltECs4u7P9VlF0C9_14thiserror_impl, symObjAddr: 0x211C, symBinAddr: 0x23B1C, symSize: 0x300 }
  - { offset: 0x62C6C, size: 0x8, addend: 0x0, symName: __RNvXs_NtNtNtNtCs85QQFkKrybG_4core5slice4sort6stable5mergeINtB4_10MergeStateRNtCsfwj6t2KTYdc_11proc_macro25IdentENtNtNtBc_3ops4drop4Drop4dropCs4u7P9VlF0C9_14thiserror_impl, symObjAddr: 0x34A0, symBinAddr: 0x24EA0, symSize: 0xEC }
  - { offset: 0x62DBB, size: 0x8, addend: 0x0, symName: __RINvNtNtNtNtCs85QQFkKrybG_4core5slice4sort6shared9smallsort11insert_tailRNtCsfwj6t2KTYdc_11proc_macro25IdentNvYB18_NtNtBa_3cmp10PartialOrd2ltECs4u7P9VlF0C9_14thiserror_impl, symObjAddr: 0xBF4, symBinAddr: 0x225F4, symSize: 0x1A8 }
  - { offset: 0x62F15, size: 0x8, addend: 0x0, symName: __RINvNtNtNtNtCs85QQFkKrybG_4core5slice4sort6shared9smallsort12sort4_stableRNtCsfwj6t2KTYdc_11proc_macro25IdentNvYB19_NtNtBa_3cmp10PartialOrd2ltECs4u7P9VlF0C9_14thiserror_impl, symObjAddr: 0xD9C, symBinAddr: 0x2279C, symSize: 0x7A8 }
  - { offset: 0x641FA, size: 0x8, addend: 0x0, symName: __RINvNtNtNtNtCs85QQFkKrybG_4core5slice4sort6shared9smallsort12sort8_stableRNtCsfwj6t2KTYdc_11proc_macro25IdentNvYB19_NtNtBa_3cmp10PartialOrd2ltECs4u7P9VlF0C9_14thiserror_impl, symObjAddr: 0x1544, symBinAddr: 0x22F44, symSize: 0x94 }
  - { offset: 0x643A9, size: 0x8, addend: 0x0, symName: __RINvNtNtNtNtCs85QQFkKrybG_4core5slice4sort6shared9smallsort19bidirectional_mergeRNtCsfwj6t2KTYdc_11proc_macro25IdentNvYB1g_NtNtBa_3cmp10PartialOrd2ltECs4u7P9VlF0C9_14thiserror_impl, symObjAddr: 0x15D8, symBinAddr: 0x22FD8, symSize: 0x560 }
  - { offset: 0x64A71, size: 0x8, addend: 0x0, symName: __RINvNtNtNtNtCs85QQFkKrybG_4core5slice4sort6shared9smallsort25insertion_sort_shift_leftRNtCsfwj6t2KTYdc_11proc_macro25IdentNvYB1m_NtNtBa_3cmp10PartialOrd2ltECs4u7P9VlF0C9_14thiserror_impl, symObjAddr: 0x1B38, symBinAddr: 0x23538, symSize: 0xC4 }
  - { offset: 0x64BAB, size: 0x8, addend: 0x0, symName: __RINvNtNtNtNtCs85QQFkKrybG_4core5slice4sort6shared9smallsort31small_sort_general_with_scratchRNtCsfwj6t2KTYdc_11proc_macro25IdentNvYB1s_NtNtBa_3cmp10PartialOrd2ltECs4u7P9VlF0C9_14thiserror_impl, symObjAddr: 0x1BFC, symBinAddr: 0x235FC, symSize: 0x520 }
  - { offset: 0x6508C, size: 0x8, addend: 0x0, symName: __RNvXs5_NtNtNtNtCs85QQFkKrybG_4core5slice4sort6shared9smallsortINtB5_10CopyOnDropRNtCsfwj6t2KTYdc_11proc_macro25IdentENtNtNtBd_3ops4drop4Drop4dropCs4u7P9VlF0C9_14thiserror_impl, symObjAddr: 0x33CC, symBinAddr: 0x24DCC, symSize: 0x84 }
  - { offset: 0x651D3, size: 0x8, addend: 0x0, symName: __RNvNvNtNtCs85QQFkKrybG_4core5slice3raw14from_raw_parts18precondition_checkCs4u7P9VlF0C9_14thiserror_impl, symObjAddr: 0x2C8C, symBinAddr: 0x2468C, symSize: 0x1D8 }
  - { offset: 0x65371, size: 0x8, addend: 0x0, symName: __RNvNvNtNtCs85QQFkKrybG_4core5slice3raw18from_raw_parts_mut18precondition_checkCs4u7P9VlF0C9_14thiserror_impl, symObjAddr: 0x2E64, symBinAddr: 0x24864, symSize: 0x1D8 }
  - { offset: 0x65576, size: 0x8, addend: 0x0, symName: __RINvNtNtCs85QQFkKrybG_4core4iter8adapters11try_processINtNtB2_3map3MapINtNtB2_9enumerate9EnumerateINtNtCscwCr4GBBztI_3syn10punctuated4IterNtNtB1D_4data5FieldEENCNvMs2_NtCs4u7P9VlF0C9_14thiserror_impl3astNtB2F_5Field17multiple_from_syn0EB3f_INtNtB6_6result6ResultNtNtB6_7convert10InfallibleNtNtB1D_5error5ErrorENCINvXso_B3T_IB3R_INtNtCsdFlNUEO95cG_5alloc3vec3VecB3f_EB4D_EINtNtNtB4_6traits7collect12FromIteratorIB3R_B3f_B4D_EE9from_iterBQ_E0B5g_EB2H_, symObjAddr: 0x8BC, symBinAddr: 0x222BC, symSize: 0x19C }
  - { offset: 0x6563D, size: 0x8, addend: 0x0, symName: __RINvNtNtCs85QQFkKrybG_4core4iter8adapters11try_processINtNtB2_3map3MapINtNtCscwCr4GBBztI_3syn10punctuated4IterNtNtB1b_4data7VariantENCNvMs0_NtCs4u7P9VlF0C9_14thiserror_impl3astNtB2e_4Enum8from_syn0ENtB2e_7VariantINtNtB6_6result6ResultNtNtB6_7convert10InfallibleNtNtB1b_5error5ErrorENCINvXso_B3r_IB3p_INtNtCsdFlNUEO95cG_5alloc3vec3VecB3a_EB4b_EINtNtNtB4_6traits7collect12FromIteratorIB3p_B3a_B4b_EE9from_iterBQ_E0B4O_EB2g_, symObjAddr: 0xA58, symBinAddr: 0x22458, symSize: 0x19C }
  - { offset: 0x65709, size: 0x8, addend: 0x0, symName: __RINvXNtNtCs85QQFkKrybG_4core4iter8adaptersINtB3_12GenericShuntINtNtB3_3map3MapINtNtB3_9enumerate9EnumerateINtNtCscwCr4GBBztI_3syn10punctuated4IterNtNtB1L_4data5FieldEENCNvMs2_NtCs4u7P9VlF0C9_14thiserror_impl3astNtB2N_5Field17multiple_from_syn0EINtNtB7_6result6ResultNtNtB7_7convert10InfallibleNtNtB1L_5error5ErrorEENtNtNtB5_6traits8iterator8Iterator8try_folduNCINvNvB53_12try_for_each4callB3n_INtNtNtB7_3ops12control_flow11ControlFlowB3n_ENcNtB6j_5Break0E0B6j_EB2P_, symObjAddr: 0x241C, symBinAddr: 0x23E1C, symSize: 0xC0 }
  - { offset: 0x657D0, size: 0x8, addend: 0x0, symName: __RINvXNtNtCs85QQFkKrybG_4core4iter8adaptersINtB3_12GenericShuntINtNtB3_3map3MapINtNtCscwCr4GBBztI_3syn10punctuated4IterNtNtB1j_4data7VariantENCNvMs0_NtCs4u7P9VlF0C9_14thiserror_impl3astNtB2m_4Enum8from_syn0EINtNtB7_6result6ResultNtNtB7_7convert10InfallibleNtNtB1j_5error5ErrorEENtNtNtB5_6traits8iterator8Iterator8try_folduNCINvNvB4r_12try_for_each4callNtB2m_7VariantINtNtNtB7_3ops12control_flow11ControlFlowB5D_ENcNtB5R_5Break0E0B5R_EB2o_, symObjAddr: 0x24DC, symBinAddr: 0x23EDC, symSize: 0xC0 }
  - { offset: 0x6589C, size: 0x8, addend: 0x0, symName: __RNCINvXNtNtCs85QQFkKrybG_4core4iter8adaptersINtB5_12GenericShuntINtNtB5_3map3MapINtNtB5_9enumerate9EnumerateINtNtCscwCr4GBBztI_3syn10punctuated4IterNtNtB1N_4data5FieldEENCNvMs2_NtCs4u7P9VlF0C9_14thiserror_impl3astNtB2P_5Field17multiple_from_syn0EINtNtB9_6result6ResultNtNtB9_7convert10InfallibleNtNtB1N_5error5ErrorEENtNtNtB7_6traits8iterator8Iterator8try_folduNCINvNvB55_12try_for_each4callB3p_INtNtNtB9_3ops12control_flow11ControlFlowB3p_ENcNtB6l_5Break0E0B6l_E0B2R_, symObjAddr: 0x26A0, symBinAddr: 0x240A0, symSize: 0x208 }
  - { offset: 0x65997, size: 0x8, addend: 0x0, symName: __RNCINvXNtNtCs85QQFkKrybG_4core4iter8adaptersINtB5_12GenericShuntINtNtB5_3map3MapINtNtCscwCr4GBBztI_3syn10punctuated4IterNtNtB1l_4data7VariantENCNvMs0_NtCs4u7P9VlF0C9_14thiserror_impl3astNtB2o_4Enum8from_syn0EINtNtB9_6result6ResultNtNtB9_7convert10InfallibleNtNtB1l_5error5ErrorEENtNtNtB7_6traits8iterator8Iterator8try_folduNCINvNvB4t_12try_for_each4callNtB2o_7VariantINtNtNtB9_3ops12control_flow11ControlFlowB5F_ENcNtB5T_5Break0E0B5T_E0B2q_, symObjAddr: 0x28A8, symBinAddr: 0x242A8, symSize: 0x200 }
  - { offset: 0x65A93, size: 0x8, addend: 0x0, symName: __RNvXNtNtCs85QQFkKrybG_4core4iter8adaptersINtB2_12GenericShuntINtNtB2_3map3MapINtNtB2_9enumerate9EnumerateINtNtCscwCr4GBBztI_3syn10punctuated4IterNtNtB1K_4data5FieldEENCNvMs2_NtCs4u7P9VlF0C9_14thiserror_impl3astNtB2M_5Field17multiple_from_syn0EINtNtB6_6result6ResultNtNtB6_7convert10InfallibleNtNtB1K_5error5ErrorEENtNtNtB4_6traits8iterator8Iterator4nextB2O_, symObjAddr: 0x30B0, symBinAddr: 0x24AB0, symSize: 0xBC }
  - { offset: 0x65B26, size: 0x8, addend: 0x0, symName: __RNvXNtNtCs85QQFkKrybG_4core4iter8adaptersINtB2_12GenericShuntINtNtB2_3map3MapINtNtB2_9enumerate9EnumerateINtNtCscwCr4GBBztI_3syn10punctuated4IterNtNtB1K_4data5FieldEENCNvMs2_NtCs4u7P9VlF0C9_14thiserror_impl3astNtB2M_5Field17multiple_from_syn0EINtNtB6_6result6ResultNtNtB6_7convert10InfallibleNtNtB1K_5error5ErrorEENtNtNtB4_6traits8iterator8Iterator9size_hintB2O_, symObjAddr: 0x316C, symBinAddr: 0x24B6C, symSize: 0xA8 }
  - { offset: 0x65B9E, size: 0x8, addend: 0x0, symName: __RNvXNtNtCs85QQFkKrybG_4core4iter8adaptersINtB2_12GenericShuntINtNtB2_3map3MapINtNtCscwCr4GBBztI_3syn10punctuated4IterNtNtB1i_4data7VariantENCNvMs0_NtCs4u7P9VlF0C9_14thiserror_impl3astNtB2l_4Enum8from_syn0EINtNtB6_6result6ResultNtNtB6_7convert10InfallibleNtNtB1i_5error5ErrorEENtNtNtB4_6traits8iterator8Iterator4nextB2n_, symObjAddr: 0x3214, symBinAddr: 0x24C14, symSize: 0xB0 }
  - { offset: 0x65C31, size: 0x8, addend: 0x0, symName: __RNvXNtNtCs85QQFkKrybG_4core4iter8adaptersINtB2_12GenericShuntINtNtB2_3map3MapINtNtCscwCr4GBBztI_3syn10punctuated4IterNtNtB1i_4data7VariantENCNvMs0_NtCs4u7P9VlF0C9_14thiserror_impl3astNtB2l_4Enum8from_syn0EINtNtB6_6result6ResultNtNtB6_7convert10InfallibleNtNtB1i_5error5ErrorEENtNtNtB4_6traits8iterator8Iterator9size_hintB2n_, symObjAddr: 0x32C4, symBinAddr: 0x24CC4, symSize: 0xA8 }
  - { offset: 0x65E3A, size: 0x8, addend: 0x0, symName: __RNvXsF_NtNtCs85QQFkKrybG_4core4iter5rangejNtB5_4Step17forward_uncheckedCs4u7P9VlF0C9_14thiserror_impl, symObjAddr: 0x3450, symBinAddr: 0x24E50, symSize: 0x50 }
  - { offset: 0x65F70, size: 0x8, addend: 0x0, symName: __RINvYINtNtNtCs85QQFkKrybG_4core4iter8adapters12GenericShuntINtNtB6_3map3MapINtNtB6_9enumerate9EnumerateINtNtCscwCr4GBBztI_3syn10punctuated4IterNtNtB1I_4data5FieldEENCNvMs2_NtCs4u7P9VlF0C9_14thiserror_impl3astNtB2K_5Field17multiple_from_syn0EINtNtBa_6result6ResultNtNtBa_7convert10InfallibleNtNtB1I_5error5ErrorEENtNtNtB8_6traits8iterator8Iterator7collectINtNtCsdFlNUEO95cG_5alloc3vec3VecB3k_EEB2M_, symObjAddr: 0x259C, symBinAddr: 0x23F9C, symSize: 0x74 }
  - { offset: 0x66006, size: 0x8, addend: 0x0, symName: __RINvYINtNtNtCs85QQFkKrybG_4core4iter8adapters12GenericShuntINtNtB6_3map3MapINtNtCscwCr4GBBztI_3syn10punctuated4IterNtNtB1g_4data7VariantENCNvMs0_NtCs4u7P9VlF0C9_14thiserror_impl3astNtB2j_4Enum8from_syn0EINtNtBa_6result6ResultNtNtBa_7convert10InfallibleNtNtB1g_5error5ErrorEENtNtNtB8_6traits8iterator8Iterator7collectINtNtCsdFlNUEO95cG_5alloc3vec3VecNtB2j_7VariantEEB2l_, symObjAddr: 0x2610, symBinAddr: 0x24010, symSize: 0x74 }
  - { offset: 0x6609C, size: 0x8, addend: 0x0, symName: __RINvYNtNtCscwCr4GBBztI_3syn8generics10TypeParamsNtNtNtNtCs85QQFkKrybG_4core4iter6traits8iterator8Iterator3mapRNtCsfwj6t2KTYdc_11proc_macro25IdentNCNvMNtCs4u7P9VlF0C9_14thiserror_impl8genericsNtB2o_13ParamsInScope3new0EB2q_, symObjAddr: 0x2684, symBinAddr: 0x24084, symSize: 0x1C }
  - { offset: 0x66180, size: 0x8, addend: 0x0, symName: __RNvYNtNtCscwCr4GBBztI_3syn8generics10TypeParamsNtNtNtNtCs85QQFkKrybG_4core4iter6traits8iterator8Iterator9size_hintCs4u7P9VlF0C9_14thiserror_impl, symObjAddr: 0x358C, symBinAddr: 0x24F8C, symSize: 0x34 }
  - { offset: 0x661F3, size: 0x8, addend: 0x0, symName: __RNvXNtNtNtCs85QQFkKrybG_4core4iter6traits7collectINtNtB6_8adapters12GenericShuntINtNtBO_3map3MapINtNtBO_9enumerate9EnumerateINtNtCscwCr4GBBztI_3syn10punctuated4IterNtNtB23_4data5FieldEENCNvMs2_NtCs4u7P9VlF0C9_14thiserror_impl3astNtB35_5Field17multiple_from_syn0EINtNtB8_6result6ResultNtNtB8_7convert10InfallibleNtNtB23_5error5ErrorEENtB2_12IntoIterator9into_iterB37_, symObjAddr: 0x336C, symBinAddr: 0x24D6C, symSize: 0x30 }
  - { offset: 0x6622B, size: 0x8, addend: 0x0, symName: __RNvXNtNtNtCs85QQFkKrybG_4core4iter6traits7collectINtNtB6_8adapters12GenericShuntINtNtBO_3map3MapINtNtCscwCr4GBBztI_3syn10punctuated4IterNtNtB1B_4data7VariantENCNvMs0_NtCs4u7P9VlF0C9_14thiserror_impl3astNtB2E_4Enum8from_syn0EINtNtB8_6result6ResultNtNtB8_7convert10InfallibleNtNtB1B_5error5ErrorEENtB2_12IntoIterator9into_iterB2G_, symObjAddr: 0x339C, symBinAddr: 0x24D9C, symSize: 0x30 }
  - { offset: 0x6797B, size: 0x8, addend: 0x0, symName: __RINvMNtCscwCr4GBBztI_3syn5errorNtB3_5Error11new_spannedINtNtCs85QQFkKrybG_4core6option6OptionRNtNtB5_4attr9AttributeEReECs4u7P9VlF0C9_14thiserror_impl, symObjAddr: 0x0, symBinAddr: 0x21A00, symSize: 0xC4 }
  - { offset: 0x679BD, size: 0x8, addend: 0x0, symName: __RINvMNtCscwCr4GBBztI_3syn5errorNtB3_5Error11new_spannedRNtNtB5_4attr9AttributeReECs4u7P9VlF0C9_14thiserror_impl, symObjAddr: 0xC4, symBinAddr: 0x21AC4, symSize: 0xC4 }
  - { offset: 0x67A0C, size: 0x8, addend: 0x0, symName: __RINvMNtCscwCr4GBBztI_3syn5errorNtB3_5Error11new_spannedRNtNtB5_4data5FieldReECs4u7P9VlF0C9_14thiserror_impl, symObjAddr: 0x188, symBinAddr: 0x21B88, symSize: 0xC4 }
  - { offset: 0x67A5B, size: 0x8, addend: 0x0, symName: __RINvMNtCscwCr4GBBztI_3syn5errorNtB3_5Error11new_spannedRNtNtB5_4data7VariantReECs4u7P9VlF0C9_14thiserror_impl, symObjAddr: 0x24C, symBinAddr: 0x21C4C, symSize: 0xC4 }
  - { offset: 0x67AAA, size: 0x8, addend: 0x0, symName: __RINvMNtCscwCr4GBBztI_3syn5errorNtB3_5Error11new_spannedRNtNtB5_6derive11DeriveInputReECs4u7P9VlF0C9_14thiserror_impl, symObjAddr: 0x310, symBinAddr: 0x21D10, symSize: 0xC4 }
  - { offset: 0x67AF9, size: 0x8, addend: 0x0, symName: __RINvMNtCscwCr4GBBztI_3syn5errorNtB3_5Error11new_spannedRRNtNtB5_4attr9AttributeReECs4u7P9VlF0C9_14thiserror_impl, symObjAddr: 0x3D4, symBinAddr: 0x21DD4, symSize: 0xC4 }
  - { offset: 0x67BA6, size: 0x8, addend: 0x0, symName: __RINvMNtNtNtNtCs85QQFkKrybG_4core5slice4sort6stable5mergeINtB3_10MergeStateRNtCsfwj6t2KTYdc_11proc_macro25IdentE10merge_downNvYB1a_NtNtBb_3cmp10PartialOrd2ltECs4u7P9VlF0C9_14thiserror_impl, symObjAddr: 0x498, symBinAddr: 0x21E98, symSize: 0x1D0 }
  - { offset: 0x67D3C, size: 0x8, addend: 0x0, symName: __RINvMNtNtNtNtCs85QQFkKrybG_4core5slice4sort6stable5mergeINtB3_10MergeStateRNtCsfwj6t2KTYdc_11proc_macro25IdentE8merge_upNvYB1a_NtNtBb_3cmp10PartialOrd2ltECs4u7P9VlF0C9_14thiserror_impl, symObjAddr: 0x668, symBinAddr: 0x22068, symSize: 0x190 }
  - { offset: 0x68437, size: 0x8, addend: 0x0, symName: __RNvXNtCshi3DZH3dfhk_5quote9to_tokensRNtNtCscwCr4GBBztI_3syn8generics11WhereClauseNtB2_8ToTokens9to_tokensCs4u7P9VlF0C9_14thiserror_impl, symObjAddr: 0x3070, symBinAddr: 0x24A70, symSize: 0x40 }
  - { offset: 0x68788, size: 0x8, addend: 0x0, symName: __RINvXNtCshi3DZH3dfhk_5quote3extNtCsfwj6t2KTYdc_11proc_macro211TokenStreamNtB3_14TokenStreamExt10append_allINtNtCscwCr4GBBztI_3syn10punctuated5PairsBt_NtNtB1L_5token4PlusEECs4u7P9VlF0C9_14thiserror_impl, symObjAddr: 0x0, symBinAddr: 0x24FC0, symSize: 0x50 }
  - { offset: 0x68882, size: 0x8, addend: 0x0, symName: __RNvXss_NtCsdFlNUEO95cG_5alloc6stringNtB5_6StringNtNtNtCs85QQFkKrybG_4core3ops5deref5Deref5derefCs4u7P9VlF0C9_14thiserror_impl, symObjAddr: 0x3EA8, symBinAddr: 0x28E68, symSize: 0x24 }
  - { offset: 0x688B6, size: 0x8, addend: 0x0, symName: __RINvXsn_NtCsdFlNUEO95cG_5alloc6stringNtB6_6StringNtNtCs85QQFkKrybG_4core4hash4Hash4hashNtNtNtCswz7ZwgBZOU_3std4hash6random13DefaultHasherECs4u7P9VlF0C9_14thiserror_impl, symObjAddr: 0x110, symBinAddr: 0x250D0, symSize: 0x90 }
  - { offset: 0x68A64, size: 0x8, addend: 0x0, symName: __RNvXs1e_NtCsdFlNUEO95cG_5alloc6stringNtB6_6StringNtNtCs85QQFkKrybG_4core3cmp3Ord3cmpCs4u7P9VlF0C9_14thiserror_impl, symObjAddr: 0x2FC8, symBinAddr: 0x27F88, symSize: 0x2C }
  - { offset: 0x68AA7, size: 0x8, addend: 0x0, symName: __RNvXsT_NtCsdFlNUEO95cG_5alloc6stringNtB5_6StringNtNtCs85QQFkKrybG_4core3fmt5Write10write_charCs4u7P9VlF0C9_14thiserror_impl, symObjAddr: 0x3980, symBinAddr: 0x28940, symSize: 0x38 }
  - { offset: 0x68AE4, size: 0x8, addend: 0x0, symName: __RNvXsT_NtCsdFlNUEO95cG_5alloc6stringNtB5_6StringNtNtCs85QQFkKrybG_4core3fmt5Write9write_strCs4u7P9VlF0C9_14thiserror_impl, symObjAddr: 0x39B8, symBinAddr: 0x28978, symSize: 0x40 }
  - { offset: 0x68B27, size: 0x8, addend: 0x0, symName: __RNvXsp_NtCsdFlNUEO95cG_5alloc6stringNtB5_6StringINtNtNtCs85QQFkKrybG_4core3ops5arith9AddAssignReE10add_assignCs4u7P9VlF0C9_14thiserror_impl, symObjAddr: 0x3E70, symBinAddr: 0x28E30, symSize: 0x38 }
  - { offset: 0x68B66, size: 0x8, addend: 0x0, symName: __RNvXsw_NtCsdFlNUEO95cG_5alloc6stringNtCsfwj6t2KTYdc_11proc_macro211TokenStreamNtB5_8ToString9to_stringCs4u7P9VlF0C9_14thiserror_impl, symObjAddr: 0x3ECC, symBinAddr: 0x28E8C, symSize: 0x24 }
  - { offset: 0x68BA3, size: 0x8, addend: 0x0, symName: __RNvXsx_NtCsdFlNUEO95cG_5alloc6stringNtCsfwj6t2KTYdc_11proc_macro211TokenStreamNtB5_12SpecToString14spec_to_stringCs4u7P9VlF0C9_14thiserror_impl, symObjAddr: 0x3EF0, symBinAddr: 0x28EB0, symSize: 0xF4 }
  - { offset: 0x6ACFF, size: 0x8, addend: 0x0, symName: __RNvXs17_NtNtCs85QQFkKrybG_4core3cmp5implsiNtB8_3Ord3cmpCs4u7P9VlF0C9_14thiserror_impl, symObjAddr: 0x2F7C, symBinAddr: 0x27F3C, symSize: 0x38 }
  - { offset: 0x6AD42, size: 0x8, addend: 0x0, symName: __RNvXs7_NtNtCs85QQFkKrybG_4core3cmp5implsRNtCsfwj6t2KTYdc_11proc_macro25IdentNtB7_9PartialEq2neCs4u7P9VlF0C9_14thiserror_impl, symObjAddr: 0x38A0, symBinAddr: 0x28860, symSize: 0x34 }
  - { offset: 0x6AD97, size: 0x8, addend: 0x0, symName: __RNvXs8_NtNtCs85QQFkKrybG_4core3cmp5implsRNtCsfwj6t2KTYdc_11proc_macro25IdentNtB7_10PartialOrd2ltCs4u7P9VlF0C9_14thiserror_impl, symObjAddr: 0x38D4, symBinAddr: 0x28894, symSize: 0x34 }
  - { offset: 0x6ADEC, size: 0x8, addend: 0x0, symName: __RNvXsV_NtNtCs85QQFkKrybG_4core3cmp5implsjNtB7_3Ord3cmpCs4u7P9VlF0C9_14thiserror_impl, symObjAddr: 0x39F8, symBinAddr: 0x289B8, symSize: 0x38 }
  - { offset: 0x6AE63, size: 0x8, addend: 0x0, symName: __RNvYNtCsfwj6t2KTYdc_11proc_macro25IdentINtNtCs85QQFkKrybG_4core3cmp9PartialEqReE2neCs4u7P9VlF0C9_14thiserror_impl, symObjAddr: 0x4070, symBinAddr: 0x29030, symSize: 0x30 }
  - { offset: 0x6AEB2, size: 0x8, addend: 0x0, symName: __RNvYNtCsfwj6t2KTYdc_11proc_macro25IdentNtNtCs85QQFkKrybG_4core3cmp9PartialEq2neCs4u7P9VlF0C9_14thiserror_impl, symObjAddr: 0x4110, symBinAddr: 0x290D0, symSize: 0x30 }
  - { offset: 0x6AF07, size: 0x8, addend: 0x0, symName: __RNvYNtCsfwj6t2KTYdc_11proc_macro25IdentNtNtCs85QQFkKrybG_4core3cmp10PartialOrd2ltCs4u7P9VlF0C9_14thiserror_impl, symObjAddr: 0x40A0, symBinAddr: 0x29060, symSize: 0x70 }
  - { offset: 0x6AFDA, size: 0x8, addend: 0x0, symName: __RINvXs9_NtNtCs85QQFkKrybG_4core4hash5implsmNtB8_4Hash4hashNtNtNtCswz7ZwgBZOU_3std4hash6random13DefaultHasherECs4u7P9VlF0C9_14thiserror_impl, symObjAddr: 0xD8, symBinAddr: 0x25098, symSize: 0x38 }
  - { offset: 0x6B12E, size: 0x8, addend: 0x0, symName: __RNvNtNtCs85QQFkKrybG_4core4hash3sip9u8to64_leCs4u7P9VlF0C9_14thiserror_impl, symObjAddr: 0x2B20, symBinAddr: 0x27AE0, symSize: 0x240 }
  - { offset: 0x6B2EB, size: 0x8, addend: 0x0, symName: __RNvXs3_NtNtCs85QQFkKrybG_4core4hash3sipINtB5_6HasherNtB5_11Sip13RoundsENtB7_6Hasher5writeCs4u7P9VlF0C9_14thiserror_impl, symObjAddr: 0x2FF4, symBinAddr: 0x27FB4, symSize: 0x238 }
  - { offset: 0x6B461, size: 0x8, addend: 0x0, symName: __RNvXs3_NtNtCs85QQFkKrybG_4core4hash3sipINtB5_6HasherNtB5_11Sip13RoundsENtB7_6Hasher6finishCs4u7P9VlF0C9_14thiserror_impl, symObjAddr: 0x322C, symBinAddr: 0x281EC, symSize: 0xA0 }
  - { offset: 0x6B4D4, size: 0x8, addend: 0x0, symName: __RNvXs3_NtNtCs85QQFkKrybG_4core4hash3sipINtB5_6HasherNtB5_11Sip13RoundsENtB7_6Hasher9write_strCs4u7P9VlF0C9_14thiserror_impl, symObjAddr: 0x32CC, symBinAddr: 0x2828C, symSize: 0x5C }
  - { offset: 0x6B53A, size: 0x8, addend: 0x0, symName: __RNvXs6_NtNtCs85QQFkKrybG_4core4hash3sipNtB5_11Sip13RoundsNtB5_3Sip8c_roundsCs4u7P9VlF0C9_14thiserror_impl, symObjAddr: 0x3328, symBinAddr: 0x282E8, symSize: 0x170 }
  - { offset: 0x6B6B0, size: 0x8, addend: 0x0, symName: __RNvXs6_NtNtCs85QQFkKrybG_4core4hash3sipNtB5_11Sip13RoundsNtB5_3Sip8d_roundsCs4u7P9VlF0C9_14thiserror_impl, symObjAddr: 0x3498, symBinAddr: 0x28458, symSize: 0x408 }
  - { offset: 0x6BBEB, size: 0x8, addend: 0x0, symName: __RNvMNtCs85QQFkKrybG_4core5sliceSNtCsfwj6t2KTYdc_11proc_macro211TokenStream4iterCs4u7P9VlF0C9_14thiserror_impl, symObjAddr: 0x8C8, symBinAddr: 0x25888, symSize: 0x28 }
  - { offset: 0x6BC22, size: 0x8, addend: 0x0, symName: __RNvMNtCs85QQFkKrybG_4core5sliceSNtNtCs4u7P9VlF0C9_14thiserror_impl3ast5Field4iterBy_, symObjAddr: 0x8F0, symBinAddr: 0x258B0, symSize: 0x28 }
  - { offset: 0x6BC59, size: 0x8, addend: 0x0, symName: __RNvMNtCs85QQFkKrybG_4core5sliceSNtNtCs4u7P9VlF0C9_14thiserror_impl3ast7Variant4iterBy_, symObjAddr: 0x918, symBinAddr: 0x258D8, symSize: 0x28 }
  - { offset: 0x6BCB7, size: 0x8, addend: 0x0, symName: __RNvMNtCs85QQFkKrybG_4core5sliceSRNtCsfwj6t2KTYdc_11proc_macro25Ident22split_at_mut_uncheckedCs4u7P9VlF0C9_14thiserror_impl, symObjAddr: 0x940, symBinAddr: 0x25900, symSize: 0xF8 }
  - { offset: 0x6BE57, size: 0x8, addend: 0x0, symName: __RNvMNtCs85QQFkKrybG_4core5sliceSRNtCsfwj6t2KTYdc_11proc_macro25Ident7reverseCs4u7P9VlF0C9_14thiserror_impl, symObjAddr: 0xA38, symBinAddr: 0x259F8, symSize: 0x10C }
  - { offset: 0x6BFE7, size: 0x8, addend: 0x0, symName: __RNvMNtCs85QQFkKrybG_4core5sliceSTNtCsfwj6t2KTYdc_11proc_macro211TokenStreamNtNtCscwCr4GBBztI_3syn5token4PlusE4iterCs4u7P9VlF0C9_14thiserror_impl, symObjAddr: 0xB44, symBinAddr: 0x25B04, symSize: 0x28 }
  - { offset: 0x6C1A9, size: 0x8, addend: 0x0, symName: __RNvXs_NtNtCs85QQFkKrybG_4core5slice4iterRSNtNtCs4u7P9VlF0C9_14thiserror_impl3ast5FieldNtNtNtNtB8_4iter6traits7collect12IntoIterator9into_iterBI_, symObjAddr: 0x3AE4, symBinAddr: 0x28AA4, symSize: 0x58 }
  - { offset: 0x6C3DA, size: 0x8, addend: 0x0, symName: __RNvXs0_NtNtNtNtCs85QQFkKrybG_4core5slice4sort6stable9quicksortRNtCsfwj6t2KTYdc_11proc_macro25IdentNtB5_8IsFreeze9is_freezeCs4u7P9VlF0C9_14thiserror_impl, symObjAddr: 0x2F70, symBinAddr: 0x27F30, symSize: 0xC }
  - { offset: 0x6F021, size: 0x8, addend: 0x0, symName: __RNvNvNtCs85QQFkKrybG_4core9ub_checks23maybe_is_nonoverlapping7runtimeCs4u7P9VlF0C9_14thiserror_impl, symObjAddr: 0x2D60, symBinAddr: 0x27D20, symSize: 0xD8 }
  - { offset: 0x6F1D8, size: 0x8, addend: 0x0, symName: __RNvXNtCs85QQFkKrybG_4core6borrowNtCsfwj6t2KTYdc_11proc_macro25IdentINtB2_6BorrowBu_E6borrowCs4u7P9VlF0C9_14thiserror_impl, symObjAddr: 0x2E38, symBinAddr: 0x27DF8, symSize: 0x14 }
  - { offset: 0x6F20D, size: 0x8, addend: 0x0, symName: __RNvXNtCs85QQFkKrybG_4core6borrowNtNtCsdFlNUEO95cG_5alloc6string6StringINtB2_6BorrowBu_E6borrowCs4u7P9VlF0C9_14thiserror_impl, symObjAddr: 0x2E4C, symBinAddr: 0x27E0C, symSize: 0x14 }
  - { offset: 0x6F248, size: 0x8, addend: 0x0, symName: __RNvXs0_NtCs85QQFkKrybG_4core6borrowRNtCsfwj6t2KTYdc_11proc_macro25IdentINtB5_6BorrowBy_E6borrowCs4u7P9VlF0C9_14thiserror_impl, symObjAddr: 0x2F58, symBinAddr: 0x27F18, symSize: 0x18 }
  - { offset: 0x6F289, size: 0x8, addend: 0x0, symName: __RNvXs1_NtCs85QQFkKrybG_4core7convertNtCsfwj6t2KTYdc_11proc_macro211TokenStreamINtB5_4IntoNtCs9bTl5rSDVcL_10proc_macro11TokenStreamE4intoCs4u7P9VlF0C9_14thiserror_impl, symObjAddr: 0x2FB4, symBinAddr: 0x27F74, symSize: 0x14 }
  - { offset: 0x6F7CF, size: 0x8, addend: 0x0, symName: __RINvXs4_Csfwj6t2KTYdc_11proc_macro2NtB6_11TokenStreamINtNtNtNtCs85QQFkKrybG_4core4iter6traits7collect6ExtendNtB6_9TokenTreeE6extendBx_ECs4u7P9VlF0C9_14thiserror_impl, symObjAddr: 0x50, symBinAddr: 0x25010, symSize: 0x34 }
  - { offset: 0x6F818, size: 0x8, addend: 0x0, symName: __RINvXs6_Csfwj6t2KTYdc_11proc_macro2NtB6_11TokenStreamINtNtNtNtCs85QQFkKrybG_4core4iter6traits7collect12FromIteratorNtB6_9TokenTreeE9from_iterINtNtCsdFlNUEO95cG_5alloc3vec3VecB1P_EECs4u7P9VlF0C9_14thiserror_impl, symObjAddr: 0x84, symBinAddr: 0x25044, symSize: 0x54 }
  - { offset: 0x6F856, size: 0x8, addend: 0x0, symName: __RINvXsz_Csfwj6t2KTYdc_11proc_macro2NtB6_5IdentNtNtCs85QQFkKrybG_4core4hash4Hash4hashNtNtNtCswz7ZwgBZOU_3std4hash6random13DefaultHasherECs4u7P9VlF0C9_14thiserror_impl, symObjAddr: 0x1A0, symBinAddr: 0x25160, symSize: 0x84 }
  - { offset: 0x6FE01, size: 0x8, addend: 0x0, symName: __RNvXsG_Csfwj6t2KTYdc_11proc_macro2NtB5_11TokenStreamNtNtCs85QQFkKrybG_4core5clone5Clone5cloneCs4u7P9VlF0C9_14thiserror_impl, symObjAddr: 0x3908, symBinAddr: 0x288C8, symSize: 0x78 }
  - { offset: 0x6FE33, size: 0x8, addend: 0x0, symName: __RNvXsX_Csfwj6t2KTYdc_11proc_macro2NtB5_7SpacingNtNtCs85QQFkKrybG_4core3cmp9PartialEq2eqCs4u7P9VlF0C9_14thiserror_impl, symObjAddr: 0x3A30, symBinAddr: 0x289F0, symSize: 0x3C }
  - { offset: 0x6FEB2, size: 0x8, addend: 0x0, symName: __RNvXsY_Csfwj6t2KTYdc_11proc_macro2NtB5_5IdentNtNtCs85QQFkKrybG_4core5clone5Clone5cloneCs4u7P9VlF0C9_14thiserror_impl, symObjAddr: 0x3A6C, symBinAddr: 0x28A2C, symSize: 0x78 }
  - { offset: 0x70016, size: 0x8, addend: 0x0, symName: __RNCNvMs0_NtCs4u7P9VlF0C9_14thiserror_impl3astNtB7_4Enum8from_syn0B9_, symObjAddr: 0x224, symBinAddr: 0x251E4, symSize: 0x278 }
  - { offset: 0x70114, size: 0x8, addend: 0x0, symName: __RNCNvMs2_NtCs4u7P9VlF0C9_14thiserror_impl3astNtB7_5Field17multiple_from_syn0B9_, symObjAddr: 0x49C, symBinAddr: 0x2545C, symSize: 0x64 }
  - { offset: 0x7018A, size: 0x8, addend: 0x0, symName: __RNCNvMs2_NtCs4u7P9VlF0C9_14thiserror_impl3astNtB7_5Field8from_syn0B9_, symObjAddr: 0x500, symBinAddr: 0x254C0, symSize: 0x48 }
  - { offset: 0x701D4, size: 0x8, addend: 0x0, symName: __RNcNtNtNtCs4u7P9VlF0C9_14thiserror_impl3ast5Input4Enum0B7_, symObjAddr: 0x548, symBinAddr: 0x25508, symSize: 0x3C }
  - { offset: 0x70203, size: 0x8, addend: 0x0, symName: __RNcNtNtNtCs4u7P9VlF0C9_14thiserror_impl3ast5Input6Struct0B7_, symObjAddr: 0x584, symBinAddr: 0x25544, symSize: 0x38 }
  - { offset: 0x705D9, size: 0x8, addend: 0x0, symName: __RINvXNtCshi3DZH3dfhk_5quote3extNtCsfwj6t2KTYdc_11proc_macro211TokenStreamNtB3_14TokenStreamExt10append_allINtNtCscwCr4GBBztI_3syn10punctuated5PairsBt_NtNtB1L_5token4PlusEECs4u7P9VlF0C9_14thiserror_impl, symObjAddr: 0x0, symBinAddr: 0x24FC0, symSize: 0x50 }
  - { offset: 0x70625, size: 0x8, addend: 0x0, symName: __RNvXNtCshi3DZH3dfhk_5quote14ident_fragmentRNtCsfwj6t2KTYdc_11proc_macro25IdentNtB2_13IdentFragment3fmtCs4u7P9VlF0C9_14thiserror_impl, symObjAddr: 0x2E60, symBinAddr: 0x27E20, symSize: 0x40 }
  - { offset: 0x70668, size: 0x8, addend: 0x0, symName: __RNvXNtCshi3DZH3dfhk_5quote14ident_fragmentRNtCsfwj6t2KTYdc_11proc_macro25IdentNtB2_13IdentFragment4spanCs4u7P9VlF0C9_14thiserror_impl, symObjAddr: 0x2EA0, symBinAddr: 0x27E60, symSize: 0x38 }
  - { offset: 0x706A9, size: 0x8, addend: 0x0, symName: __RNvXNtCshi3DZH3dfhk_5quote9to_tokensRNtCsfwj6t2KTYdc_11proc_macro211TokenStreamNtB2_8ToTokens9to_tokensCs4u7P9VlF0C9_14thiserror_impl, symObjAddr: 0x2ED8, symBinAddr: 0x27E98, symSize: 0x40 }
  - { offset: 0x706E8, size: 0x8, addend: 0x0, symName: __RNvXNtCshi3DZH3dfhk_5quote9to_tokensRNtCsfwj6t2KTYdc_11proc_macro25IdentNtB2_8ToTokens9to_tokensCs4u7P9VlF0C9_14thiserror_impl, symObjAddr: 0x2F18, symBinAddr: 0x27ED8, symSize: 0x40 }
  - { offset: 0x7072D, size: 0x8, addend: 0x0, symName: __RNvYNtCsfwj6t2KTYdc_11proc_macro211TokenStreamNtNtCshi3DZH3dfhk_5quote9to_tokens8ToTokens15to_token_streamCs4u7P9VlF0C9_14thiserror_impl, symObjAddr: 0x3FE4, symBinAddr: 0x28FA4, symSize: 0x8C }
  - { offset: 0x70777, size: 0x8, addend: 0x0, symName: __RNvYRNtNtCscwCr4GBBztI_3syn4data5FieldNtNtCshi3DZH3dfhk_5quote9to_tokens8ToTokens15to_token_streamCs4u7P9VlF0C9_14thiserror_impl, symObjAddr: 0x425C, symBinAddr: 0x2921C, symSize: 0x8C }
  - { offset: 0x707C1, size: 0x8, addend: 0x0, symName: __RNvYRNtNtCscwCr4GBBztI_3syn4data5FieldNtNtCshi3DZH3dfhk_5quote9to_tokens8ToTokens17into_token_streamCs4u7P9VlF0C9_14thiserror_impl, symObjAddr: 0x42E8, symBinAddr: 0x292A8, symSize: 0x54 }
  - { offset: 0x707F6, size: 0x8, addend: 0x0, symName: __RNvYRNtNtCscwCr4GBBztI_3syn4data7VariantNtNtCshi3DZH3dfhk_5quote9to_tokens8ToTokens15to_token_streamCs4u7P9VlF0C9_14thiserror_impl, symObjAddr: 0x433C, symBinAddr: 0x292FC, symSize: 0x8C }
  - { offset: 0x70840, size: 0x8, addend: 0x0, symName: __RNvYRNtNtCscwCr4GBBztI_3syn4data7VariantNtNtCshi3DZH3dfhk_5quote9to_tokens8ToTokens17into_token_streamCs4u7P9VlF0C9_14thiserror_impl, symObjAddr: 0x43C8, symBinAddr: 0x29388, symSize: 0x54 }
  - { offset: 0x7584C, size: 0x8, addend: 0x0, symName: __RNvXsh_NtCscwCr4GBBztI_3syn5parseNvYNtCsfwj6t2KTYdc_11proc_macro25IdentNtNtB7_3ext8IdentExt9parse_anyNtB5_6Parser6parse2Cs4u7P9VlF0C9_14thiserror_impl, symObjAddr: 0x3B3C, symBinAddr: 0x28AFC, symSize: 0x334 }
  - { offset: 0x75961, size: 0x8, addend: 0x0, symName: __RNvYNvYNtCsfwj6t2KTYdc_11proc_macro25IdentNtNtCscwCr4GBBztI_3syn3ext8IdentExt9parse_anyNtNtBI_5parse6Parser9parse_strCs4u7P9VlF0C9_14thiserror_impl, symObjAddr: 0x4140, symBinAddr: 0x29100, symSize: 0x11C }
  - { offset: 0x761B6, size: 0x8, addend: 0x0, symName: __RNvMNtCs4u7P9VlF0C9_14thiserror_impl3astNtB2_5Input8from_syn, symObjAddr: 0x5BC, symBinAddr: 0x2557C, symSize: 0x130 }
  - { offset: 0x7622C, size: 0x8, addend: 0x0, symName: __RNvMNtCs4u7P9VlF0C9_14thiserror_impl4propNtNtB4_3ast6Struct10from_field, symObjAddr: 0x6EC, symBinAddr: 0x256AC, symSize: 0x38 }
  - { offset: 0x7624E, size: 0x8, addend: 0x0, symName: __RNvMNtCs4u7P9VlF0C9_14thiserror_impl4propNtNtB4_3ast6Struct12source_field, symObjAddr: 0x724, symBinAddr: 0x256E4, symSize: 0x38 }
  - { offset: 0x76270, size: 0x8, addend: 0x0, symName: __RNvMNtCs4u7P9VlF0C9_14thiserror_impl4propNtNtB4_3ast6Struct15backtrace_field, symObjAddr: 0x75C, symBinAddr: 0x2571C, symSize: 0x38 }
  - { offset: 0x76292, size: 0x8, addend: 0x0, symName: __RNvMNtCs4u7P9VlF0C9_14thiserror_impl4propNtNtB4_3ast6Struct24distinct_backtrace_field, symObjAddr: 0x794, symBinAddr: 0x25754, symSize: 0xA4 }
  - { offset: 0x762FB, size: 0x8, addend: 0x0, symName: __RNvMNtCs4u7P9VlF0C9_14thiserror_impl5validNtNtB4_3ast5Input8validate, symObjAddr: 0x838, symBinAddr: 0x257F8, symSize: 0x90 }
  - { offset: 0x763BE, size: 0x8, addend: 0x0, symName: __RNvMNtCsdFlNUEO95cG_5alloc6stringNtB2_6String3newCs4u7P9VlF0C9_14thiserror_impl, symObjAddr: 0xB6C, symBinAddr: 0x25B2C, symSize: 0x30 }
  - { offset: 0x7659B, size: 0x8, addend: 0x0, symName: __RNvMNtCsdFlNUEO95cG_5alloc6stringNtB2_6String4pushCs4u7P9VlF0C9_14thiserror_impl, symObjAddr: 0xB9C, symBinAddr: 0x25B5C, symSize: 0x13C }
  - { offset: 0x7685D, size: 0x8, addend: 0x0, symName: __RNvMNtCsdFlNUEO95cG_5alloc6stringNtB2_6String6as_strCs4u7P9VlF0C9_14thiserror_impl, symObjAddr: 0xCD8, symBinAddr: 0x25C98, symSize: 0x78 }
  - { offset: 0x76A2B, size: 0x8, addend: 0x0, symName: __RNvMNtCsdFlNUEO95cG_5alloc6stringNtB2_6String8push_strCs4u7P9VlF0C9_14thiserror_impl, symObjAddr: 0xD50, symBinAddr: 0x25D10, symSize: 0x50 }
  - { offset: 0x76B7D, size: 0x8, addend: 0x0, symName: __RNvMs0_NtCs4u7P9VlF0C9_14thiserror_impl3astNtB5_4Enum8from_syn, symObjAddr: 0xDA0, symBinAddr: 0x25D60, symSize: 0x390 }
  - { offset: 0x76C92, size: 0x8, addend: 0x0, symName: __RNvMs0_NtCs4u7P9VlF0C9_14thiserror_impl4propNtNtB7_3ast7Variant10from_field, symObjAddr: 0x1130, symBinAddr: 0x260F0, symSize: 0x38 }
  - { offset: 0x76CB4, size: 0x8, addend: 0x0, symName: __RNvMs0_NtCs4u7P9VlF0C9_14thiserror_impl4propNtNtB7_3ast7Variant12source_field, symObjAddr: 0x1168, symBinAddr: 0x26128, symSize: 0x38 }
  - { offset: 0x76CD6, size: 0x8, addend: 0x0, symName: __RNvMs0_NtCs4u7P9VlF0C9_14thiserror_impl4propNtNtB7_3ast7Variant15backtrace_field, symObjAddr: 0x11A0, symBinAddr: 0x26160, symSize: 0x38 }
  - { offset: 0x76CF8, size: 0x8, addend: 0x0, symName: __RNvMs0_NtCs4u7P9VlF0C9_14thiserror_impl4propNtNtB7_3ast7Variant24distinct_backtrace_field, symObjAddr: 0x11D8, symBinAddr: 0x26198, symSize: 0xA4 }
  - { offset: 0x76D61, size: 0x8, addend: 0x0, symName: __RNvMs0_NtCs4u7P9VlF0C9_14thiserror_impl5validNtNtB7_3ast4Enum8validate, symObjAddr: 0x127C, symBinAddr: 0x2623C, symSize: 0x4C8 }
  - { offset: 0x76E79, size: 0x8, addend: 0x0, symName: __RNvMs0_NtNtCs85QQFkKrybG_4core4hash3sipINtB5_6HasherNtB5_11Sip13RoundsE5resetCs4u7P9VlF0C9_14thiserror_impl, symObjAddr: 0x1744, symBinAddr: 0x26704, symSize: 0x8C }
  - { offset: 0x76F10, size: 0x8, addend: 0x0, symName: __RNvMs1_NtCs4u7P9VlF0C9_14thiserror_impl3astNtB5_7Variant8from_syn, symObjAddr: 0x17D0, symBinAddr: 0x26790, symSize: 0x330 }
  - { offset: 0x76FFE, size: 0x8, addend: 0x0, symName: __RNvMs1_NtCs4u7P9VlF0C9_14thiserror_impl4propNtNtB7_3ast5Field11source_span, symObjAddr: 0x1B00, symBinAddr: 0x26AC0, symSize: 0x14C }
  - { offset: 0x7708C, size: 0x8, addend: 0x0, symName: __RNvMs1_NtCs4u7P9VlF0C9_14thiserror_impl4propNtNtB7_3ast5Field12is_backtrace, symObjAddr: 0x1C4C, symBinAddr: 0x26C0C, symSize: 0x38 }
  - { offset: 0x770AE, size: 0x8, addend: 0x0, symName: __RNvMs1_NtCs4u7P9VlF0C9_14thiserror_impl5validNtNtB7_3ast7Variant8validate, symObjAddr: 0x1C84, symBinAddr: 0x26C44, symSize: 0x30C }
  - { offset: 0x77177, size: 0x8, addend: 0x0, symName: __RNvMs2_NtCs4u7P9VlF0C9_14thiserror_impl3astNtB5_5Field17multiple_from_syn, symObjAddr: 0x1F90, symBinAddr: 0x26F50, symSize: 0x7C }
  - { offset: 0x771B5, size: 0x8, addend: 0x0, symName: __RNvMs2_NtCs4u7P9VlF0C9_14thiserror_impl3astNtB5_5Field8from_syn, symObjAddr: 0x200C, symBinAddr: 0x26FCC, symSize: 0x1EC }
  - { offset: 0x7723F, size: 0x8, addend: 0x0, symName: __RNvMs2_NtCs4u7P9VlF0C9_14thiserror_impl5validNtNtB7_3ast5Field8validate, symObjAddr: 0x21F8, symBinAddr: 0x271B8, symSize: 0xB4 }
  - { offset: 0x7728B, size: 0x8, addend: 0x0, symName: __RNvMs_NtCs4u7P9VlF0C9_14thiserror_impl3astNtB4_6Struct8from_syn, symObjAddr: 0x22AC, symBinAddr: 0x2726C, symSize: 0x3BC }
  - { offset: 0x773A7, size: 0x8, addend: 0x0, symName: __RNvMs_NtCs4u7P9VlF0C9_14thiserror_impl4propNtNtB6_3ast4Enum10has_source, symObjAddr: 0x2668, symBinAddr: 0x27628, symSize: 0x4C }
  - { offset: 0x773C9, size: 0x8, addend: 0x0, symName: __RNvMs_NtCs4u7P9VlF0C9_14thiserror_impl4propNtNtB6_3ast4Enum11has_display, symObjAddr: 0x26B4, symBinAddr: 0x27674, symSize: 0x100 }
  - { offset: 0x773EB, size: 0x8, addend: 0x0, symName: __RNvMs_NtCs4u7P9VlF0C9_14thiserror_impl4propNtNtB6_3ast4Enum13has_backtrace, symObjAddr: 0x27B4, symBinAddr: 0x27774, symSize: 0x4C }
  - { offset: 0x7740D, size: 0x8, addend: 0x0, symName: __RNvMs_NtCs4u7P9VlF0C9_14thiserror_impl5validNtNtB6_3ast6Struct8validate, symObjAddr: 0x2800, symBinAddr: 0x277C0, symSize: 0x320 }
  - { offset: 0x779E4, size: 0x8, addend: 0x0, symName: __RINvMs_NtNtCs85QQFkKrybG_4core3fmt2rtNtB7_9Arguments6new_v1Kj3_Kj2_ECs4u7P9VlF0C9_14thiserror_impl, symObjAddr: 0x0, symBinAddr: 0x293DC, symSize: 0x54 }
  - { offset: 0x7861B, size: 0x8, addend: 0x0, symName: __RNvXsh_NtCscwCr4GBBztI_3syn5parseNvNtCs4u7P9VlF0C9_14thiserror_impl3fmt19explicit_named_argsNtB5_6Parser6parse2Bz_, symObjAddr: 0x38DC, symBinAddr: 0x2CCB8, symSize: 0x334 }
  - { offset: 0x7DC72, size: 0x8, addend: 0x0, symName: __RNCNvMs6_NtNtNtNtCsdFlNUEO95cG_5alloc11collections5btree3map5entryINtB7_11VacantEntryNtCsfwj6t2KTYdc_11proc_macro25IdentNtNtBb_7set_val9SetValZSTE12insert_entry0Cs4u7P9VlF0C9_14thiserror_impl, symObjAddr: 0xB8C, symBinAddr: 0x29F68, symSize: 0x158 }
  - { offset: 0x7DDD0, size: 0x8, addend: 0x0, symName: __RNCNvMs6_NtNtNtNtCsdFlNUEO95cG_5alloc11collections5btree3map5entryINtB7_11VacantEntryNtNtBf_6string6StringNtNtBb_7set_val9SetValZSTE12insert_entry0Cs4u7P9VlF0C9_14thiserror_impl, symObjAddr: 0xCE4, symBinAddr: 0x2A0C0, symSize: 0x154 }
  - { offset: 0x7DF2E, size: 0x8, addend: 0x0, symName: __RNCNvMs6_NtNtNtNtCsdFlNUEO95cG_5alloc11collections5btree3map5entryINtB7_11VacantEntryNtNtBf_6string6StringTINtNtBb_3set8BTreeSetB1l_EINtNtCscwCr4GBBztI_3syn10punctuated10PunctuatedNtCsfwj6t2KTYdc_11proc_macro211TokenStreamNtNtB2c_5token4PlusEEE12insert_entry0Cs4u7P9VlF0C9_14thiserror_impl, symObjAddr: 0xE38, symBinAddr: 0x2A214, symSize: 0x198 }
  - { offset: 0x7E08D, size: 0x8, addend: 0x0, symName: __RNCNvMs6_NtNtNtNtCsdFlNUEO95cG_5alloc11collections5btree3map5entryINtB7_11VacantEntryTjNtNtCs4u7P9VlF0C9_14thiserror_impl4attr5TraitENtNtBb_7set_val9SetValZSTE12insert_entry0B1r_, symObjAddr: 0xFD0, symBinAddr: 0x2A3AC, symSize: 0x13C }
  - { offset: 0x7FE97, size: 0x8, addend: 0x0, symName: __RNvXs_NtNtNtCsdFlNUEO95cG_5alloc11collections5btree17dedup_sorted_iterINtB4_15DedupSortedIterRNtCsfwj6t2KTYdc_11proc_macro25IdentNtNtB6_7set_val9SetValZSTINtNtNtNtCs85QQFkKrybG_4core4iter8adapters3map3MapINtNtNtBa_3vec9into_iter8IntoIterB1t_ENCINvMse_NtB6_3setINtB41_8BTreeSetB1t_E16from_sorted_iterB3g_E0EENtNtNtB2z_6traits8iterator8Iterator4nextCs4u7P9VlF0C9_14thiserror_impl, symObjAddr: 0x3730, symBinAddr: 0x2CB0C, symSize: 0x15C }
  - { offset: 0x807F2, size: 0x8, addend: 0x0, symName: __RNCINvNtNtCs9bTl5rSDVcL_10proc_macro6bridge6client10run_clientNtB4_11TokenStreamINtNtCs85QQFkKrybG_4core6option6OptionBY_ENCNCINvMs6_B4_INtB4_6ClientNtB8_11TokenStreamB2n_E7expand1NvCs4u7P9VlF0C9_14thiserror_impl12derive_errorE00E0B2U_, symObjAddr: 0x6A4, symBinAddr: 0x29A80, symSize: 0x318 }
  - { offset: 0x80A1C, size: 0x8, addend: 0x0, symName: __RNCNCINvNtNtCs9bTl5rSDVcL_10proc_macro6bridge6client10run_clientNtB6_11TokenStreamINtNtCs85QQFkKrybG_4core6option6OptionB10_ENCNCINvMs6_B6_INtB6_6ClientNtBa_11TokenStreamB2q_E7expand1NvCs4u7P9VlF0C9_14thiserror_impl12derive_errorE00E00B2X_, symObjAddr: 0xB64, symBinAddr: 0x29F40, symSize: 0x28 }
  - { offset: 0x80A9A, size: 0x8, addend: 0x0, symName: __RNCNCINvMs6_NtNtCs9bTl5rSDVcL_10proc_macro6bridge6clientINtBa_6ClientNtBe_11TokenStreamB15_E7expand1NvCs4u7P9VlF0C9_14thiserror_impl12derive_errorE00B1C_, symObjAddr: 0xB3C, symBinAddr: 0x29F18, symSize: 0x28 }
  - { offset: 0x80AE3, size: 0x8, addend: 0x0, symName: __RNCINvMs6_NtNtCs9bTl5rSDVcL_10proc_macro6bridge6clientINtB8_6ClientNtBc_11TokenStreamB13_E7expand1NvCs4u7P9VlF0C9_14thiserror_impl12derive_errorE0B1A_, symObjAddr: 0x674, symBinAddr: 0x29A50, symSize: 0x30 }
  - { offset: 0x80B2E, size: 0x8, addend: 0x0, symName: __RINvNtNtCs9bTl5rSDVcL_10proc_macro6bridge6client10run_clientNtB2_11TokenStreamINtNtCs85QQFkKrybG_4core6option6OptionBW_ENCNCINvMs6_B2_INtB2_6ClientNtB6_11TokenStreamB2l_E7expand1NvCs4u7P9VlF0C9_14thiserror_impl12derive_errorE00EB2S_, symObjAddr: 0x54, symBinAddr: 0x29430, symSize: 0x21C }
  - { offset: 0x80D49, size: 0x8, addend: 0x0, symName: __RNvXsf_NtNtCs9bTl5rSDVcL_10proc_macro6bridge6clientNtB5_11TokenStreamINtNtB7_3rpc6EncodeuE6encodeCs4u7P9VlF0C9_14thiserror_impl, symObjAddr: 0x388C, symBinAddr: 0x2CC68, symSize: 0x50 }
  - { offset: 0x80E5A, size: 0x8, addend: 0x0, symName: __RNvXsi_NtNtCs9bTl5rSDVcL_10proc_macro6bridge6clientNtB5_11TokenStreamINtNtB7_3rpc9DecodeMutuE6decodeCs4u7P9VlF0C9_14thiserror_impl, symObjAddr: 0x3C10, symBinAddr: 0x2CFEC, symSize: 0x2C }
  - { offset: 0x80EA3, size: 0x8, addend: 0x0, symName: __RNvXsk_NtNtCs9bTl5rSDVcL_10proc_macro6bridge6clientNtB5_4SpanINtNtB7_3rpc9DecodeMutuE6decodeCs4u7P9VlF0C9_14thiserror_impl, symObjAddr: 0x3C3C, symBinAddr: 0x2D018, symSize: 0x2C }
  - { offset: 0x85898, size: 0x8, addend: 0x0, symName: __RINvNtNtNtNtCs85QQFkKrybG_4core5slice4sort6shared5pivot11median3_recRNtCsfwj6t2KTYdc_11proc_macro25IdentNvYB14_NtNtBa_3cmp10PartialOrd2ltECs4u7P9VlF0C9_14thiserror_impl, symObjAddr: 0x270, symBinAddr: 0x2964C, symSize: 0x1CC }
  - { offset: 0x85A9E, size: 0x8, addend: 0x0, symName: __RINvNtNtNtNtCs85QQFkKrybG_4core5slice4sort6shared5pivot12choose_pivotRNtCsfwj6t2KTYdc_11proc_macro25IdentNvYB15_NtNtBa_3cmp10PartialOrd2ltECs4u7P9VlF0C9_14thiserror_impl, symObjAddr: 0x43C, symBinAddr: 0x29818, symSize: 0x238 }
  - { offset: 0x85E97, size: 0x8, addend: 0x0, symName: __RNCINvNvNtNtNtNtCs85QQFkKrybG_4core4iter6traits8iterator8Iterator12try_for_each4callNtNtCs4u7P9VlF0C9_14thiserror_impl3ast5FieldINtNtNtBe_3ops12control_flow11ControlFlowB1k_ENcNtB22_5Break0E0B1o_, symObjAddr: 0x9BC, symBinAddr: 0x29D98, symSize: 0x48 }
  - { offset: 0x85EFD, size: 0x8, addend: 0x0, symName: __RNCINvNvNtNtNtNtCs85QQFkKrybG_4core4iter6traits8iterator8Iterator12try_for_each4callNtNtCs4u7P9VlF0C9_14thiserror_impl3ast7VariantINtNtNtBe_3ops12control_flow11ControlFlowB1k_ENcNtB24_5Break0E0B1o_, symObjAddr: 0xA04, symBinAddr: 0x29DE0, symSize: 0x48 }
  - { offset: 0x85F6F, size: 0x8, addend: 0x0, symName: __RNCINvNvNtNtNtNtCs85QQFkKrybG_4core4iter6traits8iterator8Iterator8for_each4callNtCs9bTl5rSDVcL_10proc_macro9TokenTreeNCINvXsg_B1h_NtB1h_11TokenStreamINtNtBa_7collect12FromIteratorB1f_E9from_iterINtNtNtBc_8adapters3map3MapINtNtNtCsdFlNUEO95cG_5alloc3vec9into_iter8IntoIterNtCsfwj6t2KTYdc_11proc_macro29TokenTreeENvNtB4n_3imp19into_compiler_tokenEE0E0Cs4u7P9VlF0C9_14thiserror_impl, symObjAddr: 0xA4C, symBinAddr: 0x29E28, symSize: 0x3C }
  - { offset: 0x85FC8, size: 0x8, addend: 0x0, symName: __RNCINvNvNtNtNtNtCs85QQFkKrybG_4core4iter6traits8iterator8Iterator8for_each4callNtCsfwj6t2KTYdc_11proc_macro211TokenStreamNCINvMsi_NtCsdFlNUEO95cG_5alloc3vecINtB24_3VecB1f_E14extend_trustedINtNtNtBc_8adapters3map3MapINtNtNtBe_5slice4iter4IterNtNtCs4u7P9VlF0C9_14thiserror_impl3ast7VariantENCNvNtB3V_6expand9impl_enums1_0EE0E0B3V_, symObjAddr: 0xA88, symBinAddr: 0x29E64, symSize: 0x3C }
  - { offset: 0x86021, size: 0x8, addend: 0x0, symName: __RNCINvNvNtNtNtNtCs85QQFkKrybG_4core4iter6traits8iterator8Iterator8for_each4callNtCsfwj6t2KTYdc_11proc_macro29TokenTreeNCINvXsa_NtB1h_8fallbackNtB21_11TokenStreamINtNtBa_7collect6ExtendB1f_E6extendINtNtNtCsdFlNUEO95cG_5alloc3vec9into_iter8IntoIterB1f_EE0E0Cs4u7P9VlF0C9_14thiserror_impl, symObjAddr: 0xAC4, symBinAddr: 0x29EA0, symSize: 0x3C }
  - { offset: 0x8607A, size: 0x8, addend: 0x0, symName: __RNCINvNvNtNtNtNtCs85QQFkKrybG_4core4iter6traits8iterator8Iterator8for_each4callNtCsfwj6t2KTYdc_11proc_macro29TokenTreeNCINvXsa_NtB1h_8fallbackNtB21_11TokenStreamINtNtBa_7collect6ExtendB1f_E6extendNtB1h_11TokenStreamE0E0Cs4u7P9VlF0C9_14thiserror_impl, symObjAddr: 0xB00, symBinAddr: 0x29EDC, symSize: 0x3C }
  - { offset: 0x860E4, size: 0x8, addend: 0x0, symName: __RNCNvXs_NvNtNtNtNtCs85QQFkKrybG_4core4iter6traits8iterator8Iterator10advance_byINtNtCscwCr4GBBztI_3syn10punctuated11PrivateIterNtNtB1k_4data7VariantNtNtB1k_5token5CommaENtB6_13SpecAdvanceBy15spec_advance_by0Cs4u7P9VlF0C9_14thiserror_impl, symObjAddr: 0x110C, symBinAddr: 0x2A4E8, symSize: 0x20 }
  - { offset: 0x86131, size: 0x8, addend: 0x0, symName: __RNCNvXs_NvNtNtNtNtCs85QQFkKrybG_4core4iter6traits8iterator8Iterator10advance_byINtNtCscwCr4GBBztI_3syn10punctuated11PrivateIterNtNtB1k_4path15GenericArgumentNtNtB1k_5token5CommaENtB6_13SpecAdvanceBy15spec_advance_by0Cs4u7P9VlF0C9_14thiserror_impl, symObjAddr: 0x112C, symBinAddr: 0x2A508, symSize: 0x20 }
  - { offset: 0x863E2, size: 0x8, addend: 0x0, symName: ___rustc_proc_macro_decls_3440087990514ce7__, symObjAddr: 0x4880, symBinAddr: 0x250CF8, symSize: 0x0 }
  - { offset: 0x864EF, size: 0x8, addend: 0x0, symName: __RNvCs4u7P9VlF0C9_14thiserror_impl12derive_error, symObjAddr: 0x114C, symBinAddr: 0x2A528, symSize: 0x180 }
  - { offset: 0x86569, size: 0x8, addend: 0x0, symName: __RNvNtCs4u7P9VlF0C9_14thiserror_impl3fmt10take_ident, symObjAddr: 0x20A4, symBinAddr: 0x2B480, symSize: 0x3F8 }
  - { offset: 0x86636, size: 0x8, addend: 0x0, symName: __RNvNtCs4u7P9VlF0C9_14thiserror_impl3fmt11is_syn_full, symObjAddr: 0x249C, symBinAddr: 0x2B878, symSize: 0x208 }
  - { offset: 0x8669D, size: 0x8, addend: 0x0, symName: __RNvNtCs4u7P9VlF0C9_14thiserror_impl3fmt19explicit_named_args, symObjAddr: 0x26A4, symBinAddr: 0x2BA80, symSize: 0x3E8 }
  - { offset: 0x86759, size: 0x8, addend: 0x0, symName: __RNvNtCs4u7P9VlF0C9_14thiserror_impl3fmt23try_explicit_named_args, symObjAddr: 0x2A8C, symBinAddr: 0x2BE68, symSize: 0x5F4 }
  - { offset: 0x8685B, size: 0x8, addend: 0x0, symName: __RNvNtCs4u7P9VlF0C9_14thiserror_impl3fmt28fallback_explicit_named_args, symObjAddr: 0x3080, symBinAddr: 0x2C45C, symSize: 0x4B8 }
  - { offset: 0x8694F, size: 0x8, addend: 0x0, symName: __RNvNtCs4u7P9VlF0C9_14thiserror_impl3fmt8take_int, symObjAddr: 0x3538, symBinAddr: 0x2C914, symSize: 0x1F8 }
  - { offset: 0x86CF2, size: 0x8, addend: 0x0, symName: __RINvMs_NtNtCs85QQFkKrybG_4core3fmt2rtNtB7_9Arguments6new_v1Kj3_Kj2_ECs4u7P9VlF0C9_14thiserror_impl, symObjAddr: 0x0, symBinAddr: 0x293DC, symSize: 0x54 }
  - { offset: 0x87706, size: 0x8, addend: 0x0, symName: __RNvMs5_NtNtNtNtCsdFlNUEO95cG_5alloc11collections5btree3map5entryINtB5_5EntryNtNtBd_6string6StringTINtNtB9_3set8BTreeSetB1c_EINtNtCscwCr4GBBztI_3syn10punctuated10PunctuatedNtCsfwj6t2KTYdc_11proc_macro211TokenStreamNtNtB23_5token4PlusEEE10or_defaultCs4u7P9VlF0C9_14thiserror_impl, symObjAddr: 0x12CC, symBinAddr: 0x2A6A8, symSize: 0x110 }
  - { offset: 0x879D7, size: 0x8, addend: 0x0, symName: __RNvMs6_NtNtNtNtCsdFlNUEO95cG_5alloc11collections5btree3map5entryINtB5_11VacantEntryNtCsfwj6t2KTYdc_11proc_macro25IdentNtNtB9_7set_val9SetValZSTE12insert_entryCs4u7P9VlF0C9_14thiserror_impl, symObjAddr: 0x13DC, symBinAddr: 0x2A7B8, symSize: 0x290 }
  - { offset: 0x87E9B, size: 0x8, addend: 0x0, symName: __RNvMs6_NtNtNtNtCsdFlNUEO95cG_5alloc11collections5btree3map5entryINtB5_11VacantEntryNtNtBd_6string6StringNtNtB9_7set_val9SetValZSTE12insert_entryCs4u7P9VlF0C9_14thiserror_impl, symObjAddr: 0x166C, symBinAddr: 0x2AA48, symSize: 0x28C }
  - { offset: 0x88352, size: 0x8, addend: 0x0, symName: __RNvMs6_NtNtNtNtCsdFlNUEO95cG_5alloc11collections5btree3map5entryINtB5_11VacantEntryNtNtBd_6string6StringTINtNtB9_3set8BTreeSetB1j_EINtNtCscwCr4GBBztI_3syn10punctuated10PunctuatedNtCsfwj6t2KTYdc_11proc_macro211TokenStreamNtNtB2a_5token4PlusEEE12insert_entryCs4u7P9VlF0C9_14thiserror_impl, symObjAddr: 0x18F8, symBinAddr: 0x2ACD4, symSize: 0x2F8 }
  - { offset: 0x88817, size: 0x8, addend: 0x0, symName: __RNvMs6_NtNtNtNtCsdFlNUEO95cG_5alloc11collections5btree3map5entryINtB5_11VacantEntryTjNtNtCs4u7P9VlF0C9_14thiserror_impl4attr5TraitENtNtB9_7set_val9SetValZSTE12insert_entryB1p_, symObjAddr: 0x1BF0, symBinAddr: 0x2AFCC, symSize: 0x270 }
  - { offset: 0x88B0C, size: 0x8, addend: 0x0, symName: __RNvMs7_NtNtNtNtCsdFlNUEO95cG_5alloc11collections5btree3map5entryINtB5_13OccupiedEntryNtCsfwj6t2KTYdc_11proc_macro25IdentNtNtB9_7set_val9SetValZSTE6insertCs4u7P9VlF0C9_14thiserror_impl, symObjAddr: 0x1E60, symBinAddr: 0x2B23C, symSize: 0x4C }
  - { offset: 0x88B6F, size: 0x8, addend: 0x0, symName: __RNvMs7_NtNtNtNtCsdFlNUEO95cG_5alloc11collections5btree3map5entryINtB5_13OccupiedEntryNtCsfwj6t2KTYdc_11proc_macro25IdentNtNtB9_7set_val9SetValZSTE8into_mutCs4u7P9VlF0C9_14thiserror_impl, symObjAddr: 0x1EAC, symBinAddr: 0x2B288, symSize: 0x58 }
  - { offset: 0x88BE9, size: 0x8, addend: 0x0, symName: __RNvMs7_NtNtNtNtCsdFlNUEO95cG_5alloc11collections5btree3map5entryINtB5_13OccupiedEntryNtNtBd_6string6StringNtNtB9_7set_val9SetValZSTE6insertCs4u7P9VlF0C9_14thiserror_impl, symObjAddr: 0x1F04, symBinAddr: 0x2B2E0, symSize: 0x4C }
  - { offset: 0x88C4C, size: 0x8, addend: 0x0, symName: __RNvMs7_NtNtNtNtCsdFlNUEO95cG_5alloc11collections5btree3map5entryINtB5_13OccupiedEntryNtNtBd_6string6StringNtNtB9_7set_val9SetValZSTE8into_mutCs4u7P9VlF0C9_14thiserror_impl, symObjAddr: 0x1F50, symBinAddr: 0x2B32C, symSize: 0x58 }
  - { offset: 0x88C8B, size: 0x8, addend: 0x0, symName: __RNvMs7_NtNtNtNtCsdFlNUEO95cG_5alloc11collections5btree3map5entryINtB5_13OccupiedEntryNtNtBd_6string6StringTINtNtB9_3set8BTreeSetB1l_EINtNtCscwCr4GBBztI_3syn10punctuated10PunctuatedNtCsfwj6t2KTYdc_11proc_macro211TokenStreamNtNtB2c_5token4PlusEEE8into_mutCs4u7P9VlF0C9_14thiserror_impl, symObjAddr: 0x1FA8, symBinAddr: 0x2B384, symSize: 0x58 }
  - { offset: 0x88D05, size: 0x8, addend: 0x0, symName: __RNvMs7_NtNtNtNtCsdFlNUEO95cG_5alloc11collections5btree3map5entryINtB5_13OccupiedEntryTjNtNtCs4u7P9VlF0C9_14thiserror_impl4attr5TraitENtNtB9_7set_val9SetValZSTE6insertB1r_, symObjAddr: 0x2000, symBinAddr: 0x2B3DC, symSize: 0x4C }
  - { offset: 0x88D68, size: 0x8, addend: 0x0, symName: __RNvMs7_NtNtNtNtCsdFlNUEO95cG_5alloc11collections5btree3map5entryINtB5_13OccupiedEntryTjNtNtCs4u7P9VlF0C9_14thiserror_impl4attr5TraitENtNtB9_7set_val9SetValZSTE8into_mutB1r_, symObjAddr: 0x204C, symBinAddr: 0x2B428, symSize: 0x58 }
  - { offset: 0x88F5C, size: 0x8, addend: 0x0, symName: __RNvYNtNtCscwCr4GBBztI_3syn2ty4TypeNtNtCshi3DZH3dfhk_5quote9to_tokens8ToTokens15to_token_streamCs4u7P9VlF0C9_14thiserror_impl, symObjAddr: 0x3C68, symBinAddr: 0x2D044, symSize: 0x8C }
  - { offset: 0x89623, size: 0x8, addend: 0x0, symName: __RINvMNtCscwCr4GBBztI_3syn9lookaheadNtB3_10Lookahead14peekINvNvNtCs4u7P9VlF0C9_14thiserror_impl4attr21parse_error_attribute11transparentNtB3_11TokenMarkerEEB10_, symObjAddr: 0x0, symBinAddr: 0x2D124, symSize: 0x44 }
  - { offset: 0x8992D, size: 0x8, addend: 0x0, symName: __RINvNvNtNtCs9bTl5rSDVcL_10proc_macro6bridge14selfless_reify31reify_to_extern_c_fn_hrt_bridge7wrapperNtNtB6_6buffer6BufferNCINvMs6_NtB6_6clientINtB24_6ClientNtB8_11TokenStreamB2u_E7expand1NvCs4u7P9VlF0C9_14thiserror_impl12derive_errorE0EB31_, symObjAddr: 0x1438, symBinAddr: 0x2E3E0, symSize: 0x6C }
  - { offset: 0x89C34, size: 0x8, addend: 0x0, symName: __RINvXsg_Cs9bTl5rSDVcL_10proc_macroNtB6_11TokenStreamINtNtNtNtCs85QQFkKrybG_4core4iter6traits7collect12FromIteratorNtB6_9TokenTreeE9from_iterINtNtNtBV_8adapters3map3MapINtNtNtCsdFlNUEO95cG_5alloc3vec9into_iter8IntoIterNtCsfwj6t2KTYdc_11proc_macro29TokenTreeENvNtB3v_3imp19into_compiler_tokenEECs4u7P9VlF0C9_14thiserror_impl, symObjAddr: 0x176C, symBinAddr: 0x2E714, symSize: 0xFC }
  - { offset: 0x89C9D, size: 0x8, addend: 0x0, symName: __RNCINvXsg_Cs9bTl5rSDVcL_10proc_macroNtB8_11TokenStreamINtNtNtNtCs85QQFkKrybG_4core4iter6traits7collect12FromIteratorNtB8_9TokenTreeE9from_iterINtNtNtBX_8adapters3map3MapINtNtNtCsdFlNUEO95cG_5alloc3vec9into_iter8IntoIterNtCsfwj6t2KTYdc_11proc_macro29TokenTreeENvNtB3x_3imp19into_compiler_tokenEE0Cs4u7P9VlF0C9_14thiserror_impl, symObjAddr: 0x1868, symBinAddr: 0x2E810, symSize: 0x28 }
  - { offset: 0x89CEA, size: 0x8, addend: 0x0, symName: __RNvXs1e_Cs9bTl5rSDVcL_10proc_macroNtB6_5IdentNtNtCs85QQFkKrybG_4core5clone5Clone5cloneCs4u7P9VlF0C9_14thiserror_impl, symObjAddr: 0x2C0C, symBinAddr: 0x2FBB4, symSize: 0x40 }
  - { offset: 0x89D1E, size: 0x8, addend: 0x0, symName: __RNvXsU_Cs9bTl5rSDVcL_10proc_macroNtB5_11TokenStreamNtNtCs85QQFkKrybG_4core5clone5Clone5cloneCs4u7P9VlF0C9_14thiserror_impl, symObjAddr: 0x2D78, symBinAddr: 0x2FD20, symSize: 0x64 }
  - { offset: 0x8A050, size: 0x8, addend: 0x0, symName: __RINvXs5_NtCsfwj6t2KTYdc_11proc_macro23impNtB6_11TokenStreamINtNtNtNtCs85QQFkKrybG_4core4iter6traits7collect12FromIteratorNtB8_9TokenTreeE9from_iterINtNtNtCsdFlNUEO95cG_5alloc3vec9into_iter8IntoIterB1V_EECs4u7P9VlF0C9_14thiserror_impl, symObjAddr: 0x14A4, symBinAddr: 0x2E44C, symSize: 0x164 }
  - { offset: 0x8A08C, size: 0x8, addend: 0x0, symName: __RINvXs7_NtCsfwj6t2KTYdc_11proc_macro23impNtB6_11TokenStreamINtNtNtNtCs85QQFkKrybG_4core4iter6traits7collect6ExtendNtB8_9TokenTreeE6extendNtB8_11TokenStreamECs4u7P9VlF0C9_14thiserror_impl, symObjAddr: 0x1608, symBinAddr: 0x2E5B0, symSize: 0x164 }
  - { offset: 0x8A128, size: 0x8, addend: 0x0, symName: __RNvXsA_NtCsfwj6t2KTYdc_11proc_macro23impNtB5_19DeferredTokenStreamNtNtCs85QQFkKrybG_4core5clone5Clone5cloneCs4u7P9VlF0C9_14thiserror_impl, symObjAddr: 0x2C4C, symBinAddr: 0x2FBF4, symSize: 0x90 }
  - { offset: 0x8A15A, size: 0x8, addend: 0x0, symName: __RNvXsF_NtCsfwj6t2KTYdc_11proc_macro23impNtB5_5IdentNtNtCs85QQFkKrybG_4core5clone5Clone5cloneCs4u7P9VlF0C9_14thiserror_impl, symObjAddr: 0x2CDC, symBinAddr: 0x2FC84, symSize: 0x9C }
  - { offset: 0x8A1CA, size: 0x8, addend: 0x0, symName: __RNvXsz_NtCsfwj6t2KTYdc_11proc_macro23impNtB5_11TokenStreamNtNtCs85QQFkKrybG_4core5clone5Clone5cloneCs4u7P9VlF0C9_14thiserror_impl, symObjAddr: 0x2DDC, symBinAddr: 0x2FD84, symSize: 0x98 }
  - { offset: 0x8A743, size: 0x8, addend: 0x0, symName: __RNCNvXs1_NtNtNtCswz7ZwgBZOU_3std2io5error14repr_bitpackedNtB7_4ReprNtNtNtCs85QQFkKrybG_4core3ops4drop4Drop4drop0Cs4u7P9VlF0C9_14thiserror_impl, symObjAddr: 0x18B8, symBinAddr: 0x2E860, symSize: 0x3C }
  - { offset: 0x8A7F8, size: 0x8, addend: 0x0, symName: __RNvXs1_NtNtNtCswz7ZwgBZOU_3std2io5error14repr_bitpackedNtB5_4ReprNtNtNtCs85QQFkKrybG_4core3ops4drop4Drop4dropCs4u7P9VlF0C9_14thiserror_impl, symObjAddr: 0x2BD4, symBinAddr: 0x2FB7C, symSize: 0x38 }
  - { offset: 0x8A821, size: 0x8, addend: 0x0, symName: __RINvNtNtNtCswz7ZwgBZOU_3std2io5error14repr_bitpacked11decode_reprINtNtCsdFlNUEO95cG_5alloc5boxed3BoxNtB4_6CustomENCNvXs1_B2_NtB2_4ReprNtNtNtCs85QQFkKrybG_4core3ops4drop4Drop4drop0ECs4u7P9VlF0C9_14thiserror_impl, symObjAddr: 0x6F8, symBinAddr: 0x2D6A0, symSize: 0x1DC }
  - { offset: 0x8AA7D, size: 0x8, addend: 0x0, symName: __RNvNtNtNtCswz7ZwgBZOU_3std2io5error14repr_bitpacked14kind_from_primCs4u7P9VlF0C9_14thiserror_impl, symObjAddr: 0x19CC, symBinAddr: 0x2E974, symSize: 0x608 }
  - { offset: 0x8B3F6, size: 0x8, addend: 0x0, symName: __RNCNvMs3_NtNtCswz7ZwgBZOU_3std6thread5localINtB7_8LocalKeyINtNtCs85QQFkKrybG_4core4cell4CellPuEE7replace0Cs4u7P9VlF0C9_14thiserror_impl, symObjAddr: 0x1890, symBinAddr: 0x2E838, symSize: 0x28 }
  - { offset: 0x8BE22, size: 0x8, addend: 0x0, symName: __RINvNtCs85QQFkKrybG_4core3ptr10swap_chunkKj1_ECs4u7P9VlF0C9_14thiserror_impl, symObjAddr: 0x2B4, symBinAddr: 0x2D3D8, symSize: 0x3C }
  - { offset: 0x8BE5B, size: 0x8, addend: 0x0, symName: __RINvNtCs85QQFkKrybG_4core3ptr10swap_chunkKj2_ECs4u7P9VlF0C9_14thiserror_impl, symObjAddr: 0x2F0, symBinAddr: 0x2D414, symSize: 0x3C }
  - { offset: 0x8BE94, size: 0x8, addend: 0x0, symName: __RINvNtCs85QQFkKrybG_4core3ptr10swap_chunkKj4_ECs4u7P9VlF0C9_14thiserror_impl, symObjAddr: 0x32C, symBinAddr: 0x2D450, symSize: 0x3C }
  - { offset: 0x8BECD, size: 0x8, addend: 0x0, symName: __RINvNtCs85QQFkKrybG_4core3ptr10swap_chunkKj8_ECs4u7P9VlF0C9_14thiserror_impl, symObjAddr: 0x368, symBinAddr: 0x2D48C, symSize: 0x3C }
  - { offset: 0x8BF68, size: 0x8, addend: 0x0, symName: __RINvNtCs85QQFkKrybG_4core3ptr14read_unalignedNtNtNtNtB4_9core_arch10arm_shared4neon9uint8x8_tECs4u7P9VlF0C9_14thiserror_impl, symObjAddr: 0x3A4, symBinAddr: 0x2D4C8, symSize: 0xA4 }
  - { offset: 0x8C0B3, size: 0x8, addend: 0x0, symName: __RINvNtCs85QQFkKrybG_4core3ptr15write_unalignedNtNtNtNtB4_9core_arch10arm_shared4neon9uint8x8_tECs4u7P9VlF0C9_14thiserror_impl, symObjAddr: 0x448, symBinAddr: 0x2D56C, symSize: 0x78 }
  - { offset: 0x8C1CF, size: 0x8, addend: 0x0, symName: __RNvNvNtCs85QQFkKrybG_4core3ptr19swap_nonoverlapping18precondition_checkCs4u7P9VlF0C9_14thiserror_impl, symObjAddr: 0x2340, symBinAddr: 0x2F2E8, symSize: 0x38C }
  - { offset: 0x8C4DC, size: 0x8, addend: 0x0, symName: __RINvNtCs85QQFkKrybG_4core3ptr19swap_nonoverlappinghECs4u7P9VlF0C9_14thiserror_impl, symObjAddr: 0x63C, symBinAddr: 0x2D5E4, symSize: 0xBC }
  - { offset: 0x8C8E5, size: 0x8, addend: 0x0, symName: __RINvNvNtCs85QQFkKrybG_4core3ptr25swap_nonoverlapping_bytes26swap_nonoverlapping_chunksKj8_ECs4u7P9VlF0C9_14thiserror_impl, symObjAddr: 0x1354, symBinAddr: 0x2E2FC, symSize: 0xE4 }
  - { offset: 0x8CA87, size: 0x8, addend: 0x0, symName: __RNvNvNtCs85QQFkKrybG_4core3ptr25swap_nonoverlapping_bytes25swap_nonoverlapping_shortCs4u7P9VlF0C9_14thiserror_impl, symObjAddr: 0x26CC, symBinAddr: 0x2F674, symSize: 0x120 }
  - { offset: 0x8CC49, size: 0x8, addend: 0x0, symName: __RNvNtCs85QQFkKrybG_4core3ptr25swap_nonoverlapping_bytesCs4u7P9VlF0C9_14thiserror_impl, symObjAddr: 0x18F4, symBinAddr: 0x2E89C, symSize: 0xD8 }
  - { offset: 0x8CDF2, size: 0x8, addend: 0x0, symName: __RNvNvNtCs85QQFkKrybG_4core3ptr19copy_nonoverlapping18precondition_checkCs4u7P9VlF0C9_14thiserror_impl, symObjAddr: 0x1FD4, symBinAddr: 0x2EF7C, symSize: 0x36C }
  - { offset: 0x8D0D2, size: 0x8, addend: 0x0, symName: __RNvNvNtCs85QQFkKrybG_4core3ptr4copy18precondition_checkCs4u7P9VlF0C9_14thiserror_impl, symObjAddr: 0x27EC, symBinAddr: 0x2F794, symSize: 0x240 }
  - { offset: 0x8D319, size: 0x8, addend: 0x0, symName: __RNvNvNtCs85QQFkKrybG_4core3ptr7replace18precondition_checkCs4u7P9VlF0C9_14thiserror_impl, symObjAddr: 0x2A2C, symBinAddr: 0x2F9D4, symSize: 0x16C }
  - { offset: 0x8EBC5, size: 0x8, addend: 0x0, symName: __RINvNtNtNtNtCs85QQFkKrybG_4core5slice4sort6stable5drift10create_runRNtCsfwj6t2KTYdc_11proc_macro25IdentNvYB13_NtNtBa_3cmp10PartialOrd2ltECs4u7P9VlF0C9_14thiserror_impl, symObjAddr: 0x8D4, symBinAddr: 0x2D87C, symSize: 0x410 }
  - { offset: 0x8F0D6, size: 0x8, addend: 0x0, symName: __RINvNtNtNtNtCs85QQFkKrybG_4core5slice4sort6stable5drift16stable_quicksortRNtCsfwj6t2KTYdc_11proc_macro25IdentNvYB19_NtNtBa_3cmp10PartialOrd2ltECs4u7P9VlF0C9_14thiserror_impl, symObjAddr: 0xCE4, symBinAddr: 0x2DC8C, symSize: 0xB4 }
  - { offset: 0x8F2FB, size: 0x8, addend: 0x0, symName: __RINvNtNtNtNtCs85QQFkKrybG_4core5slice4sort6stable5drift4sortRNtCsfwj6t2KTYdc_11proc_macro25IdentNvYBW_NtNtBa_3cmp10PartialOrd2ltECs4u7P9VlF0C9_14thiserror_impl, symObjAddr: 0xD98, symBinAddr: 0x2DD40, symSize: 0x5BC }
  - { offset: 0x90027, size: 0x8, addend: 0x0, symName: __RNvXs0_NtCscwCr4GBBztI_3syn5tokenNtNtB7_9lookahead3EndNtB5_5Token4peekCs4u7P9VlF0C9_14thiserror_impl, symObjAddr: 0x2B98, symBinAddr: 0x2FB40, symSize: 0x3C }
  - { offset: 0x90625, size: 0x8, addend: 0x0, symName: __RINvMNtCscwCr4GBBztI_3syn9lookaheadNtB3_10Lookahead14peekINvNvNtCs4u7P9VlF0C9_14thiserror_impl4attr21parse_error_attribute11transparentNtB3_11TokenMarkerEEB10_, symObjAddr: 0x0, symBinAddr: 0x2D124, symSize: 0x44 }
  - { offset: 0x906AA, size: 0x8, addend: 0x0, symName: __RINvMs2_NtNtCswz7ZwgBZOU_3std6thread5localINtB6_8LocalKeyINtNtCs85QQFkKrybG_4core4cell4CellPuEE4withNCNvMs3_B6_BE_7replace0B1r_ECs4u7P9VlF0C9_14thiserror_impl, symObjAddr: 0x44, symBinAddr: 0x2D168, symSize: 0x54 }
  - { offset: 0x90763, size: 0x8, addend: 0x0, symName: __RINvMs2_NtNtCswz7ZwgBZOU_3std6thread5localINtB6_8LocalKeyINtNtCs85QQFkKrybG_4core4cell4CellPuEE8try_withNCNvMs3_B6_BE_7replace0B1r_ECs4u7P9VlF0C9_14thiserror_impl, symObjAddr: 0x98, symBinAddr: 0x2D1BC, symSize: 0xE4 }
  - { offset: 0x90901, size: 0x8, addend: 0x0, symName: __RINvMs2_NtNtCswz7ZwgBZOU_3std6thread5localINtB6_8LocalKeyINtNtCs85QQFkKrybG_4core4cell4CellTyyEEE4withNCNvMNtNtBa_4hash6randomNtB1H_11RandomState3new0B20_ECs4u7P9VlF0C9_14thiserror_impl, symObjAddr: 0x17C, symBinAddr: 0x2D2A0, symSize: 0x50 }
  - { offset: 0x909BA, size: 0x8, addend: 0x0, symName: __RINvMs2_NtNtCswz7ZwgBZOU_3std6thread5localINtB6_8LocalKeyINtNtCs85QQFkKrybG_4core4cell4CellTyyEEE8try_withNCNvMNtNtBa_4hash6randomNtB1L_11RandomState3new0B24_ECs4u7P9VlF0C9_14thiserror_impl, symObjAddr: 0x1CC, symBinAddr: 0x2D2F0, symSize: 0xE8 }
  - { offset: 0x9125E, size: 0x8, addend: 0x0, symName: __RNvYNtNtCscwCr4GBBztI_3syn5token8SelfTypeNtNtCshi3DZH3dfhk_5quote9to_tokens8ToTokens15to_token_streamCs4u7P9VlF0C9_14thiserror_impl, symObjAddr: 0x2E74, symBinAddr: 0x2FE1C, symSize: 0x8C }
  - { offset: 0x91495, size: 0x8, addend: 0x0, symName: __RINvCscwCr4GBBztI_3syn5parseNtNtB2_6derive11DeriveInputECs4u7P9VlF0C9_14thiserror_impl, symObjAddr: 0x0, symBinAddr: 0x2FEA8, symSize: 0x30 }
  - { offset: 0x9154F, size: 0x8, addend: 0x0, symName: __RINvCscwCr4GBBztI_3syn5parseNtNtB2_6derive11DeriveInputECs4u7P9VlF0C9_14thiserror_impl, symObjAddr: 0x0, symBinAddr: 0x2FEA8, symSize: 0x30 }
  - { offset: 0x91586, size: 0x8, addend: 0x0, symName: __RINvCscwCr4GBBztI_3syn6parse2NtNtB2_4expr4ExprECs4u7P9VlF0C9_14thiserror_impl, symObjAddr: 0x30, symBinAddr: 0x2FED8, symSize: 0x24 }
  - { offset: 0x92010, size: 0x8, addend: 0x0, symName: __RNvXs0_NtCscwCr4GBBztI_3syn5tokenNtNvNtCs4u7P9VlF0C9_14thiserror_impl4attr21parse_error_attribute11transparentNtB5_5Token4peekBB_, symObjAddr: 0x533C, symBinAddr: 0x351E4, symSize: 0x3C }
  - { offset: 0x92045, size: 0x8, addend: 0x0, symName: __RNvXs0_NtCscwCr4GBBztI_3syn5tokenNtNvNtCs4u7P9VlF0C9_14thiserror_impl4attr21parse_error_attribute11transparentNtB5_5Token7displayBB_, symObjAddr: 0x5378, symBinAddr: 0x35220, symSize: 0x24 }
  - { offset: 0x939B3, size: 0x8, addend: 0x0, symName: __RINvXs4_NtCscwCr4GBBztI_3syn4exprNtB6_6MemberNtNtCs85QQFkKrybG_4core4hash4Hash4hashNtNtNtCswz7ZwgBZOU_3std4hash6random13DefaultHasherECs4u7P9VlF0C9_14thiserror_impl, symObjAddr: 0x558, symBinAddr: 0x30400, symSize: 0x98 }
  - { offset: 0x93A2F, size: 0x8, addend: 0x0, symName: __RINvXsa_NtCscwCr4GBBztI_3syn4exprNtB6_5IndexNtNtCs85QQFkKrybG_4core4hash4Hash4hashNtNtNtCswz7ZwgBZOU_3std4hash6random13DefaultHasherECs4u7P9VlF0C9_14thiserror_impl, symObjAddr: 0x5F0, symBinAddr: 0x30498, symSize: 0x3C }
  - { offset: 0x93A7C, size: 0x8, addend: 0x0, symName: __RNcNtNtNtCscwCr4GBBztI_3syn4expr6Member5Named0Cs4u7P9VlF0C9_14thiserror_impl, symObjAddr: 0xFF4, symBinAddr: 0x30E9C, symSize: 0x18 }
  - { offset: 0x963DE, size: 0x8, addend: 0x0, symName: __RNvXsh_NtCscwCr4GBBztI_3syn5parseNCNvNtCs4u7P9VlF0C9_14thiserror_impl4attr21parse_error_attribute0NtB5_6Parser14___parse_scopedBB_, symObjAddr: 0x5C48, symBinAddr: 0x35AF0, symSize: 0x360 }
  - { offset: 0x9824F, size: 0x8, addend: 0x0, symName: __RNvXs1J_NtCs9bTl5rSDVcL_10proc_macro6bridgeINtB6_11ExpnGlobalsNtNtB6_6client4SpanEINtNtB6_3rpc9DecodeMutuE6decodeCs4u7P9VlF0C9_14thiserror_impl, symObjAddr: 0x547C, symBinAddr: 0x35324, symSize: 0xB0 }
  - { offset: 0x982A6, size: 0x8, addend: 0x0, symName: __RNvXs9_NtNtCs9bTl5rSDVcL_10proc_macro6bridge3rpcTINtB7_11ExpnGlobalsNtNtB7_6client4SpanENtB16_11TokenStreamEINtB5_9DecodeMutuE6decodeCs4u7P9VlF0C9_14thiserror_impl, symObjAddr: 0x56EC, symBinAddr: 0x35594, symSize: 0x84 }
  - { offset: 0x98C4E, size: 0x8, addend: 0x0, symName: __RNvXs7_NtNtCs85QQFkKrybG_4core3cmp5implsRNtNtCscwCr4GBBztI_3syn4expr6MemberNtB7_9PartialEq2eqCs4u7P9VlF0C9_14thiserror_impl, symObjAddr: 0x5674, symBinAddr: 0x3551C, symSize: 0x34 }
  - { offset: 0x9B5DC, size: 0x8, addend: 0x0, symName: __RINvXs3_NtNtCs85QQFkKrybG_4core4hash5implsRNtNtCscwCr4GBBztI_3syn4expr6MemberNtB8_4Hash4hashNtNtNtCswz7ZwgBZOU_3std4hash6random13DefaultHasherECs4u7P9VlF0C9_14thiserror_impl, symObjAddr: 0x4F8, symBinAddr: 0x303A0, symSize: 0x30 }
  - { offset: 0x9B627, size: 0x8, addend: 0x0, symName: __RINvXs3_NtNtCs85QQFkKrybG_4core4hash5implsRRNtNtCscwCr4GBBztI_3syn4expr6MemberNtB8_4Hash4hashNtNtNtCswz7ZwgBZOU_3std4hash6random13DefaultHasherECs4u7P9VlF0C9_14thiserror_impl, symObjAddr: 0x528, symBinAddr: 0x303D0, symSize: 0x30 }
  - { offset: 0x9B7B0, size: 0x8, addend: 0x0, symName: __RNvXs0_NtNtNtCs85QQFkKrybG_4core4iter8adapters10filter_mapINtB5_9FilterMapINtNtNtBb_5slice4iter4IterNtNtCs4u7P9VlF0C9_14thiserror_impl3ast7VariantENCNvNtB1E_6expand9impl_enums2_0ENtNtNtB9_6traits8iterator8Iterator4nextB1E_, symObjAddr: 0x541C, symBinAddr: 0x352C4, symSize: 0x2C }
  - { offset: 0x9B86C, size: 0x8, addend: 0x0, symName: __RINvYINtNtNtCs85QQFkKrybG_4core3str4iter5SplitcENtNtNtNtBa_4iter6traits8iterator8Iterator3mapINtNtBa_6result6ResultNtNtCscwCr4GBBztI_3syn4expr5IndexNtNtB1T_5error5ErrorEINvB1T_9parse_strB1P_EECs4u7P9VlF0C9_14thiserror_impl, symObjAddr: 0x62C, symBinAddr: 0x304D4, symSize: 0x30 }
  - { offset: 0x9B99E, size: 0x8, addend: 0x0, symName: __RNvXNtNtCs85QQFkKrybG_4core3str4iterNtB2_5CharsNtNtNtNtB6_4iter6traits8iterator8Iterator4nextCs4u7P9VlF0C9_14thiserror_impl, symObjAddr: 0x519C, symBinAddr: 0x35044, symSize: 0x80 }
  - { offset: 0x9BA84, size: 0x8, addend: 0x0, symName: __RNvXs0_NtNtCs85QQFkKrybG_4core3str4iterNtB5_5CharsNtNtNtNtB9_4iter6traits12double_ended19DoubleEndedIterator9next_backCs4u7P9VlF0C9_14thiserror_impl, symObjAddr: 0x539C, symBinAddr: 0x35244, symSize: 0x80 }
  - { offset: 0x9BB3A, size: 0x8, addend: 0x0, symName: __RNvXs3_NtNtCs85QQFkKrybG_4core3str4iterNtB5_11CharIndicesNtNtNtNtB9_4iter6traits8iterator8Iterator4nextCs4u7P9VlF0C9_14thiserror_impl, symObjAddr: 0x552C, symBinAddr: 0x353D4, symSize: 0x130 }
  - { offset: 0x9BD74, size: 0x8, addend: 0x0, symName: __RNvXNtCs85QQFkKrybG_4core6borrowRNtNtCscwCr4GBBztI_3syn4expr6MemberINtB2_6BorrowBu_E6borrowCs4u7P9VlF0C9_14thiserror_impl, symObjAddr: 0x4FC4, symBinAddr: 0x34E6C, symSize: 0x14 }
  - { offset: 0x9BDA9, size: 0x8, addend: 0x0, symName: __RNvXNtCs85QQFkKrybG_4core6borrowTjNtNtCs4u7P9VlF0C9_14thiserror_impl4attr5TraitEINtB2_6BorrowBu_E6borrowBA_, symObjAddr: 0x4FD8, symBinAddr: 0x34E80, symSize: 0x14 }
  - { offset: 0x9BDE4, size: 0x8, addend: 0x0, symName: __RNvXs0_NtCs85QQFkKrybG_4core6borrowRNtNtCscwCr4GBBztI_3syn4expr6MemberINtB5_6BorrowBy_E6borrowCs4u7P9VlF0C9_14thiserror_impl, symObjAddr: 0x5324, symBinAddr: 0x351CC, symSize: 0x18 }
  - { offset: 0x9C02C, size: 0x8, addend: 0x0, symName: __RNvXse_NtCs85QQFkKrybG_4core5tupleTjNtNtCs4u7P9VlF0C9_14thiserror_impl4attr5TraitENtNtB7_3cmp3Ord3cmpBC_, symObjAddr: 0x5BDC, symBinAddr: 0x35A84, symSize: 0x6C }
  - { offset: 0x9C0A1, size: 0x8, addend: 0x0, symName: __RNvYNtNtCs4u7P9VlF0C9_14thiserror_impl4attr7DisplayNtNtCs85QQFkKrybG_4core5clone5Clone10clone_fromB6_, symObjAddr: 0x6074, symBinAddr: 0x35F1C, symSize: 0x84 }
  - { offset: 0x9C331, size: 0x8, addend: 0x0, symName: __RNCNvNtCs4u7P9VlF0C9_14thiserror_impl4attr21parse_error_attribute0B5_, symObjAddr: 0x65C, symBinAddr: 0x30504, symSize: 0x7C8 }
  - { offset: 0x9C4BB, size: 0x8, addend: 0x0, symName: __RNCNvXs0_NvNvNtCs4u7P9VlF0C9_14thiserror_impl4attr21parse_error_attribute1__NtB9_11transparentNtNtCscwCr4GBBztI_3syn5parse5Parse5parse0Bd_, symObjAddr: 0xE24, symBinAddr: 0x30CCC, symSize: 0x1D0 }
  - { offset: 0x9C521, size: 0x8, addend: 0x0, symName: __RNvXs0_NvNvNtCs4u7P9VlF0C9_14thiserror_impl4attr21parse_error_attribute1__NtB7_11transparentNtNtCscwCr4GBBztI_3syn5parse5Parse5parse, symObjAddr: 0x5448, symBinAddr: 0x352F0, symSize: 0x34 }
  - { offset: 0x9C553, size: 0x8, addend: 0x0, symName: __RNvXs_NvNvNtCs4u7P9VlF0C9_14thiserror_impl4attr21parse_error_attribute1__NtB6_11transparentNtNtNtCscwCr4GBBztI_3syn5token7private11CustomToken4peek, symObjAddr: 0x5AB8, symBinAddr: 0x35960, symSize: 0x100 }
  - { offset: 0x9C5A3, size: 0x8, addend: 0x0, symName: __RNvXs_NvNvNtCs4u7P9VlF0C9_14thiserror_impl4attr21parse_error_attribute1__NtB6_11transparentNtNtNtCscwCr4GBBztI_3syn5token7private11CustomToken7display, symObjAddr: 0x5BB8, symBinAddr: 0x35A60, symSize: 0x24 }
  - { offset: 0x9C6BA, size: 0x8, addend: 0x0, symName: __RNvNtCs4u7P9VlF0C9_14thiserror_impl4attr16parse_token_expr, symObjAddr: 0x28B8, symBinAddr: 0x32760, symSize: 0x1CB0 }
  - { offset: 0x9CC57, size: 0x8, addend: 0x0, symName: __RNvNtCs4u7P9VlF0C9_14thiserror_impl4attr21parse_error_attribute, symObjAddr: 0x4568, symBinAddr: 0x34410, symSize: 0x50 }
  - { offset: 0x9CC91, size: 0x8, addend: 0x0, symName: __RNvNtCs4u7P9VlF0C9_14thiserror_impl4attr3get, symObjAddr: 0x45B8, symBinAddr: 0x34460, symSize: 0x648 }
  - { offset: 0x9CD46, size: 0x8, addend: 0x0, symName: __RNvXNtCs4u7P9VlF0C9_14thiserror_impl4attrNtB2_7DisplayNtNtCshi3DZH3dfhk_5quote9to_tokens8ToTokens9to_tokens, symObjAddr: 0x4CA0, symBinAddr: 0x34B48, symSize: 0x290 }
  - { offset: 0x9CE08, size: 0x8, addend: 0x0, symName: __RNvXs0_NtCs4u7P9VlF0C9_14thiserror_impl4attrNtB5_7DisplayNtNtCs85QQFkKrybG_4core5clone5Clone5cloneB7_, symObjAddr: 0x521C, symBinAddr: 0x350C4, symSize: 0x108 }
  - { offset: 0x9CE3A, size: 0x8, addend: 0x0, symName: __RNvXs4_NtCs4u7P9VlF0C9_14thiserror_impl4attrNtB5_5TraitNtNtCs85QQFkKrybG_4core5clone5Clone5cloneB7_, symObjAddr: 0x565C, symBinAddr: 0x35504, symSize: 0x18 }
  - { offset: 0x9CE6C, size: 0x8, addend: 0x0, symName: __RNvXs8_NtCs4u7P9VlF0C9_14thiserror_impl4attrNtB5_5TraitNtNtCs85QQFkKrybG_4core3cmp3Ord3cmpB7_, symObjAddr: 0x56A8, symBinAddr: 0x35550, symSize: 0x44 }
  - { offset: 0x9CEE6, size: 0x8, addend: 0x0, symName: __RNvXs_NtCs4u7P9VlF0C9_14thiserror_impl4attrNtB4_5TraitNtNtCshi3DZH3dfhk_5quote9to_tokens8ToTokens9to_tokens, symObjAddr: 0x5770, symBinAddr: 0x35618, symSize: 0x348 }
  - { offset: 0x9D020, size: 0x8, addend: 0x0, symName: __RNvXNtCs4u7P9VlF0C9_14thiserror_impl4spanNtNtCscwCr4GBBztI_3syn4expr6MemberNtB2_10MemberSpan11member_span, symObjAddr: 0x4F30, symBinAddr: 0x34DD8, symSize: 0x94 }
  - { offset: 0x9D73F, size: 0x8, addend: 0x0, symName: __RINvMNtCscwCr4GBBztI_3syn4attrNtB3_9Attribute15parse_args_withNCNvNtCs4u7P9VlF0C9_14thiserror_impl4attr21parse_error_attribute0EB14_, symObjAddr: 0x54, symBinAddr: 0x2FEFC, symSize: 0x398 }
  - { offset: 0x9D89C, size: 0x8, addend: 0x0, symName: __RINvMs0_NtCscwCr4GBBztI_3syn4attrNtB6_8MetaList15parse_args_withNCNvNtCs4u7P9VlF0C9_14thiserror_impl4attr21parse_error_attribute0EB16_, symObjAddr: 0x3EC, symBinAddr: 0x30294, symSize: 0x10C }
  - { offset: 0x9DA1C, size: 0x8, addend: 0x0, symName: __RNvMNtCs4u7P9VlF0C9_14thiserror_impl3fmtNtNtB4_4attr7Display16expand_shorthand, symObjAddr: 0x100C, symBinAddr: 0x30EB4, symSize: 0x15EC }
  - { offset: 0x9DF16, size: 0x8, addend: 0x0, symName: __RNvXCsfieuf5LernF_9hashbrownNtNtCscwCr4GBBztI_3syn4expr6MemberINtB2_10EquivalentRBq_E10equivalentCs4u7P9VlF0C9_14thiserror_impl, symObjAddr: 0x4C00, symBinAddr: 0x34AA8, symSize: 0x50 }
  - { offset: 0x9DF87, size: 0x8, addend: 0x0, symName: __RNvXCsfieuf5LernF_9hashbrownRNtNtCscwCr4GBBztI_3syn4expr6MemberINtB2_10EquivalentBq_E10equivalentCs4u7P9VlF0C9_14thiserror_impl, symObjAddr: 0x4C50, symBinAddr: 0x34AF8, symSize: 0x50 }
  - { offset: 0x9E0D0, size: 0x8, addend: 0x0, symName: __RNvMNtNtNtCsfieuf5LernF_9hashbrown7control5group4neonNtB2_5Group10match_fullCs4u7P9VlF0C9_14thiserror_impl, symObjAddr: 0x25F8, symBinAddr: 0x324A0, symSize: 0x68 }
  - { offset: 0x9E108, size: 0x8, addend: 0x0, symName: __RNvMNtNtNtCsfieuf5LernF_9hashbrown7control5group4neonNtB2_5Group22match_empty_or_deletedCs4u7P9VlF0C9_14thiserror_impl, symObjAddr: 0x2660, symBinAddr: 0x32508, symSize: 0x68 }
  - { offset: 0x9E140, size: 0x8, addend: 0x0, symName: __RNvMNtNtNtCsfieuf5LernF_9hashbrown7control5group4neonNtB2_5Group44convert_special_to_empty_and_full_to_deletedCs4u7P9VlF0C9_14thiserror_impl, symObjAddr: 0x26C8, symBinAddr: 0x32570, symSize: 0x88 }
  - { offset: 0x9E178, size: 0x8, addend: 0x0, symName: __RNvMNtNtNtCsfieuf5LernF_9hashbrown7control5group4neonNtB2_5Group9match_tagCs4u7P9VlF0C9_14thiserror_impl, symObjAddr: 0x2750, symBinAddr: 0x325F8, symSize: 0x7C }
  - { offset: 0x9E1D3, size: 0x8, addend: 0x0, symName: __RNvMs3_NtCs4u7P9VlF0C9_14thiserror_impl3astNtNtB7_4attr5Attrs4span, symObjAddr: 0x27CC, symBinAddr: 0x32674, symSize: 0xEC }
  - { offset: 0x9E25D, size: 0x8, addend: 0x0, symName: __RNvXNtCshi3DZH3dfhk_5quote14ident_fragmentRNtNtCscwCr4GBBztI_3syn4expr5IndexNtB2_13IdentFragment3fmtCs4u7P9VlF0C9_14thiserror_impl, symObjAddr: 0x4FEC, symBinAddr: 0x34E94, symSize: 0x40 }
  - { offset: 0x9E2A0, size: 0x8, addend: 0x0, symName: __RNvXNtCshi3DZH3dfhk_5quote14ident_fragmentRNtNtCscwCr4GBBztI_3syn4expr5IndexNtB2_13IdentFragment4spanCs4u7P9VlF0C9_14thiserror_impl, symObjAddr: 0x502C, symBinAddr: 0x34ED4, symSize: 0x38 }
  - { offset: 0x9E2D5, size: 0x8, addend: 0x0, symName: __RNvXNtCshi3DZH3dfhk_5quote14ident_fragmentRRNtNtCscwCr4GBBztI_3syn4expr5IndexNtB2_13IdentFragment3fmtCs4u7P9VlF0C9_14thiserror_impl, symObjAddr: 0x5064, symBinAddr: 0x34F0C, symSize: 0x40 }
  - { offset: 0x9E318, size: 0x8, addend: 0x0, symName: __RNvXNtCshi3DZH3dfhk_5quote14ident_fragmentRRNtNtCscwCr4GBBztI_3syn4expr5IndexNtB2_13IdentFragment4spanCs4u7P9VlF0C9_14thiserror_impl, symObjAddr: 0x50A4, symBinAddr: 0x34F4C, symSize: 0x38 }
  - { offset: 0x9E359, size: 0x8, addend: 0x0, symName: __RNvXNtCshi3DZH3dfhk_5quote9to_tokensRNtNtCs4u7P9VlF0C9_14thiserror_impl4attr7DisplayNtB2_8ToTokens9to_tokensBD_, symObjAddr: 0x50DC, symBinAddr: 0x34F84, symSize: 0x40 }
  - { offset: 0x9E398, size: 0x8, addend: 0x0, symName: __RNvXNtCshi3DZH3dfhk_5quote9to_tokensRNtNtCscwCr4GBBztI_3syn4expr6MemberNtB2_8ToTokens9to_tokensCs4u7P9VlF0C9_14thiserror_impl, symObjAddr: 0x511C, symBinAddr: 0x34FC4, symSize: 0x40 }
  - { offset: 0x9E3D7, size: 0x8, addend: 0x0, symName: __RNvXNtCshi3DZH3dfhk_5quote9to_tokensRRNtNtCscwCr4GBBztI_3syn4attr9AttributeNtB2_8ToTokens9to_tokensCs4u7P9VlF0C9_14thiserror_impl, symObjAddr: 0x515C, symBinAddr: 0x35004, symSize: 0x40 }
  - { offset: 0x9E41C, size: 0x8, addend: 0x0, symName: __RNvYNtNtCs4u7P9VlF0C9_14thiserror_impl4attr5TraitNtNtCshi3DZH3dfhk_5quote9to_tokens8ToTokens15to_token_streamB6_, symObjAddr: 0x5FE8, symBinAddr: 0x35E90, symSize: 0x8C }
  - { offset: 0x9E466, size: 0x8, addend: 0x0, symName: __RNvYNtNtCs4u7P9VlF0C9_14thiserror_impl4attr7DisplayNtNtCshi3DZH3dfhk_5quote9to_tokens8ToTokens15to_token_streamB6_, symObjAddr: 0x60F8, symBinAddr: 0x35FA0, symSize: 0x8C }
  - { offset: 0x9E4B0, size: 0x8, addend: 0x0, symName: __RNvYRNtNtCscwCr4GBBztI_3syn4attr9AttributeNtNtCshi3DZH3dfhk_5quote9to_tokens8ToTokens15to_token_streamCs4u7P9VlF0C9_14thiserror_impl, symObjAddr: 0x6184, symBinAddr: 0x3602C, symSize: 0x8C }
  - { offset: 0x9E4FA, size: 0x8, addend: 0x0, symName: __RNvYRNtNtCscwCr4GBBztI_3syn4attr9AttributeNtNtCshi3DZH3dfhk_5quote9to_tokens8ToTokens17into_token_streamCs4u7P9VlF0C9_14thiserror_impl, symObjAddr: 0x6210, symBinAddr: 0x360B8, symSize: 0x54 }
  - { offset: 0x9E52F, size: 0x8, addend: 0x0, symName: __RNvYRRNtNtCscwCr4GBBztI_3syn4attr9AttributeNtNtCshi3DZH3dfhk_5quote9to_tokens8ToTokens15to_token_streamCs4u7P9VlF0C9_14thiserror_impl, symObjAddr: 0x6264, symBinAddr: 0x3610C, symSize: 0x8C }
  - { offset: 0x9E579, size: 0x8, addend: 0x0, symName: __RNvYRRNtNtCscwCr4GBBztI_3syn4attr9AttributeNtNtCshi3DZH3dfhk_5quote9to_tokens8ToTokens17into_token_streamCs4u7P9VlF0C9_14thiserror_impl, symObjAddr: 0x62F0, symBinAddr: 0x36198, symSize: 0x54 }
  - { offset: 0x9E5BF, size: 0x8, addend: 0x0, symName: __RNvYINtNtNtNtCs85QQFkKrybG_4core4iter8adapters10filter_map9FilterMapINtNtNtBb_5slice4iter4IterNtNtCs4u7P9VlF0C9_14thiserror_impl3ast7VariantENCNvNtB1y_6expand9impl_enums2_0ENtNtNtCshi3DZH3dfhk_5quote9___private3ext14RepIteratorExt15quote_into_iterB1y_, symObjAddr: 0x5FA8, symBinAddr: 0x35E50, symSize: 0x40 }
  - { offset: 0x9EB89, size: 0x8, addend: 0x0, symName: __RINvMsi_NtNtNtCsdFlNUEO95cG_5alloc11collections5btree3mapINtB6_8BTreeMapNtNtBc_6string6StringTINtNtB8_3set8BTreeSetB18_EINtNtCscwCr4GBBztI_3syn10punctuated10PunctuatedNtCsfwj6t2KTYdc_11proc_macro211TokenStreamNtNtB1Z_5token4PlusEEE3getB18_ECs4u7P9VlF0C9_14thiserror_impl, symObjAddr: 0x0, symBinAddr: 0x361EC, symSize: 0xD8 }
  - { offset: 0xA3B1A, size: 0x8, addend: 0x0, symName: __RINvNtCs85QQFkKrybG_4core9panicking13panic_displayNtNtCscwCr4GBBztI_3syn5error5ErrorECs4u7P9VlF0C9_14thiserror_impl, symObjAddr: 0x32C, symBinAddr: 0x36518, symSize: 0x88 }
  - { offset: 0xA3BEF, size: 0x8, addend: 0x0, symName: __RNvXsn_NtNtCs85QQFkKrybG_4core5panic11unwind_safeINtB5_16AssertUnwindSafeNCINvNtNtCs9bTl5rSDVcL_10proc_macro6bridge6client10run_clientNtB1e_11TokenStreamINtNtB9_6option6OptionB28_ENCNCINvMs6_B1e_INtB1e_6ClientNtB1i_11TokenStreamB3l_E7expand1NvCs4u7P9VlF0C9_14thiserror_impl12derive_errorE00E0EINtNtNtB9_3ops8function6FnOnceuE9call_onceB3T_, symObjAddr: 0x2A78, symBinAddr: 0x38C64, symSize: 0x38 }
  - { offset: 0xA3C72, size: 0x8, addend: 0x0, symName: __RNvMNtCs85QQFkKrybG_4core3stre12char_indicesCs4u7P9VlF0C9_14thiserror_impl, symObjAddr: 0xCCC, symBinAddr: 0x36EB8, symSize: 0x3C }
  - { offset: 0xA3CA0, size: 0x8, addend: 0x0, symName: __RNvMNtCs85QQFkKrybG_4core3stre3lenCs4u7P9VlF0C9_14thiserror_impl, symObjAddr: 0xD08, symBinAddr: 0x36EF4, symSize: 0x1C }
  - { offset: 0xA3CCC, size: 0x8, addend: 0x0, symName: __RNvMNtCs85QQFkKrybG_4core3stre5charsCs4u7P9VlF0C9_14thiserror_impl, symObjAddr: 0xD24, symBinAddr: 0x36F10, symSize: 0x20 }
  - { offset: 0xA400A, size: 0x8, addend: 0x0, symName: __RNvYINtNtNtNtCsdFlNUEO95cG_5alloc11collections5btree3map8BTreeMapTjNtNtCs4u7P9VlF0C9_14thiserror_impl4attr5TraitENtNtB7_7set_val9SetValZSTENtNtCs85QQFkKrybG_4core5clone5Clone10clone_fromB17_, symObjAddr: 0x36FC, symBinAddr: 0x398E8, symSize: 0x84 }
  - { offset: 0xA445D, size: 0x8, addend: 0x0, symName: __RNvXNtNtCs9bTl5rSDVcL_10proc_macro6bridge3rpcuINtB2_6EncodeuE6encodeCs4u7P9VlF0C9_14thiserror_impl, symObjAddr: 0x212C, symBinAddr: 0x38318, symSize: 0x14 }
  - { offset: 0xA44D6, size: 0x8, addend: 0x0, symName: __RNvXsa_NtNtCs9bTl5rSDVcL_10proc_macro6bridge3rpcRShINtB5_6EncodeuE6encodeCs4u7P9VlF0C9_14thiserror_impl, symObjAddr: 0x283C, symBinAddr: 0x38A28, symSize: 0xD8 }
  - { offset: 0xA45DC, size: 0x8, addend: 0x0, symName: __RNvXsc_NtNtCs9bTl5rSDVcL_10proc_macro6bridge3rpcReINtB5_6EncodeuE6encodeCs4u7P9VlF0C9_14thiserror_impl, symObjAddr: 0x2914, symBinAddr: 0x38B00, symSize: 0x38 }
  - { offset: 0xA46C4, size: 0x8, addend: 0x0, symName: __RNvXsl_NtNtCs9bTl5rSDVcL_10proc_macro6bridge3rpcNtB5_12PanicMessageINtB5_6EncodeuE6encodeCs4u7P9VlF0C9_14thiserror_impl, symObjAddr: 0x294C, symBinAddr: 0x38B38, symSize: 0x12C }
  - { offset: 0xA4892, size: 0x8, addend: 0x0, symName: __RNvXso_NtNtCs9bTl5rSDVcL_10proc_macro6bridge3rpcmINtB5_9DecodeMutuE6decodeCs4u7P9VlF0C9_14thiserror_impl, symObjAddr: 0x2AB0, symBinAddr: 0x38C9C, symSize: 0xFC }
  - { offset: 0xA72A6, size: 0x8, addend: 0x0, symName: __RINvNvXs0_NtNtNtCsdFlNUEO95cG_5alloc11collections5btree3mapINtB8_8BTreeMappppENtNtCs85QQFkKrybG_4core5clone5Clone5clone13clone_subtreeTjNtNtCs4u7P9VlF0C9_14thiserror_impl4attr5TraitENtNtBa_7set_val9SetValZSTNtNtBe_5alloc6GlobalEB2e_, symObjAddr: 0x3B4, symBinAddr: 0x365A0, symSize: 0x918 }
  - { offset: 0xA7A7A, size: 0x8, addend: 0x0, symName: __RNvXs0_NtNtNtCsdFlNUEO95cG_5alloc11collections5btree3mapINtB5_8BTreeMapTjNtNtCs4u7P9VlF0C9_14thiserror_impl4attr5TraitENtNtB7_7set_val9SetValZSTENtNtCs85QQFkKrybG_4core5clone5Clone5cloneB1d_, symObjAddr: 0x24B0, symBinAddr: 0x3869C, symSize: 0xF4 }
  - { offset: 0xA8605, size: 0x8, addend: 0x0, symName: __RNvXNtNtNtCsdFlNUEO95cG_5alloc11collections5btree3mapINtB2_8BTreeMapNtCsfwj6t2KTYdc_11proc_macro25IdentNtNtB4_7set_val9SetValZSTENtNtNtCs85QQFkKrybG_4core3ops4drop4Drop4dropCs4u7P9VlF0C9_14thiserror_impl, symObjAddr: 0x2140, symBinAddr: 0x3832C, symSize: 0x4C }
  - { offset: 0xA8682, size: 0x8, addend: 0x0, symName: __RNvXNtNtNtCsdFlNUEO95cG_5alloc11collections5btree3mapINtB2_8BTreeMapNtNtB8_6string6StringNtNtB4_7set_val9SetValZSTENtNtNtCs85QQFkKrybG_4core3ops4drop4Drop4dropCs4u7P9VlF0C9_14thiserror_impl, symObjAddr: 0x218C, symBinAddr: 0x38378, symSize: 0x4C }
  - { offset: 0xA86FF, size: 0x8, addend: 0x0, symName: __RNvXNtNtNtCsdFlNUEO95cG_5alloc11collections5btree3mapINtB2_8BTreeMapNtNtB8_6string6StringTINtNtB4_3set8BTreeSetB14_EINtNtCscwCr4GBBztI_3syn10punctuated10PunctuatedNtCsfwj6t2KTYdc_11proc_macro211TokenStreamNtNtB1V_5token4PlusEEENtNtNtCs85QQFkKrybG_4core3ops4drop4Drop4dropCs4u7P9VlF0C9_14thiserror_impl, symObjAddr: 0x21D8, symBinAddr: 0x383C4, symSize: 0x4C }
  - { offset: 0xA877C, size: 0x8, addend: 0x0, symName: __RNvXNtNtNtCsdFlNUEO95cG_5alloc11collections5btree3mapINtB2_8BTreeMapRNtCsfwj6t2KTYdc_11proc_macro25IdentNtNtB4_7set_val9SetValZSTENtNtNtCs85QQFkKrybG_4core3ops4drop4Drop4dropCs4u7P9VlF0C9_14thiserror_impl, symObjAddr: 0x2224, symBinAddr: 0x38410, symSize: 0x4C }
  - { offset: 0xA87F9, size: 0x8, addend: 0x0, symName: __RNvXNtNtNtCsdFlNUEO95cG_5alloc11collections5btree3mapINtB2_8BTreeMapTjNtNtCs4u7P9VlF0C9_14thiserror_impl4attr5TraitENtNtB4_7set_val9SetValZSTENtNtNtCs85QQFkKrybG_4core3ops4drop4Drop4dropB1a_, symObjAddr: 0x2270, symBinAddr: 0x3845C, symSize: 0x4C }
  - { offset: 0xA8886, size: 0x8, addend: 0x0, symName: __RNvXNvXsw_NtNtNtCsdFlNUEO95cG_5alloc11collections5btree3mapINtB8_8IntoIterpppENtNtNtCs85QQFkKrybG_4core3ops4drop4Drop4dropINtB2_9DropGuardNtCsfwj6t2KTYdc_11proc_macro25IdentNtNtBa_7set_val9SetValZSTNtNtBe_5alloc6GlobalEB1e_4dropCs4u7P9VlF0C9_14thiserror_impl, symObjAddr: 0x22BC, symBinAddr: 0x384A8, symSize: 0x64 }
  - { offset: 0xA88E9, size: 0x8, addend: 0x0, symName: __RNvXNvXsw_NtNtNtCsdFlNUEO95cG_5alloc11collections5btree3mapINtB8_8IntoIterpppENtNtNtCs85QQFkKrybG_4core3ops4drop4Drop4dropINtB2_9DropGuardNtNtBe_6string6StringNtNtBa_7set_val9SetValZSTNtNtBe_5alloc6GlobalEB1e_4dropCs4u7P9VlF0C9_14thiserror_impl, symObjAddr: 0x2320, symBinAddr: 0x3850C, symSize: 0x64 }
  - { offset: 0xA894C, size: 0x8, addend: 0x0, symName: __RNvXNvXsw_NtNtNtCsdFlNUEO95cG_5alloc11collections5btree3mapINtB8_8IntoIterpppENtNtNtCs85QQFkKrybG_4core3ops4drop4Drop4dropINtB2_9DropGuardNtNtBe_6string6StringTINtNtBa_3set8BTreeSetB2c_EINtNtCscwCr4GBBztI_3syn10punctuated10PunctuatedNtCsfwj6t2KTYdc_11proc_macro211TokenStreamNtNtB33_5token4PlusEENtNtBe_5alloc6GlobalEB1e_4dropCs4u7P9VlF0C9_14thiserror_impl, symObjAddr: 0x2384, symBinAddr: 0x38570, symSize: 0x64 }
  - { offset: 0xA89AF, size: 0x8, addend: 0x0, symName: __RNvXNvXsw_NtNtNtCsdFlNUEO95cG_5alloc11collections5btree3mapINtB8_8IntoIterpppENtNtNtCs85QQFkKrybG_4core3ops4drop4Drop4dropINtB2_9DropGuardRNtCsfwj6t2KTYdc_11proc_macro25IdentNtNtBa_7set_val9SetValZSTNtNtBe_5alloc6GlobalEB1e_4dropCs4u7P9VlF0C9_14thiserror_impl, symObjAddr: 0x23E8, symBinAddr: 0x385D4, symSize: 0x64 }
  - { offset: 0xA8A12, size: 0x8, addend: 0x0, symName: __RNvXNvXsw_NtNtNtCsdFlNUEO95cG_5alloc11collections5btree3mapINtB8_8IntoIterpppENtNtNtCs85QQFkKrybG_4core3ops4drop4Drop4dropINtB2_9DropGuardTjNtNtCs4u7P9VlF0C9_14thiserror_impl4attr5TraitENtNtBa_7set_val9SetValZSTNtNtBe_5alloc6GlobalEB1e_4dropB2i_, symObjAddr: 0x244C, symBinAddr: 0x38638, symSize: 0x64 }
  - { offset: 0xA8B67, size: 0x8, addend: 0x0, symName: __RNvXsw_NtNtNtCsdFlNUEO95cG_5alloc11collections5btree3mapINtB5_8IntoIterNtCsfwj6t2KTYdc_11proc_macro25IdentNtNtB7_7set_val9SetValZSTENtNtNtCs85QQFkKrybG_4core3ops4drop4Drop4dropCs4u7P9VlF0C9_14thiserror_impl, symObjAddr: 0x337C, symBinAddr: 0x39568, symSize: 0x9C }
  - { offset: 0xA8BD8, size: 0x8, addend: 0x0, symName: __RNvXsw_NtNtNtCsdFlNUEO95cG_5alloc11collections5btree3mapINtB5_8IntoIterNtNtBb_6string6StringNtNtB7_7set_val9SetValZSTENtNtNtCs85QQFkKrybG_4core3ops4drop4Drop4dropCs4u7P9VlF0C9_14thiserror_impl, symObjAddr: 0x3418, symBinAddr: 0x39604, symSize: 0x9C }
  - { offset: 0xA8C49, size: 0x8, addend: 0x0, symName: __RNvXsw_NtNtNtCsdFlNUEO95cG_5alloc11collections5btree3mapINtB5_8IntoIterNtNtBb_6string6StringTINtNtB7_3set8BTreeSetB17_EINtNtCscwCr4GBBztI_3syn10punctuated10PunctuatedNtCsfwj6t2KTYdc_11proc_macro211TokenStreamNtNtB1Y_5token4PlusEEENtNtNtCs85QQFkKrybG_4core3ops4drop4Drop4dropCs4u7P9VlF0C9_14thiserror_impl, symObjAddr: 0x34B4, symBinAddr: 0x396A0, symSize: 0x9C }
  - { offset: 0xA8CBA, size: 0x8, addend: 0x0, symName: __RNvXsw_NtNtNtCsdFlNUEO95cG_5alloc11collections5btree3mapINtB5_8IntoIterRNtCsfwj6t2KTYdc_11proc_macro25IdentNtNtB7_7set_val9SetValZSTENtNtNtCs85QQFkKrybG_4core3ops4drop4Drop4dropCs4u7P9VlF0C9_14thiserror_impl, symObjAddr: 0x3550, symBinAddr: 0x3973C, symSize: 0x9C }
  - { offset: 0xA8D2B, size: 0x8, addend: 0x0, symName: __RNvXsw_NtNtNtCsdFlNUEO95cG_5alloc11collections5btree3mapINtB5_8IntoIterTjNtNtCs4u7P9VlF0C9_14thiserror_impl4attr5TraitENtNtB7_7set_val9SetValZSTENtNtNtCs85QQFkKrybG_4core3ops4drop4Drop4dropB1d_, symObjAddr: 0x35EC, symBinAddr: 0x397D8, symSize: 0x9C }
  - { offset: 0xA8DA2, size: 0x8, addend: 0x0, symName: __RNvXs1q_NtNtNtCsdFlNUEO95cG_5alloc11collections5btree3mapINtB6_8BTreeMapNtNtBc_6string6StringTINtNtB8_3set8BTreeSetB18_EINtNtCscwCr4GBBztI_3syn10punctuated10PunctuatedNtCsfwj6t2KTYdc_11proc_macro211TokenStreamNtNtB1Z_5token4PlusEEEINtNtNtCs85QQFkKrybG_4core3ops5index5IndexRB18_E5indexCs4u7P9VlF0C9_14thiserror_impl, symObjAddr: 0x270C, symBinAddr: 0x388F8, symSize: 0x7C }
  - { offset: 0xA8E27, size: 0x8, addend: 0x0, symName: __RNvXsv_NtNtNtCsdFlNUEO95cG_5alloc11collections5btree3mapINtB5_8BTreeMapNtCsfwj6t2KTYdc_11proc_macro25IdentNtNtB7_7set_val9SetValZSTENtNtNtNtCs85QQFkKrybG_4core4iter6traits7collect12IntoIterator9into_iterCs4u7P9VlF0C9_14thiserror_impl, symObjAddr: 0x2BAC, symBinAddr: 0x38D98, symSize: 0x190 }
  - { offset: 0xA8F9F, size: 0x8, addend: 0x0, symName: __RNvXsv_NtNtNtCsdFlNUEO95cG_5alloc11collections5btree3mapINtB5_8BTreeMapNtNtBb_6string6StringNtNtB7_7set_val9SetValZSTENtNtNtNtCs85QQFkKrybG_4core4iter6traits7collect12IntoIterator9into_iterCs4u7P9VlF0C9_14thiserror_impl, symObjAddr: 0x2D3C, symBinAddr: 0x38F28, symSize: 0x190 }
  - { offset: 0xA9117, size: 0x8, addend: 0x0, symName: __RNvXsv_NtNtNtCsdFlNUEO95cG_5alloc11collections5btree3mapINtB5_8BTreeMapNtNtBb_6string6StringTINtNtB7_3set8BTreeSetB17_EINtNtCscwCr4GBBztI_3syn10punctuated10PunctuatedNtCsfwj6t2KTYdc_11proc_macro211TokenStreamNtNtB1Y_5token4PlusEEENtNtNtNtCs85QQFkKrybG_4core4iter6traits7collect12IntoIterator9into_iterCs4u7P9VlF0C9_14thiserror_impl, symObjAddr: 0x2ECC, symBinAddr: 0x390B8, symSize: 0x190 }
  - { offset: 0xA928F, size: 0x8, addend: 0x0, symName: __RNvXsv_NtNtNtCsdFlNUEO95cG_5alloc11collections5btree3mapINtB5_8BTreeMapRNtCsfwj6t2KTYdc_11proc_macro25IdentNtNtB7_7set_val9SetValZSTENtNtNtNtCs85QQFkKrybG_4core4iter6traits7collect12IntoIterator9into_iterCs4u7P9VlF0C9_14thiserror_impl, symObjAddr: 0x305C, symBinAddr: 0x39248, symSize: 0x190 }
  - { offset: 0xA9407, size: 0x8, addend: 0x0, symName: __RNvXsv_NtNtNtCsdFlNUEO95cG_5alloc11collections5btree3mapINtB5_8BTreeMapTjNtNtCs4u7P9VlF0C9_14thiserror_impl4attr5TraitENtNtB7_7set_val9SetValZSTENtNtNtNtCs85QQFkKrybG_4core4iter6traits7collect12IntoIterator9into_iterB1d_, symObjAddr: 0x31EC, symBinAddr: 0x393D8, symSize: 0x190 }
  - { offset: 0xA95CB, size: 0x8, addend: 0x0, symName: __RNvXsy_NtNtNtCsdFlNUEO95cG_5alloc11collections5btree3mapINtB5_8IntoIterTjNtNtCs4u7P9VlF0C9_14thiserror_impl4attr5TraitENtNtB7_7set_val9SetValZSTENtNtNtNtCs85QQFkKrybG_4core4iter6traits8iterator8Iterator4nextB1d_, symObjAddr: 0x3688, symBinAddr: 0x39874, symSize: 0x74 }
  - { offset: 0xAA64C, size: 0x8, addend: 0x0, symName: __RNvXs_NtCsdFlNUEO95cG_5alloc5allocNtB4_6GlobalNtNtCs85QQFkKrybG_4core5alloc9Allocator10deallocateCs4u7P9VlF0C9_14thiserror_impl, symObjAddr: 0x2788, symBinAddr: 0x38974, symSize: 0x80 }
  - { offset: 0xAA713, size: 0x8, addend: 0x0, symName: __RNvXs_NtCsdFlNUEO95cG_5alloc5allocNtB4_6GlobalNtNtCs85QQFkKrybG_4core5alloc9Allocator8allocateCs4u7P9VlF0C9_14thiserror_impl, symObjAddr: 0x2808, symBinAddr: 0x389F4, symSize: 0x34 }
  - { offset: 0xAA74E, size: 0x8, addend: 0x0, symName: __RNvNtCsdFlNUEO95cG_5alloc5alloc15exchange_mallocCs4u7P9VlF0C9_14thiserror_impl, symObjAddr: 0x2080, symBinAddr: 0x3826C, symSize: 0xAC }
  - { offset: 0xAA7EA, size: 0x8, addend: 0x0, symName: __RNvXs1_NtCsdFlNUEO95cG_5alloc5allocNtB5_6GlobalNtNtCs85QQFkKrybG_4core5clone5Clone5cloneCs4u7P9VlF0C9_14thiserror_impl, symObjAddr: 0x25A4, symBinAddr: 0x38790, symSize: 0x10 }
  - { offset: 0xAAA98, size: 0x8, addend: 0x0, symName: __RNvXs1_NtCsdFlNUEO95cG_5alloc7raw_vecINtB5_6RawVecNtCsfwj6t2KTYdc_11proc_macro211TokenStreamENtNtNtCs85QQFkKrybG_4core3ops4drop4Drop4dropCs4u7P9VlF0C9_14thiserror_impl, symObjAddr: 0x25B4, symBinAddr: 0x387A0, symSize: 0x34 }
  - { offset: 0xAAAD4, size: 0x8, addend: 0x0, symName: __RNvXs1_NtCsdFlNUEO95cG_5alloc7raw_vecINtB5_6RawVecNtNtCs4u7P9VlF0C9_14thiserror_impl3ast5FieldENtNtNtCs85QQFkKrybG_4core3ops4drop4Drop4dropBQ_, symObjAddr: 0x25E8, symBinAddr: 0x387D4, symSize: 0x34 }
  - { offset: 0xAAB10, size: 0x8, addend: 0x0, symName: __RNvXs1_NtCsdFlNUEO95cG_5alloc7raw_vecINtB5_6RawVecNtNtCs4u7P9VlF0C9_14thiserror_impl3ast7VariantENtNtNtCs85QQFkKrybG_4core3ops4drop4Drop4dropBQ_, symObjAddr: 0x261C, symBinAddr: 0x38808, symSize: 0x34 }
  - { offset: 0xAAB4C, size: 0x8, addend: 0x0, symName: __RNvXs1_NtCsdFlNUEO95cG_5alloc7raw_vecINtB5_6RawVecRNtCsfwj6t2KTYdc_11proc_macro25IdentENtNtNtCs85QQFkKrybG_4core3ops4drop4Drop4dropCs4u7P9VlF0C9_14thiserror_impl, symObjAddr: 0x2650, symBinAddr: 0x3883C, symSize: 0x30 }
  - { offset: 0xAAB88, size: 0x8, addend: 0x0, symName: __RNvXs1_NtCsdFlNUEO95cG_5alloc7raw_vecINtB5_6RawVecTNtCsfwj6t2KTYdc_11proc_macro211TokenStreamNtNtCscwCr4GBBztI_3syn5token4PlusEENtNtNtCs85QQFkKrybG_4core3ops4drop4Drop4dropCs4u7P9VlF0C9_14thiserror_impl, symObjAddr: 0x2680, symBinAddr: 0x3886C, symSize: 0x34 }
  - { offset: 0xB01A5, size: 0x8, addend: 0x0, symName: __RINvMsi_NtNtNtCsdFlNUEO95cG_5alloc11collections5btree3mapINtB6_8BTreeMapNtNtBc_6string6StringTINtNtB8_3set8BTreeSetB18_EINtNtCscwCr4GBBztI_3syn10punctuated10PunctuatedNtCsfwj6t2KTYdc_11proc_macro211TokenStreamNtNtB1Z_5token4PlusEEE3getB18_ECs4u7P9VlF0C9_14thiserror_impl, symObjAddr: 0x0, symBinAddr: 0x361EC, symSize: 0xD8 }
  - { offset: 0xB0490, size: 0x8, addend: 0x0, symName: __RINvMsi_NtNtNtCsdFlNUEO95cG_5alloc11collections5btree3mapINtB6_8BTreeMapRNtCsfwj6t2KTYdc_11proc_macro25IdentNtNtB8_7set_val9SetValZSTE27bulk_build_from_sorted_iterINtNtNtNtCs85QQFkKrybG_4core4iter8adapters3map3MapINtNtNtBc_3vec9into_iter8IntoIterB18_ENCINvMse_NtB8_3setINtB4a_8BTreeSetB18_E16from_sorted_iterB3p_E0EECs4u7P9VlF0C9_14thiserror_impl, symObjAddr: 0xD8, symBinAddr: 0x362C4, symSize: 0x17C }
  - { offset: 0xB065F, size: 0x8, addend: 0x0, symName: __RINvMsi_NtNtNtCsdFlNUEO95cG_5alloc11collections5btree3mapINtB6_8BTreeMapRNtCsfwj6t2KTYdc_11proc_macro25IdentNtNtB8_7set_val9SetValZSTE3getB19_ECs4u7P9VlF0C9_14thiserror_impl, symObjAddr: 0x254, symBinAddr: 0x36440, symSize: 0xD8 }
  - { offset: 0xB1239, size: 0x8, addend: 0x0, symName: __RNvMNtCsdFlNUEO95cG_5alloc5allocNtB2_6Global10alloc_implCs4u7P9VlF0C9_14thiserror_impl, symObjAddr: 0xD44, symBinAddr: 0x36F30, symSize: 0x1FC }
  - { offset: 0xB161D, size: 0x8, addend: 0x0, symName: __RNvMs0_NtCsdFlNUEO95cG_5alloc7raw_vecINtB5_6RawVecNtCsfwj6t2KTYdc_11proc_macro211TokenStreamE8grow_oneCs4u7P9VlF0C9_14thiserror_impl, symObjAddr: 0xF40, symBinAddr: 0x3712C, symSize: 0x90 }
  - { offset: 0xB16CF, size: 0x8, addend: 0x0, symName: __RNvMs0_NtCsdFlNUEO95cG_5alloc7raw_vecINtB5_6RawVecTNtCsfwj6t2KTYdc_11proc_macro211TokenStreamNtNtCscwCr4GBBztI_3syn5token4PlusEE8grow_oneCs4u7P9VlF0C9_14thiserror_impl, symObjAddr: 0xFD0, symBinAddr: 0x371BC, symSize: 0x90 }
  - { offset: 0xB173C, size: 0x8, addend: 0x0, symName: __RNvMsg_NtNtNtCsdFlNUEO95cG_5alloc11collections5btree3mapINtB5_8BTreeMapNtNtBb_6string6StringTINtNtB7_3set8BTreeSetB17_EINtNtCscwCr4GBBztI_3syn10punctuated10PunctuatedNtCsfwj6t2KTYdc_11proc_macro211TokenStreamNtNtB1Y_5token4PlusEEE3newCs4u7P9VlF0C9_14thiserror_impl, symObjAddr: 0x1060, symBinAddr: 0x3724C, symSize: 0x24 }
  - { offset: 0xB1869, size: 0x8, addend: 0x0, symName: __RNvMsi_NtNtNtCsdFlNUEO95cG_5alloc11collections5btree3mapINtB5_8BTreeMapNtCsfwj6t2KTYdc_11proc_macro25IdentNtNtB7_7set_val9SetValZSTE5entryCs4u7P9VlF0C9_14thiserror_impl, symObjAddr: 0x1084, symBinAddr: 0x37270, symSize: 0x27C }
  - { offset: 0xB1A0A, size: 0x8, addend: 0x0, symName: __RNvMsi_NtNtNtCsdFlNUEO95cG_5alloc11collections5btree3mapINtB5_8BTreeMapNtCsfwj6t2KTYdc_11proc_macro25IdentNtNtB7_7set_val9SetValZSTE6insertCs4u7P9VlF0C9_14thiserror_impl, symObjAddr: 0x1300, symBinAddr: 0x374EC, symSize: 0x11C }
  - { offset: 0xB1B5F, size: 0x8, addend: 0x0, symName: __RNvMsi_NtNtNtCsdFlNUEO95cG_5alloc11collections5btree3mapINtB5_8BTreeMapNtNtBb_6string6StringNtNtB7_7set_val9SetValZSTE5entryCs4u7P9VlF0C9_14thiserror_impl, symObjAddr: 0x141C, symBinAddr: 0x37608, symSize: 0x27C }
  - { offset: 0xB1CF3, size: 0x8, addend: 0x0, symName: __RNvMsi_NtNtNtCsdFlNUEO95cG_5alloc11collections5btree3mapINtB5_8BTreeMapNtNtBb_6string6StringNtNtB7_7set_val9SetValZSTE6insertCs4u7P9VlF0C9_14thiserror_impl, symObjAddr: 0x1698, symBinAddr: 0x37884, symSize: 0x124 }
  - { offset: 0xB1E48, size: 0x8, addend: 0x0, symName: __RNvMsi_NtNtNtCsdFlNUEO95cG_5alloc11collections5btree3mapINtB5_8BTreeMapNtNtBb_6string6StringTINtNtB7_3set8BTreeSetB17_EINtNtCscwCr4GBBztI_3syn10punctuated10PunctuatedNtCsfwj6t2KTYdc_11proc_macro211TokenStreamNtNtB1Y_5token4PlusEEE5entryCs4u7P9VlF0C9_14thiserror_impl, symObjAddr: 0x17BC, symBinAddr: 0x379A8, symSize: 0x27C }
  - { offset: 0xB2030, size: 0x8, addend: 0x0, symName: __RNvMsi_NtNtNtCsdFlNUEO95cG_5alloc11collections5btree3mapINtB5_8BTreeMapTjNtNtCs4u7P9VlF0C9_14thiserror_impl4attr5TraitENtNtB7_7set_val9SetValZSTE5entryB1d_, symObjAddr: 0x1A38, symBinAddr: 0x37C24, symSize: 0x254 }
  - { offset: 0xB21C3, size: 0x8, addend: 0x0, symName: __RNvMsi_NtNtNtCsdFlNUEO95cG_5alloc11collections5btree3mapINtB5_8BTreeMapTjNtNtCs4u7P9VlF0C9_14thiserror_impl4attr5TraitENtNtB7_7set_val9SetValZSTE6insertB1d_, symObjAddr: 0x1C8C, symBinAddr: 0x37E78, symSize: 0x124 }
  - { offset: 0xB22C5, size: 0x8, addend: 0x0, symName: __RNvMsx_NtNtNtCsdFlNUEO95cG_5alloc11collections5btree3mapINtB5_8IntoIterNtCsfwj6t2KTYdc_11proc_macro25IdentNtNtB7_7set_val9SetValZSTE10dying_nextCs4u7P9VlF0C9_14thiserror_impl, symObjAddr: 0x1DB0, symBinAddr: 0x37F9C, symSize: 0x90 }
  - { offset: 0xB2310, size: 0x8, addend: 0x0, symName: __RNvMsx_NtNtNtCsdFlNUEO95cG_5alloc11collections5btree3mapINtB5_8IntoIterNtNtBb_6string6StringNtNtB7_7set_val9SetValZSTE10dying_nextCs4u7P9VlF0C9_14thiserror_impl, symObjAddr: 0x1E40, symBinAddr: 0x3802C, symSize: 0x90 }
  - { offset: 0xB235B, size: 0x8, addend: 0x0, symName: __RNvMsx_NtNtNtCsdFlNUEO95cG_5alloc11collections5btree3mapINtB5_8IntoIterNtNtBb_6string6StringTINtNtB7_3set8BTreeSetB17_EINtNtCscwCr4GBBztI_3syn10punctuated10PunctuatedNtCsfwj6t2KTYdc_11proc_macro211TokenStreamNtNtB1Y_5token4PlusEEE10dying_nextCs4u7P9VlF0C9_14thiserror_impl, symObjAddr: 0x1ED0, symBinAddr: 0x380BC, symSize: 0x90 }
  - { offset: 0xB23A6, size: 0x8, addend: 0x0, symName: __RNvMsx_NtNtNtCsdFlNUEO95cG_5alloc11collections5btree3mapINtB5_8IntoIterRNtCsfwj6t2KTYdc_11proc_macro25IdentNtNtB7_7set_val9SetValZSTE10dying_nextCs4u7P9VlF0C9_14thiserror_impl, symObjAddr: 0x1F60, symBinAddr: 0x3814C, symSize: 0x90 }
  - { offset: 0xB23F1, size: 0x8, addend: 0x0, symName: __RNvMsx_NtNtNtCsdFlNUEO95cG_5alloc11collections5btree3mapINtB5_8IntoIterTjNtNtCs4u7P9VlF0C9_14thiserror_impl4attr5TraitENtNtB7_7set_val9SetValZSTE10dying_nextB1d_, symObjAddr: 0x1FF0, symBinAddr: 0x381DC, symSize: 0x90 }
  - { offset: 0xB25A6, size: 0x8, addend: 0x0, symName: __RNvXs1_NtCsfieuf5LernF_9hashbrown10scopeguardINtB5_10ScopeGuardNtNtB7_3raw13RawTableInnerNCINvMsa_B11_BZ_14prepare_resizeNtNtCsdFlNUEO95cG_5alloc5alloc6GlobalE0ENtNtNtCs85QQFkKrybG_4core3ops4drop4Drop4dropCs4u7P9VlF0C9_14thiserror_impl, symObjAddr: 0x26B4, symBinAddr: 0x388A0, symSize: 0x2C }
  - { offset: 0xB25E0, size: 0x8, addend: 0x0, symName: __RNvXs1_NtCsfieuf5LernF_9hashbrown10scopeguardINtB5_10ScopeGuardQNtNtB7_3raw13RawTableInnerNCNvMsa_B12_B10_15rehash_in_place0ENtNtNtCs85QQFkKrybG_4core3ops4drop4Drop4dropCs4u7P9VlF0C9_14thiserror_impl, symObjAddr: 0x26E0, symBinAddr: 0x388CC, symSize: 0x2C }
  - { offset: 0xB336A, size: 0x8, addend: 0x0, symName: __RINvMs0_NtNtNtCswz7ZwgBZOU_3std11collections4hash3mapINtB6_7HashMapRNtNtCscwCr4GBBztI_3syn4expr6MemberjE12contains_keyB14_ECs4u7P9VlF0C9_14thiserror_impl, symObjAddr: 0x0, symBinAddr: 0x3996C, symSize: 0x54 }
  - { offset: 0xB3862, size: 0x8, addend: 0x0, symName: __RNCNCNvXst_NtCscwCr4GBBztI_3syn10punctuatedINtB9_11PrivateIterNtNtBb_4data7VariantNtNtBb_5token5CommaENtNtNtNtCs85QQFkKrybG_4core4iter6traits12double_ended19DoubleEndedIterator9next_back00Cs4u7P9VlF0C9_14thiserror_impl, symObjAddr: 0xD1C, symBinAddr: 0x3A548, symSize: 0x14 }
  - { offset: 0xB38AD, size: 0x8, addend: 0x0, symName: __RNCNCNvXst_NtCscwCr4GBBztI_3syn10punctuatedINtB9_11PrivateIterNtNtBb_4path15GenericArgumentNtNtBb_5token5CommaENtNtNtNtCs85QQFkKrybG_4core4iter6traits12double_ended19DoubleEndedIterator9next_back00Cs4u7P9VlF0C9_14thiserror_impl, symObjAddr: 0xD30, symBinAddr: 0x3A55C, symSize: 0x14 }
  - { offset: 0xB3907, size: 0x8, addend: 0x0, symName: __RNCNvXst_NtCscwCr4GBBztI_3syn10punctuatedINtB7_11PrivateIterNtNtB9_4data7VariantNtNtB9_5token5CommaENtNtNtNtCs85QQFkKrybG_4core4iter6traits12double_ended19DoubleEndedIterator9next_back0Cs4u7P9VlF0C9_14thiserror_impl, symObjAddr: 0xEC8, symBinAddr: 0x3A6F4, symSize: 0x38 }
  - { offset: 0xB3949, size: 0x8, addend: 0x0, symName: __RNCNvXst_NtCscwCr4GBBztI_3syn10punctuatedINtB7_11PrivateIterNtNtB9_4path15GenericArgumentNtNtB9_5token5CommaENtNtNtNtCs85QQFkKrybG_4core4iter6traits12double_ended19DoubleEndedIterator9next_back0Cs4u7P9VlF0C9_14thiserror_impl, symObjAddr: 0xF00, symBinAddr: 0x3A72C, symSize: 0x38 }
  - { offset: 0xB398C, size: 0x8, addend: 0x0, symName: __RNvXst_NtCscwCr4GBBztI_3syn10punctuatedINtB5_11PrivateIterNtNtB7_4data7VariantNtNtB7_5token5CommaENtNtNtNtCs85QQFkKrybG_4core4iter6traits12double_ended19DoubleEndedIterator9next_backCs4u7P9VlF0C9_14thiserror_impl, symObjAddr: 0x3518, symBinAddr: 0x3CD40, symSize: 0x40 }
  - { offset: 0xB39CC, size: 0x8, addend: 0x0, symName: __RNvXst_NtCscwCr4GBBztI_3syn10punctuatedINtB5_11PrivateIterNtNtB7_4path15GenericArgumentNtNtB7_5token5CommaENtNtNtNtCs85QQFkKrybG_4core4iter6traits12double_ended19DoubleEndedIterator9next_backCs4u7P9VlF0C9_14thiserror_impl, symObjAddr: 0x3558, symBinAddr: 0x3CD80, symSize: 0x40 }
  - { offset: 0xB3A17, size: 0x8, addend: 0x0, symName: __RNCNvXs8_NtCscwCr4GBBztI_3syn10punctuatedINtB7_5PairsNtCsfwj6t2KTYdc_11proc_macro211TokenStreamNtNtB9_5token4PlusENtNtNtNtCs85QQFkKrybG_4core4iter6traits8iterator8Iterator4next0Cs4u7P9VlF0C9_14thiserror_impl, symObjAddr: 0xDB8, symBinAddr: 0x3A5E4, symSize: 0x40 }
  - { offset: 0xB3A8C, size: 0x8, addend: 0x0, symName: __RNCNvXs8_NtCscwCr4GBBztI_3syn10punctuatedINtB7_5PairsNtCsfwj6t2KTYdc_11proc_macro211TokenStreamNtNtB9_5token4PlusENtNtNtNtCs85QQFkKrybG_4core4iter6traits8iterator8Iterator4nexts_0Cs4u7P9VlF0C9_14thiserror_impl, symObjAddr: 0xDF8, symBinAddr: 0x3A624, symSize: 0x40 }
  - { offset: 0xB3AD6, size: 0x8, addend: 0x0, symName: __RNvXs8_NtCscwCr4GBBztI_3syn10punctuatedINtB5_5PairsNtCsfwj6t2KTYdc_11proc_macro211TokenStreamNtNtB7_5token4PlusENtNtNtNtCs85QQFkKrybG_4core4iter6traits8iterator8Iterator4nextCs4u7P9VlF0C9_14thiserror_impl, symObjAddr: 0x2B18, symBinAddr: 0x3C340, symSize: 0x58 }
  - { offset: 0xB3B21, size: 0x8, addend: 0x0, symName: __RNCNvXss_NtCscwCr4GBBztI_3syn10punctuatedINtB7_11PrivateIterNtNtB9_4data7VariantNtNtB9_5token5CommaENtNtNtNtCs85QQFkKrybG_4core4iter6traits8iterator8Iterator4next0Cs4u7P9VlF0C9_14thiserror_impl, symObjAddr: 0xE38, symBinAddr: 0x3A664, symSize: 0x14 }
  - { offset: 0xB3B6C, size: 0x8, addend: 0x0, symName: __RNCNvXss_NtCscwCr4GBBztI_3syn10punctuatedINtB7_11PrivateIterNtNtB9_4data7VariantNtNtB9_5token5CommaENtNtNtNtCs85QQFkKrybG_4core4iter6traits8iterator8Iterator4nexts_0Cs4u7P9VlF0C9_14thiserror_impl, symObjAddr: 0xE4C, symBinAddr: 0x3A678, symSize: 0x34 }
  - { offset: 0xB3BAE, size: 0x8, addend: 0x0, symName: __RNCNvXss_NtCscwCr4GBBztI_3syn10punctuatedINtB7_11PrivateIterNtNtB9_4path15GenericArgumentNtNtB9_5token5CommaENtNtNtNtCs85QQFkKrybG_4core4iter6traits8iterator8Iterator4next0Cs4u7P9VlF0C9_14thiserror_impl, symObjAddr: 0xE80, symBinAddr: 0x3A6AC, symSize: 0x14 }
  - { offset: 0xB3BF9, size: 0x8, addend: 0x0, symName: __RNCNvXss_NtCscwCr4GBBztI_3syn10punctuatedINtB7_11PrivateIterNtNtB9_4path15GenericArgumentNtNtB9_5token5CommaENtNtNtNtCs85QQFkKrybG_4core4iter6traits8iterator8Iterator4nexts_0Cs4u7P9VlF0C9_14thiserror_impl, symObjAddr: 0xE94, symBinAddr: 0x3A6C0, symSize: 0x34 }
  - { offset: 0xB3C4A, size: 0x8, addend: 0x0, symName: __RNvXss_NtCscwCr4GBBztI_3syn10punctuatedINtB5_11PrivateIterNtNtB7_4data7VariantNtNtB7_5token5CommaENtNtNtNtCs85QQFkKrybG_4core4iter6traits8iterator8Iterator4nextCs4u7P9VlF0C9_14thiserror_impl, symObjAddr: 0x3490, symBinAddr: 0x3CCB8, symSize: 0x44 }
  - { offset: 0xB3C8A, size: 0x8, addend: 0x0, symName: __RNvXss_NtCscwCr4GBBztI_3syn10punctuatedINtB5_11PrivateIterNtNtB7_4path15GenericArgumentNtNtB7_5token5CommaENtNtNtNtCs85QQFkKrybG_4core4iter6traits8iterator8Iterator4nextCs4u7P9VlF0C9_14thiserror_impl, symObjAddr: 0x34D4, symBinAddr: 0x3CCFC, symSize: 0x44 }
  - { offset: 0xB3CD5, size: 0x8, addend: 0x0, symName: __RNcNtINtNtCscwCr4GBBztI_3syn10punctuated4PairRNtCsfwj6t2KTYdc_11proc_macro211TokenStreamRNtNtB8_5token4PlusE3End0Cs4u7P9VlF0C9_14thiserror_impl, symObjAddr: 0xF38, symBinAddr: 0x3A764, symSize: 0x1C }
  - { offset: 0xB3E89, size: 0x8, addend: 0x0, symName: __RNvXNtNtCscwCr4GBBztI_3syn10punctuated8printingINtB4_10PunctuatedNtCsfwj6t2KTYdc_11proc_macro211TokenStreamNtNtB6_5token4PlusENtNtCshi3DZH3dfhk_5quote9to_tokens8ToTokens9to_tokensCs4u7P9VlF0C9_14thiserror_impl, symObjAddr: 0x288C, symBinAddr: 0x3C0B4, symSize: 0x50 }
  - { offset: 0xB3EDA, size: 0x8, addend: 0x0, symName: __RNvXs_NtNtCscwCr4GBBztI_3syn10punctuated8printingINtB6_4PairRNtCsfwj6t2KTYdc_11proc_macro211TokenStreamRNtNtB8_5token4PlusENtNtCshi3DZH3dfhk_5quote9to_tokens8ToTokens9to_tokensCs4u7P9VlF0C9_14thiserror_impl, symObjAddr: 0x2CE4, symBinAddr: 0x3C50C, symSize: 0xB4 }
  - { offset: 0xB3F70, size: 0x8, addend: 0x0, symName: __RNvXs5_NtCscwCr4GBBztI_3syn10punctuatedRINtB5_10PunctuatedNtNtB7_4path11PathSegmentNtNtB7_5token7PathSepENtNtNtNtCs85QQFkKrybG_4core4iter6traits7collect12IntoIterator9into_iterCs4u7P9VlF0C9_14thiserror_impl, symObjAddr: 0x2A8C, symBinAddr: 0x3C2B4, symSize: 0x34 }
  - { offset: 0xB3FB0, size: 0x8, addend: 0x0, symName: __RNvXs5_NtCscwCr4GBBztI_3syn10punctuatedRINtB5_10PunctuatedNtNtB7_4path15GenericArgumentNtNtB7_5token5CommaENtNtNtNtCs85QQFkKrybG_4core4iter6traits7collect12IntoIterator9into_iterCs4u7P9VlF0C9_14thiserror_impl, symObjAddr: 0x2AC0, symBinAddr: 0x3C2E8, symSize: 0x34 }
  - { offset: 0xB3FF6, size: 0x8, addend: 0x0, symName: __RNvXs7_NtCscwCr4GBBztI_3syn10punctuatedINtB5_10PunctuatedNtCsfwj6t2KTYdc_11proc_macro211TokenStreamNtNtB7_5token4PlusENtNtCs85QQFkKrybG_4core7default7Default7defaultCs4u7P9VlF0C9_14thiserror_impl, symObjAddr: 0x2AF4, symBinAddr: 0x3C31C, symSize: 0x24 }
  - { offset: 0xB402D, size: 0x8, addend: 0x0, symName: __RNvXsJ_NtCscwCr4GBBztI_3syn10punctuatedINtB5_10PunctuatedNtNtB7_4path15GenericArgumentNtNtB7_5token5CommaEINtNtNtCs85QQFkKrybG_4core3ops5index5IndexjE5indexCs4u7P9VlF0C9_14thiserror_impl, symObjAddr: 0x2B70, symBinAddr: 0x3C398, symSize: 0x174 }
  - { offset: 0xB4098, size: 0x8, addend: 0x0, symName: __RNvXsp_NtCscwCr4GBBztI_3syn10punctuatedINtB5_4IterNtNtB7_4data5FieldENtNtNtNtCs85QQFkKrybG_4core4iter6traits8iterator8Iterator9size_hintCs4u7P9VlF0C9_14thiserror_impl, symObjAddr: 0x32A0, symBinAddr: 0x3CAC8, symSize: 0x68 }
  - { offset: 0xB40CF, size: 0x8, addend: 0x0, symName: __RNvXsp_NtCscwCr4GBBztI_3syn10punctuatedINtB5_4IterNtNtB7_4data7VariantENtNtNtNtCs85QQFkKrybG_4core4iter6traits8iterator8Iterator4nextCs4u7P9VlF0C9_14thiserror_impl, symObjAddr: 0x3308, symBinAddr: 0x3CB30, symSize: 0x48 }
  - { offset: 0xB4106, size: 0x8, addend: 0x0, symName: __RNvXsp_NtCscwCr4GBBztI_3syn10punctuatedINtB5_4IterNtNtB7_4data7VariantENtNtNtNtCs85QQFkKrybG_4core4iter6traits8iterator8Iterator9size_hintCs4u7P9VlF0C9_14thiserror_impl, symObjAddr: 0x3350, symBinAddr: 0x3CB78, symSize: 0x68 }
  - { offset: 0xB413D, size: 0x8, addend: 0x0, symName: __RNvXsp_NtCscwCr4GBBztI_3syn10punctuatedINtB5_4IterNtNtB7_4path15GenericArgumentENtNtNtNtCs85QQFkKrybG_4core4iter6traits8iterator8Iterator4nextCs4u7P9VlF0C9_14thiserror_impl, symObjAddr: 0x33B8, symBinAddr: 0x3CBE0, symSize: 0x48 }
  - { offset: 0xB417A, size: 0x8, addend: 0x0, symName: __RNvXsr_NtCscwCr4GBBztI_3syn10punctuatedINtB5_4IterNtNtB7_4data5FieldENtNtNtNtCs85QQFkKrybG_4core4iter6traits10exact_size17ExactSizeIterator3lenCs4u7P9VlF0C9_14thiserror_impl, symObjAddr: 0x3400, symBinAddr: 0x3CC28, symSize: 0x48 }
  - { offset: 0xB41B1, size: 0x8, addend: 0x0, symName: __RNvXsr_NtCscwCr4GBBztI_3syn10punctuatedINtB5_4IterNtNtB7_4data7VariantENtNtNtNtCs85QQFkKrybG_4core4iter6traits10exact_size17ExactSizeIterator3lenCs4u7P9VlF0C9_14thiserror_impl, symObjAddr: 0x3448, symBinAddr: 0x3CC70, symSize: 0x48 }
  - { offset: 0xB41EE, size: 0x8, addend: 0x0, symName: __RNvXsu_NtCscwCr4GBBztI_3syn10punctuatedINtB5_11PrivateIterNtNtB7_4data7VariantNtNtB7_5token5CommaENtNtNtNtCs85QQFkKrybG_4core4iter6traits10exact_size17ExactSizeIterator3lenCs4u7P9VlF0C9_14thiserror_impl, symObjAddr: 0x3598, symBinAddr: 0x3CDC0, symSize: 0x94 }
  - { offset: 0xB4266, size: 0x8, addend: 0x0, symName: __RNvXsu_NtCscwCr4GBBztI_3syn10punctuatedINtB5_11PrivateIterNtNtB7_4path15GenericArgumentNtNtB7_5token5CommaENtNtNtNtCs85QQFkKrybG_4core4iter6traits10exact_size17ExactSizeIterator3lenCs4u7P9VlF0C9_14thiserror_impl, symObjAddr: 0x362C, symBinAddr: 0x3CE54, symSize: 0x94 }
  - { offset: 0xB42E4, size: 0x8, addend: 0x0, symName: __RNvXsv_NtCscwCr4GBBztI_3syn10punctuatedINtB5_11PrivateIterNtNtB7_4data7VariantNtNtB7_5token5CommaENtNtCs85QQFkKrybG_4core5clone5Clone5cloneCs4u7P9VlF0C9_14thiserror_impl, symObjAddr: 0x36C0, symBinAddr: 0x3CEE8, symSize: 0x68 }
  - { offset: 0xB4324, size: 0x8, addend: 0x0, symName: __RNvXsv_NtCscwCr4GBBztI_3syn10punctuatedINtB5_11PrivateIterNtNtB7_4path15GenericArgumentNtNtB7_5token5CommaENtNtCs85QQFkKrybG_4core5clone5Clone5cloneCs4u7P9VlF0C9_14thiserror_impl, symObjAddr: 0x3728, symBinAddr: 0x3CF50, symSize: 0x68 }
  - { offset: 0xB436A, size: 0x8, addend: 0x0, symName: __RNvXsw_NtCscwCr4GBBztI_3syn10punctuatedINtB5_11PrivateIterNtNtB7_4data7VariantNtNtB7_5token5CommaEINtB5_9IterTraitBU_E9clone_boxCs4u7P9VlF0C9_14thiserror_impl, symObjAddr: 0x3790, symBinAddr: 0x3CFB8, symSize: 0x94 }
  - { offset: 0xB43C8, size: 0x8, addend: 0x0, symName: __RNvXsw_NtCscwCr4GBBztI_3syn10punctuatedINtB5_11PrivateIterNtNtB7_4path15GenericArgumentNtNtB7_5token5CommaEINtB5_9IterTraitBU_E9clone_boxCs4u7P9VlF0C9_14thiserror_impl, symObjAddr: 0x3824, symBinAddr: 0x3D04C, symSize: 0x94 }
  - { offset: 0xB8D71, size: 0x8, addend: 0x0, symName: __RINvNtCscwCr4GBBztI_3syn11parse_quote5parseNtNtB4_8generics14WherePredicateECs4u7P9VlF0C9_14thiserror_impl, symObjAddr: 0x300, symBinAddr: 0x39B2C, symSize: 0xD0 }
  - { offset: 0xB8E96, size: 0x8, addend: 0x0, symName: __RNvXsh_NtCscwCr4GBBztI_3syn5parseNvYNtNtB7_8generics14WherePredicateNtNtB7_11parse_quote10ParseQuote5parseNtB5_6Parser6parse2Cs4u7P9VlF0C9_14thiserror_impl, symObjAddr: 0x2F3C, symBinAddr: 0x3C764, symSize: 0x364 }
  - { offset: 0xB97B9, size: 0x8, addend: 0x0, symName: __RINvXs3_NtNtCsdFlNUEO95cG_5alloc3vec9into_iterINtB6_8IntoIterNtCsfwj6t2KTYdc_11proc_macro29TokenTreeENtNtNtNtCs85QQFkKrybG_4core4iter6traits8iterator8Iterator4folduNCINvNtNtB1H_8adapters3map8map_foldBX_NtCs9bTl5rSDVcL_10proc_macro9TokenTreeuNvNtBZ_3imp19into_compiler_tokenNCINvNvB1B_8for_each4callB3e_NCINvXsg_B3g_NtB3g_11TokenStreamINtNtB1F_7collect12FromIteratorB3e_E9from_iterINtB2H_3MapBI_B3R_EE0E0E0ECs4u7P9VlF0C9_14thiserror_impl, symObjAddr: 0x3D0, symBinAddr: 0x39BFC, symSize: 0x118 }
  - { offset: 0xB9986, size: 0x8, addend: 0x0, symName: __RINvXs3_NtNtCsdFlNUEO95cG_5alloc3vec9into_iterINtB6_8IntoIterNtCsfwj6t2KTYdc_11proc_macro29TokenTreeENtNtNtNtCs85QQFkKrybG_4core4iter6traits8iterator8Iterator4folduNCINvNvB1B_8for_each4callBX_NCINvXsa_NtBZ_8fallbackNtB3d_11TokenStreamINtNtB1F_7collect6ExtendBX_E6extendBI_E0E0ECs4u7P9VlF0C9_14thiserror_impl, symObjAddr: 0x4E8, symBinAddr: 0x39D14, symSize: 0x118 }
  - { offset: 0xB9B53, size: 0x8, addend: 0x0, symName: __RNvXs3_NtNtCsdFlNUEO95cG_5alloc3vec9into_iterINtB5_8IntoIterRNtCsfwj6t2KTYdc_11proc_macro25IdentENtNtNtNtCs85QQFkKrybG_4core4iter6traits8iterator8Iterator4nextCs4u7P9VlF0C9_14thiserror_impl, symObjAddr: 0x2984, symBinAddr: 0x3C1AC, symSize: 0xAC }
  - { offset: 0xB9CCA, size: 0x8, addend: 0x0, symName: __RNvXs3_NtNtCsdFlNUEO95cG_5alloc3vec9into_iterINtB5_8IntoIterRNtCsfwj6t2KTYdc_11proc_macro25IdentENtNtNtNtCs85QQFkKrybG_4core4iter6traits8iterator8Iterator9size_hintCs4u7P9VlF0C9_14thiserror_impl, symObjAddr: 0x2A30, symBinAddr: 0x3C258, symSize: 0x5C }
  - { offset: 0xB9E22, size: 0x8, addend: 0x0, symName: __RNvXNvXsd_NtNtCsdFlNUEO95cG_5alloc3vec9into_iterINtB8_8IntoIterppENtNtNtCs85QQFkKrybG_4core3ops4drop4Drop4dropINtB2_9DropGuardRNtCsfwj6t2KTYdc_11proc_macro25IdentNtNtBc_5alloc6GlobalEB12_4dropCs4u7P9VlF0C9_14thiserror_impl, symObjAddr: 0x2908, symBinAddr: 0x3C130, symSize: 0x7C }
  - { offset: 0xB9F60, size: 0x8, addend: 0x0, symName: __RNvXsd_NtNtCsdFlNUEO95cG_5alloc3vec9into_iterINtB5_8IntoIterRNtCsfwj6t2KTYdc_11proc_macro25IdentENtNtNtCs85QQFkKrybG_4core3ops4drop4Drop4dropCs4u7P9VlF0C9_14thiserror_impl, symObjAddr: 0x2EB0, symBinAddr: 0x3C6D8, symSize: 0x8C }
  - { offset: 0xBEDF6, size: 0x8, addend: 0x0, symName: __RINvYINtNtCscwCr4GBBztI_3syn10punctuated11PrivateIterNtNtB8_4data7VariantNtNtB8_5token5CommaENtNtNtNtCs85QQFkKrybG_4core4iter6traits8iterator8Iterator8try_foldINtNtNtB1B_3num7nonzero7NonZerojENCNvXs_NvB1t_10advance_byB3_NtB3b_13SpecAdvanceBy15spec_advance_by0INtNtB1B_6option6OptionB2x_EECs4u7P9VlF0C9_14thiserror_impl, symObjAddr: 0x600, symBinAddr: 0x39E2C, symSize: 0x150 }
  - { offset: 0xBEEAA, size: 0x8, addend: 0x0, symName: __RINvYINtNtCscwCr4GBBztI_3syn10punctuated11PrivateIterNtNtB8_4path15GenericArgumentNtNtB8_5token5CommaENtNtNtNtCs85QQFkKrybG_4core4iter6traits8iterator8Iterator8try_foldINtNtNtB1K_3num7nonzero7NonZerojENCNvXs_NvB1C_10advance_byB3_NtB3k_13SpecAdvanceBy15spec_advance_by0INtNtB1K_6option6OptionB2G_EECs4u7P9VlF0C9_14thiserror_impl, symObjAddr: 0x750, symBinAddr: 0x39F7C, symSize: 0x150 }
  - { offset: 0xBEF5E, size: 0x8, addend: 0x0, symName: __RINvYINtNtCscwCr4GBBztI_3syn10punctuated4IterNtNtB8_4data5FieldENtNtNtNtCs85QQFkKrybG_4core4iter6traits8iterator8Iterator8try_folduNCINvNvXs_NtNtB16_8adapters9enumerateINtB2f_9EnumeratepEB10_8try_fold9enumerateRBH_uINtNtNtB18_3ops12control_flow11ControlFlowIB3s_NtNtCs4u7P9VlF0C9_14thiserror_impl3ast5FieldEENCINvNtB2h_3map12map_try_foldTjB3m_EINtNtB18_6result6ResultB4c_NtNtB8_5error5ErrorEuB3r_NCNvMs2_B4e_B4c_17multiple_from_syn0NCINvXB2h_INtB2h_12GenericShuntINtB51_3MapIB2H_B3_EB6m_EIB5x_NtNtB18_7convert10InfallibleB5X_EEB10_8try_folduNCINvNvB10_12try_for_each4callB4c_B47_NcNtB47_5Break0E0B47_E0E0E0B3r_EB4g_, symObjAddr: 0x8A0, symBinAddr: 0x3A0CC, symSize: 0x144 }
  - { offset: 0xBF01A, size: 0x8, addend: 0x0, symName: __RINvYINtNtCscwCr4GBBztI_3syn10punctuated4IterNtNtB8_4data7VariantENtNtNtNtCs85QQFkKrybG_4core4iter6traits8iterator8Iterator3mapINtNtB1a_6result6ResultNtNtCs4u7P9VlF0C9_14thiserror_impl3ast7VariantNtNtB8_5error5ErrorENCNvMs0_B2q_NtB2q_4Enum8from_syn0EB2s_, symObjAddr: 0x9E4, symBinAddr: 0x3A210, symSize: 0x34 }
  - { offset: 0xBF087, size: 0x8, addend: 0x0, symName: __RINvYINtNtCscwCr4GBBztI_3syn10punctuated4IterNtNtB8_4data7VariantENtNtNtNtCs85QQFkKrybG_4core4iter6traits8iterator8Iterator8try_folduNCINvNtNtB18_8adapters3map12map_try_foldRBH_INtNtB1a_6result6ResultNtNtCs4u7P9VlF0C9_14thiserror_impl3ast7VariantNtNtB8_5error5ErrorEuINtNtNtB1a_3ops12control_flow11ControlFlowIB4i_B3c_EENCNvMs0_B3e_NtB3e_4Enum8from_syn0NCINvXB2e_INtB2e_12GenericShuntINtB2c_3MapB3_B58_EIB2Q_NtNtB1a_7convert10InfallibleB3W_EEB12_8try_folduNCINvNvB12_12try_for_each4callB3c_B4X_NcNtB4X_5Break0E0B4X_E0E0B4h_EB3g_, symObjAddr: 0xA18, symBinAddr: 0x3A244, symSize: 0x144 }
  - { offset: 0xBF143, size: 0x8, addend: 0x0, symName: __RINvYINtNtNtCsdFlNUEO95cG_5alloc3vec9into_iter8IntoIterNtCsfwj6t2KTYdc_11proc_macro29TokenTreeENtNtNtNtCs85QQFkKrybG_4core4iter6traits8iterator8Iterator3mapNtCs9bTl5rSDVcL_10proc_macro9TokenTreeNvNtBT_3imp19into_compiler_tokenECs4u7P9VlF0C9_14thiserror_impl, symObjAddr: 0xB5C, symBinAddr: 0x3A388, symSize: 0x1C }
  - { offset: 0xBF1B0, size: 0x8, addend: 0x0, symName: __RINvYINtNtNtCsdFlNUEO95cG_5alloc3vec9into_iter8IntoIterNtCsfwj6t2KTYdc_11proc_macro29TokenTreeENtNtNtNtCs85QQFkKrybG_4core4iter6traits8iterator8Iterator7collectNtNtBT_3imp11TokenStreamECs4u7P9VlF0C9_14thiserror_impl, symObjAddr: 0xB78, symBinAddr: 0x3A3A4, symSize: 0x60 }
  - { offset: 0xBF246, size: 0x8, addend: 0x0, symName: __RINvYINtNtNtCsdFlNUEO95cG_5alloc3vec9into_iter8IntoIterNtCsfwj6t2KTYdc_11proc_macro29TokenTreeENtNtNtNtCs85QQFkKrybG_4core4iter6traits8iterator8Iterator7collectNtNtBT_8fallback11TokenStreamECs4u7P9VlF0C9_14thiserror_impl, symObjAddr: 0xBD8, symBinAddr: 0x3A404, symSize: 0x68 }
  - { offset: 0xBF2DC, size: 0x8, addend: 0x0, symName: __RINvYINtNtNtCsdFlNUEO95cG_5alloc3vec9into_iter8IntoIterNtCsfwj6t2KTYdc_11proc_macro29TokenTreeENtNtNtNtCs85QQFkKrybG_4core4iter6traits8iterator8Iterator8for_eachNCINvXsa_NtBT_8fallbackNtB2I_11TokenStreamINtNtB1z_7collect6ExtendBR_E6extendB3_E0ECs4u7P9VlF0C9_14thiserror_impl, symObjAddr: 0xC40, symBinAddr: 0x3A46C, symSize: 0x24 }
  - { offset: 0xBF328, size: 0x8, addend: 0x0, symName: __RINvYINtNtNtCsdFlNUEO95cG_5alloc3vec9into_iter8IntoIterRNtCsfwj6t2KTYdc_11proc_macro25IdentENtNtNtNtCs85QQFkKrybG_4core4iter6traits8iterator8Iterator3mapTBR_NtNtNtNtBa_11collections5btree7set_val9SetValZSTENCINvMse_NtB2z_3setINtB3r_8BTreeSetBR_E16from_sorted_iterB3_E0ECs4u7P9VlF0C9_14thiserror_impl, symObjAddr: 0xC64, symBinAddr: 0x3A490, symSize: 0x1C }
  - { offset: 0xBF39F, size: 0x8, addend: 0x0, symName: __RNvXs_NvNtNtNtNtCs85QQFkKrybG_4core4iter6traits8iterator8Iterator10advance_byINtNtCscwCr4GBBztI_3syn10punctuated11PrivateIterNtNtB1i_4data7VariantNtNtB1i_5token5CommaENtB4_13SpecAdvanceBy15spec_advance_byCs4u7P9VlF0C9_14thiserror_impl, symObjAddr: 0x2D98, symBinAddr: 0x3C5C0, symSize: 0x8C }
  - { offset: 0xBF44D, size: 0x8, addend: 0x0, symName: __RNvXs_NvNtNtNtNtCs85QQFkKrybG_4core4iter6traits8iterator8Iterator10advance_byINtNtCscwCr4GBBztI_3syn10punctuated11PrivateIterNtNtB1i_4path15GenericArgumentNtNtB1i_5token5CommaENtB4_13SpecAdvanceBy15spec_advance_byCs4u7P9VlF0C9_14thiserror_impl, symObjAddr: 0x2E24, symBinAddr: 0x3C64C, symSize: 0x8C }
  - { offset: 0xBF511, size: 0x8, addend: 0x0, symName: __RNvYINtNtCscwCr4GBBztI_3syn10punctuated11PrivateIterNtNtB7_4data7VariantNtNtB7_5token5CommaENtNtNtNtCs85QQFkKrybG_4core4iter6traits8iterator8Iterator10advance_byCs4u7P9VlF0C9_14thiserror_impl, symObjAddr: 0x3AA4, symBinAddr: 0x3D2CC, symSize: 0x28 }
  - { offset: 0xBF557, size: 0x8, addend: 0x0, symName: __RNvYINtNtCscwCr4GBBztI_3syn10punctuated11PrivateIterNtNtB7_4data7VariantNtNtB7_5token5CommaENtNtNtNtCs85QQFkKrybG_4core4iter6traits8iterator8Iterator3nthCs4u7P9VlF0C9_14thiserror_impl, symObjAddr: 0x3ACC, symBinAddr: 0x3D2F4, symSize: 0x7C }
  - { offset: 0xBF627, size: 0x8, addend: 0x0, symName: __RNvYINtNtCscwCr4GBBztI_3syn10punctuated11PrivateIterNtNtB7_4data7VariantNtNtB7_5token5CommaENtNtNtNtCs85QQFkKrybG_4core4iter6traits8iterator8Iterator9size_hintCs4u7P9VlF0C9_14thiserror_impl, symObjAddr: 0x3B48, symBinAddr: 0x3D370, symSize: 0x34 }
  - { offset: 0xBF65C, size: 0x8, addend: 0x0, symName: __RNvYINtNtCscwCr4GBBztI_3syn10punctuated11PrivateIterNtNtB7_4path15GenericArgumentNtNtB7_5token5CommaENtNtNtNtCs85QQFkKrybG_4core4iter6traits8iterator8Iterator10advance_byCs4u7P9VlF0C9_14thiserror_impl, symObjAddr: 0x3D68, symBinAddr: 0x3D590, symSize: 0x28 }
  - { offset: 0xBF6A2, size: 0x8, addend: 0x0, symName: __RNvYINtNtCscwCr4GBBztI_3syn10punctuated11PrivateIterNtNtB7_4path15GenericArgumentNtNtB7_5token5CommaENtNtNtNtCs85QQFkKrybG_4core4iter6traits8iterator8Iterator3nthCs4u7P9VlF0C9_14thiserror_impl, symObjAddr: 0x3D90, symBinAddr: 0x3D5B8, symSize: 0x7C }
  - { offset: 0xBF772, size: 0x8, addend: 0x0, symName: __RNvYINtNtCscwCr4GBBztI_3syn10punctuated11PrivateIterNtNtB7_4path15GenericArgumentNtNtB7_5token5CommaENtNtNtNtCs85QQFkKrybG_4core4iter6traits8iterator8Iterator9size_hintCs4u7P9VlF0C9_14thiserror_impl, symObjAddr: 0x3E0C, symBinAddr: 0x3D634, symSize: 0x34 }
  - { offset: 0xBF7A7, size: 0x8, addend: 0x0, symName: __RNvYINtNtCscwCr4GBBztI_3syn10punctuated4IterNtNtB7_4data5FieldENtNtNtNtCs85QQFkKrybG_4core4iter6traits8iterator8Iterator9enumerateCs4u7P9VlF0C9_14thiserror_impl, symObjAddr: 0x3E40, symBinAddr: 0x3D668, symSize: 0x28 }
  - { offset: 0xBF863, size: 0x8, addend: 0x0, symName: __RNvXNtNtNtCs85QQFkKrybG_4core4iter6traits7collectINtNtCscwCr4GBBztI_3syn10punctuated5PairsNtCsfwj6t2KTYdc_11proc_macro211TokenStreamNtNtBQ_5token4PlusENtB2_12IntoIterator9into_iterCs4u7P9VlF0C9_14thiserror_impl, symObjAddr: 0x28DC, symBinAddr: 0x3C104, symSize: 0x18 }
  - { offset: 0xBF89A, size: 0x8, addend: 0x0, symName: __RNvXNtNtNtCs85QQFkKrybG_4core4iter6traits7collectINtNtNtCsdFlNUEO95cG_5alloc3vec9into_iter8IntoIterNtCsfwj6t2KTYdc_11proc_macro29TokenTreeENtB2_12IntoIterator9into_iterCs4u7P9VlF0C9_14thiserror_impl, symObjAddr: 0x28F4, symBinAddr: 0x3C11C, symSize: 0x14 }
  - { offset: 0xBF908, size: 0x8, addend: 0x0, symName: __RNvYINtNtCscwCr4GBBztI_3syn10punctuated11PrivateIterNtNtB7_4data7VariantNtNtB7_5token5CommaENtNtNtNtCs85QQFkKrybG_4core4iter6traits10exact_size17ExactSizeIterator8is_emptyCs4u7P9VlF0C9_14thiserror_impl, symObjAddr: 0x38B8, symBinAddr: 0x3D0E0, symSize: 0x2C }
  - { offset: 0xBF93D, size: 0x8, addend: 0x0, symName: __RNvYINtNtCscwCr4GBBztI_3syn10punctuated11PrivateIterNtNtB7_4path15GenericArgumentNtNtB7_5token5CommaENtNtNtNtCs85QQFkKrybG_4core4iter6traits10exact_size17ExactSizeIterator8is_emptyCs4u7P9VlF0C9_14thiserror_impl, symObjAddr: 0x3B7C, symBinAddr: 0x3D3A4, symSize: 0x2C }
  - { offset: 0xBF972, size: 0x8, addend: 0x0, symName: __RNvYINtNtNtCsdFlNUEO95cG_5alloc3vec9into_iter8IntoIterRNtCsfwj6t2KTYdc_11proc_macro25IdentENtNtNtNtCs85QQFkKrybG_4core4iter6traits10exact_size17ExactSizeIterator3lenCs4u7P9VlF0C9_14thiserror_impl, symObjAddr: 0x3E68, symBinAddr: 0x3D690, symSize: 0xC4 }
  - { offset: 0xBFA7D, size: 0x8, addend: 0x0, symName: __RNvYINtNtCscwCr4GBBztI_3syn10punctuated11PrivateIterNtNtB7_4data7VariantNtNtB7_5token5CommaENtNtNtNtCs85QQFkKrybG_4core4iter6traits12double_ended19DoubleEndedIterator15advance_back_byCs4u7P9VlF0C9_14thiserror_impl, symObjAddr: 0x38E4, symBinAddr: 0x3D10C, symSize: 0x158 }
  - { offset: 0xBFBFB, size: 0x8, addend: 0x0, symName: __RNvYINtNtCscwCr4GBBztI_3syn10punctuated11PrivateIterNtNtB7_4data7VariantNtNtB7_5token5CommaENtNtNtNtCs85QQFkKrybG_4core4iter6traits12double_ended19DoubleEndedIterator8nth_backCs4u7P9VlF0C9_14thiserror_impl, symObjAddr: 0x3A3C, symBinAddr: 0x3D264, symSize: 0x68 }
  - { offset: 0xBFC79, size: 0x8, addend: 0x0, symName: __RNvYINtNtCscwCr4GBBztI_3syn10punctuated11PrivateIterNtNtB7_4path15GenericArgumentNtNtB7_5token5CommaENtNtNtNtCs85QQFkKrybG_4core4iter6traits12double_ended19DoubleEndedIterator15advance_back_byCs4u7P9VlF0C9_14thiserror_impl, symObjAddr: 0x3BA8, symBinAddr: 0x3D3D0, symSize: 0x158 }
  - { offset: 0xBFDF7, size: 0x8, addend: 0x0, symName: __RNvYINtNtCscwCr4GBBztI_3syn10punctuated11PrivateIterNtNtB7_4path15GenericArgumentNtNtB7_5token5CommaENtNtNtNtCs85QQFkKrybG_4core4iter6traits12double_ended19DoubleEndedIterator8nth_backCs4u7P9VlF0C9_14thiserror_impl, symObjAddr: 0x3D00, symBinAddr: 0x3D528, symSize: 0x68 }
  - { offset: 0xC168B, size: 0x8, addend: 0x0, symName: __RNCNvMs1_NtCs4u7P9VlF0C9_14thiserror_impl5validNtNtB9_3ast7Variant8validate0B9_, symObjAddr: 0xD44, symBinAddr: 0x3A570, symSize: 0x1C }
  - { offset: 0xC16D4, size: 0x8, addend: 0x0, symName: __RNCNvMs_NtCs4u7P9VlF0C9_14thiserror_impl5validNtNtB8_3ast6Struct8validate0B8_, symObjAddr: 0xD60, symBinAddr: 0x3A58C, symSize: 0x1C }
  - { offset: 0xC1718, size: 0x8, addend: 0x0, symName: __RNCNvNtCs4u7P9VlF0C9_14thiserror_impl5valid28contains_non_static_lifetime0B5_, symObjAddr: 0xD7C, symBinAddr: 0x3A5A8, symSize: 0x3C }
  - { offset: 0xC1756, size: 0x8, addend: 0x0, symName: __RNvNtCs4u7P9VlF0C9_14thiserror_impl5valid11same_member, symObjAddr: 0x1B74, symBinAddr: 0x3B3A0, symSize: 0x134 }
  - { offset: 0xC17E8, size: 0x8, addend: 0x0, symName: __RNvNtCs4u7P9VlF0C9_14thiserror_impl5valid17check_field_attrs, symObjAddr: 0x1CA8, symBinAddr: 0x3B4D4, symSize: 0x61C }
  - { offset: 0xC1972, size: 0x8, addend: 0x0, symName: __RNvNtCs4u7P9VlF0C9_14thiserror_impl5valid21check_non_field_attrs, symObjAddr: 0x22C4, symBinAddr: 0x3BAF0, symSize: 0x230 }
  - { offset: 0xC1A02, size: 0x8, addend: 0x0, symName: __RNvNtCs4u7P9VlF0C9_14thiserror_impl5valid28contains_non_static_lifetime, symObjAddr: 0x24F4, symBinAddr: 0x3BD20, symSize: 0x314 }
  - { offset: 0xC1D1D, size: 0x8, addend: 0x0, symName: __RNCINvNtCsfieuf5LernF_9hashbrown3map14equivalent_keyNtNtCscwCr4GBBztI_3syn4expr6MemberRBO_jE0Cs4u7P9VlF0C9_14thiserror_impl, symObjAddr: 0xCBC, symBinAddr: 0x3A4E8, symSize: 0x30 }
  - { offset: 0xC1D74, size: 0x8, addend: 0x0, symName: __RNCINvNtCsfieuf5LernF_9hashbrown3map14equivalent_keyRNtNtCscwCr4GBBztI_3syn4expr6MemberBO_jE0Cs4u7P9VlF0C9_14thiserror_impl, symObjAddr: 0xCEC, symBinAddr: 0x3A518, symSize: 0x30 }
  - { offset: 0xC1E7A, size: 0x8, addend: 0x0, symName: __RNCINvNtCsfieuf5LernF_9hashbrown3map11make_hasherRNtNtCscwCr4GBBztI_3syn4expr6MemberjNtNtNtCswz7ZwgBZOU_3std4hash6random11RandomStateE0Cs4u7P9VlF0C9_14thiserror_impl, symObjAddr: 0xC80, symBinAddr: 0x3A4AC, symSize: 0x3C }
  - { offset: 0xC23A1, size: 0x8, addend: 0x0, symName: __RINvMs0_NtNtNtCswz7ZwgBZOU_3std11collections4hash3mapINtB6_7HashMapRNtNtCscwCr4GBBztI_3syn4expr6MemberjE12contains_keyB14_ECs4u7P9VlF0C9_14thiserror_impl, symObjAddr: 0x0, symBinAddr: 0x3996C, symSize: 0x54 }
  - { offset: 0xC24A3, size: 0x8, addend: 0x0, symName: __RINvMs0_NtNtNtCswz7ZwgBZOU_3std11collections4hash3mapINtB6_7HashMapRNtNtCscwCr4GBBztI_3syn4expr6MemberjE3getB14_ECs4u7P9VlF0C9_14thiserror_impl, symObjAddr: 0x54, symBinAddr: 0x399C0, symSize: 0x70 }
  - { offset: 0xC266D, size: 0x8, addend: 0x0, symName: __RINvMs1_NtCsfieuf5LernF_9hashbrown3mapINtB6_7HashMapRNtNtCscwCr4GBBztI_3syn4expr6MemberjNtNtNtCswz7ZwgBZOU_3std4hash6random11RandomStateE9get_innerBP_ECs4u7P9VlF0C9_14thiserror_impl, symObjAddr: 0xC4, symBinAddr: 0x39A30, symSize: 0xFC }
  - { offset: 0xC2D27, size: 0x8, addend: 0x0, symName: __RNvMNtCscwCr4GBBztI_3syn10punctuatedINtB2_10PunctuatedNtCsfwj6t2KTYdc_11proc_macro211TokenStreamNtNtB4_5token4PlusE10push_punctCs4u7P9VlF0C9_14thiserror_impl, symObjAddr: 0xF54, symBinAddr: 0x3A780, symSize: 0x200 }
  - { offset: 0xC2DA4, size: 0x8, addend: 0x0, symName: __RNvMNtCscwCr4GBBztI_3syn10punctuatedINtB2_10PunctuatedNtCsfwj6t2KTYdc_11proc_macro211TokenStreamNtNtB4_5token4PlusE10push_valueCs4u7P9VlF0C9_14thiserror_impl, symObjAddr: 0x1154, symBinAddr: 0x3A980, symSize: 0x19C }
  - { offset: 0xC2E12, size: 0x8, addend: 0x0, symName: __RNvMNtCscwCr4GBBztI_3syn10punctuatedINtB2_10PunctuatedNtCsfwj6t2KTYdc_11proc_macro211TokenStreamNtNtB4_5token4PlusE17empty_or_trailingCs4u7P9VlF0C9_14thiserror_impl, symObjAddr: 0x12F0, symBinAddr: 0x3AB1C, symSize: 0x34 }
  - { offset: 0xC2E46, size: 0x8, addend: 0x0, symName: __RNvMNtCscwCr4GBBztI_3syn10punctuatedINtB2_10PunctuatedNtCsfwj6t2KTYdc_11proc_macro211TokenStreamNtNtB4_5token4PlusE3newCs4u7P9VlF0C9_14thiserror_impl, symObjAddr: 0x1324, symBinAddr: 0x3AB50, symSize: 0x4C }
  - { offset: 0xC2E6C, size: 0x8, addend: 0x0, symName: __RNvMNtCscwCr4GBBztI_3syn10punctuatedINtB2_10PunctuatedNtCsfwj6t2KTYdc_11proc_macro211TokenStreamNtNtB4_5token4PlusE4pushCs4u7P9VlF0C9_14thiserror_impl, symObjAddr: 0x1370, symBinAddr: 0x3AB9C, symSize: 0x108 }
  - { offset: 0xC2ED6, size: 0x8, addend: 0x0, symName: __RNvMNtCscwCr4GBBztI_3syn10punctuatedINtB2_10PunctuatedNtCsfwj6t2KTYdc_11proc_macro211TokenStreamNtNtB4_5token4PlusE5pairsCs4u7P9VlF0C9_14thiserror_impl, symObjAddr: 0x1478, symBinAddr: 0x3ACA4, symSize: 0x74 }
  - { offset: 0xC2F24, size: 0x8, addend: 0x0, symName: __RNvMNtCscwCr4GBBztI_3syn10punctuatedINtB2_10PunctuatedNtNtB4_4data7VariantNtNtB4_5token5CommaE4iterCs4u7P9VlF0C9_14thiserror_impl, symObjAddr: 0x14EC, symBinAddr: 0x3AD18, symSize: 0xC8 }
  - { offset: 0xC2F82, size: 0x8, addend: 0x0, symName: __RNvMNtCscwCr4GBBztI_3syn10punctuatedINtB2_10PunctuatedNtNtB4_4path15GenericArgumentNtNtB4_5token5CommaE3lenCs4u7P9VlF0C9_14thiserror_impl, symObjAddr: 0x15B4, symBinAddr: 0x3ADE0, symSize: 0xA0 }
  - { offset: 0xC2FF1, size: 0x8, addend: 0x0, symName: __RNvMNtCscwCr4GBBztI_3syn10punctuatedINtB2_10PunctuatedNtNtB4_4path15GenericArgumentNtNtB4_5token5CommaE4iterCs4u7P9VlF0C9_14thiserror_impl, symObjAddr: 0x1654, symBinAddr: 0x3AE80, symSize: 0xC8 }
  - { offset: 0xC304F, size: 0x8, addend: 0x0, symName: __RNvMNtCscwCr4GBBztI_3syn10punctuatedINtB2_10PunctuatedNtNtB4_8generics14WherePredicateNtNtB4_5token5CommaE4pushCs4u7P9VlF0C9_14thiserror_impl, symObjAddr: 0x171C, symBinAddr: 0x3AF48, symSize: 0x124 }
  - { offset: 0xC3092, size: 0x8, addend: 0x0, symName: __RNvMNtNtNtCs85QQFkKrybG_4core4iter8adapters7step_byINtB2_6StepByINtNtNtB8_3ops5range5RangejEE3newCs4u7P9VlF0C9_14thiserror_impl, symObjAddr: 0x1840, symBinAddr: 0x3B06C, symSize: 0xE0 }
  - { offset: 0xC314E, size: 0x8, addend: 0x0, symName: __RNvMNtNtNtCswz7ZwgBZOU_3std11collections4hash3mapINtB2_7HashMapRNtNtCscwCr4GBBztI_3syn4expr6MemberjE3newCs4u7P9VlF0C9_14thiserror_impl, symObjAddr: 0x1920, symBinAddr: 0x3B14C, symSize: 0x7C }
  - { offset: 0xC320A, size: 0x8, addend: 0x0, symName: __RNvMs0_NtNtNtCswz7ZwgBZOU_3std11collections4hash3mapINtB5_7HashMapRNtNtCscwCr4GBBztI_3syn4expr6MemberjE6insertCs4u7P9VlF0C9_14thiserror_impl, symObjAddr: 0x199C, symBinAddr: 0x3B1C8, symSize: 0x30 }
  - { offset: 0xC3339, size: 0x8, addend: 0x0, symName: __RNvMs1_NtCsfieuf5LernF_9hashbrown3mapINtB5_7HashMapRNtNtCscwCr4GBBztI_3syn4expr6MemberjNtNtNtCswz7ZwgBZOU_3std4hash6random11RandomStateE6insertCs4u7P9VlF0C9_14thiserror_impl, symObjAddr: 0x19CC, symBinAddr: 0x3B1F8, symSize: 0x1A8 }
  - { offset: 0xC350B, size: 0x8, addend: 0x0, symName: __RNvXNtCshi3DZH3dfhk_5quote14ident_fragmentRmNtB2_13IdentFragment3fmtCs4u7P9VlF0C9_14thiserror_impl, symObjAddr: 0x280C, symBinAddr: 0x3C034, symSize: 0x40 }
  - { offset: 0xC355A, size: 0x8, addend: 0x0, symName: __RNvXNtCshi3DZH3dfhk_5quote9to_tokensRINtNtCscwCr4GBBztI_3syn10punctuated10PunctuatedNtCsfwj6t2KTYdc_11proc_macro211TokenStreamNtNtBE_5token4PlusENtB2_8ToTokens9to_tokensCs4u7P9VlF0C9_14thiserror_impl, symObjAddr: 0x284C, symBinAddr: 0x3C074, symSize: 0x40 }
  - { offset: 0xC3D7F, size: 0x8, addend: 0x0, symName: __RINvMs0_NtNtNtNtCswz7ZwgBZOU_3std3sys12thread_local6native4lazyINtB6_7StorageINtNtCs85QQFkKrybG_4core4cell4CellTyyEEzE11get_or_initNvNvNvMNtNtBe_4hash6randomNtB2c_11RandomState3new4KEYS6___initECs4u7P9VlF0C9_14thiserror_impl, symObjAddr: 0x0, symBinAddr: 0x3D754, symSize: 0xA4 }
  - { offset: 0xC4ADE, size: 0x8, addend: 0x0, symName: __RNCNvMNtCs4u7P9VlF0C9_14thiserror_impl8genericsNtB4_13ParamsInScope3new0B6_, symObjAddr: 0x19B0, symBinAddr: 0x3EEE4, symSize: 0x18 }
  - { offset: 0xC4B61, size: 0x8, addend: 0x0, symName: __RNvNtCs4u7P9VlF0C9_14thiserror_impl8generics5crawl, symObjAddr: 0x2118, symBinAddr: 0x3F64C, symSize: 0x318 }
  - { offset: 0xC8F30, size: 0x8, addend: 0x0, symName: __RNcNtINtNtNtCs85QQFkKrybG_4core3ops12control_flow11ControlFlowNtNtCs4u7P9VlF0C9_14thiserror_impl3ast5FieldE5Break0B12_, symObjAddr: 0x19C8, symBinAddr: 0x3EEFC, symSize: 0x30 }
  - { offset: 0xC8F6B, size: 0x8, addend: 0x0, symName: __RNcNtINtNtNtCs85QQFkKrybG_4core3ops12control_flow11ControlFlowNtNtCs4u7P9VlF0C9_14thiserror_impl3ast7VariantE5Break0B12_, symObjAddr: 0x19F8, symBinAddr: 0x3EF2C, symSize: 0x30 }
  - { offset: 0xC8FAD, size: 0x8, addend: 0x0, symName: __RNvXNtNtCs85QQFkKrybG_4core3ops12control_flowINtB2_11ControlFlowIBI_NtNtCs4u7P9VlF0C9_14thiserror_impl3ast5FieldEENtNtB4_9try_trait3Try11from_outputB18_, symObjAddr: 0x2630, symBinAddr: 0x3FB64, symSize: 0x18 }
  - { offset: 0xC8FEB, size: 0x8, addend: 0x0, symName: __RNvXNtNtCs85QQFkKrybG_4core3ops12control_flowINtB2_11ControlFlowIBI_NtNtCs4u7P9VlF0C9_14thiserror_impl3ast5FieldEENtNtB4_9try_trait3Try6branchB18_, symObjAddr: 0x2648, symBinAddr: 0x3FB7C, symSize: 0x94 }
  - { offset: 0xC9064, size: 0x8, addend: 0x0, symName: __RNvXNtNtCs85QQFkKrybG_4core3ops12control_flowINtB2_11ControlFlowIBI_NtNtCs4u7P9VlF0C9_14thiserror_impl3ast7VariantEENtNtB4_9try_trait3Try11from_outputB18_, symObjAddr: 0x26DC, symBinAddr: 0x3FC10, symSize: 0x18 }
  - { offset: 0xC90A2, size: 0x8, addend: 0x0, symName: __RNvXNtNtCs85QQFkKrybG_4core3ops12control_flowINtB2_11ControlFlowIBI_NtNtCs4u7P9VlF0C9_14thiserror_impl3ast7VariantEENtNtB4_9try_trait3Try6branchB18_, symObjAddr: 0x26F4, symBinAddr: 0x3FC28, symSize: 0x94 }
  - { offset: 0xC911B, size: 0x8, addend: 0x0, symName: __RNvXNtNtCs85QQFkKrybG_4core3ops12control_flowINtB2_11ControlFlowNtNtCs4u7P9VlF0C9_14thiserror_impl3ast5FieldENtNtB4_9try_trait3Try11from_outputB14_, symObjAddr: 0x2788, symBinAddr: 0x3FCBC, symSize: 0x1C }
  - { offset: 0xC9159, size: 0x8, addend: 0x0, symName: __RNvXNtNtCs85QQFkKrybG_4core3ops12control_flowINtB2_11ControlFlowNtNtCs4u7P9VlF0C9_14thiserror_impl3ast5FieldENtNtB4_9try_trait3Try6branchB14_, symObjAddr: 0x27A4, symBinAddr: 0x3FCD8, symSize: 0x9C }
  - { offset: 0xC91D2, size: 0x8, addend: 0x0, symName: __RNvXNtNtCs85QQFkKrybG_4core3ops12control_flowINtB2_11ControlFlowNtNtCs4u7P9VlF0C9_14thiserror_impl3ast7VariantENtNtB4_9try_trait3Try11from_outputB14_, symObjAddr: 0x2840, symBinAddr: 0x3FD74, symSize: 0x18 }
  - { offset: 0xC9210, size: 0x8, addend: 0x0, symName: __RNvXNtNtCs85QQFkKrybG_4core3ops12control_flowINtB2_11ControlFlowNtNtCs4u7P9VlF0C9_14thiserror_impl3ast7VariantENtNtB4_9try_trait3Try6branchB14_, symObjAddr: 0x2858, symBinAddr: 0x3FD8C, symSize: 0x94 }
  - { offset: 0xC928F, size: 0x8, addend: 0x0, symName: __RNvXs_NtNtCs85QQFkKrybG_4core3ops12control_flowINtB4_11ControlFlowIBK_NtNtCs4u7P9VlF0C9_14thiserror_impl3ast5FieldEEINtNtB6_9try_trait12FromResidualIBK_B12_NtNtB8_7convert10InfallibleEE13from_residualB1a_, symObjAddr: 0x31F0, symBinAddr: 0x40724, symSize: 0x48 }
  - { offset: 0xC92CE, size: 0x8, addend: 0x0, symName: __RNvXs_NtNtCs85QQFkKrybG_4core3ops12control_flowINtB4_11ControlFlowIBK_NtNtCs4u7P9VlF0C9_14thiserror_impl3ast7VariantEEINtNtB6_9try_trait12FromResidualIBK_B12_NtNtB8_7convert10InfallibleEE13from_residualB1a_, symObjAddr: 0x3238, symBinAddr: 0x4076C, symSize: 0x48 }
  - { offset: 0xC930D, size: 0x8, addend: 0x0, symName: __RNvXs_NtNtCs85QQFkKrybG_4core3ops12control_flowINtB4_11ControlFlowNtNtCs4u7P9VlF0C9_14thiserror_impl3ast5FieldEINtNtB6_9try_trait12FromResidualIBK_B12_NtNtB8_7convert10InfallibleEE13from_residualB16_, symObjAddr: 0x3280, symBinAddr: 0x407B4, symSize: 0x48 }
  - { offset: 0xC934C, size: 0x8, addend: 0x0, symName: __RNvXs_NtNtCs85QQFkKrybG_4core3ops12control_flowINtB4_11ControlFlowNtNtCs4u7P9VlF0C9_14thiserror_impl3ast7VariantEINtNtB6_9try_trait12FromResidualIBK_B12_NtNtB8_7convert10InfallibleEE13from_residualB16_, symObjAddr: 0x32C8, symBinAddr: 0x407FC, symSize: 0x48 }
  - { offset: 0xCA0B6, size: 0x8, addend: 0x0, symName: __RINvXs2E_NtNtCs85QQFkKrybG_4core5slice4iterINtB7_4IterNtNtCs4u7P9VlF0C9_14thiserror_impl3ast5FieldENtNtNtNtBb_4iter6traits8iterator8Iterator8find_mapRNtNtCscwCr4GBBztI_3syn4attr9AttributeNCNvMs1_NtBU_5validNtBS_7Variant8validate0EBU_, symObjAddr: 0xEAC, symBinAddr: 0x3E3E0, symSize: 0xC0 }
  - { offset: 0xCA13A, size: 0x8, addend: 0x0, symName: __RINvXs2E_NtNtCs85QQFkKrybG_4core5slice4iterINtB7_4IterNtNtCs4u7P9VlF0C9_14thiserror_impl3ast5FieldENtNtNtNtBb_4iter6traits8iterator8Iterator8find_mapRNtNtCscwCr4GBBztI_3syn4attr9AttributeNCNvMs_NtBU_5validNtBS_6Struct8validate0EBU_, symObjAddr: 0xF6C, symBinAddr: 0x3E4A0, symSize: 0xC0 }
  - { offset: 0xCA1BE, size: 0x8, addend: 0x0, symName: __RINvXs2E_NtNtCs85QQFkKrybG_4core5slice4iterINtB7_4IterNtNtCs4u7P9VlF0C9_14thiserror_impl3ast7VariantENtNtNtNtBb_4iter6traits8iterator8Iterator3allNCNvMs_NtBU_4propNtBS_4Enum11has_displays_0EBU_, symObjAddr: 0x102C, symBinAddr: 0x3E560, symSize: 0xAC }
  - { offset: 0xCA223, size: 0x8, addend: 0x0, symName: __RINvXs2E_NtNtCs85QQFkKrybG_4core5slice4iterINtB7_4IterNtNtCs4u7P9VlF0C9_14thiserror_impl3ast7VariantENtNtNtNtBb_4iter6traits8iterator8Iterator3anyNCNvMs_NtBU_4propNtBS_4Enum10has_source0EBU_, symObjAddr: 0x10D8, symBinAddr: 0x3E60C, symSize: 0xAC }
  - { offset: 0xCA288, size: 0x8, addend: 0x0, symName: __RINvXs2E_NtNtCs85QQFkKrybG_4core5slice4iterINtB7_4IterNtNtCs4u7P9VlF0C9_14thiserror_impl3ast7VariantENtNtNtNtBb_4iter6traits8iterator8Iterator3anyNCNvMs_NtBU_4propNtBS_4Enum11has_display0EBU_, symObjAddr: 0x1184, symBinAddr: 0x3E6B8, symSize: 0xAC }
  - { offset: 0xCA2ED, size: 0x8, addend: 0x0, symName: __RINvXs2E_NtNtCs85QQFkKrybG_4core5slice4iterINtB7_4IterNtNtCs4u7P9VlF0C9_14thiserror_impl3ast7VariantENtNtNtNtBb_4iter6traits8iterator8Iterator3anyNCNvMs_NtBU_4propNtBS_4Enum13has_backtrace0EBU_, symObjAddr: 0x1230, symBinAddr: 0x3E764, symSize: 0xAC }
  - { offset: 0xCA352, size: 0x8, addend: 0x0, symName: __RINvXs2E_NtNtCs85QQFkKrybG_4core5slice4iterINtB7_4IterNtNtCs4u7P9VlF0C9_14thiserror_impl3ast7VariantENtNtNtNtBb_4iter6traits8iterator8Iterator3anyNCNvNtBU_6expand9impl_enums0_0EBU_, symObjAddr: 0x12DC, symBinAddr: 0x3E810, symSize: 0xAC }
  - { offset: 0xCA3B7, size: 0x8, addend: 0x0, symName: __RINvXs2E_NtNtCs85QQFkKrybG_4core5slice4iterINtB7_4IterNtNtCs4u7P9VlF0C9_14thiserror_impl3ast7VariantENtNtNtNtBb_4iter6traits8iterator8Iterator4folduNCINvNtNtB1H_8adapters3map8map_foldRBQ_NtCsfwj6t2KTYdc_11proc_macro211TokenStreamuNCNvNtBU_6expand9impl_enums1_0NCINvNvB1B_8for_each4callB2Z_NCINvMsi_NtCsdFlNUEO95cG_5alloc3vecINtB4M_3VecB2Z_E14extend_trustedINtB2r_3MapBF_B3G_EE0E0E0EBU_, symObjAddr: 0x1388, symBinAddr: 0x3E8BC, symSize: 0x1C0 }
  - { offset: 0xCA50C, size: 0x8, addend: 0x0, symName: __RINvXs2E_NtNtCs85QQFkKrybG_4core5slice4iterINtB7_4IterNtNtCs4u7P9VlF0C9_14thiserror_impl3ast7VariantENtNtNtNtBb_4iter6traits8iterator8Iterator8find_mapNtCsfwj6t2KTYdc_11proc_macro211TokenStreamQNCNvNtBU_6expand9impl_enums2_0EBU_, symObjAddr: 0x1548, symBinAddr: 0x3EA7C, symSize: 0xDC }
  - { offset: 0xCA590, size: 0x8, addend: 0x0, symName: __RNvXs2E_NtNtCs85QQFkKrybG_4core5slice4iterINtB6_4IterNtCsfwj6t2KTYdc_11proc_macro211TokenStreamENtNtNtNtBa_4iter6traits8iterator8Iterator4nextCs4u7P9VlF0C9_14thiserror_impl, symObjAddr: 0x28EC, symBinAddr: 0x3FE20, symSize: 0xA8 }
  - { offset: 0xCA6CA, size: 0x8, addend: 0x0, symName: __RNvXs2E_NtNtCs85QQFkKrybG_4core5slice4iterINtB6_4IterNtCsfwj6t2KTYdc_11proc_macro25IdentENtNtNtNtBa_4iter6traits8iterator8Iterator4nextCs4u7P9VlF0C9_14thiserror_impl, symObjAddr: 0x2994, symBinAddr: 0x3FEC8, symSize: 0xA8 }
  - { offset: 0xCA804, size: 0x8, addend: 0x0, symName: __RNvXs2E_NtNtCs85QQFkKrybG_4core5slice4iterINtB6_4IterNtNtCs4u7P9VlF0C9_14thiserror_impl3ast5FieldENtNtNtNtBa_4iter6traits8iterator8Iterator4nextBT_, symObjAddr: 0x2A3C, symBinAddr: 0x3FF70, symSize: 0xA8 }
  - { offset: 0xCA93E, size: 0x8, addend: 0x0, symName: __RNvXs2E_NtNtCs85QQFkKrybG_4core5slice4iterINtB6_4IterNtNtCs4u7P9VlF0C9_14thiserror_impl3ast7VariantENtNtNtNtBa_4iter6traits8iterator8Iterator4nextBT_, symObjAddr: 0x2AE4, symBinAddr: 0x40018, symSize: 0xA8 }
  - { offset: 0xCAA78, size: 0x8, addend: 0x0, symName: __RNvXs2E_NtNtCs85QQFkKrybG_4core5slice4iterINtB6_4IterNtNtCs4u7P9VlF0C9_14thiserror_impl3ast7VariantENtNtNtNtBa_4iter6traits8iterator8Iterator9size_hintBT_, symObjAddr: 0x2B8C, symBinAddr: 0x400C0, symSize: 0x60 }
  - { offset: 0xCAAE7, size: 0x8, addend: 0x0, symName: __RNvXs2E_NtNtCs85QQFkKrybG_4core5slice4iterINtB6_4IterNtNtCsdFlNUEO95cG_5alloc6string6StringENtNtNtNtBa_4iter6traits8iterator8Iterator4nextCs4u7P9VlF0C9_14thiserror_impl, symObjAddr: 0x2BEC, symBinAddr: 0x40120, symSize: 0xA8 }
  - { offset: 0xCAC21, size: 0x8, addend: 0x0, symName: __RNvXs2E_NtNtCs85QQFkKrybG_4core5slice4iterINtB6_4IterRNtCsfwj6t2KTYdc_11proc_macro25IdentENtNtNtNtBa_4iter6traits8iterator8Iterator4nextCs4u7P9VlF0C9_14thiserror_impl, symObjAddr: 0x2C94, symBinAddr: 0x401C8, symSize: 0xA8 }
  - { offset: 0xCAD5B, size: 0x8, addend: 0x0, symName: __RNvXs2E_NtNtCs85QQFkKrybG_4core5slice4iterINtB6_4IterTNtCsfwj6t2KTYdc_11proc_macro211TokenStreamNtNtCscwCr4GBBztI_3syn5token4PlusEENtNtNtNtBa_4iter6traits8iterator8Iterator4nextCs4u7P9VlF0C9_14thiserror_impl, symObjAddr: 0x2D3C, symBinAddr: 0x40270, symSize: 0xA8 }
  - { offset: 0xCAE95, size: 0x8, addend: 0x0, symName: __RNvXs2E_NtNtCs85QQFkKrybG_4core5slice4iterINtB6_4IterTNtNtCs4u7P9VlF0C9_14thiserror_impl9scan_expr5InputNtBS_6ActionEENtNtNtNtBa_4iter6traits8iterator8Iterator4nextBU_, symObjAddr: 0x2DE4, symBinAddr: 0x40318, symSize: 0xA8 }
  - { offset: 0xCAFCF, size: 0x8, addend: 0x0, symName: __RNvXs2E_NtNtCs85QQFkKrybG_4core5slice4iterINtB6_4IterTjNtNtCs4u7P9VlF0C9_14thiserror_impl4attr5TraitEENtNtNtNtBa_4iter6traits8iterator8Iterator4nextBV_, symObjAddr: 0x2E8C, symBinAddr: 0x403C0, symSize: 0xA8 }
  - { offset: 0xCB2D6, size: 0x8, addend: 0x0, symName: __RNvXs2F_NtNtCs85QQFkKrybG_4core5slice4iterINtB6_4IterTNtNtCscwCr4GBBztI_3syn4data7VariantNtNtBU_5token5CommaEENtNtNtNtBa_4iter6traits12double_ended19DoubleEndedIterator9next_backCs4u7P9VlF0C9_14thiserror_impl, symObjAddr: 0x2F34, symBinAddr: 0x40468, symSize: 0x108 }
  - { offset: 0xCB436, size: 0x8, addend: 0x0, symName: __RNvXs2F_NtNtCs85QQFkKrybG_4core5slice4iterINtB6_4IterTNtNtCscwCr4GBBztI_3syn4path15GenericArgumentNtNtBU_5token5CommaEENtNtNtNtBa_4iter6traits12double_ended19DoubleEndedIterator9next_backCs4u7P9VlF0C9_14thiserror_impl, symObjAddr: 0x303C, symBinAddr: 0x40570, symSize: 0x108 }
  - { offset: 0xCB613, size: 0x8, addend: 0x0, symName: __RNvXs5_NtNtCs85QQFkKrybG_4core5slice4iterINtB5_4IterTNtNtCscwCr4GBBztI_3syn4data7VariantNtNtBT_5token5CommaEENtNtB9_5clone5Clone5cloneCs4u7P9VlF0C9_14thiserror_impl, symObjAddr: 0x31B0, symBinAddr: 0x406E4, symSize: 0x20 }
  - { offset: 0xCB648, size: 0x8, addend: 0x0, symName: __RNvXs5_NtNtCs85QQFkKrybG_4core5slice4iterINtB5_4IterTNtNtCscwCr4GBBztI_3syn4path15GenericArgumentNtNtBT_5token5CommaEENtNtB9_5clone5Clone5cloneCs4u7P9VlF0C9_14thiserror_impl, symObjAddr: 0x31D0, symBinAddr: 0x40704, symSize: 0x20 }
  - { offset: 0xCB7D8, size: 0x8, addend: 0x0, symName: __RINvYINtNtNtCs85QQFkKrybG_4core5slice4iter4IterNtNtCs4u7P9VlF0C9_14thiserror_impl3ast5FieldENtNtNtNtBa_4iter6traits8iterator8Iterator3mapRNtNtCscwCr4GBBztI_3syn4expr6MemberNCNvNtBN_6expand10fields_pat0EBN_, symObjAddr: 0x1790, symBinAddr: 0x3ECC4, symSize: 0x1C }
  - { offset: 0xCB830, size: 0x8, addend: 0x0, symName: __RINvYINtNtNtCs85QQFkKrybG_4core5slice4iter4IterNtNtCs4u7P9VlF0C9_14thiserror_impl3ast7VariantENtNtNtNtBa_4iter6traits8iterator8Iterator10filter_mapNtCsfwj6t2KTYdc_11proc_macro211TokenStreamNCNvNtBN_6expand9impl_enums2_0EBN_, symObjAddr: 0x17AC, symBinAddr: 0x3ECE0, symSize: 0x34 }
  - { offset: 0xCB89D, size: 0x8, addend: 0x0, symName: __RINvYINtNtNtCs85QQFkKrybG_4core5slice4iter4IterNtNtCs4u7P9VlF0C9_14thiserror_impl3ast7VariantENtNtNtNtBa_4iter6traits8iterator8Iterator3mapNtCsfwj6t2KTYdc_11proc_macro211TokenStreamNCNvNtBN_6expand9impl_enum0EBN_, symObjAddr: 0x17E0, symBinAddr: 0x3ED14, symSize: 0x3C }
  - { offset: 0xCB90A, size: 0x8, addend: 0x0, symName: __RINvYINtNtNtCs85QQFkKrybG_4core5slice4iter4IterNtNtCs4u7P9VlF0C9_14thiserror_impl3ast7VariantENtNtNtNtBa_4iter6traits8iterator8Iterator3mapNtCsfwj6t2KTYdc_11proc_macro211TokenStreamNCNvNtBN_6expand9impl_enums1_0EBN_, symObjAddr: 0x181C, symBinAddr: 0x3ED50, symSize: 0x3C }
  - { offset: 0xCB977, size: 0x8, addend: 0x0, symName: __RINvYINtNtNtCs85QQFkKrybG_4core5slice4iter4IterNtNtCs4u7P9VlF0C9_14thiserror_impl3ast7VariantENtNtNtNtBa_4iter6traits8iterator8Iterator3mapNtCsfwj6t2KTYdc_11proc_macro211TokenStreamNCNvNtBN_6expand9impl_enums_0EBN_, symObjAddr: 0x1858, symBinAddr: 0x3ED8C, symSize: 0x3C }
  - { offset: 0xCB9E4, size: 0x8, addend: 0x0, symName: __RINvYNtNtCsfwj6t2KTYdc_11proc_macro212token_stream8IntoIterNtNtNtNtCs85QQFkKrybG_4core4iter6traits8iterator8Iterator4folduNCINvNvBV_8for_each4callNtB7_9TokenTreeNCINvXsa_NtB7_8fallbackNtB2I_11TokenStreamINtNtBZ_7collect6ExtendB2k_E6extendNtB7_11TokenStreamE0E0ECs4u7P9VlF0C9_14thiserror_impl, symObjAddr: 0x1894, symBinAddr: 0x3EDC8, symSize: 0xD8 }
  - { offset: 0xCBA74, size: 0x8, addend: 0x0, symName: __RINvYNtNtCsfwj6t2KTYdc_11proc_macro212token_stream8IntoIterNtNtNtNtCs85QQFkKrybG_4core4iter6traits8iterator8Iterator8for_eachNCINvXsa_NtB7_8fallbackNtB28_11TokenStreamINtNtBZ_7collect6ExtendNtB7_9TokenTreeE6extendNtB7_11TokenStreamE0ECs4u7P9VlF0C9_14thiserror_impl, symObjAddr: 0x196C, symBinAddr: 0x3EEA0, symSize: 0x24 }
  - { offset: 0xCBAC0, size: 0x8, addend: 0x0, symName: __RNvYINtNtNtCs85QQFkKrybG_4core5slice4iter4IterNtNtCs4u7P9VlF0C9_14thiserror_impl3ast5FieldENtNtNtNtB9_4iter6traits8iterator8Iterator9enumerateBM_, symObjAddr: 0x34A0, symBinAddr: 0x409D4, symSize: 0x28 }
  - { offset: 0xCBDEF, size: 0x8, addend: 0x0, symName: __RNvNtNtNtNtCs85QQFkKrybG_4core9core_arch7aarch644neon9generated7vld1_u8Cs4u7P9VlF0C9_14thiserror_impl, symObjAddr: 0x2430, symBinAddr: 0x3F964, symSize: 0x34 }
  - { offset: 0xCBE1D, size: 0x8, addend: 0x0, symName: __RNvNtNtNtNtCs85QQFkKrybG_4core9core_arch7aarch644neon9generated7vst1_u8Cs4u7P9VlF0C9_14thiserror_impl, symObjAddr: 0x2464, symBinAddr: 0x3F998, symSize: 0x40 }
  - { offset: 0xCBE57, size: 0x8, addend: 0x0, symName: __RNvNtNtNtNtCs85QQFkKrybG_4core9core_arch7aarch644neon9generated8vcgez_s8Cs4u7P9VlF0C9_14thiserror_impl, symObjAddr: 0x24A4, symBinAddr: 0x3F9D8, symSize: 0x68 }
  - { offset: 0xCBEF9, size: 0x8, addend: 0x0, symName: __RNvNtNtNtNtCs85QQFkKrybG_4core9core_arch7aarch644neon9generated8vcltz_s8Cs4u7P9VlF0C9_14thiserror_impl, symObjAddr: 0x250C, symBinAddr: 0x3FA40, symSize: 0x68 }
  - { offset: 0xCC299, size: 0x8, addend: 0x0, symName: __RNvNvMNtNtCs85QQFkKrybG_4core5alloc6layoutNtB4_6Layout25from_size_align_unchecked18precondition_checkCs4u7P9VlF0C9_14thiserror_impl, symObjAddr: 0x2574, symBinAddr: 0x3FAA8, symSize: 0xBC }
  - { offset: 0xCC30F, size: 0x8, addend: 0x0, symName: __RNvXsf_NtCs85QQFkKrybG_4core5tupleTINtNtNtNtCsdFlNUEO95cG_5alloc11collections5btree3set8BTreeSetNtNtBG_6string6StringEINtNtCscwCr4GBBztI_3syn10punctuated10PunctuatedNtCsfwj6t2KTYdc_11proc_macro211TokenStreamNtNtB1X_5token4PlusEENtNtB7_7default7Default7defaultCs4u7P9VlF0C9_14thiserror_impl, symObjAddr: 0x3310, symBinAddr: 0x40844, symSize: 0x8C }
  - { offset: 0xCC4B6, size: 0x8, addend: 0x0, symName: __RINvXNtNtNtNtCswz7ZwgBZOU_3std3sys12thread_local6native4lazyzNtB3_14DestroyedState13register_dtorINtNtCs85QQFkKrybG_4core4cell4CellTyyEEECs4u7P9VlF0C9_14thiserror_impl, symObjAddr: 0xE9C, symBinAddr: 0x3E3D0, symSize: 0x10 }
  - { offset: 0xCC5B4, size: 0x8, addend: 0x0, symName: __RINvMs0_NtNtNtNtCswz7ZwgBZOU_3std3sys12thread_local6native4lazyINtB6_7StorageINtNtCs85QQFkKrybG_4core4cell4CellTyyEEzE11get_or_initNvNvNvMNtNtBe_4hash6randomNtB2c_11RandomState3new4KEYS6___initECs4u7P9VlF0C9_14thiserror_impl, symObjAddr: 0x0, symBinAddr: 0x3D754, symSize: 0xA4 }
  - { offset: 0xCC7F4, size: 0x8, addend: 0x0, symName: __RINvMs0_NtNtNtNtCswz7ZwgBZOU_3std3sys12thread_local6native4lazyINtB6_7StorageINtNtCs85QQFkKrybG_4core4cell4CellTyyEEzE16get_or_init_slowNvNvNvMNtNtBe_4hash6randomNtB2h_11RandomState3new4KEYS6___initECs4u7P9VlF0C9_14thiserror_impl, symObjAddr: 0xA4, symBinAddr: 0x1AE6EC, symSize: 0x220 }
  - { offset: 0xCD072, size: 0x8, addend: 0x0, symName: __RINvXsd_NtNtNtCsdFlNUEO95cG_5alloc11collections5btree3setINtB6_8BTreeSetRNtCsfwj6t2KTYdc_11proc_macro25IdentEINtNtNtNtCs85QQFkKrybG_4core4iter6traits7collect12FromIteratorB18_E9from_iterINtNtNtB1Q_8adapters3map3MapNtNtCscwCr4GBBztI_3syn8generics10TypeParamsNCNvMNtCs4u7P9VlF0C9_14thiserror_impl8genericsNtB4c_13ParamsInScope3new0EEB4e_, symObjAddr: 0x1624, symBinAddr: 0x3EB58, symSize: 0x16C }
  - { offset: 0xCD21C, size: 0x8, addend: 0x0, symName: __RNCINvMse_NtNtNtCsdFlNUEO95cG_5alloc11collections5btree3setINtB8_8BTreeSetRNtCsfwj6t2KTYdc_11proc_macro25IdentE16from_sorted_iterINtNtNtBe_3vec9into_iter8IntoIterB1a_EE0Cs4u7P9VlF0C9_14thiserror_impl, symObjAddr: 0x1990, symBinAddr: 0x3EEC4, symSize: 0x20 }
  - { offset: 0xCD2EC, size: 0x8, addend: 0x0, symName: __RNvXs3_NtNtNtCsdFlNUEO95cG_5alloc11collections5btree3setINtB5_8BTreeSetTjNtNtCs4u7P9VlF0C9_14thiserror_impl4attr5TraitEENtNtCs85QQFkKrybG_4core5clone5Clone10clone_fromB1d_, symObjAddr: 0x3144, symBinAddr: 0x40678, symSize: 0x2C }
  - { offset: 0xCD334, size: 0x8, addend: 0x0, symName: __RNvXs3_NtNtNtCsdFlNUEO95cG_5alloc11collections5btree3setINtB5_8BTreeSetTjNtNtCs4u7P9VlF0C9_14thiserror_impl4attr5TraitEENtNtCs85QQFkKrybG_4core5clone5Clone5cloneB1d_, symObjAddr: 0x3170, symBinAddr: 0x406A4, symSize: 0x40 }
  - { offset: 0xCD378, size: 0x8, addend: 0x0, symName: __RNvXsg_NtNtNtCsdFlNUEO95cG_5alloc11collections5btree3setINtB5_8BTreeSetTjNtNtCs4u7P9VlF0C9_14thiserror_impl4attr5TraitEENtNtNtNtCs85QQFkKrybG_4core4iter6traits7collect12IntoIterator9into_iterB1d_, symObjAddr: 0x339C, symBinAddr: 0x408D0, symSize: 0x54 }
  - { offset: 0xCD3BF, size: 0x8, addend: 0x0, symName: __RNvXsn_NtNtNtCsdFlNUEO95cG_5alloc11collections5btree3setINtB5_8BTreeSetNtNtBb_6string6StringENtNtCs85QQFkKrybG_4core7default7Default7defaultCs4u7P9VlF0C9_14thiserror_impl, symObjAddr: 0x33F0, symBinAddr: 0x40924, symSize: 0x40 }
  - { offset: 0xCD425, size: 0x8, addend: 0x0, symName: __RNvXsy_NtNtNtCsdFlNUEO95cG_5alloc11collections5btree3setINtB5_8IntoIterTjNtNtCs4u7P9VlF0C9_14thiserror_impl4attr5TraitEENtNtNtNtCs85QQFkKrybG_4core4iter6traits8iterator8Iterator4nextB1d_, symObjAddr: 0x3430, symBinAddr: 0x40964, symSize: 0x70 }
  - { offset: 0xD3CCA, size: 0x8, addend: 0x0, symName: __RINvMs_NtCs4u7P9VlF0C9_14thiserror_impl8genericsNtB5_14InferredBounds6insertNtCsfwj6t2KTYdc_11proc_macro211TokenStreamB1c_EB7_, symObjAddr: 0x2C4, symBinAddr: 0x3D7F8, symSize: 0x2D8 }
  - { offset: 0xD3D82, size: 0x8, addend: 0x0, symName: __RINvMs_NtCs4u7P9VlF0C9_14thiserror_impl8genericsNtB5_14InferredBounds6insertNtNtCscwCr4GBBztI_3syn5token8SelfTypeNtNtB7_4attr5TraitEB7_, symObjAddr: 0x59C, symBinAddr: 0x3DAD0, symSize: 0x2B4 }
  - { offset: 0xD42FA, size: 0x8, addend: 0x0, symName: __RINvMs_NtCs4u7P9VlF0C9_14thiserror_impl8genericsNtB5_14InferredBounds6insertRNtNtCscwCr4GBBztI_3syn2ty4TypeNtCsfwj6t2KTYdc_11proc_macro211TokenStreamEB7_, symObjAddr: 0x850, symBinAddr: 0x3DD84, symSize: 0x2D4 }
  - { offset: 0xD43B2, size: 0x8, addend: 0x0, symName: __RINvMs_NtCs4u7P9VlF0C9_14thiserror_impl8genericsNtB5_14InferredBounds6insertRNtNtCscwCr4GBBztI_3syn2ty4TypeNtNtB7_4attr5TraitEB7_, symObjAddr: 0xB24, symBinAddr: 0x3E058, symSize: 0x2A4 }
  - { offset: 0xD4567, size: 0x8, addend: 0x0, symName: __RINvMsc_NtNtNtCsdFlNUEO95cG_5alloc11collections5btree3setINtB6_8BTreeSetRNtCsfwj6t2KTYdc_11proc_macro25IdentE8containsB19_ECs4u7P9VlF0C9_14thiserror_impl, symObjAddr: 0xDC8, symBinAddr: 0x3E2FC, symSize: 0x54 }
  - { offset: 0xD4605, size: 0x8, addend: 0x0, symName: __RINvMse_NtNtNtCsdFlNUEO95cG_5alloc11collections5btree3setINtB6_8BTreeSetRNtCsfwj6t2KTYdc_11proc_macro25IdentE16from_sorted_iterINtNtNtBc_3vec9into_iter8IntoIterB18_EECs4u7P9VlF0C9_14thiserror_impl, symObjAddr: 0xE1C, symBinAddr: 0x3E350, symSize: 0x80 }
  - { offset: 0xD49F7, size: 0x8, addend: 0x0, symName: __RNvMNtCs4u7P9VlF0C9_14thiserror_impl8genericsNtB2_13ParamsInScope10intersects, symObjAddr: 0x1A28, symBinAddr: 0x3EF5C, symSize: 0x4C }
  - { offset: 0xD4A3C, size: 0x8, addend: 0x0, symName: __RNvMNtCs4u7P9VlF0C9_14thiserror_impl8genericsNtB2_13ParamsInScope3new, symObjAddr: 0x1A74, symBinAddr: 0x3EFA8, symSize: 0x58 }
  - { offset: 0xD4ADF, size: 0x8, addend: 0x0, symName: __RNvMNtNtCshi3DZH3dfhk_5quote9___private8get_spanINtB2_7GetSpanNtCsfwj6t2KTYdc_11proc_macro24SpanE11___into_spanCs4u7P9VlF0C9_14thiserror_impl, symObjAddr: 0x1ACC, symBinAddr: 0x3F000, symSize: 0x20 }
  - { offset: 0xD4BBD, size: 0x8, addend: 0x0, symName: __RNvMs4_NtNtCs85QQFkKrybG_4core5slice4iterINtB5_4IterNtCsfwj6t2KTYdc_11proc_macro211TokenStreamE3newCs4u7P9VlF0C9_14thiserror_impl, symObjAddr: 0x1AEC, symBinAddr: 0x3F020, symSize: 0x50 }
  - { offset: 0xD4D87, size: 0x8, addend: 0x0, symName: __RNvMs4_NtNtCs85QQFkKrybG_4core5slice4iterINtB5_4IterNtNtCs4u7P9VlF0C9_14thiserror_impl3ast5FieldE3newBS_, symObjAddr: 0x1B3C, symBinAddr: 0x3F070, symSize: 0x58 }
  - { offset: 0xD4F2A, size: 0x8, addend: 0x0, symName: __RNvMs4_NtNtCs85QQFkKrybG_4core5slice4iterINtB5_4IterNtNtCs4u7P9VlF0C9_14thiserror_impl3ast7VariantE3newBS_, symObjAddr: 0x1B94, symBinAddr: 0x3F0C8, symSize: 0x58 }
  - { offset: 0xD50F4, size: 0x8, addend: 0x0, symName: __RNvMs4_NtNtCs85QQFkKrybG_4core5slice4iterINtB5_4IterTNtCsfwj6t2KTYdc_11proc_macro211TokenStreamNtNtCscwCr4GBBztI_3syn5token4PlusEE3newCs4u7P9VlF0C9_14thiserror_impl, symObjAddr: 0x1BEC, symBinAddr: 0x3F120, symSize: 0x58 }
  - { offset: 0xD522D, size: 0x8, addend: 0x0, symName: __RNvMs_NtCs4u7P9VlF0C9_14thiserror_impl8genericsNtB4_14InferredBounds20augment_where_clause, symObjAddr: 0x1C44, symBinAddr: 0x3F178, symSize: 0x2C0 }
  - { offset: 0xD5315, size: 0x8, addend: 0x0, symName: __RNvMs_NtCs4u7P9VlF0C9_14thiserror_impl8genericsNtB4_14InferredBounds3new, symObjAddr: 0x1F04, symBinAddr: 0x3F438, symSize: 0x8C }
  - { offset: 0xD53A0, size: 0x8, addend: 0x0, symName: __RNvMsb_NtNtNtCsdFlNUEO95cG_5alloc11collections5btree3setINtB5_8BTreeSetNtCsfwj6t2KTYdc_11proc_macro25IdentE3newCs4u7P9VlF0C9_14thiserror_impl, symObjAddr: 0x1F90, symBinAddr: 0x3F4C4, symSize: 0x40 }
  - { offset: 0xD53EB, size: 0x8, addend: 0x0, symName: __RNvMsb_NtNtNtCsdFlNUEO95cG_5alloc11collections5btree3setINtB5_8BTreeSetNtNtBb_6string6StringE3newCs4u7P9VlF0C9_14thiserror_impl, symObjAddr: 0x1FD0, symBinAddr: 0x3F504, symSize: 0x40 }
  - { offset: 0xD5436, size: 0x8, addend: 0x0, symName: __RNvMsb_NtNtNtCsdFlNUEO95cG_5alloc11collections5btree3setINtB5_8BTreeSetTjNtNtCs4u7P9VlF0C9_14thiserror_impl4attr5TraitEE3newB1d_, symObjAddr: 0x2010, symBinAddr: 0x3F544, symSize: 0x40 }
  - { offset: 0xD54BA, size: 0x8, addend: 0x0, symName: __RNvMsc_NtNtNtCsdFlNUEO95cG_5alloc11collections5btree3setINtB5_8BTreeSetNtCsfwj6t2KTYdc_11proc_macro25IdentE6insertCs4u7P9VlF0C9_14thiserror_impl, symObjAddr: 0x2050, symBinAddr: 0x3F584, symSize: 0x40 }
  - { offset: 0xD5580, size: 0x8, addend: 0x0, symName: __RNvMsc_NtNtNtCsdFlNUEO95cG_5alloc11collections5btree3setINtB5_8BTreeSetNtNtBb_6string6StringE6insertCs4u7P9VlF0C9_14thiserror_impl, symObjAddr: 0x2090, symBinAddr: 0x3F5C4, symSize: 0x40 }
  - { offset: 0xD5646, size: 0x8, addend: 0x0, symName: __RNvMsc_NtNtNtCsdFlNUEO95cG_5alloc11collections5btree3setINtB5_8BTreeSetTjNtNtCs4u7P9VlF0C9_14thiserror_impl4attr5TraitEE6insertB1d_, symObjAddr: 0x20D0, symBinAddr: 0x3F604, symSize: 0x48 }
  - { offset: 0xD62F7, size: 0x8, addend: 0x0, symName: __RINvNvXNtCshi3DZH3dfhk_5quote3extNtCsfwj6t2KTYdc_11proc_macro211TokenStreamNtB5_14TokenStreamExt10append_all13do_append_allINtNtCscwCr4GBBztI_3syn10punctuated5PairsBv_NtNtB22_5token4PlusEECs4u7P9VlF0C9_14thiserror_impl, symObjAddr: 0x0, symBinAddr: 0x409FC, symSize: 0xD0 }
  - { offset: 0xD6D52, size: 0x8, addend: 0x0, symName: __RNCNvMs_NtCs4u7P9VlF0C9_14thiserror_impl4propNtNtB8_3ast4Enum10has_source0B8_, symObjAddr: 0x238, symBinAddr: 0x40C34, symSize: 0x94 }
  - { offset: 0xD6D95, size: 0x8, addend: 0x0, symName: __RNCNvMs_NtCs4u7P9VlF0C9_14thiserror_impl4propNtNtB8_3ast4Enum11has_display0B8_, symObjAddr: 0x2CC, symBinAddr: 0x40CC8, symSize: 0x38 }
  - { offset: 0xD6DCB, size: 0x8, addend: 0x0, symName: __RNCNvMs_NtCs4u7P9VlF0C9_14thiserror_impl4propNtNtB8_3ast4Enum11has_displays_0B8_, symObjAddr: 0x304, symBinAddr: 0x40D00, symSize: 0x38 }
  - { offset: 0xD6E15, size: 0x8, addend: 0x0, symName: __RNCNvMs_NtCs4u7P9VlF0C9_14thiserror_impl4propNtNtB8_3ast4Enum13has_backtrace0B8_, symObjAddr: 0x33C, symBinAddr: 0x40D38, symSize: 0x50 }
  - { offset: 0xD6E59, size: 0x8, addend: 0x0, symName: __RNCNvNtCs4u7P9VlF0C9_14thiserror_impl4prop24distinct_backtrace_field0B5_, symObjAddr: 0x38C, symBinAddr: 0x40D88, symSize: 0x40 }
  - { offset: 0xD6E96, size: 0x8, addend: 0x0, symName: __RNvNtCs4u7P9VlF0C9_14thiserror_impl4prop10from_field, symObjAddr: 0x1614, symBinAddr: 0x42010, symSize: 0xCC }
  - { offset: 0xD6EEC, size: 0x8, addend: 0x0, symName: __RNvNtCs4u7P9VlF0C9_14thiserror_impl4prop12source_field, symObjAddr: 0x16E0, symBinAddr: 0x420DC, symSize: 0x204 }
  - { offset: 0xD6F9A, size: 0x8, addend: 0x0, symName: __RNvNtCs4u7P9VlF0C9_14thiserror_impl4prop15backtrace_field, symObjAddr: 0x18E4, symBinAddr: 0x422E0, symSize: 0x164 }
  - { offset: 0xD701B, size: 0x8, addend: 0x0, symName: __RNvNtCs4u7P9VlF0C9_14thiserror_impl4prop17type_is_backtrace, symObjAddr: 0x1A48, symBinAddr: 0x42444, symSize: 0x10C }
  - { offset: 0xD70AB, size: 0x8, addend: 0x0, symName: __RNvNtCs4u7P9VlF0C9_14thiserror_impl4prop24distinct_backtrace_field, symObjAddr: 0x1B54, symBinAddr: 0x42550, symSize: 0x84 }
  - { offset: 0xD86AF, size: 0x8, addend: 0x0, symName: __RINvYNtNtNtCswz7ZwgBZOU_3std4hash6random11RandomStateNtNtCs85QQFkKrybG_4core4hash11BuildHasher8hash_oneRNtNtCscwCr4GBBztI_3syn4expr6MemberECs4u7P9VlF0C9_14thiserror_impl, symObjAddr: 0xD0, symBinAddr: 0x40ACC, symSize: 0x84 }
  - { offset: 0xD8714, size: 0x8, addend: 0x0, symName: __RINvYNtNtNtCswz7ZwgBZOU_3std4hash6random11RandomStateNtNtCs85QQFkKrybG_4core4hash11BuildHasher8hash_oneRRNtNtCscwCr4GBBztI_3syn4expr6MemberECs4u7P9VlF0C9_14thiserror_impl, symObjAddr: 0x154, symBinAddr: 0x40B50, symSize: 0x84 }
  - { offset: 0xD88E6, size: 0x8, addend: 0x0, symName: __RNvYNtNtNtCswz7ZwgBZOU_3std4hash6random13DefaultHasherNtNtCs85QQFkKrybG_4core4hash6Hasher9write_u32Cs4u7P9VlF0C9_14thiserror_impl, symObjAddr: 0x312C, symBinAddr: 0x43A54, symSize: 0x3C }
  - { offset: 0xDD581, size: 0x8, addend: 0x0, symName: __RNvNvNtCs85QQFkKrybG_4core4hint16assert_unchecked18precondition_checkCs4u7P9VlF0C9_14thiserror_impl, symObjAddr: 0x1CAC, symBinAddr: 0x426A8, symSize: 0xA4 }
  - { offset: 0xDD5E1, size: 0x8, addend: 0x0, symName: __RNvNvNtCs85QQFkKrybG_4core4hint21unreachable_unchecked18precondition_checkCs4u7P9VlF0C9_14thiserror_impl, symObjAddr: 0x1D50, symBinAddr: 0x4274C, symSize: 0x84 }
  - { offset: 0xDD64B, size: 0x8, addend: 0x0, symName: __RNvNvXs0_NtNtCs85QQFkKrybG_4core5slice5indexjINtB7_10SliceIndexSpE13get_unchecked18precondition_checkCs4u7P9VlF0C9_14thiserror_impl, symObjAddr: 0x1DF8, symBinAddr: 0x427F4, symSize: 0xAC }
  - { offset: 0xDD6B9, size: 0x8, addend: 0x0, symName: __RNvNvXs0_NtNtCs85QQFkKrybG_4core5slice5indexjINtB7_10SliceIndexSpE17get_unchecked_mut18precondition_checkCs4u7P9VlF0C9_14thiserror_impl, symObjAddr: 0x1EA4, symBinAddr: 0x428A0, symSize: 0xAC }
  - { offset: 0xDD722, size: 0x8, addend: 0x0, symName: __RNvXs0_NtNtCs85QQFkKrybG_4core5slice5indexjINtB5_10SliceIndexSNtNtCs4u7P9VlF0C9_14thiserror_impl3ast5FieldE5indexB12_, symObjAddr: 0x21B0, symBinAddr: 0x42B90, symSize: 0x64 }
  - { offset: 0xDD768, size: 0x8, addend: 0x0, symName: __RNvXs0_NtNtCs85QQFkKrybG_4core5slice5indexjINtB5_10SliceIndexSTNtNtCscwCr4GBBztI_3syn4path15GenericArgumentNtNtB13_5token5CommaEE5indexCs4u7P9VlF0C9_14thiserror_impl, symObjAddr: 0x2214, symBinAddr: 0x42BF4, symSize: 0x64 }
  - { offset: 0xDD7B9, size: 0x8, addend: 0x0, symName: __RNvNvXs1_NtNtCs85QQFkKrybG_4core5slice5indexNtNtNtBb_3ops11index_range10IndexRangeINtB7_10SliceIndexSpE17get_unchecked_mut18precondition_checkCs4u7P9VlF0C9_14thiserror_impl, symObjAddr: 0x1F50, symBinAddr: 0x4294C, symSize: 0xAC }
  - { offset: 0xDD82D, size: 0x8, addend: 0x0, symName: __RNvNvXs2_NtNtCs85QQFkKrybG_4core5slice5indexINtNtNtBb_3ops5range5RangejEINtB7_10SliceIndexSpE13get_unchecked18precondition_checkCs4u7P9VlF0C9_14thiserror_impl, symObjAddr: 0x1FFC, symBinAddr: 0x429F8, symSize: 0xCC }
  - { offset: 0xDD8A9, size: 0x8, addend: 0x0, symName: __RNvNvXs2_NtNtCs85QQFkKrybG_4core5slice5indexINtNtNtBb_3ops5range5RangejEINtB7_10SliceIndexSpE17get_unchecked_mut18precondition_checkCs4u7P9VlF0C9_14thiserror_impl, symObjAddr: 0x20C8, symBinAddr: 0x42AC4, symSize: 0xCC }
  - { offset: 0xDDAF5, size: 0x8, addend: 0x0, symName: __RNCNkNvNvMNtNtCswz7ZwgBZOU_3std4hash6randomNtB8_11RandomState3new4KEYS0s_0Cs4u7P9VlF0C9_14thiserror_impl, symObjAddr: 0x1D8, symBinAddr: 0x40BD4, symSize: 0x34 }
  - { offset: 0xDDB33, size: 0x8, addend: 0x0, symName: __RNvNvNvMNtNtCswz7ZwgBZOU_3std4hash6randomNtB6_11RandomState3new4KEYS6___initCs4u7P9VlF0C9_14thiserror_impl, symObjAddr: 0x1DD4, symBinAddr: 0x427D0, symSize: 0x24 }
  - { offset: 0xDDB51, size: 0x8, addend: 0x0, symName: __RNCNvMNtNtCswz7ZwgBZOU_3std4hash6randomNtB4_11RandomState3new0Cs4u7P9VlF0C9_14thiserror_impl, symObjAddr: 0x20C, symBinAddr: 0x40C08, symSize: 0x2C }
  - { offset: 0xDDC16, size: 0x8, addend: 0x0, symName: __RNvXs2_NtNtCswz7ZwgBZOU_3std4hash6randomNtB5_13DefaultHasherNtNtCs85QQFkKrybG_4core4hash6Hasher5writeCs4u7P9VlF0C9_14thiserror_impl, symObjAddr: 0x2278, symBinAddr: 0x42C58, symSize: 0x38 }
  - { offset: 0xDDC71, size: 0x8, addend: 0x0, symName: __RNvXs2_NtNtCswz7ZwgBZOU_3std4hash6randomNtB5_13DefaultHasherNtNtCs85QQFkKrybG_4core4hash6Hasher6finishCs4u7P9VlF0C9_14thiserror_impl, symObjAddr: 0x22B0, symBinAddr: 0x42C90, symSize: 0x2C }
  - { offset: 0xDDCBA, size: 0x8, addend: 0x0, symName: __RNvXs2_NtNtCswz7ZwgBZOU_3std4hash6randomNtB5_13DefaultHasherNtNtCs85QQFkKrybG_4core4hash6Hasher9write_strCs4u7P9VlF0C9_14thiserror_impl, symObjAddr: 0x22DC, symBinAddr: 0x42CBC, symSize: 0x38 }
  - { offset: 0xDDD1B, size: 0x8, addend: 0x0, symName: __RNvXs_NtNtCswz7ZwgBZOU_3std4hash6randomNtB4_11RandomStateNtNtCs85QQFkKrybG_4core4hash11BuildHasher12build_hasherCs4u7P9VlF0C9_14thiserror_impl, symObjAddr: 0x3060, symBinAddr: 0x43988, symSize: 0xCC }
  - { offset: 0xDDDFA, size: 0x8, addend: 0x0, symName: __RINvNvXNtCshi3DZH3dfhk_5quote3extNtCsfwj6t2KTYdc_11proc_macro211TokenStreamNtB5_14TokenStreamExt10append_all13do_append_allINtNtCscwCr4GBBztI_3syn10punctuated5PairsBv_NtNtB22_5token4PlusEECs4u7P9VlF0C9_14thiserror_impl, symObjAddr: 0x0, symBinAddr: 0x409FC, symSize: 0xD0 }
  - { offset: 0xDE49F, size: 0x8, addend: 0x0, symName: __RNvMs_NtCsdFlNUEO95cG_5alloc5boxedINtB4_3BoxINtNtNtNtB6_11collections5btree4node12InternalNodeNtCsfwj6t2KTYdc_11proc_macro25IdentNtNtBL_7set_val9SetValZSTEE13new_uninit_inCs4u7P9VlF0C9_14thiserror_impl, symObjAddr: 0x3CC, symBinAddr: 0x40DC8, symSize: 0x98 }
  - { offset: 0xDE597, size: 0x8, addend: 0x0, symName: __RNvMs_NtCsdFlNUEO95cG_5alloc5boxedINtB4_3BoxINtNtNtNtB6_11collections5btree4node12InternalNodeNtCsfwj6t2KTYdc_11proc_macro25IdentNtNtBL_7set_val9SetValZSTEE17try_new_uninit_inCs4u7P9VlF0C9_14thiserror_impl, symObjAddr: 0x464, symBinAddr: 0x40E60, symSize: 0x13C }
  - { offset: 0xDE7D3, size: 0x8, addend: 0x0, symName: __RNvMs_NtCsdFlNUEO95cG_5alloc5boxedINtB4_3BoxINtNtNtNtB6_11collections5btree4node12InternalNodeNtNtB6_6string6StringNtNtBL_7set_val9SetValZSTEE13new_uninit_inCs4u7P9VlF0C9_14thiserror_impl, symObjAddr: 0x5A0, symBinAddr: 0x40F9C, symSize: 0x98 }
  - { offset: 0xDE8CB, size: 0x8, addend: 0x0, symName: __RNvMs_NtCsdFlNUEO95cG_5alloc5boxedINtB4_3BoxINtNtNtNtB6_11collections5btree4node12InternalNodeNtNtB6_6string6StringNtNtBL_7set_val9SetValZSTEE17try_new_uninit_inCs4u7P9VlF0C9_14thiserror_impl, symObjAddr: 0x638, symBinAddr: 0x41034, symSize: 0x13C }
  - { offset: 0xDEB07, size: 0x8, addend: 0x0, symName: __RNvMs_NtCsdFlNUEO95cG_5alloc5boxedINtB4_3BoxINtNtNtNtB6_11collections5btree4node12InternalNodeNtNtB6_6string6StringTINtNtBL_3set8BTreeSetB1u_EINtNtCscwCr4GBBztI_3syn10punctuated10PunctuatedNtCsfwj6t2KTYdc_11proc_macro211TokenStreamNtNtB2l_5token4PlusEEEE13new_uninit_inCs4u7P9VlF0C9_14thiserror_impl, symObjAddr: 0x774, symBinAddr: 0x41170, symSize: 0x98 }
  - { offset: 0xDEBFF, size: 0x8, addend: 0x0, symName: __RNvMs_NtCsdFlNUEO95cG_5alloc5boxedINtB4_3BoxINtNtNtNtB6_11collections5btree4node12InternalNodeNtNtB6_6string6StringTINtNtBL_3set8BTreeSetB1u_EINtNtCscwCr4GBBztI_3syn10punctuated10PunctuatedNtCsfwj6t2KTYdc_11proc_macro211TokenStreamNtNtB2l_5token4PlusEEEE17try_new_uninit_inCs4u7P9VlF0C9_14thiserror_impl, symObjAddr: 0x80C, symBinAddr: 0x41208, symSize: 0x13C }
  - { offset: 0xDEE3B, size: 0x8, addend: 0x0, symName: __RNvMs_NtCsdFlNUEO95cG_5alloc5boxedINtB4_3BoxINtNtNtNtB6_11collections5btree4node12InternalNodeRNtCsfwj6t2KTYdc_11proc_macro25IdentNtNtBL_7set_val9SetValZSTEE13new_uninit_inCs4u7P9VlF0C9_14thiserror_impl, symObjAddr: 0x948, symBinAddr: 0x41344, symSize: 0x98 }
  - { offset: 0xDEF33, size: 0x8, addend: 0x0, symName: __RNvMs_NtCsdFlNUEO95cG_5alloc5boxedINtB4_3BoxINtNtNtNtB6_11collections5btree4node12InternalNodeRNtCsfwj6t2KTYdc_11proc_macro25IdentNtNtBL_7set_val9SetValZSTEE17try_new_uninit_inCs4u7P9VlF0C9_14thiserror_impl, symObjAddr: 0x9E0, symBinAddr: 0x413DC, symSize: 0x13C }
  - { offset: 0xDF16F, size: 0x8, addend: 0x0, symName: __RNvMs_NtCsdFlNUEO95cG_5alloc5boxedINtB4_3BoxINtNtNtNtB6_11collections5btree4node12InternalNodeTjNtNtCs4u7P9VlF0C9_14thiserror_impl4attr5TraitENtNtBL_7set_val9SetValZSTEE13new_uninit_inB1A_, symObjAddr: 0xB1C, symBinAddr: 0x41518, symSize: 0x98 }
  - { offset: 0xDF267, size: 0x8, addend: 0x0, symName: __RNvMs_NtCsdFlNUEO95cG_5alloc5boxedINtB4_3BoxINtNtNtNtB6_11collections5btree4node12InternalNodeTjNtNtCs4u7P9VlF0C9_14thiserror_impl4attr5TraitENtNtBL_7set_val9SetValZSTEE17try_new_uninit_inB1A_, symObjAddr: 0xBB4, symBinAddr: 0x415B0, symSize: 0x13C }
  - { offset: 0xDF4A3, size: 0x8, addend: 0x0, symName: __RNvMs_NtCsdFlNUEO95cG_5alloc5boxedINtB4_3BoxINtNtNtNtB6_11collections5btree4node8LeafNodeNtCsfwj6t2KTYdc_11proc_macro25IdentNtNtBL_7set_val9SetValZSTEE13new_uninit_inCs4u7P9VlF0C9_14thiserror_impl, symObjAddr: 0xCF0, symBinAddr: 0x416EC, symSize: 0x98 }
  - { offset: 0xDF59B, size: 0x8, addend: 0x0, symName: __RNvMs_NtCsdFlNUEO95cG_5alloc5boxedINtB4_3BoxINtNtNtNtB6_11collections5btree4node8LeafNodeNtCsfwj6t2KTYdc_11proc_macro25IdentNtNtBL_7set_val9SetValZSTEE17try_new_uninit_inCs4u7P9VlF0C9_14thiserror_impl, symObjAddr: 0xD88, symBinAddr: 0x41784, symSize: 0x13C }
  - { offset: 0xDF7D7, size: 0x8, addend: 0x0, symName: __RNvMs_NtCsdFlNUEO95cG_5alloc5boxedINtB4_3BoxINtNtNtNtB6_11collections5btree4node8LeafNodeNtNtB6_6string6StringNtNtBL_7set_val9SetValZSTEE13new_uninit_inCs4u7P9VlF0C9_14thiserror_impl, symObjAddr: 0xEC4, symBinAddr: 0x418C0, symSize: 0x98 }
  - { offset: 0xDF8CF, size: 0x8, addend: 0x0, symName: __RNvMs_NtCsdFlNUEO95cG_5alloc5boxedINtB4_3BoxINtNtNtNtB6_11collections5btree4node8LeafNodeNtNtB6_6string6StringNtNtBL_7set_val9SetValZSTEE17try_new_uninit_inCs4u7P9VlF0C9_14thiserror_impl, symObjAddr: 0xF5C, symBinAddr: 0x41958, symSize: 0x13C }
  - { offset: 0xDFB0B, size: 0x8, addend: 0x0, symName: __RNvMs_NtCsdFlNUEO95cG_5alloc5boxedINtB4_3BoxINtNtNtNtB6_11collections5btree4node8LeafNodeNtNtB6_6string6StringTINtNtBL_3set8BTreeSetB1p_EINtNtCscwCr4GBBztI_3syn10punctuated10PunctuatedNtCsfwj6t2KTYdc_11proc_macro211TokenStreamNtNtB2g_5token4PlusEEEE13new_uninit_inCs4u7P9VlF0C9_14thiserror_impl, symObjAddr: 0x1098, symBinAddr: 0x41A94, symSize: 0x98 }
  - { offset: 0xDFC03, size: 0x8, addend: 0x0, symName: __RNvMs_NtCsdFlNUEO95cG_5alloc5boxedINtB4_3BoxINtNtNtNtB6_11collections5btree4node8LeafNodeNtNtB6_6string6StringTINtNtBL_3set8BTreeSetB1p_EINtNtCscwCr4GBBztI_3syn10punctuated10PunctuatedNtCsfwj6t2KTYdc_11proc_macro211TokenStreamNtNtB2g_5token4PlusEEEE17try_new_uninit_inCs4u7P9VlF0C9_14thiserror_impl, symObjAddr: 0x1130, symBinAddr: 0x41B2C, symSize: 0x13C }
  - { offset: 0xDFE3F, size: 0x8, addend: 0x0, symName: __RNvMs_NtCsdFlNUEO95cG_5alloc5boxedINtB4_3BoxINtNtNtNtB6_11collections5btree4node8LeafNodeRNtCsfwj6t2KTYdc_11proc_macro25IdentNtNtBL_7set_val9SetValZSTEE13new_uninit_inCs4u7P9VlF0C9_14thiserror_impl, symObjAddr: 0x126C, symBinAddr: 0x41C68, symSize: 0x98 }
  - { offset: 0xDFF37, size: 0x8, addend: 0x0, symName: __RNvMs_NtCsdFlNUEO95cG_5alloc5boxedINtB4_3BoxINtNtNtNtB6_11collections5btree4node8LeafNodeRNtCsfwj6t2KTYdc_11proc_macro25IdentNtNtBL_7set_val9SetValZSTEE17try_new_uninit_inCs4u7P9VlF0C9_14thiserror_impl, symObjAddr: 0x1304, symBinAddr: 0x41D00, symSize: 0x13C }
  - { offset: 0xE0173, size: 0x8, addend: 0x0, symName: __RNvMs_NtCsdFlNUEO95cG_5alloc5boxedINtB4_3BoxINtNtNtNtB6_11collections5btree4node8LeafNodeTjNtNtCs4u7P9VlF0C9_14thiserror_impl4attr5TraitENtNtBL_7set_val9SetValZSTEE13new_uninit_inB1v_, symObjAddr: 0x1440, symBinAddr: 0x41E3C, symSize: 0x98 }
  - { offset: 0xE026B, size: 0x8, addend: 0x0, symName: __RNvMs_NtCsdFlNUEO95cG_5alloc5boxedINtB4_3BoxINtNtNtNtB6_11collections5btree4node8LeafNodeTjNtNtCs4u7P9VlF0C9_14thiserror_impl4attr5TraitENtNtBL_7set_val9SetValZSTEE17try_new_uninit_inB1v_, symObjAddr: 0x14D8, symBinAddr: 0x41ED4, symSize: 0x13C }
  - { offset: 0xE070B, size: 0x8, addend: 0x0, symName: __RNvXs6_NtCsdFlNUEO95cG_5alloc5boxedINtB5_3BoxDNtNtCs85QQFkKrybG_4core5error5ErrorNtNtBM_6marker4SyncNtB1j_4SendEL_ENtNtNtBM_3ops4drop4Drop4dropCs4u7P9VlF0C9_14thiserror_impl, symObjAddr: 0x2314, symBinAddr: 0x42CF4, symSize: 0xCC }
  - { offset: 0xE0846, size: 0x8, addend: 0x0, symName: __RNvXs6_NtCsdFlNUEO95cG_5alloc5boxedINtB5_3BoxINtNtCscwCr4GBBztI_3syn5drops6NoDropDINtNtBM_10punctuated9IterTraitNtNtBM_4data5FieldEp4ItemRB1M_EL_EENtNtNtCs85QQFkKrybG_4core3ops4drop4Drop4dropCs4u7P9VlF0C9_14thiserror_impl, symObjAddr: 0x23E0, symBinAddr: 0x42DC0, symSize: 0x120 }
  - { offset: 0xE0981, size: 0x8, addend: 0x0, symName: __RNvXs6_NtCsdFlNUEO95cG_5alloc5boxedINtB5_3BoxINtNtCscwCr4GBBztI_3syn5drops6NoDropDINtNtBM_10punctuated9IterTraitNtNtBM_4data7VariantEp4ItemRB1M_EL_EENtNtNtCs85QQFkKrybG_4core3ops4drop4Drop4dropCs4u7P9VlF0C9_14thiserror_impl, symObjAddr: 0x2500, symBinAddr: 0x42EE0, symSize: 0x120 }
  - { offset: 0xE0ABC, size: 0x8, addend: 0x0, symName: __RNvXs6_NtCsdFlNUEO95cG_5alloc5boxedINtB5_3BoxINtNtCscwCr4GBBztI_3syn5drops6NoDropDINtNtBM_10punctuated9IterTraitNtNtBM_4path15GenericArgumentEp4ItemRB1M_EL_EENtNtNtCs85QQFkKrybG_4core3ops4drop4Drop4dropCs4u7P9VlF0C9_14thiserror_impl, symObjAddr: 0x2620, symBinAddr: 0x43000, symSize: 0x120 }
  - { offset: 0xE0BF7, size: 0x8, addend: 0x0, symName: __RNvXs6_NtCsdFlNUEO95cG_5alloc5boxedINtB5_3BoxINtNtCscwCr4GBBztI_3syn5drops6NoDropDINtNtBM_10punctuated9IterTraitNtNtBM_8generics12GenericParamEp4ItemRB1M_EL_EENtNtNtCs85QQFkKrybG_4core3ops4drop4Drop4dropCs4u7P9VlF0C9_14thiserror_impl, symObjAddr: 0x2740, symBinAddr: 0x43120, symSize: 0x120 }
  - { offset: 0xE0D32, size: 0x8, addend: 0x0, symName: __RNvXs6_NtCsdFlNUEO95cG_5alloc5boxedINtB5_3BoxINtNtNtNtB7_11collections5btree4node12InternalNodeNtCsfwj6t2KTYdc_11proc_macro25IdentNtNtBM_7set_val9SetValZSTEENtNtNtCs85QQFkKrybG_4core3ops4drop4Drop4dropCs4u7P9VlF0C9_14thiserror_impl, symObjAddr: 0x2860, symBinAddr: 0x43240, symSize: 0xB8 }
  - { offset: 0xE0E6D, size: 0x8, addend: 0x0, symName: __RNvXs6_NtCsdFlNUEO95cG_5alloc5boxedINtB5_3BoxINtNtNtNtB7_11collections5btree4node12InternalNodeNtNtB7_6string6StringNtNtBM_7set_val9SetValZSTEENtNtNtCs85QQFkKrybG_4core3ops4drop4Drop4dropCs4u7P9VlF0C9_14thiserror_impl, symObjAddr: 0x2918, symBinAddr: 0x432F8, symSize: 0xB8 }
  - { offset: 0xE0FA8, size: 0x8, addend: 0x0, symName: __RNvXs6_NtCsdFlNUEO95cG_5alloc5boxedINtB5_3BoxINtNtNtNtB7_11collections5btree4node12InternalNodeNtNtB7_6string6StringTINtNtBM_3set8BTreeSetB1v_EINtNtCscwCr4GBBztI_3syn10punctuated10PunctuatedNtCsfwj6t2KTYdc_11proc_macro211TokenStreamNtNtB2m_5token4PlusEEEENtNtNtCs85QQFkKrybG_4core3ops4drop4Drop4dropCs4u7P9VlF0C9_14thiserror_impl, symObjAddr: 0x29D0, symBinAddr: 0x433B0, symSize: 0xB8 }
  - { offset: 0xE10E3, size: 0x8, addend: 0x0, symName: __RNvXs6_NtCsdFlNUEO95cG_5alloc5boxedINtB5_3BoxINtNtNtNtB7_11collections5btree4node12InternalNodeTjNtNtCs4u7P9VlF0C9_14thiserror_impl4attr5TraitENtNtBM_7set_val9SetValZSTEENtNtNtCs85QQFkKrybG_4core3ops4drop4Drop4dropB1B_, symObjAddr: 0x2B40, symBinAddr: 0x43468, symSize: 0xB8 }
  - { offset: 0xE121E, size: 0x8, addend: 0x0, symName: __RNvXs6_NtCsdFlNUEO95cG_5alloc5boxedINtB5_3BoxINtNtNtNtB7_11collections5btree4node8LeafNodeNtCsfwj6t2KTYdc_11proc_macro25IdentNtNtBM_7set_val9SetValZSTEENtNtNtCs85QQFkKrybG_4core3ops4drop4Drop4dropCs4u7P9VlF0C9_14thiserror_impl, symObjAddr: 0x2BF8, symBinAddr: 0x43520, symSize: 0xB8 }
  - { offset: 0xE1359, size: 0x8, addend: 0x0, symName: __RNvXs6_NtCsdFlNUEO95cG_5alloc5boxedINtB5_3BoxINtNtNtNtB7_11collections5btree4node8LeafNodeNtNtB7_6string6StringNtNtBM_7set_val9SetValZSTEENtNtNtCs85QQFkKrybG_4core3ops4drop4Drop4dropCs4u7P9VlF0C9_14thiserror_impl, symObjAddr: 0x2CB0, symBinAddr: 0x435D8, symSize: 0xB8 }
  - { offset: 0xE1494, size: 0x8, addend: 0x0, symName: __RNvXs6_NtCsdFlNUEO95cG_5alloc5boxedINtB5_3BoxINtNtNtNtB7_11collections5btree4node8LeafNodeNtNtB7_6string6StringTINtNtBM_3set8BTreeSetB1q_EINtNtCscwCr4GBBztI_3syn10punctuated10PunctuatedNtCsfwj6t2KTYdc_11proc_macro211TokenStreamNtNtB2h_5token4PlusEEEENtNtNtCs85QQFkKrybG_4core3ops4drop4Drop4dropCs4u7P9VlF0C9_14thiserror_impl, symObjAddr: 0x2D68, symBinAddr: 0x43690, symSize: 0xB8 }
  - { offset: 0xE15CF, size: 0x8, addend: 0x0, symName: __RNvXs6_NtCsdFlNUEO95cG_5alloc5boxedINtB5_3BoxINtNtNtNtB7_11collections5btree4node8LeafNodeTjNtNtCs4u7P9VlF0C9_14thiserror_impl4attr5TraitENtNtBM_7set_val9SetValZSTEENtNtNtCs85QQFkKrybG_4core3ops4drop4Drop4dropB1w_, symObjAddr: 0x2E20, symBinAddr: 0x43748, symSize: 0xB8 }
  - { offset: 0xE170A, size: 0x8, addend: 0x0, symName: __RNvXs6_NtCsdFlNUEO95cG_5alloc5boxedINtB5_3BoxNtCsfwj6t2KTYdc_11proc_macro211TokenStreamENtNtNtCs85QQFkKrybG_4core3ops4drop4Drop4dropCs4u7P9VlF0C9_14thiserror_impl, symObjAddr: 0x2ED8, symBinAddr: 0x43800, symSize: 0xB8 }
  - { offset: 0xE1845, size: 0x8, addend: 0x0, symName: __RNvXs6_NtCsdFlNUEO95cG_5alloc5boxedINtB5_3BoxNtNtNtCswz7ZwgBZOU_3std2io5error6CustomENtNtNtCs85QQFkKrybG_4core3ops4drop4Drop4dropCs4u7P9VlF0C9_14thiserror_impl, symObjAddr: 0x2F90, symBinAddr: 0x438B8, symSize: 0xB8 }
  - { offset: 0xE1986, size: 0x8, addend: 0x0, symName: __RNvXsC_NtCsdFlNUEO95cG_5alloc5boxedINtB5_3BoxNtCsfwj6t2KTYdc_11proc_macro211TokenStreamEINtNtCs85QQFkKrybG_4core7convert5AsRefBH_E6as_refCs4u7P9VlF0C9_14thiserror_impl, symObjAddr: 0x3048, symBinAddr: 0x43970, symSize: 0x18 }
  - { offset: 0xE261E, size: 0x8, addend: 0x0, symName: __RNvNtCsdFlNUEO95cG_5alloc3fmt6formatCs4u7P9VlF0C9_14thiserror_impl, symObjAddr: 0x1BD8, symBinAddr: 0x425D4, symSize: 0xD4 }
  - { offset: 0xE978B, size: 0x8, addend: 0x0, symName: __RINvMs3_NtNtCs9bTl5rSDVcL_10proc_macro6bridge6bufferNtB6_6Buffer17extend_from_arrayKj4_ECs4u7P9VlF0C9_14thiserror_impl, symObjAddr: 0x0, symBinAddr: 0x43A90, symSize: 0x16C }
  - { offset: 0xEE0B3, size: 0x8, addend: 0x0, symName: __RNvNvMsd_NtNtCs85QQFkKrybG_4core3num7nonzeroINtB7_7NonZeropE13new_unchecked18precondition_checkCs4u7P9VlF0C9_14thiserror_impl, symObjAddr: 0x2320, symBinAddr: 0x45DB0, symSize: 0x84 }
  - { offset: 0xEE58B, size: 0x8, addend: 0x0, symName: __RNCNvMs3_NtNtNtCs85QQFkKrybG_4core4iter8adapters8peekableINtB7_8PeekableINtNtB9_3map3MapINtNtNtBd_5slice4iter4IterNtNtCs4u7P9VlF0C9_14thiserror_impl3ast5FieldENCNvNtB1S_6expand10fields_pat0EE4peek0B1S_, symObjAddr: 0x179C, symBinAddr: 0x4522C, symSize: 0x24 }
  - { offset: 0xEE5C2, size: 0x8, addend: 0x0, symName: __RNCNvMs3_NtNtNtCs85QQFkKrybG_4core4iter8adapters8peekableINtB7_8PeekableINtNtB9_3map3MapINtNtNtCsdFlNUEO95cG_5alloc3vec9into_iter8IntoIterRNtCsfwj6t2KTYdc_11proc_macro25IdentENCINvMse_NtNtNtB1v_11collections5btree3setINtB2W_8BTreeSetB2c_E16from_sorted_iterB1o_E0EE4peek0Cs4u7P9VlF0C9_14thiserror_impl, symObjAddr: 0x17C0, symBinAddr: 0x45250, symSize: 0x24 }
  - { offset: 0xEE600, size: 0x8, addend: 0x0, symName: __RNvXs_NtNtNtCs85QQFkKrybG_4core4iter8adapters8peekableINtB4_8PeekableINtNtB6_3map3MapINtNtNtBa_5slice4iter4IterNtNtCs4u7P9VlF0C9_14thiserror_impl3ast5FieldENCNvNtB1P_6expand10fields_pat0EENtNtNtB8_6traits8iterator8Iterator4nextB1P_, symObjAddr: 0x30FC, symBinAddr: 0x46B8C, symSize: 0x78 }
  - { offset: 0xEE69F, size: 0x8, addend: 0x0, symName: __RINvYINtNtNtNtCs85QQFkKrybG_4core4iter8adapters8peekable8PeekableINtNtB8_3map3MapINtNtNtBc_5slice4iter4IterNtNtCs4u7P9VlF0C9_14thiserror_impl3ast5FieldENCNvNtB1L_6expand10fields_pat0EENtNtNtBa_6traits8iterator8Iterator3mapNtCsfwj6t2KTYdc_11proc_macro25IdentNCB2s_s_0EB1L_, symObjAddr: 0x1524, symBinAddr: 0x44FB4, symSize: 0x1C }
  - { offset: 0xEEA0B, size: 0x8, addend: 0x0, symName: __RNvXs5_NtNtCs9bTl5rSDVcL_10proc_macro6bridge6bufferNtB5_6BufferNtNtNtCs85QQFkKrybG_4core3ops4drop4Drop4dropCs4u7P9VlF0C9_14thiserror_impl, symObjAddr: 0x2C50, symBinAddr: 0x466E0, symSize: 0x8C }
  - { offset: 0xEEE51, size: 0x8, addend: 0x0, symName: __RNvXs7_NtNtCs9bTl5rSDVcL_10proc_macro6bridge3rpcINtNtNtCs85QQFkKrybG_4core3num7nonzero7NonZeromEINtB5_9DecodeMutuE6decodeCs4u7P9VlF0C9_14thiserror_impl, symObjAddr: 0x2D6C, symBinAddr: 0x467FC, symSize: 0x5C }
  - { offset: 0xEF2F1, size: 0x8, addend: 0x0, symName: __RINvXs8_NtCsfwj6t2KTYdc_11proc_macro28fallbackNtB6_11TokenStreamINtNtNtNtCs85QQFkKrybG_4core4iter6traits7collect12FromIteratorNtB8_9TokenTreeE9from_iterINtNtNtCsdFlNUEO95cG_5alloc3vec9into_iter8IntoIterB20_EECs4u7P9VlF0C9_14thiserror_impl, symObjAddr: 0x11E8, symBinAddr: 0x44C78, symSize: 0xC8 }
  - { offset: 0xEF345, size: 0x8, addend: 0x0, symName: __RINvXsa_NtCsfwj6t2KTYdc_11proc_macro28fallbackNtB6_11TokenStreamINtNtNtNtCs85QQFkKrybG_4core4iter6traits7collect6ExtendNtB8_9TokenTreeE6extendINtNtNtCsdFlNUEO95cG_5alloc3vec9into_iter8IntoIterB1T_EECs4u7P9VlF0C9_14thiserror_impl, symObjAddr: 0x12B0, symBinAddr: 0x44D40, symSize: 0xC0 }
  - { offset: 0xEF3A6, size: 0x8, addend: 0x0, symName: __RINvXsa_NtCsfwj6t2KTYdc_11proc_macro28fallbackNtB6_11TokenStreamINtNtNtNtCs85QQFkKrybG_4core4iter6traits7collect6ExtendNtB8_9TokenTreeE6extendNtB8_11TokenStreamECs4u7P9VlF0C9_14thiserror_impl, symObjAddr: 0x1370, symBinAddr: 0x44E00, symSize: 0xC0 }
  - { offset: 0xEF40C, size: 0x8, addend: 0x0, symName: __RNCINvXsa_NtCsfwj6t2KTYdc_11proc_macro28fallbackNtB8_11TokenStreamINtNtNtNtCs85QQFkKrybG_4core4iter6traits7collect6ExtendNtBa_9TokenTreeE6extendINtNtNtCsdFlNUEO95cG_5alloc3vec9into_iter8IntoIterB1V_EE0Cs4u7P9VlF0C9_14thiserror_impl, symObjAddr: 0x1644, symBinAddr: 0x450D4, symSize: 0xAC }
  - { offset: 0xEF452, size: 0x8, addend: 0x0, symName: __RNCINvXsa_NtCsfwj6t2KTYdc_11proc_macro28fallbackNtB8_11TokenStreamINtNtNtNtCs85QQFkKrybG_4core4iter6traits7collect6ExtendNtBa_9TokenTreeE6extendNtBa_11TokenStreamE0Cs4u7P9VlF0C9_14thiserror_impl, symObjAddr: 0x16F0, symBinAddr: 0x45180, symSize: 0xAC }
  - { offset: 0xEF49F, size: 0x8, addend: 0x0, symName: __RNvXsA_NtCsfwj6t2KTYdc_11proc_macro28fallbackNtB5_5IdentNtNtCs85QQFkKrybG_4core5clone5Clone5cloneCs4u7P9VlF0C9_14thiserror_impl, symObjAddr: 0x2EDC, symBinAddr: 0x4696C, symSize: 0x94 }
  - { offset: 0xEF4D3, size: 0x8, addend: 0x0, symName: __RNvXss_NtCsfwj6t2KTYdc_11proc_macro28fallbackNtB5_11TokenStreamNtNtCs85QQFkKrybG_4core5clone5Clone5cloneCs4u7P9VlF0C9_14thiserror_impl, symObjAddr: 0x3650, symBinAddr: 0x470E0, symSize: 0x24 }
  - { offset: 0xEF505, size: 0x8, addend: 0x0, symName: __RNvXsu_NtCsfwj6t2KTYdc_11proc_macro28fallbackNtB5_4SpanNtNtCs85QQFkKrybG_4core5clone5Clone5cloneCs4u7P9VlF0C9_14thiserror_impl, symObjAddr: 0x3674, symBinAddr: 0x47104, symSize: 0x10 }
  - { offset: 0xEFAA9, size: 0x8, addend: 0x0, symName: __RINvMs3_NtNtCs9bTl5rSDVcL_10proc_macro6bridge6bufferNtB6_6Buffer17extend_from_arrayKj4_ECs4u7P9VlF0C9_14thiserror_impl, symObjAddr: 0x0, symBinAddr: 0x43A90, symSize: 0x16C }
  - { offset: 0xEFC31, size: 0x8, addend: 0x0, symName: __RINvMs3_NtNtCs9bTl5rSDVcL_10proc_macro6bridge6bufferNtB6_6Buffer17extend_from_arrayKj8_ECs4u7P9VlF0C9_14thiserror_impl, symObjAddr: 0x16C, symBinAddr: 0x43BFC, symSize: 0x16C }
  - { offset: 0xF1B84, size: 0x8, addend: 0x0, symName: __RINvXsd_NtCsdFlNUEO95cG_5alloc3vecINtB6_3VecNtCsfwj6t2KTYdc_11proc_macro211TokenStreamEINtNtNtNtCs85QQFkKrybG_4core4iter6traits7collect12FromIteratorBG_E9from_iterINtNtNtB1u_8adapters3map3MapINtNtNtB1w_5slice4iter4IterNtNtCs4u7P9VlF0C9_14thiserror_impl3ast7VariantENCNvNtB3y_6expand9impl_enums1_0EEB3y_, symObjAddr: 0x1430, symBinAddr: 0x44EC0, symSize: 0x3C }
  - { offset: 0xF1BC5, size: 0x8, addend: 0x0, symName: __RINvXsd_NtCsdFlNUEO95cG_5alloc3vecINtB6_3VecNtNtCs4u7P9VlF0C9_14thiserror_impl3ast5FieldEINtNtNtNtCs85QQFkKrybG_4core4iter6traits7collect12FromIteratorBG_E9from_iterINtNtB1w_8adapters12GenericShuntINtNtB2G_3map3MapINtNtB2G_9enumerate9EnumerateINtNtCscwCr4GBBztI_3syn10punctuated4IterNtNtB3Y_4data5FieldEENCNvMs2_BI_BG_17multiple_from_syn0EINtNtB1y_6result6ResultNtNtB1y_7convert10InfallibleNtNtB3Y_5error5ErrorEEEBK_, symObjAddr: 0x146C, symBinAddr: 0x44EFC, symSize: 0x3C }
  - { offset: 0xF1C06, size: 0x8, addend: 0x0, symName: __RINvXsd_NtCsdFlNUEO95cG_5alloc3vecINtB6_3VecNtNtCs4u7P9VlF0C9_14thiserror_impl3ast7VariantEINtNtNtNtCs85QQFkKrybG_4core4iter6traits7collect12FromIteratorBG_E9from_iterINtNtB1y_8adapters12GenericShuntINtNtB2I_3map3MapINtNtCscwCr4GBBztI_3syn10punctuated4IterNtNtB3x_4data7VariantENCNvMs0_BI_NtBI_4Enum8from_syn0EINtNtB1A_6result6ResultNtNtB1A_7convert10InfallibleNtNtB3x_5error5ErrorEEEBK_, symObjAddr: 0x14A8, symBinAddr: 0x44F38, symSize: 0x3C }
  - { offset: 0xF1C47, size: 0x8, addend: 0x0, symName: __RINvXsd_NtCsdFlNUEO95cG_5alloc3vecINtB6_3VecRNtCsfwj6t2KTYdc_11proc_macro25IdentEINtNtNtNtCs85QQFkKrybG_4core4iter6traits7collect12FromIteratorBG_E9from_iterINtNtNtB1o_8adapters3map3MapNtNtCscwCr4GBBztI_3syn8generics10TypeParamsNCNvMNtCs4u7P9VlF0C9_14thiserror_impl8genericsNtB3J_13ParamsInScope3new0EEB3L_, symObjAddr: 0x14E4, symBinAddr: 0x44F74, symSize: 0x40 }
  - { offset: 0xF1C92, size: 0x8, addend: 0x0, symName: __RNCINvMsi_NtCsdFlNUEO95cG_5alloc3vecINtB8_3VecNtCsfwj6t2KTYdc_11proc_macro211TokenStreamE14extend_trustedINtNtNtNtCs85QQFkKrybG_4core4iter8adapters3map3MapINtNtNtB1O_5slice4iter4IterNtNtCs4u7P9VlF0C9_14thiserror_impl3ast7VariantENCNvNtB2Y_6expand9impl_enums1_0EE0B2Y_, symObjAddr: 0x1540, symBinAddr: 0x44FD0, symSize: 0x3C }
  - { offset: 0xF1D53, size: 0x8, addend: 0x0, symName: __RNvNvMs_NtCsdFlNUEO95cG_5alloc3vecINtB6_3VecppE7set_len18precondition_checkCs4u7P9VlF0C9_14thiserror_impl, symObjAddr: 0x2274, symBinAddr: 0x45D04, symSize: 0xAC }
  - { offset: 0xF1DC7, size: 0x8, addend: 0x0, symName: __RNvXNtNtCsdFlNUEO95cG_5alloc3vec11spec_extendINtB4_3VecNtNtCs4u7P9VlF0C9_14thiserror_impl3ast5FieldEINtB2_10SpecExtendBR_INtNtNtCs85QQFkKrybG_4core4iter8adapters12GenericShuntINtNtB1Y_3map3MapINtNtB1Y_9enumerate9EnumerateINtNtCscwCr4GBBztI_3syn10punctuated4IterNtNtB3C_4data5FieldEENCNvMs2_BT_BR_17multiple_from_syn0EINtNtB22_6result6ResultNtNtB22_7convert10InfallibleNtNtB3C_5error5ErrorEEE11spec_extendBV_, symObjAddr: 0x23A4, symBinAddr: 0x45E34, symSize: 0x24 }
  - { offset: 0xF1E19, size: 0x8, addend: 0x0, symName: __RNvXNtNtCsdFlNUEO95cG_5alloc3vec11spec_extendINtB4_3VecNtNtCs4u7P9VlF0C9_14thiserror_impl3ast7VariantEINtB2_10SpecExtendBR_INtNtNtCs85QQFkKrybG_4core4iter8adapters12GenericShuntINtNtB20_3map3MapINtNtCscwCr4GBBztI_3syn10punctuated4IterNtNtB3b_4data7VariantENCNvMs0_BT_NtBT_4Enum8from_syn0EINtNtB24_6result6ResultNtNtB24_7convert10InfallibleNtNtB3b_5error5ErrorEEE11spec_extendBV_, symObjAddr: 0x23C8, symBinAddr: 0x45E58, symSize: 0x24 }
  - { offset: 0xF1E6B, size: 0x8, addend: 0x0, symName: __RNvXNtNtCsdFlNUEO95cG_5alloc3vec11spec_extendINtB4_3VecRNtCsfwj6t2KTYdc_11proc_macro25IdentEINtB2_10SpecExtendBR_INtNtNtNtCs85QQFkKrybG_4core4iter8adapters3map3MapNtNtCscwCr4GBBztI_3syn8generics10TypeParamsNCNvMNtCs4u7P9VlF0C9_14thiserror_impl8genericsNtB3n_13ParamsInScope3new0EE11spec_extendB3p_, symObjAddr: 0x23EC, symBinAddr: 0x45E7C, symSize: 0x34 }
  - { offset: 0xF1EC2, size: 0x8, addend: 0x0, symName: __RNvXs_NtNtCsdFlNUEO95cG_5alloc3vec11spec_extendINtB6_3VecNtCsfwj6t2KTYdc_11proc_macro211TokenStreamEINtB4_10SpecExtendBT_INtNtNtNtCs85QQFkKrybG_4core4iter8adapters3map3MapINtNtNtB24_5slice4iter4IterNtNtCs4u7P9VlF0C9_14thiserror_impl3ast7VariantENCNvNtB3e_6expand9impl_enums1_0EE11spec_extendB3e_, symObjAddr: 0x2F70, symBinAddr: 0x46A00, symSize: 0x24 }
  - { offset: 0xF1F20, size: 0x8, addend: 0x0, symName: __RNvXNtNtCsdFlNUEO95cG_5alloc3vec14spec_from_iterINtB4_3VecNtCsfwj6t2KTYdc_11proc_macro211TokenStreamEINtB2_12SpecFromIterBU_INtNtNtNtCs85QQFkKrybG_4core4iter8adapters3map3MapINtNtNtB27_5slice4iter4IterNtNtCs4u7P9VlF0C9_14thiserror_impl3ast7VariantENCNvNtB3h_6expand9impl_enums1_0EE9from_iterB3h_, symObjAddr: 0x2420, symBinAddr: 0x45EB0, symSize: 0x14 }
  - { offset: 0xF1F5F, size: 0x8, addend: 0x0, symName: __RNvXNtNtCsdFlNUEO95cG_5alloc3vec14spec_from_iterINtB4_3VecNtNtCs4u7P9VlF0C9_14thiserror_impl3ast5FieldEINtB2_12SpecFromIterBU_INtNtNtCs85QQFkKrybG_4core4iter8adapters12GenericShuntINtNtB23_3map3MapINtNtB23_9enumerate9EnumerateINtNtCscwCr4GBBztI_3syn10punctuated4IterNtNtB3H_4data5FieldEENCNvMs2_BW_BU_17multiple_from_syn0EINtNtB27_6result6ResultNtNtB27_7convert10InfallibleNtNtB3H_5error5ErrorEEE9from_iterBY_, symObjAddr: 0x2434, symBinAddr: 0x45EC4, symSize: 0x14 }
  - { offset: 0xF1F9E, size: 0x8, addend: 0x0, symName: __RNvXNtNtCsdFlNUEO95cG_5alloc3vec14spec_from_iterINtB4_3VecNtNtCs4u7P9VlF0C9_14thiserror_impl3ast7VariantEINtB2_12SpecFromIterBU_INtNtNtCs85QQFkKrybG_4core4iter8adapters12GenericShuntINtNtB25_3map3MapINtNtCscwCr4GBBztI_3syn10punctuated4IterNtNtB3g_4data7VariantENCNvMs0_BW_NtBW_4Enum8from_syn0EINtNtB29_6result6ResultNtNtB29_7convert10InfallibleNtNtB3g_5error5ErrorEEE9from_iterBY_, symObjAddr: 0x2448, symBinAddr: 0x45ED8, symSize: 0x14 }
  - { offset: 0xF1FDD, size: 0x8, addend: 0x0, symName: __RNvXNtNtCsdFlNUEO95cG_5alloc3vec14spec_from_iterINtB4_3VecRNtCsfwj6t2KTYdc_11proc_macro25IdentEINtB2_12SpecFromIterBU_INtNtNtNtCs85QQFkKrybG_4core4iter8adapters3map3MapNtNtCscwCr4GBBztI_3syn8generics10TypeParamsNCNvMNtCs4u7P9VlF0C9_14thiserror_impl8genericsNtB3s_13ParamsInScope3new0EE9from_iterB3u_, symObjAddr: 0x245C, symBinAddr: 0x45EEC, symSize: 0x2C }
  - { offset: 0xF2027, size: 0x8, addend: 0x0, symName: __RNvXNtNtCsdFlNUEO95cG_5alloc3vec21spec_from_iter_nestedINtB4_3VecNtNtCs4u7P9VlF0C9_14thiserror_impl3ast5FieldEINtB2_18SpecFromIterNestedB11_INtNtNtCs85QQFkKrybG_4core4iter8adapters12GenericShuntINtNtB2h_3map3MapINtNtB2h_9enumerate9EnumerateINtNtCscwCr4GBBztI_3syn10punctuated4IterNtNtB3V_4data5FieldEENCNvMs2_B13_B11_17multiple_from_syn0EINtNtB2l_6result6ResultNtNtB2l_7convert10InfallibleNtNtB3V_5error5ErrorEEE9from_iterB15_, symObjAddr: 0x2488, symBinAddr: 0x45F18, symSize: 0x29C }
  - { offset: 0xF22E1, size: 0x8, addend: 0x0, symName: __RNvXNtNtCsdFlNUEO95cG_5alloc3vec21spec_from_iter_nestedINtB4_3VecNtNtCs4u7P9VlF0C9_14thiserror_impl3ast7VariantEINtB2_18SpecFromIterNestedB11_INtNtNtCs85QQFkKrybG_4core4iter8adapters12GenericShuntINtNtB2j_3map3MapINtNtCscwCr4GBBztI_3syn10punctuated4IterNtNtB3u_4data7VariantENCNvMs0_B13_NtB13_4Enum8from_syn0EINtNtB2n_6result6ResultNtNtB2n_7convert10InfallibleNtNtB3u_5error5ErrorEEE9from_iterB15_, symObjAddr: 0x2724, symBinAddr: 0x461B4, symSize: 0x298 }
  - { offset: 0xF259B, size: 0x8, addend: 0x0, symName: __RNvXNtNtCsdFlNUEO95cG_5alloc3vec21spec_from_iter_nestedINtB4_3VecRNtCsfwj6t2KTYdc_11proc_macro25IdentEINtB2_18SpecFromIterNestedB11_INtNtNtNtCs85QQFkKrybG_4core4iter8adapters3map3MapNtNtCscwCr4GBBztI_3syn8generics10TypeParamsNCNvMNtCs4u7P9VlF0C9_14thiserror_impl8genericsNtB3G_13ParamsInScope3new0EE9from_iterB3I_, symObjAddr: 0x29BC, symBinAddr: 0x4644C, symSize: 0x250 }
  - { offset: 0xF285B, size: 0x8, addend: 0x0, symName: __RNvXs_NtNtCsdFlNUEO95cG_5alloc3vec21spec_from_iter_nestedINtB6_3VecNtCsfwj6t2KTYdc_11proc_macro211TokenStreamEINtB4_18SpecFromIterNestedB13_INtNtNtNtCs85QQFkKrybG_4core4iter8adapters3map3MapINtNtNtB2n_5slice4iter4IterNtNtCs4u7P9VlF0C9_14thiserror_impl3ast7VariantENCNvNtB3x_6expand9impl_enums1_0EE9from_iterB3x_, symObjAddr: 0x2F94, symBinAddr: 0x46A24, symSize: 0x168 }
  - { offset: 0xF2939, size: 0x8, addend: 0x0, symName: __RNvXs6_NtCsdFlNUEO95cG_5alloc3vecINtB5_3VecNtCsfwj6t2KTYdc_11proc_macro211TokenStreamENtNtNtCs85QQFkKrybG_4core3ops5deref5Deref5derefCs4u7P9VlF0C9_14thiserror_impl, symObjAddr: 0x2CDC, symBinAddr: 0x4676C, symSize: 0x24 }
  - { offset: 0xF2979, size: 0x8, addend: 0x0, symName: __RNvXs6_NtCsdFlNUEO95cG_5alloc3vecINtB5_3VecNtNtCs4u7P9VlF0C9_14thiserror_impl3ast5FieldENtNtNtCs85QQFkKrybG_4core3ops5deref5Deref5derefBJ_, symObjAddr: 0x2D00, symBinAddr: 0x46790, symSize: 0x24 }
  - { offset: 0xF29B9, size: 0x8, addend: 0x0, symName: __RNvXs6_NtCsdFlNUEO95cG_5alloc3vecINtB5_3VecNtNtCs4u7P9VlF0C9_14thiserror_impl3ast7VariantENtNtNtCs85QQFkKrybG_4core3ops5deref5Deref5derefBJ_, symObjAddr: 0x2D24, symBinAddr: 0x467B4, symSize: 0x24 }
  - { offset: 0xF29F9, size: 0x8, addend: 0x0, symName: __RNvXs6_NtCsdFlNUEO95cG_5alloc3vecINtB5_3VecTNtCsfwj6t2KTYdc_11proc_macro211TokenStreamNtNtCscwCr4GBBztI_3syn5token4PlusEENtNtNtCs85QQFkKrybG_4core3ops5deref5Deref5derefCs4u7P9VlF0C9_14thiserror_impl, symObjAddr: 0x2D48, symBinAddr: 0x467D8, symSize: 0x24 }
  - { offset: 0xF2B2F, size: 0x8, addend: 0x0, symName: __RNvXsb_NtCsdFlNUEO95cG_5alloc3vecINtB5_3VecNtNtCs4u7P9VlF0C9_14thiserror_impl3ast5FieldEINtNtNtCs85QQFkKrybG_4core3ops5index5IndexjE5indexBJ_, symObjAddr: 0x3174, symBinAddr: 0x46C04, symSize: 0x8C }
  - { offset: 0xF2CB1, size: 0x8, addend: 0x0, symName: __RNvXsb_NtCsdFlNUEO95cG_5alloc3vecINtB5_3VecTNtNtCscwCr4GBBztI_3syn4path15GenericArgumentNtNtBK_5token5CommaEEINtNtNtCs85QQFkKrybG_4core3ops5index5IndexjE5indexCs4u7P9VlF0C9_14thiserror_impl, symObjAddr: 0x3200, symBinAddr: 0x46C90, symSize: 0x8C }
  - { offset: 0xF2E39, size: 0x8, addend: 0x0, symName: __RNvXse_NtCsdFlNUEO95cG_5alloc3vecINtB5_3VecRNtCsfwj6t2KTYdc_11proc_macro25IdentENtNtNtNtCs85QQFkKrybG_4core4iter6traits7collect12IntoIterator9into_iterCs4u7P9VlF0C9_14thiserror_impl, symObjAddr: 0x328C, symBinAddr: 0x46D1C, symSize: 0xDC }
  - { offset: 0xF30D1, size: 0x8, addend: 0x0, symName: __RNvXsf_NtCsdFlNUEO95cG_5alloc3vecRINtB5_3VecNtCsfwj6t2KTYdc_11proc_macro211TokenStreamENtNtNtNtCs85QQFkKrybG_4core4iter6traits7collect12IntoIterator9into_iterCs4u7P9VlF0C9_14thiserror_impl, symObjAddr: 0x3368, symBinAddr: 0x46DF8, symSize: 0x9C }
  - { offset: 0xF32FE, size: 0x8, addend: 0x0, symName: __RNvXsf_NtCsdFlNUEO95cG_5alloc3vecRINtB5_3VecNtNtCs4u7P9VlF0C9_14thiserror_impl3ast5FieldENtNtNtNtCs85QQFkKrybG_4core4iter6traits7collect12IntoIterator9into_iterBK_, symObjAddr: 0x3404, symBinAddr: 0x46E94, symSize: 0xA4 }
  - { offset: 0xF352B, size: 0x8, addend: 0x0, symName: __RNvXsf_NtCsdFlNUEO95cG_5alloc3vecRINtB5_3VecNtNtCs4u7P9VlF0C9_14thiserror_impl3ast7VariantENtNtNtNtCs85QQFkKrybG_4core4iter6traits7collect12IntoIterator9into_iterBK_, symObjAddr: 0x34A8, symBinAddr: 0x46F38, symSize: 0xA4 }
  - { offset: 0xF375E, size: 0x8, addend: 0x0, symName: __RNvXsn_NtCsdFlNUEO95cG_5alloc3vecINtB5_3VecNtCsfwj6t2KTYdc_11proc_macro211TokenStreamENtNtNtCs85QQFkKrybG_4core3ops4drop4Drop4dropCs4u7P9VlF0C9_14thiserror_impl, symObjAddr: 0x354C, symBinAddr: 0x46FDC, symSize: 0x38 }
  - { offset: 0xF380E, size: 0x8, addend: 0x0, symName: __RNvXsn_NtCsdFlNUEO95cG_5alloc3vecINtB5_3VecNtNtCs4u7P9VlF0C9_14thiserror_impl3ast5FieldENtNtNtCs85QQFkKrybG_4core3ops4drop4Drop4dropBJ_, symObjAddr: 0x3584, symBinAddr: 0x47014, symSize: 0x38 }
  - { offset: 0xF38BE, size: 0x8, addend: 0x0, symName: __RNvXsn_NtCsdFlNUEO95cG_5alloc3vecINtB5_3VecNtNtCs4u7P9VlF0C9_14thiserror_impl3ast7VariantENtNtNtCs85QQFkKrybG_4core3ops4drop4Drop4dropBJ_, symObjAddr: 0x35BC, symBinAddr: 0x4704C, symSize: 0x38 }
  - { offset: 0xF396E, size: 0x8, addend: 0x0, symName: __RNvXsn_NtCsdFlNUEO95cG_5alloc3vecINtB5_3VecRNtCsfwj6t2KTYdc_11proc_macro25IdentENtNtNtCs85QQFkKrybG_4core3ops4drop4Drop4dropCs4u7P9VlF0C9_14thiserror_impl, symObjAddr: 0x35F4, symBinAddr: 0x47084, symSize: 0x24 }
  - { offset: 0xF3A1E, size: 0x8, addend: 0x0, symName: __RNvXsn_NtCsdFlNUEO95cG_5alloc3vecINtB5_3VecTNtCsfwj6t2KTYdc_11proc_macro211TokenStreamNtNtCscwCr4GBBztI_3syn5token4PlusEENtNtNtCs85QQFkKrybG_4core3ops4drop4Drop4dropCs4u7P9VlF0C9_14thiserror_impl, symObjAddr: 0x3618, symBinAddr: 0x470A8, symSize: 0x38 }
  - { offset: 0xF4955, size: 0x8, addend: 0x0, symName: __RINvNtNtNtCsdFlNUEO95cG_5alloc11collections5btree3mem7replaceINtNtB4_4node6HandleINtB10_7NodeRefNtNtB10_6marker5DyingNtCsfwj6t2KTYdc_11proc_macro25IdentNtNtB4_7set_val9SetValZSTNtB1y_4LeafENtB1y_4EdgeEIBY_IB1i_B1w_B1R_B2q_NtB1y_14LeafOrInternalENtB1y_2KVENCINvMsm_NtB4_8navigateBX_27deallocating_next_uncheckedNtNtB8_5alloc6GlobalE0ECs4u7P9VlF0C9_14thiserror_impl, symObjAddr: 0xA5C, symBinAddr: 0x444EC, symSize: 0xCC }
  - { offset: 0xF4A45, size: 0x8, addend: 0x0, symName: __RINvNtNtNtCsdFlNUEO95cG_5alloc11collections5btree3mem7replaceINtNtB4_4node6HandleINtB10_7NodeRefNtNtB10_6marker5DyingNtNtB8_6string6StringNtNtB4_7set_val9SetValZSTNtB1y_4LeafENtB1y_4EdgeEIBY_IB1i_B1w_B1R_B2c_NtB1y_14LeafOrInternalENtB1y_2KVENCINvMsm_NtB4_8navigateBX_27deallocating_next_uncheckedNtNtB8_5alloc6GlobalE0ECs4u7P9VlF0C9_14thiserror_impl, symObjAddr: 0xB28, symBinAddr: 0x445B8, symSize: 0xCC }
  - { offset: 0xF4B35, size: 0x8, addend: 0x0, symName: __RINvNtNtNtCsdFlNUEO95cG_5alloc11collections5btree3mem7replaceINtNtB4_4node6HandleINtB10_7NodeRefNtNtB10_6marker5DyingNtNtB8_6string6StringTINtNtB4_3set8BTreeSetB1R_EINtNtCscwCr4GBBztI_3syn10punctuated10PunctuatedNtCsfwj6t2KTYdc_11proc_macro211TokenStreamNtNtB2I_5token4PlusEENtB1y_4LeafENtB1y_4EdgeEIBY_IB1i_B1w_B1R_B2c_NtB1y_14LeafOrInternalENtB1y_2KVENCINvMsm_NtB4_8navigateBX_27deallocating_next_uncheckedNtNtB8_5alloc6GlobalE0ECs4u7P9VlF0C9_14thiserror_impl, symObjAddr: 0xBF4, symBinAddr: 0x44684, symSize: 0xCC }
  - { offset: 0xF4C25, size: 0x8, addend: 0x0, symName: __RINvNtNtNtCsdFlNUEO95cG_5alloc11collections5btree3mem7replaceINtNtB4_4node6HandleINtB10_7NodeRefNtNtB10_6marker5DyingRNtCsfwj6t2KTYdc_11proc_macro25IdentNtNtB4_7set_val9SetValZSTNtB1y_4LeafENtB1y_4EdgeEIBY_IB1i_B1w_B1R_B2r_NtB1y_14LeafOrInternalENtB1y_2KVENCINvMsm_NtB4_8navigateBX_27deallocating_next_uncheckedNtNtB8_5alloc6GlobalE0ECs4u7P9VlF0C9_14thiserror_impl, symObjAddr: 0xCC0, symBinAddr: 0x44750, symSize: 0xCC }
  - { offset: 0xF4D15, size: 0x8, addend: 0x0, symName: __RINvNtNtNtCsdFlNUEO95cG_5alloc11collections5btree3mem7replaceINtNtB4_4node6HandleINtB10_7NodeRefNtNtB10_6marker5DyingTjNtNtCs4u7P9VlF0C9_14thiserror_impl4attr5TraitENtNtB4_7set_val9SetValZSTNtB1y_4LeafENtB1y_4EdgeEIBY_IB1i_B1w_B1R_B2D_NtB1y_14LeafOrInternalENtB1y_2KVENCINvMsm_NtB4_8navigateBX_27deallocating_next_uncheckedNtNtB8_5alloc6GlobalE0EB1X_, symObjAddr: 0xD8C, symBinAddr: 0x4481C, symSize: 0xCC }
  - { offset: 0xF4E05, size: 0x8, addend: 0x0, symName: __RINvNtNtNtCsdFlNUEO95cG_5alloc11collections5btree3mem7replaceINtNtB4_4node7NodeRefNtNtB10_6marker5OwnedNtCsfwj6t2KTYdc_11proc_macro25IdentNtNtB4_7set_val9SetValZSTNtB1k_14LeafOrInternalEuNCINvB2_8take_mutBX_NCINvMss_B10_BX_19push_internal_levelNtNtB8_5alloc6GlobalE0E0ECs4u7P9VlF0C9_14thiserror_impl, symObjAddr: 0xE58, symBinAddr: 0x448E8, symSize: 0x90 }
  - { offset: 0xF4EEE, size: 0x8, addend: 0x0, symName: __RINvNtNtNtCsdFlNUEO95cG_5alloc11collections5btree3mem7replaceINtNtB4_4node7NodeRefNtNtB10_6marker5OwnedNtNtB8_6string6StringNtNtB4_7set_val9SetValZSTNtB1k_14LeafOrInternalEuNCINvB2_8take_mutBX_NCINvMss_B10_BX_19push_internal_levelNtNtB8_5alloc6GlobalE0E0ECs4u7P9VlF0C9_14thiserror_impl, symObjAddr: 0xEE8, symBinAddr: 0x44978, symSize: 0x90 }
  - { offset: 0xF4FD7, size: 0x8, addend: 0x0, symName: __RINvNtNtNtCsdFlNUEO95cG_5alloc11collections5btree3mem7replaceINtNtB4_4node7NodeRefNtNtB10_6marker5OwnedNtNtB8_6string6StringTINtNtB4_3set8BTreeSetB1D_EINtNtCscwCr4GBBztI_3syn10punctuated10PunctuatedNtCsfwj6t2KTYdc_11proc_macro211TokenStreamNtNtB2u_5token4PlusEENtB1k_14LeafOrInternalEuNCINvB2_8take_mutBX_NCINvMss_B10_BX_19push_internal_levelNtNtB8_5alloc6GlobalE0E0ECs4u7P9VlF0C9_14thiserror_impl, symObjAddr: 0xF78, symBinAddr: 0x44A08, symSize: 0x90 }
  - { offset: 0xF50C0, size: 0x8, addend: 0x0, symName: __RINvNtNtNtCsdFlNUEO95cG_5alloc11collections5btree3mem7replaceINtNtB4_4node7NodeRefNtNtB10_6marker5OwnedRNtCsfwj6t2KTYdc_11proc_macro25IdentNtNtB4_7set_val9SetValZSTNtB1k_14LeafOrInternalEuNCINvB2_8take_mutBX_NCINvMss_B10_BX_19push_internal_levelNtNtB8_5alloc6GlobalE0E0ECs4u7P9VlF0C9_14thiserror_impl, symObjAddr: 0x1008, symBinAddr: 0x44A98, symSize: 0x90 }
  - { offset: 0xF51A9, size: 0x8, addend: 0x0, symName: __RINvNtNtNtCsdFlNUEO95cG_5alloc11collections5btree3mem7replaceINtNtB4_4node7NodeRefNtNtB10_6marker5OwnedTjNtNtCs4u7P9VlF0C9_14thiserror_impl4attr5TraitENtNtB4_7set_val9SetValZSTNtB1k_14LeafOrInternalEuNCINvB2_8take_mutBX_NCINvMss_B10_BX_19push_internal_levelNtNtB8_5alloc6GlobalE0E0EB1J_, symObjAddr: 0x1098, symBinAddr: 0x44B28, symSize: 0x90 }
  - { offset: 0xF5297, size: 0x8, addend: 0x0, symName: __RNCINvNtNtNtCsdFlNUEO95cG_5alloc11collections5btree3mem8take_mutINtNtB6_4node7NodeRefNtNtB13_6marker5OwnedNtCsfwj6t2KTYdc_11proc_macro25IdentNtNtB6_7set_val9SetValZSTNtB1n_14LeafOrInternalENCINvMss_B13_B10_19push_internal_levelNtNtBa_5alloc6GlobalE0E0Cs4u7P9VlF0C9_14thiserror_impl, symObjAddr: 0x157C, symBinAddr: 0x4500C, symSize: 0x28 }
  - { offset: 0xF52E4, size: 0x8, addend: 0x0, symName: __RNCINvNtNtNtCsdFlNUEO95cG_5alloc11collections5btree3mem8take_mutINtNtB6_4node7NodeRefNtNtB13_6marker5OwnedNtNtBa_6string6StringNtNtB6_7set_val9SetValZSTNtB1n_14LeafOrInternalENCINvMss_B13_B10_19push_internal_levelNtNtBa_5alloc6GlobalE0E0Cs4u7P9VlF0C9_14thiserror_impl, symObjAddr: 0x15A4, symBinAddr: 0x45034, symSize: 0x28 }
  - { offset: 0xF5331, size: 0x8, addend: 0x0, symName: __RNCINvNtNtNtCsdFlNUEO95cG_5alloc11collections5btree3mem8take_mutINtNtB6_4node7NodeRefNtNtB13_6marker5OwnedNtNtBa_6string6StringTINtNtB6_3set8BTreeSetB1G_EINtNtCscwCr4GBBztI_3syn10punctuated10PunctuatedNtCsfwj6t2KTYdc_11proc_macro211TokenStreamNtNtB2x_5token4PlusEENtB1n_14LeafOrInternalENCINvMss_B13_B10_19push_internal_levelNtNtBa_5alloc6GlobalE0E0Cs4u7P9VlF0C9_14thiserror_impl, symObjAddr: 0x15CC, symBinAddr: 0x4505C, symSize: 0x28 }
  - { offset: 0xF537E, size: 0x8, addend: 0x0, symName: __RNCINvNtNtNtCsdFlNUEO95cG_5alloc11collections5btree3mem8take_mutINtNtB6_4node7NodeRefNtNtB13_6marker5OwnedRNtCsfwj6t2KTYdc_11proc_macro25IdentNtNtB6_7set_val9SetValZSTNtB1n_14LeafOrInternalENCINvMss_B13_B10_19push_internal_levelNtNtBa_5alloc6GlobalE0E0Cs4u7P9VlF0C9_14thiserror_impl, symObjAddr: 0x15F4, symBinAddr: 0x45084, symSize: 0x28 }
  - { offset: 0xF53CB, size: 0x8, addend: 0x0, symName: __RNCINvNtNtNtCsdFlNUEO95cG_5alloc11collections5btree3mem8take_mutINtNtB6_4node7NodeRefNtNtB13_6marker5OwnedTjNtNtCs4u7P9VlF0C9_14thiserror_impl4attr5TraitENtNtB6_7set_val9SetValZSTNtB1n_14LeafOrInternalENCINvMss_B13_B10_19push_internal_levelNtNtBa_5alloc6GlobalE0E0B1M_, symObjAddr: 0x161C, symBinAddr: 0x450AC, symSize: 0x28 }
  - { offset: 0xF5482, size: 0x8, addend: 0x0, symName: __RNvXNvNtNtNtCsdFlNUEO95cG_5alloc11collections5btree3mem7replaceNtB2_10PanicGuardNtNtNtCs85QQFkKrybG_4core3ops4drop4Drop4dropCs4u7P9VlF0C9_14thiserror_impl, symObjAddr: 0x2C0C, symBinAddr: 0x4669C, symSize: 0xC }
  - { offset: 0xF5532, size: 0x8, addend: 0x0, symName: __RNvXs8_NtCsdFlNUEO95cG_5alloc5sliceINtNtB7_3vec3VecRNtCsfwj6t2KTYdc_11proc_macro25IdentEINtNtNtNtCs85QQFkKrybG_4core5slice4sort6stable8BufGuardBN_E13with_capacityCs4u7P9VlF0C9_14thiserror_impl, symObjAddr: 0x2DC8, symBinAddr: 0x46858, symSize: 0x48 }
  - { offset: 0xF55D3, size: 0x8, addend: 0x0, symName: __RNvXs8_NtCsdFlNUEO95cG_5alloc5sliceINtNtB7_3vec3VecRNtCsfwj6t2KTYdc_11proc_macro25IdentEINtNtNtNtCs85QQFkKrybG_4core5slice4sort6stable8BufGuardBN_E19as_uninit_slice_mutCs4u7P9VlF0C9_14thiserror_impl, symObjAddr: 0x2E10, symBinAddr: 0x468A0, symSize: 0xCC }
  - { offset: 0xFAD44, size: 0x8, addend: 0x0, symName: __RINvMsi_NtCsdFlNUEO95cG_5alloc3vecINtB6_3VecNtCsfwj6t2KTYdc_11proc_macro211TokenStreamE14extend_trustedINtNtNtNtCs85QQFkKrybG_4core4iter8adapters3map3MapINtNtNtB1M_5slice4iter4IterNtNtCs4u7P9VlF0C9_14thiserror_impl3ast7VariantENCNvNtB2W_6expand9impl_enums1_0EEB2W_, symObjAddr: 0x2D8, symBinAddr: 0x43D68, symSize: 0x178 }
  - { offset: 0xFB1BD, size: 0x8, addend: 0x0, symName: __RINvNvNtCswz7ZwgBZOU_3std9panicking12catch_unwind7do_callINtNtNtCs85QQFkKrybG_4core5panic11unwind_safe16AssertUnwindSafeNCINvNtNtCs9bTl5rSDVcL_10proc_macro6bridge6client10run_clientNtB1Z_11TokenStreamINtNtB10_6option6OptionB2T_ENCNCINvMs6_B1Z_INtB1Z_6ClientNtB23_11TokenStreamB47_E7expand1NvCs4u7P9VlF0C9_14thiserror_impl12derive_errorE00E0EuEB4F_, symObjAddr: 0x1128, symBinAddr: 0x44BB8, symSize: 0x50 }
  - { offset: 0xFB285, size: 0x8, addend: 0x0, symName: __RINvNvNtCswz7ZwgBZOU_3std9panicking12catch_unwind8do_catchINtNtNtCs85QQFkKrybG_4core5panic11unwind_safe16AssertUnwindSafeNCINvNtNtCs9bTl5rSDVcL_10proc_macro6bridge6client10run_clientNtB20_11TokenStreamINtNtB11_6option6OptionB2U_ENCNCINvMs6_B20_INtB20_6ClientNtB24_11TokenStreamB48_E7expand1NvCs4u7P9VlF0C9_14thiserror_impl12derive_errorE00E0EuEB4G_, symObjAddr: 0x1178, symBinAddr: 0x44C08, symSize: 0x70 }
  - { offset: 0xFB365, size: 0x8, addend: 0x0, symName: __RINvMsi_NtCsdFlNUEO95cG_5alloc3vecINtB6_3VecNtNtCs4u7P9VlF0C9_14thiserror_impl3ast5FieldE16extend_desugaredINtNtNtCs85QQFkKrybG_4core4iter8adapters12GenericShuntINtNtB1K_3map3MapINtNtB1K_9enumerate9EnumerateINtNtCscwCr4GBBztI_3syn10punctuated4IterNtNtB3o_4data5FieldEENCNvMs2_BI_BG_17multiple_from_syn0EINtNtB1O_6result6ResultNtNtB1O_7convert10InfallibleNtNtB3o_5error5ErrorEEEBK_, symObjAddr: 0x450, symBinAddr: 0x43EE0, symSize: 0x218 }
  - { offset: 0xFB7F7, size: 0x8, addend: 0x0, symName: __RINvMsi_NtCsdFlNUEO95cG_5alloc3vecINtB6_3VecNtNtCs4u7P9VlF0C9_14thiserror_impl3ast7VariantE16extend_desugaredINtNtNtCs85QQFkKrybG_4core4iter8adapters12GenericShuntINtNtB1M_3map3MapINtNtCscwCr4GBBztI_3syn10punctuated4IterNtNtB2X_4data7VariantENCNvMs0_BI_NtBI_4Enum8from_syn0EINtNtB1Q_6result6ResultNtNtB1Q_7convert10InfallibleNtNtB2X_5error5ErrorEEEBK_, symObjAddr: 0x668, symBinAddr: 0x440F8, symSize: 0x214 }
  - { offset: 0xFBC7C, size: 0x8, addend: 0x0, symName: __RINvMsi_NtCsdFlNUEO95cG_5alloc3vecINtB6_3VecRNtCsfwj6t2KTYdc_11proc_macro25IdentE16extend_desugaredINtNtNtNtCs85QQFkKrybG_4core4iter8adapters3map3MapNtNtCscwCr4GBBztI_3syn8generics10TypeParamsNCNvMNtCs4u7P9VlF0C9_14thiserror_impl8genericsNtB39_13ParamsInScope3new0EEB3b_, symObjAddr: 0x87C, symBinAddr: 0x4430C, symSize: 0x1E0 }
  - { offset: 0xFC102, size: 0x8, addend: 0x0, symName: __RNvMNtCsdFlNUEO95cG_5alloc3vecINtB2_3VecNtCsfwj6t2KTYdc_11proc_macro211TokenStreamE3newCs4u7P9VlF0C9_14thiserror_impl, symObjAddr: 0x17E4, symBinAddr: 0x45274, symSize: 0x14 }
  - { offset: 0xFC11F, size: 0x8, addend: 0x0, symName: __RNvMNtCsdFlNUEO95cG_5alloc3vecINtB2_3VecTNtCsfwj6t2KTYdc_11proc_macro211TokenStreamNtNtCscwCr4GBBztI_3syn5token4PlusEE3newCs4u7P9VlF0C9_14thiserror_impl, symObjAddr: 0x17F8, symBinAddr: 0x45288, symSize: 0x14 }
  - { offset: 0xFC14E, size: 0x8, addend: 0x0, symName: __RNvMs3_NtNtCs9bTl5rSDVcL_10proc_macro6bridge6bufferNtB5_6Buffer17extend_from_sliceCs4u7P9VlF0C9_14thiserror_impl, symObjAddr: 0x180C, symBinAddr: 0x4529C, symSize: 0x164 }
  - { offset: 0xFC2CC, size: 0x8, addend: 0x0, symName: __RNvMs3_NtNtCs9bTl5rSDVcL_10proc_macro6bridge6bufferNtB5_6Buffer4pushCs4u7P9VlF0C9_14thiserror_impl, symObjAddr: 0x1970, symBinAddr: 0x45400, symSize: 0x134 }
  - { offset: 0xFC3F2, size: 0x8, addend: 0x0, symName: __RNvMs3_NtNtNtCs85QQFkKrybG_4core4iter8adapters8peekableINtB5_8PeekableINtNtB7_3map3MapINtNtNtBb_5slice4iter4IterNtNtCs4u7P9VlF0C9_14thiserror_impl3ast5FieldENCNvNtB1Q_6expand10fields_pat0EE4peekB1Q_, symObjAddr: 0x1AA4, symBinAddr: 0x45534, symSize: 0x70 }
  - { offset: 0xFC471, size: 0x8, addend: 0x0, symName: __RNvMs_NtCsdFlNUEO95cG_5alloc3vecINtB4_3VecNtCsfwj6t2KTYdc_11proc_macro211TokenStreamE4pushCs4u7P9VlF0C9_14thiserror_impl, symObjAddr: 0x1B14, symBinAddr: 0x455A4, symSize: 0x24 }
  - { offset: 0xFC5E6, size: 0x8, addend: 0x0, symName: __RNvMs_NtCsdFlNUEO95cG_5alloc3vecINtB4_3VecNtCsfwj6t2KTYdc_11proc_macro211TokenStreamE7reserveCs4u7P9VlF0C9_14thiserror_impl, symObjAddr: 0x1B38, symBinAddr: 0x455C8, symSize: 0xC8 }
  - { offset: 0xFC7F1, size: 0x8, addend: 0x0, symName: __RNvMs_NtCsdFlNUEO95cG_5alloc3vecINtB4_3VecNtCsfwj6t2KTYdc_11proc_macro211TokenStreamE8as_sliceCs4u7P9VlF0C9_14thiserror_impl, symObjAddr: 0x1C00, symBinAddr: 0x45690, symSize: 0x6C }
  - { offset: 0xFC997, size: 0x8, addend: 0x0, symName: __RNvMs_NtCsdFlNUEO95cG_5alloc3vecINtB4_3VecNtCsfwj6t2KTYdc_11proc_macro211TokenStreamE8push_mutCs4u7P9VlF0C9_14thiserror_impl, symObjAddr: 0x1C6C, symBinAddr: 0x456FC, symSize: 0x100 }
  - { offset: 0xFCB4B, size: 0x8, addend: 0x0, symName: __RNvMs_NtCsdFlNUEO95cG_5alloc3vecINtB4_3VecNtNtCs4u7P9VlF0C9_14thiserror_impl3ast5FieldE3lenBI_, symObjAddr: 0x1D6C, symBinAddr: 0x457FC, symSize: 0x18 }
  - { offset: 0xFCC96, size: 0x8, addend: 0x0, symName: __RNvMs_NtCsdFlNUEO95cG_5alloc3vecINtB4_3VecNtNtCs4u7P9VlF0C9_14thiserror_impl3ast5FieldE7reserveBI_, symObjAddr: 0x1D84, symBinAddr: 0x45814, symSize: 0xC8 }
  - { offset: 0xFCE94, size: 0x8, addend: 0x0, symName: __RNvMs_NtCsdFlNUEO95cG_5alloc3vecINtB4_3VecNtNtCs4u7P9VlF0C9_14thiserror_impl3ast5FieldE8as_sliceBI_, symObjAddr: 0x1E4C, symBinAddr: 0x458DC, symSize: 0x6C }
  - { offset: 0xFD064, size: 0x8, addend: 0x0, symName: __RNvMs_NtCsdFlNUEO95cG_5alloc3vecINtB4_3VecNtNtCs4u7P9VlF0C9_14thiserror_impl3ast7VariantE7reserveBI_, symObjAddr: 0x1EB8, symBinAddr: 0x45948, symSize: 0xC8 }
  - { offset: 0xFD262, size: 0x8, addend: 0x0, symName: __RNvMs_NtCsdFlNUEO95cG_5alloc3vecINtB4_3VecNtNtCs4u7P9VlF0C9_14thiserror_impl3ast7VariantE8as_sliceBI_, symObjAddr: 0x1F80, symBinAddr: 0x45A10, symSize: 0x6C }
  - { offset: 0xFD341, size: 0x8, addend: 0x0, symName: __RNvMs_NtCsdFlNUEO95cG_5alloc3vecINtB4_3VecNtNtCs4u7P9VlF0C9_14thiserror_impl3ast7VariantE8is_emptyBI_, symObjAddr: 0x1FEC, symBinAddr: 0x45A7C, symSize: 0x20 }
  - { offset: 0xFD4AA, size: 0x8, addend: 0x0, symName: __RNvMs_NtCsdFlNUEO95cG_5alloc3vecINtB4_3VecRNtCsfwj6t2KTYdc_11proc_macro25IdentE7reserveCs4u7P9VlF0C9_14thiserror_impl, symObjAddr: 0x200C, symBinAddr: 0x45A9C, symSize: 0xBC }
  - { offset: 0xFD61E, size: 0x8, addend: 0x0, symName: __RNvMs_NtCsdFlNUEO95cG_5alloc3vecINtB4_3VecTNtCsfwj6t2KTYdc_11proc_macro211TokenStreamNtNtCscwCr4GBBztI_3syn5token4PlusEE4pushCs4u7P9VlF0C9_14thiserror_impl, symObjAddr: 0x20C8, symBinAddr: 0x45B58, symSize: 0x24 }
  - { offset: 0xFD72E, size: 0x8, addend: 0x0, symName: __RNvMs_NtCsdFlNUEO95cG_5alloc3vecINtB4_3VecTNtCsfwj6t2KTYdc_11proc_macro211TokenStreamNtNtCscwCr4GBBztI_3syn5token4PlusEE8as_sliceCs4u7P9VlF0C9_14thiserror_impl, symObjAddr: 0x20EC, symBinAddr: 0x45B7C, symSize: 0x6C }
  - { offset: 0xFD8D4, size: 0x8, addend: 0x0, symName: __RNvMs_NtCsdFlNUEO95cG_5alloc3vecINtB4_3VecTNtCsfwj6t2KTYdc_11proc_macro211TokenStreamNtNtCscwCr4GBBztI_3syn5token4PlusEE8push_mutCs4u7P9VlF0C9_14thiserror_impl, symObjAddr: 0x2158, symBinAddr: 0x45BE8, symSize: 0x11C }
  - { offset: 0xFE00D, size: 0x8, addend: 0x0, symName: __RNvXs4_NtNtCshi3DZH3dfhk_5quote9___private3extINtNtCsdFlNUEO95cG_5alloc3vec3VecNtCsfwj6t2KTYdc_11proc_macro211TokenStreamENtB5_16RepAsIteratorExt15quote_into_iterCs4u7P9VlF0C9_14thiserror_impl, symObjAddr: 0x2C18, symBinAddr: 0x466A8, symSize: 0x38 }
  - { offset: 0xFE048, size: 0x8, addend: 0x0, symName: __RNvYINtNtNtNtCs85QQFkKrybG_4core4iter8adapters8peekable8PeekableINtNtB7_3map3MapINtNtNtBb_5slice4iter4IterNtNtCs4u7P9VlF0C9_14thiserror_impl3ast5FieldENCNvNtB1K_6expand10fields_pat0EENtNtNtCshi3DZH3dfhk_5quote9___private3ext14RepIteratorExt15quote_into_iterB1K_, symObjAddr: 0x3684, symBinAddr: 0x47114, symSize: 0x24 }
  - { offset: 0xFEE5A, size: 0x8, addend: 0x0, symName: __RINvMNtNtCs85QQFkKrybG_4core3fmt2rtNtB3_8Argument11new_displayINtNtCshi3DZH3dfhk_5quote9___private20IdentFragmentAdapterRNtCsfwj6t2KTYdc_11proc_macro25IdentEECs4u7P9VlF0C9_14thiserror_impl, symObjAddr: 0x0, symBinAddr: 0x47138, symSize: 0x2C }
  - { offset: 0xFEF62, size: 0x8, addend: 0x0, symName: __RINvNtNtNtCs9bTl5rSDVcL_10proc_macro6bridge6client5state3setINtNtCs85QQFkKrybG_4core6option6OptionNtB4_11TokenStreamENCNCINvB4_10run_clientB1y_BW_NCNCINvMs6_B4_INtB4_6ClientNtB8_11TokenStreamB2L_E7expand1NvCs4u7P9VlF0C9_14thiserror_impl12derive_errorE00E00EB3i_, symObjAddr: 0x118C, symBinAddr: 0x482C4, symSize: 0xE8 }
  - { offset: 0xFF041, size: 0x8, addend: 0x0, symName: __RNCNkNvNtNtNtCs9bTl5rSDVcL_10proc_macro6bridge6client5state12BRIDGE_STATE0s_0Cs4u7P9VlF0C9_14thiserror_impl, symObjAddr: 0x1A9C, symBinAddr: 0x48BD4, symSize: 0x30 }
  - { offset: 0x1004C5, size: 0x8, addend: 0x0, symName: __RNvNvMs1_NtNtCs85QQFkKrybG_4core3ptr8non_nullINtB7_7NonNullpE13new_unchecked18precondition_checkCs4u7P9VlF0C9_14thiserror_impl, symObjAddr: 0x2F24, symBinAddr: 0x4A05C, symSize: 0xA4 }
  - { offset: 0x1006D3, size: 0x8, addend: 0x0, symName: __RNvNvMNtNtCs85QQFkKrybG_4core3ptr9const_ptrPp20offset_from_unsigned18precondition_checkCs4u7P9VlF0C9_14thiserror_impl, symObjAddr: 0x2E78, symBinAddr: 0x49FB0, symSize: 0xAC }
  - { offset: 0x105055, size: 0x8, addend: 0x0, symName: __RNCINvNtNtNtCs85QQFkKrybG_4core4iter8adapters3map12map_try_foldRNtNtCscwCr4GBBztI_3syn4data7VariantINtNtBa_6result6ResultNtNtCs4u7P9VlF0C9_14thiserror_impl3ast7VariantNtNtB14_5error5ErrorEuINtNtNtBa_3ops12control_flow11ControlFlowIB32_B1V_EENCNvMs0_B1X_NtB1X_4Enum8from_syn0NCINvXB6_INtB6_12GenericShuntINtB4_3MapINtNtB14_10punctuated4IterB10_EB3R_EIB1A_NtNtBa_7convert10InfallibleB2F_EENtNtNtB8_6traits8iterator8Iterator8try_folduNCINvNvB6d_12try_for_each4callB1V_B3G_NcNtB3G_5Break0E0B3G_E0E0B1Z_, symObjAddr: 0x1820, symBinAddr: 0x48958, symSize: 0xA8 }
  - { offset: 0x1050E7, size: 0x8, addend: 0x0, symName: __RNCINvNtNtNtCs85QQFkKrybG_4core4iter8adapters3map12map_try_foldTjRNtNtCscwCr4GBBztI_3syn4data5FieldEINtNtBa_6result6ResultNtNtCs4u7P9VlF0C9_14thiserror_impl3ast5FieldNtNtB16_5error5ErrorEuINtNtNtBa_3ops12control_flow11ControlFlowIB31_B1W_EENCNvMs2_B1Y_B1W_17multiple_from_syn0NCINvXB6_INtB6_12GenericShuntINtB4_3MapINtNtB6_9enumerate9EnumerateINtNtB16_10punctuated4IterB12_EEB3Q_EIB1B_NtNtBa_7convert10InfallibleB2E_EENtNtNtB8_6traits8iterator8Iterator8try_folduNCINvNvB6I_12try_for_each4callB1W_B3F_NcNtB3F_5Break0E0B3F_E0E0B20_, symObjAddr: 0x18C8, symBinAddr: 0x48A00, symSize: 0xAC }
  - { offset: 0x10517F, size: 0x8, addend: 0x0, symName: __RINvXs0_NtNtNtCs85QQFkKrybG_4core4iter8adapters3mapINtB6_3MapINtNtB8_9enumerate9EnumerateINtNtCscwCr4GBBztI_3syn10punctuated4IterNtNtB1u_4data5FieldEENCNvMs2_NtCs4u7P9VlF0C9_14thiserror_impl3astNtB2w_5Field17multiple_from_syn0ENtNtNtBa_6traits8iterator8Iterator8try_folduNCINvXB8_INtB8_12GenericShuntBN_INtNtBc_6result6ResultNtNtBc_7convert10InfallibleNtNtB1u_5error5ErrorEEB3D_8try_folduNCINvNvB3D_12try_for_each4callB36_INtNtNtBc_3ops12control_flow11ControlFlowB36_ENcNtB6M_5Break0E0B6M_E0IB6N_B6M_EEB2y_, symObjAddr: 0x1274, symBinAddr: 0x483AC, symSize: 0x54 }
  - { offset: 0x105222, size: 0x8, addend: 0x0, symName: __RINvXs0_NtNtNtCs85QQFkKrybG_4core4iter8adapters3mapINtB6_3MapINtNtCscwCr4GBBztI_3syn10punctuated4IterNtNtB12_4data7VariantENCNvMs0_NtCs4u7P9VlF0C9_14thiserror_impl3astNtB25_4Enum8from_syn0ENtNtNtBa_6traits8iterator8Iterator8try_folduNCINvXB8_INtB8_12GenericShuntBN_INtNtBc_6result6ResultNtNtBc_7convert10InfallibleNtNtB12_5error5ErrorEEB31_8try_folduNCINvNvB31_12try_for_each4callNtB25_7VariantINtNtNtBc_3ops12control_flow11ControlFlowB66_ENcNtB6k_5Break0E0B6k_E0IB6l_B6k_EEB27_, symObjAddr: 0x12C8, symBinAddr: 0x48400, symSize: 0x54 }
  - { offset: 0x1052C5, size: 0x8, addend: 0x0, symName: __RINvXs0_NtNtNtCs85QQFkKrybG_4core4iter8adapters3mapINtB6_3MapINtNtNtBc_5slice4iter4IterNtNtCs4u7P9VlF0C9_14thiserror_impl3ast7VariantENCNvNtB1r_6expand9impl_enums1_0ENtNtNtBa_6traits8iterator8Iterator4folduNCINvNvB2E_8for_each4callNtCsfwj6t2KTYdc_11proc_macro211TokenStreamNCINvMsi_NtCsdFlNUEO95cG_5alloc3vecINtB4w_3VecB3H_E14extend_trustedBN_E0E0EB1r_, symObjAddr: 0x131C, symBinAddr: 0x48454, symSize: 0x58 }
  - { offset: 0x10535E, size: 0x8, addend: 0x0, symName: __RINvXs0_NtNtNtCs85QQFkKrybG_4core4iter8adapters3mapINtB6_3MapINtNtNtCsdFlNUEO95cG_5alloc3vec9into_iter8IntoIterNtCsfwj6t2KTYdc_11proc_macro29TokenTreeENvNtB1N_3imp19into_compiler_tokenENtNtNtBa_6traits8iterator8Iterator4folduNCINvNvB2X_8for_each4callNtCs9bTl5rSDVcL_10proc_macro9TokenTreeNCINvXsg_B42_NtB42_11TokenStreamINtNtB31_7collect12FromIteratorB40_E9from_iterBN_E0E0ECs4u7P9VlF0C9_14thiserror_impl, symObjAddr: 0x1374, symBinAddr: 0x484AC, symSize: 0x3C }
  - { offset: 0x1053D0, size: 0x8, addend: 0x0, symName: __RNvXs0_NtNtNtCs85QQFkKrybG_4core4iter8adapters3mapINtB5_3MapINtNtB7_8peekable8PeekableIBN_INtNtNtBb_5slice4iter4IterNtNtCs4u7P9VlF0C9_14thiserror_impl3ast5FieldENCNvNtB1U_6expand10fields_pat0EENCB2B_s_0ENtNtNtB9_6traits8iterator8Iterator4nextB1U_, symObjAddr: 0x312C, symBinAddr: 0x4A264, symSize: 0x94 }
  - { offset: 0x10546C, size: 0x8, addend: 0x0, symName: __RNvXs0_NtNtNtCs85QQFkKrybG_4core4iter8adapters3mapINtB5_3MapINtNtB7_9enumerate9EnumerateINtNtCscwCr4GBBztI_3syn10punctuated4IterNtNtB1t_4data5FieldEENCNvMs2_NtCs4u7P9VlF0C9_14thiserror_impl3astNtB2v_5Field17multiple_from_syn0ENtNtNtB9_6traits8iterator8Iterator9size_hintB2x_, symObjAddr: 0x31C0, symBinAddr: 0x4A2F8, symSize: 0x24 }
  - { offset: 0x1054B3, size: 0x8, addend: 0x0, symName: __RNvXs0_NtNtNtCs85QQFkKrybG_4core4iter8adapters3mapINtB5_3MapINtNtCscwCr4GBBztI_3syn10punctuated4IterNtNtB11_4data7VariantENCNvMs0_NtCs4u7P9VlF0C9_14thiserror_impl3astNtB24_4Enum8from_syn0ENtNtNtB9_6traits8iterator8Iterator9size_hintB26_, symObjAddr: 0x31E4, symBinAddr: 0x4A31C, symSize: 0x24 }
  - { offset: 0x1054FA, size: 0x8, addend: 0x0, symName: __RNvXs0_NtNtNtCs85QQFkKrybG_4core4iter8adapters3mapINtB5_3MapINtNtNtBb_3str4iter5SplitcEINvCscwCr4GBBztI_3syn9parse_strNtNtB1q_4expr5IndexEENtNtNtB9_6traits8iterator8Iterator4nextCs4u7P9VlF0C9_14thiserror_impl, symObjAddr: 0x3208, symBinAddr: 0x4A340, symSize: 0xA4 }
  - { offset: 0x105596, size: 0x8, addend: 0x0, symName: __RNvXs0_NtNtNtCs85QQFkKrybG_4core4iter8adapters3mapINtB5_3MapINtNtNtBb_5slice4iter4IterNtNtCs4u7P9VlF0C9_14thiserror_impl3ast5FieldENCNvNtB1q_6expand10fields_pat0ENtNtNtB9_6traits8iterator8Iterator4nextB1q_, symObjAddr: 0x32AC, symBinAddr: 0x4A3E4, symSize: 0x78 }
  - { offset: 0x105632, size: 0x8, addend: 0x0, symName: __RNvXs0_NtNtNtCs85QQFkKrybG_4core4iter8adapters3mapINtB5_3MapINtNtNtBb_5slice4iter4IterNtNtCs4u7P9VlF0C9_14thiserror_impl3ast7VariantENCNvNtB1q_6expand9impl_enum0ENtNtNtB9_6traits8iterator8Iterator4nextB1q_, symObjAddr: 0x3324, symBinAddr: 0x4A45C, symSize: 0x94 }
  - { offset: 0x1056CE, size: 0x8, addend: 0x0, symName: __RNvXs0_NtNtNtCs85QQFkKrybG_4core4iter8adapters3mapINtB5_3MapINtNtNtBb_5slice4iter4IterNtNtCs4u7P9VlF0C9_14thiserror_impl3ast7VariantENCNvNtB1q_6expand9impl_enums1_0ENtNtNtB9_6traits8iterator8Iterator9size_hintB1q_, symObjAddr: 0x33B8, symBinAddr: 0x4A4F0, symSize: 0x24 }
  - { offset: 0x105715, size: 0x8, addend: 0x0, symName: __RNvXs0_NtNtNtCs85QQFkKrybG_4core4iter8adapters3mapINtB5_3MapINtNtNtBb_5slice4iter4IterNtNtCs4u7P9VlF0C9_14thiserror_impl3ast7VariantENCNvNtB1q_6expand9impl_enums_0ENtNtNtB9_6traits8iterator8Iterator4nextB1q_, symObjAddr: 0x33DC, symBinAddr: 0x4A514, symSize: 0x94 }
  - { offset: 0x1057B1, size: 0x8, addend: 0x0, symName: __RNvXs0_NtNtNtCs85QQFkKrybG_4core4iter8adapters3mapINtB5_3MapINtNtNtCsdFlNUEO95cG_5alloc3vec9into_iter8IntoIterNtCsfwj6t2KTYdc_11proc_macro29TokenTreeENvNtB1M_3imp19into_compiler_tokenENtNtNtB9_6traits8iterator8Iterator9size_hintCs4u7P9VlF0C9_14thiserror_impl, symObjAddr: 0x3470, symBinAddr: 0x4A5A8, symSize: 0x24 }
  - { offset: 0x1057F8, size: 0x8, addend: 0x0, symName: __RNvXs0_NtNtNtCs85QQFkKrybG_4core4iter8adapters3mapINtB5_3MapINtNtNtCsdFlNUEO95cG_5alloc3vec9into_iter8IntoIterRNtCsfwj6t2KTYdc_11proc_macro25IdentENCINvMse_NtNtNtB13_11collections5btree3setINtB2u_8BTreeSetB1K_E16from_sorted_iterBW_E0ENtNtNtB9_6traits8iterator8Iterator4nextCs4u7P9VlF0C9_14thiserror_impl, symObjAddr: 0x3494, symBinAddr: 0x4A5CC, symSize: 0x78 }
  - { offset: 0x105894, size: 0x8, addend: 0x0, symName: __RNvXs0_NtNtNtCs85QQFkKrybG_4core4iter8adapters3mapINtB5_3MapNtNtCscwCr4GBBztI_3syn8generics10TypeParamsNCNvMNtCs4u7P9VlF0C9_14thiserror_impl8genericsNtB1I_13ParamsInScope3new0ENtNtNtB9_6traits8iterator8Iterator4nextB1K_, symObjAddr: 0x350C, symBinAddr: 0x4A644, symSize: 0x78 }
  - { offset: 0x105930, size: 0x8, addend: 0x0, symName: __RNvXs0_NtNtNtCs85QQFkKrybG_4core4iter8adapters3mapINtB5_3MapNtNtCscwCr4GBBztI_3syn8generics10TypeParamsNCNvMNtCs4u7P9VlF0C9_14thiserror_impl8genericsNtB1I_13ParamsInScope3new0ENtNtNtB9_6traits8iterator8Iterator9size_hintB1K_, symObjAddr: 0x3584, symBinAddr: 0x4A6BC, symSize: 0x24 }
  - { offset: 0x105A4C, size: 0x8, addend: 0x0, symName: __RNCINvNtNtNtCs85QQFkKrybG_4core4iter8adapters3map8map_foldNtCsfwj6t2KTYdc_11proc_macro29TokenTreeNtCs9bTl5rSDVcL_10proc_macro9TokenTreeuNvNtBW_3imp19into_compiler_tokenNCINvNvNtNtNtB8_6traits8iterator8Iterator8for_each4callB1x_NCINvXsg_B1z_NtB1z_11TokenStreamINtNtB2R_7collect12FromIteratorB1x_E9from_iterINtB4_3MapINtNtNtCsdFlNUEO95cG_5alloc3vec9into_iter8IntoIterBU_EB2a_EE0E0E0Cs4u7P9VlF0C9_14thiserror_impl, symObjAddr: 0x1974, symBinAddr: 0x48AAC, symSize: 0x9C }
  - { offset: 0x105AD2, size: 0x8, addend: 0x0, symName: __RNCINvNtNtNtCs85QQFkKrybG_4core4iter8adapters3map8map_foldRNtNtCs4u7P9VlF0C9_14thiserror_impl3ast7VariantNtCsfwj6t2KTYdc_11proc_macro211TokenStreamuNCNvNtBZ_6expand9impl_enums1_0NCINvNvNtNtNtB8_6traits8iterator8Iterator8for_each4callB1F_NCINvMsi_NtCsdFlNUEO95cG_5alloc3vecINtB3W_3VecB1F_E14extend_trustedINtB4_3MapINtNtNtBa_5slice4iter4IterBV_EB2m_EE0E0E0BZ_, symObjAddr: 0x1A10, symBinAddr: 0x48B48, symSize: 0x8C }
  - { offset: 0x105F3C, size: 0x8, addend: 0x0, symName: __RINvYINtNtNtNtCs85QQFkKrybG_4core4iter8adapters3map3MapINtNtB8_9enumerate9EnumerateINtNtCscwCr4GBBztI_3syn10punctuated4IterNtNtB1o_4data5FieldEENCNvMs2_NtCs4u7P9VlF0C9_14thiserror_impl3astNtB2q_5Field17multiple_from_syn0ENtNtNtBa_6traits8iterator8Iterator7collectINtNtBc_6result6ResultINtNtCsdFlNUEO95cG_5alloc3vec3VecB30_ENtNtB1o_5error5ErrorEEB2s_, symObjAddr: 0x13B0, symBinAddr: 0x484E8, symSize: 0x6C }
  - { offset: 0x105FD2, size: 0x8, addend: 0x0, symName: __RINvYINtNtNtNtCs85QQFkKrybG_4core4iter8adapters3map3MapINtNtCscwCr4GBBztI_3syn10punctuated4IterNtNtBW_4data7VariantENCNvMs0_NtCs4u7P9VlF0C9_14thiserror_impl3astNtB1Y_4Enum8from_syn0ENtNtNtBa_6traits8iterator8Iterator7collectINtNtBc_6result6ResultINtNtCsdFlNUEO95cG_5alloc3vec3VecNtB1Y_7VariantENtNtBW_5error5ErrorEEB20_, symObjAddr: 0x141C, symBinAddr: 0x48554, symSize: 0x6C }
  - { offset: 0x106068, size: 0x8, addend: 0x0, symName: __RINvYINtNtNtNtCs85QQFkKrybG_4core4iter8adapters3map3MapINtNtNtBc_5slice4iter4IterNtNtCs4u7P9VlF0C9_14thiserror_impl3ast7VariantENCNvNtB1l_6expand9impl_enums1_0ENtNtNtBa_6traits8iterator8Iterator7collectINtNtCsdFlNUEO95cG_5alloc3vec3VecNtCsfwj6t2KTYdc_11proc_macro211TokenStreamEEB1l_, symObjAddr: 0x1488, symBinAddr: 0x485C0, symSize: 0x68 }
  - { offset: 0x1060FE, size: 0x8, addend: 0x0, symName: __RINvYINtNtNtNtCs85QQFkKrybG_4core4iter8adapters3map3MapINtNtNtBc_5slice4iter4IterNtNtCs4u7P9VlF0C9_14thiserror_impl3ast7VariantENCNvNtB1l_6expand9impl_enums1_0ENtNtNtBa_6traits8iterator8Iterator8for_eachNCINvMsi_NtCsdFlNUEO95cG_5alloc3vecINtB3o_3VecNtCsfwj6t2KTYdc_11proc_macro211TokenStreamE14extend_trustedB3_E0EB1l_, symObjAddr: 0x14F0, symBinAddr: 0x48628, symSize: 0x34 }
  - { offset: 0x10616A, size: 0x8, addend: 0x0, symName: __RINvYINtNtNtNtCs85QQFkKrybG_4core4iter8adapters3map3MapINtNtNtCsdFlNUEO95cG_5alloc3vec9into_iter8IntoIterNtCsfwj6t2KTYdc_11proc_macro29TokenTreeENvNtB1H_3imp19into_compiler_tokenENtNtNtBa_6traits8iterator8Iterator7collectNtCs9bTl5rSDVcL_10proc_macro11TokenStreamECs4u7P9VlF0C9_14thiserror_impl, symObjAddr: 0x1524, symBinAddr: 0x4865C, symSize: 0x68 }
  - { offset: 0x106200, size: 0x8, addend: 0x0, symName: __RINvYINtNtNtNtCs85QQFkKrybG_4core4iter8adapters3map3MapINtNtNtCsdFlNUEO95cG_5alloc3vec9into_iter8IntoIterNtCsfwj6t2KTYdc_11proc_macro29TokenTreeENvNtB1H_3imp19into_compiler_tokenENtNtNtBa_6traits8iterator8Iterator8for_eachNCINvXsg_Cs9bTl5rSDVcL_10proc_macroNtB3H_11TokenStreamINtNtB2V_7collect12FromIteratorNtB3H_9TokenTreeE9from_iterB3_E0ECs4u7P9VlF0C9_14thiserror_impl, symObjAddr: 0x158C, symBinAddr: 0x486C4, symSize: 0x24 }
  - { offset: 0x10624C, size: 0x8, addend: 0x0, symName: __RINvYINtNtNtNtCs85QQFkKrybG_4core4iter8adapters3map3MapNtNtCscwCr4GBBztI_3syn8generics10TypeParamsNCNvMNtCs4u7P9VlF0C9_14thiserror_impl8genericsNtB1D_13ParamsInScope3new0ENtNtNtBa_6traits8iterator8Iterator7collectINtNtCsdFlNUEO95cG_5alloc3vec3VecRNtCsfwj6t2KTYdc_11proc_macro25IdentEEB1F_, symObjAddr: 0x15B0, symBinAddr: 0x486E8, symSize: 0x60 }
  - { offset: 0x1062E1, size: 0x8, addend: 0x0, symName: __RINvYINtNtNtNtCs85QQFkKrybG_4core4iter8adapters3map3MapNtNtCscwCr4GBBztI_3syn8generics10TypeParamsNCNvMNtCs4u7P9VlF0C9_14thiserror_impl8genericsNtB1D_13ParamsInScope3new0ENtNtNtBa_6traits8iterator8Iterator7collectINtNtNtNtCsdFlNUEO95cG_5alloc11collections5btree3set8BTreeSetRNtCsfwj6t2KTYdc_11proc_macro25IdentEEB1F_, symObjAddr: 0x1610, symBinAddr: 0x48748, symSize: 0x58 }
  - { offset: 0x106376, size: 0x8, addend: 0x0, symName: __RNvYINtNtNtNtCs85QQFkKrybG_4core4iter8adapters3map3MapINtNtNtBb_5slice4iter4IterNtNtCs4u7P9VlF0C9_14thiserror_impl3ast5FieldENCNvNtB1k_6expand10fields_pat0ENtNtNtB9_6traits8iterator8Iterator8peekableB1k_, symObjAddr: 0x3CCC, symBinAddr: 0x4AE04, symSize: 0x30 }
  - { offset: 0x1063C2, size: 0x8, addend: 0x0, symName: __RNvYINtNtNtNtCs85QQFkKrybG_4core4iter8adapters3map3MapINtNtNtCsdFlNUEO95cG_5alloc3vec9into_iter8IntoIterRNtCsfwj6t2KTYdc_11proc_macro25IdentENCINvMse_NtNtNtBX_11collections5btree3setINtB2o_8BTreeSetB1E_E16from_sorted_iterBQ_E0ENtNtNtB9_6traits8iterator8Iterator8peekableCs4u7P9VlF0C9_14thiserror_impl, symObjAddr: 0x3D44, symBinAddr: 0x4AE7C, symSize: 0x20 }
  - { offset: 0x10641A, size: 0x8, addend: 0x0, symName: __RNvXNtNtNtCs85QQFkKrybG_4core4iter6traits7collectINtNtNtB6_8adapters3map3MapINtNtBQ_9enumerate9EnumerateINtNtCscwCr4GBBztI_3syn10punctuated4IterNtNtB1J_4data5FieldEENCNvMs2_NtCs4u7P9VlF0C9_14thiserror_impl3astNtB2L_5Field17multiple_from_syn0ENtB2_12IntoIterator9into_iterB2N_, symObjAddr: 0x2FC8, symBinAddr: 0x4A100, symSize: 0x30 }
  - { offset: 0x106452, size: 0x8, addend: 0x0, symName: __RNvXNtNtNtCs85QQFkKrybG_4core4iter6traits7collectINtNtNtB6_8adapters3map3MapINtNtCscwCr4GBBztI_3syn10punctuated4IterNtNtB1h_4data7VariantENCNvMs0_NtCs4u7P9VlF0C9_14thiserror_impl3astNtB2k_4Enum8from_syn0ENtB2_12IntoIterator9into_iterB2m_, symObjAddr: 0x2FF8, symBinAddr: 0x4A130, symSize: 0x30 }
  - { offset: 0x10648A, size: 0x8, addend: 0x0, symName: __RNvXNtNtNtCs85QQFkKrybG_4core4iter6traits7collectINtNtNtB6_8adapters3map3MapINtNtNtB8_5slice4iter4IterNtNtCs4u7P9VlF0C9_14thiserror_impl3ast7VariantENCNvNtB1G_6expand9impl_enums1_0ENtB2_12IntoIterator9into_iterB1G_, symObjAddr: 0x3028, symBinAddr: 0x4A160, symSize: 0x14 }
  - { offset: 0x1064C1, size: 0x8, addend: 0x0, symName: __RNvXNtNtNtCs85QQFkKrybG_4core4iter6traits7collectINtNtNtB6_8adapters3map3MapINtNtNtCsdFlNUEO95cG_5alloc3vec9into_iter8IntoIterNtCsfwj6t2KTYdc_11proc_macro29TokenTreeENvNtB22_3imp19into_compiler_tokenENtB2_12IntoIterator9into_iterCs4u7P9VlF0C9_14thiserror_impl, symObjAddr: 0x303C, symBinAddr: 0x4A174, symSize: 0x14 }
  - { offset: 0x1064F8, size: 0x8, addend: 0x0, symName: __RNvXNtNtNtCs85QQFkKrybG_4core4iter6traits7collectINtNtNtB6_8adapters3map3MapINtNtNtCsdFlNUEO95cG_5alloc3vec9into_iter8IntoIterRNtCsfwj6t2KTYdc_11proc_macro25IdentENCINvMse_NtNtNtB1j_11collections5btree3setINtB2K_8BTreeSetB20_E16from_sorted_iterB1c_E0ENtB2_12IntoIterator9into_iterCs4u7P9VlF0C9_14thiserror_impl, symObjAddr: 0x3050, symBinAddr: 0x4A188, symSize: 0x14 }
  - { offset: 0x10652F, size: 0x8, addend: 0x0, symName: __RNvXNtNtNtCs85QQFkKrybG_4core4iter6traits7collectINtNtNtB6_8adapters3map3MapNtNtCscwCr4GBBztI_3syn8generics10TypeParamsNCNvMNtCs4u7P9VlF0C9_14thiserror_impl8genericsNtB1Y_13ParamsInScope3new0ENtB2_12IntoIterator9into_iterB20_, symObjAddr: 0x3064, symBinAddr: 0x4A19C, symSize: 0x1C }
  - { offset: 0x106DAF, size: 0x8, addend: 0x0, symName: __RNvXNtNtNtCs85QQFkKrybG_4core5array4iter10iter_innerSINtNtNtB8_3mem12maybe_uninit11MaybeUninitjENtB2_11PartialDrop12partial_dropCs4u7P9VlF0C9_14thiserror_impl, symObjAddr: 0x3080, symBinAddr: 0x4A1B8, symSize: 0xAC }
  - { offset: 0x106EC1, size: 0x8, addend: 0x0, symName: __RNvXs_NtNtNtCs85QQFkKrybG_4core5array4iter10iter_innerAINtNtNtBa_3mem12maybe_uninit11MaybeUninitjEj2_NtB4_11PartialDrop12partial_dropCs4u7P9VlF0C9_14thiserror_impl, symObjAddr: 0x35B8, symBinAddr: 0x4A6F0, symSize: 0x4C }
  - { offset: 0x106F4E, size: 0x8, addend: 0x0, symName: __RNvXs4_NtNtCs85QQFkKrybG_4core5array4iterINtB5_8IntoIterjKj2_ENtNtNtB9_3ops4drop4Drop4dropCs4u7P9VlF0C9_14thiserror_impl, symObjAddr: 0x35A8, symBinAddr: 0x4A6E0, symSize: 0x10 }
  - { offset: 0x1071B4, size: 0x8, addend: 0x0, symName: __RNvYINtNtNtNtCs85QQFkKrybG_4core4iter8adapters3map3MapINtNtB7_8peekable8PeekableIB3_INtNtNtBb_5slice4iter4IterNtNtCs4u7P9VlF0C9_14thiserror_impl3ast5FieldENCNvNtB1O_6expand10fields_pat0EENCB2v_s_0ENtNtNtCshi3DZH3dfhk_5quote9___private3ext14RepIteratorExt15quote_into_iterB1O_, symObjAddr: 0x3CA8, symBinAddr: 0x4ADE0, symSize: 0x24 }
  - { offset: 0x1071E9, size: 0x8, addend: 0x0, symName: __RNvYINtNtNtNtCs85QQFkKrybG_4core4iter8adapters3map3MapINtNtNtBb_5slice4iter4IterNtNtCs4u7P9VlF0C9_14thiserror_impl3ast7VariantENCNvNtB1k_6expand9impl_enum0ENtNtNtCshi3DZH3dfhk_5quote9___private3ext14RepIteratorExt15quote_into_iterB1k_, symObjAddr: 0x3CFC, symBinAddr: 0x4AE34, symSize: 0x24 }
  - { offset: 0x10721E, size: 0x8, addend: 0x0, symName: __RNvYINtNtNtNtCs85QQFkKrybG_4core4iter8adapters3map3MapINtNtNtBb_5slice4iter4IterNtNtCs4u7P9VlF0C9_14thiserror_impl3ast7VariantENCNvNtB1k_6expand9impl_enums_0ENtNtNtCshi3DZH3dfhk_5quote9___private3ext14RepIteratorExt15quote_into_iterB1k_, symObjAddr: 0x3D20, symBinAddr: 0x4AE58, symSize: 0x24 }
  - { offset: 0x108B56, size: 0x8, addend: 0x0, symName: __RNCINvMsm_NtNtNtCsdFlNUEO95cG_5alloc11collections5btree8navigateINtNtBa_4node6HandleINtB13_7NodeRefNtNtB13_6marker5DyingNtCsfwj6t2KTYdc_11proc_macro25IdentNtNtBa_7set_val9SetValZSTNtB1B_4LeafENtB1B_4EdgeE27deallocating_next_uncheckedNtNtBe_5alloc6GlobalE0Cs4u7P9VlF0C9_14thiserror_impl, symObjAddr: 0x1668, symBinAddr: 0x487A0, symSize: 0x58 }
  - { offset: 0x108BC6, size: 0x8, addend: 0x0, symName: __RNCINvMsm_NtNtNtCsdFlNUEO95cG_5alloc11collections5btree8navigateINtNtBa_4node6HandleINtB13_7NodeRefNtNtB13_6marker5DyingNtNtBe_6string6StringNtNtBa_7set_val9SetValZSTNtB1B_4LeafENtB1B_4EdgeE27deallocating_next_uncheckedNtNtBe_5alloc6GlobalE0Cs4u7P9VlF0C9_14thiserror_impl, symObjAddr: 0x16C0, symBinAddr: 0x487F8, symSize: 0x58 }
  - { offset: 0x108C36, size: 0x8, addend: 0x0, symName: __RNCINvMsm_NtNtNtCsdFlNUEO95cG_5alloc11collections5btree8navigateINtNtBa_4node6HandleINtB13_7NodeRefNtNtB13_6marker5DyingNtNtBe_6string6StringTINtNtBa_3set8BTreeSetB1U_EINtNtCscwCr4GBBztI_3syn10punctuated10PunctuatedNtCsfwj6t2KTYdc_11proc_macro211TokenStreamNtNtB2L_5token4PlusEENtB1B_4LeafENtB1B_4EdgeE27deallocating_next_uncheckedNtNtBe_5alloc6GlobalE0Cs4u7P9VlF0C9_14thiserror_impl, symObjAddr: 0x1718, symBinAddr: 0x48850, symSize: 0x58 }
  - { offset: 0x108CA6, size: 0x8, addend: 0x0, symName: __RNCINvMsm_NtNtNtCsdFlNUEO95cG_5alloc11collections5btree8navigateINtNtBa_4node6HandleINtB13_7NodeRefNtNtB13_6marker5DyingRNtCsfwj6t2KTYdc_11proc_macro25IdentNtNtBa_7set_val9SetValZSTNtB1B_4LeafENtB1B_4EdgeE27deallocating_next_uncheckedNtNtBe_5alloc6GlobalE0Cs4u7P9VlF0C9_14thiserror_impl, symObjAddr: 0x1770, symBinAddr: 0x488A8, symSize: 0x58 }
  - { offset: 0x108D16, size: 0x8, addend: 0x0, symName: __RNCINvMsm_NtNtNtCsdFlNUEO95cG_5alloc11collections5btree8navigateINtNtBa_4node6HandleINtB13_7NodeRefNtNtB13_6marker5DyingTjNtNtCs4u7P9VlF0C9_14thiserror_impl4attr5TraitENtNtBa_7set_val9SetValZSTNtB1B_4LeafENtB1B_4EdgeE27deallocating_next_uncheckedNtNtBe_5alloc6GlobalE0B20_, symObjAddr: 0x17C8, symBinAddr: 0x48900, symSize: 0x58 }
  - { offset: 0x10A695, size: 0x8, addend: 0x0, symName: __RINvMNtNtCs85QQFkKrybG_4core3fmt2rtNtB3_8Argument11new_displayINtNtCshi3DZH3dfhk_5quote9___private20IdentFragmentAdapterRNtCsfwj6t2KTYdc_11proc_macro25IdentEECs4u7P9VlF0C9_14thiserror_impl, symObjAddr: 0x0, symBinAddr: 0x47138, symSize: 0x2C }
  - { offset: 0x10C2C2, size: 0x8, addend: 0x0, symName: __RINvNtCscwCr4GBBztI_3syn5parse12parse_scopedNCNvNtCs4u7P9VlF0C9_14thiserror_impl4attr21parse_error_attribute0EBM_, symObjAddr: 0x115C, symBinAddr: 0x48294, symSize: 0x30 }
  - { offset: 0x10C31E, size: 0x8, addend: 0x0, symName: __RNvXsh_NtCscwCr4GBBztI_3syn5parseNvYNtNtB7_4expr4ExprNtB5_5Parse5parseNtB5_6Parser6parse2Cs4u7P9VlF0C9_14thiserror_impl, symObjAddr: 0x3604, symBinAddr: 0x4A73C, symSize: 0x350 }
  - { offset: 0x10C42E, size: 0x8, addend: 0x0, symName: __RNvXsh_NtCscwCr4GBBztI_3syn5parseNvYNtNtB7_6derive11DeriveInputNtB5_5Parse5parseNtB5_6Parser6parse2Cs4u7P9VlF0C9_14thiserror_impl, symObjAddr: 0x3954, symBinAddr: 0x4AA8C, symSize: 0x354 }
  - { offset: 0x10C544, size: 0x8, addend: 0x0, symName: __RNvYNvYNtNtCscwCr4GBBztI_3syn6derive11DeriveInputNtNtB9_5parse5Parse5parseNtBN_6Parser5parseCs4u7P9VlF0C9_14thiserror_impl, symObjAddr: 0x3D64, symBinAddr: 0x4AE9C, symSize: 0x88 }
  - { offset: 0x10FCF7, size: 0x8, addend: 0x0, symName: __RINvMNtNtCs85QQFkKrybG_4core3fmt2rtNtB3_8Argument11new_displayINtNtCshi3DZH3dfhk_5quote9___private20IdentFragmentAdapterRNtNtCscwCr4GBBztI_3syn4expr5IndexEECs4u7P9VlF0C9_14thiserror_impl, symObjAddr: 0x2C, symBinAddr: 0x47164, symSize: 0x2C }
  - { offset: 0x10FD3C, size: 0x8, addend: 0x0, symName: __RINvMNtNtCs85QQFkKrybG_4core3fmt2rtNtB3_8Argument11new_displayINtNtCshi3DZH3dfhk_5quote9___private20IdentFragmentAdapterRRNtNtCscwCr4GBBztI_3syn4expr5IndexEECs4u7P9VlF0C9_14thiserror_impl, symObjAddr: 0x58, symBinAddr: 0x47190, symSize: 0x2C }
  - { offset: 0x10FD81, size: 0x8, addend: 0x0, symName: __RINvMNtNtCs85QQFkKrybG_4core3fmt2rtNtB3_8Argument11new_displayINtNtCshi3DZH3dfhk_5quote9___private20IdentFragmentAdapterRmEECs4u7P9VlF0C9_14thiserror_impl, symObjAddr: 0x84, symBinAddr: 0x471BC, symSize: 0x2C }
  - { offset: 0x10FDD3, size: 0x8, addend: 0x0, symName: __RINvMNtNtCs85QQFkKrybG_4core3fmt2rtNtB3_8Argument11new_displayNtNtNtCscwCr4GBBztI_3syn4attr7parsing16DisplayAttrStyleECs4u7P9VlF0C9_14thiserror_impl, symObjAddr: 0xB0, symBinAddr: 0x471E8, symSize: 0x2C }
  - { offset: 0x10FEEE, size: 0x8, addend: 0x0, symName: __RINvMs9_NtCscwCr4GBBztI_3syn5parseNtB6_11ParseBuffer4stepNCNvNtCs4u7P9VlF0C9_14thiserror_impl9scan_expr9scan_expr0bEBZ_, symObjAddr: 0xDC, symBinAddr: 0x47214, symSize: 0x1A0 }
  - { offset: 0x10FF78, size: 0x8, addend: 0x0, symName: __RINvMs9_NtCscwCr4GBBztI_3syn5parseNtB6_11ParseBuffer4stepNCNvNtCs4u7P9VlF0C9_14thiserror_impl9scan_expr9scan_exprs0_0bEBZ_, symObjAddr: 0x27C, symBinAddr: 0x473B4, symSize: 0x194 }
  - { offset: 0x110002, size: 0x8, addend: 0x0, symName: __RINvMs9_NtCscwCr4GBBztI_3syn5parseNtB6_11ParseBuffer4stepNCNvNtCs4u7P9VlF0C9_14thiserror_impl9scan_expr9scan_exprs1_0bEBZ_, symObjAddr: 0x410, symBinAddr: 0x47548, symSize: 0x194 }
  - { offset: 0x11008C, size: 0x8, addend: 0x0, symName: __RINvMs9_NtCscwCr4GBBztI_3syn5parseNtB6_11ParseBuffer4stepNCNvNtCs4u7P9VlF0C9_14thiserror_impl9scan_expr9scan_exprs_0bEBZ_, symObjAddr: 0x5A4, symBinAddr: 0x476DC, symSize: 0x1AC }
  - { offset: 0x110117, size: 0x8, addend: 0x0, symName: __RINvMs9_NtCscwCr4GBBztI_3syn5parseNtB6_11ParseBuffer4stepNCNvXs0_NvNvNtCs4u7P9VlF0C9_14thiserror_impl4attr21parse_error_attribute1__NtB13_11transparentNtB6_5Parse5parse0B26_EB17_, symObjAddr: 0x750, symBinAddr: 0x47888, symSize: 0x18C }
  - { offset: 0x1101A1, size: 0x8, addend: 0x0, symName: __RINvMs9_NtCscwCr4GBBztI_3syn5parseNtB6_11ParseBuffer5parseINtNtCs85QQFkKrybG_4core6option6OptionNtCsfwj6t2KTYdc_11proc_macro29TokenTreeEECs4u7P9VlF0C9_14thiserror_impl, symObjAddr: 0x8DC, symBinAddr: 0x47A14, symSize: 0x34 }
  - { offset: 0x1101CD, size: 0x8, addend: 0x0, symName: __RINvMs9_NtCscwCr4GBBztI_3syn5parseNtB6_11ParseBuffer5parseNtCsfwj6t2KTYdc_11proc_macro29TokenTreeECs4u7P9VlF0C9_14thiserror_impl, symObjAddr: 0x910, symBinAddr: 0x47A48, symSize: 0x34 }
  - { offset: 0x1101F9, size: 0x8, addend: 0x0, symName: __RINvMs9_NtCscwCr4GBBztI_3syn5parseNtB6_11ParseBuffer5parseNtNvNtCs4u7P9VlF0C9_14thiserror_impl4attr21parse_error_attribute11transparentEB10_, symObjAddr: 0x944, symBinAddr: 0x47A7C, symSize: 0x34 }
  - { offset: 0x11023D, size: 0x8, addend: 0x0, symName: __RINvMs9_NtCscwCr4GBBztI_3syn5parseNtB6_11ParseBuffer5peek2INvNtB8_5token2EqNtNtB8_9lookahead11TokenMarkerEECs4u7P9VlF0C9_14thiserror_impl, symObjAddr: 0x978, symBinAddr: 0x47AB0, symSize: 0x3C }
  - { offset: 0x11029D, size: 0x8, addend: 0x0, symName: __RINvMs9_NtCscwCr4GBBztI_3syn5parseNtB6_11ParseBuffer5peek2INvNtB8_5token4EqEqNtNtB8_9lookahead11TokenMarkerEECs4u7P9VlF0C9_14thiserror_impl, symObjAddr: 0x9B4, symBinAddr: 0x47AEC, symSize: 0x3C }
  - { offset: 0x1102D8, size: 0x8, addend: 0x0, symName: __RINvMs9_NtCscwCr4GBBztI_3syn5parseNtB6_11ParseBuffer5peek2NtNtB8_9lookahead3EndECs4u7P9VlF0C9_14thiserror_impl, symObjAddr: 0x9F0, symBinAddr: 0x47B28, symSize: 0x3C }
  - { offset: 0x110313, size: 0x8, addend: 0x0, symName: __RINvMs9_NtCscwCr4GBBztI_3syn5parseNtB6_11ParseBuffer5peek2NtNtNtB8_3ext7private6PeekFnECs4u7P9VlF0C9_14thiserror_impl, symObjAddr: 0xA2C, symBinAddr: 0x47B64, symSize: 0x3C }
  - { offset: 0x110373, size: 0x8, addend: 0x0, symName: __RINvMs9_NtCscwCr4GBBztI_3syn5parseNtB6_11ParseBuffer5peek2NvNtB8_3lit6LitIntECs4u7P9VlF0C9_14thiserror_impl, symObjAddr: 0xA68, symBinAddr: 0x47BA0, symSize: 0x3C }
  - { offset: 0x1103D3, size: 0x8, addend: 0x0, symName: __RINvMs9_NtCscwCr4GBBztI_3syn5parseNtB6_11ParseBuffer5peek2NvNtB8_3lit8LitFloatECs4u7P9VlF0C9_14thiserror_impl, symObjAddr: 0xAA4, symBinAddr: 0x47BDC, symSize: 0x3C }
  - { offset: 0x11040E, size: 0x8, addend: 0x0, symName: __RINvMs9_NtCscwCr4GBBztI_3syn5parseNtB6_11ParseBuffer5peek3INvNtB8_5token4EqEqNtNtB8_9lookahead11TokenMarkerEECs4u7P9VlF0C9_14thiserror_impl, symObjAddr: 0xAE0, symBinAddr: 0x47C18, symSize: 0x3C }
  - { offset: 0x1104D3, size: 0x8, addend: 0x0, symName: __RINvMsb_NtNtNtCsdFlNUEO95cG_5alloc11collections5btree8navigateINtB6_13LazyLeafRangeNtNtNtB8_4node6marker5DyingNtCsfwj6t2KTYdc_11proc_macro25IdentNtNtB8_7set_val9SetValZSTE16deallocating_endNtNtBc_5alloc6GlobalECs4u7P9VlF0C9_14thiserror_impl, symObjAddr: 0xB1C, symBinAddr: 0x47C54, symSize: 0x98 }
  - { offset: 0x1105D0, size: 0x8, addend: 0x0, symName: __RINvMsb_NtNtNtCsdFlNUEO95cG_5alloc11collections5btree8navigateINtB6_13LazyLeafRangeNtNtNtB8_4node6marker5DyingNtCsfwj6t2KTYdc_11proc_macro25IdentNtNtB8_7set_val9SetValZSTE27deallocating_next_uncheckedNtNtBc_5alloc6GlobalECs4u7P9VlF0C9_14thiserror_impl, symObjAddr: 0xBB4, symBinAddr: 0x47CEC, symSize: 0xA8 }
  - { offset: 0x1106B3, size: 0x8, addend: 0x0, symName: __RINvMsb_NtNtNtCsdFlNUEO95cG_5alloc11collections5btree8navigateINtB6_13LazyLeafRangeNtNtNtB8_4node6marker5DyingNtNtBc_6string6StringNtNtB8_7set_val9SetValZSTE16deallocating_endNtNtBc_5alloc6GlobalECs4u7P9VlF0C9_14thiserror_impl, symObjAddr: 0xC5C, symBinAddr: 0x47D94, symSize: 0x98 }
  - { offset: 0x110785, size: 0x8, addend: 0x0, symName: __RINvMsb_NtNtNtCsdFlNUEO95cG_5alloc11collections5btree8navigateINtB6_13LazyLeafRangeNtNtNtB8_4node6marker5DyingNtNtBc_6string6StringNtNtB8_7set_val9SetValZSTE27deallocating_next_uncheckedNtNtBc_5alloc6GlobalECs4u7P9VlF0C9_14thiserror_impl, symObjAddr: 0xCF4, symBinAddr: 0x47E2C, symSize: 0xA8 }
  - { offset: 0x1108FA, size: 0x8, addend: 0x0, symName: __RINvMsb_NtNtNtCsdFlNUEO95cG_5alloc11collections5btree8navigateINtB6_13LazyLeafRangeNtNtNtB8_4node6marker5DyingNtNtBc_6string6StringTINtNtB8_3set8BTreeSetB1K_EINtNtCscwCr4GBBztI_3syn10punctuated10PunctuatedNtCsfwj6t2KTYdc_11proc_macro211TokenStreamNtNtB2B_5token4PlusEEE16deallocating_endNtNtBc_5alloc6GlobalECs4u7P9VlF0C9_14thiserror_impl, symObjAddr: 0xD9C, symBinAddr: 0x47ED4, symSize: 0x98 }
  - { offset: 0x1109CC, size: 0x8, addend: 0x0, symName: __RINvMsb_NtNtNtCsdFlNUEO95cG_5alloc11collections5btree8navigateINtB6_13LazyLeafRangeNtNtNtB8_4node6marker5DyingNtNtBc_6string6StringTINtNtB8_3set8BTreeSetB1K_EINtNtCscwCr4GBBztI_3syn10punctuated10PunctuatedNtCsfwj6t2KTYdc_11proc_macro211TokenStreamNtNtB2B_5token4PlusEEE27deallocating_next_uncheckedNtNtBc_5alloc6GlobalECs4u7P9VlF0C9_14thiserror_impl, symObjAddr: 0xE34, symBinAddr: 0x47F6C, symSize: 0xA8 }
  - { offset: 0x110AAF, size: 0x8, addend: 0x0, symName: __RINvMsb_NtNtNtCsdFlNUEO95cG_5alloc11collections5btree8navigateINtB6_13LazyLeafRangeNtNtNtB8_4node6marker5DyingRNtCsfwj6t2KTYdc_11proc_macro25IdentNtNtB8_7set_val9SetValZSTE16deallocating_endNtNtBc_5alloc6GlobalECs4u7P9VlF0C9_14thiserror_impl, symObjAddr: 0xEDC, symBinAddr: 0x48014, symSize: 0x98 }
  - { offset: 0x110B81, size: 0x8, addend: 0x0, symName: __RINvMsb_NtNtNtCsdFlNUEO95cG_5alloc11collections5btree8navigateINtB6_13LazyLeafRangeNtNtNtB8_4node6marker5DyingRNtCsfwj6t2KTYdc_11proc_macro25IdentNtNtB8_7set_val9SetValZSTE27deallocating_next_uncheckedNtNtBc_5alloc6GlobalECs4u7P9VlF0C9_14thiserror_impl, symObjAddr: 0xF74, symBinAddr: 0x480AC, symSize: 0xA8 }
  - { offset: 0x110C82, size: 0x8, addend: 0x0, symName: __RINvMsb_NtNtNtCsdFlNUEO95cG_5alloc11collections5btree8navigateINtB6_13LazyLeafRangeNtNtNtB8_4node6marker5DyingTjNtNtCs4u7P9VlF0C9_14thiserror_impl4attr5TraitENtNtB8_7set_val9SetValZSTE16deallocating_endNtNtBc_5alloc6GlobalEB1Q_, symObjAddr: 0x101C, symBinAddr: 0x48154, symSize: 0x98 }
  - { offset: 0x110D54, size: 0x8, addend: 0x0, symName: __RINvMsb_NtNtNtCsdFlNUEO95cG_5alloc11collections5btree8navigateINtB6_13LazyLeafRangeNtNtNtB8_4node6marker5DyingTjNtNtCs4u7P9VlF0C9_14thiserror_impl4attr5TraitENtNtB8_7set_val9SetValZSTE27deallocating_next_uncheckedNtNtBc_5alloc6GlobalEB1Q_, symObjAddr: 0x10B4, symBinAddr: 0x481EC, symSize: 0xA8 }
  - { offset: 0x111834, size: 0x8, addend: 0x0, symName: __RNvMs1_NtNtCs85QQFkKrybG_4core3ptr8non_nullINtB5_7NonNullNtNtCs4u7P9VlF0C9_14thiserror_impl3ast7VariantE20offset_from_unsignedBX_, symObjAddr: 0x1ACC, symBinAddr: 0x48C04, symSize: 0x7C }
  - { offset: 0x11193E, size: 0x8, addend: 0x0, symName: __RNvMs1_NtNtCs85QQFkKrybG_4core3ptr8non_nullINtB5_7NonNullRNtCsfwj6t2KTYdc_11proc_macro25IdentE20offset_from_unsignedCs4u7P9VlF0C9_14thiserror_impl, symObjAddr: 0x1B48, symBinAddr: 0x48C80, symSize: 0x7C }
  - { offset: 0x111A48, size: 0x8, addend: 0x0, symName: __RNvMs1_NtNtCs85QQFkKrybG_4core3ptr8non_nullINtB5_7NonNullTNtNtCscwCr4GBBztI_3syn4data7VariantNtNtBY_5token5CommaEE20offset_from_unsignedCs4u7P9VlF0C9_14thiserror_impl, symObjAddr: 0x1BC4, symBinAddr: 0x48CFC, symSize: 0x7C }
  - { offset: 0x111B52, size: 0x8, addend: 0x0, symName: __RNvMs1_NtNtCs85QQFkKrybG_4core3ptr8non_nullINtB5_7NonNullTNtNtCscwCr4GBBztI_3syn4path15GenericArgumentNtNtBY_5token5CommaEE20offset_from_unsignedCs4u7P9VlF0C9_14thiserror_impl, symObjAddr: 0x1C40, symBinAddr: 0x48D78, symSize: 0x7C }
  - { offset: 0x111DBC, size: 0x8, addend: 0x0, symName: __RNvMsb_NtNtNtCsdFlNUEO95cG_5alloc11collections5btree8navigateINtB5_13LazyLeafRangeNtNtNtB7_4node6marker5DyingNtCsfwj6t2KTYdc_11proc_macro25IdentNtNtB7_7set_val9SetValZSTE10take_frontCs4u7P9VlF0C9_14thiserror_impl, symObjAddr: 0x1CBC, symBinAddr: 0x48DF4, symSize: 0x1C4 }
  - { offset: 0x11213B, size: 0x8, addend: 0x0, symName: __RNvMsb_NtNtNtCsdFlNUEO95cG_5alloc11collections5btree8navigateINtB5_13LazyLeafRangeNtNtNtB7_4node6marker5DyingNtNtBb_6string6StringNtNtB7_7set_val9SetValZSTE10take_frontCs4u7P9VlF0C9_14thiserror_impl, symObjAddr: 0x1E80, symBinAddr: 0x48FB8, symSize: 0x1C4 }
  - { offset: 0x1124BA, size: 0x8, addend: 0x0, symName: __RNvMsb_NtNtNtCsdFlNUEO95cG_5alloc11collections5btree8navigateINtB5_13LazyLeafRangeNtNtNtB7_4node6marker5DyingNtNtBb_6string6StringTINtNtB7_3set8BTreeSetB1J_EINtNtCscwCr4GBBztI_3syn10punctuated10PunctuatedNtCsfwj6t2KTYdc_11proc_macro211TokenStreamNtNtB2A_5token4PlusEEE10take_frontCs4u7P9VlF0C9_14thiserror_impl, symObjAddr: 0x2044, symBinAddr: 0x4917C, symSize: 0x1C4 }
  - { offset: 0x112839, size: 0x8, addend: 0x0, symName: __RNvMsb_NtNtNtCsdFlNUEO95cG_5alloc11collections5btree8navigateINtB5_13LazyLeafRangeNtNtNtB7_4node6marker5DyingRNtCsfwj6t2KTYdc_11proc_macro25IdentNtNtB7_7set_val9SetValZSTE10take_frontCs4u7P9VlF0C9_14thiserror_impl, symObjAddr: 0x2208, symBinAddr: 0x49340, symSize: 0x1C4 }
  - { offset: 0x112BB8, size: 0x8, addend: 0x0, symName: __RNvMsb_NtNtNtCsdFlNUEO95cG_5alloc11collections5btree8navigateINtB5_13LazyLeafRangeNtNtNtB7_4node6marker5DyingTjNtNtCs4u7P9VlF0C9_14thiserror_impl4attr5TraitENtNtB7_7set_val9SetValZSTE10take_frontB1P_, symObjAddr: 0x23CC, symBinAddr: 0x49504, symSize: 0x1C4 }
  - { offset: 0x112F1B, size: 0x8, addend: 0x0, symName: __RNvMsc_NtNtNtCsdFlNUEO95cG_5alloc11collections5btree8navigateINtB5_13LazyLeafRangeNtNtNtB7_4node6marker5DyingNtCsfwj6t2KTYdc_11proc_macro25IdentNtNtB7_7set_val9SetValZSTE10init_frontCs4u7P9VlF0C9_14thiserror_impl, symObjAddr: 0x2590, symBinAddr: 0x496C8, symSize: 0x1C8 }
  - { offset: 0x113209, size: 0x8, addend: 0x0, symName: __RNvMsc_NtNtNtCsdFlNUEO95cG_5alloc11collections5btree8navigateINtB5_13LazyLeafRangeNtNtNtB7_4node6marker5DyingNtNtBb_6string6StringNtNtB7_7set_val9SetValZSTE10init_frontCs4u7P9VlF0C9_14thiserror_impl, symObjAddr: 0x2758, symBinAddr: 0x49890, symSize: 0x1C8 }
  - { offset: 0x1134F7, size: 0x8, addend: 0x0, symName: __RNvMsc_NtNtNtCsdFlNUEO95cG_5alloc11collections5btree8navigateINtB5_13LazyLeafRangeNtNtNtB7_4node6marker5DyingNtNtBb_6string6StringTINtNtB7_3set8BTreeSetB1J_EINtNtCscwCr4GBBztI_3syn10punctuated10PunctuatedNtCsfwj6t2KTYdc_11proc_macro211TokenStreamNtNtB2A_5token4PlusEEE10init_frontCs4u7P9VlF0C9_14thiserror_impl, symObjAddr: 0x2920, symBinAddr: 0x49A58, symSize: 0x1C8 }
  - { offset: 0x1137E5, size: 0x8, addend: 0x0, symName: __RNvMsc_NtNtNtCsdFlNUEO95cG_5alloc11collections5btree8navigateINtB5_13LazyLeafRangeNtNtNtB7_4node6marker5DyingRNtCsfwj6t2KTYdc_11proc_macro25IdentNtNtB7_7set_val9SetValZSTE10init_frontCs4u7P9VlF0C9_14thiserror_impl, symObjAddr: 0x2AE8, symBinAddr: 0x49C20, symSize: 0x1C8 }
  - { offset: 0x113AD3, size: 0x8, addend: 0x0, symName: __RNvMsc_NtNtNtCsdFlNUEO95cG_5alloc11collections5btree8navigateINtB5_13LazyLeafRangeNtNtNtB7_4node6marker5DyingTjNtNtCs4u7P9VlF0C9_14thiserror_impl4attr5TraitENtNtB7_7set_val9SetValZSTE10init_frontB1P_, symObjAddr: 0x2CB0, symBinAddr: 0x49DE8, symSize: 0x1C8 }
  - { offset: 0x11438B, size: 0x8, addend: 0x0, symName: __RINvMNtCs85QQFkKrybG_4core6resultINtB3_6ResultNtNtCs4u7P9VlF0C9_14thiserror_impl3ast4EnumNtNtCscwCr4GBBztI_3syn5error5ErrorE3mapNtBK_5InputNcNtB22_4Enum0EBM_, symObjAddr: 0x0, symBinAddr: 0x4AF24, symSize: 0xDC }
  - { offset: 0x1143AF, size: 0x8, addend: 0x0, symName: __RNvNtCs4u7P9VlF0C9_14thiserror_impl9scan_expr11BREAK_LABEL, symObjAddr: 0x4AF0, symBinAddr: 0x251D18, symSize: 0x0 }
  - { offset: 0x1145D4, size: 0x8, addend: 0x0, symName: __RNvNtCs4u7P9VlF0C9_14thiserror_impl9scan_expr11BREAK_VALUE, symObjAddr: 0x4B50, symBinAddr: 0x251D78, symSize: 0x0 }
  - { offset: 0x1145EE, size: 0x8, addend: 0x0, symName: __RNvNtCs4u7P9VlF0C9_14thiserror_impl9scan_expr11CLOSURE_RET, symObjAddr: 0x4C10, symBinAddr: 0x251E38, symSize: 0x0 }
  - { offset: 0x114608, size: 0x8, addend: 0x0, symName: __RNvNtCs4u7P9VlF0C9_14thiserror_impl9scan_expr12CLOSURE_ARGS, symObjAddr: 0x4C70, symBinAddr: 0x251E98, symSize: 0x0 }
  - { offset: 0x114622, size: 0x8, addend: 0x0, symName: __RNvNtCs4u7P9VlF0C9_14thiserror_impl9scan_expr3DOT, symObjAddr: 0x4CD0, symBinAddr: 0x251EF8, symSize: 0x0 }
  - { offset: 0x11463C, size: 0x8, addend: 0x0, symName: __RNvNtCs4u7P9VlF0C9_14thiserror_impl9scan_expr3FOR, symObjAddr: 0x4D60, symBinAddr: 0x251F88, symSize: 0x0 }
  - { offset: 0x114656, size: 0x8, addend: 0x0, symName: __RNvNtCs4u7P9VlF0C9_14thiserror_impl9scan_expr3RAW, symObjAddr: 0x4DC0, symBinAddr: 0x251FE8, symSize: 0x0 }
  - { offset: 0x114670, size: 0x8, addend: 0x0, symName: __RNvNtCs4u7P9VlF0C9_14thiserror_impl9scan_expr4INIT, symObjAddr: 0x4EB0, symBinAddr: 0x2520D8, symSize: 0x0 }
  - { offset: 0x11468A, size: 0x8, addend: 0x0, symName: __RNvNtCs4u7P9VlF0C9_14thiserror_impl9scan_expr4PATH, symObjAddr: 0x53F0, symBinAddr: 0x252618, symSize: 0x0 }
  - { offset: 0x1146A4, size: 0x8, addend: 0x0, symName: __RNvNtCs4u7P9VlF0C9_14thiserror_impl9scan_expr5ASYNC, symObjAddr: 0x54B0, symBinAddr: 0x2526D8, symSize: 0x0 }
  - { offset: 0x1146BE, size: 0x8, addend: 0x0, symName: __RNvNtCs4u7P9VlF0C9_14thiserror_impl9scan_expr5BLOCK, symObjAddr: 0x5540, symBinAddr: 0x252768, symSize: 0x0 }
  - { offset: 0x1146D8, size: 0x8, addend: 0x0, symName: __RNvNtCs4u7P9VlF0C9_14thiserror_impl9scan_expr5CONST, symObjAddr: 0x5570, symBinAddr: 0x252798, symSize: 0x0 }
  - { offset: 0x1146F2, size: 0x8, addend: 0x0, symName: __RNvNtCs4u7P9VlF0C9_14thiserror_impl9scan_expr5RANGE, symObjAddr: 0x55D0, symBinAddr: 0x2527F8, symSize: 0x0 }
  - { offset: 0x11470C, size: 0x8, addend: 0x0, symName: __RNvNtCs4u7P9VlF0C9_14thiserror_impl9scan_expr6METHOD, symObjAddr: 0x56F0, symBinAddr: 0x252918, symSize: 0x0 }
  - { offset: 0x114726, size: 0x8, addend: 0x0, symName: __RNvNtCs4u7P9VlF0C9_14thiserror_impl9scan_expr6RETURN, symObjAddr: 0x5720, symBinAddr: 0x252948, symSize: 0x0 }
  - { offset: 0x114740, size: 0x8, addend: 0x0, symName: __RNvNtCs4u7P9VlF0C9_14thiserror_impl9scan_expr7CLOSURE, symObjAddr: 0x5780, symBinAddr: 0x2529A8, symSize: 0x0 }
  - { offset: 0x11475A, size: 0x8, addend: 0x0, symName: __RNvNtCs4u7P9VlF0C9_14thiserror_impl9scan_expr7IF_ELSE, symObjAddr: 0x58A0, symBinAddr: 0x252AC8, symSize: 0x0 }
  - { offset: 0x114774, size: 0x8, addend: 0x0, symName: __RNvNtCs4u7P9VlF0C9_14thiserror_impl9scan_expr7IF_THEN, symObjAddr: 0x5900, symBinAddr: 0x252B28, symSize: 0x0 }
  - { offset: 0x11478E, size: 0x8, addend: 0x0, symName: __RNvNtCs4u7P9VlF0C9_14thiserror_impl9scan_expr7PATTERN, symObjAddr: 0x5960, symBinAddr: 0x252B88, symSize: 0x0 }
  - { offset: 0x1147A8, size: 0x8, addend: 0x0, symName: __RNvNtCs4u7P9VlF0C9_14thiserror_impl9scan_expr7POSTFIX, symObjAddr: 0x5C60, symBinAddr: 0x252E88, symSize: 0x0 }
  - { offset: 0x1147C2, size: 0x8, addend: 0x0, symName: __RNvNtCs4u7P9VlF0C9_14thiserror_impl9scan_expr8CONTINUE, symObjAddr: 0x5E40, symBinAddr: 0x253068, symSize: 0x0 }
  - { offset: 0x1147DC, size: 0x8, addend: 0x0, symName: __RNvNtCs4u7P9VlF0C9_14thiserror_impl9scan_expr9REFERENCE, symObjAddr: 0x5EA0, symBinAddr: 0x2530C8, symSize: 0x0 }
  - { offset: 0x1147EE, size: 0x8, addend: 0x0, symName: __RNCNvNtCs4u7P9VlF0C9_14thiserror_impl9scan_expr9scan_expr0B5_, symObjAddr: 0x1658, symBinAddr: 0x4C57C, symSize: 0x1EC }
  - { offset: 0x114876, size: 0x8, addend: 0x0, symName: __RNCNvNtCs4u7P9VlF0C9_14thiserror_impl9scan_expr9scan_exprs0_0B5_, symObjAddr: 0x1844, symBinAddr: 0x4C768, symSize: 0x100 }
  - { offset: 0x1148E9, size: 0x8, addend: 0x0, symName: __RNCNvNtCs4u7P9VlF0C9_14thiserror_impl9scan_expr9scan_exprs1_0B5_, symObjAddr: 0x1944, symBinAddr: 0x4C868, symSize: 0x10C }
  - { offset: 0x11496B, size: 0x8, addend: 0x0, symName: __RNCNvNtCs4u7P9VlF0C9_14thiserror_impl9scan_expr9scan_exprs_0B5_, symObjAddr: 0x1A50, symBinAddr: 0x4C974, symSize: 0x2D4 }
  - { offset: 0x114A98, size: 0x8, addend: 0x0, symName: __RNvNtCs4u7P9VlF0C9_14thiserror_impl9scan_expr9scan_expr, symObjAddr: 0x227C, symBinAddr: 0x4D1A0, symSize: 0xD68 }
  - { offset: 0x115640, size: 0x8, addend: 0x0, symName: __RNvXsV_NtCs9bTl5rSDVcL_10proc_macro6bridgeINtNtCs85QQFkKrybG_4core6result6ResultINtNtBJ_6option6OptionNtNtB5_6client11TokenStreamEuEINtNtB5_3rpc6EncodeuE6encodeCs4u7P9VlF0C9_14thiserror_impl, symObjAddr: 0x339C, symBinAddr: 0x4E2C0, symSize: 0x110 }
  - { offset: 0x115704, size: 0x8, addend: 0x0, symName: __RNvXsV_NtCs9bTl5rSDVcL_10proc_macro6bridgeINtNtCs85QQFkKrybG_4core6result6ResultuNtNtB5_3rpc12PanicMessageEINtB1j_6EncodeuE6encodeCs4u7P9VlF0C9_14thiserror_impl, symObjAddr: 0x34AC, symBinAddr: 0x4E3D0, symSize: 0x12C }
  - { offset: 0x115C81, size: 0x8, addend: 0x0, symName: __RNvXs1_NtCsfwj6t2KTYdc_11proc_macro26markerNtB5_19ProcMacroAutoTraitsNtNtCs85QQFkKrybG_4core5clone5Clone5cloneCs4u7P9VlF0C9_14thiserror_impl, symObjAddr: 0x3174, symBinAddr: 0x4E098, symSize: 0x10 }
  - { offset: 0x11616A, size: 0x8, addend: 0x0, symName: __RINvXso_NtCs85QQFkKrybG_4core6resultINtB6_6ResultINtNtCsdFlNUEO95cG_5alloc3vec3VecNtNtCs4u7P9VlF0C9_14thiserror_impl3ast5FieldENtNtCscwCr4GBBztI_3syn5error5ErrorEINtNtNtNtB8_4iter6traits7collect12FromIteratorIBz_B1i_B21_EE9from_iterINtNtNtB2H_8adapters3map3MapINtNtB3N_9enumerate9EnumerateINtNtB25_10punctuated4IterNtNtB25_4data5FieldEENCNvMs2_B1k_B1i_17multiple_from_syn0EEB1m_, symObjAddr: 0x1558, symBinAddr: 0x4C47C, symSize: 0x34 }
  - { offset: 0x1161BD, size: 0x8, addend: 0x0, symName: __RINvXso_NtCs85QQFkKrybG_4core6resultINtB6_6ResultINtNtCsdFlNUEO95cG_5alloc3vec3VecNtNtCs4u7P9VlF0C9_14thiserror_impl3ast7VariantENtNtCscwCr4GBBztI_3syn5error5ErrorEINtNtNtNtB8_4iter6traits7collect12FromIteratorIBz_B1i_B23_EE9from_iterINtNtNtB2J_8adapters3map3MapINtNtB27_10punctuated4IterNtNtB27_4data7VariantENCNvMs0_B1k_NtB1k_4Enum8from_syn0EEB1m_, symObjAddr: 0x158C, symBinAddr: 0x4C4B0, symSize: 0x34 }
  - { offset: 0x116215, size: 0x8, addend: 0x0, symName: __RNCINvXso_NtCs85QQFkKrybG_4core6resultINtB8_6ResultINtNtCsdFlNUEO95cG_5alloc3vec3VecNtNtCs4u7P9VlF0C9_14thiserror_impl3ast5FieldENtNtCscwCr4GBBztI_3syn5error5ErrorEINtNtNtNtBa_4iter6traits7collect12FromIteratorIBB_B1k_B23_EE9from_iterINtNtNtB2J_8adapters3map3MapINtNtB3P_9enumerate9EnumerateINtNtB27_10punctuated4IterNtNtB27_4data5FieldEENCNvMs2_B1m_B1k_17multiple_from_syn0EE0B1o_, symObjAddr: 0x1608, symBinAddr: 0x4C52C, symSize: 0x28 }
  - { offset: 0x116273, size: 0x8, addend: 0x0, symName: __RNCINvXso_NtCs85QQFkKrybG_4core6resultINtB8_6ResultINtNtCsdFlNUEO95cG_5alloc3vec3VecNtNtCs4u7P9VlF0C9_14thiserror_impl3ast7VariantENtNtCscwCr4GBBztI_3syn5error5ErrorEINtNtNtNtBa_4iter6traits7collect12FromIteratorIBB_B1k_B25_EE9from_iterINtNtNtB2L_8adapters3map3MapINtNtB29_10punctuated4IterNtNtB29_4data7VariantENCNvMs0_B1m_NtB1m_4Enum8from_syn0EE0B1o_, symObjAddr: 0x1630, symBinAddr: 0x4C554, symSize: 0x28 }
  - { offset: 0x11643B, size: 0x8, addend: 0x0, symName: __RNvXsp_NtCs85QQFkKrybG_4core6resultINtB5_6ResultINtNtB7_6option6OptionNtCsfwj6t2KTYdc_11proc_macro29TokenTreeENtNtCscwCr4GBBztI_3syn5error5ErrorENtNtNtB7_3ops9try_trait3Try6branchCs4u7P9VlF0C9_14thiserror_impl, symObjAddr: 0x366C, symBinAddr: 0x4E590, symSize: 0x9C }
  - { offset: 0x1164B8, size: 0x8, addend: 0x0, symName: __RNvXsp_NtCs85QQFkKrybG_4core6resultINtB5_6ResultINtNtCsdFlNUEO95cG_5alloc3vec3VecNtNtCs4u7P9VlF0C9_14thiserror_impl3ast5FieldENtNtCscwCr4GBBztI_3syn5error5ErrorENtNtNtB7_3ops9try_trait3Try11from_outputB1l_, symObjAddr: 0x3708, symBinAddr: 0x4E62C, symSize: 0x18 }
  - { offset: 0x1164F8, size: 0x8, addend: 0x0, symName: __RNvXsp_NtCs85QQFkKrybG_4core6resultINtB5_6ResultINtNtCsdFlNUEO95cG_5alloc3vec3VecNtNtCs4u7P9VlF0C9_14thiserror_impl3ast5FieldENtNtCscwCr4GBBztI_3syn5error5ErrorENtNtNtB7_3ops9try_trait3Try6branchB1l_, symObjAddr: 0x3720, symBinAddr: 0x4E644, symSize: 0x94 }
  - { offset: 0x116575, size: 0x8, addend: 0x0, symName: __RNvXsp_NtCs85QQFkKrybG_4core6resultINtB5_6ResultINtNtCsdFlNUEO95cG_5alloc3vec3VecNtNtCs4u7P9VlF0C9_14thiserror_impl3ast7VariantENtNtCscwCr4GBBztI_3syn5error5ErrorENtNtNtB7_3ops9try_trait3Try11from_outputB1l_, symObjAddr: 0x37B4, symBinAddr: 0x4E6D8, symSize: 0x18 }
  - { offset: 0x1165B5, size: 0x8, addend: 0x0, symName: __RNvXsp_NtCs85QQFkKrybG_4core6resultINtB5_6ResultINtNtCsdFlNUEO95cG_5alloc3vec3VecNtNtCs4u7P9VlF0C9_14thiserror_impl3ast7VariantENtNtCscwCr4GBBztI_3syn5error5ErrorENtNtNtB7_3ops9try_trait3Try6branchB1l_, symObjAddr: 0x37CC, symBinAddr: 0x4E6F0, symSize: 0x94 }
  - { offset: 0x116632, size: 0x8, addend: 0x0, symName: __RNvXsp_NtCs85QQFkKrybG_4core6resultINtB5_6ResultNtCsfwj6t2KTYdc_11proc_macro29TokenTreeNtNtCscwCr4GBBztI_3syn5error5ErrorENtNtNtB7_3ops9try_trait3Try6branchCs4u7P9VlF0C9_14thiserror_impl, symObjAddr: 0x3860, symBinAddr: 0x4E784, symSize: 0x9C }
  - { offset: 0x1166AF, size: 0x8, addend: 0x0, symName: __RNvXsp_NtCs85QQFkKrybG_4core6resultINtB5_6ResultNtNtCs4u7P9VlF0C9_14thiserror_impl3ast5FieldNtNtCscwCr4GBBztI_3syn5error5ErrorENtNtNtB7_3ops9try_trait3Try6branchBO_, symObjAddr: 0x38FC, symBinAddr: 0x4E820, symSize: 0xCC }
  - { offset: 0x11672D, size: 0x8, addend: 0x0, symName: __RNvXsp_NtCs85QQFkKrybG_4core6resultINtB5_6ResultNtNtCs4u7P9VlF0C9_14thiserror_impl3ast5InputNtNtCscwCr4GBBztI_3syn5error5ErrorENtNtNtB7_3ops9try_trait3Try6branchBO_, symObjAddr: 0x39C8, symBinAddr: 0x4E8EC, symSize: 0xC0 }
  - { offset: 0x1167AB, size: 0x8, addend: 0x0, symName: __RNvXsp_NtCs85QQFkKrybG_4core6resultINtB5_6ResultNtNtCs4u7P9VlF0C9_14thiserror_impl3ast7VariantNtNtCscwCr4GBBztI_3syn5error5ErrorENtNtNtB7_3ops9try_trait3Try6branchBO_, symObjAddr: 0x3A88, symBinAddr: 0x4E9AC, symSize: 0xB8 }
  - { offset: 0x116829, size: 0x8, addend: 0x0, symName: __RNvXsp_NtCs85QQFkKrybG_4core6resultINtB5_6ResultNtNtCs4u7P9VlF0C9_14thiserror_impl3fmt12FmtArgumentsNtNtCscwCr4GBBztI_3syn5error5ErrorENtNtNtB7_3ops9try_trait3Try6branchBO_, symObjAddr: 0x3B40, symBinAddr: 0x4EA64, symSize: 0x9C }
  - { offset: 0x1168A6, size: 0x8, addend: 0x0, symName: __RNvXsp_NtCs85QQFkKrybG_4core6resultINtB5_6ResultNtNtCs4u7P9VlF0C9_14thiserror_impl4attr5AttrsNtNtCscwCr4GBBztI_3syn5error5ErrorENtNtNtB7_3ops9try_trait3Try6branchBO_, symObjAddr: 0x3BDC, symBinAddr: 0x4EB00, symSize: 0xC4 }
  - { offset: 0x116923, size: 0x8, addend: 0x0, symName: __RNvXsp_NtCs85QQFkKrybG_4core6resultINtB5_6ResultNtNtCscwCr4GBBztI_3syn6derive11DeriveInputNtNtBO_5error5ErrorENtNtNtB7_3ops9try_trait3Try6branchCs4u7P9VlF0C9_14thiserror_impl, symObjAddr: 0x3CA0, symBinAddr: 0x4EBC4, symSize: 0xB4 }
  - { offset: 0x1169A1, size: 0x8, addend: 0x0, symName: __RNvXsp_NtCs85QQFkKrybG_4core6resultINtB5_6ResultNtNvNtCs4u7P9VlF0C9_14thiserror_impl4attr21parse_error_attribute11transparentNtNtCscwCr4GBBztI_3syn5error5ErrorENtNtNtB7_3ops9try_trait3Try6branchBQ_, symObjAddr: 0x3D54, symBinAddr: 0x4EC78, symSize: 0x88 }
  - { offset: 0x116A1F, size: 0x8, addend: 0x0, symName: __RNvXsp_NtCs85QQFkKrybG_4core6resultINtB5_6ResultRNtNtCscwCr4GBBztI_3syn4path4PathNtNtBP_5error5ErrorENtNtNtB7_3ops9try_trait3Try6branchCs4u7P9VlF0C9_14thiserror_impl, symObjAddr: 0x3DDC, symBinAddr: 0x4ED00, symSize: 0x88 }
  - { offset: 0x116A9D, size: 0x8, addend: 0x0, symName: __RNvXsp_NtCs85QQFkKrybG_4core6resultINtB5_6ResultTNtNvNtCs4u7P9VlF0C9_14thiserror_impl4attr21parse_error_attribute11transparentNtNtCscwCr4GBBztI_3syn6buffer6CursorENtNtB24_5error5ErrorENtNtNtB7_3ops9try_trait3Try6branchBR_, symObjAddr: 0x3E64, symBinAddr: 0x4ED88, symSize: 0x94 }
  - { offset: 0x116B1A, size: 0x8, addend: 0x0, symName: __RNvXsp_NtCs85QQFkKrybG_4core6resultINtB5_6ResultTbNtNtCscwCr4GBBztI_3syn6buffer6CursorENtNtBQ_5error5ErrorENtNtNtB7_3ops9try_trait3Try6branchCs4u7P9VlF0C9_14thiserror_impl, symObjAddr: 0x3EF8, symBinAddr: 0x4EE1C, symSize: 0x94 }
  - { offset: 0x116B9D, size: 0x8, addend: 0x0, symName: __RNvXsq_NtCs85QQFkKrybG_4core6resultINtB5_6ResultINtNtB7_6option6OptionNtCsfwj6t2KTYdc_11proc_macro29TokenTreeENtNtCscwCr4GBBztI_3syn5error5ErrorEINtNtNtB7_3ops9try_trait12FromResidualIBy_NtNtB7_7convert10InfallibleB1K_EE13from_residualCs4u7P9VlF0C9_14thiserror_impl, symObjAddr: 0x3F8C, symBinAddr: 0x4EEB0, symSize: 0x48 }
  - { offset: 0x116C22, size: 0x8, addend: 0x0, symName: __RNvXsq_NtCs85QQFkKrybG_4core6resultINtB5_6ResultINtNtCsdFlNUEO95cG_5alloc3vec3VecNtNtCs4u7P9VlF0C9_14thiserror_impl3ast5FieldENtNtCscwCr4GBBztI_3syn5error5ErrorEINtNtNtB7_3ops9try_trait12FromResidualIBy_NtNtB7_7convert10InfallibleB20_EE13from_residualB1l_, symObjAddr: 0x3FD4, symBinAddr: 0x4EEF8, symSize: 0x48 }
  - { offset: 0x116CA7, size: 0x8, addend: 0x0, symName: __RNvXsq_NtCs85QQFkKrybG_4core6resultINtB5_6ResultINtNtCsdFlNUEO95cG_5alloc3vec3VecNtNtCs4u7P9VlF0C9_14thiserror_impl3ast7VariantENtNtCscwCr4GBBztI_3syn5error5ErrorEINtNtNtB7_3ops9try_trait12FromResidualIBy_NtNtB7_7convert10InfallibleB22_EE13from_residualB1l_, symObjAddr: 0x401C, symBinAddr: 0x4EF40, symSize: 0x48 }
  - { offset: 0x116D2C, size: 0x8, addend: 0x0, symName: __RNvXsq_NtCs85QQFkKrybG_4core6resultINtB5_6ResultNtCsfwj6t2KTYdc_11proc_macro25IdentNtNtCscwCr4GBBztI_3syn5error5ErrorEINtNtNtB7_3ops9try_trait12FromResidualIBy_NtNtB7_7convert10InfallibleNtBM_8LexErrorEE13from_residualCs4u7P9VlF0C9_14thiserror_impl, symObjAddr: 0x4064, symBinAddr: 0x4EF88, symSize: 0x48 }
  - { offset: 0x116D93, size: 0x8, addend: 0x0, symName: __RNvXsq_NtCs85QQFkKrybG_4core6resultINtB5_6ResultNtNtCs4u7P9VlF0C9_14thiserror_impl3ast4EnumNtNtCscwCr4GBBztI_3syn5error5ErrorEINtNtNtB7_3ops9try_trait12FromResidualIBy_NtNtB7_7convert10InfallibleB1r_EE13from_residualBO_, symObjAddr: 0x40AC, symBinAddr: 0x4EFD0, symSize: 0x48 }
  - { offset: 0x116E18, size: 0x8, addend: 0x0, symName: __RNvXsq_NtCs85QQFkKrybG_4core6resultINtB5_6ResultNtNtCs4u7P9VlF0C9_14thiserror_impl3ast5FieldNtNtCscwCr4GBBztI_3syn5error5ErrorEINtNtNtB7_3ops9try_trait12FromResidualIBy_NtNtB7_7convert10InfallibleB1s_EE13from_residualBO_, symObjAddr: 0x40F4, symBinAddr: 0x4F018, symSize: 0x4C }
  - { offset: 0x116E9D, size: 0x8, addend: 0x0, symName: __RNvXsq_NtCs85QQFkKrybG_4core6resultINtB5_6ResultNtNtCs4u7P9VlF0C9_14thiserror_impl3ast6StructNtNtCscwCr4GBBztI_3syn5error5ErrorEINtNtNtB7_3ops9try_trait12FromResidualIBy_NtNtB7_7convert10InfallibleB1t_EE13from_residualBO_, symObjAddr: 0x4140, symBinAddr: 0x4F064, symSize: 0x48 }
  - { offset: 0x116F22, size: 0x8, addend: 0x0, symName: __RNvXsq_NtCs85QQFkKrybG_4core6resultINtB5_6ResultNtNtCs4u7P9VlF0C9_14thiserror_impl3ast7VariantNtNtCscwCr4GBBztI_3syn5error5ErrorEINtNtNtB7_3ops9try_trait12FromResidualIBy_NtNtB7_7convert10InfallibleB1u_EE13from_residualBO_, symObjAddr: 0x4188, symBinAddr: 0x4F0AC, symSize: 0x48 }
  - { offset: 0x116FA7, size: 0x8, addend: 0x0, symName: __RNvXsq_NtCs85QQFkKrybG_4core6resultINtB5_6ResultNtNtCs4u7P9VlF0C9_14thiserror_impl3fmt12FmtArgumentsNtNtCscwCr4GBBztI_3syn5error5ErrorEINtNtNtB7_3ops9try_trait12FromResidualIBy_NtNtB7_7convert10InfallibleB1A_EE13from_residualBO_, symObjAddr: 0x41D0, symBinAddr: 0x4F0F4, symSize: 0x48 }
  - { offset: 0x11702C, size: 0x8, addend: 0x0, symName: __RNvXsq_NtCs85QQFkKrybG_4core6resultINtB5_6ResultNtNtCs4u7P9VlF0C9_14thiserror_impl4attr5AttrsNtNtCscwCr4GBBztI_3syn5error5ErrorEINtNtNtB7_3ops9try_trait12FromResidualIBy_NtNtB7_7convert10InfallibleB1t_EE13from_residualBO_, symObjAddr: 0x4218, symBinAddr: 0x4F13C, symSize: 0x4C }
  - { offset: 0x1170B1, size: 0x8, addend: 0x0, symName: __RNvXsq_NtCs85QQFkKrybG_4core6resultINtB5_6ResultNtNvNtCs4u7P9VlF0C9_14thiserror_impl4attr21parse_error_attribute11transparentNtNtCscwCr4GBBztI_3syn5error5ErrorEINtNtNtB7_3ops9try_trait12FromResidualIBy_NtNtB7_7convert10InfallibleB1Z_EE13from_residualBQ_, symObjAddr: 0x4264, symBinAddr: 0x4F188, symSize: 0x40 }
  - { offset: 0x11B06A, size: 0x8, addend: 0x0, symName: __RINvNtNtNtCs85QQFkKrybG_4core5slice4sort6stable14driftsort_mainRNtCsfwj6t2KTYdc_11proc_macro25IdentNvYBZ_NtNtB8_3cmp10PartialOrd2ltINtNtCsdFlNUEO95cG_5alloc3vec3VecBZ_EECs4u7P9VlF0C9_14thiserror_impl, symObjAddr: 0x1D8, symBinAddr: 0x4B0FC, symSize: 0x290 }
  - { offset: 0x11B2BF, size: 0x8, addend: 0x0, symName: __RINvNtNtNtNtCs85QQFkKrybG_4core5slice4sort6stable9quicksort16stable_partitionRNtCsfwj6t2KTYdc_11proc_macro25IdentNCINvB2_9quicksortB1d_NvYB1d_NtNtBa_3cmp10PartialOrd2ltE0ECs4u7P9VlF0C9_14thiserror_impl, symObjAddr: 0x468, symBinAddr: 0x4B38C, symSize: 0x560 }
  - { offset: 0x11B741, size: 0x8, addend: 0x0, symName: __RINvNtNtNtNtCs85QQFkKrybG_4core5slice4sort6stable9quicksort16stable_partitionRNtCsfwj6t2KTYdc_11proc_macro25IdentNvYB1d_NtNtBa_3cmp10PartialOrd2ltECs4u7P9VlF0C9_14thiserror_impl, symObjAddr: 0x9C8, symBinAddr: 0x4B8EC, symSize: 0x560 }
  - { offset: 0x11BBC3, size: 0x8, addend: 0x0, symName: __RINvNtNtNtNtCs85QQFkKrybG_4core5slice4sort6stable9quicksort9quicksortRNtCsfwj6t2KTYdc_11proc_macro25IdentNvYB15_NtNtBa_3cmp10PartialOrd2ltECs4u7P9VlF0C9_14thiserror_impl, symObjAddr: 0xF28, symBinAddr: 0x4BE4C, symSize: 0x3A8 }
  - { offset: 0x11BE5B, size: 0x8, addend: 0x0, symName: __RNCINvNtNtNtNtCs85QQFkKrybG_4core5slice4sort6stable9quicksort9quicksortRNtCsfwj6t2KTYdc_11proc_macro25IdentNvYB17_NtNtBc_3cmp10PartialOrd2ltE0Cs4u7P9VlF0C9_14thiserror_impl, symObjAddr: 0x15C0, symBinAddr: 0x4C4E4, symSize: 0x48 }
  - { offset: 0x11C0DA, size: 0x8, addend: 0x0, symName: __RINvNvMNtCs85QQFkKrybG_4core5sliceSp7reverse7revswapRNtCsfwj6t2KTYdc_11proc_macro25IdentECs4u7P9VlF0C9_14thiserror_impl, symObjAddr: 0x12E8, symBinAddr: 0x4C20C, symSize: 0x270 }
  - { offset: 0x11C297, size: 0x8, addend: 0x0, symName: __RNvMNtCs85QQFkKrybG_4core5sliceSh15copy_from_sliceCs4u7P9VlF0C9_14thiserror_impl, symObjAddr: 0x1D24, symBinAddr: 0x4CC48, symSize: 0xAC }
  - { offset: 0x11C3A3, size: 0x8, addend: 0x0, symName: __RNvNvMNtCs85QQFkKrybG_4core5sliceSp22split_at_mut_unchecked18precondition_checkCs4u7P9VlF0C9_14thiserror_impl, symObjAddr: 0x3050, symBinAddr: 0x4DF74, symSize: 0xAC }
  - { offset: 0x11C579, size: 0x8, addend: 0x0, symName: __RNvXs_NtNtCs85QQFkKrybG_4core5slice4iterRSTNtNtCs4u7P9VlF0C9_14thiserror_impl9scan_expr5InputNtBH_6ActionENtNtNtNtB8_4iter6traits7collect12IntoIterator9into_iterBJ_, symObjAddr: 0x3614, symBinAddr: 0x4E538, symSize: 0x58 }
  - { offset: 0x11D449, size: 0x8, addend: 0x0, symName: __RINvNtNtNtNtCs85QQFkKrybG_4core9core_arch10arm_shared4neon9generated13vget_lane_u64Kl0_ECs4u7P9VlF0C9_14thiserror_impl, symObjAddr: 0x12D0, symBinAddr: 0x4C1F4, symSize: 0x18 }
  - { offset: 0x11D478, size: 0x8, addend: 0x0, symName: __RNvNtNtNtNtCs85QQFkKrybG_4core9core_arch10arm_shared4neon9generated18vreinterpret_s8_u8Cs4u7P9VlF0C9_14thiserror_impl, symObjAddr: 0x2FE4, symBinAddr: 0x4DF08, symSize: 0xC }
  - { offset: 0x11D4A6, size: 0x8, addend: 0x0, symName: __RNvNtNtNtNtCs85QQFkKrybG_4core9core_arch10arm_shared4neon9generated19vreinterpret_u64_u8Cs4u7P9VlF0C9_14thiserror_impl, symObjAddr: 0x2FF0, symBinAddr: 0x4DF14, symSize: 0xC }
  - { offset: 0x11D4D4, size: 0x8, addend: 0x0, symName: __RNvNtNtNtNtCs85QQFkKrybG_4core9core_arch10arm_shared4neon9generated7vceq_u8Cs4u7P9VlF0C9_14thiserror_impl, symObjAddr: 0x2FFC, symBinAddr: 0x4DF20, symSize: 0x14 }
  - { offset: 0x11D511, size: 0x8, addend: 0x0, symName: __RNvNtNtNtNtCs85QQFkKrybG_4core9core_arch10arm_shared4neon9generated7vorr_u8Cs4u7P9VlF0C9_14thiserror_impl, symObjAddr: 0x3010, symBinAddr: 0x4DF34, symSize: 0x14 }
  - { offset: 0x11D54E, size: 0x8, addend: 0x0, symName: __RNvNtNtNtNtCs85QQFkKrybG_4core9core_arch10arm_shared4neon9generated9vdup_n_u8Cs4u7P9VlF0C9_14thiserror_impl, symObjAddr: 0x3024, symBinAddr: 0x4DF48, symSize: 0x2C }
  - { offset: 0x11D6D9, size: 0x8, addend: 0x0, symName: __RNvXs1_NtNtNtCs85QQFkKrybG_4core5array4iter10iter_innerINtB5_15PolymorphicIterAINtNtNtBb_3mem12maybe_uninit11MaybeUninitjEj2_ENtNtNtBb_3ops4drop4Drop4dropCs4u7P9VlF0C9_14thiserror_impl, symObjAddr: 0x3184, symBinAddr: 0x4E0A8, symSize: 0x38 }
  - { offset: 0x11D759, size: 0x8, addend: 0x0, symName: __RNvMsl_NtCs85QQFkKrybG_4core5arrayATNtNtCs4u7P9VlF0C9_14thiserror_impl9scan_expr5InputNtBA_6ActionEj1c_8as_sliceBC_, symObjAddr: 0x2260, symBinAddr: 0x4D184, symSize: 0x1C }
  - { offset: 0x122612, size: 0x8, addend: 0x0, symName: __RNvXs0_NtCscwCr4GBBztI_3syn5dropsINtB5_6NoDropDINtNtB7_10punctuated9IterTraitNtNtB7_4data7VariantEp4ItemRB1d_EL_ENtNtNtCs85QQFkKrybG_4core3ops5deref8DerefMut9deref_mutCs4u7P9VlF0C9_14thiserror_impl, symObjAddr: 0x30FC, symBinAddr: 0x4E020, symSize: 0x3C }
  - { offset: 0x122647, size: 0x8, addend: 0x0, symName: __RNvXs0_NtCscwCr4GBBztI_3syn5dropsINtB5_6NoDropDINtNtB7_10punctuated9IterTraitNtNtB7_4path15GenericArgumentEp4ItemRB1d_EL_ENtNtNtCs85QQFkKrybG_4core3ops5deref8DerefMut9deref_mutCs4u7P9VlF0C9_14thiserror_impl, symObjAddr: 0x3138, symBinAddr: 0x4E05C, symSize: 0x3C }
  - { offset: 0x122682, size: 0x8, addend: 0x0, symName: __RNvXs_NtCscwCr4GBBztI_3syn5dropsINtB4_6NoDropDINtNtB6_10punctuated9IterTraitNtNtB6_4data7VariantEp4ItemRB1c_EL_ENtNtNtCs85QQFkKrybG_4core3ops5deref5Deref5derefCs4u7P9VlF0C9_14thiserror_impl, symObjAddr: 0x35D8, symBinAddr: 0x4E4FC, symSize: 0x3C }
  - { offset: 0x124382, size: 0x8, addend: 0x0, symName: __RINvMNtCs85QQFkKrybG_4core6resultINtB3_6ResultNtNtCs4u7P9VlF0C9_14thiserror_impl3ast4EnumNtNtCscwCr4GBBztI_3syn5error5ErrorE3mapNtBK_5InputNcNtB22_4Enum0EBM_, symObjAddr: 0x0, symBinAddr: 0x4AF24, symSize: 0xDC }
  - { offset: 0x12442D, size: 0x8, addend: 0x0, symName: __RINvMNtCs85QQFkKrybG_4core6resultINtB3_6ResultNtNtCs4u7P9VlF0C9_14thiserror_impl3ast6StructNtNtCscwCr4GBBztI_3syn5error5ErrorE3mapNtBK_5InputNcNtB24_6Struct0EBM_, symObjAddr: 0xDC, symBinAddr: 0x4B000, symSize: 0xDC }
  - { offset: 0x1244CA, size: 0x8, addend: 0x0, symName: __RINvNtCshi3DZH3dfhk_5quote9___private8get_spanNtCsfwj6t2KTYdc_11proc_macro24SpanECs4u7P9VlF0C9_14thiserror_impl, symObjAddr: 0x1B8, symBinAddr: 0x4B0DC, symSize: 0x20 }
  - { offset: 0x12457E, size: 0x8, addend: 0x0, symName: __RNvXs5_NtCshi3DZH3dfhk_5quote9___privateINtB5_9RepInterpNtCsfwj6t2KTYdc_11proc_macro211TokenStreamENtNtB7_9to_tokens8ToTokens9to_tokensCs4u7P9VlF0C9_14thiserror_impl, symObjAddr: 0x31BC, symBinAddr: 0x4E0E0, symSize: 0x3C }
  - { offset: 0x1245BD, size: 0x8, addend: 0x0, symName: __RNvXs5_NtCshi3DZH3dfhk_5quote9___privateINtB5_9RepInterpNtCsfwj6t2KTYdc_11proc_macro25IdentENtNtB7_9to_tokens8ToTokens9to_tokensCs4u7P9VlF0C9_14thiserror_impl, symObjAddr: 0x31F8, symBinAddr: 0x4E11C, symSize: 0x3C }
  - { offset: 0x1245FC, size: 0x8, addend: 0x0, symName: __RNvXs5_NtCshi3DZH3dfhk_5quote9___privateINtB5_9RepInterpRNtCsfwj6t2KTYdc_11proc_macro211TokenStreamENtNtB7_9to_tokens8ToTokens9to_tokensCs4u7P9VlF0C9_14thiserror_impl, symObjAddr: 0x3234, symBinAddr: 0x4E158, symSize: 0x3C }
  - { offset: 0x12463B, size: 0x8, addend: 0x0, symName: __RNvXs5_NtCshi3DZH3dfhk_5quote9___privateINtB5_9RepInterpRNtNtCscwCr4GBBztI_3syn4expr6MemberENtNtB7_9to_tokens8ToTokens9to_tokensCs4u7P9VlF0C9_14thiserror_impl, symObjAddr: 0x3270, symBinAddr: 0x4E194, symSize: 0x3C }
  - { offset: 0x124680, size: 0x8, addend: 0x0, symName: __RNvXs7_NtCshi3DZH3dfhk_5quote9___privateINtB5_20IdentFragmentAdapterRNtCsfwj6t2KTYdc_11proc_macro25IdentENtNtCs85QQFkKrybG_4core3fmt7Display3fmtCs4u7P9VlF0C9_14thiserror_impl, symObjAddr: 0x32AC, symBinAddr: 0x4E1D0, symSize: 0x3C }
  - { offset: 0x1246C6, size: 0x8, addend: 0x0, symName: __RNvXs7_NtCshi3DZH3dfhk_5quote9___privateINtB5_20IdentFragmentAdapterRNtNtCscwCr4GBBztI_3syn4expr5IndexENtNtCs85QQFkKrybG_4core3fmt7Display3fmtCs4u7P9VlF0C9_14thiserror_impl, symObjAddr: 0x32E8, symBinAddr: 0x4E20C, symSize: 0x3C }
  - { offset: 0x12470C, size: 0x8, addend: 0x0, symName: __RNvXs7_NtCshi3DZH3dfhk_5quote9___privateINtB5_20IdentFragmentAdapterRRNtNtCscwCr4GBBztI_3syn4expr5IndexENtNtCs85QQFkKrybG_4core3fmt7Display3fmtCs4u7P9VlF0C9_14thiserror_impl, symObjAddr: 0x3324, symBinAddr: 0x4E248, symSize: 0x3C }
  - { offset: 0x124752, size: 0x8, addend: 0x0, symName: __RNvXs7_NtCshi3DZH3dfhk_5quote9___privateINtB5_20IdentFragmentAdapterRmENtNtCs85QQFkKrybG_4core3fmt7Display3fmtCs4u7P9VlF0C9_14thiserror_impl, symObjAddr: 0x3360, symBinAddr: 0x4E284, symSize: 0x3C }
  - { offset: 0x12479E, size: 0x8, addend: 0x0, symName: __RNvYINtNtCshi3DZH3dfhk_5quote9___private11HasIteratorKb1_EINtB5_16CheckHasIteratorKBQ_E5checkCs4u7P9VlF0C9_14thiserror_impl, symObjAddr: 0x42A4, symBinAddr: 0x4F1C8, symSize: 0x1C }
  - { offset: 0x124C63, size: 0x8, addend: 0x0, symName: __RNvMNtCs85QQFkKrybG_4core6resultINtB2_6ResultNtNtCscwCr4GBBztI_3syn2op5BinOpNtNtBL_5error5ErrorE5is_okCs4u7P9VlF0C9_14thiserror_impl, symObjAddr: 0x1DD0, symBinAddr: 0x4CCF4, symSize: 0x2C }
  - { offset: 0x124CA5, size: 0x8, addend: 0x0, symName: __RNvMNtCs85QQFkKrybG_4core6resultINtB2_6ResultNtNtCscwCr4GBBztI_3syn4expr4ExprNtNtBL_5error5ErrorE5is_okCs4u7P9VlF0C9_14thiserror_impl, symObjAddr: 0x1DFC, symBinAddr: 0x4CD20, symSize: 0x2C }
  - { offset: 0x124D0F, size: 0x8, addend: 0x0, symName: __RNvMNtCscwCr4GBBztI_3syn5dropsINtB2_6NoDropINtNtB4_10punctuated11PrivateIterNtNtB4_4data7VariantNtNtB4_5token5CommaEE3newCs4u7P9VlF0C9_14thiserror_impl, symObjAddr: 0x1E28, symBinAddr: 0x4CD4C, symSize: 0x40 }
  - { offset: 0x124D99, size: 0x8, addend: 0x0, symName: __RNvMNtCscwCr4GBBztI_3syn5dropsINtB2_6NoDropINtNtB4_10punctuated11PrivateIterNtNtB4_4path15GenericArgumentNtNtB4_5token5CommaEE3newCs4u7P9VlF0C9_14thiserror_impl, symObjAddr: 0x1E68, symBinAddr: 0x4CD8C, symSize: 0x40 }
  - { offset: 0x124E2F, size: 0x8, addend: 0x0, symName: __RNvMNtNtNtCs85QQFkKrybG_4core5slice4sort6stableINtB2_14AlignedStorageRNtCsfwj6t2KTYdc_11proc_macro25IdentKj1000_E19as_uninit_slice_mutCs4u7P9VlF0C9_14thiserror_impl, symObjAddr: 0x1EA8, symBinAddr: 0x4CDCC, symSize: 0x80 }
  - { offset: 0x124EE3, size: 0x8, addend: 0x0, symName: __RNvMNtNtNtNtCs85QQFkKrybG_4core5slice4sort6stable9quicksortINtB2_14PartitionStateRNtCsfwj6t2KTYdc_11proc_macro25IdentE13partition_oneCs4u7P9VlF0C9_14thiserror_impl, symObjAddr: 0x1F28, symBinAddr: 0x4CE4C, symSize: 0x140 }
  - { offset: 0x124FDB, size: 0x8, addend: 0x0, symName: __RNvMs6_NtCshi3DZH3dfhk_5quote9___privateINtB5_20IdentFragmentAdapterRNtCsfwj6t2KTYdc_11proc_macro25IdentE4spanCs4u7P9VlF0C9_14thiserror_impl, symObjAddr: 0x2068, symBinAddr: 0x4CF8C, symSize: 0x34 }
  - { offset: 0x12502E, size: 0x8, addend: 0x0, symName: __RNvMs6_NtCshi3DZH3dfhk_5quote9___privateINtB5_20IdentFragmentAdapterRRNtNtCscwCr4GBBztI_3syn4expr5IndexE4spanCs4u7P9VlF0C9_14thiserror_impl, symObjAddr: 0x209C, symBinAddr: 0x4CFC0, symSize: 0x34 }
  - { offset: 0x1251D5, size: 0x8, addend: 0x0, symName: __RNvMs6_NtNtNtCs85QQFkKrybG_4core5array4iter10iter_innerINtB5_15PolymorphicIterSINtNtNtBb_3mem12maybe_uninit11MaybeUninitjEE4nextCs4u7P9VlF0C9_14thiserror_impl, symObjAddr: 0x20D0, symBinAddr: 0x4CFF4, symSize: 0x190 }
  - { offset: 0x1259BC, size: 0x8, addend: 0x0, symName: __RINvMNtCs85QQFkKrybG_4core6optionINtB3_6OptionIBw_RNtNtCscwCr4GBBztI_3syn4expr6MemberEE18get_or_insert_withNCNvMs3_NtNtNtB5_4iter8adapters8peekableINtB1P_8PeekableINtNtB1R_3map3MapINtNtNtB5_5slice4iter4IterNtNtCs4u7P9VlF0C9_14thiserror_impl3ast5FieldENCNvNtB3m_6expand10fields_pat0EE4peek0EB3m_, symObjAddr: 0x0, symBinAddr: 0x4F1E4, symSize: 0xF4 }
  - { offset: 0x125A18, size: 0x8, addend: 0x0, symName: __RNvXsw_NtCsdFlNUEO95cG_5alloc6stringNtNtCscwCr4GBBztI_3syn3lit8LitFloatNtB5_8ToString9to_stringCs4u7P9VlF0C9_14thiserror_impl, symObjAddr: 0x46BC, symBinAddr: 0x53808, symSize: 0x24 }
  - { offset: 0x125A55, size: 0x8, addend: 0x0, symName: __RNvXsx_NtCsdFlNUEO95cG_5alloc6stringNtNtCscwCr4GBBztI_3syn3lit8LitFloatNtB5_12SpecToString14spec_to_stringCs4u7P9VlF0C9_14thiserror_impl, symObjAddr: 0x46E0, symBinAddr: 0x5382C, symSize: 0xF4 }
  - { offset: 0x127224, size: 0x8, addend: 0x0, symName: __RNvXs7_NtNtNtCsdFlNUEO95cG_5alloc11collections5btree7set_valNtB5_9SetValZSTNtNtCs85QQFkKrybG_4core5clone5Clone5cloneCs4u7P9VlF0C9_14thiserror_impl, symObjAddr: 0x3B10, symBinAddr: 0x52C5C, symSize: 0x10 }
  - { offset: 0x1289C0, size: 0x8, addend: 0x0, symName: __RINvNtCs85QQFkKrybG_4core3ptr13drop_in_placeINtNtB4_4cell10UnsafeCellNtNtNtCs9bTl5rSDVcL_10proc_macro6bridge6client6BridgeEECs4u7P9VlF0C9_14thiserror_impl, symObjAddr: 0xEB0, symBinAddr: 0x5004C, symSize: 0x24 }
  - { offset: 0x1289EF, size: 0x8, addend: 0x0, symName: __RINvNtCs85QQFkKrybG_4core3ptr13drop_in_placeINtNtB4_4cell7RefCellNtNtNtCs9bTl5rSDVcL_10proc_macro6bridge6client6BridgeEECs4u7P9VlF0C9_14thiserror_impl, symObjAddr: 0xED4, symBinAddr: 0x50070, symSize: 0x24 }
  - { offset: 0x128A1E, size: 0x8, addend: 0x0, symName: __RINvNtCs85QQFkKrybG_4core3ptr13drop_in_placeINtNtB4_6option6OptionINtNtB4_6result6ResultNtNtB4_7convert10InfallibleNtNtCscwCr4GBBztI_3syn5error5ErrorEEECs4u7P9VlF0C9_14thiserror_impl, symObjAddr: 0xEF8, symBinAddr: 0x50094, symSize: 0x48 }
  - { offset: 0x128A4D, size: 0x8, addend: 0x0, symName: __RINvNtCs85QQFkKrybG_4core3ptr13drop_in_placeINtNtB4_6option6OptionINtNtB4_6result6ResultNtNtCscwCr4GBBztI_3syn4expr5IndexNtNtB1s_5error5ErrorEEECs4u7P9VlF0C9_14thiserror_impl, symObjAddr: 0xF40, symBinAddr: 0x500DC, symSize: 0x48 }
  - { offset: 0x128A7C, size: 0x8, addend: 0x0, symName: __RINvNtCs85QQFkKrybG_4core3ptr13drop_in_placeINtNtB4_6option6OptionINtNtCsdFlNUEO95cG_5alloc5boxed3BoxNtCsfwj6t2KTYdc_11proc_macro211TokenStreamEEECs4u7P9VlF0C9_14thiserror_impl, symObjAddr: 0xF88, symBinAddr: 0x50124, symSize: 0x44 }
  - { offset: 0x128AAB, size: 0x8, addend: 0x0, symName: __RINvNtCs85QQFkKrybG_4core3ptr13drop_in_placeINtNtB4_6option6OptionNtNtCs4u7P9VlF0C9_14thiserror_impl4attr7DisplayEEB16_, symObjAddr: 0xFCC, symBinAddr: 0x50168, symSize: 0x48 }
  - { offset: 0x128ADA, size: 0x8, addend: 0x0, symName: __RINvNtCs85QQFkKrybG_4core3ptr13drop_in_placeINtNtB4_6result6ResultNtNtB4_7convert10InfallibleNtNtCscwCr4GBBztI_3syn5error5ErrorEECs4u7P9VlF0C9_14thiserror_impl, symObjAddr: 0x1014, symBinAddr: 0x501B0, symSize: 0x30 }
  - { offset: 0x128B09, size: 0x8, addend: 0x0, symName: __RINvNtCs85QQFkKrybG_4core3ptr13drop_in_placeINtNtB4_6result6ResultNtNtCs4u7P9VlF0C9_14thiserror_impl3fmt12FmtArgumentsNtNtCscwCr4GBBztI_3syn5error5ErrorEEB16_, symObjAddr: 0x1044, symBinAddr: 0x501E0, symSize: 0x54 }
  - { offset: 0x128B38, size: 0x8, addend: 0x0, symName: __RINvNtCs85QQFkKrybG_4core3ptr13drop_in_placeINtNtB4_6result6ResultNtNtCscwCr4GBBztI_3syn4expr4ExprNtNtB16_5error5ErrorEECs4u7P9VlF0C9_14thiserror_impl, symObjAddr: 0x1098, symBinAddr: 0x50234, symSize: 0x58 }
  - { offset: 0x128B67, size: 0x8, addend: 0x0, symName: __RINvNtCs85QQFkKrybG_4core3ptr13drop_in_placeINtNtB4_6result6ResultNtNtCscwCr4GBBztI_3syn4expr5IndexNtNtB16_5error5ErrorEECs4u7P9VlF0C9_14thiserror_impl, symObjAddr: 0x10F0, symBinAddr: 0x5028C, symSize: 0x48 }
  - { offset: 0x128B96, size: 0x8, addend: 0x0, symName: __RINvNtCs85QQFkKrybG_4core3ptr13drop_in_placeINtNtCscwCr4GBBztI_3syn10punctuated10PunctuatedNtCsfwj6t2KTYdc_11proc_macro211TokenStreamNtNtBL_5token4PlusEECs4u7P9VlF0C9_14thiserror_impl, symObjAddr: 0x1138, symBinAddr: 0x502D4, symSize: 0x60 }
  - { offset: 0x128BC5, size: 0x8, addend: 0x0, symName: __RINvNtCs85QQFkKrybG_4core3ptr13drop_in_placeINtNtCscwCr4GBBztI_3syn10punctuated4IterNtNtBL_4data5FieldEECs4u7P9VlF0C9_14thiserror_impl, symObjAddr: 0x1198, symBinAddr: 0x50334, symSize: 0x24 }
  - { offset: 0x128BF4, size: 0x8, addend: 0x0, symName: __RINvNtCs85QQFkKrybG_4core3ptr13drop_in_placeINtNtCscwCr4GBBztI_3syn10punctuated4IterNtNtBL_4data7VariantEECs4u7P9VlF0C9_14thiserror_impl, symObjAddr: 0x11BC, symBinAddr: 0x50358, symSize: 0x24 }
  - { offset: 0x128C23, size: 0x8, addend: 0x0, symName: __RINvNtCs85QQFkKrybG_4core3ptr13drop_in_placeINtNtCscwCr4GBBztI_3syn10punctuated4IterNtNtBL_4path15GenericArgumentEECs4u7P9VlF0C9_14thiserror_impl, symObjAddr: 0x11E0, symBinAddr: 0x5037C, symSize: 0x24 }
  - { offset: 0x128C52, size: 0x8, addend: 0x0, symName: __RINvNtCs85QQFkKrybG_4core3ptr13drop_in_placeINtNtCscwCr4GBBztI_3syn10punctuated4IterNtNtBL_8generics12GenericParamEECs4u7P9VlF0C9_14thiserror_impl, symObjAddr: 0x1204, symBinAddr: 0x503A0, symSize: 0x24 }
  - { offset: 0x128C81, size: 0x8, addend: 0x0, symName: __RINvNtCs85QQFkKrybG_4core3ptr13drop_in_placeINtNtCsdFlNUEO95cG_5alloc3vec3VecNtCsfwj6t2KTYdc_11proc_macro211TokenStreamEECs4u7P9VlF0C9_14thiserror_impl, symObjAddr: 0x1228, symBinAddr: 0x503C4, symSize: 0x5C }
  - { offset: 0x128CB0, size: 0x8, addend: 0x0, symName: __RINvNtCs85QQFkKrybG_4core3ptr13drop_in_placeINtNtCsdFlNUEO95cG_5alloc3vec3VecNtNtCs4u7P9VlF0C9_14thiserror_impl3ast5FieldEEB1h_, symObjAddr: 0x1284, symBinAddr: 0x50420, symSize: 0x5C }
  - { offset: 0x128CDF, size: 0x8, addend: 0x0, symName: __RINvNtCs85QQFkKrybG_4core3ptr13drop_in_placeINtNtCsdFlNUEO95cG_5alloc3vec3VecNtNtCs4u7P9VlF0C9_14thiserror_impl3ast7VariantEEB1h_, symObjAddr: 0x12E0, symBinAddr: 0x5047C, symSize: 0x5C }
  - { offset: 0x128D0E, size: 0x8, addend: 0x0, symName: __RINvNtCs85QQFkKrybG_4core3ptr13drop_in_placeINtNtCsdFlNUEO95cG_5alloc3vec3VecRNtCsfwj6t2KTYdc_11proc_macro25IdentEECs4u7P9VlF0C9_14thiserror_impl, symObjAddr: 0x133C, symBinAddr: 0x504D8, symSize: 0x5C }
  - { offset: 0x128D3D, size: 0x8, addend: 0x0, symName: __RINvNtCs85QQFkKrybG_4core3ptr13drop_in_placeINtNtCsdFlNUEO95cG_5alloc3vec3VecTNtCsfwj6t2KTYdc_11proc_macro211TokenStreamNtNtCscwCr4GBBztI_3syn5token4PlusEEECs4u7P9VlF0C9_14thiserror_impl, symObjAddr: 0x1398, symBinAddr: 0x50534, symSize: 0x5C }
  - { offset: 0x128D6C, size: 0x8, addend: 0x0, symName: __RINvNtCs85QQFkKrybG_4core3ptr13drop_in_placeINtNtCsdFlNUEO95cG_5alloc5boxed3BoxDNtNtB4_5error5ErrorNtNtB4_6marker4SyncNtB1B_4SendEL_EECs4u7P9VlF0C9_14thiserror_impl, symObjAddr: 0x13F4, symBinAddr: 0x50590, symSize: 0x80 }
  - { offset: 0x128D9B, size: 0x8, addend: 0x0, symName: __RINvNtCs85QQFkKrybG_4core3ptr13drop_in_placeINtNtCsdFlNUEO95cG_5alloc5boxed3BoxINtNtCscwCr4GBBztI_3syn5drops6NoDropDINtNtB1k_10punctuated9IterTraitNtNtB1k_4data5FieldEp4ItemRB2l_EL_EEECs4u7P9VlF0C9_14thiserror_impl, symObjAddr: 0x1474, symBinAddr: 0x50610, symSize: 0x2C }
  - { offset: 0x128DCA, size: 0x8, addend: 0x0, symName: __RINvNtCs85QQFkKrybG_4core3ptr13drop_in_placeINtNtCsdFlNUEO95cG_5alloc5boxed3BoxINtNtCscwCr4GBBztI_3syn5drops6NoDropDINtNtB1k_10punctuated9IterTraitNtNtB1k_4data7VariantEp4ItemRB2l_EL_EEECs4u7P9VlF0C9_14thiserror_impl, symObjAddr: 0x14A0, symBinAddr: 0x5063C, symSize: 0x2C }
  - { offset: 0x128DF9, size: 0x8, addend: 0x0, symName: __RINvNtCs85QQFkKrybG_4core3ptr13drop_in_placeINtNtCsdFlNUEO95cG_5alloc5boxed3BoxINtNtCscwCr4GBBztI_3syn5drops6NoDropDINtNtB1k_10punctuated9IterTraitNtNtB1k_4path15GenericArgumentEp4ItemRB2l_EL_EEECs4u7P9VlF0C9_14thiserror_impl, symObjAddr: 0x14CC, symBinAddr: 0x50668, symSize: 0x2C }
  - { offset: 0x128E28, size: 0x8, addend: 0x0, symName: __RINvNtCs85QQFkKrybG_4core3ptr13drop_in_placeINtNtCsdFlNUEO95cG_5alloc5boxed3BoxINtNtCscwCr4GBBztI_3syn5drops6NoDropDINtNtB1k_10punctuated9IterTraitNtNtB1k_8generics12GenericParamEp4ItemRB2l_EL_EEECs4u7P9VlF0C9_14thiserror_impl, symObjAddr: 0x14F8, symBinAddr: 0x50694, symSize: 0x2C }
  - { offset: 0x128E57, size: 0x8, addend: 0x0, symName: __RINvNtCs85QQFkKrybG_4core3ptr13drop_in_placeINtNtCsdFlNUEO95cG_5alloc5boxed3BoxINtNtNtNtBL_11collections5btree4node12InternalNodeNtCsfwj6t2KTYdc_11proc_macro25IdentNtNtB1k_7set_val9SetValZSTEEECs4u7P9VlF0C9_14thiserror_impl, symObjAddr: 0x1524, symBinAddr: 0x506C0, symSize: 0x2C }
  - { offset: 0x128E86, size: 0x8, addend: 0x0, symName: __RINvNtCs85QQFkKrybG_4core3ptr13drop_in_placeINtNtCsdFlNUEO95cG_5alloc5boxed3BoxINtNtNtNtBL_11collections5btree4node12InternalNodeNtNtBL_6string6StringNtNtB1k_7set_val9SetValZSTEEECs4u7P9VlF0C9_14thiserror_impl, symObjAddr: 0x1550, symBinAddr: 0x506EC, symSize: 0x2C }
  - { offset: 0x128EB5, size: 0x8, addend: 0x0, symName: __RINvNtCs85QQFkKrybG_4core3ptr13drop_in_placeINtNtCsdFlNUEO95cG_5alloc5boxed3BoxINtNtNtNtBL_11collections5btree4node12InternalNodeNtNtBL_6string6StringTINtNtB1k_3set8BTreeSetB23_EINtNtCscwCr4GBBztI_3syn10punctuated10PunctuatedNtCsfwj6t2KTYdc_11proc_macro211TokenStreamNtNtB2V_5token4PlusEEEEECs4u7P9VlF0C9_14thiserror_impl, symObjAddr: 0x157C, symBinAddr: 0x50718, symSize: 0x2C }
  - { offset: 0x128EE4, size: 0x8, addend: 0x0, symName: __RINvNtCs85QQFkKrybG_4core3ptr13drop_in_placeINtNtCsdFlNUEO95cG_5alloc5boxed3BoxINtNtNtNtBL_11collections5btree4node12InternalNodeTjNtNtCs4u7P9VlF0C9_14thiserror_impl4attr5TraitENtNtB1k_7set_val9SetValZSTEEEB29_, symObjAddr: 0x15D4, symBinAddr: 0x50744, symSize: 0x2C }
  - { offset: 0x128F13, size: 0x8, addend: 0x0, symName: __RINvNtCs85QQFkKrybG_4core3ptr13drop_in_placeINtNtCsdFlNUEO95cG_5alloc5boxed3BoxINtNtNtNtBL_11collections5btree4node8LeafNodeNtCsfwj6t2KTYdc_11proc_macro25IdentNtNtB1k_7set_val9SetValZSTEEECs4u7P9VlF0C9_14thiserror_impl, symObjAddr: 0x1600, symBinAddr: 0x50770, symSize: 0x2C }
  - { offset: 0x128F42, size: 0x8, addend: 0x0, symName: __RINvNtCs85QQFkKrybG_4core3ptr13drop_in_placeINtNtCsdFlNUEO95cG_5alloc5boxed3BoxINtNtNtNtBL_11collections5btree4node8LeafNodeNtNtBL_6string6StringNtNtB1k_7set_val9SetValZSTEEECs4u7P9VlF0C9_14thiserror_impl, symObjAddr: 0x162C, symBinAddr: 0x5079C, symSize: 0x2C }
  - { offset: 0x128F71, size: 0x8, addend: 0x0, symName: __RINvNtCs85QQFkKrybG_4core3ptr13drop_in_placeINtNtCsdFlNUEO95cG_5alloc5boxed3BoxINtNtNtNtBL_11collections5btree4node8LeafNodeNtNtBL_6string6StringTINtNtB1k_3set8BTreeSetB1Y_EINtNtCscwCr4GBBztI_3syn10punctuated10PunctuatedNtCsfwj6t2KTYdc_11proc_macro211TokenStreamNtNtB2Q_5token4PlusEEEEECs4u7P9VlF0C9_14thiserror_impl, symObjAddr: 0x1658, symBinAddr: 0x507C8, symSize: 0x2C }
  - { offset: 0x128FA0, size: 0x8, addend: 0x0, symName: __RINvNtCs85QQFkKrybG_4core3ptr13drop_in_placeINtNtCsdFlNUEO95cG_5alloc5boxed3BoxINtNtNtNtBL_11collections5btree4node8LeafNodeTjNtNtCs4u7P9VlF0C9_14thiserror_impl4attr5TraitENtNtB1k_7set_val9SetValZSTEEEB24_, symObjAddr: 0x1684, symBinAddr: 0x507F4, symSize: 0x2C }
  - { offset: 0x128FCF, size: 0x8, addend: 0x0, symName: __RINvNtCs85QQFkKrybG_4core3ptr13drop_in_placeINtNtCsdFlNUEO95cG_5alloc5boxed3BoxNtCsfwj6t2KTYdc_11proc_macro211TokenStreamEECs4u7P9VlF0C9_14thiserror_impl, symObjAddr: 0x16B0, symBinAddr: 0x50820, symSize: 0x60 }
  - { offset: 0x128FFE, size: 0x8, addend: 0x0, symName: __RINvNtCs85QQFkKrybG_4core3ptr13drop_in_placeINtNtCsdFlNUEO95cG_5alloc5boxed3BoxNtNtNtCswz7ZwgBZOU_3std2io5error6CustomEECs4u7P9VlF0C9_14thiserror_impl, symObjAddr: 0x1710, symBinAddr: 0x50880, symSize: 0x60 }
  - { offset: 0x12902D, size: 0x8, addend: 0x0, symName: __RINvNtCs85QQFkKrybG_4core3ptr13drop_in_placeINtNtCsdFlNUEO95cG_5alloc7raw_vec6RawVecNtCsfwj6t2KTYdc_11proc_macro211TokenStreamEECs4u7P9VlF0C9_14thiserror_impl, symObjAddr: 0x1770, symBinAddr: 0x508E0, symSize: 0x24 }
  - { offset: 0x12905C, size: 0x8, addend: 0x0, symName: __RINvNtCs85QQFkKrybG_4core3ptr13drop_in_placeINtNtCsdFlNUEO95cG_5alloc7raw_vec6RawVecNtNtCs4u7P9VlF0C9_14thiserror_impl3ast5FieldEEB1o_, symObjAddr: 0x1794, symBinAddr: 0x50904, symSize: 0x24 }
  - { offset: 0x12908B, size: 0x8, addend: 0x0, symName: __RINvNtCs85QQFkKrybG_4core3ptr13drop_in_placeINtNtCsdFlNUEO95cG_5alloc7raw_vec6RawVecNtNtCs4u7P9VlF0C9_14thiserror_impl3ast7VariantEEB1o_, symObjAddr: 0x17B8, symBinAddr: 0x50928, symSize: 0x24 }
  - { offset: 0x1290BA, size: 0x8, addend: 0x0, symName: __RINvNtCs85QQFkKrybG_4core3ptr13drop_in_placeINtNtCsdFlNUEO95cG_5alloc7raw_vec6RawVecRNtCsfwj6t2KTYdc_11proc_macro25IdentEECs4u7P9VlF0C9_14thiserror_impl, symObjAddr: 0x17DC, symBinAddr: 0x5094C, symSize: 0x24 }
  - { offset: 0x1290E9, size: 0x8, addend: 0x0, symName: __RINvNtCs85QQFkKrybG_4core3ptr13drop_in_placeINtNtCsdFlNUEO95cG_5alloc7raw_vec6RawVecTNtCsfwj6t2KTYdc_11proc_macro211TokenStreamNtNtCscwCr4GBBztI_3syn5token4PlusEEECs4u7P9VlF0C9_14thiserror_impl, symObjAddr: 0x1800, symBinAddr: 0x50970, symSize: 0x24 }
  - { offset: 0x129118, size: 0x8, addend: 0x0, symName: __RINvNtCs85QQFkKrybG_4core3ptr13drop_in_placeINtNtCsfieuf5LernF_9hashbrown10scopeguard10ScopeGuardNtNtBL_3raw13RawTableInnerNCINvMsa_B1z_B1x_14prepare_resizeNtNtCsdFlNUEO95cG_5alloc5alloc6GlobalE0EECs4u7P9VlF0C9_14thiserror_impl, symObjAddr: 0x1824, symBinAddr: 0x50994, symSize: 0x24 }
  - { offset: 0x129147, size: 0x8, addend: 0x0, symName: __RINvNtCs85QQFkKrybG_4core3ptr13drop_in_placeINtNtCsfieuf5LernF_9hashbrown10scopeguard10ScopeGuardQNtNtBL_3raw13RawTableInnerNCNvMsa_B1A_B1y_15rehash_in_place0EECs4u7P9VlF0C9_14thiserror_impl, symObjAddr: 0x1848, symBinAddr: 0x509B8, symSize: 0x24 }
  - { offset: 0x129176, size: 0x8, addend: 0x0, symName: __RINvNtCs85QQFkKrybG_4core3ptr13drop_in_placeINtNtCsfieuf5LernF_9hashbrown3map7HashMapRNtNtCscwCr4GBBztI_3syn4expr6MemberjNtNtNtCswz7ZwgBZOU_3std4hash6random11RandomStateEECs4u7P9VlF0C9_14thiserror_impl, symObjAddr: 0x186C, symBinAddr: 0x509DC, symSize: 0x24 }
  - { offset: 0x1291A5, size: 0x8, addend: 0x0, symName: __RINvNtCs85QQFkKrybG_4core3ptr13drop_in_placeINtNtCsfieuf5LernF_9hashbrown3raw8RawTableTRNtNtCscwCr4GBBztI_3syn4expr6MemberjEEECs4u7P9VlF0C9_14thiserror_impl, symObjAddr: 0x1890, symBinAddr: 0x50A00, symSize: 0x24 }
  - { offset: 0x1291D4, size: 0x8, addend: 0x0, symName: __RINvNtCs85QQFkKrybG_4core3ptr13drop_in_placeINtNtCshi3DZH3dfhk_5quote9___private9RepInterpNtCsfwj6t2KTYdc_11proc_macro211TokenStreamEECs4u7P9VlF0C9_14thiserror_impl, symObjAddr: 0x18B4, symBinAddr: 0x50A24, symSize: 0x24 }
  - { offset: 0x129203, size: 0x8, addend: 0x0, symName: __RINvNtCs85QQFkKrybG_4core3ptr13drop_in_placeINtNtCshi3DZH3dfhk_5quote9___private9RepInterpNtCsfwj6t2KTYdc_11proc_macro25IdentEECs4u7P9VlF0C9_14thiserror_impl, symObjAddr: 0x18D8, symBinAddr: 0x50A48, symSize: 0x24 }
  - { offset: 0x129232, size: 0x8, addend: 0x0, symName: __RINvNtCs85QQFkKrybG_4core3ptr13drop_in_placeINtNtNtB4_3ops12control_flow11ControlFlowIBH_NtNtCs4u7P9VlF0C9_14thiserror_impl3ast5FieldEEEB1t_, symObjAddr: 0x18FC, symBinAddr: 0x50A6C, symSize: 0x48 }
  - { offset: 0x129261, size: 0x8, addend: 0x0, symName: __RINvNtCs85QQFkKrybG_4core3ptr13drop_in_placeINtNtNtB4_3ops12control_flow11ControlFlowNtNtCs4u7P9VlF0C9_14thiserror_impl3ast5FieldEEB1p_, symObjAddr: 0x1944, symBinAddr: 0x50AB4, symSize: 0x4C }
  - { offset: 0x129290, size: 0x8, addend: 0x0, symName: __RINvNtCs85QQFkKrybG_4core3ptr13drop_in_placeINtNtNtB4_3ops12control_flow11ControlFlowNtNtCs4u7P9VlF0C9_14thiserror_impl3ast7VariantEEB1p_, symObjAddr: 0x1990, symBinAddr: 0x50B00, symSize: 0x48 }
  - { offset: 0x1292BF, size: 0x8, addend: 0x0, symName: __RINvNtCs85QQFkKrybG_4core3ptr13drop_in_placeINtNtNtB4_4iter8adapters12GenericShuntINtNtBJ_3map3MapINtNtBJ_9enumerate9EnumerateINtNtCscwCr4GBBztI_3syn10punctuated4IterNtNtB25_4data5FieldEENCNvMs2_NtCs4u7P9VlF0C9_14thiserror_impl3astNtB37_5Field17multiple_from_syn0EINtNtB4_6result6ResultNtNtB4_7convert10InfallibleNtNtB25_5error5ErrorEEEB39_, symObjAddr: 0x19D8, symBinAddr: 0x50B48, symSize: 0x24 }
  - { offset: 0x1292EE, size: 0x8, addend: 0x0, symName: __RINvNtCs85QQFkKrybG_4core3ptr13drop_in_placeINtNtNtB4_4iter8adapters12GenericShuntINtNtBJ_3map3MapINtNtCscwCr4GBBztI_3syn10punctuated4IterNtNtB1D_4data7VariantENCNvMs0_NtCs4u7P9VlF0C9_14thiserror_impl3astNtB2G_4Enum8from_syn0EINtNtB4_6result6ResultNtNtB4_7convert10InfallibleNtNtB1D_5error5ErrorEEEB2I_, symObjAddr: 0x19FC, symBinAddr: 0x50B6C, symSize: 0x24 }
  - { offset: 0x12931D, size: 0x8, addend: 0x0, symName: __RINvNtCs85QQFkKrybG_4core3ptr13drop_in_placeINtNtNtB4_5array4iter8IntoIterjKj2_EECs4u7P9VlF0C9_14thiserror_impl, symObjAddr: 0x1A20, symBinAddr: 0x50B90, symSize: 0x5C }
  - { offset: 0x12934C, size: 0x8, addend: 0x0, symName: __RINvNtCs85QQFkKrybG_4core3ptr13drop_in_placeINtNtNtCsdFlNUEO95cG_5alloc3vec9into_iter8IntoIterRNtCsfwj6t2KTYdc_11proc_macro25IdentEECs4u7P9VlF0C9_14thiserror_impl, symObjAddr: 0x1A7C, symBinAddr: 0x50BEC, symSize: 0x24 }
  - { offset: 0x12937B, size: 0x8, addend: 0x0, symName: __RINvNtCs85QQFkKrybG_4core3ptr13drop_in_placeINtNtNtCswz7ZwgBZOU_3std2io5error9ErrorDataINtNtCsdFlNUEO95cG_5alloc5boxed3BoxNtBJ_6CustomEEECs4u7P9VlF0C9_14thiserror_impl, symObjAddr: 0x1AA0, symBinAddr: 0x50C10, symSize: 0x48 }
  - { offset: 0x1293AA, size: 0x8, addend: 0x0, symName: __RINvNtCs85QQFkKrybG_4core3ptr13drop_in_placeINtNtNtNtB4_4iter8adapters3map3MapINtNtBL_9enumerate9EnumerateINtNtCscwCr4GBBztI_3syn10punctuated4IterNtNtB1L_4data5FieldEENCNvMs2_NtCs4u7P9VlF0C9_14thiserror_impl3astNtB2N_5Field17multiple_from_syn0EEB2P_, symObjAddr: 0x1AE8, symBinAddr: 0x50C58, symSize: 0x24 }
  - { offset: 0x1293D9, size: 0x8, addend: 0x0, symName: __RINvNtCs85QQFkKrybG_4core3ptr13drop_in_placeINtNtNtNtB4_4iter8adapters3map3MapINtNtCscwCr4GBBztI_3syn10punctuated4IterNtNtB1j_4data7VariantENCNvMs0_NtCs4u7P9VlF0C9_14thiserror_impl3astNtB2m_4Enum8from_syn0EEB2o_, symObjAddr: 0x1B0C, symBinAddr: 0x50C7C, symSize: 0x24 }
  - { offset: 0x129408, size: 0x8, addend: 0x0, symName: __RINvNtCs85QQFkKrybG_4core3ptr13drop_in_placeINtNtNtNtB4_4iter8adapters3map3MapINtNtNtCsdFlNUEO95cG_5alloc3vec9into_iter8IntoIterNtCsfwj6t2KTYdc_11proc_macro29TokenTreeENvNtB24_3imp19into_compiler_tokenEECs4u7P9VlF0C9_14thiserror_impl, symObjAddr: 0x1B30, symBinAddr: 0x50CA0, symSize: 0x24 }
  - { offset: 0x129437, size: 0x8, addend: 0x0, symName: __RINvNtCs85QQFkKrybG_4core3ptr13drop_in_placeINtNtNtNtB4_4iter8adapters3map3MapINtNtNtCsdFlNUEO95cG_5alloc3vec9into_iter8IntoIterRNtCsfwj6t2KTYdc_11proc_macro25IdentENCINvMse_NtNtNtB1l_11collections5btree3setINtB2M_8BTreeSetB22_E16from_sorted_iterB1e_E0EECs4u7P9VlF0C9_14thiserror_impl, symObjAddr: 0x1B54, symBinAddr: 0x50CC4, symSize: 0x24 }
  - { offset: 0x129466, size: 0x8, addend: 0x0, symName: __RINvNtCs85QQFkKrybG_4core3ptr13drop_in_placeINtNtNtNtB4_4iter8adapters3map3MapNtNtCscwCr4GBBztI_3syn8generics10TypeParamsNCNvMNtCs4u7P9VlF0C9_14thiserror_impl8genericsNtB20_13ParamsInScope3new0EEB22_, symObjAddr: 0x1B78, symBinAddr: 0x50CE8, symSize: 0x24 }
  - { offset: 0x129495, size: 0x8, addend: 0x0, symName: __RINvNtCs85QQFkKrybG_4core3ptr13drop_in_placeINtNtNtNtB4_4iter8adapters8peekable8PeekableINtNtBL_3map3MapINtNtNtCsdFlNUEO95cG_5alloc3vec9into_iter8IntoIterRNtCsfwj6t2KTYdc_11proc_macro25IdentENCINvMse_NtNtNtB1L_11collections5btree3setINtB3c_8BTreeSetB2s_E16from_sorted_iterB1E_E0EEECs4u7P9VlF0C9_14thiserror_impl, symObjAddr: 0x1B9C, symBinAddr: 0x50D0C, symSize: 0x24 }
  - { offset: 0x1294C4, size: 0x8, addend: 0x0, symName: __RINvNtCs85QQFkKrybG_4core3ptr13drop_in_placeINtNtNtNtB4_4iter8adapters9enumerate9EnumerateINtNtCscwCr4GBBztI_3syn10punctuated4IterNtNtB1v_4data5FieldEEECs4u7P9VlF0C9_14thiserror_impl, symObjAddr: 0x1BC0, symBinAddr: 0x50D30, symSize: 0x24 }
  - { offset: 0x1294F3, size: 0x8, addend: 0x0, symName: __RINvNtCs85QQFkKrybG_4core3ptr13drop_in_placeINtNtNtNtB4_5array4iter10iter_inner15PolymorphicIterAINtNtNtB4_3mem12maybe_uninit11MaybeUninitjEj2_EECs4u7P9VlF0C9_14thiserror_impl, symObjAddr: 0x1BE4, symBinAddr: 0x50D54, symSize: 0x24 }
  - { offset: 0x129522, size: 0x8, addend: 0x0, symName: __RINvNtCs85QQFkKrybG_4core3ptr13drop_in_placeINtNtNtNtCsdFlNUEO95cG_5alloc11collections5btree17dedup_sorted_iter15DedupSortedIterRNtCsfwj6t2KTYdc_11proc_macro25IdentNtNtBL_7set_val9SetValZSTINtNtNtNtB4_4iter8adapters3map3MapINtNtNtBP_3vec9into_iter8IntoIterB22_ENCINvMse_NtBL_3setINtB4k_8BTreeSetB22_E16from_sorted_iterB3z_E0EEECs4u7P9VlF0C9_14thiserror_impl, symObjAddr: 0x1C08, symBinAddr: 0x50D78, symSize: 0x24 }
  - { offset: 0x129551, size: 0x8, addend: 0x0, symName: __RINvNtCs85QQFkKrybG_4core3ptr13drop_in_placeINtNtNtNtCsdFlNUEO95cG_5alloc11collections5btree3map8BTreeMapNtCsfwj6t2KTYdc_11proc_macro25IdentNtNtBL_7set_val9SetValZSTEECs4u7P9VlF0C9_14thiserror_impl, symObjAddr: 0x1C2C, symBinAddr: 0x50D9C, symSize: 0x24 }
  - { offset: 0x129580, size: 0x8, addend: 0x0, symName: __RINvNtCs85QQFkKrybG_4core3ptr13drop_in_placeINtNtNtNtCsdFlNUEO95cG_5alloc11collections5btree3map8BTreeMapNtNtBP_6string6StringNtNtBL_7set_val9SetValZSTEECs4u7P9VlF0C9_14thiserror_impl, symObjAddr: 0x1C50, symBinAddr: 0x50DC0, symSize: 0x24 }
  - { offset: 0x1295AF, size: 0x8, addend: 0x0, symName: __RINvNtCs85QQFkKrybG_4core3ptr13drop_in_placeINtNtNtNtCsdFlNUEO95cG_5alloc11collections5btree3map8BTreeMapNtNtBP_6string6StringTINtNtBL_3set8BTreeSetB1F_EINtNtCscwCr4GBBztI_3syn10punctuated10PunctuatedNtCsfwj6t2KTYdc_11proc_macro211TokenStreamNtNtB2w_5token4PlusEEEECs4u7P9VlF0C9_14thiserror_impl, symObjAddr: 0x1C74, symBinAddr: 0x50DE4, symSize: 0x24 }
  - { offset: 0x1295DE, size: 0x8, addend: 0x0, symName: __RINvNtCs85QQFkKrybG_4core3ptr13drop_in_placeINtNtNtNtCsdFlNUEO95cG_5alloc11collections5btree3map8BTreeMapRNtCsfwj6t2KTYdc_11proc_macro25IdentNtNtBL_7set_val9SetValZSTEECs4u7P9VlF0C9_14thiserror_impl, symObjAddr: 0x1C98, symBinAddr: 0x50E08, symSize: 0x24 }
  - { offset: 0x12960D, size: 0x8, addend: 0x0, symName: __RINvNtCs85QQFkKrybG_4core3ptr13drop_in_placeINtNtNtNtCsdFlNUEO95cG_5alloc11collections5btree3map8BTreeMapTjNtNtCs4u7P9VlF0C9_14thiserror_impl4attr5TraitENtNtBL_7set_val9SetValZSTEEB1L_, symObjAddr: 0x1CBC, symBinAddr: 0x50E2C, symSize: 0x24 }
  - { offset: 0x12963C, size: 0x8, addend: 0x0, symName: __RINvNtCs85QQFkKrybG_4core3ptr13drop_in_placeINtNtNtNtCsdFlNUEO95cG_5alloc11collections5btree3map8IntoIterNtCsfwj6t2KTYdc_11proc_macro25IdentNtNtBL_7set_val9SetValZSTEECs4u7P9VlF0C9_14thiserror_impl, symObjAddr: 0x1CE0, symBinAddr: 0x50E50, symSize: 0x24 }
  - { offset: 0x12966B, size: 0x8, addend: 0x0, symName: __RINvNtCs85QQFkKrybG_4core3ptr13drop_in_placeINtNtNtNtCsdFlNUEO95cG_5alloc11collections5btree3map8IntoIterNtNtBP_6string6StringNtNtBL_7set_val9SetValZSTEECs4u7P9VlF0C9_14thiserror_impl, symObjAddr: 0x1D04, symBinAddr: 0x50E74, symSize: 0x24 }
  - { offset: 0x12969A, size: 0x8, addend: 0x0, symName: __RINvNtCs85QQFkKrybG_4core3ptr13drop_in_placeINtNtNtNtCsdFlNUEO95cG_5alloc11collections5btree3map8IntoIterNtNtBP_6string6StringTINtNtBL_3set8BTreeSetB1F_EINtNtCscwCr4GBBztI_3syn10punctuated10PunctuatedNtCsfwj6t2KTYdc_11proc_macro211TokenStreamNtNtB2w_5token4PlusEEEECs4u7P9VlF0C9_14thiserror_impl, symObjAddr: 0x1D28, symBinAddr: 0x50E98, symSize: 0x24 }
  - { offset: 0x1296C9, size: 0x8, addend: 0x0, symName: __RINvNtCs85QQFkKrybG_4core3ptr13drop_in_placeINtNtNtNtCsdFlNUEO95cG_5alloc11collections5btree3map8IntoIterRNtCsfwj6t2KTYdc_11proc_macro25IdentNtNtBL_7set_val9SetValZSTEECs4u7P9VlF0C9_14thiserror_impl, symObjAddr: 0x1D4C, symBinAddr: 0x50EBC, symSize: 0x24 }
  - { offset: 0x1296F8, size: 0x8, addend: 0x0, symName: __RINvNtCs85QQFkKrybG_4core3ptr13drop_in_placeINtNtNtNtCsdFlNUEO95cG_5alloc11collections5btree3map8IntoIterTjNtNtCs4u7P9VlF0C9_14thiserror_impl4attr5TraitENtNtBL_7set_val9SetValZSTEEB1L_, symObjAddr: 0x1D70, symBinAddr: 0x50EE0, symSize: 0x24 }
  - { offset: 0x129727, size: 0x8, addend: 0x0, symName: __RINvNtCs85QQFkKrybG_4core3ptr13drop_in_placeINtNtNtNtCsdFlNUEO95cG_5alloc11collections5btree3set8BTreeSetNtCsfwj6t2KTYdc_11proc_macro25IdentEECs4u7P9VlF0C9_14thiserror_impl, symObjAddr: 0x1D94, symBinAddr: 0x50F04, symSize: 0x24 }
  - { offset: 0x129756, size: 0x8, addend: 0x0, symName: __RINvNtCs85QQFkKrybG_4core3ptr13drop_in_placeINtNtNtNtCsdFlNUEO95cG_5alloc11collections5btree3set8BTreeSetNtNtBP_6string6StringEECs4u7P9VlF0C9_14thiserror_impl, symObjAddr: 0x1DB8, symBinAddr: 0x50F28, symSize: 0x24 }
  - { offset: 0x129785, size: 0x8, addend: 0x0, symName: __RINvNtCs85QQFkKrybG_4core3ptr13drop_in_placeINtNtNtNtCsdFlNUEO95cG_5alloc11collections5btree3set8BTreeSetRNtCsfwj6t2KTYdc_11proc_macro25IdentEECs4u7P9VlF0C9_14thiserror_impl, symObjAddr: 0x1DDC, symBinAddr: 0x50F4C, symSize: 0x24 }
  - { offset: 0x1297B4, size: 0x8, addend: 0x0, symName: __RINvNtCs85QQFkKrybG_4core3ptr13drop_in_placeINtNtNtNtCsdFlNUEO95cG_5alloc11collections5btree3set8BTreeSetTjNtNtCs4u7P9VlF0C9_14thiserror_impl4attr5TraitEEEB1L_, symObjAddr: 0x1E00, symBinAddr: 0x50F70, symSize: 0x24 }
  - { offset: 0x1297E3, size: 0x8, addend: 0x0, symName: __RINvNtCs85QQFkKrybG_4core3ptr13drop_in_placeINtNtNtNtCsdFlNUEO95cG_5alloc11collections5btree3set8IntoIterTjNtNtCs4u7P9VlF0C9_14thiserror_impl4attr5TraitEEEB1L_, symObjAddr: 0x1E24, symBinAddr: 0x50F94, symSize: 0x24 }
  - { offset: 0x129812, size: 0x8, addend: 0x0, symName: __RINvNtCs85QQFkKrybG_4core3ptr13drop_in_placeINtNtNtNtCsdFlNUEO95cG_5alloc11collections5btree4node11SplitResultNtCsfwj6t2KTYdc_11proc_macro25IdentNtNtBL_7set_val9SetValZSTNtNtBJ_6marker4LeafEECs4u7P9VlF0C9_14thiserror_impl, symObjAddr: 0x1E48, symBinAddr: 0x50FB8, symSize: 0x24 }
  - { offset: 0x129841, size: 0x8, addend: 0x0, symName: __RINvNtCs85QQFkKrybG_4core3ptr13drop_in_placeINtNtNtNtCsdFlNUEO95cG_5alloc11collections5btree4node11SplitResultNtCsfwj6t2KTYdc_11proc_macro25IdentNtNtBL_7set_val9SetValZSTNtNtBJ_6marker8InternalEECs4u7P9VlF0C9_14thiserror_impl, symObjAddr: 0x1E6C, symBinAddr: 0x50FDC, symSize: 0x24 }
  - { offset: 0x129870, size: 0x8, addend: 0x0, symName: __RINvNtCs85QQFkKrybG_4core3ptr13drop_in_placeINtNtNtNtCsdFlNUEO95cG_5alloc11collections5btree4node11SplitResultNtNtBP_6string6StringNtNtBL_7set_val9SetValZSTNtNtBJ_6marker4LeafEECs4u7P9VlF0C9_14thiserror_impl, symObjAddr: 0x1E90, symBinAddr: 0x51000, symSize: 0x24 }
  - { offset: 0x12989F, size: 0x8, addend: 0x0, symName: __RINvNtCs85QQFkKrybG_4core3ptr13drop_in_placeINtNtNtNtCsdFlNUEO95cG_5alloc11collections5btree4node11SplitResultNtNtBP_6string6StringNtNtBL_7set_val9SetValZSTNtNtBJ_6marker8InternalEECs4u7P9VlF0C9_14thiserror_impl, symObjAddr: 0x1EB4, symBinAddr: 0x51024, symSize: 0x24 }
  - { offset: 0x1298CE, size: 0x8, addend: 0x0, symName: __RINvNtCs85QQFkKrybG_4core3ptr13drop_in_placeINtNtNtNtCsdFlNUEO95cG_5alloc11collections5btree4node11SplitResultNtNtBP_6string6StringTINtNtBL_3set8BTreeSetB1K_EINtNtCscwCr4GBBztI_3syn10punctuated10PunctuatedNtCsfwj6t2KTYdc_11proc_macro211TokenStreamNtNtB2B_5token4PlusEENtNtBJ_6marker4LeafEECs4u7P9VlF0C9_14thiserror_impl, symObjAddr: 0x1ED8, symBinAddr: 0x51048, symSize: 0x24 }
  - { offset: 0x1298FD, size: 0x8, addend: 0x0, symName: __RINvNtCs85QQFkKrybG_4core3ptr13drop_in_placeINtNtNtNtCsdFlNUEO95cG_5alloc11collections5btree4node11SplitResultNtNtBP_6string6StringTINtNtBL_3set8BTreeSetB1K_EINtNtCscwCr4GBBztI_3syn10punctuated10PunctuatedNtCsfwj6t2KTYdc_11proc_macro211TokenStreamNtNtB2B_5token4PlusEENtNtBJ_6marker8InternalEECs4u7P9VlF0C9_14thiserror_impl, symObjAddr: 0x1EFC, symBinAddr: 0x5106C, symSize: 0x24 }
  - { offset: 0x12992C, size: 0x8, addend: 0x0, symName: __RINvNtCs85QQFkKrybG_4core3ptr13drop_in_placeINtNtNtNtCswz7ZwgBZOU_3std11collections4hash3map7HashMapRNtNtCscwCr4GBBztI_3syn4expr6MemberjEECs4u7P9VlF0C9_14thiserror_impl, symObjAddr: 0x1F20, symBinAddr: 0x51090, symSize: 0x24 }
  - { offset: 0x12995B, size: 0x8, addend: 0x0, symName: __RINvNtCs85QQFkKrybG_4core3ptr13drop_in_placeINtNtNtNtNtB4_5slice4sort6shared9smallsort10CopyOnDropRNtCsfwj6t2KTYdc_11proc_macro25IdentEECs4u7P9VlF0C9_14thiserror_impl, symObjAddr: 0x1F44, symBinAddr: 0x510B4, symSize: 0x24 }
  - { offset: 0x12998A, size: 0x8, addend: 0x0, symName: __RINvNtCs85QQFkKrybG_4core3ptr13drop_in_placeINtNtNtNtNtB4_5slice4sort6stable5merge10MergeStateRNtCsfwj6t2KTYdc_11proc_macro25IdentEECs4u7P9VlF0C9_14thiserror_impl, symObjAddr: 0x1F68, symBinAddr: 0x510D8, symSize: 0x24 }
  - { offset: 0x1299B9, size: 0x8, addend: 0x0, symName: __RINvNtCs85QQFkKrybG_4core3ptr13drop_in_placeINtNtNtNtNtCsdFlNUEO95cG_5alloc11collections5btree3map5entry11VacantEntryNtNtBR_6string6StringTINtNtBN_3set8BTreeSetB1R_EINtNtCscwCr4GBBztI_3syn10punctuated10PunctuatedNtCsfwj6t2KTYdc_11proc_macro211TokenStreamNtNtB2I_5token4PlusEEEECs4u7P9VlF0C9_14thiserror_impl, symObjAddr: 0x1F8C, symBinAddr: 0x510FC, symSize: 0x24 }
  - { offset: 0x1299E8, size: 0x8, addend: 0x0, symName: __RINvNtCs85QQFkKrybG_4core3ptr13drop_in_placeINtNtNtNtNtCsdFlNUEO95cG_5alloc11collections5btree3map5entry5EntryNtNtBR_6string6StringTINtNtBN_3set8BTreeSetB1K_EINtNtCscwCr4GBBztI_3syn10punctuated10PunctuatedNtCsfwj6t2KTYdc_11proc_macro211TokenStreamNtNtB2B_5token4PlusEEEECs4u7P9VlF0C9_14thiserror_impl, symObjAddr: 0x1FB0, symBinAddr: 0x51120, symSize: 0x4C }
  - { offset: 0x129A17, size: 0x8, addend: 0x0, symName: __RINvNtCs85QQFkKrybG_4core3ptr13drop_in_placeINtNvMsT_NtNtNtCsdFlNUEO95cG_5alloc11collections5btree4nodeINtBP_6HandleINtBP_7NodeRefNtNtBP_6marker5DyingpppENtB26_2KVE12drop_key_val7DropperNtNtBR_7set_val9SetValZSTEECs4u7P9VlF0C9_14thiserror_impl, symObjAddr: 0x1FFC, symBinAddr: 0x5116C, symSize: 0x24 }
  - { offset: 0x129A46, size: 0x8, addend: 0x0, symName: __RINvNtCs85QQFkKrybG_4core3ptr13drop_in_placeINtNvMsT_NtNtNtCsdFlNUEO95cG_5alloc11collections5btree4nodeINtBP_6HandleINtBP_7NodeRefNtNtBP_6marker5DyingpppENtB26_2KVE12drop_key_val7DropperTINtNtBR_3set8BTreeSetNtNtBV_6string6StringEINtNtCscwCr4GBBztI_3syn10punctuated10PunctuatedNtCsfwj6t2KTYdc_11proc_macro211TokenStreamNtNtB3L_5token4PlusEEEECs4u7P9VlF0C9_14thiserror_impl, symObjAddr: 0x2020, symBinAddr: 0x51190, symSize: 0x24 }
  - { offset: 0x129A75, size: 0x8, addend: 0x0, symName: __RINvNtCs85QQFkKrybG_4core3ptr13drop_in_placeINtNvXsd_NtNtCsdFlNUEO95cG_5alloc3vec9into_iterINtBP_8IntoIterppENtNtNtB4_3ops4drop4Drop4drop9DropGuardRNtCsfwj6t2KTYdc_11proc_macro25IdentNtNtBT_5alloc6GlobalEECs4u7P9VlF0C9_14thiserror_impl, symObjAddr: 0x2068, symBinAddr: 0x511B4, symSize: 0x24 }
  - { offset: 0x129AA4, size: 0x8, addend: 0x0, symName: __RINvNtCs85QQFkKrybG_4core3ptr13drop_in_placeINtNvXsw_NtNtNtCsdFlNUEO95cG_5alloc11collections5btree3mapINtBP_8IntoIterpppENtNtNtB4_3ops4drop4Drop4drop9DropGuardNtCsfwj6t2KTYdc_11proc_macro25IdentNtNtBR_7set_val9SetValZSTNtNtBV_5alloc6GlobalEECs4u7P9VlF0C9_14thiserror_impl, symObjAddr: 0x208C, symBinAddr: 0x511D8, symSize: 0x24 }
  - { offset: 0x129AD3, size: 0x8, addend: 0x0, symName: __RINvNtCs85QQFkKrybG_4core3ptr13drop_in_placeINtNvXsw_NtNtNtCsdFlNUEO95cG_5alloc11collections5btree3mapINtBP_8IntoIterpppENtNtNtB4_3ops4drop4Drop4drop9DropGuardNtNtBV_6string6StringNtNtBR_7set_val9SetValZSTNtNtBV_5alloc6GlobalEECs4u7P9VlF0C9_14thiserror_impl, symObjAddr: 0x20B0, symBinAddr: 0x511FC, symSize: 0x24 }
  - { offset: 0x129B02, size: 0x8, addend: 0x0, symName: __RINvNtCs85QQFkKrybG_4core3ptr13drop_in_placeINtNvXsw_NtNtNtCsdFlNUEO95cG_5alloc11collections5btree3mapINtBP_8IntoIterpppENtNtNtB4_3ops4drop4Drop4drop9DropGuardNtNtBV_6string6StringTINtNtBR_3set8BTreeSetB2x_EINtNtCscwCr4GBBztI_3syn10punctuated10PunctuatedNtCsfwj6t2KTYdc_11proc_macro211TokenStreamNtNtB3o_5token4PlusEENtNtBV_5alloc6GlobalEECs4u7P9VlF0C9_14thiserror_impl, symObjAddr: 0x20D4, symBinAddr: 0x51220, symSize: 0x24 }
  - { offset: 0x129B31, size: 0x8, addend: 0x0, symName: __RINvNtCs85QQFkKrybG_4core3ptr13drop_in_placeINtNvXsw_NtNtNtCsdFlNUEO95cG_5alloc11collections5btree3mapINtBP_8IntoIterpppENtNtNtB4_3ops4drop4Drop4drop9DropGuardRNtCsfwj6t2KTYdc_11proc_macro25IdentNtNtBR_7set_val9SetValZSTNtNtBV_5alloc6GlobalEECs4u7P9VlF0C9_14thiserror_impl, symObjAddr: 0x20F8, symBinAddr: 0x51244, symSize: 0x24 }
  - { offset: 0x129B60, size: 0x8, addend: 0x0, symName: __RINvNtCs85QQFkKrybG_4core3ptr13drop_in_placeINtNvXsw_NtNtNtCsdFlNUEO95cG_5alloc11collections5btree3mapINtBP_8IntoIterpppENtNtNtB4_3ops4drop4Drop4drop9DropGuardTjNtNtCs4u7P9VlF0C9_14thiserror_impl4attr5TraitENtNtBR_7set_val9SetValZSTNtNtBV_5alloc6GlobalEEB2D_, symObjAddr: 0x211C, symBinAddr: 0x51268, symSize: 0x24 }
  - { offset: 0x129B8F, size: 0x8, addend: 0x0, symName: __RINvNtCs85QQFkKrybG_4core3ptr13drop_in_placeNCINvMsi_NtCsdFlNUEO95cG_5alloc3vecINtBP_3VecNtCsfwj6t2KTYdc_11proc_macro211TokenStreamE14extend_trustedINtNtNtNtB4_4iter8adapters3map3MapINtNtNtB4_5slice4iter4IterNtNtCs4u7P9VlF0C9_14thiserror_impl3ast7VariantENCNvNtB3o_6expand9impl_enums1_0EE0EB3o_, symObjAddr: 0x2140, symBinAddr: 0x5128C, symSize: 0x24 }
  - { offset: 0x129BBE, size: 0x8, addend: 0x0, symName: __RINvNtCs85QQFkKrybG_4core3ptr13drop_in_placeNCINvNtNtNtB4_4iter8adapters3map8map_foldRNtNtCs4u7P9VlF0C9_14thiserror_impl3ast7VariantNtCsfwj6t2KTYdc_11proc_macro211TokenStreamuNCNvNtB1q_6expand9impl_enums1_0NCINvNvNtNtNtBP_6traits8iterator8Iterator8for_each4callB26_NCINvMsi_NtCsdFlNUEO95cG_5alloc3vecINtB4o_3VecB26_E14extend_trustedINtBL_3MapINtNtNtB4_5slice4iter4IterB1m_EB2N_EE0E0E0EB1q_, symObjAddr: 0x2164, symBinAddr: 0x512B0, symSize: 0x24 }
  - { offset: 0x129BED, size: 0x8, addend: 0x0, symName: __RINvNtCs85QQFkKrybG_4core3ptr13drop_in_placeNCINvNvNtNtNtNtB4_4iter6traits8iterator8Iterator8for_each4callNtCsfwj6t2KTYdc_11proc_macro211TokenStreamNCINvMsi_NtCsdFlNUEO95cG_5alloc3vecINtB2v_3VecB1G_E14extend_trustedINtNtNtBT_8adapters3map3MapINtNtNtB4_5slice4iter4IterNtNtCs4u7P9VlF0C9_14thiserror_impl3ast7VariantENCNvNtB4m_6expand9impl_enums1_0EE0E0EB4m_, symObjAddr: 0x2188, symBinAddr: 0x512D4, symSize: 0x24 }
  - { offset: 0x129C1C, size: 0x8, addend: 0x0, symName: __RINvNtCs85QQFkKrybG_4core3ptr13drop_in_placeNCNCINvNtNtCs9bTl5rSDVcL_10proc_macro6bridge6client10run_clientNtBN_11TokenStreamINtNtB4_6option6OptionB1H_ENCNCINvMs6_BN_INtBN_6ClientNtBR_11TokenStreamB2R_E7expand1NvCs4u7P9VlF0C9_14thiserror_impl12derive_errorE00E00EB3o_, symObjAddr: 0x21AC, symBinAddr: 0x512F8, symSize: 0x24 }
  - { offset: 0x129C4B, size: 0x8, addend: 0x0, symName: __RINvNtCs85QQFkKrybG_4core3ptr13drop_in_placeNCNvNtCs4u7P9VlF0C9_14thiserror_impl6expand11impl_structs0_0EBM_, symObjAddr: 0x21D0, symBinAddr: 0x5131C, symSize: 0x24 }
  - { offset: 0x129C7A, size: 0x8, addend: 0x0, symName: __RINvNtCs85QQFkKrybG_4core3ptr13drop_in_placeNtNtCs4u7P9VlF0C9_14thiserror_impl3ast4EnumEBK_, symObjAddr: 0x21F4, symBinAddr: 0x51340, symSize: 0x8C }
  - { offset: 0x129CA9, size: 0x8, addend: 0x0, symName: __RINvNtCs85QQFkKrybG_4core3ptr13drop_in_placeNtNtCs4u7P9VlF0C9_14thiserror_impl3ast5FieldEBK_, symObjAddr: 0x2280, symBinAddr: 0x513CC, symSize: 0x60 }
  - { offset: 0x129CD8, size: 0x8, addend: 0x0, symName: __RINvNtCs85QQFkKrybG_4core3ptr13drop_in_placeNtNtCs4u7P9VlF0C9_14thiserror_impl3ast5InputEBK_, symObjAddr: 0x22E0, symBinAddr: 0x5142C, symSize: 0x50 }
  - { offset: 0x129D07, size: 0x8, addend: 0x0, symName: __RINvNtCs85QQFkKrybG_4core3ptr13drop_in_placeNtNtCs4u7P9VlF0C9_14thiserror_impl3ast6StructEBK_, symObjAddr: 0x2330, symBinAddr: 0x5147C, symSize: 0x8C }
  - { offset: 0x129D36, size: 0x8, addend: 0x0, symName: __RINvNtCs85QQFkKrybG_4core3ptr13drop_in_placeNtNtCs4u7P9VlF0C9_14thiserror_impl3ast7VariantEBK_, symObjAddr: 0x23BC, symBinAddr: 0x51508, symSize: 0x8C }
  - { offset: 0x129D65, size: 0x8, addend: 0x0, symName: __RINvNtCs85QQFkKrybG_4core3ptr13drop_in_placeNtNtCs4u7P9VlF0C9_14thiserror_impl3fmt12FmtArgumentsEBK_, symObjAddr: 0x2448, symBinAddr: 0x51594, symSize: 0x24 }
  - { offset: 0x129D94, size: 0x8, addend: 0x0, symName: __RINvNtCs85QQFkKrybG_4core3ptr13drop_in_placeNtNtCs4u7P9VlF0C9_14thiserror_impl4attr5AttrsEBK_, symObjAddr: 0x246C, symBinAddr: 0x515B8, symSize: 0x24 }
  - { offset: 0x129DC3, size: 0x8, addend: 0x0, symName: __RINvNtCs85QQFkKrybG_4core3ptr13drop_in_placeNtNtCs4u7P9VlF0C9_14thiserror_impl4attr7DisplayEBK_, symObjAddr: 0x2490, symBinAddr: 0x515DC, symSize: 0x8C }
  - { offset: 0x129DF2, size: 0x8, addend: 0x0, symName: __RINvNtCs85QQFkKrybG_4core3ptr13drop_in_placeNtNtCs4u7P9VlF0C9_14thiserror_impl8generics13ParamsInScopeEBK_, symObjAddr: 0x251C, symBinAddr: 0x51668, symSize: 0x24 }
  - { offset: 0x129E21, size: 0x8, addend: 0x0, symName: __RINvNtCs85QQFkKrybG_4core3ptr13drop_in_placeNtNtCs4u7P9VlF0C9_14thiserror_impl8generics14InferredBoundsEBK_, symObjAddr: 0x2540, symBinAddr: 0x5168C, symSize: 0x5C }
  - { offset: 0x129E50, size: 0x8, addend: 0x0, symName: __RINvNtCs85QQFkKrybG_4core3ptr13drop_in_placeNtNtCscwCr4GBBztI_3syn6derive10DataStructECs4u7P9VlF0C9_14thiserror_impl, symObjAddr: 0x259C, symBinAddr: 0x516E8, symSize: 0x24 }
  - { offset: 0x129E7F, size: 0x8, addend: 0x0, symName: __RINvNtCs85QQFkKrybG_4core3ptr13drop_in_placeNtNtCscwCr4GBBztI_3syn6derive11DeriveInputECs4u7P9VlF0C9_14thiserror_impl, symObjAddr: 0x25C0, symBinAddr: 0x5170C, symSize: 0xEC }
  - { offset: 0x129EAE, size: 0x8, addend: 0x0, symName: __RINvNtCs85QQFkKrybG_4core3ptr13drop_in_placeNtNtCscwCr4GBBztI_3syn6derive4DataECs4u7P9VlF0C9_14thiserror_impl, symObjAddr: 0x26AC, symBinAddr: 0x517F8, symSize: 0x80 }
  - { offset: 0x129EDD, size: 0x8, addend: 0x0, symName: __RINvNtCs85QQFkKrybG_4core3ptr13drop_in_placeNtNtCscwCr4GBBztI_3syn6derive8DataEnumECs4u7P9VlF0C9_14thiserror_impl, symObjAddr: 0x272C, symBinAddr: 0x51878, symSize: 0x24 }
  - { offset: 0x129F0C, size: 0x8, addend: 0x0, symName: __RINvNtCs85QQFkKrybG_4core3ptr13drop_in_placeNtNtCscwCr4GBBztI_3syn6derive9DataUnionECs4u7P9VlF0C9_14thiserror_impl, symObjAddr: 0x2750, symBinAddr: 0x5189C, symSize: 0x24 }
  - { offset: 0x129F3B, size: 0x8, addend: 0x0, symName: __RINvNtCs85QQFkKrybG_4core3ptr13drop_in_placeNtNtCscwCr4GBBztI_3syn8generics10TypeParamsECs4u7P9VlF0C9_14thiserror_impl, symObjAddr: 0x2774, symBinAddr: 0x518C0, symSize: 0x24 }
  - { offset: 0x129F6A, size: 0x8, addend: 0x0, symName: __RINvNtCs85QQFkKrybG_4core3ptr13drop_in_placeNtNtNtCs9bTl5rSDVcL_10proc_macro6bridge3rpc12PanicMessageECs4u7P9VlF0C9_14thiserror_impl, symObjAddr: 0x2798, symBinAddr: 0x518E4, symSize: 0x54 }
  - { offset: 0x129F99, size: 0x8, addend: 0x0, symName: __RINvNtCs85QQFkKrybG_4core3ptr13drop_in_placeNtNtNtCs9bTl5rSDVcL_10proc_macro6bridge6buffer6BufferECs4u7P9VlF0C9_14thiserror_impl, symObjAddr: 0x27EC, symBinAddr: 0x51938, symSize: 0x24 }
  - { offset: 0x129FC8, size: 0x8, addend: 0x0, symName: __RINvNtCs85QQFkKrybG_4core3ptr13drop_in_placeNtNtNtCs9bTl5rSDVcL_10proc_macro6bridge6client6BridgeECs4u7P9VlF0C9_14thiserror_impl, symObjAddr: 0x2810, symBinAddr: 0x5195C, symSize: 0x24 }
  - { offset: 0x129FF7, size: 0x8, addend: 0x0, symName: __RINvNtCs85QQFkKrybG_4core3ptr13drop_in_placeNtNtNtCswz7ZwgBZOU_3std2io5error5ErrorECs4u7P9VlF0C9_14thiserror_impl, symObjAddr: 0x2834, symBinAddr: 0x51980, symSize: 0x24 }
  - { offset: 0x12A026, size: 0x8, addend: 0x0, symName: __RINvNtCs85QQFkKrybG_4core3ptr13drop_in_placeNtNtNtCswz7ZwgBZOU_3std2io5error6CustomECs4u7P9VlF0C9_14thiserror_impl, symObjAddr: 0x2858, symBinAddr: 0x519A4, symSize: 0x24 }
  - { offset: 0x12A055, size: 0x8, addend: 0x0, symName: __RINvNtCs85QQFkKrybG_4core3ptr13drop_in_placeNtNtNtNtCswz7ZwgBZOU_3std2io5error14repr_bitpacked4ReprECs4u7P9VlF0C9_14thiserror_impl, symObjAddr: 0x287C, symBinAddr: 0x519C8, symSize: 0x24 }
  - { offset: 0x12A084, size: 0x8, addend: 0x0, symName: __RINvNtCs85QQFkKrybG_4core3ptr13drop_in_placeNtNvNtNtNtCs9bTl5rSDVcL_10proc_macro6bridge6client5state3set13RestoreOnDropECs4u7P9VlF0C9_14thiserror_impl, symObjAddr: 0x28A0, symBinAddr: 0x519EC, symSize: 0x24 }
  - { offset: 0x12A0B3, size: 0x8, addend: 0x0, symName: __RINvNtCs85QQFkKrybG_4core3ptr13drop_in_placeNtNvNtNtNtCsdFlNUEO95cG_5alloc11collections5btree3mem7replace10PanicGuardECs4u7P9VlF0C9_14thiserror_impl, symObjAddr: 0x28C4, symBinAddr: 0x51A10, symSize: 0x24 }
  - { offset: 0x12A0E2, size: 0x8, addend: 0x0, symName: __RINvNtCs85QQFkKrybG_4core3ptr13drop_in_placeSNtCsfwj6t2KTYdc_11proc_macro211TokenStreamECs4u7P9VlF0C9_14thiserror_impl, symObjAddr: 0x28E8, symBinAddr: 0x51A34, symSize: 0xB4 }
  - { offset: 0x12A111, size: 0x8, addend: 0x0, symName: __RINvNtCs85QQFkKrybG_4core3ptr13drop_in_placeSNtNtCs4u7P9VlF0C9_14thiserror_impl3ast5FieldEBL_, symObjAddr: 0x299C, symBinAddr: 0x51AE8, symSize: 0xC4 }
  - { offset: 0x12A140, size: 0x8, addend: 0x0, symName: __RINvNtCs85QQFkKrybG_4core3ptr13drop_in_placeSNtNtCs4u7P9VlF0C9_14thiserror_impl3ast7VariantEBL_, symObjAddr: 0x2A60, symBinAddr: 0x51BAC, symSize: 0xC4 }
  - { offset: 0x12A16F, size: 0x8, addend: 0x0, symName: __RINvNtCs85QQFkKrybG_4core3ptr13drop_in_placeSTNtCsfwj6t2KTYdc_11proc_macro211TokenStreamNtNtCscwCr4GBBztI_3syn5token4PlusEECs4u7P9VlF0C9_14thiserror_impl, symObjAddr: 0x2B24, symBinAddr: 0x51C70, symSize: 0xC4 }
  - { offset: 0x12A19E, size: 0x8, addend: 0x0, symName: __RINvNtCs85QQFkKrybG_4core3ptr13drop_in_placeTINtNtB4_6option6OptionINtNtB4_6result6ResultNtNtCscwCr4GBBztI_3syn4expr5IndexNtNtB1t_5error5ErrorEEBH_BH_EECs4u7P9VlF0C9_14thiserror_impl, symObjAddr: 0x2BE8, symBinAddr: 0x51D34, symSize: 0x90 }
  - { offset: 0x12A1CD, size: 0x8, addend: 0x0, symName: __RINvNtCs85QQFkKrybG_4core3ptr13drop_in_placeTINtNtNtNtCsdFlNUEO95cG_5alloc11collections5btree3set8BTreeSetNtNtBQ_6string6StringEINtNtCscwCr4GBBztI_3syn10punctuated10PunctuatedNtCsfwj6t2KTYdc_11proc_macro211TokenStreamNtNtB27_5token4PlusEEECs4u7P9VlF0C9_14thiserror_impl, symObjAddr: 0x2C78, symBinAddr: 0x51DC4, symSize: 0x60 }
  - { offset: 0x12A1FC, size: 0x8, addend: 0x0, symName: __RINvNtCs85QQFkKrybG_4core3ptr13drop_in_placeTNtCsfwj6t2KTYdc_11proc_macro211TokenStreamNtNtCscwCr4GBBztI_3syn5token4PlusEECs4u7P9VlF0C9_14thiserror_impl, symObjAddr: 0x2CD8, symBinAddr: 0x51E24, symSize: 0x24 }
  - { offset: 0x12A22B, size: 0x8, addend: 0x0, symName: __RINvNtCs85QQFkKrybG_4core3ptr13drop_in_placeTNtCsfwj6t2KTYdc_11proc_macro25IdentNtNtNtNtCsdFlNUEO95cG_5alloc11collections5btree7set_val9SetValZSTEECs4u7P9VlF0C9_14thiserror_impl, symObjAddr: 0x2CFC, symBinAddr: 0x51E48, symSize: 0x24 }
  - { offset: 0x12A25A, size: 0x8, addend: 0x0, symName: __RINvNtCs85QQFkKrybG_4core3ptr13drop_in_placeTNtNtCsdFlNUEO95cG_5alloc6string6StringNtNtNtNtBL_11collections5btree7set_val9SetValZSTEECs4u7P9VlF0C9_14thiserror_impl, symObjAddr: 0x2D20, symBinAddr: 0x51E6C, symSize: 0x24 }
  - { offset: 0x12A289, size: 0x8, addend: 0x0, symName: __RINvNtCs85QQFkKrybG_4core3ptr13drop_in_placeTNtNtCsdFlNUEO95cG_5alloc6string6StringTINtNtNtNtBL_11collections5btree3set8BTreeSetBH_EINtNtCscwCr4GBBztI_3syn10punctuated10PunctuatedNtCsfwj6t2KTYdc_11proc_macro211TokenStreamNtNtB2b_5token4PlusEEEECs4u7P9VlF0C9_14thiserror_impl, symObjAddr: 0x2D44, symBinAddr: 0x51E90, symSize: 0x60 }
  - { offset: 0x12DBAF, size: 0x8, addend: 0x0, symName: __RNvXs3_NtCs85QQFkKrybG_4core6optionINtB5_6OptionNtNtCs4u7P9VlF0C9_14thiserror_impl4attr7DisplayENtNtB7_5clone5Clone10clone_fromBO_, symObjAddr: 0x36EC, symBinAddr: 0x52838, symSize: 0x130 }
  - { offset: 0x12DCE9, size: 0x8, addend: 0x0, symName: __RNvXs6_NtCs85QQFkKrybG_4core6optionINtB5_6OptionRNtCsfwj6t2KTYdc_11proc_macro211TokenStreamENtNtNtNtB7_4iter6traits7collect12IntoIterator9into_iterCs4u7P9VlF0C9_14thiserror_impl, symObjAddr: 0x3AFC, symBinAddr: 0x52C48, symSize: 0x14 }
  - { offset: 0x12DD26, size: 0x8, addend: 0x0, symName: __RNvXsC_NtCs85QQFkKrybG_4core6optionINtB5_6OptionRNtNtCs4u7P9VlF0C9_14thiserror_impl3ast5FieldENtNtNtB7_3ops9try_trait3Try6branchBP_, symObjAddr: 0x3B20, symBinAddr: 0x52C6C, symSize: 0x40 }
  - { offset: 0x12DE8F, size: 0x8, addend: 0x0, symName: __RNvXsD_NtCs85QQFkKrybG_4core6optionINtB5_6OptionNtCsfwj6t2KTYdc_11proc_macro211TokenStreamEINtNtNtB7_3ops9try_trait12FromResidualIBy_NtNtB7_7convert10InfallibleEE13from_residualCs4u7P9VlF0C9_14thiserror_impl, symObjAddr: 0x3B60, symBinAddr: 0x52CAC, symSize: 0x18 }
  - { offset: 0x12DEC2, size: 0x8, addend: 0x0, symName: __RNvXsD_NtCs85QQFkKrybG_4core6optionINtB5_6OptionRNtNtCs4u7P9VlF0C9_14thiserror_impl3ast5FieldEINtNtNtB7_3ops9try_trait12FromResidualIBy_NtNtB7_7convert10InfallibleEE13from_residualBP_, symObjAddr: 0x3B78, symBinAddr: 0x52CC4, symSize: 0x10 }
  - { offset: 0x12DFD6, size: 0x8, addend: 0x0, symName: __RNvXsP_NtCs85QQFkKrybG_4core6optionINtB5_8IntoIterRNtNtCscwCr4GBBztI_3syn4data7VariantENtNtB7_5clone5Clone5cloneCs4u7P9VlF0C9_14thiserror_impl, symObjAddr: 0x3B88, symBinAddr: 0x52CD4, symSize: 0x68 }
  - { offset: 0x12E081, size: 0x8, addend: 0x0, symName: __RNvXsP_NtCs85QQFkKrybG_4core6optionINtB5_8IntoIterRNtNtCscwCr4GBBztI_3syn4path15GenericArgumentENtNtB7_5clone5Clone5cloneCs4u7P9VlF0C9_14thiserror_impl, symObjAddr: 0x3BF0, symBinAddr: 0x52D3C, symSize: 0x68 }
  - { offset: 0x12E5A9, size: 0x8, addend: 0x0, symName: __RNvXsw_NtCs85QQFkKrybG_4core6optionINtB5_8IntoIterRNtCsfwj6t2KTYdc_11proc_macro211TokenStreamENtNtNtNtB7_4iter6traits8iterator8Iterator4nextCs4u7P9VlF0C9_14thiserror_impl, symObjAddr: 0x4634, symBinAddr: 0x53780, symSize: 0x20 }
  - { offset: 0x12E621, size: 0x8, addend: 0x0, symName: __RNvXsw_NtCs85QQFkKrybG_4core6optionINtB5_8IntoIterRNtNtCscwCr4GBBztI_3syn4data7VariantENtNtNtNtB7_4iter6traits8iterator8Iterator9size_hintCs4u7P9VlF0C9_14thiserror_impl, symObjAddr: 0x4654, symBinAddr: 0x537A0, symSize: 0x34 }
  - { offset: 0x12E699, size: 0x8, addend: 0x0, symName: __RNvXsw_NtCs85QQFkKrybG_4core6optionINtB5_8IntoIterRNtNtCscwCr4GBBztI_3syn4path15GenericArgumentENtNtNtNtB7_4iter6traits8iterator8Iterator9size_hintCs4u7P9VlF0C9_14thiserror_impl, symObjAddr: 0x4688, symBinAddr: 0x537D4, symSize: 0x34 }
  - { offset: 0x12F48B, size: 0x8, addend: 0x0, symName: __RNCINvNvXs_NtNtNtCs85QQFkKrybG_4core4iter8adapters9enumerateINtB9_9EnumeratepENtNtNtBd_6traits8iterator8Iterator8try_fold9enumerateRNtNtCscwCr4GBBztI_3syn4data5FielduINtNtNtBf_3ops12control_flow11ControlFlowIB2F_NtNtCs4u7P9VlF0C9_14thiserror_impl3ast5FieldEENCINvNtBb_3map12map_try_foldTjB25_EINtNtBf_6result6ResultB3o_NtNtB2a_5error5ErrorEuB2E_NCNvMs2_B3q_B3o_17multiple_from_syn0NCINvXBb_INtBb_12GenericShuntINtB4d_3MapIBX_INtNtB2a_10punctuated4IterB26_EEB5x_EIB4I_NtNtBf_7convert10InfallibleB57_EEB1e_8try_folduNCINvNvB1e_12try_for_each4callB3o_B3j_NcNtB3j_5Break0E0B3j_E0E0E0B3s_, symObjAddr: 0x2E24, symBinAddr: 0x51F70, symSize: 0xCC }
  - { offset: 0x12F522, size: 0x8, addend: 0x0, symName: __RINvXs_NtNtNtCs85QQFkKrybG_4core4iter8adapters9enumerateINtB5_9EnumerateINtNtCscwCr4GBBztI_3syn10punctuated4IterNtNtB1d_4data5FieldEENtNtNtB9_6traits8iterator8Iterator8try_folduNCINvNtB7_3map12map_try_foldTjRB1M_EINtNtBb_6result6ResultNtNtCs4u7P9VlF0C9_14thiserror_impl3ast5FieldNtNtB1d_5error5ErrorEuINtNtNtBb_3ops12control_flow11ControlFlowIB4Q_B3L_EENCNvMs2_B3N_B3L_17multiple_from_syn0NCINvXB7_INtB7_12GenericShuntINtB2U_3MapBS_B5F_EIB3q_NtNtBb_7convert10InfallibleB4t_EEB27_8try_folduNCINvNvB27_12try_for_each4callB3L_B5u_NcNtB5u_5Break0E0B5u_E0E0B4P_EB3P_, symObjAddr: 0x2DA4, symBinAddr: 0x51EF0, symSize: 0x4C }
  - { offset: 0x12F5B5, size: 0x8, addend: 0x0, symName: __RNvXs_NtNtNtCs85QQFkKrybG_4core4iter8adapters9enumerateINtB4_9EnumerateINtNtCscwCr4GBBztI_3syn10punctuated4IterNtNtB1c_4data5FieldEENtNtNtB8_6traits8iterator8Iterator9size_hintCs4u7P9VlF0C9_14thiserror_impl, symObjAddr: 0x3DFC, symBinAddr: 0x52F48, symSize: 0x24 }
  - { offset: 0x12F5EA, size: 0x8, addend: 0x0, symName: __RNvXs_NtNtNtCs85QQFkKrybG_4core4iter8adapters9enumerateINtB4_9EnumerateINtNtNtBa_5slice4iter4IterNtCsfwj6t2KTYdc_11proc_macro25IdentEENtNtNtB8_6traits8iterator8Iterator4nextCs4u7P9VlF0C9_14thiserror_impl, symObjAddr: 0x3E20, symBinAddr: 0x52F6C, symSize: 0xE0 }
  - { offset: 0x12F6D0, size: 0x8, addend: 0x0, symName: __RNvXs_NtNtNtCs85QQFkKrybG_4core4iter8adapters9enumerateINtB4_9EnumerateINtNtNtBa_5slice4iter4IterNtNtCs4u7P9VlF0C9_14thiserror_impl3ast5FieldEENtNtNtB8_6traits8iterator8Iterator4nextB1B_, symObjAddr: 0x3F00, symBinAddr: 0x5304C, symSize: 0xE0 }
  - { offset: 0x12F7B6, size: 0x8, addend: 0x0, symName: __RNvXs_NtNtNtCs85QQFkKrybG_4core4iter8adapters9enumerateINtB4_9EnumerateINtNtNtBa_5slice4iter4IterNtNtCsdFlNUEO95cG_5alloc6string6StringEENtNtNtB8_6traits8iterator8Iterator4nextCs4u7P9VlF0C9_14thiserror_impl, symObjAddr: 0x3FE0, symBinAddr: 0x5312C, symSize: 0xE0 }
  - { offset: 0x12F89C, size: 0x8, addend: 0x0, symName: __RNvXs_NtNtNtCs85QQFkKrybG_4core4iter8adapters9enumerateINtB4_9EnumerateINtNtNtBa_5slice4iter4IterRNtCsfwj6t2KTYdc_11proc_macro25IdentEENtNtNtB8_6traits8iterator8Iterator4nextCs4u7P9VlF0C9_14thiserror_impl, symObjAddr: 0x40C0, symBinAddr: 0x5320C, symSize: 0xE0 }
  - { offset: 0x12F982, size: 0x8, addend: 0x0, symName: __RNvXs_NtNtNtCs85QQFkKrybG_4core4iter8adapters9enumerateINtB4_9EnumerateINtNtNtBa_5slice4iter4IterTjNtNtCs4u7P9VlF0C9_14thiserror_impl4attr5TraitEEENtNtNtB8_6traits8iterator8Iterator4nextB1D_, symObjAddr: 0x41A0, symBinAddr: 0x532EC, symSize: 0xE0 }
  - { offset: 0x12FB9A, size: 0x8, addend: 0x0, symName: __RNvXsh_NtNtNtCs85QQFkKrybG_4core4iter8adapters7step_byINtNtNtBb_3ops5range5RangejEINtB5_14SpecRangeSetupBQ_E5setupCs4u7P9VlF0C9_14thiserror_impl, symObjAddr: 0x44E4, symBinAddr: 0x53630, symSize: 0x150 }
  - { offset: 0x12FD5C, size: 0x8, addend: 0x0, symName: __RINvYINtNtNtNtCs85QQFkKrybG_4core4iter8adapters9enumerate9EnumerateINtNtCscwCr4GBBztI_3syn10punctuated4IterNtNtB18_4data5FieldEENtNtNtBa_6traits8iterator8Iterator3mapINtNtBc_6result6ResultNtNtCs4u7P9VlF0C9_14thiserror_impl3ast5FieldNtNtB18_5error5ErrorENCNvMs2_B32_B30_17multiple_from_syn0EB34_, symObjAddr: 0x2DF0, symBinAddr: 0x51F3C, symSize: 0x34 }
  - { offset: 0x12FDF4, size: 0x8, addend: 0x0, symName: __RNvXNtNtNtCs85QQFkKrybG_4core4iter6traits7collectINtNtNtB6_8adapters9enumerate9EnumerateINtNtNtB8_5slice4iter4IterNtNtCs4u7P9VlF0C9_14thiserror_impl3ast5FieldEENtB2_12IntoIterator9into_iterB1S_, symObjAddr: 0x36D4, symBinAddr: 0x52820, symSize: 0x18 }
  - { offset: 0x12FE37, size: 0x8, addend: 0x0, symName: __RNvYINtNtCs85QQFkKrybG_4core6option8IntoIterRNtNtCscwCr4GBBztI_3syn4data7VariantENtNtNtNtB7_4iter6traits10exact_size17ExactSizeIterator3lenCs4u7P9VlF0C9_14thiserror_impl, symObjAddr: 0x48B4, symBinAddr: 0x53A00, symSize: 0xC4 }
  - { offset: 0x12FF36, size: 0x8, addend: 0x0, symName: __RNvYINtNtCs85QQFkKrybG_4core6option8IntoIterRNtNtCscwCr4GBBztI_3syn4path15GenericArgumentENtNtNtNtB7_4iter6traits10exact_size17ExactSizeIterator3lenCs4u7P9VlF0C9_14thiserror_impl, symObjAddr: 0x4978, symBinAddr: 0x53AC4, symSize: 0xC4 }
  - { offset: 0x130042, size: 0x8, addend: 0x0, symName: __RNvXs3_NtNtCs85QQFkKrybG_4core4iter5rangeINtNtNtB9_3ops5range5RangejENtB5_17RangeIteratorImpl9spec_nextCs4u7P9VlF0C9_14thiserror_impl, symObjAddr: 0x39A0, symBinAddr: 0x52AEC, symSize: 0x94 }
  - { offset: 0x1300C3, size: 0x8, addend: 0x0, symName: __RNvXs4_NtNtCs85QQFkKrybG_4core4iter5rangeINtNtNtB9_3ops5range5RangejENtNtNtB7_6traits8iterator8Iterator4nextCs4u7P9VlF0C9_14thiserror_impl, symObjAddr: 0x3A34, symBinAddr: 0x52B80, symSize: 0x24 }
  - { offset: 0x130127, size: 0x8, addend: 0x0, symName: __RNvXsc_NtNtCs85QQFkKrybG_4core4iter5rangeINtNtNtB9_3ops5range14RangeInclusivejENtB5_26RangeInclusiveIteratorImpl9spec_nextCs4u7P9VlF0C9_14thiserror_impl, symObjAddr: 0x43C0, symBinAddr: 0x5350C, symSize: 0x100 }
  - { offset: 0x130228, size: 0x8, addend: 0x0, symName: __RNvXsd_NtNtCs85QQFkKrybG_4core4iter5rangeINtNtNtB9_3ops5range14RangeInclusivejENtNtNtB7_6traits8iterator8Iterator4nextCs4u7P9VlF0C9_14thiserror_impl, symObjAddr: 0x44C0, symBinAddr: 0x5360C, symSize: 0x24 }
  - { offset: 0x1304AD, size: 0x8, addend: 0x0, symName: __RNvXs5_NtNtCs85QQFkKrybG_4core5slice5indexINtNtNtB9_3ops5range9RangeFromjEINtB5_10SliceIndexSRNtCsfwj6t2KTYdc_11proc_macro25IdentE9index_mutCs4u7P9VlF0C9_14thiserror_impl, symObjAddr: 0x3A58, symBinAddr: 0x52BA4, symSize: 0xA4 }
  - { offset: 0x130F05, size: 0x8, addend: 0x0, symName: __RNSNvYNCINvMs6_NtCsfieuf5LernF_9hashbrown3rawINtBd_8RawTableTRNtNtCscwCr4GBBztI_3syn4expr6MemberjEE14reserve_rehashNCINvNtBf_3map11make_hasherBX_jNtNtNtCswz7ZwgBZOU_3std4hash6random11RandomStateE0E0INtNtNtCs85QQFkKrybG_4core3ops8function6FnOnceTQNtBd_13RawTableInnerjEE9call_once6vtableCs4u7P9VlF0C9_14thiserror_impl, symObjAddr: 0x2EF0, symBinAddr: 0x5203C, symSize: 0x38 }
  - { offset: 0x130F49, size: 0x8, addend: 0x0, symName: __RNSNvYNCINvMs6_NtCsfieuf5LernF_9hashbrown3rawINtBd_8RawTableTRNtNtCscwCr4GBBztI_3syn4expr6MemberjEE24find_or_find_insert_slotNCINvNtBf_3map14equivalent_keyBX_BX_jE0NCINvB24_11make_hasherBX_jNtNtNtCswz7ZwgBZOU_3std4hash6random11RandomStateE0E0INtNtNtCs85QQFkKrybG_4core3ops8function6FnOnceTjEE9call_once6vtableCs4u7P9VlF0C9_14thiserror_impl, symObjAddr: 0x2F28, symBinAddr: 0x52074, symSize: 0x38 }
  - { offset: 0x130F8D, size: 0x8, addend: 0x0, symName: __RNSNvYNCINvMs6_NtCsfieuf5LernF_9hashbrown3rawINtBd_8RawTableTRNtNtCscwCr4GBBztI_3syn4expr6MemberjEE4findNCINvNtBf_3map14equivalent_keyBY_BX_jE0E0INtNtNtCs85QQFkKrybG_4core3ops8function6FnOnceTjEE9call_once6vtableCs4u7P9VlF0C9_14thiserror_impl, symObjAddr: 0x2F60, symBinAddr: 0x520AC, symSize: 0x38 }
  - { offset: 0x130FD1, size: 0x8, addend: 0x0, symName: __RNvYNCINvMs6_NtCsfieuf5LernF_9hashbrown3rawINtBb_8RawTableTRNtNtCscwCr4GBBztI_3syn4expr6MemberjEE14reserve_rehashNCINvNtBd_3map11make_hasherBV_jNtNtNtCswz7ZwgBZOU_3std4hash6random11RandomStateE0E0INtNtNtCs85QQFkKrybG_4core3ops8function6FnOnceTQNtBb_13RawTableInnerjEE9call_onceCs4u7P9VlF0C9_14thiserror_impl, symObjAddr: 0x4A6C, symBinAddr: 0x53BB8, symSize: 0x5C }
  - { offset: 0x131015, size: 0x8, addend: 0x0, symName: __RNvYNCINvMs6_NtCsfieuf5LernF_9hashbrown3rawINtBb_8RawTableTRNtNtCscwCr4GBBztI_3syn4expr6MemberjEE24find_or_find_insert_slotNCINvNtBd_3map14equivalent_keyBV_BV_jE0NCINvB22_11make_hasherBV_jNtNtNtCswz7ZwgBZOU_3std4hash6random11RandomStateE0E0INtNtNtCs85QQFkKrybG_4core3ops8function6FnOnceTjEE9call_onceCs4u7P9VlF0C9_14thiserror_impl, symObjAddr: 0x4AC8, symBinAddr: 0x53C14, symSize: 0x58 }
  - { offset: 0x131059, size: 0x8, addend: 0x0, symName: __RNvYNCINvMs6_NtCsfieuf5LernF_9hashbrown3rawINtBb_8RawTableTRNtNtCscwCr4GBBztI_3syn4expr6MemberjEE4findNCINvNtBd_3map14equivalent_keyBW_BV_jE0E0INtNtNtCs85QQFkKrybG_4core3ops8function6FnOnceTjEE9call_onceCs4u7P9VlF0C9_14thiserror_impl, symObjAddr: 0x4B20, symBinAddr: 0x53C6C, symSize: 0x58 }
  - { offset: 0x13109D, size: 0x8, addend: 0x0, symName: __RNvYNCNkNvNtNtNtCs9bTl5rSDVcL_10proc_macro6bridge6client5state12BRIDGE_STATE0s_0INtNtNtCs85QQFkKrybG_4core3ops8function6FnOnceTINtNtB1n_6option6OptionQIB22_INtNtB1n_4cell4CellPuEEEEE9call_onceCs4u7P9VlF0C9_14thiserror_impl, symObjAddr: 0x4B78, symBinAddr: 0x53CC4, symSize: 0x4C }
  - { offset: 0x1310E1, size: 0x8, addend: 0x0, symName: __RNvYNCNkNvNvMNtNtCswz7ZwgBZOU_3std4hash6randomNtBb_11RandomState3new4KEYS0s_0INtNtNtCs85QQFkKrybG_4core3ops8function6FnOnceTINtNtB1k_6option6OptionQIB1Z_INtNtB1k_4cell4CellTyyEEEEEE9call_onceCs4u7P9VlF0C9_14thiserror_impl, symObjAddr: 0x4BC4, symBinAddr: 0x53D10, symSize: 0x4C }
  - { offset: 0x131125, size: 0x8, addend: 0x0, symName: __RNvYNCNvNtCs4u7P9VlF0C9_14thiserror_impl4attr21parse_error_attribute0INtNtNtCs85QQFkKrybG_4core3ops8function6FnOnceTRNtNtCscwCr4GBBztI_3syn5parse11ParseBufferEE9call_onceB8_, symObjAddr: 0x4C10, symBinAddr: 0x53D5C, symSize: 0x40 }
  - { offset: 0x13116A, size: 0x8, addend: 0x0, symName: __RNvYNcNtINtNtCscwCr4GBBztI_3syn10punctuated4PairRNtCsfwj6t2KTYdc_11proc_macro211TokenStreamRNtNtBb_5token4PlusE3End0INtNtNtCs85QQFkKrybG_4core3ops8function6FnOnceTBK_EE9call_onceCs4u7P9VlF0C9_14thiserror_impl, symObjAddr: 0x4C50, symBinAddr: 0x53D9C, symSize: 0x24 }
  - { offset: 0x1311AE, size: 0x8, addend: 0x0, symName: __RNvYNcNtNtNtCs4u7P9VlF0C9_14thiserror_impl3ast5Input4Enum0INtNtNtCs85QQFkKrybG_4core3ops8function6FnOnceTNtB8_4EnumEE9call_onceBa_, symObjAddr: 0x4D04, symBinAddr: 0x53E50, symSize: 0x40 }
  - { offset: 0x1311F2, size: 0x8, addend: 0x0, symName: __RNvYNcNtNtNtCs4u7P9VlF0C9_14thiserror_impl3ast5Input6Struct0INtNtNtCs85QQFkKrybG_4core3ops8function6FnOnceTNtB8_6StructEE9call_onceBa_, symObjAddr: 0x4D44, symBinAddr: 0x53E90, symSize: 0x40 }
  - { offset: 0x131236, size: 0x8, addend: 0x0, symName: __RNvYNcNtNtNtCscwCr4GBBztI_3syn4expr6Member5Named0INtNtNtCs85QQFkKrybG_4core3ops8function6FnOnceTNtCsfwj6t2KTYdc_11proc_macro25IdentEE9call_onceCs4u7P9VlF0C9_14thiserror_impl, symObjAddr: 0x4D84, symBinAddr: 0x53ED0, symSize: 0x34 }
  - { offset: 0x13127A, size: 0x8, addend: 0x0, symName: __RNvYNvNtCs4u7P9VlF0C9_14thiserror_impl3fmt11is_syn_fullINtNtNtCs85QQFkKrybG_4core3ops8function6FnOnceuE9call_onceB6_, symObjAddr: 0x4DE0, symBinAddr: 0x53F2C, symSize: 0x1C }
  - { offset: 0x1312BE, size: 0x8, addend: 0x0, symName: __RNvYNvNtCs4u7P9VlF0C9_14thiserror_impl3fmt19explicit_named_argsINtNtNtCs85QQFkKrybG_4core3ops8function6FnOnceTRNtNtCscwCr4GBBztI_3syn5parse11ParseBufferEE9call_onceB6_, symObjAddr: 0x4DFC, symBinAddr: 0x53F48, symSize: 0x24 }
  - { offset: 0x131302, size: 0x8, addend: 0x0, symName: __RNvYNvNvNvMNtNtCswz7ZwgBZOU_3std4hash6randomNtB9_11RandomState3new4KEYS6___initINtNtNtCs85QQFkKrybG_4core3ops8function6FnOnceuE9call_onceCs4u7P9VlF0C9_14thiserror_impl, symObjAddr: 0x4E58, symBinAddr: 0x53FA4, symSize: 0x1C }
  - { offset: 0x131346, size: 0x8, addend: 0x0, symName: __RNvYNvYINtNtCsdFlNUEO95cG_5alloc5boxed3BoxNtCsfwj6t2KTYdc_11proc_macro211TokenStreamEINtNtCs85QQFkKrybG_4core7convert5AsRefBE_E6as_refINtNtNtB1q_3ops8function6FnOnceTRB5_EE9call_onceCs4u7P9VlF0C9_14thiserror_impl, symObjAddr: 0x4E74, symBinAddr: 0x53FC0, symSize: 0x24 }
  - { offset: 0x13138A, size: 0x8, addend: 0x0, symName: __RNvYNvYNtCsfwj6t2KTYdc_11proc_macro25IdentNtNtCscwCr4GBBztI_3syn3ext8IdentExt9parse_anyINtNtNtCs85QQFkKrybG_4core3ops8function6FnOnceTRNtNtBI_5parse11ParseBufferEE9call_onceCs4u7P9VlF0C9_14thiserror_impl, symObjAddr: 0x4E98, symBinAddr: 0x53FE4, symSize: 0x24 }
  - { offset: 0x1313CE, size: 0x8, addend: 0x0, symName: __RNvYNvYNtNtCscwCr4GBBztI_3syn4expr4ExprNtNtB9_5parse5Parse5parseINtNtNtCs85QQFkKrybG_4core3ops8function6FnOnceTRNtBD_11ParseBufferEE9call_onceCs4u7P9VlF0C9_14thiserror_impl, symObjAddr: 0x4EBC, symBinAddr: 0x54008, symSize: 0x24 }
  - { offset: 0x131412, size: 0x8, addend: 0x0, symName: __RNvYNvYNtNtCscwCr4GBBztI_3syn6derive11DeriveInputNtNtB9_5parse5Parse5parseINtNtNtCs85QQFkKrybG_4core3ops8function6FnOnceTRNtBN_11ParseBufferEE9call_onceCs4u7P9VlF0C9_14thiserror_impl, symObjAddr: 0x4EE0, symBinAddr: 0x5402C, symSize: 0x24 }
  - { offset: 0x131456, size: 0x8, addend: 0x0, symName: __RNvYNvYNtNtCscwCr4GBBztI_3syn8generics14WherePredicateNtNtB9_11parse_quote10ParseQuote5parseINtNtNtCs85QQFkKrybG_4core3ops8function6FnOnceTRNtNtB9_5parse11ParseBufferEE9call_onceCs4u7P9VlF0C9_14thiserror_impl, symObjAddr: 0x4F04, symBinAddr: 0x54050, symSize: 0x24 }
  - { offset: 0x1314A0, size: 0x8, addend: 0x0, symName: __RNvYINvCscwCr4GBBztI_3syn9parse_strNtNtB5_4expr5IndexEINtNtNtCs85QQFkKrybG_4core3ops8function5FnMutTReEE8call_mutCs4u7P9VlF0C9_14thiserror_impl, symObjAddr: 0x4A3C, symBinAddr: 0x53B88, symSize: 0x30 }
  - { offset: 0x1314E4, size: 0x8, addend: 0x0, symName: __RNvYNcNtINtNtNtCs85QQFkKrybG_4core3ops12control_flow11ControlFlowNtNtCs4u7P9VlF0C9_14thiserror_impl3ast5FieldE5Break0INtNtBb_8function5FnMutTB11_EE8call_mutB15_, symObjAddr: 0x4C74, symBinAddr: 0x53DC0, symSize: 0x48 }
  - { offset: 0x131528, size: 0x8, addend: 0x0, symName: __RNvYNcNtINtNtNtCs85QQFkKrybG_4core3ops12control_flow11ControlFlowNtNtCs4u7P9VlF0C9_14thiserror_impl3ast7VariantE5Break0INtNtBb_8function5FnMutTB11_EE8call_mutB15_, symObjAddr: 0x4CBC, symBinAddr: 0x53E08, symSize: 0x48 }
  - { offset: 0x13156C, size: 0x8, addend: 0x0, symName: __RNvYNvNtCsfwj6t2KTYdc_11proc_macro23imp19into_compiler_tokenINtNtNtCs85QQFkKrybG_4core3ops8function5FnMutTNtB6_9TokenTreeEE8call_mutCs4u7P9VlF0C9_14thiserror_impl, symObjAddr: 0x4E20, symBinAddr: 0x53F6C, symSize: 0x38 }
  - { offset: 0x1315B0, size: 0x8, addend: 0x0, symName: __RNvYNvYRNtCsfwj6t2KTYdc_11proc_macro25IdentNtNtCs85QQFkKrybG_4core3cmp10PartialOrd2ltINtNtNtBJ_3ops8function5FnMutTRB5_B1P_EE8call_mutCs4u7P9VlF0C9_14thiserror_impl, symObjAddr: 0x4F28, symBinAddr: 0x54074, symSize: 0x30 }
  - { offset: 0x1315FA, size: 0x8, addend: 0x0, symName: __RNvYNvCs4u7P9VlF0C9_14thiserror_impl12derive_errorINtNtNtCs85QQFkKrybG_4core3ops8function2FnTNtCs9bTl5rSDVcL_10proc_macro11TokenStreamEE4callB4_, symObjAddr: 0x4DB8, symBinAddr: 0x53F04, symSize: 0x28 }
  - { offset: 0x131D76, size: 0x8, addend: 0x0, symName: __RNvNtNtCs85QQFkKrybG_4core4char7methods25encode_utf8_raw_uncheckedCs4u7P9VlF0C9_14thiserror_impl, symObjAddr: 0x33C8, symBinAddr: 0x52514, symSize: 0x188 }
  - { offset: 0x131F5C, size: 0x8, addend: 0x0, symName: __RNvNvNtNtCs85QQFkKrybG_4core4char7convert18from_u32_unchecked18precondition_checkCs4u7P9VlF0C9_14thiserror_impl, symObjAddr: 0x3550, symBinAddr: 0x5269C, symSize: 0x104 }
  - { offset: 0x132360, size: 0x8, addend: 0x0, symName: __RNvYTjNtNtCs4u7P9VlF0C9_14thiserror_impl4attr5TraitENtNtCs85QQFkKrybG_4core5clone5Clone5cloneB8_, symObjAddr: 0x5038, symBinAddr: 0x54184, symSize: 0x60 }
  - { offset: 0x1328EA, size: 0x8, addend: 0x0, symName: __RNvXsR_NtCs9bTl5rSDVcL_10proc_macro6bridgeINtNtCs85QQFkKrybG_4core6option6OptionNtNtB5_6client11TokenStreamEINtNtB5_3rpc6EncodeuE6encodeCs4u7P9VlF0C9_14thiserror_impl, symObjAddr: 0x3C58, symBinAddr: 0x52DA4, symSize: 0xCC }
  - { offset: 0x132990, size: 0x8, addend: 0x0, symName: __RNvXsR_NtCs9bTl5rSDVcL_10proc_macro6bridgeINtNtCs85QQFkKrybG_4core6option6OptionReEINtNtB5_3rpc6EncodeuE6encodeCs4u7P9VlF0C9_14thiserror_impl, symObjAddr: 0x3D24, symBinAddr: 0x52E70, symSize: 0xD8 }
  - { offset: 0x138809, size: 0x8, addend: 0x0, symName: __RNvXsb_NtCscwCr4GBBztI_3syn5parseINtNtCs85QQFkKrybG_4core6option6OptionNtCsfwj6t2KTYdc_11proc_macro29TokenTreeENtB5_5Parse5parseCs4u7P9VlF0C9_14thiserror_impl, symObjAddr: 0x4280, symBinAddr: 0x533CC, symSize: 0x140 }
  - { offset: 0x13924E, size: 0x8, addend: 0x0, symName: __RINvMNtCs85QQFkKrybG_4core6optionINtB3_6OptionIBw_RNtNtCscwCr4GBBztI_3syn4expr6MemberEE18get_or_insert_withNCNvMs3_NtNtNtB5_4iter8adapters8peekableINtB1P_8PeekableINtNtB1R_3map3MapINtNtNtB5_5slice4iter4IterNtNtCs4u7P9VlF0C9_14thiserror_impl3ast5FieldENCNvNtB3m_6expand10fields_pat0EE4peek0EB3m_, symObjAddr: 0x0, symBinAddr: 0x4F1E4, symSize: 0xF4 }
  - { offset: 0x1393A2, size: 0x8, addend: 0x0, symName: __RINvMNtCs85QQFkKrybG_4core6optionINtB3_6OptionIBw_TRNtCsfwj6t2KTYdc_11proc_macro25IdentNtNtNtNtCsdFlNUEO95cG_5alloc11collections5btree7set_val9SetValZSTEEE18get_or_insert_withNCNvMs3_NtNtNtB5_4iter8adapters8peekableINtB2V_8PeekableINtNtB2X_3map3MapINtNtNtB1v_3vec9into_iter8IntoIterBN_ENCINvMse_NtB1r_3setINtB4J_8BTreeSetBN_E16from_sorted_iterB3Y_E0EE4peek0ECs4u7P9VlF0C9_14thiserror_impl, symObjAddr: 0xF4, symBinAddr: 0x4F2D8, symSize: 0xF4 }
  - { offset: 0x139468, size: 0x8, addend: 0x0, symName: __RINvMNtCs85QQFkKrybG_4core6optionINtB3_6OptionINtNtCscwCr4GBBztI_3syn10punctuated4PairRNtCsfwj6t2KTYdc_11proc_macro211TokenStreamRNtNtBN_5token4PlusEE7or_elseNCNvXs8_BL_INtBL_5PairsB1n_B24_ENtNtNtNtB5_4iter6traits8iterator8Iterator4nexts_0ECs4u7P9VlF0C9_14thiserror_impl, symObjAddr: 0x1E8, symBinAddr: 0x4F3CC, symSize: 0xB4 }
  - { offset: 0x1394CB, size: 0x8, addend: 0x0, symName: __RINvMNtCs85QQFkKrybG_4core6optionINtB3_6OptionNtCsfwj6t2KTYdc_11proc_macro211TokenStreamE3mapBI_NCNvNtCs4u7P9VlF0C9_14thiserror_impl6expand11impl_struct0EB1C_, symObjAddr: 0x29C, symBinAddr: 0x4F480, symSize: 0x90 }
  - { offset: 0x139578, size: 0x8, addend: 0x0, symName: __RINvMNtCs85QQFkKrybG_4core6optionINtB3_6OptionNtCsfwj6t2KTYdc_11proc_macro211TokenStreamE3mapBI_NCNvNtCs4u7P9VlF0C9_14thiserror_impl6expand11impl_structs0_0EB1C_, symObjAddr: 0x32C, symBinAddr: 0x4F510, symSize: 0xB8 }
  - { offset: 0x1395FD, size: 0x8, addend: 0x0, symName: __RINvMNtCs85QQFkKrybG_4core6optionINtB3_6OptionNtCsfwj6t2KTYdc_11proc_macro25IdentE3mapNtNtCscwCr4GBBztI_3syn4expr6MemberNcNtB1m_5Named0ECs4u7P9VlF0C9_14thiserror_impl, symObjAddr: 0x3E4, symBinAddr: 0x4F5C8, symSize: 0x8C }
  - { offset: 0x139683, size: 0x8, addend: 0x0, symName: __RINvMNtCs85QQFkKrybG_4core6optionINtB3_6OptionNtNtCscwCr4GBBztI_3syn4expr6MemberE14unwrap_or_elseNCNvMs2_NtCs4u7P9VlF0C9_14thiserror_impl3astNtB1F_5Field8from_syn0EB1H_, symObjAddr: 0x470, symBinAddr: 0x4F654, symSize: 0x84 }
  - { offset: 0x139718, size: 0x8, addend: 0x0, symName: __RINvMNtCs85QQFkKrybG_4core6optionINtB3_6OptionRINtNtCsdFlNUEO95cG_5alloc5boxed3BoxNtCsfwj6t2KTYdc_11proc_macro211TokenStreamEE3mapRB1i_NvYBJ_INtNtB5_7convert5AsRefB1i_E6as_refECs4u7P9VlF0C9_14thiserror_impl, symObjAddr: 0x4F4, symBinAddr: 0x4F6D8, symSize: 0x50 }
  - { offset: 0x13979B, size: 0x8, addend: 0x0, symName: __RINvMNtCs85QQFkKrybG_4core6optionINtB3_6OptionRNtCsfwj6t2KTYdc_11proc_macro211TokenStreamE3mapINtNtCscwCr4GBBztI_3syn10punctuated4PairBI_RNtNtB1z_5token4PlusENcNtB1u_3End0ECs4u7P9VlF0C9_14thiserror_impl, symObjAddr: 0x544, symBinAddr: 0x4F728, symSize: 0x68 }
  - { offset: 0x13982D, size: 0x8, addend: 0x0, symName: __RINvMNtCs85QQFkKrybG_4core6optionINtB3_6OptionRNtNtCs4u7P9VlF0C9_14thiserror_impl3ast5FieldE3mapNtCsfwj6t2KTYdc_11proc_macro211TokenStreamNCNvNtBN_6expand11impl_structs1_0EBN_, symObjAddr: 0x5AC, symBinAddr: 0x4F790, symSize: 0x94 }
  - { offset: 0x139899, size: 0x8, addend: 0x0, symName: __RINvMNtCs85QQFkKrybG_4core6optionINtB3_6OptionRNtNtCs4u7P9VlF0C9_14thiserror_impl3ast5FieldE3mapNtCsfwj6t2KTYdc_11proc_macro211TokenStreamNCNvNtBN_6expand11impl_structs_0EBN_, symObjAddr: 0x640, symBinAddr: 0x4F824, symSize: 0x78 }
  - { offset: 0x139904, size: 0x8, addend: 0x0, symName: __RINvMNtCs85QQFkKrybG_4core6optionINtB3_6OptionRNtNtCs4u7P9VlF0C9_14thiserror_impl3ast5FieldE3mapNtCsfwj6t2KTYdc_11proc_macro211TokenStreamNCNvNtBN_6expand16from_initializer0EBN_, symObjAddr: 0x6B8, symBinAddr: 0x4F89C, symSize: 0x6C }
  - { offset: 0x13996F, size: 0x8, addend: 0x0, symName: __RINvMNtCs85QQFkKrybG_4core6optionINtB3_6OptionRNtNtCs4u7P9VlF0C9_14thiserror_impl3ast5FieldE6map_orbNCNvNtBN_4prop24distinct_backtrace_field0EBN_, symObjAddr: 0x724, symBinAddr: 0x4F908, symSize: 0xB8 }
  - { offset: 0x1399EE, size: 0x8, addend: 0x0, symName: __RINvMNtCs85QQFkKrybG_4core6optionINtB3_6OptionRNtNtCs4u7P9VlF0C9_14thiserror_impl4attr7DisplayE6map_orbNCNCNvNtBN_6expand9impl_enums0_00EBN_, symObjAddr: 0x7DC, symBinAddr: 0x4F9C0, symSize: 0xAC }
  - { offset: 0x139A7A, size: 0x8, addend: 0x0, symName: __RINvMNtCs85QQFkKrybG_4core6optionINtB3_6OptionRNtNtCscwCr4GBBztI_3syn4data7VariantE7or_elseNCNvXss_NtBN_10punctuatedINtB1z_11PrivateIterBJ_NtNtBN_5token5CommaENtNtNtNtB5_4iter6traits8iterator8Iterator4nexts_0ECs4u7P9VlF0C9_14thiserror_impl, symObjAddr: 0x888, symBinAddr: 0x4FA6C, symSize: 0xA8 }
  - { offset: 0x139B03, size: 0x8, addend: 0x0, symName: __RINvMNtCs85QQFkKrybG_4core6optionINtB3_6OptionRNtNtCscwCr4GBBztI_3syn4data7VariantE7or_elseNCNvXst_NtBN_10punctuatedINtB1z_11PrivateIterBJ_NtNtBN_5token5CommaENtNtNtNtB5_4iter6traits12double_ended19DoubleEndedIterator9next_back0ECs4u7P9VlF0C9_14thiserror_impl, symObjAddr: 0x930, symBinAddr: 0x4FB14, symSize: 0xA8 }
  - { offset: 0x139B7F, size: 0x8, addend: 0x0, symName: __RINvMNtCs85QQFkKrybG_4core6optionINtB3_6OptionRNtNtCscwCr4GBBztI_3syn4path15GenericArgumentE7or_elseNCNvXss_NtBN_10punctuatedINtB1I_11PrivateIterBJ_NtNtBN_5token5CommaENtNtNtNtB5_4iter6traits8iterator8Iterator4nexts_0ECs4u7P9VlF0C9_14thiserror_impl, symObjAddr: 0x9D8, symBinAddr: 0x4FBBC, symSize: 0xA8 }
  - { offset: 0x139C08, size: 0x8, addend: 0x0, symName: __RINvMNtCs85QQFkKrybG_4core6optionINtB3_6OptionRNtNtCscwCr4GBBztI_3syn4path15GenericArgumentE7or_elseNCNvXst_NtBN_10punctuatedINtB1I_11PrivateIterBJ_NtNtBN_5token5CommaENtNtNtNtB5_4iter6traits12double_ended19DoubleEndedIterator9next_back0ECs4u7P9VlF0C9_14thiserror_impl, symObjAddr: 0xA80, symBinAddr: 0x4FC64, symSize: 0xA8 }
  - { offset: 0x139C77, size: 0x8, addend: 0x0, symName: __RINvMNtCs85QQFkKrybG_4core6optionINtB3_6OptionRNtNtCscwCr4GBBztI_3syn8lifetime8LifetimeE6map_orbNCNvNtCs4u7P9VlF0C9_14thiserror_impl5valid28contains_non_static_lifetime0EB1C_, symObjAddr: 0xB28, symBinAddr: 0x4FD0C, symSize: 0xAC }
  - { offset: 0x139D14, size: 0x8, addend: 0x0, symName: __RINvMNtCs85QQFkKrybG_4core6optionINtB3_6OptionRTNtCsfwj6t2KTYdc_11proc_macro211TokenStreamNtNtCscwCr4GBBztI_3syn5token4PlusEE3mapINtNtB1u_10punctuated4PairRBK_RB1q_ENCNvXs8_B26_INtB26_5PairsBK_B1q_ENtNtNtNtB5_4iter6traits8iterator8Iterator4next0ECs4u7P9VlF0C9_14thiserror_impl, symObjAddr: 0xBD4, symBinAddr: 0x4FDB8, symSize: 0x68 }
  - { offset: 0x139D7F, size: 0x8, addend: 0x0, symName: __RINvMNtCs85QQFkKrybG_4core6optionINtB3_6OptionRTNtNtCscwCr4GBBztI_3syn4data7VariantNtNtBO_5token5CommaEE3mapRBK_NCNCNvXst_NtBO_10punctuatedINtB1W_11PrivateIterBK_B1j_ENtNtNtNtB5_4iter6traits12double_ended19DoubleEndedIterator9next_back00ECs4u7P9VlF0C9_14thiserror_impl, symObjAddr: 0xC3C, symBinAddr: 0x4FE20, symSize: 0x50 }
  - { offset: 0x139DEA, size: 0x8, addend: 0x0, symName: __RINvMNtCs85QQFkKrybG_4core6optionINtB3_6OptionRTNtNtCscwCr4GBBztI_3syn4data7VariantNtNtBO_5token5CommaEE3mapRBK_NCNvXss_NtBO_10punctuatedINtB1U_11PrivateIterBK_B1j_ENtNtNtNtB5_4iter6traits8iterator8Iterator4next0ECs4u7P9VlF0C9_14thiserror_impl, symObjAddr: 0xC8C, symBinAddr: 0x4FE70, symSize: 0x50 }
  - { offset: 0x139E55, size: 0x8, addend: 0x0, symName: __RINvMNtCs85QQFkKrybG_4core6optionINtB3_6OptionRTNtNtCscwCr4GBBztI_3syn4path15GenericArgumentNtNtBO_5token5CommaEE3mapRBK_NCNCNvXst_NtBO_10punctuatedINtB25_11PrivateIterBK_B1s_ENtNtNtNtB5_4iter6traits12double_ended19DoubleEndedIterator9next_back00ECs4u7P9VlF0C9_14thiserror_impl, symObjAddr: 0xCDC, symBinAddr: 0x4FEC0, symSize: 0x50 }
  - { offset: 0x139EC0, size: 0x8, addend: 0x0, symName: __RINvMNtCs85QQFkKrybG_4core6optionINtB3_6OptionRTNtNtCscwCr4GBBztI_3syn4path15GenericArgumentNtNtBO_5token5CommaEE3mapRBK_NCNvXss_NtBO_10punctuatedINtB23_11PrivateIterBK_B1s_ENtNtNtNtB5_4iter6traits8iterator8Iterator4next0ECs4u7P9VlF0C9_14thiserror_impl, symObjAddr: 0xD2C, symBinAddr: 0x4FF10, symSize: 0x50 }
  - { offset: 0x139FAD, size: 0x8, addend: 0x0, symName: __RINvMNtCs85QQFkKrybG_4core6optionINtB3_6OptionbE18get_or_insert_withNvNtCs4u7P9VlF0C9_14thiserror_impl3fmt11is_syn_fullEB18_, symObjAddr: 0xD7C, symBinAddr: 0x4FF60, symSize: 0xEC }
  - { offset: 0x13A154, size: 0x8, addend: 0x0, symName: __RNvMNtCs85QQFkKrybG_4core6optionINtB2_6OptionINtNtCsdFlNUEO95cG_5alloc5boxed3BoxNtCsfwj6t2KTYdc_11proc_macro211TokenStreamEE4takeCs4u7P9VlF0C9_14thiserror_impl, symObjAddr: 0x2F98, symBinAddr: 0x520E4, symSize: 0x20 }
  - { offset: 0x13A1AB, size: 0x8, addend: 0x0, symName: __RNvMNtCs85QQFkKrybG_4core6optionINtB2_6OptionINtNtCsdFlNUEO95cG_5alloc5boxed3BoxNtCsfwj6t2KTYdc_11proc_macro211TokenStreamEE6as_refCs4u7P9VlF0C9_14thiserror_impl, symObjAddr: 0x2FB8, symBinAddr: 0x52104, symSize: 0x4C }
  - { offset: 0x13A211, size: 0x8, addend: 0x0, symName: __RNvMNtCs85QQFkKrybG_4core6optionINtB2_6OptionINtNtCsdFlNUEO95cG_5alloc5boxed3BoxNtCsfwj6t2KTYdc_11proc_macro211TokenStreamEE7is_noneCs4u7P9VlF0C9_14thiserror_impl, symObjAddr: 0x3004, symBinAddr: 0x52150, symSize: 0x28 }
  - { offset: 0x13A25B, size: 0x8, addend: 0x0, symName: __RNvMNtCs85QQFkKrybG_4core6optionINtB2_6OptionINtNtCsdFlNUEO95cG_5alloc5boxed3BoxNtCsfwj6t2KTYdc_11proc_macro211TokenStreamEE7is_someCs4u7P9VlF0C9_14thiserror_impl, symObjAddr: 0x302C, symBinAddr: 0x52178, symSize: 0x28 }
  - { offset: 0x13A287, size: 0x8, addend: 0x0, symName: __RNvMNtCs85QQFkKrybG_4core6optionINtB2_6OptionNtCsfwj6t2KTYdc_11proc_macro24SpanE2orCs4u7P9VlF0C9_14thiserror_impl, symObjAddr: 0x3054, symBinAddr: 0x521A0, symSize: 0x84 }
  - { offset: 0x13A2ED, size: 0x8, addend: 0x0, symName: __RNvMNtCs85QQFkKrybG_4core6optionINtB2_6OptionNtCsfwj6t2KTYdc_11proc_macro25IdentE7is_someCs4u7P9VlF0C9_14thiserror_impl, symObjAddr: 0x30D8, symBinAddr: 0x52224, symSize: 0x28 }
  - { offset: 0x13A326, size: 0x8, addend: 0x0, symName: __RNvMNtCs85QQFkKrybG_4core6optionINtB2_6OptionNtCsfwj6t2KTYdc_11proc_macro29TokenTreeE7is_someCs4u7P9VlF0C9_14thiserror_impl, symObjAddr: 0x3100, symBinAddr: 0x5224C, symSize: 0x28 }
  - { offset: 0x13A37B, size: 0x8, addend: 0x0, symName: __RNvMNtCs85QQFkKrybG_4core6optionINtB2_6OptionNtNtCs4u7P9VlF0C9_14thiserror_impl4attr11TransparentE7is_noneBL_, symObjAddr: 0x3128, symBinAddr: 0x52274, symSize: 0x28 }
  - { offset: 0x13A3C5, size: 0x8, addend: 0x0, symName: __RNvMNtCs85QQFkKrybG_4core6optionINtB2_6OptionNtNtCs4u7P9VlF0C9_14thiserror_impl4attr11TransparentE7is_someBL_, symObjAddr: 0x3150, symBinAddr: 0x5229C, symSize: 0x28 }
  - { offset: 0x13A3FE, size: 0x8, addend: 0x0, symName: __RNvMNtCs85QQFkKrybG_4core6optionINtB2_6OptionNtNtCs4u7P9VlF0C9_14thiserror_impl4attr7DisplayE6as_refBL_, symObjAddr: 0x3178, symBinAddr: 0x522C4, symSize: 0x50 }
  - { offset: 0x13A464, size: 0x8, addend: 0x0, symName: __RNvMNtCs85QQFkKrybG_4core6optionINtB2_6OptionNtNtCs4u7P9VlF0C9_14thiserror_impl4attr7DisplayE7is_noneBL_, symObjAddr: 0x31C8, symBinAddr: 0x52314, symSize: 0x2C }
  - { offset: 0x13A4AE, size: 0x8, addend: 0x0, symName: __RNvMNtCs85QQFkKrybG_4core6optionINtB2_6OptionNtNtCs4u7P9VlF0C9_14thiserror_impl4attr7DisplayE7is_someBL_, symObjAddr: 0x31F4, symBinAddr: 0x52340, symSize: 0x2C }
  - { offset: 0x13A4E7, size: 0x8, addend: 0x0, symName: __RNvMNtCs85QQFkKrybG_4core6optionINtB2_6OptionNtNtCscwCr4GBBztI_3syn3lit3LitE7is_someCs4u7P9VlF0C9_14thiserror_impl, symObjAddr: 0x3220, symBinAddr: 0x5236C, symSize: 0x30 }
  - { offset: 0x13A513, size: 0x8, addend: 0x0, symName: __RNvMNtCs85QQFkKrybG_4core6optionINtB2_6OptionRNtNtCs4u7P9VlF0C9_14thiserror_impl3ast5FieldE2orBM_, symObjAddr: 0x3250, symBinAddr: 0x5239C, symSize: 0x64 }
  - { offset: 0x13A579, size: 0x8, addend: 0x0, symName: __RNvMNtCs85QQFkKrybG_4core6optionINtB2_6OptionRNtNtCs4u7P9VlF0C9_14thiserror_impl3ast5FieldE7is_someBM_, symObjAddr: 0x32B4, symBinAddr: 0x52400, symSize: 0x28 }
  - { offset: 0x13A5B2, size: 0x8, addend: 0x0, symName: __RNvMNtCs85QQFkKrybG_4core6optionINtB2_6OptionRNtNtCscwCr4GBBztI_3syn2ty4TypeE7is_someCs4u7P9VlF0C9_14thiserror_impl, symObjAddr: 0x32DC, symBinAddr: 0x52428, symSize: 0x28 }
  - { offset: 0x13A5DE, size: 0x8, addend: 0x0, symName: __RNvMNtCs85QQFkKrybG_4core6optionINtB2_6OptionRNtNtCscwCr4GBBztI_3syn2ty4TypeE9unwrap_orCs4u7P9VlF0C9_14thiserror_impl, symObjAddr: 0x3304, symBinAddr: 0x52450, symSize: 0x4C }
  - { offset: 0x13A660, size: 0x8, addend: 0x0, symName: __RNvMNtCs85QQFkKrybG_4core6optionINtB2_6OptionRNtNtCscwCr4GBBztI_3syn4attr9AttributeE7is_noneCs4u7P9VlF0C9_14thiserror_impl, symObjAddr: 0x3350, symBinAddr: 0x5249C, symSize: 0x28 }
  - { offset: 0x13A6AA, size: 0x8, addend: 0x0, symName: __RNvMNtCs85QQFkKrybG_4core6optionINtB2_6OptionRNtNtCscwCr4GBBztI_3syn4attr9AttributeE7is_someCs4u7P9VlF0C9_14thiserror_impl, symObjAddr: 0x3378, symBinAddr: 0x524C4, symSize: 0x28 }
  - { offset: 0x13A6F0, size: 0x8, addend: 0x0, symName: __RNvMNtCs85QQFkKrybG_4core6optionINtB2_6OptionRNtNtCscwCr4GBBztI_3syn8generics9TypeParamE7is_someCs4u7P9VlF0C9_14thiserror_impl, symObjAddr: 0x33A0, symBinAddr: 0x524EC, symSize: 0x28 }
  - { offset: 0x13A88A, size: 0x8, addend: 0x0, symName: __RNvXNtCshi3DZH3dfhk_5quote9to_tokensRNtNtCscwCr4GBBztI_3syn3lit6LitStrNtB2_8ToTokens9to_tokensCs4u7P9VlF0C9_14thiserror_impl, symObjAddr: 0x3654, symBinAddr: 0x527A0, symSize: 0x40 }
  - { offset: 0x13A8C9, size: 0x8, addend: 0x0, symName: __RNvXNtCshi3DZH3dfhk_5quote9to_tokensRNtNtCscwCr4GBBztI_3syn6derive11DeriveInputNtB2_8ToTokens9to_tokensCs4u7P9VlF0C9_14thiserror_impl, symObjAddr: 0x3694, symBinAddr: 0x527E0, symSize: 0x40 }
  - { offset: 0x13A90E, size: 0x8, addend: 0x0, symName: __RNvXs3_NtCshi3DZH3dfhk_5quote9to_tokensINtNtCs85QQFkKrybG_4core6option6OptionNtCsfwj6t2KTYdc_11proc_macro211TokenStreamENtB5_8ToTokens9to_tokensCs4u7P9VlF0C9_14thiserror_impl, symObjAddr: 0x381C, symBinAddr: 0x52968, symSize: 0x84 }
  - { offset: 0x13A96A, size: 0x8, addend: 0x0, symName: __RNvXs3_NtCshi3DZH3dfhk_5quote9to_tokensINtNtCs85QQFkKrybG_4core6option6OptionRNtNtCscwCr4GBBztI_3syn4attr9AttributeENtB5_8ToTokens9to_tokensCs4u7P9VlF0C9_14thiserror_impl, symObjAddr: 0x38A0, symBinAddr: 0x529EC, symSize: 0x80 }
  - { offset: 0x13A9C6, size: 0x8, addend: 0x0, symName: __RNvXs3_NtCshi3DZH3dfhk_5quote9to_tokensINtNtCs85QQFkKrybG_4core6option6OptionRNtNtCscwCr4GBBztI_3syn8generics11WhereClauseENtB5_8ToTokens9to_tokensCs4u7P9VlF0C9_14thiserror_impl, symObjAddr: 0x3920, symBinAddr: 0x52A6C, symSize: 0x80 }
  - { offset: 0x13AA28, size: 0x8, addend: 0x0, symName: __RNvYINtNtCs85QQFkKrybG_4core6option6OptionRNtNtCscwCr4GBBztI_3syn4attr9AttributeENtNtCshi3DZH3dfhk_5quote9to_tokens8ToTokens15to_token_streamCs4u7P9VlF0C9_14thiserror_impl, symObjAddr: 0x47D4, symBinAddr: 0x53920, symSize: 0x8C }
  - { offset: 0x13AA72, size: 0x8, addend: 0x0, symName: __RNvYINtNtCs85QQFkKrybG_4core6option6OptionRNtNtCscwCr4GBBztI_3syn4attr9AttributeENtNtCshi3DZH3dfhk_5quote9to_tokens8ToTokens17into_token_streamCs4u7P9VlF0C9_14thiserror_impl, symObjAddr: 0x4860, symBinAddr: 0x539AC, symSize: 0x54 }
  - { offset: 0x13AAA7, size: 0x8, addend: 0x0, symName: __RNvYRNtNtCscwCr4GBBztI_3syn6derive11DeriveInputNtNtCshi3DZH3dfhk_5quote9to_tokens8ToTokens15to_token_streamCs4u7P9VlF0C9_14thiserror_impl, symObjAddr: 0x4F58, symBinAddr: 0x540A4, symSize: 0x8C }
  - { offset: 0x13AAF1, size: 0x8, addend: 0x0, symName: __RNvYRNtNtCscwCr4GBBztI_3syn6derive11DeriveInputNtNtCshi3DZH3dfhk_5quote9to_tokens8ToTokens17into_token_streamCs4u7P9VlF0C9_14thiserror_impl, symObjAddr: 0x4FE4, symBinAddr: 0x54130, symSize: 0x54 }
  - { offset: 0x13C1A6, size: 0x8, addend: 0x0, symName: __RINvXNvMNtCsdFlNUEO95cG_5alloc5sliceSp9to_vec_inNtNtCscwCr4GBBztI_3syn4item11ForeignItemNtB3_10ConvertVec6to_vecNtNtB8_5alloc6GlobalEBO_, symObjAddr: 0x0, symBinAddr: 0x54204, symSize: 0x3B4 }
  - { offset: 0x13E2C7, size: 0x8, addend: 0x0, symName: __RINvXNvMNtCsdFlNUEO95cG_5alloc5sliceSp9to_vec_inNtNtCscwCr4GBBztI_3syn4item11ForeignItemNtB3_10ConvertVec6to_vecNtNtB8_5alloc6GlobalEBO_, symObjAddr: 0x0, symBinAddr: 0x54204, symSize: 0x3B4 }
  - { offset: 0x13E805, size: 0x8, addend: 0x0, symName: __RINvXNvMNtCsdFlNUEO95cG_5alloc5sliceSp9to_vec_inNtNtCscwCr4GBBztI_3syn4item4ItemNtB3_10ConvertVec6to_vecNtNtB8_5alloc6GlobalEBO_, symObjAddr: 0x3B4, symBinAddr: 0x545B8, symSize: 0x3B4 }
  - { offset: 0x13ED43, size: 0x8, addend: 0x0, symName: __RINvXNvMNtCsdFlNUEO95cG_5alloc5sliceSp9to_vec_inNtNtCscwCr4GBBztI_3syn4item8ImplItemNtB3_10ConvertVec6to_vecNtNtB8_5alloc6GlobalEBO_, symObjAddr: 0x768, symBinAddr: 0x5496C, symSize: 0x3B4 }
  - { offset: 0x13F281, size: 0x8, addend: 0x0, symName: __RINvXNvMNtCsdFlNUEO95cG_5alloc5sliceSp9to_vec_inNtNtCscwCr4GBBztI_3syn4item9TraitItemNtB3_10ConvertVec6to_vecNtNtB8_5alloc6GlobalEBO_, symObjAddr: 0xB1C, symBinAddr: 0x54D20, symSize: 0x3B4 }
  - { offset: 0x13F7BF, size: 0x8, addend: 0x0, symName: __RINvXNvMNtCsdFlNUEO95cG_5alloc5sliceSp9to_vec_inTNtNtCscwCr4GBBztI_3syn4item5FnArgNtNtBP_5token5CommaENtB3_10ConvertVec6to_vecNtNtB8_5alloc6GlobalEBP_, symObjAddr: 0xED0, symBinAddr: 0x550D4, symSize: 0x3B0 }
  - { offset: 0x13FCFD, size: 0x8, addend: 0x0, symName: __RINvXNvMNtCsdFlNUEO95cG_5alloc5sliceSp9to_vec_inTNtNtCscwCr4GBBztI_3syn4item7UseTreeNtNtBP_5token5CommaENtB3_10ConvertVec6to_vecNtNtB8_5alloc6GlobalEBP_, symObjAddr: 0x1280, symBinAddr: 0x55484, symSize: 0x3B0 }
  - { offset: 0x1415A7, size: 0x8, addend: 0x0, symName: __RNcNtNtNtCscwCr4GBBztI_3syn4item11ForeignItem5Macro0B7_, symObjAddr: 0x1630, symBinAddr: 0x55834, symSize: 0x3C }
  - { offset: 0x1415DE, size: 0x8, addend: 0x0, symName: __RNcNtNtNtCscwCr4GBBztI_3syn4item16StaticMutability3Mut0B7_, symObjAddr: 0x166C, symBinAddr: 0x55870, symSize: 0x18 }
  - { offset: 0x141614, size: 0x8, addend: 0x0, symName: __RNcNtNtNtCscwCr4GBBztI_3syn4item4Item10ForeignMod0B7_, symObjAddr: 0x1684, symBinAddr: 0x55888, symSize: 0x3C }
  - { offset: 0x141643, size: 0x8, addend: 0x0, symName: __RNcNtNtNtCscwCr4GBBztI_3syn4item4Item10TraitAlias0B7_, symObjAddr: 0x16C0, symBinAddr: 0x558C4, symSize: 0x3C }
  - { offset: 0x141672, size: 0x8, addend: 0x0, symName: __RNcNtNtNtCscwCr4GBBztI_3syn4item4Item11ExternCrate0B7_, symObjAddr: 0x16FC, symBinAddr: 0x55900, symSize: 0x3C }
  - { offset: 0x1416A1, size: 0x8, addend: 0x0, symName: __RNcNtNtNtCscwCr4GBBztI_3syn4item4Item2Fn0B7_, symObjAddr: 0x1738, symBinAddr: 0x5593C, symSize: 0x30 }
  - { offset: 0x1416D0, size: 0x8, addend: 0x0, symName: __RNcNtNtNtCscwCr4GBBztI_3syn4item4Item3Mod0B7_, symObjAddr: 0x1768, symBinAddr: 0x5596C, symSize: 0x3C }
  - { offset: 0x1416FF, size: 0x8, addend: 0x0, symName: __RNcNtNtNtCscwCr4GBBztI_3syn4item4Item4Enum0B7_, symObjAddr: 0x17A4, symBinAddr: 0x559A8, symSize: 0x3C }
  - { offset: 0x14172E, size: 0x8, addend: 0x0, symName: __RNcNtNtNtCscwCr4GBBztI_3syn4item4Item5Macro0B7_, symObjAddr: 0x17E0, symBinAddr: 0x559E4, symSize: 0x3C }
  - { offset: 0x14175D, size: 0x8, addend: 0x0, symName: __RNcNtNtNtCscwCr4GBBztI_3syn4item4Item5Trait0B7_, symObjAddr: 0x181C, symBinAddr: 0x55A20, symSize: 0x3C }
  - { offset: 0x14178C, size: 0x8, addend: 0x0, symName: __RNcNtNtNtCscwCr4GBBztI_3syn4item4Item5Union0B7_, symObjAddr: 0x1858, symBinAddr: 0x55A5C, symSize: 0x3C }
  - { offset: 0x1417BB, size: 0x8, addend: 0x0, symName: __RNcNtNtNtCscwCr4GBBztI_3syn4item4Item6Struct0B7_, symObjAddr: 0x1894, symBinAddr: 0x55A98, symSize: 0x3C }
  - { offset: 0x1417F0, size: 0x8, addend: 0x0, symName: __RNcNtNtNtCscwCr4GBBztI_3syn4item8ImplItem5Macro0B7_, symObjAddr: 0x18D0, symBinAddr: 0x55AD4, symSize: 0x3C }
  - { offset: 0x141827, size: 0x8, addend: 0x0, symName: __RNcNtNtNtCscwCr4GBBztI_3syn4item9TraitItem2Fn0B7_, symObjAddr: 0x190C, symBinAddr: 0x55B10, symSize: 0x3C }
  - { offset: 0x141858, size: 0x8, addend: 0x0, symName: __RNcNtNtNtCscwCr4GBBztI_3syn4item9TraitItem5Macro0B7_, symObjAddr: 0x1948, symBinAddr: 0x55B4C, symSize: 0x3C }
  - { offset: 0x14188F, size: 0x8, addend: 0x0, symName: __RNvXNtNtCscwCr4GBBztI_3syn4item7parsingNtB4_4ItemNtNtB6_5parse5Parse5parse, symObjAddr: 0x2074, symBinAddr: 0x56110, symSize: 0x1B4 }
  - { offset: 0x141935, size: 0x8, addend: 0x0, symName: __RNvXs0_NtNtCscwCr4GBBztI_3syn4item7parsingNtB7_9ItemMacroNtNtB9_5parse5Parse5parse, symObjAddr: 0x2334, symBinAddr: 0x563D0, symSize: 0x620 }
  - { offset: 0x141B03, size: 0x8, addend: 0x0, symName: __RNvXs1_NtNtCscwCr4GBBztI_3syn4item7parsingNtB7_15ItemExternCrateNtNtB9_5parse5Parse5parse, symObjAddr: 0x3270, symBinAddr: 0x5730C, symSize: 0x93C }
  - { offset: 0x141D0D, size: 0x8, addend: 0x0, symName: __RNvXs3_NtNtCscwCr4GBBztI_3syn4item7parsingNtB7_7UseTreeNtNtB9_5parse5Parse5parse, symObjAddr: 0x7ACC, symBinAddr: 0x5BB04, symSize: 0x58 }
  - { offset: 0x141D5F, size: 0x8, addend: 0x0, symName: __RNvXs6_NtNtCscwCr4GBBztI_3syn4item7parsingNtB7_9SignatureNtNtB9_5parse5Parse5parse, symObjAddr: 0x934C, symBinAddr: 0x5BDC4, symSize: 0x60 }
  - { offset: 0x141DB1, size: 0x8, addend: 0x0, symName: __RNvXs9_NtNtCscwCr4GBBztI_3syn4item7parsingNtB7_8ReceiverNtNtB9_5parse5Parse5parse, symObjAddr: 0x9DA8, symBinAddr: 0x5C118, symSize: 0x93C }
  - { offset: 0x142012, size: 0x8, addend: 0x0, symName: __RNvXsa_NtNtCscwCr4GBBztI_3syn4item7parsingNtB7_7ItemModNtNtB9_5parse5Parse5parse, symObjAddr: 0xB19C, symBinAddr: 0x5CEE4, symSize: 0xC34 }
  - { offset: 0x142275, size: 0x8, addend: 0x0, symName: __RNvXsb_NtNtCscwCr4GBBztI_3syn4item7parsingNtB7_14ItemForeignModNtNtB9_5parse5Parse5parse, symObjAddr: 0xBEF0, symBinAddr: 0x5DBEC, symSize: 0x610 }
  - { offset: 0x142426, size: 0x8, addend: 0x0, symName: __RNvXsc_NtNtCscwCr4GBBztI_3syn4item7parsingNtB7_11ForeignItemNtNtB9_5parse5Parse5parse, symObjAddr: 0xC694, symBinAddr: 0x5E344, symSize: 0x1D8C }
  - { offset: 0x142A96, size: 0x8, addend: 0x0, symName: __RNvXsg_NtNtCscwCr4GBBztI_3syn4item7parsingNtB7_16ForeignItemMacroNtNtB9_5parse5Parse5parse, symObjAddr: 0xFAB4, symBinAddr: 0x6030C, symSize: 0x32C }
  - { offset: 0x142BAA, size: 0x8, addend: 0x0, symName: __RNvXsi_NtNtCscwCr4GBBztI_3syn4item7parsingNtB7_10ItemStructNtNtB9_5parse5Parse5parse, symObjAddr: 0x108D0, symBinAddr: 0x606B8, symSize: 0x638 }
  - { offset: 0x142DA7, size: 0x8, addend: 0x0, symName: __RNvXsj_NtNtCscwCr4GBBztI_3syn4item7parsingNtB7_8ItemEnumNtNtB9_5parse5Parse5parse, symObjAddr: 0x11060, symBinAddr: 0x60DFC, symSize: 0x63C }
  - { offset: 0x142FA4, size: 0x8, addend: 0x0, symName: __RNvXsk_NtNtCscwCr4GBBztI_3syn4item7parsingNtB7_9ItemUnionNtNtB9_5parse5Parse5parse, symObjAddr: 0x119A0, symBinAddr: 0x6173C, symSize: 0x62C }
  - { offset: 0x143190, size: 0x8, addend: 0x0, symName: __RNvXsl_NtNtCscwCr4GBBztI_3syn4item7parsingNtB7_9ItemTraitNtNtB9_5parse5Parse5parse, symObjAddr: 0x12178, symBinAddr: 0x61ECC, symSize: 0x634 }
  - { offset: 0x143397, size: 0x8, addend: 0x0, symName: __RNvXsn_NtNtCscwCr4GBBztI_3syn4item7parsingNtB7_9TraitItemNtNtB9_5parse5Parse5parse, symObjAddr: 0x12BF0, symBinAddr: 0x62658, symSize: 0x1648 }
  - { offset: 0x14380B, size: 0x8, addend: 0x0, symName: __RNvXsp_NtNtCscwCr4GBBztI_3syn4item7parsingNtB7_11TraitItemFnNtNtB9_5parse5Parse5parse, symObjAddr: 0x14CB0, symBinAddr: 0x63E1C, symSize: 0x7DC }
  - { offset: 0x143A17, size: 0x8, addend: 0x0, symName: __RNvXsr_NtNtCscwCr4GBBztI_3syn4item7parsingNtB7_14TraitItemMacroNtNtB9_5parse5Parse5parse, symObjAddr: 0x15DF4, symBinAddr: 0x647FC, symSize: 0x32C }
  - { offset: 0x143B2B, size: 0x8, addend: 0x0, symName: __RNvXst_NtNtCscwCr4GBBztI_3syn4item7parsingNtB7_8ImplItemNtNtB9_5parse5Parse5parse, symObjAddr: 0x16390, symBinAddr: 0x64CA0, symSize: 0x1A04 }
  - { offset: 0x144026, size: 0x8, addend: 0x0, symName: __RNvXsx_NtNtCscwCr4GBBztI_3syn4item7parsingNtB7_13ImplItemMacroNtNtB9_5parse5Parse5parse, symObjAddr: 0x19868, symBinAddr: 0x66E30, symSize: 0x32C }
  - { offset: 0x14413A, size: 0x8, addend: 0x0, symName: __RNvXsz_NtNtCscwCr4GBBztI_3syn4item7parsingNtB7_16StaticMutabilityNtNtB9_5parse5Parse5parse, symObjAddr: 0x19CB0, symBinAddr: 0x671E0, symSize: 0xD4 }
  - { offset: 0x1441B0, size: 0x8, addend: 0x0, symName: __RNvXNtNtCscwCr4GBBztI_3syn4item8printingNtB4_15ItemExternCrateNtNtCshi3DZH3dfhk_5quote9to_tokens8ToTokens9to_tokens, symObjAddr: 0x2228, symBinAddr: 0x562C4, symSize: 0x10C }
  - { offset: 0x14421D, size: 0x8, addend: 0x0, symName: __RNvXs0_NtNtCscwCr4GBBztI_3syn4item8printingNtB7_10ItemStaticNtNtCshi3DZH3dfhk_5quote9to_tokens8ToTokens9to_tokens, symObjAddr: 0x2954, symBinAddr: 0x569F0, symSize: 0xE4 }
  - { offset: 0x14425C, size: 0x8, addend: 0x0, symName: __RNvXs1_NtNtCscwCr4GBBztI_3syn4item8printingNtB7_9ItemConstNtNtCshi3DZH3dfhk_5quote9to_tokens8ToTokens9to_tokens, symObjAddr: 0x3BAC, symBinAddr: 0x57C48, symSize: 0xD4 }
  - { offset: 0x14429B, size: 0x8, addend: 0x0, symName: __RNvXs2_NtNtCscwCr4GBBztI_3syn4item8printingNtB7_6ItemFnNtNtCshi3DZH3dfhk_5quote9to_tokens8ToTokens9to_tokens, symObjAddr: 0x6D20, symBinAddr: 0x5AD58, symSize: 0xDC }
  - { offset: 0x1442DA, size: 0x8, addend: 0x0, symName: __RNvXs3_NtNtCscwCr4GBBztI_3syn4item8printingNtB7_7ItemModNtNtCshi3DZH3dfhk_5quote9to_tokens8ToTokens9to_tokens, symObjAddr: 0x7B24, symBinAddr: 0x5BB5C, symSize: 0x10C }
  - { offset: 0x144347, size: 0x8, addend: 0x0, symName: __RNvXs4_NtNtCscwCr4GBBztI_3syn4item8printingNtB7_14ItemForeignModNtNtCshi3DZH3dfhk_5quote9to_tokens8ToTokens9to_tokens, symObjAddr: 0x8700, symBinAddr: 0x5BC68, symSize: 0x88 }
  - { offset: 0x144386, size: 0x8, addend: 0x0, symName: __RNvXs5_NtNtCscwCr4GBBztI_3syn4item8printingNtB7_8ItemTypeNtNtCshi3DZH3dfhk_5quote9to_tokens8ToTokens9to_tokens, symObjAddr: 0x922C, symBinAddr: 0x5BCF0, symSize: 0xD4 }
  - { offset: 0x1443C5, size: 0x8, addend: 0x0, symName: __RNvXs6_NtNtCscwCr4GBBztI_3syn4item8printingNtB7_8ItemEnumNtNtCshi3DZH3dfhk_5quote9to_tokens8ToTokens9to_tokens, symObjAddr: 0x93AC, symBinAddr: 0x5BE24, symSize: 0xB8 }
  - { offset: 0x144404, size: 0x8, addend: 0x0, symName: __RNvXs7_NtNtCscwCr4GBBztI_3syn4item8printingNtB7_10ItemStructNtNtCshi3DZH3dfhk_5quote9to_tokens8ToTokens9to_tokens, symObjAddr: 0x9814, symBinAddr: 0x5BEDC, symSize: 0x188 }
  - { offset: 0x14447F, size: 0x8, addend: 0x0, symName: __RNvXs8_NtNtCscwCr4GBBztI_3syn4item8printingNtB7_9ItemUnionNtNtCshi3DZH3dfhk_5quote9to_tokens8ToTokens9to_tokens, symObjAddr: 0x9CA8, symBinAddr: 0x5C064, symSize: 0xB4 }
  - { offset: 0x1444BE, size: 0x8, addend: 0x0, symName: __RNvXs9_NtNtCscwCr4GBBztI_3syn4item8printingNtB7_9ItemTraitNtNtCshi3DZH3dfhk_5quote9to_tokens8ToTokens9to_tokens, symObjAddr: 0xA6E4, symBinAddr: 0x5CA54, symSize: 0x130 }
  - { offset: 0x1444FD, size: 0x8, addend: 0x0, symName: __RNvXs_NtNtCscwCr4GBBztI_3syn4item8printingNtB6_7ItemUseNtNtCshi3DZH3dfhk_5quote9to_tokens8ToTokens9to_tokens, symObjAddr: 0xB0AC, symBinAddr: 0x5CE40, symSize: 0xA4 }
  - { offset: 0x14453C, size: 0x8, addend: 0x0, symName: __RNvXsa_NtNtCscwCr4GBBztI_3syn4item8printingNtB7_14ItemTraitAliasNtNtCshi3DZH3dfhk_5quote9to_tokens8ToTokens9to_tokens, symObjAddr: 0xBDD0, symBinAddr: 0x5DB18, symSize: 0xD4 }
  - { offset: 0x14457B, size: 0x8, addend: 0x0, symName: __RNvXsb_NtNtCscwCr4GBBztI_3syn4item8printingNtB7_8ItemImplNtNtCshi3DZH3dfhk_5quote9to_tokens8ToTokens9to_tokens, symObjAddr: 0xC500, symBinAddr: 0x5E1FC, symSize: 0x148 }
  - { offset: 0x1445F8, size: 0x8, addend: 0x0, symName: __RNvXsc_NtNtCscwCr4GBBztI_3syn4item8printingNtB7_9ItemMacroNtNtCshi3DZH3dfhk_5quote9to_tokens8ToTokens9to_tokens, symObjAddr: 0xE420, symBinAddr: 0x600D0, symSize: 0x140 }
  - { offset: 0x144689, size: 0x8, addend: 0x0, symName: __RNvXsd_NtNtCscwCr4GBBztI_3syn4item8printingNtB7_7UsePathNtNtCshi3DZH3dfhk_5quote9to_tokens8ToTokens9to_tokens, symObjAddr: 0xE95C, symBinAddr: 0x60210, symSize: 0x60 }
  - { offset: 0x1446C8, size: 0x8, addend: 0x0, symName: __RNvXse_NtNtCscwCr4GBBztI_3syn4item8printingNtB7_7UseNameNtNtCshi3DZH3dfhk_5quote9to_tokens8ToTokens9to_tokens, symObjAddr: 0xF240, symBinAddr: 0x60270, symSize: 0x3C }
  - { offset: 0x144707, size: 0x8, addend: 0x0, symName: __RNvXsf_NtNtCscwCr4GBBztI_3syn4item8printingNtB7_9UseRenameNtNtCshi3DZH3dfhk_5quote9to_tokens8ToTokens9to_tokens, symObjAddr: 0xFA08, symBinAddr: 0x602AC, symSize: 0x60 }
  - { offset: 0x144746, size: 0x8, addend: 0x0, symName: __RNvXsg_NtNtCscwCr4GBBztI_3syn4item8printingNtB7_7UseGlobNtNtCshi3DZH3dfhk_5quote9to_tokens8ToTokens9to_tokens, symObjAddr: 0xFDE0, symBinAddr: 0x60638, symSize: 0x3C }
  - { offset: 0x144785, size: 0x8, addend: 0x0, symName: __RNvXsh_NtNtCscwCr4GBBztI_3syn4item8printingNtB7_8UseGroupNtNtCshi3DZH3dfhk_5quote9to_tokens8ToTokens9to_tokens, symObjAddr: 0x10840, symBinAddr: 0x60674, symSize: 0x44 }
  - { offset: 0x1447C4, size: 0x8, addend: 0x0, symName: __RNvXsi_NtNtCscwCr4GBBztI_3syn4item8printingNtB7_14TraitItemConstNtNtCshi3DZH3dfhk_5quote9to_tokens8ToTokens9to_tokens, symObjAddr: 0x10F08, symBinAddr: 0x60CF0, symSize: 0x10C }
  - { offset: 0x144831, size: 0x8, addend: 0x0, symName: __RNvXsj_NtNtCscwCr4GBBztI_3syn4item8printingNtB7_11TraitItemFnNtNtCshi3DZH3dfhk_5quote9to_tokens8ToTokens9to_tokens, symObjAddr: 0x1169C, symBinAddr: 0x61438, symSize: 0xD4 }
  - { offset: 0x14488E, size: 0x8, addend: 0x0, symName: __RNvXsk_NtNtCscwCr4GBBztI_3syn4item8printingNtB7_13TraitItemTypeNtNtCshi3DZH3dfhk_5quote9to_tokens8ToTokens9to_tokens, symObjAddr: 0x11FCC, symBinAddr: 0x61D68, symSize: 0x164 }
  - { offset: 0x1448FB, size: 0x8, addend: 0x0, symName: __RNvXsl_NtNtCscwCr4GBBztI_3syn4item8printingNtB7_14TraitItemMacroNtNtCshi3DZH3dfhk_5quote9to_tokens8ToTokens9to_tokens, symObjAddr: 0x127AC, symBinAddr: 0x62500, symSize: 0x74 }
  - { offset: 0x14493A, size: 0x8, addend: 0x0, symName: __RNvXsm_NtNtCscwCr4GBBztI_3syn4item8printingNtB7_13ImplItemConstNtNtCshi3DZH3dfhk_5quote9to_tokens8ToTokens9to_tokens, symObjAddr: 0x12AC0, symBinAddr: 0x62574, symSize: 0xE4 }
  - { offset: 0x144979, size: 0x8, addend: 0x0, symName: __RNvXsn_NtNtCscwCr4GBBztI_3syn4item8printingNtB7_10ImplItemFnNtNtCshi3DZH3dfhk_5quote9to_tokens8ToTokens9to_tokens, symObjAddr: 0x14238, symBinAddr: 0x63CA0, symSize: 0x98 }
  - { offset: 0x1449B8, size: 0x8, addend: 0x0, symName: __RNvXso_NtNtCscwCr4GBBztI_3syn4item8printingNtB7_12ImplItemTypeNtNtCshi3DZH3dfhk_5quote9to_tokens8ToTokens9to_tokens, symObjAddr: 0x14B80, symBinAddr: 0x63D38, symSize: 0xE4 }
  - { offset: 0x1449F7, size: 0x8, addend: 0x0, symName: __RNvXsp_NtNtCscwCr4GBBztI_3syn4item8printingNtB7_13ImplItemMacroNtNtCshi3DZH3dfhk_5quote9to_tokens8ToTokens9to_tokens, symObjAddr: 0x1548C, symBinAddr: 0x645F8, symSize: 0x74 }
  - { offset: 0x144A36, size: 0x8, addend: 0x0, symName: __RNvXsq_NtNtCscwCr4GBBztI_3syn4item8printingNtB7_13ForeignItemFnNtNtCshi3DZH3dfhk_5quote9to_tokens8ToTokens9to_tokens, symObjAddr: 0x15D30, symBinAddr: 0x64778, symSize: 0x84 }
  - { offset: 0x144A75, size: 0x8, addend: 0x0, symName: __RNvXsr_NtNtCscwCr4GBBztI_3syn4item8printingNtB7_17ForeignItemStaticNtNtCshi3DZH3dfhk_5quote9to_tokens8ToTokens9to_tokens, symObjAddr: 0x16120, symBinAddr: 0x64B28, symSize: 0xC4 }
  - { offset: 0x144AB4, size: 0x8, addend: 0x0, symName: __RNvXss_NtNtCscwCr4GBBztI_3syn4item8printingNtB7_15ForeignItemTypeNtNtCshi3DZH3dfhk_5quote9to_tokens8ToTokens9to_tokens, symObjAddr: 0x16290, symBinAddr: 0x64BEC, symSize: 0xB4 }
  - { offset: 0x144AF3, size: 0x8, addend: 0x0, symName: __RNvXst_NtNtCscwCr4GBBztI_3syn4item8printingNtB7_16ForeignItemMacroNtNtCshi3DZH3dfhk_5quote9to_tokens8ToTokens9to_tokens, symObjAddr: 0x17D94, symBinAddr: 0x666A4, symSize: 0x74 }
  - { offset: 0x144B32, size: 0x8, addend: 0x0, symName: __RNvXsu_NtNtCscwCr4GBBztI_3syn4item8printingNtB7_9SignatureNtNtCshi3DZH3dfhk_5quote9to_tokens8ToTokens9to_tokens, symObjAddr: 0x18824, symBinAddr: 0x66718, symSize: 0xD4 }
  - { offset: 0x144B71, size: 0x8, addend: 0x0, symName: __RNvXsv_NtNtCscwCr4GBBztI_3syn4item8printingNtB7_8ReceiverNtNtCshi3DZH3dfhk_5quote9to_tokens8ToTokens9to_tokens, symObjAddr: 0x18A70, symBinAddr: 0x66904, symSize: 0x450 }
  - { offset: 0x144C69, size: 0x8, addend: 0x0, symName: __RNvXsw_NtNtCscwCr4GBBztI_3syn4item8printingNtB7_8VariadicNtNtCshi3DZH3dfhk_5quote9to_tokens8ToTokens9to_tokens, symObjAddr: 0x19740, symBinAddr: 0x66D54, symSize: 0xDC }
  - { offset: 0x144CD6, size: 0x8, addend: 0x0, symName: __RNvXsx_NtNtCscwCr4GBBztI_3syn4item8printingNtB7_16StaticMutabilityNtNtCshi3DZH3dfhk_5quote9to_tokens8ToTokens9to_tokens, symObjAddr: 0x19B94, symBinAddr: 0x6715C, symSize: 0x84 }
  - { offset: 0x144D34, size: 0x8, addend: 0x0, symName: __RNvXsA_NtCscwCr4GBBztI_3syn4itemNtB5_9TraitItemNtNtCshi3DZH3dfhk_5quote9to_tokens8ToTokens9to_tokens, symObjAddr: 0xA814, symBinAddr: 0x5CB84, symSize: 0x118 }
  - { offset: 0x144E01, size: 0x8, addend: 0x0, symName: __RNvXsF_NtCscwCr4GBBztI_3syn4itemNtB5_8ImplItemNtNtCshi3DZH3dfhk_5quote9to_tokens8ToTokens9to_tokens, symObjAddr: 0xAA50, symBinAddr: 0x5CC9C, symSize: 0x118 }
  - { offset: 0x144ECE, size: 0x8, addend: 0x0, symName: __RNvXsI_NtCscwCr4GBBztI_3syn4itemNtB5_5FnArgNtNtCshi3DZH3dfhk_5quote9to_tokens8ToTokens9to_tokens, symObjAddr: 0xABF4, symBinAddr: 0x5CDB4, symSize: 0x8C }
  - { offset: 0x144F44, size: 0x8, addend: 0x0, symName: __RNvXsk_NtCscwCr4GBBztI_3syn4itemNtB5_4ItemNtNtCshi3DZH3dfhk_5quote9to_tokens8ToTokens9to_tokens, symObjAddr: 0x11770, symBinAddr: 0x6150C, symSize: 0x230 }
  - { offset: 0x145156, size: 0x8, addend: 0x0, symName: __RNvXsq_NtCscwCr4GBBztI_3syn4itemNtB5_7UseTreeNtNtCshi3DZH3dfhk_5quote9to_tokens8ToTokens9to_tokens, symObjAddr: 0x15500, symBinAddr: 0x6466C, symSize: 0x10C }
  - { offset: 0x145223, size: 0x8, addend: 0x0, symName: __RNvXsv_NtCscwCr4GBBztI_3syn4itemNtB5_11ForeignItemNtNtCshi3DZH3dfhk_5quote9to_tokens8ToTokens9to_tokens, symObjAddr: 0x188F8, symBinAddr: 0x667EC, symSize: 0x118 }
  - { offset: 0x148D6D, size: 0x8, addend: 0x0, symName: __RNvXs16_NtNtCscwCr4GBBztI_3syn3gen5cloneNtNtBa_4item5FnArgNtNtCs85QQFkKrybG_4core5clone5Clone5clone, symObjAddr: 0x2A38, symBinAddr: 0x56AD4, symSize: 0xDC }
  - { offset: 0x148DD5, size: 0x8, addend: 0x0, symName: __RNvXs17_NtNtCscwCr4GBBztI_3syn3gen5cloneNtNtBa_4item11ForeignItemNtNtCs85QQFkKrybG_4core5clone5Clone5clone, symObjAddr: 0x2B14, symBinAddr: 0x56BB0, symSize: 0x224 }
  - { offset: 0x148E97, size: 0x8, addend: 0x0, symName: __RNvXs18_NtNtCscwCr4GBBztI_3syn3gen5cloneNtNtBa_4item13ForeignItemFnNtNtCs85QQFkKrybG_4core5clone5Clone5clone, symObjAddr: 0x2D38, symBinAddr: 0x56DD4, symSize: 0x13C }
  - { offset: 0x148ECB, size: 0x8, addend: 0x0, symName: __RNvXs19_NtNtCscwCr4GBBztI_3syn3gen5cloneNtNtBa_4item16ForeignItemMacroNtNtCs85QQFkKrybG_4core5clone5Clone5clone, symObjAddr: 0x2E74, symBinAddr: 0x56F10, symSize: 0xF4 }
  - { offset: 0x148EFF, size: 0x8, addend: 0x0, symName: __RNvXs1A_NtNtCscwCr4GBBztI_3syn3gen5cloneNtNtBa_4item9ItemUnionNtNtCs85QQFkKrybG_4core5clone5Clone5clone, symObjAddr: 0x2F68, symBinAddr: 0x57004, symSize: 0x194 }
  - { offset: 0x148F33, size: 0x8, addend: 0x0, symName: __RNvXs1B_NtNtCscwCr4GBBztI_3syn3gen5cloneNtNtBa_4item7ItemUseNtNtCs85QQFkKrybG_4core5clone5Clone5clone, symObjAddr: 0x30FC, symBinAddr: 0x57198, symSize: 0x174 }
  - { offset: 0x148F67, size: 0x8, addend: 0x0, symName: __RNvXs1a_NtNtCscwCr4GBBztI_3syn3gen5cloneNtNtBa_4item17ForeignItemStaticNtNtCs85QQFkKrybG_4core5clone5Clone5clone, symObjAddr: 0x3C80, symBinAddr: 0x57D1C, symSize: 0x1DC }
  - { offset: 0x148F9B, size: 0x8, addend: 0x0, symName: __RNvXs1b_NtNtCscwCr4GBBztI_3syn3gen5cloneNtNtBa_4item15ForeignItemTypeNtNtCs85QQFkKrybG_4core5clone5Clone5clone, symObjAddr: 0x3E5C, symBinAddr: 0x57EF8, symSize: 0x198 }
  - { offset: 0x148FCF, size: 0x8, addend: 0x0, symName: __RNvXs1f_NtNtCscwCr4GBBztI_3syn3gen5cloneNtNtBa_4item8ImplItemNtNtCs85QQFkKrybG_4core5clone5Clone5clone, symObjAddr: 0x3FF4, symBinAddr: 0x58090, symSize: 0x21C }
  - { offset: 0x149091, size: 0x8, addend: 0x0, symName: __RNvXs1g_NtNtCscwCr4GBBztI_3syn3gen5cloneNtNtBa_4item13ImplItemConstNtNtCs85QQFkKrybG_4core5clone5Clone5clone, symObjAddr: 0x4210, symBinAddr: 0x582AC, symSize: 0x2AC }
  - { offset: 0x1490C5, size: 0x8, addend: 0x0, symName: __RNvXs1h_NtNtCscwCr4GBBztI_3syn3gen5cloneNtNtBa_4item10ImplItemFnNtNtCs85QQFkKrybG_4core5clone5Clone5clone, symObjAddr: 0x44BC, symBinAddr: 0x58558, symSize: 0x160 }
  - { offset: 0x1490F9, size: 0x8, addend: 0x0, symName: __RNvXs1i_NtNtCscwCr4GBBztI_3syn3gen5cloneNtNtBa_4item13ImplItemMacroNtNtCs85QQFkKrybG_4core5clone5Clone5clone, symObjAddr: 0x461C, symBinAddr: 0x586B8, symSize: 0xF4 }
  - { offset: 0x14912D, size: 0x8, addend: 0x0, symName: __RNvXs1j_NtNtCscwCr4GBBztI_3syn3gen5cloneNtNtBa_4item12ImplItemTypeNtNtCs85QQFkKrybG_4core5clone5Clone5clone, symObjAddr: 0x4710, symBinAddr: 0x587AC, symSize: 0x238 }
  - { offset: 0x149161, size: 0x8, addend: 0x0, symName: __RNvXs1m_NtNtCscwCr4GBBztI_3syn3gen5cloneNtNtBa_4item4ItemNtNtCs85QQFkKrybG_4core5clone5Clone5clone, symObjAddr: 0x4954, symBinAddr: 0x589E4, symSize: 0x5D0 }
  - { offset: 0x149378, size: 0x8, addend: 0x0, symName: __RNvXs1n_NtNtCscwCr4GBBztI_3syn3gen5cloneNtNtBa_4item9ItemConstNtNtCs85QQFkKrybG_4core5clone5Clone5clone, symObjAddr: 0x4F24, symBinAddr: 0x58FB4, symSize: 0x270 }
  - { offset: 0x1493AC, size: 0x8, addend: 0x0, symName: __RNvXs1o_NtNtCscwCr4GBBztI_3syn3gen5cloneNtNtBa_4item8ItemEnumNtNtCs85QQFkKrybG_4core5clone5Clone5clone, symObjAddr: 0x5194, symBinAddr: 0x59224, symSize: 0x1C0 }
  - { offset: 0x1493E0, size: 0x8, addend: 0x0, symName: __RNvXs1p_NtNtCscwCr4GBBztI_3syn3gen5cloneNtNtBa_4item15ItemExternCrateNtNtCs85QQFkKrybG_4core5clone5Clone5clone, symObjAddr: 0x5354, symBinAddr: 0x593E4, symSize: 0x1A4 }
  - { offset: 0x149414, size: 0x8, addend: 0x0, symName: __RNvXs1q_NtNtCscwCr4GBBztI_3syn3gen5cloneNtNtBa_4item6ItemFnNtNtCs85QQFkKrybG_4core5clone5Clone5clone, symObjAddr: 0x54F8, symBinAddr: 0x59588, symSize: 0x12C }
  - { offset: 0x149448, size: 0x8, addend: 0x0, symName: __RNvXs1r_NtNtCscwCr4GBBztI_3syn3gen5cloneNtNtBa_4item14ItemForeignModNtNtCs85QQFkKrybG_4core5clone5Clone5clone, symObjAddr: 0x5624, symBinAddr: 0x596B4, symSize: 0x14C }
  - { offset: 0x14947C, size: 0x8, addend: 0x0, symName: __RNvXs1s_NtNtCscwCr4GBBztI_3syn3gen5cloneNtNtBa_4item8ItemImplNtNtCs85QQFkKrybG_4core5clone5Clone5clone, symObjAddr: 0x5770, symBinAddr: 0x59800, symSize: 0x220 }
  - { offset: 0x1494B0, size: 0x8, addend: 0x0, symName: __RNvXs1t_NtNtCscwCr4GBBztI_3syn3gen5cloneNtNtBa_4item9ItemMacroNtNtCs85QQFkKrybG_4core5clone5Clone5clone, symObjAddr: 0x5990, symBinAddr: 0x59A20, symSize: 0x134 }
  - { offset: 0x1494E4, size: 0x8, addend: 0x0, symName: __RNvXs1u_NtNtCscwCr4GBBztI_3syn3gen5cloneNtNtBa_4item7ItemModNtNtCs85QQFkKrybG_4core5clone5Clone5clone, symObjAddr: 0x5AC4, symBinAddr: 0x59B54, symSize: 0x1B8 }
  - { offset: 0x149518, size: 0x8, addend: 0x0, symName: __RNvXs1v_NtNtCscwCr4GBBztI_3syn3gen5cloneNtNtBa_4item10ItemStaticNtNtCs85QQFkKrybG_4core5clone5Clone5clone, symObjAddr: 0x5C7C, symBinAddr: 0x59D0C, symSize: 0x248 }
  - { offset: 0x14954C, size: 0x8, addend: 0x0, symName: __RNvXs1w_NtNtCscwCr4GBBztI_3syn3gen5cloneNtNtBa_4item10ItemStructNtNtCs85QQFkKrybG_4core5clone5Clone5clone, symObjAddr: 0x5EC4, symBinAddr: 0x59F54, symSize: 0x1DC }
  - { offset: 0x149580, size: 0x8, addend: 0x0, symName: __RNvXs1x_NtNtCscwCr4GBBztI_3syn3gen5cloneNtNtBa_4item9ItemTraitNtNtCs85QQFkKrybG_4core5clone5Clone5clone, symObjAddr: 0x60A0, symBinAddr: 0x5A130, symSize: 0x288 }
  - { offset: 0x1495B4, size: 0x8, addend: 0x0, symName: __RNvXs1y_NtNtCscwCr4GBBztI_3syn3gen5cloneNtNtBa_4item14ItemTraitAliasNtNtCs85QQFkKrybG_4core5clone5Clone5clone, symObjAddr: 0x6328, symBinAddr: 0x5A3B8, symSize: 0x204 }
  - { offset: 0x1495E8, size: 0x8, addend: 0x0, symName: __RNvXs1z_NtNtCscwCr4GBBztI_3syn3gen5cloneNtNtBa_4item8ItemTypeNtNtCs85QQFkKrybG_4core5clone5Clone5clone, symObjAddr: 0x652C, symBinAddr: 0x5A5BC, symSize: 0x204 }
  - { offset: 0x14961C, size: 0x8, addend: 0x0, symName: __RNvXs2I_NtNtCscwCr4GBBztI_3syn3gen5cloneNtNtBa_4item7UseGlobNtNtCs85QQFkKrybG_4core5clone5Clone5clone, symObjAddr: 0x6730, symBinAddr: 0x5A7C0, symSize: 0x4C }
  - { offset: 0x149650, size: 0x8, addend: 0x0, symName: __RNvXs2J_NtNtCscwCr4GBBztI_3syn3gen5cloneNtNtBa_4item8UseGroupNtNtCs85QQFkKrybG_4core5clone5Clone5clone, symObjAddr: 0x677C, symBinAddr: 0x5A80C, symSize: 0x70 }
  - { offset: 0x149684, size: 0x8, addend: 0x0, symName: __RNvXs2K_NtNtCscwCr4GBBztI_3syn3gen5cloneNtNtBa_4item7UseNameNtNtCs85QQFkKrybG_4core5clone5Clone5clone, symObjAddr: 0x67EC, symBinAddr: 0x5A87C, symSize: 0x50 }
  - { offset: 0x1496B8, size: 0x8, addend: 0x0, symName: __RNvXs2L_NtNtCscwCr4GBBztI_3syn3gen5cloneNtNtBa_4item7UsePathNtNtCs85QQFkKrybG_4core5clone5Clone5clone, symObjAddr: 0x683C, symBinAddr: 0x5A8CC, symSize: 0xC0 }
  - { offset: 0x1496EC, size: 0x8, addend: 0x0, symName: __RNvXs2M_NtNtCscwCr4GBBztI_3syn3gen5cloneNtNtBa_4item9UseRenameNtNtCs85QQFkKrybG_4core5clone5Clone5clone, symObjAddr: 0x68FC, symBinAddr: 0x5A98C, symSize: 0xB8 }
  - { offset: 0x149720, size: 0x8, addend: 0x0, symName: __RNvXs2N_NtNtCscwCr4GBBztI_3syn3gen5cloneNtNtBa_4item7UseTreeNtNtCs85QQFkKrybG_4core5clone5Clone5clone, symObjAddr: 0x69B4, symBinAddr: 0x5AA44, symSize: 0x20C }
  - { offset: 0x1497E3, size: 0x8, addend: 0x0, symName: __RNvXs2O_NtNtCscwCr4GBBztI_3syn3gen5cloneNtNtBa_4item8VariadicNtNtCs85QQFkKrybG_4core5clone5Clone5clone, symObjAddr: 0x6BC0, symBinAddr: 0x5AC50, symSize: 0x108 }
  - { offset: 0x149817, size: 0x8, addend: 0x0, symName: __RNvXs2b_NtNtCscwCr4GBBztI_3syn3gen5cloneNtNtBa_4item8ReceiverNtNtCs85QQFkKrybG_4core5clone5Clone5clone, symObjAddr: 0x6DFC, symBinAddr: 0x5AE34, symSize: 0x154 }
  - { offset: 0x14984B, size: 0x8, addend: 0x0, symName: __RNvXs2d_NtNtCscwCr4GBBztI_3syn3gen5cloneNtNtBa_4item9SignatureNtNtCs85QQFkKrybG_4core5clone5Clone5clone, symObjAddr: 0x6F50, symBinAddr: 0x5AF88, symSize: 0x278 }
  - { offset: 0x14987F, size: 0x8, addend: 0x0, symName: __RNvXs2e_NtNtCscwCr4GBBztI_3syn3gen5cloneNtNtBa_4item16StaticMutabilityNtNtCs85QQFkKrybG_4core5clone5Clone5clone, symObjAddr: 0x71C8, symBinAddr: 0x5B200, symSize: 0x90 }
  - { offset: 0x1498D1, size: 0x8, addend: 0x0, symName: __RNvXs2k_NtNtCscwCr4GBBztI_3syn3gen5cloneNtNtBa_4item9TraitItemNtNtCs85QQFkKrybG_4core5clone5Clone5clone, symObjAddr: 0x7258, symBinAddr: 0x5B290, symSize: 0x21C }
  - { offset: 0x149993, size: 0x8, addend: 0x0, symName: __RNvXs2l_NtNtCscwCr4GBBztI_3syn3gen5cloneNtNtBa_4item14TraitItemConstNtNtCs85QQFkKrybG_4core5clone5Clone5clone, symObjAddr: 0x7474, symBinAddr: 0x5B4AC, symSize: 0x218 }
  - { offset: 0x1499C7, size: 0x8, addend: 0x0, symName: __RNvXs2m_NtNtCscwCr4GBBztI_3syn3gen5cloneNtNtBa_4item11TraitItemFnNtNtCs85QQFkKrybG_4core5clone5Clone5clone, symObjAddr: 0x768C, symBinAddr: 0x5B6C4, symSize: 0x140 }
  - { offset: 0x1499FB, size: 0x8, addend: 0x0, symName: __RNvXs2n_NtNtCscwCr4GBBztI_3syn3gen5cloneNtNtBa_4item14TraitItemMacroNtNtCs85QQFkKrybG_4core5clone5Clone5clone, symObjAddr: 0x77CC, symBinAddr: 0x5B804, symSize: 0xF4 }
  - { offset: 0x149A2F, size: 0x8, addend: 0x0, symName: __RNvXs2o_NtNtCscwCr4GBBztI_3syn3gen5cloneNtNtBa_4item13TraitItemTypeNtNtCs85QQFkKrybG_4core5clone5Clone5clone, symObjAddr: 0x78C0, symBinAddr: 0x5B8F8, symSize: 0x20C }
  - { offset: 0x14D2EB, size: 0x8, addend: 0x0, symName: __RNvMNtCs85QQFkKrybG_4core5sliceSTNtNtCscwCr4GBBztI_3syn4item5FnArgNtNtBz_5token5CommaE4iterBz_, symObjAddr: 0x1984, symBinAddr: 0x55B88, symSize: 0x28 }
  - { offset: 0x14D322, size: 0x8, addend: 0x0, symName: __RNvMNtCs85QQFkKrybG_4core5sliceSTNtNtCscwCr4GBBztI_3syn4item7UseTreeNtNtBz_5token5CommaE4iterBz_, symObjAddr: 0x19AC, symBinAddr: 0x55BB0, symSize: 0x28 }
  - { offset: 0x14DA12, size: 0x8, addend: 0x0, symName: __RNvXNtNtCs85QQFkKrybG_4core5clone6uninitNtNtCscwCr4GBBztI_3syn4item5FnArgNtB2_8CopySpec9clone_oneBG_, symObjAddr: 0x1FE4, symBinAddr: 0x56080, symSize: 0x48 }
  - { offset: 0x14DA76, size: 0x8, addend: 0x0, symName: __RNvXNtNtCs85QQFkKrybG_4core5clone6uninitNtNtCscwCr4GBBztI_3syn4item7UseTreeNtB2_8CopySpec9clone_oneBG_, symObjAddr: 0x202C, symBinAddr: 0x560C8, symSize: 0x48 }
  - { offset: 0x1502C7, size: 0x8, addend: 0x0, symName: __RNvMNtCscwCr4GBBztI_3syn4itemNtB2_4Item13replace_attrs, symObjAddr: 0x19D4, symBinAddr: 0x55BD8, symSize: 0x328 }
  - { offset: 0x150346, size: 0x8, addend: 0x0, symName: __RNvXNtCshi3DZH3dfhk_5quote9to_tokensRNtNtCscwCr4GBBztI_3syn4item11ForeignItemNtB2_8ToTokens9to_tokensBD_, symObjAddr: 0x1E64, symBinAddr: 0x55F00, symSize: 0x40 }
  - { offset: 0x150385, size: 0x8, addend: 0x0, symName: __RNvXNtCshi3DZH3dfhk_5quote9to_tokensRNtNtCscwCr4GBBztI_3syn4item4ItemNtB2_8ToTokens9to_tokensBD_, symObjAddr: 0x1EA4, symBinAddr: 0x55F40, symSize: 0x40 }
  - { offset: 0x1503C4, size: 0x8, addend: 0x0, symName: __RNvXNtCshi3DZH3dfhk_5quote9to_tokensRNtNtCscwCr4GBBztI_3syn4item5FnArgNtB2_8ToTokens9to_tokensBD_, symObjAddr: 0x1EE4, symBinAddr: 0x55F80, symSize: 0x40 }
  - { offset: 0x150403, size: 0x8, addend: 0x0, symName: __RNvXNtCshi3DZH3dfhk_5quote9to_tokensRNtNtCscwCr4GBBztI_3syn4item7UseTreeNtB2_8ToTokens9to_tokensBD_, symObjAddr: 0x1F24, symBinAddr: 0x55FC0, symSize: 0x40 }
  - { offset: 0x150442, size: 0x8, addend: 0x0, symName: __RNvXNtCshi3DZH3dfhk_5quote9to_tokensRNtNtCscwCr4GBBztI_3syn4item8ImplItemNtB2_8ToTokens9to_tokensBD_, symObjAddr: 0x1F64, symBinAddr: 0x56000, symSize: 0x40 }
  - { offset: 0x150481, size: 0x8, addend: 0x0, symName: __RNvXNtCshi3DZH3dfhk_5quote9to_tokensRNtNtCscwCr4GBBztI_3syn4item9TraitItemNtB2_8ToTokens9to_tokensBD_, symObjAddr: 0x1FA4, symBinAddr: 0x56040, symSize: 0x40 }
  - { offset: 0x1509BD, size: 0x8, addend: 0x0, symName: __RINvMs_NtCsdFlNUEO95cG_5alloc3vecINtB5_3VecReE10retain_mutNCNvMNtCscwCr4GBBztI_3syn9lookaheadNtBZ_10Lookahead15error0EB11_, symObjAddr: 0x0, symBinAddr: 0x672B4, symSize: 0x130 }
  - { offset: 0x158B0F, size: 0x8, addend: 0x0, symName: __RNvXs1_NtCs85QQFkKrybG_4core7convertINtNtCsdFlNUEO95cG_5alloc3vec3VechEINtB5_4IntoBy_E4intoCscwCr4GBBztI_3syn, symObjAddr: 0x5FA4, symBinAddr: 0x6CA78, symSize: 0x18 }
  - { offset: 0x158DA6, size: 0x8, addend: 0x0, symName: __RINvNvMs_NtCsdFlNUEO95cG_5alloc3vecINtB7_3VecppE10retain_mut12process_loopNCNvMNtCscwCr4GBBztI_3syn9lookaheadNtB1f_10Lookahead15error0ReNtNtB9_5alloc6GlobalKb0_EB1h_, symObjAddr: 0x130, symBinAddr: 0x673E4, symSize: 0xCC }
  - { offset: 0x158EFA, size: 0x8, addend: 0x0, symName: __RINvNvMs_NtCsdFlNUEO95cG_5alloc3vecINtB7_3VecppE10retain_mut12process_loopNCNvMNtCscwCr4GBBztI_3syn9lookaheadNtB1f_10Lookahead15error0ReNtNtB9_5alloc6GlobalKb1_EB1h_, symObjAddr: 0x1FC, symBinAddr: 0x674B0, symSize: 0x170 }
  - { offset: 0x1590F0, size: 0x8, addend: 0x0, symName: __RNvXNvMs_NtCsdFlNUEO95cG_5alloc3vecINtB7_3VecppE10retain_mutINtB2_15BackshiftOnDropReNtNtB9_5alloc6GlobalENtNtNtCs85QQFkKrybG_4core3ops4drop4Drop4dropCscwCr4GBBztI_3syn, symObjAddr: 0x59B8, symBinAddr: 0x6C6DC, symSize: 0x184 }
  - { offset: 0x159336, size: 0x8, addend: 0x0, symName: __RNvNvMs_NtCsdFlNUEO95cG_5alloc3vecINtB6_3VecppE17from_raw_parts_in18precondition_checkCscwCr4GBBztI_3syn, symObjAddr: 0x5860, symBinAddr: 0x6C584, symSize: 0xAC }
  - { offset: 0x1593A4, size: 0x8, addend: 0x0, symName: __RNvNvMs_NtCsdFlNUEO95cG_5alloc3vecINtB6_3VecppE7set_len18precondition_checkCscwCr4GBBztI_3syn, symObjAddr: 0x590C, symBinAddr: 0x6C630, symSize: 0xAC }
  - { offset: 0x1597AB, size: 0x8, addend: 0x0, symName: __RINvXsh_NtCsdFlNUEO95cG_5alloc3vecINtB6_3VecNtNtCscwCr4GBBztI_3syn4attr9AttributeEINtNtNtNtCs85QQFkKrybG_4core4iter6traits7collect6ExtendBG_E6extendBw_EBK_, symObjAddr: 0x36C, symBinAddr: 0x67620, symSize: 0x48 }
  - { offset: 0x15CADB, size: 0x8, addend: 0x0, symName: __RNvXs6_NtCsdFlNUEO95cG_5alloc3vecINtB5_3VecNtNtCscwCr4GBBztI_3syn4attr9AttributeENtNtNtCs85QQFkKrybG_4core3ops5deref5Deref5derefBJ_, symObjAddr: 0x6024, symBinAddr: 0x6CA90, symSize: 0x24 }
  - { offset: 0x15CB1B, size: 0x8, addend: 0x0, symName: __RNvXs6_NtCsdFlNUEO95cG_5alloc3vecINtB5_3VecNtNtCscwCr4GBBztI_3syn4expr3ArmENtNtNtCs85QQFkKrybG_4core3ops5deref5Deref5derefBJ_, symObjAddr: 0x6048, symBinAddr: 0x6CAB4, symSize: 0x24 }
  - { offset: 0x15CB5B, size: 0x8, addend: 0x0, symName: __RNvXs6_NtCsdFlNUEO95cG_5alloc3vecINtB5_3VecReENtNtNtCs85QQFkKrybG_4core3ops5deref5Deref5derefCscwCr4GBBztI_3syn, symObjAddr: 0x6090, symBinAddr: 0x6CAD8, symSize: 0x24 }
  - { offset: 0x15CB9B, size: 0x8, addend: 0x0, symName: __RNvXs6_NtCsdFlNUEO95cG_5alloc3vecINtB5_3VecTNtNtCscwCr4GBBztI_3syn2ty4TypeNtNtBK_5token5CommaEENtNtNtCs85QQFkKrybG_4core3ops5deref5Deref5derefBK_, symObjAddr: 0x60B4, symBinAddr: 0x6CAFC, symSize: 0x24 }
  - { offset: 0x15CBDB, size: 0x8, addend: 0x0, symName: __RNvXs6_NtCsdFlNUEO95cG_5alloc3vecINtB5_3VecTNtNtCscwCr4GBBztI_3syn2ty9BareFnArgNtNtBK_5token5CommaEENtNtNtCs85QQFkKrybG_4core3ops5deref5Deref5derefBK_, symObjAddr: 0x60D8, symBinAddr: 0x6CB20, symSize: 0x24 }
  - { offset: 0x15CC1B, size: 0x8, addend: 0x0, symName: __RNvXs6_NtCsdFlNUEO95cG_5alloc3vecINtB5_3VecTNtNtCscwCr4GBBztI_3syn3pat3PatNtNtBK_5token2OrEENtNtNtCs85QQFkKrybG_4core3ops5deref5Deref5derefBK_, symObjAddr: 0x60FC, symBinAddr: 0x6CB44, symSize: 0x24 }
  - { offset: 0x15CC5B, size: 0x8, addend: 0x0, symName: __RNvXs6_NtCsdFlNUEO95cG_5alloc3vecINtB5_3VecTNtNtCscwCr4GBBztI_3syn3pat3PatNtNtBK_5token5CommaEENtNtNtCs85QQFkKrybG_4core3ops5deref5Deref5derefBK_, symObjAddr: 0x6120, symBinAddr: 0x6CB68, symSize: 0x24 }
  - { offset: 0x15CC9B, size: 0x8, addend: 0x0, symName: __RNvXs6_NtCsdFlNUEO95cG_5alloc3vecINtB5_3VecTNtNtCscwCr4GBBztI_3syn3pat8FieldPatNtNtBK_5token5CommaEENtNtNtCs85QQFkKrybG_4core3ops5deref5Deref5derefBK_, symObjAddr: 0x6144, symBinAddr: 0x6CB8C, symSize: 0x24 }
  - { offset: 0x15CCDB, size: 0x8, addend: 0x0, symName: __RNvXs6_NtCsdFlNUEO95cG_5alloc3vecINtB5_3VecTNtNtCscwCr4GBBztI_3syn4data5FieldNtNtBK_5token5CommaEENtNtNtCs85QQFkKrybG_4core3ops5deref5Deref5derefBK_, symObjAddr: 0x6168, symBinAddr: 0x6CBB0, symSize: 0x24 }
  - { offset: 0x15CD1B, size: 0x8, addend: 0x0, symName: __RNvXs6_NtCsdFlNUEO95cG_5alloc3vecINtB5_3VecTNtNtCscwCr4GBBztI_3syn4data7VariantNtNtBK_5token5CommaEENtNtNtCs85QQFkKrybG_4core3ops5deref5Deref5derefBK_, symObjAddr: 0x618C, symBinAddr: 0x6CBD4, symSize: 0x24 }
  - { offset: 0x15CD5B, size: 0x8, addend: 0x0, symName: __RNvXs6_NtCsdFlNUEO95cG_5alloc3vecINtB5_3VecTNtNtCscwCr4GBBztI_3syn4expr10FieldValueNtNtBK_5token5CommaEENtNtNtCs85QQFkKrybG_4core3ops5deref5Deref5derefBK_, symObjAddr: 0x61B0, symBinAddr: 0x6CBF8, symSize: 0x24 }
  - { offset: 0x15CD9B, size: 0x8, addend: 0x0, symName: __RNvXs6_NtCsdFlNUEO95cG_5alloc3vecINtB5_3VecTNtNtCscwCr4GBBztI_3syn4expr4ExprNtNtBK_5token5CommaEENtNtNtCs85QQFkKrybG_4core3ops5deref5Deref5derefBK_, symObjAddr: 0x61D4, symBinAddr: 0x6CC1C, symSize: 0x24 }
  - { offset: 0x15CDDB, size: 0x8, addend: 0x0, symName: __RNvXs6_NtCsdFlNUEO95cG_5alloc3vecINtB5_3VecTNtNtCscwCr4GBBztI_3syn4item5FnArgNtNtBK_5token5CommaEENtNtNtCs85QQFkKrybG_4core3ops5deref5Deref5derefBK_, symObjAddr: 0x61F8, symBinAddr: 0x6CC40, symSize: 0x24 }
  - { offset: 0x15CE1B, size: 0x8, addend: 0x0, symName: __RNvXs6_NtCsdFlNUEO95cG_5alloc3vecINtB5_3VecTNtNtCscwCr4GBBztI_3syn4item7UseTreeNtNtBK_5token5CommaEENtNtNtCs85QQFkKrybG_4core3ops5deref5Deref5derefBK_, symObjAddr: 0x621C, symBinAddr: 0x6CC64, symSize: 0x24 }
  - { offset: 0x15CE5B, size: 0x8, addend: 0x0, symName: __RNvXs6_NtCsdFlNUEO95cG_5alloc3vecINtB5_3VecTNtNtCscwCr4GBBztI_3syn4path11PathSegmentNtNtBK_5token7PathSepEENtNtNtCs85QQFkKrybG_4core3ops5deref5Deref5derefBK_, symObjAddr: 0x6240, symBinAddr: 0x6CC88, symSize: 0x24 }
  - { offset: 0x15CE9B, size: 0x8, addend: 0x0, symName: __RNvXs6_NtCsdFlNUEO95cG_5alloc3vecINtB5_3VecTNtNtCscwCr4GBBztI_3syn4path15GenericArgumentNtNtBK_5token5CommaEENtNtNtCs85QQFkKrybG_4core3ops5deref5Deref5derefBK_, symObjAddr: 0x6264, symBinAddr: 0x6CCAC, symSize: 0x24 }
  - { offset: 0x15CEDB, size: 0x8, addend: 0x0, symName: __RNvXs6_NtCsdFlNUEO95cG_5alloc3vecINtB5_3VecTNtNtCscwCr4GBBztI_3syn8generics12GenericParamNtNtBK_5token5CommaEENtNtNtCs85QQFkKrybG_4core3ops5deref5Deref5derefBK_, symObjAddr: 0x6288, symBinAddr: 0x6CCD0, symSize: 0x24 }
  - { offset: 0x15CF1B, size: 0x8, addend: 0x0, symName: __RNvXs6_NtCsdFlNUEO95cG_5alloc3vecINtB5_3VecTNtNtCscwCr4GBBztI_3syn8generics13CapturedParamNtNtBK_5token5CommaEENtNtNtCs85QQFkKrybG_4core3ops5deref5Deref5derefBK_, symObjAddr: 0x62AC, symBinAddr: 0x6CCF4, symSize: 0x24 }
  - { offset: 0x15CF5B, size: 0x8, addend: 0x0, symName: __RNvXs6_NtCsdFlNUEO95cG_5alloc3vecINtB5_3VecTNtNtCscwCr4GBBztI_3syn8generics14TypeParamBoundNtNtBK_5token4PlusEENtNtNtCs85QQFkKrybG_4core3ops5deref5Deref5derefBK_, symObjAddr: 0x62D0, symBinAddr: 0x6CD18, symSize: 0x24 }
  - { offset: 0x15CF9B, size: 0x8, addend: 0x0, symName: __RNvXs6_NtCsdFlNUEO95cG_5alloc3vecINtB5_3VecTNtNtCscwCr4GBBztI_3syn8generics14WherePredicateNtNtBK_5token5CommaEENtNtNtCs85QQFkKrybG_4core3ops5deref5Deref5derefBK_, symObjAddr: 0x62F4, symBinAddr: 0x6CD3C, symSize: 0x24 }
  - { offset: 0x15CFDB, size: 0x8, addend: 0x0, symName: __RNvXs6_NtCsdFlNUEO95cG_5alloc3vecINtB5_3VecTNtNtCscwCr4GBBztI_3syn8lifetime8LifetimeNtNtBK_5token4PlusEENtNtNtCs85QQFkKrybG_4core3ops5deref5Deref5derefBK_, symObjAddr: 0x6318, symBinAddr: 0x6CD60, symSize: 0x24 }
  - { offset: 0x15D01B, size: 0x8, addend: 0x0, symName: __RNvXs6_NtCsdFlNUEO95cG_5alloc3vecINtB5_3VechENtNtNtCs85QQFkKrybG_4core3ops5deref5Deref5derefCscwCr4GBBztI_3syn, symObjAddr: 0x633C, symBinAddr: 0x6CD84, symSize: 0x24 }
  - { offset: 0x15D99B, size: 0x8, addend: 0x0, symName: __RNvXs0_NtNtCsdFlNUEO95cG_5alloc3vec11spec_extendINtB7_3VecNtNtCscwCr4GBBztI_3syn4attr9AttributeEINtB5_10SpecExtendBU_INtNtB7_9into_iter8IntoIterBU_EE11spec_extendBY_, symObjAddr: 0x5E74, symBinAddr: 0x6C9E0, symSize: 0x98 }
  - { offset: 0x15DA08, size: 0x8, addend: 0x0, symName: __RNvXs7_NtCsdFlNUEO95cG_5alloc3vecINtB5_3VecTNtNtCscwCr4GBBztI_3syn4path11PathSegmentNtNtBK_5token7PathSepEENtNtNtCs85QQFkKrybG_4core3ops5deref8DerefMut9deref_mutBK_, symObjAddr: 0x6384, symBinAddr: 0x6CDA8, symSize: 0x24 }
  - { offset: 0x15DADE, size: 0x8, addend: 0x0, symName: __RNvXs9_NtCsdFlNUEO95cG_5alloc3vecINtB5_3VecNtNtCscwCr4GBBztI_3syn4attr9AttributeENtNtCs85QQFkKrybG_4core5clone5Clone5cloneBJ_, symObjAddr: 0x63CC, symBinAddr: 0x6CDCC, symSize: 0x90 }
  - { offset: 0x15DCAF, size: 0x8, addend: 0x0, symName: __RNvXs9_NtCsdFlNUEO95cG_5alloc3vecINtB5_3VecNtNtCscwCr4GBBztI_3syn4expr3ArmENtNtCs85QQFkKrybG_4core5clone5Clone5cloneBJ_, symObjAddr: 0x645C, symBinAddr: 0x6CE5C, symSize: 0x90 }
  - { offset: 0x15DE80, size: 0x8, addend: 0x0, symName: __RNvXs9_NtCsdFlNUEO95cG_5alloc3vecINtB5_3VecNtNtCscwCr4GBBztI_3syn4item11ForeignItemENtNtCs85QQFkKrybG_4core5clone5Clone5cloneBJ_, symObjAddr: 0x64EC, symBinAddr: 0x6CEEC, symSize: 0x90 }
  - { offset: 0x15E051, size: 0x8, addend: 0x0, symName: __RNvXs9_NtCsdFlNUEO95cG_5alloc3vecINtB5_3VecNtNtCscwCr4GBBztI_3syn4item4ItemENtNtCs85QQFkKrybG_4core5clone5Clone5cloneBJ_, symObjAddr: 0x657C, symBinAddr: 0x6CF7C, symSize: 0x90 }
  - { offset: 0x15E222, size: 0x8, addend: 0x0, symName: __RNvXs9_NtCsdFlNUEO95cG_5alloc3vecINtB5_3VecNtNtCscwCr4GBBztI_3syn4item8ImplItemENtNtCs85QQFkKrybG_4core5clone5Clone5cloneBJ_, symObjAddr: 0x660C, symBinAddr: 0x6D00C, symSize: 0x90 }
  - { offset: 0x15E3F3, size: 0x8, addend: 0x0, symName: __RNvXs9_NtCsdFlNUEO95cG_5alloc3vecINtB5_3VecNtNtCscwCr4GBBztI_3syn4item9TraitItemENtNtCs85QQFkKrybG_4core5clone5Clone5cloneBJ_, symObjAddr: 0x669C, symBinAddr: 0x6D09C, symSize: 0x90 }
  - { offset: 0x15E5C4, size: 0x8, addend: 0x0, symName: __RNvXs9_NtCsdFlNUEO95cG_5alloc3vecINtB5_3VecNtNtCscwCr4GBBztI_3syn4stmt4StmtENtNtCs85QQFkKrybG_4core5clone5Clone5cloneBJ_, symObjAddr: 0x672C, symBinAddr: 0x6D12C, symSize: 0x90 }
  - { offset: 0x15E795, size: 0x8, addend: 0x0, symName: __RNvXs9_NtCsdFlNUEO95cG_5alloc3vecINtB5_3VecTNtNtCscwCr4GBBztI_3syn2ty4TypeNtNtBK_5token5CommaEENtNtCs85QQFkKrybG_4core5clone5Clone5cloneBK_, symObjAddr: 0x684C, symBinAddr: 0x6D1BC, symSize: 0x90 }
  - { offset: 0x15E966, size: 0x8, addend: 0x0, symName: __RNvXs9_NtCsdFlNUEO95cG_5alloc3vecINtB5_3VecTNtNtCscwCr4GBBztI_3syn2ty9BareFnArgNtNtBK_5token5CommaEENtNtCs85QQFkKrybG_4core5clone5Clone5cloneBK_, symObjAddr: 0x68DC, symBinAddr: 0x6D24C, symSize: 0x90 }
  - { offset: 0x15EB37, size: 0x8, addend: 0x0, symName: __RNvXs9_NtCsdFlNUEO95cG_5alloc3vecINtB5_3VecTNtNtCscwCr4GBBztI_3syn3pat3PatNtNtBK_5token2OrEENtNtCs85QQFkKrybG_4core5clone5Clone5cloneBK_, symObjAddr: 0x696C, symBinAddr: 0x6D2DC, symSize: 0x90 }
  - { offset: 0x15ED08, size: 0x8, addend: 0x0, symName: __RNvXs9_NtCsdFlNUEO95cG_5alloc3vecINtB5_3VecTNtNtCscwCr4GBBztI_3syn3pat3PatNtNtBK_5token5CommaEENtNtCs85QQFkKrybG_4core5clone5Clone5cloneBK_, symObjAddr: 0x69FC, symBinAddr: 0x6D36C, symSize: 0x90 }
  - { offset: 0x15EED9, size: 0x8, addend: 0x0, symName: __RNvXs9_NtCsdFlNUEO95cG_5alloc3vecINtB5_3VecTNtNtCscwCr4GBBztI_3syn3pat8FieldPatNtNtBK_5token5CommaEENtNtCs85QQFkKrybG_4core5clone5Clone5cloneBK_, symObjAddr: 0x6A8C, symBinAddr: 0x6D3FC, symSize: 0x90 }
  - { offset: 0x15F0AA, size: 0x8, addend: 0x0, symName: __RNvXs9_NtCsdFlNUEO95cG_5alloc3vecINtB5_3VecTNtNtCscwCr4GBBztI_3syn4data5FieldNtNtBK_5token5CommaEENtNtCs85QQFkKrybG_4core5clone5Clone5cloneBK_, symObjAddr: 0x6B1C, symBinAddr: 0x6D48C, symSize: 0x90 }
  - { offset: 0x15F27B, size: 0x8, addend: 0x0, symName: __RNvXs9_NtCsdFlNUEO95cG_5alloc3vecINtB5_3VecTNtNtCscwCr4GBBztI_3syn4data7VariantNtNtBK_5token5CommaEENtNtCs85QQFkKrybG_4core5clone5Clone5cloneBK_, symObjAddr: 0x6BAC, symBinAddr: 0x6D51C, symSize: 0x90 }
  - { offset: 0x15F44C, size: 0x8, addend: 0x0, symName: __RNvXs9_NtCsdFlNUEO95cG_5alloc3vecINtB5_3VecTNtNtCscwCr4GBBztI_3syn4expr10FieldValueNtNtBK_5token5CommaEENtNtCs85QQFkKrybG_4core5clone5Clone5cloneBK_, symObjAddr: 0x6C3C, symBinAddr: 0x6D5AC, symSize: 0x90 }
  - { offset: 0x15F61D, size: 0x8, addend: 0x0, symName: __RNvXs9_NtCsdFlNUEO95cG_5alloc3vecINtB5_3VecTNtNtCscwCr4GBBztI_3syn4expr4ExprNtNtBK_5token5CommaEENtNtCs85QQFkKrybG_4core5clone5Clone5cloneBK_, symObjAddr: 0x6CCC, symBinAddr: 0x6D63C, symSize: 0x90 }
  - { offset: 0x15F7EE, size: 0x8, addend: 0x0, symName: __RNvXs9_NtCsdFlNUEO95cG_5alloc3vecINtB5_3VecTNtNtCscwCr4GBBztI_3syn4item5FnArgNtNtBK_5token5CommaEENtNtCs85QQFkKrybG_4core5clone5Clone5cloneBK_, symObjAddr: 0x6D5C, symBinAddr: 0x6D6CC, symSize: 0x90 }
  - { offset: 0x15F9BF, size: 0x8, addend: 0x0, symName: __RNvXs9_NtCsdFlNUEO95cG_5alloc3vecINtB5_3VecTNtNtCscwCr4GBBztI_3syn4item7UseTreeNtNtBK_5token5CommaEENtNtCs85QQFkKrybG_4core5clone5Clone5cloneBK_, symObjAddr: 0x6DEC, symBinAddr: 0x6D75C, symSize: 0x90 }
  - { offset: 0x15FB90, size: 0x8, addend: 0x0, symName: __RNvXs9_NtCsdFlNUEO95cG_5alloc3vecINtB5_3VecTNtNtCscwCr4GBBztI_3syn4path11PathSegmentNtNtBK_5token7PathSepEENtNtCs85QQFkKrybG_4core5clone5Clone5cloneBK_, symObjAddr: 0x6E7C, symBinAddr: 0x6D7EC, symSize: 0x90 }
  - { offset: 0x15FD61, size: 0x8, addend: 0x0, symName: __RNvXs9_NtCsdFlNUEO95cG_5alloc3vecINtB5_3VecTNtNtCscwCr4GBBztI_3syn4path15GenericArgumentNtNtBK_5token5CommaEENtNtCs85QQFkKrybG_4core5clone5Clone5cloneBK_, symObjAddr: 0x6F0C, symBinAddr: 0x6D87C, symSize: 0x90 }
  - { offset: 0x15FF32, size: 0x8, addend: 0x0, symName: __RNvXs9_NtCsdFlNUEO95cG_5alloc3vecINtB5_3VecTNtNtCscwCr4GBBztI_3syn8generics12GenericParamNtNtBK_5token5CommaEENtNtCs85QQFkKrybG_4core5clone5Clone5cloneBK_, symObjAddr: 0x6F9C, symBinAddr: 0x6D90C, symSize: 0x90 }
  - { offset: 0x160103, size: 0x8, addend: 0x0, symName: __RNvXs9_NtCsdFlNUEO95cG_5alloc3vecINtB5_3VecTNtNtCscwCr4GBBztI_3syn8generics13CapturedParamNtNtBK_5token5CommaEENtNtCs85QQFkKrybG_4core5clone5Clone5cloneBK_, symObjAddr: 0x702C, symBinAddr: 0x6D99C, symSize: 0x90 }
  - { offset: 0x1602D4, size: 0x8, addend: 0x0, symName: __RNvXs9_NtCsdFlNUEO95cG_5alloc3vecINtB5_3VecTNtNtCscwCr4GBBztI_3syn8generics14TypeParamBoundNtNtBK_5token4PlusEENtNtCs85QQFkKrybG_4core5clone5Clone5cloneBK_, symObjAddr: 0x70BC, symBinAddr: 0x6DA2C, symSize: 0x90 }
  - { offset: 0x1604A5, size: 0x8, addend: 0x0, symName: __RNvXs9_NtCsdFlNUEO95cG_5alloc3vecINtB5_3VecTNtNtCscwCr4GBBztI_3syn8generics14WherePredicateNtNtBK_5token5CommaEENtNtCs85QQFkKrybG_4core5clone5Clone5cloneBK_, symObjAddr: 0x714C, symBinAddr: 0x6DABC, symSize: 0x90 }
  - { offset: 0x160676, size: 0x8, addend: 0x0, symName: __RNvXs9_NtCsdFlNUEO95cG_5alloc3vecINtB5_3VecTNtNtCscwCr4GBBztI_3syn8lifetime8LifetimeNtNtBK_5token4PlusEENtNtCs85QQFkKrybG_4core5clone5Clone5cloneBK_, symObjAddr: 0x71DC, symBinAddr: 0x6DB4C, symSize: 0x90 }
  - { offset: 0x16084D, size: 0x8, addend: 0x0, symName: __RNvXsb_NtCsdFlNUEO95cG_5alloc3vecINtB5_3VecNtNtCscwCr4GBBztI_3syn5error12ErrorMessageEINtNtNtCs85QQFkKrybG_4core3ops5index5IndexjE5indexBJ_, symObjAddr: 0x7284, symBinAddr: 0x6DBF4, symSize: 0x8C }
  - { offset: 0x1609CF, size: 0x8, addend: 0x0, symName: __RNvXsb_NtCsdFlNUEO95cG_5alloc3vecINtB5_3VecReEINtNtNtCs85QQFkKrybG_4core3ops5index5IndexjE5indexCscwCr4GBBztI_3syn, symObjAddr: 0x7310, symBinAddr: 0x6DC80, symSize: 0x8C }
  - { offset: 0x160B51, size: 0x8, addend: 0x0, symName: __RNvXsb_NtCsdFlNUEO95cG_5alloc3vecINtB5_3VecTNtNtCscwCr4GBBztI_3syn3pat3PatNtNtBK_5token5CommaEEINtNtNtCs85QQFkKrybG_4core3ops5index5IndexjE5indexBK_, symObjAddr: 0x739C, symBinAddr: 0x6DD0C, symSize: 0x8C }
  - { offset: 0x160CD3, size: 0x8, addend: 0x0, symName: __RNvXsb_NtCsdFlNUEO95cG_5alloc3vecINtB5_3VecTNtNtCscwCr4GBBztI_3syn4path11PathSegmentNtNtBK_5token7PathSepEEINtNtNtCs85QQFkKrybG_4core3ops5index5IndexjE5indexBK_, symObjAddr: 0x7428, symBinAddr: 0x6DD98, symSize: 0x8C }
  - { offset: 0x160E55, size: 0x8, addend: 0x0, symName: __RNvXsb_NtCsdFlNUEO95cG_5alloc3vecINtB5_3VechEINtNtNtCs85QQFkKrybG_4core3ops5index5IndexINtNtBM_5range9RangeFromjEE5indexCscwCr4GBBztI_3syn, symObjAddr: 0x74B4, symBinAddr: 0x6DE24, symSize: 0x88 }
  - { offset: 0x160FD7, size: 0x8, addend: 0x0, symName: __RNvXsb_NtCsdFlNUEO95cG_5alloc3vecINtB5_3VechEINtNtNtCs85QQFkKrybG_4core3ops5index5IndexjE5indexCscwCr4GBBztI_3syn, symObjAddr: 0x753C, symBinAddr: 0x6DEAC, symSize: 0x88 }
  - { offset: 0x16115F, size: 0x8, addend: 0x0, symName: __RNvXsc_NtCsdFlNUEO95cG_5alloc3vecINtB5_3VecNtNtCscwCr4GBBztI_3syn6buffer5EntryEINtNtNtCs85QQFkKrybG_4core3ops5index8IndexMutjE9index_mutBJ_, symObjAddr: 0x75C4, symBinAddr: 0x6DF34, symSize: 0x8C }
  - { offset: 0x1612B3, size: 0x8, addend: 0x0, symName: __RNvXsc_NtCsdFlNUEO95cG_5alloc3vecINtB5_3VechEINtNtNtCs85QQFkKrybG_4core3ops5index8IndexMutjE9index_mutCscwCr4GBBztI_3syn, symObjAddr: 0x7650, symBinAddr: 0x6DFC0, symSize: 0x88 }
  - { offset: 0x16140D, size: 0x8, addend: 0x0, symName: __RNvXse_NtCsdFlNUEO95cG_5alloc3vecINtB5_3VecNtNtCscwCr4GBBztI_3syn4attr9AttributeENtNtNtNtCs85QQFkKrybG_4core4iter6traits7collect12IntoIterator9into_iterBJ_, symObjAddr: 0x76D8, symBinAddr: 0x6E048, symSize: 0xDC }
  - { offset: 0x16169F, size: 0x8, addend: 0x0, symName: __RNvXse_NtCsdFlNUEO95cG_5alloc3vecINtB5_3VecNtNtCscwCr4GBBztI_3syn8generics14TypeParamBoundENtNtNtNtCs85QQFkKrybG_4core4iter6traits7collect12IntoIterator9into_iterBJ_, symObjAddr: 0x797C, symBinAddr: 0x6E124, symSize: 0xE4 }
  - { offset: 0x161931, size: 0x8, addend: 0x0, symName: __RNvXse_NtCsdFlNUEO95cG_5alloc3vecINtB5_3VecTNtNtCscwCr4GBBztI_3syn4path11PathSegmentNtNtBK_5token7PathSepEENtNtNtNtCs85QQFkKrybG_4core4iter6traits7collect12IntoIterator9into_iterBK_, symObjAddr: 0x7C28, symBinAddr: 0x6E208, symSize: 0xE4 }
  - { offset: 0x161BC3, size: 0x8, addend: 0x0, symName: __RNvXse_NtCsdFlNUEO95cG_5alloc3vecINtB5_3VecTNtNtCscwCr4GBBztI_3syn8generics14TypeParamBoundNtNtBK_5token4PlusEENtNtNtNtCs85QQFkKrybG_4core4iter6traits7collect12IntoIterator9into_iterBK_, symObjAddr: 0x7D0C, symBinAddr: 0x6E2EC, symSize: 0xDC }
  - { offset: 0x161E5B, size: 0x8, addend: 0x0, symName: __RNvXsf_NtCsdFlNUEO95cG_5alloc3vecRINtB5_3VecNtNtCscwCr4GBBztI_3syn4attr9AttributeENtNtNtNtCs85QQFkKrybG_4core4iter6traits7collect12IntoIterator9into_iterBK_, symObjAddr: 0x7DE8, symBinAddr: 0x6E3C8, symSize: 0x9C }
  - { offset: 0x162088, size: 0x8, addend: 0x0, symName: __RNvXsf_NtCsdFlNUEO95cG_5alloc3vecRINtB5_3VecNtNtCscwCr4GBBztI_3syn4item11ForeignItemENtNtNtNtCs85QQFkKrybG_4core4iter6traits7collect12IntoIterator9into_iterBK_, symObjAddr: 0x7E84, symBinAddr: 0x6E464, symSize: 0xA4 }
  - { offset: 0x1622B5, size: 0x8, addend: 0x0, symName: __RNvXsf_NtCsdFlNUEO95cG_5alloc3vecRINtB5_3VecNtNtCscwCr4GBBztI_3syn4item4ItemENtNtNtNtCs85QQFkKrybG_4core4iter6traits7collect12IntoIterator9into_iterBK_, symObjAddr: 0x7F28, symBinAddr: 0x6E508, symSize: 0xA4 }
  - { offset: 0x1624E2, size: 0x8, addend: 0x0, symName: __RNvXsf_NtCsdFlNUEO95cG_5alloc3vecRINtB5_3VecNtNtCscwCr4GBBztI_3syn4item8ImplItemENtNtNtNtCs85QQFkKrybG_4core4iter6traits7collect12IntoIterator9into_iterBK_, symObjAddr: 0x7FCC, symBinAddr: 0x6E5AC, symSize: 0xA4 }
  - { offset: 0x16270F, size: 0x8, addend: 0x0, symName: __RNvXsf_NtCsdFlNUEO95cG_5alloc3vecRINtB5_3VecNtNtCscwCr4GBBztI_3syn4item9TraitItemENtNtNtNtCs85QQFkKrybG_4core4iter6traits7collect12IntoIterator9into_iterBK_, symObjAddr: 0x8070, symBinAddr: 0x6E650, symSize: 0xA4 }
  - { offset: 0x16293C, size: 0x8, addend: 0x0, symName: __RNvXsf_NtCsdFlNUEO95cG_5alloc3vecRINtB5_3VecNtNtCscwCr4GBBztI_3syn4stmt4StmtENtNtNtNtCs85QQFkKrybG_4core4iter6traits7collect12IntoIterator9into_iterBK_, symObjAddr: 0x8114, symBinAddr: 0x6E6F4, symSize: 0xA4 }
  - { offset: 0x162B69, size: 0x8, addend: 0x0, symName: __RNvXsf_NtCsdFlNUEO95cG_5alloc3vecRINtB5_3VecNtNtCscwCr4GBBztI_3syn5error12ErrorMessageENtNtNtNtCs85QQFkKrybG_4core4iter6traits7collect12IntoIterator9into_iterBK_, symObjAddr: 0x81B8, symBinAddr: 0x6E798, symSize: 0xA4 }
  - { offset: 0x162D9C, size: 0x8, addend: 0x0, symName: __RNvXsg_NtCsdFlNUEO95cG_5alloc3vecQINtB5_3VechENtNtNtNtCs85QQFkKrybG_4core4iter6traits7collect12IntoIterator9into_iterCscwCr4GBBztI_3syn, symObjAddr: 0x825C, symBinAddr: 0x6E83C, symSize: 0xA0 }
  - { offset: 0x162FBE, size: 0x8, addend: 0x0, symName: __RNvXsn_NtCsdFlNUEO95cG_5alloc3vecINtB5_3VecNtNtCscwCr4GBBztI_3syn4attr9AttributeENtNtNtCs85QQFkKrybG_4core3ops4drop4Drop4dropBJ_, symObjAddr: 0x82FC, symBinAddr: 0x6E8DC, symSize: 0x38 }
  - { offset: 0x16306E, size: 0x8, addend: 0x0, symName: __RNvXsn_NtCsdFlNUEO95cG_5alloc3vecINtB5_3VecNtNtCscwCr4GBBztI_3syn4expr3ArmENtNtNtCs85QQFkKrybG_4core3ops4drop4Drop4dropBJ_, symObjAddr: 0x836C, symBinAddr: 0x6E914, symSize: 0x38 }
  - { offset: 0x16311E, size: 0x8, addend: 0x0, symName: __RNvXsn_NtCsdFlNUEO95cG_5alloc3vecINtB5_3VecNtNtCscwCr4GBBztI_3syn4expr6ExprIfENtNtNtCs85QQFkKrybG_4core3ops4drop4Drop4dropBJ_, symObjAddr: 0x83A4, symBinAddr: 0x6E94C, symSize: 0x38 }
  - { offset: 0x1631CE, size: 0x8, addend: 0x0, symName: __RNvXsn_NtCsdFlNUEO95cG_5alloc3vecINtB5_3VecNtNtCscwCr4GBBztI_3syn4item11ForeignItemENtNtNtCs85QQFkKrybG_4core3ops4drop4Drop4dropBJ_, symObjAddr: 0x83DC, symBinAddr: 0x6E984, symSize: 0x38 }
  - { offset: 0x16327E, size: 0x8, addend: 0x0, symName: __RNvXsn_NtCsdFlNUEO95cG_5alloc3vecINtB5_3VecNtNtCscwCr4GBBztI_3syn4item4ItemENtNtNtCs85QQFkKrybG_4core3ops4drop4Drop4dropBJ_, symObjAddr: 0x8414, symBinAddr: 0x6E9BC, symSize: 0x38 }
  - { offset: 0x16332E, size: 0x8, addend: 0x0, symName: __RNvXsn_NtCsdFlNUEO95cG_5alloc3vecINtB5_3VecNtNtCscwCr4GBBztI_3syn4item8ImplItemENtNtNtCs85QQFkKrybG_4core3ops4drop4Drop4dropBJ_, symObjAddr: 0x844C, symBinAddr: 0x6E9F4, symSize: 0x38 }
  - { offset: 0x1633DE, size: 0x8, addend: 0x0, symName: __RNvXsn_NtCsdFlNUEO95cG_5alloc3vecINtB5_3VecNtNtCscwCr4GBBztI_3syn4item9TraitItemENtNtNtCs85QQFkKrybG_4core3ops4drop4Drop4dropBJ_, symObjAddr: 0x8484, symBinAddr: 0x6EA2C, symSize: 0x38 }
  - { offset: 0x16348E, size: 0x8, addend: 0x0, symName: __RNvXsn_NtCsdFlNUEO95cG_5alloc3vecINtB5_3VecNtNtCscwCr4GBBztI_3syn4stmt4StmtENtNtNtCs85QQFkKrybG_4core3ops4drop4Drop4dropBJ_, symObjAddr: 0x84BC, symBinAddr: 0x6EA64, symSize: 0x38 }
  - { offset: 0x16353E, size: 0x8, addend: 0x0, symName: __RNvXsn_NtCsdFlNUEO95cG_5alloc3vecINtB5_3VecNtNtCscwCr4GBBztI_3syn5error12ErrorMessageENtNtNtCs85QQFkKrybG_4core3ops4drop4Drop4dropBJ_, symObjAddr: 0x84F4, symBinAddr: 0x6EA9C, symSize: 0x38 }
  - { offset: 0x1635EE, size: 0x8, addend: 0x0, symName: __RNvXsn_NtCsdFlNUEO95cG_5alloc3vecINtB5_3VecNtNtCscwCr4GBBztI_3syn6buffer5EntryENtNtNtCs85QQFkKrybG_4core3ops4drop4Drop4dropBJ_, symObjAddr: 0x852C, symBinAddr: 0x6EAD4, symSize: 0x38 }
  - { offset: 0x16369E, size: 0x8, addend: 0x0, symName: __RNvXsn_NtCsdFlNUEO95cG_5alloc3vecINtB5_3VecNtNtCscwCr4GBBztI_3syn8generics14TypeParamBoundENtNtNtCs85QQFkKrybG_4core3ops4drop4Drop4dropBJ_, symObjAddr: 0x8564, symBinAddr: 0x6EB0C, symSize: 0x38 }
  - { offset: 0x16374E, size: 0x8, addend: 0x0, symName: __RNvXsn_NtCsdFlNUEO95cG_5alloc3vecINtB5_3VecReENtNtNtCs85QQFkKrybG_4core3ops4drop4Drop4dropCscwCr4GBBztI_3syn, symObjAddr: 0x859C, symBinAddr: 0x6EB44, symSize: 0x24 }
  - { offset: 0x1637FE, size: 0x8, addend: 0x0, symName: __RNvXsn_NtCsdFlNUEO95cG_5alloc3vecINtB5_3VecTNtNtCscwCr4GBBztI_3syn2ty4TypeNtNtBK_5token5CommaEENtNtNtCs85QQFkKrybG_4core3ops4drop4Drop4dropBK_, symObjAddr: 0x85C0, symBinAddr: 0x6EB68, symSize: 0x38 }
  - { offset: 0x1638AE, size: 0x8, addend: 0x0, symName: __RNvXsn_NtCsdFlNUEO95cG_5alloc3vecINtB5_3VecTNtNtCscwCr4GBBztI_3syn2ty9BareFnArgNtNtBK_5token5CommaEENtNtNtCs85QQFkKrybG_4core3ops4drop4Drop4dropBK_, symObjAddr: 0x85F8, symBinAddr: 0x6EBA0, symSize: 0x38 }
  - { offset: 0x16395E, size: 0x8, addend: 0x0, symName: __RNvXsn_NtCsdFlNUEO95cG_5alloc3vecINtB5_3VecTNtNtCscwCr4GBBztI_3syn3pat3PatNtNtBK_5token2OrEENtNtNtCs85QQFkKrybG_4core3ops4drop4Drop4dropBK_, symObjAddr: 0x8630, symBinAddr: 0x6EBD8, symSize: 0x38 }
  - { offset: 0x163A0E, size: 0x8, addend: 0x0, symName: __RNvXsn_NtCsdFlNUEO95cG_5alloc3vecINtB5_3VecTNtNtCscwCr4GBBztI_3syn3pat3PatNtNtBK_5token5CommaEENtNtNtCs85QQFkKrybG_4core3ops4drop4Drop4dropBK_, symObjAddr: 0x8668, symBinAddr: 0x6EC10, symSize: 0x38 }
  - { offset: 0x163ABE, size: 0x8, addend: 0x0, symName: __RNvXsn_NtCsdFlNUEO95cG_5alloc3vecINtB5_3VecTNtNtCscwCr4GBBztI_3syn3pat8FieldPatNtNtBK_5token5CommaEENtNtNtCs85QQFkKrybG_4core3ops4drop4Drop4dropBK_, symObjAddr: 0x86A0, symBinAddr: 0x6EC48, symSize: 0x38 }
  - { offset: 0x163B6E, size: 0x8, addend: 0x0, symName: __RNvXsn_NtCsdFlNUEO95cG_5alloc3vecINtB5_3VecTNtNtCscwCr4GBBztI_3syn4data5FieldNtNtBK_5token5CommaEENtNtNtCs85QQFkKrybG_4core3ops4drop4Drop4dropBK_, symObjAddr: 0x86D8, symBinAddr: 0x6EC80, symSize: 0x38 }
  - { offset: 0x163C1E, size: 0x8, addend: 0x0, symName: __RNvXsn_NtCsdFlNUEO95cG_5alloc3vecINtB5_3VecTNtNtCscwCr4GBBztI_3syn4data7VariantNtNtBK_5token5CommaEENtNtNtCs85QQFkKrybG_4core3ops4drop4Drop4dropBK_, symObjAddr: 0x8748, symBinAddr: 0x6ECB8, symSize: 0x38 }
  - { offset: 0x163CCE, size: 0x8, addend: 0x0, symName: __RNvXsn_NtCsdFlNUEO95cG_5alloc3vecINtB5_3VecTNtNtCscwCr4GBBztI_3syn4expr10FieldValueNtNtBK_5token5CommaEENtNtNtCs85QQFkKrybG_4core3ops4drop4Drop4dropBK_, symObjAddr: 0x8780, symBinAddr: 0x6ECF0, symSize: 0x38 }
  - { offset: 0x163D7E, size: 0x8, addend: 0x0, symName: __RNvXsn_NtCsdFlNUEO95cG_5alloc3vecINtB5_3VecTNtNtCscwCr4GBBztI_3syn4expr4ExprNtNtBK_5token5CommaEENtNtNtCs85QQFkKrybG_4core3ops4drop4Drop4dropBK_, symObjAddr: 0x87B8, symBinAddr: 0x6ED28, symSize: 0x38 }
  - { offset: 0x163E2E, size: 0x8, addend: 0x0, symName: __RNvXsn_NtCsdFlNUEO95cG_5alloc3vecINtB5_3VecTNtNtCscwCr4GBBztI_3syn4item5FnArgNtNtBK_5token5CommaEENtNtNtCs85QQFkKrybG_4core3ops4drop4Drop4dropBK_, symObjAddr: 0x87F0, symBinAddr: 0x6ED60, symSize: 0x38 }
  - { offset: 0x163EDE, size: 0x8, addend: 0x0, symName: __RNvXsn_NtCsdFlNUEO95cG_5alloc3vecINtB5_3VecTNtNtCscwCr4GBBztI_3syn4item7UseTreeNtNtBK_5token5CommaEENtNtNtCs85QQFkKrybG_4core3ops4drop4Drop4dropBK_, symObjAddr: 0x8828, symBinAddr: 0x6ED98, symSize: 0x38 }
  - { offset: 0x163F8E, size: 0x8, addend: 0x0, symName: __RNvXsn_NtCsdFlNUEO95cG_5alloc3vecINtB5_3VecTNtNtCscwCr4GBBztI_3syn4path11PathSegmentNtNtBK_5token7PathSepEENtNtNtCs85QQFkKrybG_4core3ops4drop4Drop4dropBK_, symObjAddr: 0x8860, symBinAddr: 0x6EDD0, symSize: 0x38 }
  - { offset: 0x16403E, size: 0x8, addend: 0x0, symName: __RNvXsn_NtCsdFlNUEO95cG_5alloc3vecINtB5_3VecTNtNtCscwCr4GBBztI_3syn4path15GenericArgumentNtNtBK_5token5CommaEENtNtNtCs85QQFkKrybG_4core3ops4drop4Drop4dropBK_, symObjAddr: 0x8898, symBinAddr: 0x6EE08, symSize: 0x38 }
  - { offset: 0x1640EE, size: 0x8, addend: 0x0, symName: __RNvXsn_NtCsdFlNUEO95cG_5alloc3vecINtB5_3VecTNtNtCscwCr4GBBztI_3syn8generics12GenericParamNtNtBK_5token5CommaEENtNtNtCs85QQFkKrybG_4core3ops4drop4Drop4dropBK_, symObjAddr: 0x88D0, symBinAddr: 0x6EE40, symSize: 0x38 }
  - { offset: 0x16419E, size: 0x8, addend: 0x0, symName: __RNvXsn_NtCsdFlNUEO95cG_5alloc3vecINtB5_3VecTNtNtCscwCr4GBBztI_3syn8generics13CapturedParamNtNtBK_5token5CommaEENtNtNtCs85QQFkKrybG_4core3ops4drop4Drop4dropBK_, symObjAddr: 0x8908, symBinAddr: 0x6EE78, symSize: 0x38 }
  - { offset: 0x16424E, size: 0x8, addend: 0x0, symName: __RNvXsn_NtCsdFlNUEO95cG_5alloc3vecINtB5_3VecTNtNtCscwCr4GBBztI_3syn8generics14TypeParamBoundNtNtBK_5token4PlusEENtNtNtCs85QQFkKrybG_4core3ops4drop4Drop4dropBK_, symObjAddr: 0x8940, symBinAddr: 0x6EEB0, symSize: 0x38 }
  - { offset: 0x1642FE, size: 0x8, addend: 0x0, symName: __RNvXsn_NtCsdFlNUEO95cG_5alloc3vecINtB5_3VecTNtNtCscwCr4GBBztI_3syn8generics14WherePredicateNtNtBK_5token5CommaEENtNtNtCs85QQFkKrybG_4core3ops4drop4Drop4dropBK_, symObjAddr: 0x8978, symBinAddr: 0x6EEE8, symSize: 0x38 }
  - { offset: 0x1643AE, size: 0x8, addend: 0x0, symName: __RNvXsn_NtCsdFlNUEO95cG_5alloc3vecINtB5_3VecTNtNtCscwCr4GBBztI_3syn8lifetime8LifetimeNtNtBK_5token4PlusEENtNtNtCs85QQFkKrybG_4core3ops4drop4Drop4dropBK_, symObjAddr: 0x89B0, symBinAddr: 0x6EF20, symSize: 0x38 }
  - { offset: 0x164464, size: 0x8, addend: 0x0, symName: __RNvXsp_NtCsdFlNUEO95cG_5alloc3vecINtB5_3VecNtNtCscwCr4GBBztI_3syn5error12ErrorMessageENtNtCs85QQFkKrybG_4core3fmt5Debug3fmtBJ_, symObjAddr: 0x89E8, symBinAddr: 0x6EF58, symSize: 0x7C }
  - { offset: 0x164574, size: 0x8, addend: 0x0, symName: __RNvXsp_NtCsdFlNUEO95cG_5alloc3vecINtB5_3VechENtNtCs85QQFkKrybG_4core3fmt5Debug3fmtCscwCr4GBBztI_3syn, symObjAddr: 0x8A64, symBinAddr: 0x6EFD4, symSize: 0x78 }
  - { offset: 0x166A07, size: 0x8, addend: 0x0, symName: __RNvXsR_NtCsdFlNUEO95cG_5alloc6stringINtNtB7_3vec3VechEINtNtCs85QQFkKrybG_4core7convert4FromNtB5_6StringE4fromCscwCr4GBBztI_3syn, symObjAddr: 0x726C, symBinAddr: 0x6DBDC, symSize: 0x18 }
  - { offset: 0x166C49, size: 0x8, addend: 0x0, symName: __RNvXNvMs_NtNtCsdFlNUEO95cG_5alloc3ffi5c_strNtB7_7CString3newINtNtBb_3vec3VechENtB2_11SpecNewImpl13spec_new_implCscwCr4GBBztI_3syn, symObjAddr: 0x5B3C, symBinAddr: 0x6C860, symSize: 0x180 }
  - { offset: 0x16C33F, size: 0x8, addend: 0x0, symName: __RINvMs_NtCsdFlNUEO95cG_5alloc3vecINtB5_3VecReE10retain_mutNCNvMNtCscwCr4GBBztI_3syn9lookaheadNtBZ_10Lookahead15error0EB11_, symObjAddr: 0x0, symBinAddr: 0x672B4, symSize: 0x130 }
  - { offset: 0x16CA9C, size: 0x8, addend: 0x0, symName: __RNvMNtCsdFlNUEO95cG_5alloc3vecINtB2_3VecNtNtCscwCr4GBBztI_3syn4attr9AttributeE3newBG_, symObjAddr: 0x3FC, symBinAddr: 0x67668, symSize: 0x14 }
  - { offset: 0x16CAE4, size: 0x8, addend: 0x0, symName: __RNvMNtCsdFlNUEO95cG_5alloc3vecINtB2_3VecNtNtCscwCr4GBBztI_3syn4expr3ArmE3newBG_, symObjAddr: 0x458, symBinAddr: 0x6767C, symSize: 0x14 }
  - { offset: 0x16CB01, size: 0x8, addend: 0x0, symName: __RNvMNtCsdFlNUEO95cG_5alloc3vecINtB2_3VecNtNtCscwCr4GBBztI_3syn4expr6ExprIfE3newBG_, symObjAddr: 0x46C, symBinAddr: 0x67690, symSize: 0x14 }
  - { offset: 0x16CB1E, size: 0x8, addend: 0x0, symName: __RNvMNtCsdFlNUEO95cG_5alloc3vecINtB2_3VecNtNtCscwCr4GBBztI_3syn4item11ForeignItemE3newBG_, symObjAddr: 0x480, symBinAddr: 0x676A4, symSize: 0x14 }
  - { offset: 0x16CB3B, size: 0x8, addend: 0x0, symName: __RNvMNtCsdFlNUEO95cG_5alloc3vecINtB2_3VecNtNtCscwCr4GBBztI_3syn4item4ItemE3newBG_, symObjAddr: 0x494, symBinAddr: 0x676B8, symSize: 0x14 }
  - { offset: 0x16CB58, size: 0x8, addend: 0x0, symName: __RNvMNtCsdFlNUEO95cG_5alloc3vecINtB2_3VecNtNtCscwCr4GBBztI_3syn4item8ImplItemE3newBG_, symObjAddr: 0x4A8, symBinAddr: 0x676CC, symSize: 0x14 }
  - { offset: 0x16CB75, size: 0x8, addend: 0x0, symName: __RNvMNtCsdFlNUEO95cG_5alloc3vecINtB2_3VecNtNtCscwCr4GBBztI_3syn4item9TraitItemE3newBG_, symObjAddr: 0x4BC, symBinAddr: 0x676E0, symSize: 0x14 }
  - { offset: 0x16CB92, size: 0x8, addend: 0x0, symName: __RNvMNtCsdFlNUEO95cG_5alloc3vecINtB2_3VecNtNtCscwCr4GBBztI_3syn4stmt4StmtE3newBG_, symObjAddr: 0x4D0, symBinAddr: 0x676F4, symSize: 0x14 }
  - { offset: 0x16CBAF, size: 0x8, addend: 0x0, symName: __RNvMNtCsdFlNUEO95cG_5alloc3vecINtB2_3VecNtNtCscwCr4GBBztI_3syn6buffer5EntryE3newBG_, symObjAddr: 0x4E4, symBinAddr: 0x67708, symSize: 0x14 }
  - { offset: 0x16CC2E, size: 0x8, addend: 0x0, symName: __RNvMNtCsdFlNUEO95cG_5alloc3vecINtB2_3VecNtNtCscwCr4GBBztI_3syn8generics14TypeParamBoundE13with_capacityBG_, symObjAddr: 0x4F8, symBinAddr: 0x6771C, symSize: 0x48 }
  - { offset: 0x16CCA6, size: 0x8, addend: 0x0, symName: __RNvMNtCsdFlNUEO95cG_5alloc3vecINtB2_3VecReE3newCscwCr4GBBztI_3syn, symObjAddr: 0x540, symBinAddr: 0x67764, symSize: 0x14 }
  - { offset: 0x16CCC3, size: 0x8, addend: 0x0, symName: __RNvMNtCsdFlNUEO95cG_5alloc3vecINtB2_3VecTNtNtCscwCr4GBBztI_3syn2ty4TypeNtNtBH_5token5CommaEE3newBH_, symObjAddr: 0x554, symBinAddr: 0x67778, symSize: 0x14 }
  - { offset: 0x16CCE0, size: 0x8, addend: 0x0, symName: __RNvMNtCsdFlNUEO95cG_5alloc3vecINtB2_3VecTNtNtCscwCr4GBBztI_3syn2ty9BareFnArgNtNtBH_5token5CommaEE3newBH_, symObjAddr: 0x568, symBinAddr: 0x6778C, symSize: 0x14 }
  - { offset: 0x16CCFD, size: 0x8, addend: 0x0, symName: __RNvMNtCsdFlNUEO95cG_5alloc3vecINtB2_3VecTNtNtCscwCr4GBBztI_3syn3pat3PatNtNtBH_5token2OrEE3newBH_, symObjAddr: 0x57C, symBinAddr: 0x677A0, symSize: 0x14 }
  - { offset: 0x16CD1A, size: 0x8, addend: 0x0, symName: __RNvMNtCsdFlNUEO95cG_5alloc3vecINtB2_3VecTNtNtCscwCr4GBBztI_3syn3pat3PatNtNtBH_5token5CommaEE3newBH_, symObjAddr: 0x590, symBinAddr: 0x677B4, symSize: 0x14 }
  - { offset: 0x16CD37, size: 0x8, addend: 0x0, symName: __RNvMNtCsdFlNUEO95cG_5alloc3vecINtB2_3VecTNtNtCscwCr4GBBztI_3syn3pat8FieldPatNtNtBH_5token5CommaEE3newBH_, symObjAddr: 0x5A4, symBinAddr: 0x677C8, symSize: 0x14 }
  - { offset: 0x16CD54, size: 0x8, addend: 0x0, symName: __RNvMNtCsdFlNUEO95cG_5alloc3vecINtB2_3VecTNtNtCscwCr4GBBztI_3syn4data5FieldNtNtBH_5token5CommaEE3newBH_, symObjAddr: 0x5B8, symBinAddr: 0x677DC, symSize: 0x14 }
  - { offset: 0x16CD91, size: 0x8, addend: 0x0, symName: __RNvMNtCsdFlNUEO95cG_5alloc3vecINtB2_3VecTNtNtCscwCr4GBBztI_3syn4data7VariantNtNtBH_5token5CommaEE3newBH_, symObjAddr: 0x5E0, symBinAddr: 0x677F0, symSize: 0x14 }
  - { offset: 0x16CDAE, size: 0x8, addend: 0x0, symName: __RNvMNtCsdFlNUEO95cG_5alloc3vecINtB2_3VecTNtNtCscwCr4GBBztI_3syn4expr10FieldValueNtNtBH_5token5CommaEE3newBH_, symObjAddr: 0x5F4, symBinAddr: 0x67804, symSize: 0x14 }
  - { offset: 0x16CDCB, size: 0x8, addend: 0x0, symName: __RNvMNtCsdFlNUEO95cG_5alloc3vecINtB2_3VecTNtNtCscwCr4GBBztI_3syn4expr4ExprNtNtBH_5token5CommaEE3newBH_, symObjAddr: 0x608, symBinAddr: 0x67818, symSize: 0x14 }
  - { offset: 0x16CDE8, size: 0x8, addend: 0x0, symName: __RNvMNtCsdFlNUEO95cG_5alloc3vecINtB2_3VecTNtNtCscwCr4GBBztI_3syn4item5FnArgNtNtBH_5token5CommaEE3newBH_, symObjAddr: 0x61C, symBinAddr: 0x6782C, symSize: 0x14 }
  - { offset: 0x16CE05, size: 0x8, addend: 0x0, symName: __RNvMNtCsdFlNUEO95cG_5alloc3vecINtB2_3VecTNtNtCscwCr4GBBztI_3syn4item7UseTreeNtNtBH_5token5CommaEE3newBH_, symObjAddr: 0x630, symBinAddr: 0x67840, symSize: 0x14 }
  - { offset: 0x16CE22, size: 0x8, addend: 0x0, symName: __RNvMNtCsdFlNUEO95cG_5alloc3vecINtB2_3VecTNtNtCscwCr4GBBztI_3syn4path11PathSegmentNtNtBH_5token7PathSepEE3newBH_, symObjAddr: 0x644, symBinAddr: 0x67854, symSize: 0x14 }
  - { offset: 0x16CE3F, size: 0x8, addend: 0x0, symName: __RNvMNtCsdFlNUEO95cG_5alloc3vecINtB2_3VecTNtNtCscwCr4GBBztI_3syn4path15GenericArgumentNtNtBH_5token5CommaEE3newBH_, symObjAddr: 0x658, symBinAddr: 0x67868, symSize: 0x14 }
  - { offset: 0x16CE5C, size: 0x8, addend: 0x0, symName: __RNvMNtCsdFlNUEO95cG_5alloc3vecINtB2_3VecTNtNtCscwCr4GBBztI_3syn8generics12GenericParamNtNtBH_5token5CommaEE3newBH_, symObjAddr: 0x66C, symBinAddr: 0x6787C, symSize: 0x14 }
  - { offset: 0x16CE79, size: 0x8, addend: 0x0, symName: __RNvMNtCsdFlNUEO95cG_5alloc3vecINtB2_3VecTNtNtCscwCr4GBBztI_3syn8generics13CapturedParamNtNtBH_5token5CommaEE3newBH_, symObjAddr: 0x680, symBinAddr: 0x67890, symSize: 0x14 }
  - { offset: 0x16CE96, size: 0x8, addend: 0x0, symName: __RNvMNtCsdFlNUEO95cG_5alloc3vecINtB2_3VecTNtNtCscwCr4GBBztI_3syn8generics14TypeParamBoundNtNtBH_5token4PlusEE3newBH_, symObjAddr: 0x694, symBinAddr: 0x678A4, symSize: 0x14 }
  - { offset: 0x16CEB3, size: 0x8, addend: 0x0, symName: __RNvMNtCsdFlNUEO95cG_5alloc3vecINtB2_3VecTNtNtCscwCr4GBBztI_3syn8generics14WherePredicateNtNtBH_5token5CommaEE3newBH_, symObjAddr: 0x6A8, symBinAddr: 0x678B8, symSize: 0x14 }
  - { offset: 0x16CED0, size: 0x8, addend: 0x0, symName: __RNvMNtCsdFlNUEO95cG_5alloc3vecINtB2_3VecTNtNtCscwCr4GBBztI_3syn8lifetime8LifetimeNtNtBH_5token4PlusEE3newBH_, symObjAddr: 0x6BC, symBinAddr: 0x678CC, symSize: 0x14 }
  - { offset: 0x16CEED, size: 0x8, addend: 0x0, symName: __RNvMNtCsdFlNUEO95cG_5alloc3vecINtB2_3VechE3newCscwCr4GBBztI_3syn, symObjAddr: 0x6D0, symBinAddr: 0x678E0, symSize: 0x14 }
  - { offset: 0x16D010, size: 0x8, addend: 0x0, symName: __RNvMs0_NtCsdFlNUEO95cG_5alloc3vecINtB5_3VechE17extend_from_sliceCscwCr4GBBztI_3syn, symObjAddr: 0x6E4, symBinAddr: 0x678F4, symSize: 0x74 }
  - { offset: 0x16D286, size: 0x8, addend: 0x0, symName: __RNvMs0_NtCsdFlNUEO95cG_5alloc3vecINtB5_3VechE6resizeCscwCr4GBBztI_3syn, symObjAddr: 0x758, symBinAddr: 0x67968, symSize: 0x100 }
  - { offset: 0x16D549, size: 0x8, addend: 0x0, symName: __RNvMs2_NtCsdFlNUEO95cG_5alloc3vecINtB5_3VechE11extend_withCscwCr4GBBztI_3syn, symObjAddr: 0x858, symBinAddr: 0x67A68, symSize: 0x22C }
  - { offset: 0x16D93B, size: 0x8, addend: 0x0, symName: __RNvMs_NtCsdFlNUEO95cG_5alloc3vecINtB4_3VecNtNtCscwCr4GBBztI_3syn4attr9AttributeE15append_elementsBI_, symObjAddr: 0xA84, symBinAddr: 0x67C94, symSize: 0xE0 }
  - { offset: 0x16DACD, size: 0x8, addend: 0x0, symName: __RNvMs_NtCsdFlNUEO95cG_5alloc3vecINtB4_3VecNtNtCscwCr4GBBztI_3syn4attr9AttributeE4pushBI_, symObjAddr: 0xB64, symBinAddr: 0x67D74, symSize: 0x24 }
  - { offset: 0x16DC7B, size: 0x8, addend: 0x0, symName: __RNvMs_NtCsdFlNUEO95cG_5alloc3vecINtB4_3VecNtNtCscwCr4GBBztI_3syn4attr9AttributeE6appendBI_, symObjAddr: 0xB88, symBinAddr: 0x67D98, symSize: 0xDC }
  - { offset: 0x16DF4A, size: 0x8, addend: 0x0, symName: __RNvMs_NtCsdFlNUEO95cG_5alloc3vecINtB4_3VecNtNtCscwCr4GBBztI_3syn4attr9AttributeE7reserveBI_, symObjAddr: 0xC64, symBinAddr: 0x67E74, symSize: 0xC8 }
  - { offset: 0x16E135, size: 0x8, addend: 0x0, symName: __RNvMs_NtCsdFlNUEO95cG_5alloc3vecINtB4_3VecNtNtCscwCr4GBBztI_3syn4attr9AttributeE7set_lenBI_, symObjAddr: 0xD2C, symBinAddr: 0x67F3C, symSize: 0x80 }
  - { offset: 0x16E27E, size: 0x8, addend: 0x0, symName: __RNvMs_NtCsdFlNUEO95cG_5alloc3vecINtB4_3VecNtNtCscwCr4GBBztI_3syn4attr9AttributeE8as_sliceBI_, symObjAddr: 0xDAC, symBinAddr: 0x67FBC, symSize: 0x6C }
  - { offset: 0x16E35D, size: 0x8, addend: 0x0, symName: __RNvMs_NtCsdFlNUEO95cG_5alloc3vecINtB4_3VecNtNtCscwCr4GBBztI_3syn4attr9AttributeE8is_emptyBI_, symObjAddr: 0xE18, symBinAddr: 0x68028, symSize: 0x20 }
  - { offset: 0x16E49C, size: 0x8, addend: 0x0, symName: __RNvMs_NtCsdFlNUEO95cG_5alloc3vecINtB4_3VecNtNtCscwCr4GBBztI_3syn4attr9AttributeE8push_mutBI_, symObjAddr: 0xE38, symBinAddr: 0x68048, symSize: 0x11C }
  - { offset: 0x16E67A, size: 0x8, addend: 0x0, symName: __RNvMs_NtCsdFlNUEO95cG_5alloc3vecINtB4_3VecNtNtCscwCr4GBBztI_3syn4expr3ArmE3lenBI_, symObjAddr: 0x109C, symBinAddr: 0x68164, symSize: 0x18 }
  - { offset: 0x16E6BC, size: 0x8, addend: 0x0, symName: __RNvMs_NtCsdFlNUEO95cG_5alloc3vecINtB4_3VecNtNtCscwCr4GBBztI_3syn4expr3ArmE4pushBI_, symObjAddr: 0x10B4, symBinAddr: 0x6817C, symSize: 0x24 }
  - { offset: 0x16E792, size: 0x8, addend: 0x0, symName: __RNvMs_NtCsdFlNUEO95cG_5alloc3vecINtB4_3VecNtNtCscwCr4GBBztI_3syn4expr3ArmE7set_lenBI_, symObjAddr: 0x10D8, symBinAddr: 0x681A0, symSize: 0x80 }
  - { offset: 0x16E91C, size: 0x8, addend: 0x0, symName: __RNvMs_NtCsdFlNUEO95cG_5alloc3vecINtB4_3VecNtNtCscwCr4GBBztI_3syn4expr3ArmE8as_sliceBI_, symObjAddr: 0x1158, symBinAddr: 0x68220, symSize: 0x6C }
  - { offset: 0x16EAC2, size: 0x8, addend: 0x0, symName: __RNvMs_NtCsdFlNUEO95cG_5alloc3vecINtB4_3VecNtNtCscwCr4GBBztI_3syn4expr3ArmE8push_mutBI_, symObjAddr: 0x11C4, symBinAddr: 0x6828C, symSize: 0x124 }
  - { offset: 0x16EDD3, size: 0x8, addend: 0x0, symName: __RNvMs_NtCsdFlNUEO95cG_5alloc3vecINtB4_3VecNtNtCscwCr4GBBztI_3syn4expr6ExprIfE3popBI_, symObjAddr: 0x12E8, symBinAddr: 0x683B0, symSize: 0x108 }
  - { offset: 0x16EF68, size: 0x8, addend: 0x0, symName: __RNvMs_NtCsdFlNUEO95cG_5alloc3vecINtB4_3VecNtNtCscwCr4GBBztI_3syn4expr6ExprIfE4pushBI_, symObjAddr: 0x13F0, symBinAddr: 0x684B8, symSize: 0x24 }
  - { offset: 0x16F099, size: 0x8, addend: 0x0, symName: __RNvMs_NtCsdFlNUEO95cG_5alloc3vecINtB4_3VecNtNtCscwCr4GBBztI_3syn4expr6ExprIfE8push_mutBI_, symObjAddr: 0x1414, symBinAddr: 0x684DC, symSize: 0x124 }
  - { offset: 0x16F25D, size: 0x8, addend: 0x0, symName: __RNvMs_NtCsdFlNUEO95cG_5alloc3vecINtB4_3VecNtNtCscwCr4GBBztI_3syn4item11ForeignItemE4pushBI_, symObjAddr: 0x1538, symBinAddr: 0x68600, symSize: 0x24 }
  - { offset: 0x16F340, size: 0x8, addend: 0x0, symName: __RNvMs_NtCsdFlNUEO95cG_5alloc3vecINtB4_3VecNtNtCscwCr4GBBztI_3syn4item11ForeignItemE7set_lenBI_, symObjAddr: 0x155C, symBinAddr: 0x68624, symSize: 0x80 }
  - { offset: 0x16F51F, size: 0x8, addend: 0x0, symName: __RNvMs_NtCsdFlNUEO95cG_5alloc3vecINtB4_3VecNtNtCscwCr4GBBztI_3syn4item11ForeignItemE8push_mutBI_, symObjAddr: 0x15DC, symBinAddr: 0x686A4, symSize: 0x124 }
  - { offset: 0x16F6E3, size: 0x8, addend: 0x0, symName: __RNvMs_NtCsdFlNUEO95cG_5alloc3vecINtB4_3VecNtNtCscwCr4GBBztI_3syn4item4ItemE4pushBI_, symObjAddr: 0x1700, symBinAddr: 0x687C8, symSize: 0x24 }
  - { offset: 0x16F7C6, size: 0x8, addend: 0x0, symName: __RNvMs_NtCsdFlNUEO95cG_5alloc3vecINtB4_3VecNtNtCscwCr4GBBztI_3syn4item4ItemE7set_lenBI_, symObjAddr: 0x1724, symBinAddr: 0x687EC, symSize: 0x80 }
  - { offset: 0x16F9A5, size: 0x8, addend: 0x0, symName: __RNvMs_NtCsdFlNUEO95cG_5alloc3vecINtB4_3VecNtNtCscwCr4GBBztI_3syn4item4ItemE8push_mutBI_, symObjAddr: 0x17A4, symBinAddr: 0x6886C, symSize: 0x124 }
  - { offset: 0x16FB69, size: 0x8, addend: 0x0, symName: __RNvMs_NtCsdFlNUEO95cG_5alloc3vecINtB4_3VecNtNtCscwCr4GBBztI_3syn4item8ImplItemE4pushBI_, symObjAddr: 0x18C8, symBinAddr: 0x68990, symSize: 0x24 }
  - { offset: 0x16FC4C, size: 0x8, addend: 0x0, symName: __RNvMs_NtCsdFlNUEO95cG_5alloc3vecINtB4_3VecNtNtCscwCr4GBBztI_3syn4item8ImplItemE7set_lenBI_, symObjAddr: 0x18EC, symBinAddr: 0x689B4, symSize: 0x80 }
  - { offset: 0x16FE2B, size: 0x8, addend: 0x0, symName: __RNvMs_NtCsdFlNUEO95cG_5alloc3vecINtB4_3VecNtNtCscwCr4GBBztI_3syn4item8ImplItemE8push_mutBI_, symObjAddr: 0x196C, symBinAddr: 0x68A34, symSize: 0x124 }
  - { offset: 0x16FFEF, size: 0x8, addend: 0x0, symName: __RNvMs_NtCsdFlNUEO95cG_5alloc3vecINtB4_3VecNtNtCscwCr4GBBztI_3syn4item9TraitItemE4pushBI_, symObjAddr: 0x1A90, symBinAddr: 0x68B58, symSize: 0x24 }
  - { offset: 0x1700D2, size: 0x8, addend: 0x0, symName: __RNvMs_NtCsdFlNUEO95cG_5alloc3vecINtB4_3VecNtNtCscwCr4GBBztI_3syn4item9TraitItemE7set_lenBI_, symObjAddr: 0x1AB4, symBinAddr: 0x68B7C, symSize: 0x80 }
  - { offset: 0x1702B1, size: 0x8, addend: 0x0, symName: __RNvMs_NtCsdFlNUEO95cG_5alloc3vecINtB4_3VecNtNtCscwCr4GBBztI_3syn4item9TraitItemE8push_mutBI_, symObjAddr: 0x1B34, symBinAddr: 0x68BFC, symSize: 0x124 }
  - { offset: 0x170475, size: 0x8, addend: 0x0, symName: __RNvMs_NtCsdFlNUEO95cG_5alloc3vecINtB4_3VecNtNtCscwCr4GBBztI_3syn4stmt4StmtE4pushBI_, symObjAddr: 0x1C58, symBinAddr: 0x68D20, symSize: 0x24 }
  - { offset: 0x170558, size: 0x8, addend: 0x0, symName: __RNvMs_NtCsdFlNUEO95cG_5alloc3vecINtB4_3VecNtNtCscwCr4GBBztI_3syn4stmt4StmtE7set_lenBI_, symObjAddr: 0x1C7C, symBinAddr: 0x68D44, symSize: 0x80 }
  - { offset: 0x170737, size: 0x8, addend: 0x0, symName: __RNvMs_NtCsdFlNUEO95cG_5alloc3vecINtB4_3VecNtNtCscwCr4GBBztI_3syn4stmt4StmtE8push_mutBI_, symObjAddr: 0x1CFC, symBinAddr: 0x68DC4, symSize: 0x124 }
  - { offset: 0x170A4B, size: 0x8, addend: 0x0, symName: __RNvMs_NtCsdFlNUEO95cG_5alloc3vecINtB4_3VecNtNtCscwCr4GBBztI_3syn5error12ErrorMessageE17from_raw_parts_inBI_, symObjAddr: 0x1F08, symBinAddr: 0x68EE8, symSize: 0xA8 }
  - { offset: 0x170BD1, size: 0x8, addend: 0x0, symName: __RNvMs_NtCsdFlNUEO95cG_5alloc3vecINtB4_3VecNtNtCscwCr4GBBztI_3syn5error12ErrorMessageE3lenBI_, symObjAddr: 0x1FB0, symBinAddr: 0x68F90, symSize: 0x18 }
  - { offset: 0x170D5E, size: 0x8, addend: 0x0, symName: __RNvMs_NtCsdFlNUEO95cG_5alloc3vecINtB4_3VecNtNtCscwCr4GBBztI_3syn6buffer5EntryE13shrink_to_fitBI_, symObjAddr: 0x217C, symBinAddr: 0x68FA8, symSize: 0xE8 }
  - { offset: 0x170FD5, size: 0x8, addend: 0x0, symName: __RNvMs_NtCsdFlNUEO95cG_5alloc3vecINtB4_3VecNtNtCscwCr4GBBztI_3syn6buffer5EntryE16into_boxed_sliceBI_, symObjAddr: 0x2264, symBinAddr: 0x69090, symSize: 0x12C }
  - { offset: 0x1711A5, size: 0x8, addend: 0x0, symName: __RNvMs_NtCsdFlNUEO95cG_5alloc3vecINtB4_3VecNtNtCscwCr4GBBztI_3syn6buffer5EntryE3lenBI_, symObjAddr: 0x2390, symBinAddr: 0x691BC, symSize: 0x18 }
  - { offset: 0x1711DA, size: 0x8, addend: 0x0, symName: __RNvMs_NtCsdFlNUEO95cG_5alloc3vecINtB4_3VecNtNtCscwCr4GBBztI_3syn6buffer5EntryE4pushBI_, symObjAddr: 0x23A8, symBinAddr: 0x691D4, symSize: 0x24 }
  - { offset: 0x171318, size: 0x8, addend: 0x0, symName: __RNvMs_NtCsdFlNUEO95cG_5alloc3vecINtB4_3VecNtNtCscwCr4GBBztI_3syn6buffer5EntryE8push_mutBI_, symObjAddr: 0x23CC, symBinAddr: 0x691F8, symSize: 0x100 }
  - { offset: 0x1714D9, size: 0x8, addend: 0x0, symName: __RNvMs_NtCsdFlNUEO95cG_5alloc3vecINtB4_3VecNtNtCscwCr4GBBztI_3syn8generics14TypeParamBoundE4pushBI_, symObjAddr: 0x24CC, symBinAddr: 0x692F8, symSize: 0x24 }
  - { offset: 0x171631, size: 0x8, addend: 0x0, symName: __RNvMs_NtCsdFlNUEO95cG_5alloc3vecINtB4_3VecNtNtCscwCr4GBBztI_3syn8generics14TypeParamBoundE8push_mutBI_, symObjAddr: 0x24F0, symBinAddr: 0x6931C, symSize: 0x124 }
  - { offset: 0x1717E8, size: 0x8, addend: 0x0, symName: __RNvMs_NtCsdFlNUEO95cG_5alloc3vecINtB4_3VecReE3lenCscwCr4GBBztI_3syn, symObjAddr: 0x2614, symBinAddr: 0x69440, symSize: 0x18 }
  - { offset: 0x17181D, size: 0x8, addend: 0x0, symName: __RNvMs_NtCsdFlNUEO95cG_5alloc3vecINtB4_3VecReE4pushCscwCr4GBBztI_3syn, symObjAddr: 0x262C, symBinAddr: 0x69458, symSize: 0x30 }
  - { offset: 0x1718F8, size: 0x8, addend: 0x0, symName: __RNvMs_NtCsdFlNUEO95cG_5alloc3vecINtB4_3VecReE8as_sliceCscwCr4GBBztI_3syn, symObjAddr: 0x265C, symBinAddr: 0x69488, symSize: 0x6C }
  - { offset: 0x171A91, size: 0x8, addend: 0x0, symName: __RNvMs_NtCsdFlNUEO95cG_5alloc3vecINtB4_3VecReE8push_mutCscwCr4GBBztI_3syn, symObjAddr: 0x26C8, symBinAddr: 0x694F4, symSize: 0xF4 }
