---
triple:          'arm64-apple-darwin'
binary-path:     '/Users/johnhjediny/Documents/GitHub/json-schema-x-graphql/converters/rust/target/debug/build/num-traits-01130d06d26ddf90/build_script_build-01130d06d26ddf90'
relocations:
  - { offset: 0x1E, size: 0x8, addend: 0x0, symName: __RINvNtCswz7ZwgBZOU_3std2rt10lang_startuECsfeXRKXmlV9y_18build_script_build, symObjAddr: 0x0, symBinAddr: 0x100000BF0, symSize: 0x60 }
  - { offset: 0x5B, size: 0x8, addend: 0x0, symName: __RNCINvNtCswz7ZwgBZOU_3std2rt10lang_startuE0CsfeXRKXmlV9y_18build_script_build, symObjAddr: 0x84, symBinAddr: 0x100000C74, symSize: 0x34 }
  - { offset: 0xC5, size: 0x8, addend: 0x0, symName: __RINvNtCswz7ZwgBZOU_3std2rt10lang_startuECsfeXRKXmlV9y_18build_script_build, symObjAddr: 0x0, symBinAddr: 0x100000BF0, symSize: 0x60 }
  - { offset: 0x12F, size: 0x8, addend: 0x0, symName: __RINvNtNtCswz7ZwgBZOU_3std3sys9backtrace28___rust_begin_short_backtraceFEuuECsfeXRKXmlV9y_18build_script_build, symObjAddr: 0x60, symBinAddr: 0x100000C50, symSize: 0x24 }
  - { offset: 0x238, size: 0x8, addend: 0x0, symName: __RNvXsZ_NtCswz7ZwgBZOU_3std7processuNtB5_11Termination6reportCsfeXRKXmlV9y_18build_script_build, symObjAddr: 0x190, symBinAddr: 0x100000D80, symSize: 0x10 }
  - { offset: 0x2ED, size: 0x8, addend: 0x0, symName: __RNSNvYNCINvNtCswz7ZwgBZOU_3std2rt10lang_startuE0INtNtNtCs85QQFkKrybG_4core3ops8function6FnOnceuE9call_once6vtableCsfeXRKXmlV9y_18build_script_build, symObjAddr: 0xB8, symBinAddr: 0x100000CA8, symSize: 0x28 }
  - { offset: 0x331, size: 0x8, addend: 0x0, symName: __RNvYFEuINtNtNtCs85QQFkKrybG_4core3ops8function6FnOnceuE9call_onceCsfeXRKXmlV9y_18build_script_build, symObjAddr: 0x1A0, symBinAddr: 0x100000D90, symSize: 0x20 }
  - { offset: 0x371, size: 0x8, addend: 0x0, symName: __RNvYNCINvNtCswz7ZwgBZOU_3std2rt10lang_startuE0INtNtNtCs85QQFkKrybG_4core3ops8function6FnOnceuE9call_onceCsfeXRKXmlV9y_18build_script_build, symObjAddr: 0x1C0, symBinAddr: 0x100000DB0, symSize: 0x4C }
  - { offset: 0x5D5, size: 0x8, addend: 0x0, symName: __RNvCsfeXRKXmlV9y_18build_script_build4main, symObjAddr: 0xE0, symBinAddr: 0x100000CD0, symSize: 0xB0 }
  - { offset: 0x871, size: 0x8, addend: 0x0, symName: __RINvMs6_NtCsfieuf5LernF_9hashbrown3rawINtB6_8RawTableTyuEE14reserve_rehashNCINvNtB8_3map11make_hasheryuNtNtNtCswz7ZwgBZOU_3std4hash6random11RandomStateE0ECsfeCe8ey9dfJ_7autocfg, symObjAddr: 0x0, symBinAddr: 0x10005427C, symSize: 0x7D0 }
  - { offset: 0x8AD, size: 0x8, addend: 0x0, symName: __RNCINvMs6_NtCsfieuf5LernF_9hashbrown3rawINtB8_8RawTableTyuEE14reserve_rehashNCINvNtBa_3map11make_hasheryuNtNtNtCswz7ZwgBZOU_3std4hash6random11RandomStateE0E0CsfeCe8ey9dfJ_7autocfg, symObjAddr: 0x10D4, symBinAddr: 0x10000174C, symSize: 0xC8 }
  - { offset: 0xA78, size: 0x8, addend: 0x0, symName: __RNCINvMs6_NtCsfieuf5LernF_9hashbrown3rawINtB8_8RawTableTyuEE24find_or_find_insert_slotNCINvNtBa_3map14equivalent_keyyyuE0NCINvB1r_11make_hasheryuNtNtNtCswz7ZwgBZOU_3std4hash6random11RandomStateE0E0CsfeCe8ey9dfJ_7autocfg, symObjAddr: 0x119C, symBinAddr: 0x100001814, symSize: 0xCC }
  - { offset: 0x13C5, size: 0x8, addend: 0x0, symName: __RNCINvMsa_NtCsfieuf5LernF_9hashbrown3rawNtB8_13RawTableInner14prepare_resizeNtNtCsdFlNUEO95cG_5alloc5alloc6GlobalE0CsfeCe8ey9dfJ_7autocfg, symObjAddr: 0x1268, symBinAddr: 0x1000018E0, symSize: 0xBC }
  - { offset: 0x15B0, size: 0x8, addend: 0x0, symName: __RNCNvMsa_NtCsfieuf5LernF_9hashbrown3rawNtB7_13RawTableInner15rehash_in_place0CsfeCe8ey9dfJ_7autocfg, symObjAddr: 0x1324, symBinAddr: 0x10000199C, symSize: 0x22C }
  - { offset: 0x1BFA, size: 0x8, addend: 0x0, symName: __RNvNtCsfieuf5LernF_9hashbrown3raw19capacity_to_bucketsCsfeCe8ey9dfJ_7autocfg, symObjAddr: 0x2904, symBinAddr: 0x100002F7C, symSize: 0x218 }
  - { offset: 0x1E13, size: 0x8, addend: 0x0, symName: __RNvXsB_NtCsfieuf5LernF_9hashbrown3rawINtB5_11RawIntoIterTyuEENtNtNtCs85QQFkKrybG_4core3ops4drop4Drop4dropCsfeCe8ey9dfJ_7autocfg, symObjAddr: 0x2B1C, symBinAddr: 0x100003194, symSize: 0x74 }
  - { offset: 0x1ECF, size: 0x8, addend: 0x0, symName: __RNvXsD_NtCsfieuf5LernF_9hashbrown3rawINtB5_11RawIntoIterTyuEENtNtNtNtCs85QQFkKrybG_4core4iter6traits8iterator8Iterator4nextCsfeCe8ey9dfJ_7autocfg, symObjAddr: 0x2B90, symBinAddr: 0x100003208, symSize: 0xF8 }
  - { offset: 0x2064, size: 0x8, addend: 0x0, symName: __RNvXsg_NtCsfieuf5LernF_9hashbrown3rawINtB5_8RawTableTyuEENtNtNtCs85QQFkKrybG_4core3ops4drop4Drop4dropCsfeCe8ey9dfJ_7autocfg, symObjAddr: 0x2C88, symBinAddr: 0x100003300, symSize: 0x38 }
  - { offset: 0x20A6, size: 0x8, addend: 0x0, symName: __RNvXsh_NtCsfieuf5LernF_9hashbrown3rawINtB5_8RawTableTyuEENtNtNtNtCs85QQFkKrybG_4core4iter6traits7collect12IntoIterator9into_iterCsfeCe8ey9dfJ_7autocfg, symObjAddr: 0x2CC0, symBinAddr: 0x100003338, symSize: 0x11C }
  - { offset: 0x59CF, size: 0x8, addend: 0x0, symName: __RINvMs6_NtCsfieuf5LernF_9hashbrown3rawINtB6_8RawTableTyuEE14reserve_rehashNCINvNtB8_3map11make_hasheryuNtNtNtCswz7ZwgBZOU_3std4hash6random11RandomStateE0ECsfeCe8ey9dfJ_7autocfg, symObjAddr: 0x0, symBinAddr: 0x10005427C, symSize: 0x7D0 }
  - { offset: 0x6421, size: 0x8, addend: 0x0, symName: __RINvMs6_NtCsfieuf5LernF_9hashbrown3rawINtB6_8RawTableTyuEE24find_or_find_insert_slotNCINvNtB8_3map14equivalent_keyyyuE0NCINvB1p_11make_hasheryuNtNtNtCswz7ZwgBZOU_3std4hash6random11RandomStateE0ECsfeCe8ey9dfJ_7autocfg, symObjAddr: 0x7D0, symBinAddr: 0x100000E48, symSize: 0x140 }
  - { offset: 0x6615, size: 0x8, addend: 0x0, symName: __RINvMs6_NtCsfieuf5LernF_9hashbrown3rawINtB6_8RawTableTyuEE7reserveNCINvNtB8_3map11make_hasheryuNtNtNtCswz7ZwgBZOU_3std4hash6random11RandomStateE0ECsfeCe8ey9dfJ_7autocfg, symObjAddr: 0x910, symBinAddr: 0x100000F88, symSize: 0xCC }
  - { offset: 0x6789, size: 0x8, addend: 0x0, symName: __RINvMsa_NtCsfieuf5LernF_9hashbrown3rawNtB6_13RawTableInner13drop_elementsTyuEECsfeCe8ey9dfJ_7autocfg, symObjAddr: 0x9DC, symBinAddr: 0x100001054, symSize: 0x28 }
  - { offset: 0x69F3, size: 0x8, addend: 0x0, symName: __RINvMsa_NtCsfieuf5LernF_9hashbrown3rawNtB6_13RawTableInner16drop_inner_tableTyuENtNtCsdFlNUEO95cG_5alloc5alloc6GlobalECsfeCe8ey9dfJ_7autocfg, symObjAddr: 0xA04, symBinAddr: 0x10000107C, symSize: 0xBC }
  - { offset: 0x6C0E, size: 0x8, addend: 0x0, symName: __RINvMsa_NtCsfieuf5LernF_9hashbrown3rawNtB6_13RawTableInner17new_uninitializedNtNtCsdFlNUEO95cG_5alloc5alloc6GlobalECsfeCe8ey9dfJ_7autocfg, symObjAddr: 0xAC0, symBinAddr: 0x100001138, symSize: 0x1B0 }
  - { offset: 0x6E63, size: 0x8, addend: 0x0, symName: __RINvMsa_NtCsfieuf5LernF_9hashbrown3rawNtB6_13RawTableInner22fallible_with_capacityNtNtCsdFlNUEO95cG_5alloc5alloc6GlobalECsfeCe8ey9dfJ_7autocfg, symObjAddr: 0xC70, symBinAddr: 0x1000012E8, symSize: 0x27C }
  - { offset: 0x72F5, size: 0x8, addend: 0x0, symName: __RINvMsi_NtCsfieuf5LernF_9hashbrown3rawINtB6_12RawIterRangeTyuEE9next_implKb0_ECsfeCe8ey9dfJ_7autocfg, symObjAddr: 0xEEC, symBinAddr: 0x100001564, symSize: 0x1E8 }
  - { offset: 0x7ABC, size: 0x8, addend: 0x0, symName: __RNvMs1_NtCsfieuf5LernF_9hashbrown3rawNtB5_11TableLayout20calculate_layout_forCsfeCe8ey9dfJ_7autocfg, symObjAddr: 0x1550, symBinAddr: 0x100001BC8, symSize: 0x220 }
  - { offset: 0x7F67, size: 0x8, addend: 0x0, symName: __RNvMs6_NtCsfieuf5LernF_9hashbrown3rawINtB5_8RawTableTyuEE14insert_in_slotCsfeCe8ey9dfJ_7autocfg, symObjAddr: 0x1770, symBinAddr: 0x100001DE8, symSize: 0x138 }
  - { offset: 0x831F, size: 0x8, addend: 0x0, symName: __RNvMs6_NtCsfieuf5LernF_9hashbrown3rawINtB5_8RawTableTyuEE14into_iter_fromCsfeCe8ey9dfJ_7autocfg, symObjAddr: 0x18A8, symBinAddr: 0x100001F20, symSize: 0x90 }
  - { offset: 0x840B, size: 0x8, addend: 0x0, symName: __RNvMs6_NtCsfieuf5LernF_9hashbrown3rawINtB5_8RawTableTyuEE15into_allocationCsfeCe8ey9dfJ_7autocfg, symObjAddr: 0x1938, symBinAddr: 0x100001FB0, symSize: 0x138 }
  - { offset: 0x863E, size: 0x8, addend: 0x0, symName: __RNvMsa_NtCsfieuf5LernF_9hashbrown3rawNtB5_13RawTableInner15fix_insert_slotCsfeCe8ey9dfJ_7autocfg, symObjAddr: 0x1A70, symBinAddr: 0x1000020E8, symSize: 0x124 }
  - { offset: 0x89C4, size: 0x8, addend: 0x0, symName: __RNvMsa_NtCsfieuf5LernF_9hashbrown3rawNtB5_13RawTableInner15rehash_in_placeCsfeCe8ey9dfJ_7autocfg, symObjAddr: 0x1B94, symBinAddr: 0x10000220C, symSize: 0x4AC }
  - { offset: 0x91DD, size: 0x8, addend: 0x0, symName: __RNvMsa_NtCsfieuf5LernF_9hashbrown3rawNtB5_13RawTableInner16find_insert_slotCsfeCe8ey9dfJ_7autocfg, symObjAddr: 0x2040, symBinAddr: 0x1000026B8, symSize: 0x10C }
  - { offset: 0x93D6, size: 0x8, addend: 0x0, symName: __RNvMsa_NtCsfieuf5LernF_9hashbrown3rawNtB5_13RawTableInner19prepare_insert_slotCsfeCe8ey9dfJ_7autocfg, symObjAddr: 0x214C, symBinAddr: 0x1000027C4, symSize: 0x74 }
  - { offset: 0x96C7, size: 0x8, addend: 0x0, symName: __RNvMsa_NtCsfieuf5LernF_9hashbrown3rawNtB5_13RawTableInner23prepare_rehash_in_placeCsfeCe8ey9dfJ_7autocfg, symObjAddr: 0x21C0, symBinAddr: 0x100002838, symSize: 0x254 }
  - { offset: 0x9DE7, size: 0x8, addend: 0x0, symName: __RNvMsa_NtCsfieuf5LernF_9hashbrown3rawNtB5_13RawTableInner25find_insert_slot_in_groupCsfeCe8ey9dfJ_7autocfg, symObjAddr: 0x2414, symBinAddr: 0x100002A8C, symSize: 0x15C }
  - { offset: 0xA0D1, size: 0x8, addend: 0x0, symName: __RNvMsa_NtCsfieuf5LernF_9hashbrown3rawNtB5_13RawTableInner30find_or_find_insert_slot_innerCsfeCe8ey9dfJ_7autocfg, symObjAddr: 0x2570, symBinAddr: 0x100002BE8, symSize: 0x2B8 }
  - { offset: 0xA4D2, size: 0x8, addend: 0x0, symName: __RNvMsi_NtCsfieuf5LernF_9hashbrown3rawINtB5_12RawIterRangeTyuEE3newCsfeCe8ey9dfJ_7autocfg, symObjAddr: 0x2828, symBinAddr: 0x100002EA0, symSize: 0xC0 }
  - { offset: 0xA76A, size: 0x8, addend: 0x0, symName: __RNvMso_NtCsfieuf5LernF_9hashbrown3rawINtB5_7RawIterTyuEE13drop_elementsCsfeCe8ey9dfJ_7autocfg, symObjAddr: 0x28E8, symBinAddr: 0x100002F60, symSize: 0x1C }
  - { offset: 0xA990, size: 0x8, addend: 0x0, symName: __RINvMs_NtNtCs85QQFkKrybG_4core3fmt2rtNtB7_9Arguments6new_v1Kj1_KBW_ECsfeCe8ey9dfJ_7autocfg, symObjAddr: 0x0, symBinAddr: 0x100003454, symSize: 0x50 }
  - { offset: 0xB85F, size: 0x8, addend: 0x0, symName: __RNvXs19_NtCs85QQFkKrybG_4core3fmtRReNtB6_5Debug3fmtCsfeCe8ey9dfJ_7autocfg, symObjAddr: 0x26E8, symBinAddr: 0x100005970, symSize: 0x30 }
  - { offset: 0xC92A, size: 0x8, addend: 0x0, symName: __RINvNtCs85QQFkKrybG_4core3mem4dropNtNtCswz7ZwgBZOU_3std7process10ChildStdinECsfeCe8ey9dfJ_7autocfg, symObjAddr: 0x1024, symBinAddr: 0x100004428, symSize: 0x28 }
  - { offset: 0xCE43, size: 0x8, addend: 0x0, symName: __RNvXs1_NtNtNtCs85QQFkKrybG_4core4iter8adapters6filterINtB5_6FilterINtNtB7_3map3MapINtNtNtBb_3str4iter5SplitcENvMB1n_e4trimENCNvCsfeCe8ey9dfJ_7autocfg9rustflags0ENtNtNtB9_6traits8iterator8Iterator4nextB21_, symObjAddr: 0x2740, symBinAddr: 0x1000059C8, symSize: 0x2C }
  - { offset: 0xCE81, size: 0x8, addend: 0x0, symName: __RNvXs1_NtNtNtCs85QQFkKrybG_4core4iter8adapters6filterINtB5_6FilterINtNtB7_3map3MapINtNtNtBb_3str4iter5SplitcENvMB1n_e4trimENCNvCsfeCe8ey9dfJ_7autocfg9rustflags0ENtNtNtB9_6traits8iterator8Iterator9size_hintB21_, symObjAddr: 0x276C, symBinAddr: 0x1000059F4, symSize: 0x4C }
  - { offset: 0xCF3C, size: 0x8, addend: 0x0, symName: __RINvYINtNtNtNtCs85QQFkKrybG_4core4iter8adapters6filter6FilterINtNtB8_3map3MapINtNtNtBc_3str4iter5SplitcENvMB1i_e4trimENCNvCsfeCe8ey9dfJ_7autocfg9rustflags0ENtNtNtBa_6traits8iterator8Iterator3mapNtNtCsdFlNUEO95cG_5alloc6string6StringNvYeNtB38_8ToString9to_stringEB1W_, symObjAddr: 0x111C, symBinAddr: 0x100004520, symSize: 0x30 }
  - { offset: 0xDA8B, size: 0x8, addend: 0x0, symName: __RNvXs2_NtNtCs85QQFkKrybG_4core3str7patterncNtB5_7Pattern13into_searcherCsfeCe8ey9dfJ_7autocfg, symObjAddr: 0x27B8, symBinAddr: 0x100005A40, symSize: 0x114 }
  - { offset: 0xDBA9, size: 0x8, addend: 0x0, symName: __RNvXs7_NtNtCs85QQFkKrybG_4core3str7patternINtB5_18MultiCharEqPatternNvMNtNtB9_4char7methodsc13is_whitespaceENtB5_7Pattern13into_searcherCsfeCe8ey9dfJ_7autocfg, symObjAddr: 0x325C, symBinAddr: 0x100006424, symSize: 0x90 }
  - { offset: 0xDC0B, size: 0x8, addend: 0x0, symName: __RNvXs8_NtNtCs85QQFkKrybG_4core3str7patternINtB5_19MultiCharEqSearcherNvMNtNtB9_4char7methodsc13is_whitespaceENtB5_8Searcher4nextCsfeCe8ey9dfJ_7autocfg, symObjAddr: 0x32EC, symBinAddr: 0x1000064B4, symSize: 0x138 }
  - { offset: 0xDD39, size: 0x8, addend: 0x0, symName: __RNvXs9_NtNtCs85QQFkKrybG_4core3str7patternINtB5_19MultiCharEqSearcherNvMNtNtB9_4char7methodsc13is_whitespaceENtB5_15ReverseSearcher9next_backCsfeCe8ey9dfJ_7autocfg, symObjAddr: 0x3424, symBinAddr: 0x1000065EC, symSize: 0x138 }
  - { offset: 0xDE67, size: 0x8, addend: 0x0, symName: __RNvXs_NtNtCs85QQFkKrybG_4core3str7patternNtB4_12CharSearcherNtB4_8Searcher10next_matchCsfeCe8ey9dfJ_7autocfg, symObjAddr: 0x355C, symBinAddr: 0x100006724, symSize: 0x3BC }
  - { offset: 0xE38A, size: 0x8, addend: 0x0, symName: __RNvXs_NtNtCs85QQFkKrybG_4core3str7patternNtB4_12CharSearcherNtB4_8Searcher8haystackCsfeCe8ey9dfJ_7autocfg, symObjAddr: 0x3918, symBinAddr: 0x100006AE0, symSize: 0x20 }
  - { offset: 0xE3BE, size: 0x8, addend: 0x0, symName: __RNvXso_NtNtCs85QQFkKrybG_4core3str7patternINtB5_21CharPredicateSearcherNvMNtNtB9_4char7methodsc13is_whitespaceENtB5_8Searcher11next_rejectCsfeCe8ey9dfJ_7autocfg, symObjAddr: 0x3A5C, symBinAddr: 0x100006C24, symSize: 0x24 }
  - { offset: 0xE3FB, size: 0x8, addend: 0x0, symName: __RNvXsp_NtNtCs85QQFkKrybG_4core3str7patternINtB5_21CharPredicateSearcherNvMNtNtB9_4char7methodsc13is_whitespaceENtB5_15ReverseSearcher16next_reject_backCsfeCe8ey9dfJ_7autocfg, symObjAddr: 0x3A80, symBinAddr: 0x100006C48, symSize: 0x24 }
  - { offset: 0xE438, size: 0x8, addend: 0x0, symName: __RNvXst_NtNtCs85QQFkKrybG_4core3str7patternReNtB5_7Pattern12is_prefix_ofCsfeCe8ey9dfJ_7autocfg, symObjAddr: 0x3AA4, symBinAddr: 0x100006C6C, symSize: 0x4C }
  - { offset: 0xE49F, size: 0x8, addend: 0x0, symName: __RNvXst_NtNtCs85QQFkKrybG_4core3str7patternReNtB5_7Pattern15is_contained_inCsfeCe8ey9dfJ_7autocfg, symObjAddr: 0x3AF0, symBinAddr: 0x100006CB8, symSize: 0x210 }
  - { offset: 0xE789, size: 0x8, addend: 0x0, symName: __RNvXst_NtNtCs85QQFkKrybG_4core3str7patternReNtB5_7Pattern15strip_suffix_ofCsfeCe8ey9dfJ_7autocfg, symObjAddr: 0x3D00, symBinAddr: 0x100006EC8, symSize: 0xE8 }
  - { offset: 0xE99E, size: 0x8, addend: 0x0, symName: __RNvXsv_NtNtCs85QQFkKrybG_4core3str7patternNtB5_11StrSearcherNtB5_8Searcher10next_matchCsfeCe8ey9dfJ_7autocfg, symObjAddr: 0x3DE8, symBinAddr: 0x100006FB0, symSize: 0x148 }
  - { offset: 0xEA2A, size: 0x8, addend: 0x0, symName: __RNvXsv_NtNtCs85QQFkKrybG_4core3str7patternNtB5_11StrSearcherNtB5_8Searcher4nextCsfeCe8ey9dfJ_7autocfg, symObjAddr: 0x3F30, symBinAddr: 0x1000070F8, symSize: 0x454 }
  - { offset: 0xED3D, size: 0x8, addend: 0x0, symName: __RNvXsy_NtNtCs85QQFkKrybG_4core3str7patternNtB5_9MatchOnlyNtB5_14TwoWayStrategy16use_early_rejectCsfeCe8ey9dfJ_7autocfg, symObjAddr: 0x4384, symBinAddr: 0x10000754C, symSize: 0xC }
  - { offset: 0xED5B, size: 0x8, addend: 0x0, symName: __RNvXsy_NtNtCs85QQFkKrybG_4core3str7patternNtB5_9MatchOnlyNtB5_14TwoWayStrategy8matchingCsfeCe8ey9dfJ_7autocfg, symObjAddr: 0x4390, symBinAddr: 0x100007558, symSize: 0x28 }
  - { offset: 0xED98, size: 0x8, addend: 0x0, symName: __RNvXsy_NtNtCs85QQFkKrybG_4core3str7patternNtB5_9MatchOnlyNtB5_14TwoWayStrategy9rejectingCsfeCe8ey9dfJ_7autocfg, symObjAddr: 0x43B8, symBinAddr: 0x100007580, symSize: 0x18 }
  - { offset: 0xEDDB, size: 0x8, addend: 0x0, symName: __RNvXsz_NtNtCs85QQFkKrybG_4core3str7patternNtB5_14RejectAndMatchNtB5_14TwoWayStrategy16use_early_rejectCsfeCe8ey9dfJ_7autocfg, symObjAddr: 0x43D0, symBinAddr: 0x100007598, symSize: 0xC }
  - { offset: 0xEDF9, size: 0x8, addend: 0x0, symName: __RNvXsz_NtNtCs85QQFkKrybG_4core3str7patternNtB5_14RejectAndMatchNtB5_14TwoWayStrategy8matchingCsfeCe8ey9dfJ_7autocfg, symObjAddr: 0x43DC, symBinAddr: 0x1000075A4, symSize: 0x20 }
  - { offset: 0xEE36, size: 0x8, addend: 0x0, symName: __RNvXsz_NtNtCs85QQFkKrybG_4core3str7patternNtB5_14RejectAndMatchNtB5_14TwoWayStrategy9rejectingCsfeCe8ey9dfJ_7autocfg, symObjAddr: 0x43FC, symBinAddr: 0x1000075C4, symSize: 0x28 }
  - { offset: 0xEE79, size: 0x8, addend: 0x0, symName: __RNvYINtNtNtCs85QQFkKrybG_4core3str7pattern19MultiCharEqSearcherNvMNtNtB9_4char7methodsc13is_whitespaceENtB5_15ReverseSearcher16next_reject_backCsfeCe8ey9dfJ_7autocfg, symObjAddr: 0x4424, symBinAddr: 0x1000075EC, symSize: 0x90 }
  - { offset: 0xEEE4, size: 0x8, addend: 0x0, symName: __RNvYINtNtNtCs85QQFkKrybG_4core3str7pattern19MultiCharEqSearcherNvMNtNtB9_4char7methodsc13is_whitespaceENtB5_8Searcher11next_rejectCsfeCe8ey9dfJ_7autocfg, symObjAddr: 0x44B4, symBinAddr: 0x10000767C, symSize: 0x90 }
  - { offset: 0xF3BB, size: 0x8, addend: 0x0, symName: __RINvYNtNtNtCswz7ZwgBZOU_3std4hash6random11RandomStateNtNtCs85QQFkKrybG_4core4hash11BuildHasher8hash_oneRyECsfeCe8ey9dfJ_7autocfg, symObjAddr: 0x114C, symBinAddr: 0x100004550, symSize: 0x84 }
  - { offset: 0xF50A, size: 0x8, addend: 0x0, symName: __RNvNtNtCs85QQFkKrybG_4core4hash3sip9u8to64_leCsfeCe8ey9dfJ_7autocfg, symObjAddr: 0x2328, symBinAddr: 0x1000055B0, symSize: 0x240 }
  - { offset: 0xF73B, size: 0x8, addend: 0x0, symName: __RNvXs3_NtNtCs85QQFkKrybG_4core4hash3sipINtB5_6HasherNtB5_11Sip13RoundsENtB7_6Hasher5writeCsfeCe8ey9dfJ_7autocfg, symObjAddr: 0x2930, symBinAddr: 0x100005BB8, symSize: 0x238 }
  - { offset: 0xF8B1, size: 0x8, addend: 0x0, symName: __RNvXs3_NtNtCs85QQFkKrybG_4core4hash3sipINtB5_6HasherNtB5_11Sip13RoundsENtB7_6Hasher6finishCsfeCe8ey9dfJ_7autocfg, symObjAddr: 0x2B68, symBinAddr: 0x100005DF0, symSize: 0xA0 }
  - { offset: 0xF92A, size: 0x8, addend: 0x0, symName: __RNvXs6_NtNtCs85QQFkKrybG_4core4hash3sipNtB5_11Sip13RoundsNtB5_3Sip8c_roundsCsfeCe8ey9dfJ_7autocfg, symObjAddr: 0x2CE4, symBinAddr: 0x100005EAC, symSize: 0x170 }
  - { offset: 0xFAA0, size: 0x8, addend: 0x0, symName: __RNvXs6_NtNtCs85QQFkKrybG_4core4hash3sipNtB5_11Sip13RoundsNtB5_3Sip8d_roundsCsfeCe8ey9dfJ_7autocfg, symObjAddr: 0x2E54, symBinAddr: 0x10000601C, symSize: 0x408 }
  - { offset: 0xFED9, size: 0x8, addend: 0x0, symName: __RNvYNtNtNtCswz7ZwgBZOU_3std4hash6random13DefaultHasherNtNtCs85QQFkKrybG_4core4hash6Hasher9write_u64CsfeCe8ey9dfJ_7autocfg, symObjAddr: 0x45B4, symBinAddr: 0x10000770C, symSize: 0x3C }
  - { offset: 0x1000E, size: 0x8, addend: 0x0, symName: __RNvNvNtCs85QQFkKrybG_4core9ub_checks23maybe_is_nonoverlapping7runtimeCsfeCe8ey9dfJ_7autocfg, symObjAddr: 0x2568, symBinAddr: 0x1000057F0, symSize: 0xD8 }
  - { offset: 0x101C5, size: 0x8, addend: 0x0, symName: __RNvXNtCs85QQFkKrybG_4core7convertRReINtB2_5AsRefNtNtNtCswz7ZwgBZOU_3std3ffi6os_str5OsStrE6as_refCsfeCe8ey9dfJ_7autocfg, symObjAddr: 0x2664, symBinAddr: 0x1000058EC, symSize: 0x28 }
  - { offset: 0x10205, size: 0x8, addend: 0x0, symName: __RNvXNtCs85QQFkKrybG_4core7convertReINtB2_5AsRefNtNtNtCswz7ZwgBZOU_3std3ffi6os_str5OsStrE6as_refCsfeCe8ey9dfJ_7autocfg, symObjAddr: 0x268C, symBinAddr: 0x100005914, symSize: 0x30 }
  - { offset: 0x1024B, size: 0x8, addend: 0x0, symName: __RNvXs1_NtCs85QQFkKrybG_4core7convertReINtB5_4IntoNtNtNtCswz7ZwgBZOU_3std3ffi6os_str8OsStringE4intoCsfeCe8ey9dfJ_7autocfg, symObjAddr: 0x2718, symBinAddr: 0x1000059A0, symSize: 0x28 }
  - { offset: 0x1043A, size: 0x8, addend: 0x0, symName: __RNvXsb_NtCs85QQFkKrybG_4core5arrayRARej2_NtNtNtNtB7_4iter6traits7collect12IntoIterator9into_iterCsfeCe8ey9dfJ_7autocfg, symObjAddr: 0x3A04, symBinAddr: 0x100006BCC, symSize: 0x58 }
  - { offset: 0x10A96, size: 0x8, addend: 0x0, symName: __RINvNtCswz7ZwgBZOU_3std3env3varReECsfeCe8ey9dfJ_7autocfg, symObjAddr: 0x104C, symBinAddr: 0x100004450, symSize: 0x68 }
  - { offset: 0x10ACB, size: 0x8, addend: 0x0, symName: __RINvNtCswz7ZwgBZOU_3std3env6var_osReECsfeCe8ey9dfJ_7autocfg, symObjAddr: 0x10B4, symBinAddr: 0x1000044B8, symSize: 0x68 }
  - { offset: 0x10B76, size: 0x8, addend: 0x0, symName: __RNCNkNvNvMNtNtCswz7ZwgBZOU_3std4hash6randomNtB8_11RandomState3new4KEYS0s_0CsfeCe8ey9dfJ_7autocfg, symObjAddr: 0x11D0, symBinAddr: 0x1000045D4, symSize: 0x34 }
  - { offset: 0x10BB4, size: 0x8, addend: 0x0, symName: __RNvNvNvMNtNtCswz7ZwgBZOU_3std4hash6randomNtB6_11RandomState3new4KEYS6___initCsfeCe8ey9dfJ_7autocfg, symObjAddr: 0x2640, symBinAddr: 0x1000058C8, symSize: 0x24 }
  - { offset: 0x10BD2, size: 0x8, addend: 0x0, symName: __RNCNvMNtNtCswz7ZwgBZOU_3std4hash6randomNtB4_11RandomState3new0CsfeCe8ey9dfJ_7autocfg, symObjAddr: 0x1308, symBinAddr: 0x10000470C, symSize: 0x2C }
  - { offset: 0x10C97, size: 0x8, addend: 0x0, symName: __RNvXs2_NtNtCswz7ZwgBZOU_3std4hash6randomNtB5_13DefaultHasherNtNtCs85QQFkKrybG_4core4hash6Hasher5writeCsfeCe8ey9dfJ_7autocfg, symObjAddr: 0x28CC, symBinAddr: 0x100005B54, symSize: 0x38 }
  - { offset: 0x10CF2, size: 0x8, addend: 0x0, symName: __RNvXs2_NtNtCswz7ZwgBZOU_3std4hash6randomNtB5_13DefaultHasherNtNtCs85QQFkKrybG_4core4hash6Hasher6finishCsfeCe8ey9dfJ_7autocfg, symObjAddr: 0x2904, symBinAddr: 0x100005B8C, symSize: 0x2C }
  - { offset: 0x10D71, size: 0x8, addend: 0x0, symName: __RNvXs3_NtNtCswz7ZwgBZOU_3std4hash6randomNtB5_11RandomStateNtNtCs85QQFkKrybG_4core7default7Default7defaultCsfeCe8ey9dfJ_7autocfg, symObjAddr: 0x2C08, symBinAddr: 0x100005E90, symSize: 0x1C }
  - { offset: 0x10DA9, size: 0x8, addend: 0x0, symName: __RNvXs_NtNtCswz7ZwgBZOU_3std4hash6randomNtB4_11RandomStateNtNtCs85QQFkKrybG_4core4hash11BuildHasher12build_hasherCsfeCe8ey9dfJ_7autocfg, symObjAddr: 0x3938, symBinAddr: 0x100006B00, symSize: 0xCC }
  - { offset: 0x1109A, size: 0x8, addend: 0x0, symName: __RINvMs_NtNtCs85QQFkKrybG_4core3fmt2rtNtB7_9Arguments6new_v1Kj1_KBW_ECsfeCe8ey9dfJ_7autocfg, symObjAddr: 0x0, symBinAddr: 0x100003454, symSize: 0x50 }
  - { offset: 0x110FE, size: 0x8, addend: 0x0, symName: __RINvMs_NtNtCs85QQFkKrybG_4core3fmt2rtNtB7_9Arguments6new_v1Kj2_Kj1_ECsfeCe8ey9dfJ_7autocfg, symObjAddr: 0xA0, symBinAddr: 0x1000034A4, symSize: 0x54 }
  - { offset: 0x11BCA, size: 0x8, addend: 0x0, symName: __RNvXNvMsT_NtNtNtCsdFlNUEO95cG_5alloc11collections5btree4nodeINtB8_6HandleINtB8_7NodeRefNtNtB8_6marker5DyingpppENtB1p_2KVE12drop_key_valINtB2_7DropperINtNtCs85QQFkKrybG_4core6option6OptionNtNtNtCswz7ZwgBZOU_3std3ffi6os_str8OsStringEENtNtNtB2s_3ops4drop4Drop4dropCsfeCe8ey9dfJ_7autocfg, symObjAddr: 0x26BC, symBinAddr: 0x100005944, symSize: 0x2C }
  - { offset: 0x11FD0, size: 0x8, addend: 0x0, symName: __RINvMsh_NtNtNtCsdFlNUEO95cG_5alloc11collections5btree4nodeINtB6_7NodeRefNtNtB6_6marker5DyingNtNtNtCswz7ZwgBZOU_3std3ffi6os_str8OsStringINtNtCs85QQFkKrybG_4core6option6OptionB1s_ENtB1a_14LeafOrInternalE21deallocate_and_ascendNtNtBc_5alloc6GlobalECsfeCe8ey9dfJ_7autocfg, symObjAddr: 0xF4, symBinAddr: 0x1000034F8, symSize: 0x188 }
  - { offset: 0x12222, size: 0x8, addend: 0x0, symName: __RINvMsj_NtNtNtCsdFlNUEO95cG_5alloc11collections5btree8navigateINtNtB8_4node6HandleINtB11_7NodeRefNtNtB11_6marker5DyingNtNtNtCswz7ZwgBZOU_3std3ffi6os_str8OsStringINtNtCs85QQFkKrybG_4core6option6OptionB1S_ENtB1z_4LeafENtB1z_4EdgeE16deallocating_endNtNtBc_5alloc6GlobalECsfeCe8ey9dfJ_7autocfg, symObjAddr: 0x27C, symBinAddr: 0x100003680, symSize: 0xD4 }
  - { offset: 0x124A3, size: 0x8, addend: 0x0, symName: __RINvMsj_NtNtNtCsdFlNUEO95cG_5alloc11collections5btree8navigateINtNtB8_4node6HandleINtB11_7NodeRefNtNtB11_6marker5DyingNtNtNtCswz7ZwgBZOU_3std3ffi6os_str8OsStringINtNtCs85QQFkKrybG_4core6option6OptionB1S_ENtB1z_4LeafENtB1z_4EdgeE17deallocating_nextNtNtBc_5alloc6GlobalECsfeCe8ey9dfJ_7autocfg, symObjAddr: 0x350, symBinAddr: 0x100003754, symSize: 0x254 }
  - { offset: 0x1271F, size: 0x8, addend: 0x0, symName: __RINvMsx_NtNtCs85QQFkKrybG_4core3str7patternNtB6_14TwoWaySearcher4nextNtB6_14RejectAndMatchECsfeCe8ey9dfJ_7autocfg, symObjAddr: 0x5A4, symBinAddr: 0x1000039A8, symSize: 0x540 }
  - { offset: 0x12AA1, size: 0x8, addend: 0x0, symName: __RINvMsx_NtNtCs85QQFkKrybG_4core3str7patternNtB6_14TwoWaySearcher4nextNtB6_9MatchOnlyECsfeCe8ey9dfJ_7autocfg, symObjAddr: 0xAE4, symBinAddr: 0x100003EE8, symSize: 0x540 }
  - { offset: 0x12E41, size: 0x8, addend: 0x0, symName: __RNCNvMNtCsfeCe8ey9dfJ_7autocfg7versionNtB4_7Version12from_command0B6_, symObjAddr: 0x1204, symBinAddr: 0x100004608, symSize: 0x50 }
  - { offset: 0x12E77, size: 0x8, addend: 0x0, symName: __RNCNvMNtCsfeCe8ey9dfJ_7autocfg7versionNtB4_7Version12from_commands0_0B6_, symObjAddr: 0x1254, symBinAddr: 0x100004658, symSize: 0x3C }
  - { offset: 0x12E9F, size: 0x8, addend: 0x0, symName: __RNCNvMNtCsfeCe8ey9dfJ_7autocfg7versionNtB4_7Version12from_commands1_0B6_, symObjAddr: 0x1290, symBinAddr: 0x100004694, symSize: 0x3C }
  - { offset: 0x12EC7, size: 0x8, addend: 0x0, symName: __RNCNvMNtCsfeCe8ey9dfJ_7autocfg7versionNtB4_7Version12from_commands_0B6_, symObjAddr: 0x12CC, symBinAddr: 0x1000046D0, symSize: 0x3C }
  - { offset: 0x13266, size: 0x8, addend: 0x0, symName: __RNvMNtCsfeCe8ey9dfJ_7autocfg7versionNtB2_7Version12from_command, symObjAddr: 0x1334, symBinAddr: 0x100004738, symSize: 0x810 }
  - { offset: 0x13432, size: 0x8, addend: 0x0, symName: __RNvMNtCsfeCe8ey9dfJ_7autocfg7versionNtB2_7Version3new, symObjAddr: 0x1B44, symBinAddr: 0x100004F48, symSize: 0x34 }
  - { offset: 0x1347D, size: 0x8, addend: 0x0, symName: __RNvMs0_NtNtCs85QQFkKrybG_4core4hash3sipINtB5_6HasherNtB5_11Sip13RoundsE5resetCsfeCe8ey9dfJ_7autocfg, symObjAddr: 0x1B78, symBinAddr: 0x100004F7C, symSize: 0x8C }
  - { offset: 0x13590, size: 0x8, addend: 0x0, symName: __RNvMsO_NtNtNtCsdFlNUEO95cG_5alloc11collections5btree4nodeINtB5_6HandleINtB5_7NodeRefNtNtB5_6marker5DyingNtNtNtCswz7ZwgBZOU_3std3ffi6os_str8OsStringINtNtCs85QQFkKrybG_4core6option6OptionB1E_ENtB1m_8InternalENtB1m_4EdgeE7descendCsfeCe8ey9dfJ_7autocfg, symObjAddr: 0x1D80, symBinAddr: 0x100005008, symSize: 0x9C }
  - { offset: 0x1386F, size: 0x8, addend: 0x0, symName: __RNvMsT_NtNtNtCsdFlNUEO95cG_5alloc11collections5btree4nodeINtB5_6HandleINtB5_7NodeRefNtNtB5_6marker5DyingNtNtNtCswz7ZwgBZOU_3std3ffi6os_str8OsStringINtNtCs85QQFkKrybG_4core6option6OptionB1E_ENtB1m_14LeafOrInternalENtB1m_2KVE12drop_key_valCsfeCe8ey9dfJ_7autocfg, symObjAddr: 0x1E1C, symBinAddr: 0x1000050A4, symSize: 0x138 }
  - { offset: 0x13A42, size: 0x8, addend: 0x0, symName: __RNvMs_NtNtCs85QQFkKrybG_4core3fmt2rtNtB6_9Arguments16new_v1_formattedCsfeCe8ey9dfJ_7autocfg, symObjAddr: 0x1F54, symBinAddr: 0x1000051DC, symSize: 0x48 }
  - { offset: 0x13BA3, size: 0x8, addend: 0x0, symName: __RNvMse_NtNtNtCsdFlNUEO95cG_5alloc11collections5btree4nodeINtB5_7NodeRefNtNtB5_6marker5DyingNtNtNtCswz7ZwgBZOU_3std3ffi6os_str8OsStringINtNtCs85QQFkKrybG_4core6option6OptionB1r_ENtB19_14LeafOrInternalE6ascendCsfeCe8ey9dfJ_7autocfg, symObjAddr: 0x1F9C, symBinAddr: 0x100005224, symSize: 0x17C }
  - { offset: 0x13F5D, size: 0x8, addend: 0x0, symName: __RNvMsp_NtNtNtCsdFlNUEO95cG_5alloc11collections5btree8navigateINtNtB7_4node6HandleINtB10_7NodeRefNtNtB10_6marker5DyingNtNtNtCswz7ZwgBZOU_3std3ffi6os_str8OsStringINtNtCs85QQFkKrybG_4core6option6OptionB1R_ENtB1y_14LeafOrInternalENtB1y_2KVE14next_leaf_edgeCsfeCe8ey9dfJ_7autocfg, symObjAddr: 0x2118, symBinAddr: 0x1000053A0, symSize: 0x210 }
  - { offset: 0x14664, size: 0x8, addend: 0x0, symName: __RINvMCsfeCe8ey9dfJ_7autocfgNtB3_7AutoCfg8with_dirNtNtNtCswz7ZwgBZOU_3std3ffi6os_str8OsStringEB3_, symObjAddr: 0x0, symBinAddr: 0x100007748, symSize: 0x6C8 }
  - { offset: 0x14789, size: 0x8, addend: 0x0, symName: __RNvNvMCsfeCe8ey9dfJ_7autocfgNtB4_7AutoCfg14new_crate_name2ID, symObjAddr: 0x1FE50, symBinAddr: 0x10007DE20, symSize: 0x0 }
  - { offset: 0x14B27, size: 0x8, addend: 0x0, symName: __RNCNCNCNvCsfeCe8ey9dfJ_7autocfg19dir_contains_target000B7_, symObjAddr: 0x8CC, symBinAddr: 0x100008014, symSize: 0x3C }
  - { offset: 0x14B51, size: 0x8, addend: 0x0, symName: __RNCNCNCNvCsfeCe8ey9dfJ_7autocfg19dir_contains_target00s_0B7_, symObjAddr: 0x908, symBinAddr: 0x100008050, symSize: 0x58 }
  - { offset: 0x14B98, size: 0x8, addend: 0x0, symName: __RNCNCNvCsfeCe8ey9dfJ_7autocfg19dir_contains_target00B5_, symObjAddr: 0x960, symBinAddr: 0x1000080A8, symSize: 0x100 }
  - { offset: 0x14C01, size: 0x8, addend: 0x0, symName: __RNCNvCsfeCe8ey9dfJ_7autocfg19dir_contains_target0B3_, symObjAddr: 0xA60, symBinAddr: 0x1000081A8, symSize: 0xC8 }
  - { offset: 0x14C57, size: 0x8, addend: 0x0, symName: __RNCNvCsfeCe8ey9dfJ_7autocfg9rustflags0B3_, symObjAddr: 0xC24, symBinAddr: 0x100008270, symSize: 0x44 }
  - { offset: 0x14C98, size: 0x8, addend: 0x0, symName: __RNvCsfeCe8ey9dfJ_7autocfg10rerun_path, symObjAddr: 0xCB0, symBinAddr: 0x1000082FC, symSize: 0x68 }
  - { offset: 0x14CDD, size: 0x8, addend: 0x0, symName: __RNvCsfeCe8ey9dfJ_7autocfg16emit_possibility, symObjAddr: 0xD18, symBinAddr: 0x100008364, symSize: 0x68 }
  - { offset: 0x14D22, size: 0x8, addend: 0x0, symName: __RNvCsfeCe8ey9dfJ_7autocfg19dir_contains_target, symObjAddr: 0xD80, symBinAddr: 0x1000083CC, symSize: 0xD8 }
  - { offset: 0x14D6F, size: 0x8, addend: 0x0, symName: __RNvCsfeCe8ey9dfJ_7autocfg3new, symObjAddr: 0xE58, symBinAddr: 0x1000084A4, symSize: 0xD4 }
  - { offset: 0x14DC4, size: 0x8, addend: 0x0, symName: __RNvCsfeCe8ey9dfJ_7autocfg4emit, symObjAddr: 0xF2C, symBinAddr: 0x100008578, symSize: 0x68 }
  - { offset: 0x14E09, size: 0x8, addend: 0x0, symName: __RNvCsfeCe8ey9dfJ_7autocfg8new_uuid, symObjAddr: 0xFDC, symBinAddr: 0x1000085E0, symSize: 0x134 }
  - { offset: 0x14EA8, size: 0x8, addend: 0x0, symName: __RNvCsfeCe8ey9dfJ_7autocfg9rustflags, symObjAddr: 0x1178, symBinAddr: 0x100008714, symSize: 0x3CC }
  - { offset: 0x1529B, size: 0x8, addend: 0x0, symName: __RNvYNtNtNtNtCswz7ZwgBZOU_3std3sys5stdio4unix6StderrNtNtBa_2io5Write9write_allCsfeCe8ey9dfJ_7autocfg, symObjAddr: 0x3958, symBinAddr: 0x10000A188, symSize: 0x268 }
  - { offset: 0x15443, size: 0x8, addend: 0x0, symName: __RNvYNtNtNtNtCswz7ZwgBZOU_3std3sys5stdio4unix6StderrNtNtBa_2io5Write9write_fmtCsfeCe8ey9dfJ_7autocfg, symObjAddr: 0x3BC0, symBinAddr: 0x10000A3F0, symSize: 0x154 }
  - { offset: 0x15945, size: 0x8, addend: 0x0, symName: __RNvXs1o_NtCswz7ZwgBZOU_3std4pathNtNtNtB8_3ffi6os_str8OsStringINtNtCs85QQFkKrybG_4core7convert5AsRefNtB6_4PathE6as_refCsfeCe8ey9dfJ_7autocfg, symObjAddr: 0x329C, symBinAddr: 0x100009ACC, symSize: 0x2C }
  - { offset: 0x15A63, size: 0x8, addend: 0x0, symName: __RNvXNvXs2_NtNtCswz7ZwgBZOU_3std3ffi6os_strNtB8_8OsStringINtNtCs85QQFkKrybG_4core7convert4FromRpE4fromReNtB2_14SpecToOsString17spec_to_os_stringCsfeCe8ey9dfJ_7autocfg, symObjAddr: 0x31E0, symBinAddr: 0x100009A10, symSize: 0x78 }
  - { offset: 0x15B1D, size: 0x8, addend: 0x0, symName: __RNvXs2_NtNtCswz7ZwgBZOU_3std3ffi6os_strNtB5_8OsStringINtNtCs85QQFkKrybG_4core7convert4FromReE4fromCsfeCe8ey9dfJ_7autocfg, symObjAddr: 0x3670, symBinAddr: 0x100009EA0, symSize: 0x2C }
  - { offset: 0x15BD8, size: 0x8, addend: 0x0, symName: __RNvXsV_NtNtCswz7ZwgBZOU_3std3ffi6os_strNtB5_8OsStringINtNtCs85QQFkKrybG_4core7convert5AsRefNtB5_5OsStrE6as_refCsfeCe8ey9dfJ_7autocfg, symObjAddr: 0x3734, symBinAddr: 0x100009F64, symSize: 0x2C }
  - { offset: 0x15C2A, size: 0x8, addend: 0x0, symName: __RNvXs3_NtNtCswz7ZwgBZOU_3std3ffi6os_strNtB5_8OsStringINtNtNtCs85QQFkKrybG_4core3ops5index5IndexNtNtBU_5range9RangeFullE5indexCsfeCe8ey9dfJ_7autocfg, symObjAddr: 0x369C, symBinAddr: 0x100009ECC, symSize: 0x80 }
  - { offset: 0x15D64, size: 0x8, addend: 0x0, symName: __RNvXsU_NtNtCswz7ZwgBZOU_3std3ffi6os_strNtB5_5OsStrINtNtCs85QQFkKrybG_4core7convert5AsRefBB_E6as_refCsfeCe8ey9dfJ_7autocfg, symObjAddr: 0x371C, symBinAddr: 0x100009F4C, symSize: 0x18 }
  - { offset: 0x15D98, size: 0x8, addend: 0x0, symName: __RNvXsW_NtNtCswz7ZwgBZOU_3std3ffi6os_streINtNtCs85QQFkKrybG_4core7convert5AsRefNtB5_5OsStrE6as_refCsfeCe8ey9dfJ_7autocfg, symObjAddr: 0x3760, symBinAddr: 0x100009F90, symSize: 0x18 }
  - { offset: 0x15DFC, size: 0x8, addend: 0x0, symName: __RNvXsa_NtNtCswz7ZwgBZOU_3std3ffi6os_strNtB5_8OsStringNtNtCs85QQFkKrybG_4core3cmp9PartialEq2eqCsfeCe8ey9dfJ_7autocfg, symObjAddr: 0x3778, symBinAddr: 0x100009FA8, symSize: 0x1B0 }
  - { offset: 0x17E58, size: 0x8, addend: 0x0, symName: __RNvXNtCs85QQFkKrybG_4core7convertRNtNtNtCswz7ZwgBZOU_3std3ffi6os_str5OsStrINtB2_5AsRefBw_E6as_refCsfeCe8ey9dfJ_7autocfg, symObjAddr: 0x3154, symBinAddr: 0x100009984, symSize: 0x30 }
  - { offset: 0x17E98, size: 0x8, addend: 0x0, symName: __RNvXNtCs85QQFkKrybG_4core7convertRNtNtNtCswz7ZwgBZOU_3std3ffi6os_str8OsStringINtB2_5AsRefNtBy_5OsStrE6as_refCsfeCe8ey9dfJ_7autocfg, symObjAddr: 0x3184, symBinAddr: 0x1000099B4, symSize: 0x28 }
  - { offset: 0x17ED8, size: 0x8, addend: 0x0, symName: __RNvXNtCs85QQFkKrybG_4core7convertRNtNtNtCswz7ZwgBZOU_3std3ffi6os_str8OsStringINtB2_5AsRefNtNtBC_4path4PathE6as_refCsfeCe8ey9dfJ_7autocfg, symObjAddr: 0x31AC, symBinAddr: 0x1000099DC, symSize: 0x28 }
  - { offset: 0x17F1E, size: 0x8, addend: 0x0, symName: __RNvXs1_NtCs85QQFkKrybG_4core7convertNtNtNtCswz7ZwgBZOU_3std3ffi6os_str8OsStringINtB5_4IntoNtNtBE_4path7PathBufE4intoCsfeCe8ey9dfJ_7autocfg, symObjAddr: 0x3258, symBinAddr: 0x100009A88, symSize: 0x14 }
  - { offset: 0x18050, size: 0x8, addend: 0x0, symName: __RNvXs1_NtNtNtCs85QQFkKrybG_4core3ops8function5implsQNCNvCsfeCe8ey9dfJ_7autocfg9rustflags0INtB7_5FnMutTRReEE8call_mutBS_, symObjAddr: 0x326C, symBinAddr: 0x100009A9C, symSize: 0x30 }
  - { offset: 0x184E8, size: 0x8, addend: 0x0, symName: __RNvNtNtNtCs85QQFkKrybG_4core7unicode12unicode_data11white_space6lookupCsfeCe8ey9dfJ_7autocfg, symObjAddr: 0x3008, symBinAddr: 0x100009838, symSize: 0x14C }
  - { offset: 0x18528, size: 0x8, addend: 0x0, symName: __RNvXs2E_NtNtCs85QQFkKrybG_4core5slice4iterINtB6_4IterNtNtCsdFlNUEO95cG_5alloc6string6StringENtNtNtNtBa_4iter6traits8iterator8Iterator4nextCsfeCe8ey9dfJ_7autocfg, symObjAddr: 0x32C8, symBinAddr: 0x100009AF8, symSize: 0xA8 }
  - { offset: 0x18662, size: 0x8, addend: 0x0, symName: __RNvXs2E_NtNtCs85QQFkKrybG_4core5slice4iterINtB6_4IterRNtNtCswz7ZwgBZOU_3std4path7PathBufENtNtNtNtBa_4iter6traits8iterator8Iterator4nextCsfeCe8ey9dfJ_7autocfg, symObjAddr: 0x3370, symBinAddr: 0x100009BA0, symSize: 0xA8 }
  - { offset: 0x1879C, size: 0x8, addend: 0x0, symName: __RNvXs2E_NtNtCs85QQFkKrybG_4core5slice4iterINtB6_4IterReENtNtNtNtBa_4iter6traits8iterator8Iterator4nextCsfeCe8ey9dfJ_7autocfg, symObjAddr: 0x3418, symBinAddr: 0x100009C48, symSize: 0xA8 }
  - { offset: 0x188D6, size: 0x8, addend: 0x0, symName: __RNvXs2E_NtNtCs85QQFkKrybG_4core5slice4iterINtB6_4IterhENtNtNtNtBa_4iter6traits8iterator8Iterator4nextCsfeCe8ey9dfJ_7autocfg, symObjAddr: 0x34C0, symBinAddr: 0x100009CF0, symSize: 0xA8 }
  - { offset: 0x18A8D, size: 0x8, addend: 0x0, symName: __RNvXs2F_NtNtCs85QQFkKrybG_4core5slice4iterINtB6_4IterhENtNtNtNtBa_4iter6traits12double_ended19DoubleEndedIterator9next_backCsfeCe8ey9dfJ_7autocfg, symObjAddr: 0x3568, symBinAddr: 0x100009D98, symSize: 0x108 }
  - { offset: 0x18E4E, size: 0x8, addend: 0x0, symName: __RNvYNtNtNtCswz7ZwgBZOU_3std3ffi6os_str8OsStringNtNtCs85QQFkKrybG_4core3cmp9PartialEq2neCsfeCe8ey9dfJ_7autocfg, symObjAddr: 0x3928, symBinAddr: 0x10000A158, symSize: 0x30 }
  - { offset: 0x194BD, size: 0x8, addend: 0x0, symName: __RINvNtNtNtCsdFlNUEO95cG_5alloc11collections5btree3mem7replaceINtNtB4_4node6HandleINtB10_7NodeRefNtNtB10_6marker5DyingNtNtNtCswz7ZwgBZOU_3std3ffi6os_str8OsStringINtNtCs85QQFkKrybG_4core6option6OptionB1R_ENtB1y_4LeafENtB1y_4EdgeEIBY_IB1i_B1w_B1R_B2y_NtB1y_14LeafOrInternalENtB1y_2KVENCINvMsm_NtB4_8navigateBX_27deallocating_next_uncheckedNtNtB8_5alloc6GlobalE0ECsfeCe8ey9dfJ_7autocfg, symObjAddr: 0x800, symBinAddr: 0x100007F48, symSize: 0xCC }
  - { offset: 0x195B7, size: 0x8, addend: 0x0, symName: __RNvXNvNtNtNtCsdFlNUEO95cG_5alloc11collections5btree3mem7replaceNtB2_10PanicGuardNtNtNtCs85QQFkKrybG_4core3ops4drop4Drop4dropCsfeCe8ey9dfJ_7autocfg, symObjAddr: 0x31D4, symBinAddr: 0x100009A04, symSize: 0xC }
  - { offset: 0x19675, size: 0x8, addend: 0x0, symName: __RNCNvNtCsdFlNUEO95cG_5alloc3fmt6format0CsfeCe8ey9dfJ_7autocfg, symObjAddr: 0xC68, symBinAddr: 0x1000082B4, symSize: 0x48 }
  - { offset: 0x196A6, size: 0x8, addend: 0x0, symName: __RNvNtCsdFlNUEO95cG_5alloc3fmt6formatCsfeCe8ey9dfJ_7autocfg, symObjAddr: 0x2F34, symBinAddr: 0x100009764, symSize: 0xD4 }
  - { offset: 0x197AC, size: 0x8, addend: 0x0, symName: __RINvMCsfeCe8ey9dfJ_7autocfgNtB3_7AutoCfg8with_dirNtNtNtCswz7ZwgBZOU_3std3ffi6os_str8OsStringEB3_, symObjAddr: 0x0, symBinAddr: 0x100007748, symSize: 0x6C8 }
  - { offset: 0x19918, size: 0x8, addend: 0x0, symName: __RINvMs2_NtNtCswz7ZwgBZOU_3std6thread5localINtB6_8LocalKeyINtNtCs85QQFkKrybG_4core4cell4CellTyyEEE4withNCNvMNtNtBa_4hash6randomNtB1H_11RandomState3new0B20_ECsfeCe8ey9dfJ_7autocfg, symObjAddr: 0x6C8, symBinAddr: 0x100007E10, symSize: 0x50 }
  - { offset: 0x199D1, size: 0x8, addend: 0x0, symName: __RINvMs2_NtNtCswz7ZwgBZOU_3std6thread5localINtB6_8LocalKeyINtNtCs85QQFkKrybG_4core4cell4CellTyyEEE8try_withNCNvMNtNtBa_4hash6randomNtB1L_11RandomState3new0B24_ECsfeCe8ey9dfJ_7autocfg, symObjAddr: 0x718, symBinAddr: 0x100007E60, symSize: 0xE8 }
  - { offset: 0x19C14, size: 0x8, addend: 0x0, symName: __RNvMCsfeCe8ey9dfJ_7autocfgNtB2_7AutoCfg14new_crate_name, symObjAddr: 0x1CF8, symBinAddr: 0x100008AE0, symSize: 0xE0 }
  - { offset: 0x19CB0, size: 0x8, addend: 0x0, symName: __RNvMCsfeCe8ey9dfJ_7autocfgNtB2_7AutoCfg16probe_expression, symObjAddr: 0x1E4C, symBinAddr: 0x100008BC0, symSize: 0x74 }
  - { offset: 0x19D00, size: 0x8, addend: 0x0, symName: __RNvMCsfeCe8ey9dfJ_7autocfgNtB2_7AutoCfg19emit_expression_cfg, symObjAddr: 0x2270, symBinAddr: 0x100008C34, symSize: 0xA8 }
  - { offset: 0x19D41, size: 0x8, addend: 0x0, symName: __RNvMCsfeCe8ey9dfJ_7autocfgNtB2_7AutoCfg3new, symObjAddr: 0x23F0, symBinAddr: 0x100008CDC, symSize: 0xC8 }
  - { offset: 0x19E66, size: 0x8, addend: 0x0, symName: __RNvMCsfeCe8ey9dfJ_7autocfgNtB2_7AutoCfg5probe, symObjAddr: 0x24B8, symBinAddr: 0x100008DA4, symSize: 0x108 }
  - { offset: 0x19ED7, size: 0x8, addend: 0x0, symName: __RNvMCsfeCe8ey9dfJ_7autocfgNtB2_7AutoCfg9probe_fmt, symObjAddr: 0x267C, symBinAddr: 0x100008EAC, symSize: 0x71C }
  - { offset: 0x1A048, size: 0x8, addend: 0x0, symName: __RNvMCsfeCe8ey9dfJ_7autocfgNtB2_7AutoCfg9probe_raw, symObjAddr: 0x2D98, symBinAddr: 0x1000095C8, symSize: 0x7C }
  - { offset: 0x1A098, size: 0x8, addend: 0x0, symName: __RNvMNtNtNtCs85QQFkKrybG_4core4iter8adapters7step_byINtB2_6StepByINtNtNtB8_3ops5range5RangejEE3newCsfeCe8ey9dfJ_7autocfg, symObjAddr: 0x2E14, symBinAddr: 0x100009644, symSize: 0xE0 }
  - { offset: 0x1A10A, size: 0x8, addend: 0x0, symName: __RNvMs0_NtNtCswz7ZwgBZOU_3std3ffi6os_strNtB5_8OsString3newCsfeCe8ey9dfJ_7autocfg, symObjAddr: 0x2EF4, symBinAddr: 0x100009724, symSize: 0x40 }
  - { offset: 0x1AE9F, size: 0x8, addend: 0x0, symName: __RINvMNtCs85QQFkKrybG_4core3stre11starts_withReECsfeCe8ey9dfJ_7autocfg, symObjAddr: 0x0, symBinAddr: 0x10000A544, symSize: 0x4C }
  - { offset: 0x1B7CF, size: 0x8, addend: 0x0, symName: __RINvMNtCs85QQFkKrybG_4core3stre11starts_withReECsfeCe8ey9dfJ_7autocfg, symObjAddr: 0x0, symBinAddr: 0x10000A544, symSize: 0x4C }
  - { offset: 0x1B849, size: 0x8, addend: 0x0, symName: __RINvMNtCs85QQFkKrybG_4core3stre12trim_matchesNvMNtNtB5_4char7methodsc13is_whitespaceECsfeCe8ey9dfJ_7autocfg, symObjAddr: 0x4C, symBinAddr: 0x10000A590, symSize: 0x130 }
  - { offset: 0x1B9FB, size: 0x8, addend: 0x0, symName: __RINvMNtCs85QQFkKrybG_4core3stre4findcECsfeCe8ey9dfJ_7autocfg, symObjAddr: 0x17C, symBinAddr: 0x10000A6C0, symSize: 0xC8 }
  - { offset: 0x1BA87, size: 0x8, addend: 0x0, symName: __RINvMNtCs85QQFkKrybG_4core3stre5parsejECsfeCe8ey9dfJ_7autocfg, symObjAddr: 0x244, symBinAddr: 0x10000A788, symSize: 0x28 }
  - { offset: 0x1BABE, size: 0x8, addend: 0x0, symName: __RINvMNtCs85QQFkKrybG_4core3stre5splitcECsfeCe8ey9dfJ_7autocfg, symObjAddr: 0x26C, symBinAddr: 0x10000A7B0, symSize: 0x98 }
  - { offset: 0x1BB37, size: 0x8, addend: 0x0, symName: __RINvMNtCs85QQFkKrybG_4core3stre6splitncECsfeCe8ey9dfJ_7autocfg, symObjAddr: 0x304, symBinAddr: 0x10000A848, symSize: 0xD0 }
  - { offset: 0x1BBB2, size: 0x8, addend: 0x0, symName: __RINvMNtCs85QQFkKrybG_4core3stre8containsReECsfeCe8ey9dfJ_7autocfg, symObjAddr: 0x3D4, symBinAddr: 0x10000A918, symSize: 0x4C }
  - { offset: 0x1BBF8, size: 0x8, addend: 0x0, symName: __RNvMNtCs85QQFkKrybG_4core3stre3lenCsfeCe8ey9dfJ_7autocfg, symObjAddr: 0x1120, symBinAddr: 0x10000B4D0, symSize: 0x1C }
  - { offset: 0x1BC24, size: 0x8, addend: 0x0, symName: __RNvMNtCs85QQFkKrybG_4core3stre4trimCsfeCe8ey9dfJ_7autocfg, symObjAddr: 0x113C, symBinAddr: 0x10000B4EC, symSize: 0x28 }
  - { offset: 0x1BC52, size: 0x8, addend: 0x0, symName: __RNvMNtCs85QQFkKrybG_4core3stre5charsCsfeCe8ey9dfJ_7autocfg, symObjAddr: 0x1164, symBinAddr: 0x10000B514, symSize: 0x20 }
  - { offset: 0x1BCF4, size: 0x8, addend: 0x0, symName: __RNvMNtCs85QQFkKrybG_4core3stre5linesCsfeCe8ey9dfJ_7autocfg, symObjAddr: 0x1184, symBinAddr: 0x10000B534, symSize: 0xC4 }
  - { offset: 0x1BD84, size: 0x8, addend: 0x0, symName: __RNvMNtCs85QQFkKrybG_4core3stre8is_emptyCsfeCe8ey9dfJ_7autocfg, symObjAddr: 0x1248, symBinAddr: 0x10000B5F8, symSize: 0x1C }
  - { offset: 0x1BF7A, size: 0x8, addend: 0x0, symName: __RNvXs8_NtNtCs85QQFkKrybG_4core3str6traitsINtNtNtB9_3ops5range7RangeTojEINtNtNtB9_5slice5index10SliceIndexeE3getCsfeCe8ey9dfJ_7autocfg, symObjAddr: 0x224C, symBinAddr: 0x10000C4C0, symSize: 0x140 }
  - { offset: 0x1C09B, size: 0x8, addend: 0x0, symName: __RNvXs8_NtNtCs85QQFkKrybG_4core3str6traitsINtNtNtB9_3ops5range7RangeTojEINtNtNtB9_5slice5index10SliceIndexeE5indexCsfeCe8ey9dfJ_7autocfg, symObjAddr: 0x238C, symBinAddr: 0x10000C600, symSize: 0x84 }
  - { offset: 0x1C12E, size: 0x8, addend: 0x0, symName: __RNvXs9_NtNtCs85QQFkKrybG_4core3str6traitsINtNtNtB9_3ops5range9RangeFromjEINtNtNtB9_5slice5index10SliceIndexeE3getCsfeCe8ey9dfJ_7autocfg, symObjAddr: 0x2410, symBinAddr: 0x10000C684, symSize: 0x150 }
  - { offset: 0x1C2A9, size: 0x8, addend: 0x0, symName: __RNvXs9_NtNtCs85QQFkKrybG_4core3str6traitsINtNtNtB9_3ops5range9RangeFromjEINtNtNtB9_5slice5index10SliceIndexeE5indexCsfeCe8ey9dfJ_7autocfg, symObjAddr: 0x2560, symBinAddr: 0x10000C7D4, symSize: 0x88 }
  - { offset: 0x1C55F, size: 0x8, addend: 0x0, symName: __RNvXs3_NtCs85QQFkKrybG_4core3strNtB5_8LinesMapINtNtNtB7_3ops8function2FnTReEE4callCsfeCe8ey9dfJ_7autocfg, symObjAddr: 0x1EAC, symBinAddr: 0x10000C120, symSize: 0x174 }
  - { offset: 0x1C68A, size: 0x8, addend: 0x0, symName: __RNvXs4_NtCs85QQFkKrybG_4core3strNtB5_8LinesMapINtNtNtB7_3ops8function5FnMutTReEE8call_mutCsfeCe8ey9dfJ_7autocfg, symObjAddr: 0x20B4, symBinAddr: 0x10000C328, symSize: 0x44 }
  - { offset: 0x1D339, size: 0x8, addend: 0x0, symName: __RNvXs6_NtCs85QQFkKrybG_4core6optionINtB5_6OptionRNtNtCswz7ZwgBZOU_3std4path7PathBufENtNtNtNtB7_4iter6traits7collect12IntoIterator9into_iterCsfeCe8ey9dfJ_7autocfg, symObjAddr: 0x2238, symBinAddr: 0x10000C4AC, symSize: 0x14 }
  - { offset: 0x1D376, size: 0x8, addend: 0x0, symName: __RNvXsI_NtCs85QQFkKrybG_4core6optionINtB5_6OptionhENtNtB7_3fmt5Debug3fmtCsfeCe8ey9dfJ_7autocfg, symObjAddr: 0x2734, symBinAddr: 0x10000C9A8, symSize: 0x98 }
  - { offset: 0x1D3E0, size: 0x8, addend: 0x0, symName: __RNvXsd_NtCs85QQFkKrybG_4core6optionINtB5_6OptionNtNtNtCswz7ZwgBZOU_3std3ffi6os_str8OsStringENtNtB7_3cmp9PartialEq2eqCsfeCe8ey9dfJ_7autocfg, symObjAddr: 0x2900, symBinAddr: 0x10000CB74, symSize: 0xB8 }
  - { offset: 0x1D4F7, size: 0x8, addend: 0x0, symName: __RNvXsl_NtCs85QQFkKrybG_4core6optionINtB5_4IterNtNtCswz7ZwgBZOU_3std4path7PathBufENtNtNtNtB7_4iter6traits8iterator8Iterator4nextCsfeCe8ey9dfJ_7autocfg, symObjAddr: 0x2B78, symBinAddr: 0x10000CDEC, symSize: 0x20 }
  - { offset: 0x1D639, size: 0x8, addend: 0x0, symName: __RNvXsw_NtCs85QQFkKrybG_4core6optionINtB5_8IntoIterRNtNtCswz7ZwgBZOU_3std4path7PathBufENtNtNtNtB7_4iter6traits8iterator8Iterator4nextCsfeCe8ey9dfJ_7autocfg, symObjAddr: 0x2CB4, symBinAddr: 0x10000CEA0, symSize: 0x20 }
  - { offset: 0x1D932, size: 0x8, addend: 0x0, symName: __RNvXsh_NtNtNtCs85QQFkKrybG_4core4iter8adapters7step_byINtNtNtBb_3ops5range5RangejEINtB5_14SpecRangeSetupBQ_E5setupCsfeCe8ey9dfJ_7autocfg, symObjAddr: 0x29B8, symBinAddr: 0x10000CC2C, symSize: 0x150 }
  - { offset: 0x1DA6F, size: 0x8, addend: 0x0, symName: __RINvYINtNtCs85QQFkKrybG_4core6option4IterNtNtCswz7ZwgBZOU_3std4path7PathBufENtNtNtNtB8_4iter6traits8iterator8Iterator5chainB3_ECsfeCe8ey9dfJ_7autocfg, symObjAddr: 0xE94, symBinAddr: 0x10000B278, symSize: 0x88 }
  - { offset: 0x1DAE4, size: 0x8, addend: 0x0, symName: __RINvYINtNtNtCs85QQFkKrybG_4core3ops5range5RangeyENtNtNtNtBa_4iter6traits8iterator8Iterator3mapTyuENCINvXs8_NtCsfieuf5LernF_9hashbrown3setINtB1H_7HashSetyNtNtNtCswz7ZwgBZOU_3std4hash6random11RandomStateEINtNtBP_7collect6ExtendyE6extendB3_E0ECsfeCe8ey9dfJ_7autocfg, symObjAddr: 0xF1C, symBinAddr: 0x10000B300, symSize: 0x14 }
  - { offset: 0x1DB3C, size: 0x8, addend: 0x0, symName: __RINvYINtNtNtCs85QQFkKrybG_4core3ops5range5RangeyENtNtNtNtBa_4iter6traits8iterator8Iterator4folduNCINvNtNtBR_8adapters3map8map_foldyTyuEuNCINvXs8_NtCsfieuf5LernF_9hashbrown3setINtB2j_7HashSetyNtNtNtCswz7ZwgBZOU_3std4hash6random11RandomStateEINtNtBP_7collect6ExtendyE6extendB3_E0NCINvNvBL_8for_each4callB25_NCINvXs1i_NtB2l_3mapINtB53_7HashMapyuB33_EIB3R_B25_E6extendINtB1B_3MapB3_B2a_EE0E0E0ECsfeCe8ey9dfJ_7autocfg, symObjAddr: 0xF30, symBinAddr: 0x10000B314, symSize: 0xB4 }
  - { offset: 0x1DBCB, size: 0x8, addend: 0x0, symName: __RINvYINtNtNtCs85QQFkKrybG_4core3ops5range5RangeyENtNtNtNtBa_4iter6traits8iterator8Iterator7collectINtNtNtNtCswz7ZwgBZOU_3std11collections4hash3set7HashSetyEECsfeCe8ey9dfJ_7autocfg, symObjAddr: 0xFE4, symBinAddr: 0x10000B3C8, symSize: 0x50 }
  - { offset: 0x1DCD1, size: 0x8, addend: 0x0, symName: __RNvXNtNtNtCs85QQFkKrybG_4core4iter6traits7collectINtNtB8_6option4IterNtNtCswz7ZwgBZOU_3std4path7PathBufENtB2_12IntoIterator9into_iterCsfeCe8ey9dfJ_7autocfg, symObjAddr: 0x1D78, symBinAddr: 0x10000BFEC, symSize: 0x14 }
  - { offset: 0x1DD08, size: 0x8, addend: 0x0, symName: __RNvXNtNtNtCs85QQFkKrybG_4core4iter6traits7collectINtNtNtB8_3ops5range5RangeyENtB2_12IntoIterator9into_iterCsfeCe8ey9dfJ_7autocfg, symObjAddr: 0x1D8C, symBinAddr: 0x10000C000, symSize: 0x14 }
  - { offset: 0x1DD4C, size: 0x8, addend: 0x0, symName: __RNvXs3_NtNtCs85QQFkKrybG_4core4iter5rangeINtNtNtB9_3ops5range5RangeyENtB5_17RangeIteratorImpl9spec_nextCsfeCe8ey9dfJ_7autocfg, symObjAddr: 0x2020, symBinAddr: 0x10000C294, symSize: 0x94 }
  - { offset: 0x1DDCD, size: 0x8, addend: 0x0, symName: __RNvXs4_NtNtCs85QQFkKrybG_4core4iter5rangeINtNtNtB9_3ops5range5RangeyENtNtNtB7_6traits8iterator8Iterator4nextCsfeCe8ey9dfJ_7autocfg, symObjAddr: 0x20F8, symBinAddr: 0x10000C36C, symSize: 0x24 }
  - { offset: 0x1DE04, size: 0x8, addend: 0x0, symName: __RNvXs4_NtNtCs85QQFkKrybG_4core4iter5rangeINtNtNtB9_3ops5range5RangeyENtNtNtB7_6traits8iterator8Iterator9size_hintCsfeCe8ey9dfJ_7autocfg, symObjAddr: 0x211C, symBinAddr: 0x10000C390, symSize: 0x88 }
  - { offset: 0x1DE8E, size: 0x8, addend: 0x0, symName: __RNvXsD_NtNtCs85QQFkKrybG_4core4iter5rangeyNtB5_4Step13steps_betweenCsfeCe8ey9dfJ_7autocfg, symObjAddr: 0x25E8, symBinAddr: 0x10000C85C, symSize: 0x8C }
  - { offset: 0x1DEE9, size: 0x8, addend: 0x0, symName: __RNvXsD_NtNtCs85QQFkKrybG_4core4iter5rangeyNtB5_4Step17forward_uncheckedCsfeCe8ey9dfJ_7autocfg, symObjAddr: 0x2674, symBinAddr: 0x10000C8E8, symSize: 0x54 }
  - { offset: 0x1E598, size: 0x8, addend: 0x0, symName: __RNvXs19_NtCs85QQFkKrybG_4core3fmtRINtNtB8_6option6OptionhENtB6_5Debug3fmtCsfeCe8ey9dfJ_7autocfg, symObjAddr: 0x1DA0, symBinAddr: 0x10000C014, symSize: 0x30 }
  - { offset: 0x1E700, size: 0x8, addend: 0x0, symName: __RNvNtNtCs85QQFkKrybG_4core5slice6memchr6memchrCsfeCe8ey9dfJ_7autocfg, symObjAddr: 0x1B80, symBinAddr: 0x10000BDF4, symSize: 0x114 }
  - { offset: 0x1E7F1, size: 0x8, addend: 0x0, symName: __RNvXs5_NtNtCs85QQFkKrybG_4core5slice5indexINtNtNtB9_3ops5range9RangeFromjEINtB5_10SliceIndexShE5indexCsfeCe8ey9dfJ_7autocfg, symObjAddr: 0x21A4, symBinAddr: 0x10000C418, symSize: 0x94 }
  - { offset: 0x1E9D6, size: 0x8, addend: 0x0, symName: __RNvNvMNtNtCs85QQFkKrybG_4core5alloc6layoutNtB4_6Layout25from_size_align_unchecked18precondition_checkCsfeCe8ey9dfJ_7autocfg, symObjAddr: 0x1C94, symBinAddr: 0x10000BF08, symSize: 0xBC }
  - { offset: 0x1EA5E, size: 0x8, addend: 0x0, symName: __RNvXNtCs85QQFkKrybG_4core7convertRNtNtCsdFlNUEO95cG_5alloc6string6StringINtB2_5AsRefNtNtNtCswz7ZwgBZOU_3std3ffi6os_str5OsStrE6as_refCsfeCe8ey9dfJ_7autocfg, symObjAddr: 0x1D50, symBinAddr: 0x10000BFC4, symSize: 0x28 }
  - { offset: 0x1EB74, size: 0x8, addend: 0x0, symName: __RNvYINtNtCs85QQFkKrybG_4core6option6OptionNtNtNtCswz7ZwgBZOU_3std3ffi6os_str8OsStringENtNtB7_3cmp9PartialEq2neCsfeCe8ey9dfJ_7autocfg, symObjAddr: 0x2CFC, symBinAddr: 0x10000CEE8, symSize: 0x30 }
  - { offset: 0x1EE76, size: 0x8, addend: 0x0, symName: __RNvXs1q_NtCswz7ZwgBZOU_3std4pathNtNtCsdFlNUEO95cG_5alloc6string6StringINtNtCs85QQFkKrybG_4core7convert5AsRefNtB6_4PathE6as_refCsfeCe8ey9dfJ_7autocfg, symObjAddr: 0x1E88, symBinAddr: 0x10000C0FC, symSize: 0x24 }
  - { offset: 0x1EEFD, size: 0x8, addend: 0x0, symName: __RNvXsX_NtNtCswz7ZwgBZOU_3std3ffi6os_strNtNtCsdFlNUEO95cG_5alloc6string6StringINtNtCs85QQFkKrybG_4core7convert5AsRefNtB5_5OsStrE6as_refCsfeCe8ey9dfJ_7autocfg, symObjAddr: 0x27CC, symBinAddr: 0x10000CA40, symSize: 0x80 }
  - { offset: 0x1F220, size: 0x8, addend: 0x0, symName: __RINvXs5_NtNtNtCswz7ZwgBZOU_3std11collections4hash3setINtB6_7HashSetyEINtNtNtNtCs85QQFkKrybG_4core4iter6traits7collect12FromIteratoryE9from_iterINtNtNtB1e_3ops5range5RangeyEECsfeCe8ey9dfJ_7autocfg, symObjAddr: 0xC34, symBinAddr: 0x10000B0D8, symSize: 0x14C }
  - { offset: 0x1F30C, size: 0x8, addend: 0x0, symName: __RNvXsh_NtNtNtCswz7ZwgBZOU_3std11collections4hash3setINtB5_7HashSetyENtNtNtNtCs85QQFkKrybG_4core4iter6traits7collect12IntoIterator9into_iterCsfeCe8ey9dfJ_7autocfg, symObjAddr: 0x2B08, symBinAddr: 0x10000CD7C, symSize: 0x70 }
  - { offset: 0x1F371, size: 0x8, addend: 0x0, symName: __RNvXsn_NtNtNtCswz7ZwgBZOU_3std11collections4hash3setINtB5_8IntoIteryENtNtNtNtCs85QQFkKrybG_4core4iter6traits8iterator8Iterator4nextCsfeCe8ey9dfJ_7autocfg, symObjAddr: 0x2C20, symBinAddr: 0x10000CE0C, symSize: 0x70 }
  - { offset: 0x1F6FC, size: 0x8, addend: 0x0, symName: __RNvXs1_NtCsdFlNUEO95cG_5alloc5allocNtB5_6GlobalNtNtCs85QQFkKrybG_4core5clone5Clone5cloneCsfeCe8ey9dfJ_7autocfg, symObjAddr: 0x1E20, symBinAddr: 0x10000C094, symSize: 0x10 }
  - { offset: 0x1F74D, size: 0x8, addend: 0x0, symName: __RNvXs_NtCsdFlNUEO95cG_5alloc5allocNtB4_6GlobalNtNtCs85QQFkKrybG_4core5alloc9Allocator10deallocateCsfeCe8ey9dfJ_7autocfg, symObjAddr: 0x284C, symBinAddr: 0x10000CAC0, symSize: 0x80 }
  - { offset: 0x1F814, size: 0x8, addend: 0x0, symName: __RNvXs_NtCsdFlNUEO95cG_5alloc5allocNtB4_6GlobalNtNtCs85QQFkKrybG_4core5alloc9Allocator8allocateCsfeCe8ey9dfJ_7autocfg, symObjAddr: 0x28CC, symBinAddr: 0x10000CB40, symSize: 0x34 }
  - { offset: 0x1FA66, size: 0x8, addend: 0x0, symName: __RNvXs1V_NtCsdFlNUEO95cG_5alloc6stringeNtB6_12SpecToString14spec_to_stringCsfeCe8ey9dfJ_7autocfg, symObjAddr: 0x1DD0, symBinAddr: 0x10000C044, symSize: 0x50 }
  - { offset: 0x1FBAD, size: 0x8, addend: 0x0, symName: __RNvXss_NtCsdFlNUEO95cG_5alloc6stringNtB5_6StringNtNtNtCs85QQFkKrybG_4core3ops5deref5Deref5derefCsfeCe8ey9dfJ_7autocfg, symObjAddr: 0x2C90, symBinAddr: 0x10000CE7C, symSize: 0x24 }
  - { offset: 0x1FBE1, size: 0x8, addend: 0x0, symName: __RNvXsw_NtCsdFlNUEO95cG_5alloc6stringeNtB5_8ToString9to_stringCsfeCe8ey9dfJ_7autocfg, symObjAddr: 0x2CD4, symBinAddr: 0x10000CEC0, symSize: 0x28 }
  - { offset: 0x1FEA1, size: 0x8, addend: 0x0, symName: __RINvMNtCs85QQFkKrybG_4core6optionINtB3_6OptionNtNtCswz7ZwgBZOU_3std4path7PathBufE14unwrap_or_elseNCNCNCNvCsfeCe8ey9dfJ_7autocfg19dir_contains_target000EB1F_, symObjAddr: 0x420, symBinAddr: 0x10000A964, symSize: 0x70 }
  - { offset: 0x1FF04, size: 0x8, addend: 0x0, symName: __RINvMNtCs85QQFkKrybG_4core6optionINtB3_6OptionNtNtNtCswz7ZwgBZOU_3std3ffi6os_str8OsStringE14unwrap_or_elseNCNvMNtCsfeCe8ey9dfJ_7autocfg5rustcNtB1L_5Rustc3new0EB1N_, symObjAddr: 0x490, symBinAddr: 0x10000A9D4, symSize: 0x70 }
  - { offset: 0x1FF7F, size: 0x8, addend: 0x0, symName: __RINvMNtCs85QQFkKrybG_4core6optionINtB3_6OptionNtNtNtCswz7ZwgBZOU_3std3ffi6os_str8OsStringE3mapNtNtBO_4path7PathBufNvYB1u_INtNtB5_7convert4FromBI_E4fromECsfeCe8ey9dfJ_7autocfg, symObjAddr: 0x500, symBinAddr: 0x10000AA44, symSize: 0x90 }
  - { offset: 0x20005, size: 0x8, addend: 0x0, symName: __RINvMNtCs85QQFkKrybG_4core6optionINtB3_6OptionRNtNtCswz7ZwgBZOU_3std4path7PathBufE7or_elseNCNvXs_NtNtNtB5_4iter8adapters5chainINtB1x_5ChainIB21_INtB3_4IterBJ_EB2i_EINtB3_8IntoIterBI_EENtNtNtB1B_6traits8iterator8Iterator4next0ECsfeCe8ey9dfJ_7autocfg, symObjAddr: 0x590, symBinAddr: 0x10000AAD4, symSize: 0xA8 }
  - { offset: 0x20074, size: 0x8, addend: 0x0, symName: __RINvMNtCs85QQFkKrybG_4core6optionINtB3_6OptionRNtNtCswz7ZwgBZOU_3std4path7PathBufE7or_elseNCNvXs_NtNtNtB5_4iter8adapters5chainINtB1x_5ChainINtB3_4IterBJ_EB2d_ENtNtNtB1B_6traits8iterator8Iterator4next0ECsfeCe8ey9dfJ_7autocfg, symObjAddr: 0x638, symBinAddr: 0x10000AB7C, symSize: 0xA8 }
  - { offset: 0x20117, size: 0x8, addend: 0x0, symName: __RINvMNtCs85QQFkKrybG_4core6optionINtB3_6OptionRNtNtNtCswz7ZwgBZOU_3std3ffi6os_str8OsStringE8and_thenbNCNvCsfeCe8ey9dfJ_7autocfg19dir_contains_target0EB1F_, symObjAddr: 0x6E0, symBinAddr: 0x10000AC24, symSize: 0x78 }
  - { offset: 0x201EC, size: 0x8, addend: 0x0, symName: __RINvMNtCs85QQFkKrybG_4core6optionINtB3_6OptionReE10ok_or_elseNtNtCsfeCe8ey9dfJ_7autocfg5error5ErrorNCNvMNtB11_7versionNtB1E_7Version12from_commands0_0EB11_, symObjAddr: 0x758, symBinAddr: 0x10000AC9C, symSize: 0x80 }
  - { offset: 0x20257, size: 0x8, addend: 0x0, symName: __RINvMNtCs85QQFkKrybG_4core6optionINtB3_6OptionReE10ok_or_elseNtNtCsfeCe8ey9dfJ_7autocfg5error5ErrorNCNvMNtB11_7versionNtB1E_7Version12from_commands1_0EB11_, symObjAddr: 0x7D8, symBinAddr: 0x10000AD1C, symSize: 0x80 }
  - { offset: 0x202C2, size: 0x8, addend: 0x0, symName: __RINvMNtCs85QQFkKrybG_4core6optionINtB3_6OptionReE10ok_or_elseNtNtCsfeCe8ey9dfJ_7autocfg5error5ErrorNCNvMNtB11_7versionNtB1E_7Version12from_commands_0EB11_, symObjAddr: 0x858, symBinAddr: 0x10000AD9C, symSize: 0x80 }
  - { offset: 0x2044D, size: 0x8, addend: 0x0, symName: __RINvMNtCs85QQFkKrybG_4core6optionINtB3_6OptionReE11map_or_elseNtNtCsdFlNUEO95cG_5alloc6string6StringNCNvNtB12_3fmt6format0NvYeNtNtB12_6borrow7ToOwned8to_ownedECsfeCe8ey9dfJ_7autocfg, symObjAddr: 0x8D8, symBinAddr: 0x10000AE1C, symSize: 0xCC }
  - { offset: 0x204DD, size: 0x8, addend: 0x0, symName: __RINvMNtCs85QQFkKrybG_4core6optionINtB3_6OptionReE3mapbNCNCNCNvCsfeCe8ey9dfJ_7autocfg19dir_contains_target00s_0EBY_, symObjAddr: 0x9A4, symBinAddr: 0x10000AEE8, symSize: 0x6C }
  - { offset: 0x20555, size: 0x8, addend: 0x0, symName: __RINvMNtCs85QQFkKrybG_4core6optionINtB3_6OptionReE8and_thenbNCNCNvCsfeCe8ey9dfJ_7autocfg19dir_contains_target00EB11_, symObjAddr: 0xA10, symBinAddr: 0x10000AF54, symSize: 0x84 }
  - { offset: 0x209D1, size: 0x8, addend: 0x0, symName: __RINvXs1i_NtCsfieuf5LernF_9hashbrown3mapINtB7_7HashMapyuNtNtNtCswz7ZwgBZOU_3std4hash6random11RandomStateEINtNtNtNtCs85QQFkKrybG_4core4iter6traits7collect6ExtendTyuEE6extendINtNtNtB1L_8adapters3map3MapINtNtNtB1N_3ops5range5RangeyENCINvXs8_NtB9_3setINtB3N_7HashSetyBR_EIB1F_yE6extendB3b_E0EECsfeCe8ey9dfJ_7autocfg, symObjAddr: 0xA94, symBinAddr: 0x10000AFD8, symSize: 0x100 }
  - { offset: 0x20ADF, size: 0x8, addend: 0x0, symName: __RNCINvXs1i_NtCsfieuf5LernF_9hashbrown3mapINtB9_7HashMapyuNtNtNtCswz7ZwgBZOU_3std4hash6random11RandomStateEINtNtNtNtCs85QQFkKrybG_4core4iter6traits7collect6ExtendTyuEE6extendINtNtNtB1N_8adapters3map3MapINtNtNtB1P_3ops5range5RangeyENCINvXs8_NtBb_3setINtB3P_7HashSetyBT_EIB1H_yE6extendB3d_E0EE0CsfeCe8ey9dfJ_7autocfg, symObjAddr: 0x10A0, symBinAddr: 0x10000B484, symSize: 0x30 }
  - { offset: 0x20BC4, size: 0x8, addend: 0x0, symName: __RNCINvNtCsfieuf5LernF_9hashbrown3map11make_hasheryuNtNtNtCswz7ZwgBZOU_3std4hash6random11RandomStateE0CsfeCe8ey9dfJ_7autocfg, symObjAddr: 0x1034, symBinAddr: 0x10000B418, symSize: 0x3C }
  - { offset: 0x20C46, size: 0x8, addend: 0x0, symName: __RNCINvNtCsfieuf5LernF_9hashbrown3map14equivalent_keyyyuE0CsfeCe8ey9dfJ_7autocfg, symObjAddr: 0x1070, symBinAddr: 0x10000B454, symSize: 0x30 }
  - { offset: 0x20CDC, size: 0x8, addend: 0x0, symName: __RNvXsE_NtCsfieuf5LernF_9hashbrown3mapINtB5_7HashMapyuNtNtNtCswz7ZwgBZOU_3std4hash6random11RandomStateENtNtNtNtCs85QQFkKrybG_4core4iter6traits7collect12IntoIterator9into_iterCsfeCe8ey9dfJ_7autocfg, symObjAddr: 0x26C8, symBinAddr: 0x10000C93C, symSize: 0x6C }
  - { offset: 0x20E02, size: 0x8, addend: 0x0, symName: __RINvXs8_NtCsfieuf5LernF_9hashbrown3setINtB6_7HashSetyNtNtNtCswz7ZwgBZOU_3std4hash6random11RandomStateEINtNtNtNtCs85QQFkKrybG_4core4iter6traits7collect6ExtendyE6extendINtNtNtB1L_3ops5range5RangeyEECsfeCe8ey9dfJ_7autocfg, symObjAddr: 0xD80, symBinAddr: 0x10000B224, symSize: 0x54 }
  - { offset: 0x20E64, size: 0x8, addend: 0x0, symName: __RNCINvXs8_NtCsfieuf5LernF_9hashbrown3setINtB8_7HashSetyNtNtNtCswz7ZwgBZOU_3std4hash6random11RandomStateEINtNtNtNtCs85QQFkKrybG_4core4iter6traits7collect6ExtendyE6extendINtNtNtB1N_3ops5range5RangeyEE0CsfeCe8ey9dfJ_7autocfg, symObjAddr: 0x10D0, symBinAddr: 0x10000B4B4, symSize: 0x1C }
  - { offset: 0x2104C, size: 0x8, addend: 0x0, symName: __RNvXs1_NtCsfieuf5LernF_9hashbrown10scopeguardINtB5_10ScopeGuardNtNtB7_3raw13RawTableInnerNCINvMsa_B11_BZ_14prepare_resizeNtNtCsdFlNUEO95cG_5alloc5alloc6GlobalE0ENtNtNtCs85QQFkKrybG_4core3ops4drop4Drop4dropCsfeCe8ey9dfJ_7autocfg, symObjAddr: 0x1E30, symBinAddr: 0x10000C0A4, symSize: 0x2C }
  - { offset: 0x21086, size: 0x8, addend: 0x0, symName: __RNvXs1_NtCsfieuf5LernF_9hashbrown10scopeguardINtB5_10ScopeGuardQNtNtB7_3raw13RawTableInnerNCNvMsa_B12_B10_15rehash_in_place0ENtNtNtCs85QQFkKrybG_4core3ops4drop4Drop4dropCsfeCe8ey9dfJ_7autocfg, symObjAddr: 0x1E5C, symBinAddr: 0x10000C0D0, symSize: 0x2C }
  - { offset: 0x213CB, size: 0x8, addend: 0x0, symName: __RNvMNtCs85QQFkKrybG_4core6optionINtB2_6OptionNtNtCsdFlNUEO95cG_5alloc6string6StringE6as_refCsfeCe8ey9dfJ_7autocfg, symObjAddr: 0x1264, symBinAddr: 0x10000B614, symSize: 0x50 }
  - { offset: 0x2144D, size: 0x8, addend: 0x0, symName: __RNvMNtCs85QQFkKrybG_4core6optionINtB2_6OptionNtNtCswz7ZwgBZOU_3std4path7PathBufE4iterCsfeCe8ey9dfJ_7autocfg, symObjAddr: 0x12B4, symBinAddr: 0x10000B664, symSize: 0x50 }
  - { offset: 0x214BE, size: 0x8, addend: 0x0, symName: __RNvMNtCs85QQFkKrybG_4core6optionINtB2_6OptionNtNtCswz7ZwgBZOU_3std7process10ChildStdinE4takeCsfeCe8ey9dfJ_7autocfg, symObjAddr: 0x1304, symBinAddr: 0x10000B6B4, symSize: 0x24 }
  - { offset: 0x21508, size: 0x8, addend: 0x0, symName: __RNvMNtCs85QQFkKrybG_4core6optionINtB2_6OptionNtNtCswz7ZwgBZOU_3std7process10ChildStdinE6expectCsfeCe8ey9dfJ_7autocfg, symObjAddr: 0x1328, symBinAddr: 0x10000B6D8, symSize: 0x5C }
  - { offset: 0x21550, size: 0x8, addend: 0x0, symName: __RNvMNtCs85QQFkKrybG_4core6optionINtB2_6OptionNtNtNtCswz7ZwgBZOU_3std3ffi6os_str8OsStringE6as_refCsfeCe8ey9dfJ_7autocfg, symObjAddr: 0x1384, symBinAddr: 0x10000B734, symSize: 0x50 }
  - { offset: 0x215B6, size: 0x8, addend: 0x0, symName: __RNvMNtCs85QQFkKrybG_4core6optionINtB2_6OptionNtNtNtCswz7ZwgBZOU_3std3ffi6os_str8OsStringE7is_noneCsfeCe8ey9dfJ_7autocfg, symObjAddr: 0x13D4, symBinAddr: 0x10000B784, symSize: 0x2C }
  - { offset: 0x21600, size: 0x8, addend: 0x0, symName: __RNvMNtCs85QQFkKrybG_4core6optionINtB2_6OptionbE9unwrap_orCsfeCe8ey9dfJ_7autocfg, symObjAddr: 0x1400, symBinAddr: 0x10000B7B0, symSize: 0x5C }
  - { offset: 0x217BB, size: 0x8, addend: 0x0, symName: __RNvMNtCsdFlNUEO95cG_5alloc5allocNtB2_6Global10alloc_implCsfeCe8ey9dfJ_7autocfg, symObjAddr: 0x145C, symBinAddr: 0x10000B80C, symSize: 0x1FC }
  - { offset: 0x21C16, size: 0x8, addend: 0x0, symName: __RNvMNtCsdFlNUEO95cG_5alloc6stringNtB2_6String6as_strCsfeCe8ey9dfJ_7autocfg, symObjAddr: 0x1794, symBinAddr: 0x10000BA08, symSize: 0x78 }
  - { offset: 0x21D4B, size: 0x8, addend: 0x0, symName: __RNvMNtCsdFlNUEO95cG_5alloc6stringNtB2_6String8is_emptyCsfeCe8ey9dfJ_7autocfg, symObjAddr: 0x180C, symBinAddr: 0x10000BA80, symSize: 0x20 }
  - { offset: 0x21DAE, size: 0x8, addend: 0x0, symName: __RNvMNtNtNtCsfieuf5LernF_9hashbrown7control5group4neonNtB2_5Group10match_fullCsfeCe8ey9dfJ_7autocfg, symObjAddr: 0x182C, symBinAddr: 0x10000BAA0, symSize: 0x68 }
  - { offset: 0x21DE6, size: 0x8, addend: 0x0, symName: __RNvMNtNtNtCsfieuf5LernF_9hashbrown7control5group4neonNtB2_5Group22match_empty_or_deletedCsfeCe8ey9dfJ_7autocfg, symObjAddr: 0x1894, symBinAddr: 0x10000BB08, symSize: 0x68 }
  - { offset: 0x21E1E, size: 0x8, addend: 0x0, symName: __RNvMNtNtNtCsfieuf5LernF_9hashbrown7control5group4neonNtB2_5Group44convert_special_to_empty_and_full_to_deletedCsfeCe8ey9dfJ_7autocfg, symObjAddr: 0x18FC, symBinAddr: 0x10000BB70, symSize: 0x88 }
  - { offset: 0x21E56, size: 0x8, addend: 0x0, symName: __RNvMNtNtNtCsfieuf5LernF_9hashbrown7control5group4neonNtB2_5Group9match_tagCsfeCe8ey9dfJ_7autocfg, symObjAddr: 0x1984, symBinAddr: 0x10000BBF8, symSize: 0x7C }
  - { offset: 0x21F84, size: 0x8, addend: 0x0, symName: __RNvMs1_NtCsfieuf5LernF_9hashbrown3mapINtB5_7HashMapyuNtNtNtCswz7ZwgBZOU_3std4hash6random11RandomStateE6insertCsfeCe8ey9dfJ_7autocfg, symObjAddr: 0x1A00, symBinAddr: 0x10000BC74, symSize: 0x180 }
  - { offset: 0x22447, size: 0x8, addend: 0x0, symName: __RINvMNtCs85QQFkKrybG_4core6resultINtB3_6ResultNtNtCswz7ZwgBZOU_3std2fs8MetadataNtNtNtBM_2io5error5ErrorE7map_errNtNtCsfeCe8ey9dfJ_7autocfg5error5ErrorNvB1O_7from_ioEB1Q_, symObjAddr: 0x0, symBinAddr: 0x10000CF18, symSize: 0xA0 }
  - { offset: 0x224D7, size: 0x8, addend: 0x0, symName: __RNvXNvNtCswz7ZwgBZOU_3std2io17default_write_fmtINtB2_7AdapterNtNtB6_7process10ChildStdinENtNtCs85QQFkKrybG_4core3fmt5Write9write_strCsfeCe8ey9dfJ_7autocfg, symObjAddr: 0x1BB4, symBinAddr: 0x10000E648, symSize: 0xB4 }
  - { offset: 0x22533, size: 0x8, addend: 0x0, symName: __RNvXNvNtCswz7ZwgBZOU_3std2io17default_write_fmtINtB2_7AdapterNtNtNtNtB6_3sys5stdio4unix6StderrENtNtCs85QQFkKrybG_4core3fmt5Write9write_strCsfeCe8ey9dfJ_7autocfg, symObjAddr: 0x1C68, symBinAddr: 0x10000E6FC, symSize: 0xB4 }
  - { offset: 0x227E3, size: 0x8, addend: 0x0, symName: __RINvNtCswz7ZwgBZOU_3std2io17default_write_fmtNtNtB4_7process10ChildStdinECsfeCe8ey9dfJ_7autocfg, symObjAddr: 0x670, symBinAddr: 0x10000D30C, symSize: 0x120 }
  - { offset: 0x22892, size: 0x8, addend: 0x0, symName: __RINvNtCswz7ZwgBZOU_3std2io17default_write_fmtNtNtNtNtB4_3sys5stdio4unix6StderrECsfeCe8ey9dfJ_7autocfg, symObjAddr: 0x790, symBinAddr: 0x10000D42C, symSize: 0x120 }
  - { offset: 0x22A98, size: 0x8, addend: 0x0, symName: __RNvNtNtNtCswz7ZwgBZOU_3std3sys2fs4unix23debug_assert_fd_is_openCsfeCe8ey9dfJ_7autocfg, symObjAddr: 0x18AC, symBinAddr: 0x10000E478, symSize: 0xCC }
  - { offset: 0x22C90, size: 0x8, addend: 0x0, symName: __RINvXNtNtNtNtCswz7ZwgBZOU_3std3sys12thread_local6native4lazyzNtB3_14DestroyedState13register_dtorINtNtCs85QQFkKrybG_4core4cell4CellTyyEEECsfeCe8ey9dfJ_7autocfg, symObjAddr: 0xD18, symBinAddr: 0x10000D9B4, symSize: 0x10 }
  - { offset: 0x22CEB, size: 0x8, addend: 0x0, symName: __RNvXs5_NtNtNtCswz7ZwgBZOU_3std2os2fd5ownedNtB5_7OwnedFdNtNtNtCs85QQFkKrybG_4core3ops4drop4Drop4dropCsfeCe8ey9dfJ_7autocfg, symObjAddr: 0x202C, symBinAddr: 0x10000EAC0, symSize: 0x40 }
  - { offset: 0x23C1A, size: 0x8, addend: 0x0, symName: __RINvNtNtCs85QQFkKrybG_4core3str11validations15next_code_pointINtNtNtB6_5slice4iter4IterhEECsfeCe8ey9dfJ_7autocfg, symObjAddr: 0x8B0, symBinAddr: 0x10000D54C, symSize: 0x224 }
  - { offset: 0x23ED0, size: 0x8, addend: 0x0, symName: __RINvNtNtCs85QQFkKrybG_4core3str11validations23next_code_point_reverseINtNtNtB6_5slice4iter4IterhEECsfeCe8ey9dfJ_7autocfg, symObjAddr: 0xAD4, symBinAddr: 0x10000D770, symSize: 0x244 }
  - { offset: 0x242F8, size: 0x8, addend: 0x0, symName: __RNvXs1i_NtNtCs85QQFkKrybG_4core3str4iterINtB6_6SplitNcENtNtNtNtBa_4iter6traits8iterator8Iterator4nextCsfeCe8ey9dfJ_7autocfg, symObjAddr: 0x1D8C, symBinAddr: 0x10000E820, symSize: 0x24 }
  - { offset: 0x2434A, size: 0x8, addend: 0x0, symName: __RNvXs3_NtNtCs85QQFkKrybG_4core3str4iterNtB5_11CharIndicesNtNtNtNtB9_4iter6traits8iterator8Iterator4nextCsfeCe8ey9dfJ_7autocfg, symObjAddr: 0x1DB0, symBinAddr: 0x10000E844, symSize: 0x130 }
  - { offset: 0x2458F, size: 0x8, addend: 0x0, symName: __RNvXs4_NtNtCs85QQFkKrybG_4core3str4iterNtB5_11CharIndicesNtNtNtNtB9_4iter6traits12double_ended19DoubleEndedIterator9next_backCsfeCe8ey9dfJ_7autocfg, symObjAddr: 0x1EE0, symBinAddr: 0x10000E974, symSize: 0x14C }
  - { offset: 0x246EE, size: 0x8, addend: 0x0, symName: __RNvXsH_NtNtCs85QQFkKrybG_4core3str4iterINtB5_14SplitInclusivecENtNtNtNtB9_4iter6traits8iterator8Iterator4nextCsfeCe8ey9dfJ_7autocfg, symObjAddr: 0x206C, symBinAddr: 0x10000EB00, symSize: 0x24 }
  - { offset: 0x2472B, size: 0x8, addend: 0x0, symName: __RNvXsX_NtNtCs85QQFkKrybG_4core3str4iterINtB5_5SplitcENtNtNtNtB9_4iter6traits8iterator8Iterator4nextCsfeCe8ey9dfJ_7autocfg, symObjAddr: 0x2090, symBinAddr: 0x10000EB24, symSize: 0x24 }
  - { offset: 0x24768, size: 0x8, addend: 0x0, symName: __RNvXss_NtNtCs85QQFkKrybG_4core3str4iterNtB5_5LinesNtNtNtNtB9_4iter6traits8iterator8Iterator4nextCsfeCe8ey9dfJ_7autocfg, symObjAddr: 0x2374, symBinAddr: 0x10000EE08, symSize: 0x24 }
  - { offset: 0x25875, size: 0x8, addend: 0x0, symName: __RNvXs_NvNtNtCs85QQFkKrybG_4core3fmt5Write9write_fmtQINtNvNtCswz7ZwgBZOU_3std2io17default_write_fmt7AdapterNtNtBV_7process10ChildStdinENtB4_12SpecWriteFmt14spec_write_fmtCsfeCe8ey9dfJ_7autocfg, symObjAddr: 0x20B4, symBinAddr: 0x10000EB48, symSize: 0x160 }
  - { offset: 0x2592A, size: 0x8, addend: 0x0, symName: __RNvXs_NvNtNtCs85QQFkKrybG_4core3fmt5Write9write_fmtQINtNvNtCswz7ZwgBZOU_3std2io17default_write_fmt7AdapterNtNtNtNtBV_3sys5stdio4unix6StderrENtB4_12SpecWriteFmt14spec_write_fmtCsfeCe8ey9dfJ_7autocfg, symObjAddr: 0x2214, symBinAddr: 0x10000ECA8, symSize: 0x160 }
  - { offset: 0x259E1, size: 0x8, addend: 0x0, symName: __RNvYINtNvNtCswz7ZwgBZOU_3std2io17default_write_fmt7AdapterNtNtB9_7process10ChildStdinENtNtCs85QQFkKrybG_4core3fmt5Write10write_charCsfeCe8ey9dfJ_7autocfg, symObjAddr: 0x23CC, symBinAddr: 0x10000EE60, symSize: 0x70 }
  - { offset: 0x25A49, size: 0x8, addend: 0x0, symName: __RNvYINtNvNtCswz7ZwgBZOU_3std2io17default_write_fmt7AdapterNtNtB9_7process10ChildStdinENtNtCs85QQFkKrybG_4core3fmt5Write9write_fmtCsfeCe8ey9dfJ_7autocfg, symObjAddr: 0x243C, symBinAddr: 0x10000EED0, symSize: 0x24 }
  - { offset: 0x25A8D, size: 0x8, addend: 0x0, symName: __RNvYINtNvNtCswz7ZwgBZOU_3std2io17default_write_fmt7AdapterNtNtNtNtB9_3sys5stdio4unix6StderrENtNtCs85QQFkKrybG_4core3fmt5Write10write_charCsfeCe8ey9dfJ_7autocfg, symObjAddr: 0x2460, symBinAddr: 0x10000EEF4, symSize: 0x70 }
  - { offset: 0x25AF5, size: 0x8, addend: 0x0, symName: __RNvYINtNvNtCswz7ZwgBZOU_3std2io17default_write_fmt7AdapterNtNtNtNtB9_3sys5stdio4unix6StderrENtNtCs85QQFkKrybG_4core3fmt5Write9write_fmtCsfeCe8ey9dfJ_7autocfg, symObjAddr: 0x24D0, symBinAddr: 0x10000EF64, symSize: 0x24 }
  - { offset: 0x25E2B, size: 0x8, addend: 0x0, symName: __RINvYINtNtNtCs85QQFkKrybG_4core3str4iter5SplitcENtNtNtNtBa_4iter6traits8iterator8Iterator3mapNtNtCsdFlNUEO95cG_5alloc6string6StringNvYeNtB1v_8ToString9to_stringECsfeCe8ey9dfJ_7autocfg, symObjAddr: 0xE54, symBinAddr: 0x10000DAF0, symSize: 0x30 }
  - { offset: 0x25E99, size: 0x8, addend: 0x0, symName: __RINvYINtNtNtCs85QQFkKrybG_4core3str4iter5SplitcENtNtNtNtBa_4iter6traits8iterator8Iterator3mapReNvMB8_e4trimECsfeCe8ey9dfJ_7autocfg, symObjAddr: 0xE84, symBinAddr: 0x10000DB20, symSize: 0x30 }
  - { offset: 0x25F07, size: 0x8, addend: 0x0, symName: __RINvYINtNtNtCs85QQFkKrybG_4core3str4iter5SplitcENtNtNtNtBa_4iter6traits8iterator8Iterator8try_folduNCINvNtNtBQ_8adapters3map12map_try_foldReB2c_uINtNtNtBa_3ops12control_flow11ControlFlowB2c_ENvMB8_e4trimNCINvNvBK_4find5checkB2c_QNCNvCsfeCe8ey9dfJ_7autocfg9rustflags0E0E0B2j_EB3J_, symObjAddr: 0xEB4, symBinAddr: 0x10000DB50, symSize: 0x194 }
  - { offset: 0x25FBD, size: 0x8, addend: 0x0, symName: __RINvYNtNtNtCs85QQFkKrybG_4core3str4iter5LinesNtNtNtNtB9_4iter6traits8iterator8Iterator4findNCNvMNtCsfeCe8ey9dfJ_7autocfg7versionNtB1w_7Version12from_command0EB1y_, symObjAddr: 0x1114, symBinAddr: 0x10000DCE4, symSize: 0x84 }
  - { offset: 0x2603C, size: 0x8, addend: 0x0, symName: __RINvYNtNtNtCs85QQFkKrybG_4core3str4iter5LinesNtNtNtNtB9_4iter6traits8iterator8Iterator8try_folduNCINvNvBH_4find5checkReNCNvMNtCsfeCe8ey9dfJ_7autocfg7versionNtB1Y_7Version12from_command0E0INtNtNtB9_3ops12control_flow11ControlFlowB1R_EEB20_, symObjAddr: 0x1198, symBinAddr: 0x10000DD68, symSize: 0x18C }
  - { offset: 0x260F2, size: 0x8, addend: 0x0, symName: __RNvYINtNtNtCs85QQFkKrybG_4core3str4iter5SplitcENtNtNtNtB9_4iter6traits8iterator8Iterator9size_hintCsfeCe8ey9dfJ_7autocfg, symObjAddr: 0x2398, symBinAddr: 0x10000EE2C, symSize: 0x34 }
  - { offset: 0x2619D, size: 0x8, addend: 0x0, symName: __RNvNvNtNtCs85QQFkKrybG_4core4char7convert18from_u32_unchecked18precondition_checkCsfeCe8ey9dfJ_7autocfg, symObjAddr: 0x1978, symBinAddr: 0x10000E544, symSize: 0x104 }
  - { offset: 0x26361, size: 0x8, addend: 0x0, symName: __RNvYjNtNtCs85QQFkKrybG_4core3cmp3Ord3maxCsfeCe8ey9dfJ_7autocfg, symObjAddr: 0x24F4, symBinAddr: 0x10000EF88, symSize: 0x80 }
  - { offset: 0x263CF, size: 0x8, addend: 0x0, symName: __RNvYjNtNtCs85QQFkKrybG_4core3cmp3Ord3minCsfeCe8ey9dfJ_7autocfg, symObjAddr: 0x2574, symBinAddr: 0x10000F008, symSize: 0x80 }
  - { offset: 0x2676E, size: 0x8, addend: 0x0, symName: __RINvMNtCs85QQFkKrybG_4core6resultINtB3_6ResultNtNtCswz7ZwgBZOU_3std2fs8MetadataNtNtNtBM_2io5error5ErrorE7map_errNtNtCsfeCe8ey9dfJ_7autocfg5error5ErrorNvB1O_7from_ioEB1Q_, symObjAddr: 0x0, symBinAddr: 0x10000CF18, symSize: 0xA0 }
  - { offset: 0x26801, size: 0x8, addend: 0x0, symName: __RINvMNtCs85QQFkKrybG_4core6resultINtB3_6ResultNtNtCswz7ZwgBZOU_3std7process5ChildNtNtNtBM_2io5error5ErrorE7map_errNtNtCsfeCe8ey9dfJ_7autocfg5error5ErrorNvB1Q_7from_ioEB1S_, symObjAddr: 0xA0, symBinAddr: 0x10000CFB8, symSize: 0x9C }
  - { offset: 0x26B03, size: 0x8, addend: 0x0, symName: __RINvXs_NvMNtCsdFlNUEO95cG_5alloc5sliceSp9to_vec_inhNtB5_10ConvertVec6to_vecNtNtBa_5alloc6GlobalECsfeCe8ey9dfJ_7autocfg, symObjAddr: 0xD28, symBinAddr: 0x10000D9C4, symSize: 0x12C }
  - { offset: 0x26D9E, size: 0x8, addend: 0x0, symName: __RNvXs0_NtNtCsdFlNUEO95cG_5alloc3ffi5c_strNtB5_7CStringNtNtNtCs85QQFkKrybG_4core3ops4drop4Drop4dropCsfeCe8ey9dfJ_7autocfg, symObjAddr: 0x1D1C, symBinAddr: 0x10000E7B0, symSize: 0x70 }
  - { offset: 0x26E2A, size: 0x8, addend: 0x0, symName: __RINvMNtCs85QQFkKrybG_4core6resultINtB3_6ResultNtNtCswz7ZwgBZOU_3std7process6OutputNtNtNtBM_2io5error5ErrorE7map_errNtNtCsfeCe8ey9dfJ_7autocfg5error5ErrorNvB1R_7from_ioEB1T_, symObjAddr: 0x13C, symBinAddr: 0x10000D054, symSize: 0xA0 }
  - { offset: 0x26ED5, size: 0x8, addend: 0x0, symName: __RINvMNtCs85QQFkKrybG_4core6resultINtB3_6ResultReNtNtNtB5_3str5error9Utf8ErrorE7map_errNtNtCsfeCe8ey9dfJ_7autocfg5error5ErrorNvB1o_9from_utf8EB1q_, symObjAddr: 0x1DC, symBinAddr: 0x10000D0F4, symSize: 0x90 }
  - { offset: 0x26F80, size: 0x8, addend: 0x0, symName: __RINvMNtCs85QQFkKrybG_4core6resultINtB3_6ResultjNtNtNtB5_3num5error13ParseIntErrorE7map_errNtNtCsfeCe8ey9dfJ_7autocfg5error5ErrorNvB1s_8from_numEB1u_, symObjAddr: 0x26C, symBinAddr: 0x10000D184, symSize: 0x78 }
  - { offset: 0x27013, size: 0x8, addend: 0x0, symName: __RINvMNtCs85QQFkKrybG_4core6resultINtB3_6ResultuNtNtNtCswz7ZwgBZOU_3std2io5error5ErrorE7map_errNtNtCsfeCe8ey9dfJ_7autocfg5error5ErrorNvB1w_7from_ioEB1y_, symObjAddr: 0x2E4, symBinAddr: 0x10000D1FC, symSize: 0x6C }
  - { offset: 0x27162, size: 0x8, addend: 0x0, symName: __RINvMs0_NtNtNtNtCswz7ZwgBZOU_3std3sys12thread_local6native4lazyINtB6_7StorageINtNtCs85QQFkKrybG_4core4cell4CellTyyEEzE11get_or_initNvNvNvMNtNtBe_4hash6randomNtB2c_11RandomState3new4KEYS6___initECsfeCe8ey9dfJ_7autocfg, symObjAddr: 0x350, symBinAddr: 0x10000D268, symSize: 0xA4 }
  - { offset: 0x2736D, size: 0x8, addend: 0x0, symName: __RINvMs0_NtNtNtNtCswz7ZwgBZOU_3std3sys12thread_local6native4lazyINtB6_7StorageINtNtCs85QQFkKrybG_4core4cell4CellTyyEEzE16get_or_init_slowNvNvNvMNtNtBe_4hash6randomNtB2h_11RandomState3new4KEYS6___initECsfeCe8ey9dfJ_7autocfg, symObjAddr: 0x3F4, symBinAddr: 0x100054A4C, symSize: 0x220 }
  - { offset: 0x27B51, size: 0x8, addend: 0x0, symName: __RNvMNtCs85QQFkKrybG_4core6resultINtB2_6ResulthNtNtNtB4_3num5error15TryFromIntErrorE6expectCsfeCe8ey9dfJ_7autocfg, symObjAddr: 0x1324, symBinAddr: 0x10000DEF4, symSize: 0x84 }
  - { offset: 0x27BC0, size: 0x8, addend: 0x0, symName: __RNvMNtCs85QQFkKrybG_4core6resultINtB2_6ResultuNtNtCsfeCe8ey9dfJ_7autocfg5error5ErrorE5is_okBM_, symObjAddr: 0x13A8, symBinAddr: 0x10000DF78, symSize: 0x28 }
  - { offset: 0x27C1A, size: 0x8, addend: 0x0, symName: __RNvMNtCs85QQFkKrybG_4core6resultINtB2_6ResultuNtNtCsfeCe8ey9dfJ_7autocfg5error5ErrorE6is_errBM_, symObjAddr: 0x13D0, symBinAddr: 0x10000DFA0, symSize: 0x28 }
  - { offset: 0x27C6D, size: 0x8, addend: 0x0, symName: __RNvMNtCs85QQFkKrybG_4core6resultINtB2_6ResultuNtNtNtCswz7ZwgBZOU_3std2io5error5ErrorE2okCsfeCe8ey9dfJ_7autocfg, symObjAddr: 0x13F8, symBinAddr: 0x10000DFC8, symSize: 0x6C }
  - { offset: 0x27CEB, size: 0x8, addend: 0x0, symName: __RNvMsf_NtNtCs85QQFkKrybG_4core3str4iterINtB5_13SplitInternalcE14next_inclusiveCsfeCe8ey9dfJ_7autocfg, symObjAddr: 0x1464, symBinAddr: 0x10000E034, symSize: 0x130 }
  - { offset: 0x27E1E, size: 0x8, addend: 0x0, symName: __RNvMsf_NtNtCs85QQFkKrybG_4core3str4iterINtB5_13SplitInternalcE4nextCsfeCe8ey9dfJ_7autocfg, symObjAddr: 0x1594, symBinAddr: 0x10000E164, symSize: 0x140 }
  - { offset: 0x27F62, size: 0x8, addend: 0x0, symName: __RNvMsf_NtNtCs85QQFkKrybG_4core3str4iterINtB5_13SplitInternalcE7get_endCsfeCe8ey9dfJ_7autocfg, symObjAddr: 0x16D4, symBinAddr: 0x10000E2A4, symSize: 0x128 }
  - { offset: 0x28075, size: 0x8, addend: 0x0, symName: __RNvMsl_NtNtCs85QQFkKrybG_4core3str4iterINtB5_14SplitNInternalcE4nextCsfeCe8ey9dfJ_7autocfg, symObjAddr: 0x17FC, symBinAddr: 0x10000E3CC, symSize: 0xAC }
  - { offset: 0x2844D, size: 0x8, addend: 0x0, symName: __RINvMNtNtCs85QQFkKrybG_4core3fmt2rtNtB3_8Argument11new_displayNtB5_9ArgumentsECsfeCe8ey9dfJ_7autocfg, symObjAddr: 0x0, symBinAddr: 0x10000F088, symSize: 0x2C }
  - { offset: 0x28C4D, size: 0x8, addend: 0x0, symName: __RNvNtNtCswz7ZwgBZOU_3std2io5stdio6stderrCsfeCe8ey9dfJ_7autocfg, symObjAddr: 0x1370, symBinAddr: 0x1000103A0, symSize: 0xC }
  - { offset: 0x28C9B, size: 0x8, addend: 0x0, symName: __RNvYNtNtCswz7ZwgBZOU_3std7process10ChildStdinNtNtB6_2io5Write9write_allCsfeCe8ey9dfJ_7autocfg, symObjAddr: 0x2598, symBinAddr: 0x100011598, symSize: 0x268 }
  - { offset: 0x28E43, size: 0x8, addend: 0x0, symName: __RNvYNtNtCswz7ZwgBZOU_3std7process10ChildStdinNtNtB6_2io5Write9write_fmtCsfeCe8ey9dfJ_7autocfg, symObjAddr: 0x2800, symBinAddr: 0x100011800, symSize: 0x154 }
  - { offset: 0x290EC, size: 0x8, addend: 0x0, symName: __RNvXs1e_NtCswz7ZwgBZOU_3std7processNtB6_10ExitStatusNtNtCs85QQFkKrybG_4core3fmt5Debug3fmtCsfeCe8ey9dfJ_7autocfg, symObjAddr: 0x2034, symBinAddr: 0x100011034, symSize: 0x54 }
  - { offset: 0x29211, size: 0x8, addend: 0x0, symName: __RNvXs15_NtCswz7ZwgBZOU_3std4pathNtB6_7PathBufINtNtCs85QQFkKrybG_4core7convert5AsRefNtNtNtB8_3ffi6os_str5OsStrE6as_refCsfeCe8ey9dfJ_7autocfg, symObjAddr: 0x1F5C, symBinAddr: 0x100010F8C, symSize: 0x2C }
  - { offset: 0x29263, size: 0x8, addend: 0x0, symName: __RNvXsH_NtCswz7ZwgBZOU_3std4pathNtB5_7PathBufNtNtNtCs85QQFkKrybG_4core3ops5deref5Deref5derefCsfeCe8ey9dfJ_7autocfg, symObjAddr: 0x2258, symBinAddr: 0x100011258, symSize: 0x34 }
  - { offset: 0x292F1, size: 0x8, addend: 0x0, symName: __RNvXs1r_NtCswz7ZwgBZOU_3std4pathNtB6_7PathBufINtNtCs85QQFkKrybG_4core7convert5AsRefNtB6_4PathE6as_refCsfeCe8ey9dfJ_7autocfg, symObjAddr: 0x2088, symBinAddr: 0x100011088, symSize: 0x34 }
  - { offset: 0x2939D, size: 0x8, addend: 0x0, symName: __RNvXsA_NtCswz7ZwgBZOU_3std4pathNtB5_7PathBufINtNtCs85QQFkKrybG_4core7convert4FromNtNtNtB7_3ffi6os_str8OsStringE4fromCsfeCe8ey9dfJ_7autocfg, symObjAddr: 0x2240, symBinAddr: 0x100011240, symSize: 0x18 }
  - { offset: 0x293EF, size: 0x8, addend: 0x0, symName: __RNvXsz_NtCswz7ZwgBZOU_3std4pathNtB5_7PathBufINtNtCs85QQFkKrybG_4core7convert4FromReE4fromCsfeCe8ey9dfJ_7autocfg, symObjAddr: 0x250C, symBinAddr: 0x10001150C, symSize: 0x8C }
  - { offset: 0x295FA, size: 0x8, addend: 0x0, symName: __RINvNtCswz7ZwgBZOU_3std2fs11remove_fileNtNtB4_4path7PathBufECsfeCe8ey9dfJ_7autocfg, symObjAddr: 0xBC4, symBinAddr: 0x10000FBF4, symSize: 0x74 }
  - { offset: 0x2969F, size: 0x8, addend: 0x0, symName: __RINvNtCswz7ZwgBZOU_3std2fs8metadataRNtNtB4_4path7PathBufECsfeCe8ey9dfJ_7autocfg, symObjAddr: 0xC38, symBinAddr: 0x10000FC68, symSize: 0xE8 }
  - { offset: 0x2A8AE, size: 0x8, addend: 0x0, symName: __RNvNvMNtNtCs85QQFkKrybG_4core3ptr9const_ptrPp20offset_from_unsigned18precondition_checkCsfeCe8ey9dfJ_7autocfg, symObjAddr: 0x137C, symBinAddr: 0x1000103AC, symSize: 0xAC }
  - { offset: 0x2AD54, size: 0x8, addend: 0x0, symName: __RNvXs19_NtCs85QQFkKrybG_4core3fmtRNtNtCswz7ZwgBZOU_3std7process10ExitStatusNtB6_5Debug3fmtCsfeCe8ey9dfJ_7autocfg, symObjAddr: 0x1F88, symBinAddr: 0x100010FB8, symSize: 0x30 }
  - { offset: 0x2AD9A, size: 0x8, addend: 0x0, symName: __RNvXs19_NtCs85QQFkKrybG_4core3fmtRNtNtNtB8_3str5error9Utf8ErrorNtB6_5Debug3fmtCsfeCe8ey9dfJ_7autocfg, symObjAddr: 0x1FB8, symBinAddr: 0x100010FE8, symSize: 0x30 }
  - { offset: 0x2ADEB, size: 0x8, addend: 0x0, symName: __RNvXsZ_NtNtCs85QQFkKrybG_4core3fmt3numjNtB7_5Debug3fmtCsfeCe8ey9dfJ_7autocfg, symObjAddr: 0x228C, symBinAddr: 0x10001128C, symSize: 0x90 }
  - { offset: 0x2B83C, size: 0x8, addend: 0x0, symName: __RINvNtNtNtCs85QQFkKrybG_4core4iter8adapters5chain17and_then_or_clearINtB2_5ChainINtNtB8_6option4IterNtNtCswz7ZwgBZOU_3std4path7PathBufEB1g_ERB1A_NvYB14_NtNtNtB6_6traits8iterator8Iterator4nextECsfeCe8ey9dfJ_7autocfg, symObjAddr: 0xD20, symBinAddr: 0x10000FD50, symSize: 0xC8 }
  - { offset: 0x2B982, size: 0x8, addend: 0x0, symName: __RINvNtNtNtCs85QQFkKrybG_4core4iter8adapters5chain17and_then_or_clearINtNtB8_6option4IterNtNtCswz7ZwgBZOU_3std4path7PathBufERB1o_NvYB14_NtNtNtB6_6traits8iterator8Iterator4nextECsfeCe8ey9dfJ_7autocfg, symObjAddr: 0xDE8, symBinAddr: 0x10000FE18, symSize: 0xB8 }
  - { offset: 0x2BB31, size: 0x8, addend: 0x0, symName: __RNCNvXs_NtNtNtCs85QQFkKrybG_4core4iter8adapters5chainINtB6_5ChainIBQ_INtNtBc_6option4IterNtNtCswz7ZwgBZOU_3std4path7PathBufEB15_EINtB18_8IntoIterRB1p_EENtNtNtBa_6traits8iterator8Iterator4next0CsfeCe8ey9dfJ_7autocfg, symObjAddr: 0xFB4, symBinAddr: 0x10000FFE4, symSize: 0x7C }
  - { offset: 0x2BC09, size: 0x8, addend: 0x0, symName: __RNCNvXs_NtNtNtCs85QQFkKrybG_4core4iter8adapters5chainINtB6_5ChainINtNtBc_6option4IterNtNtCswz7ZwgBZOU_3std4path7PathBufEB11_ENtNtNtBa_6traits8iterator8Iterator4next0CsfeCe8ey9dfJ_7autocfg, symObjAddr: 0x1030, symBinAddr: 0x100010060, symSize: 0x7C }
  - { offset: 0x2BCE2, size: 0x8, addend: 0x0, symName: __RNvXs_NtNtNtCs85QQFkKrybG_4core4iter8adapters5chainINtB4_5ChainIBO_INtNtBa_6option4IterNtNtCswz7ZwgBZOU_3std4path7PathBufEB13_EINtB16_8IntoIterRB1n_EENtNtNtB8_6traits8iterator8Iterator4nextCsfeCe8ey9dfJ_7autocfg, symObjAddr: 0x231C, symBinAddr: 0x10001131C, symSize: 0x30 }
  - { offset: 0x2BD20, size: 0x8, addend: 0x0, symName: __RNvXs_NtNtNtCs85QQFkKrybG_4core4iter8adapters5chainINtB4_5ChainINtNtBa_6option4IterNtNtCswz7ZwgBZOU_3std4path7PathBufEBZ_ENtNtNtB8_6traits8iterator8Iterator4nextCsfeCe8ey9dfJ_7autocfg, symObjAddr: 0x234C, symBinAddr: 0x10001134C, symSize: 0x30 }
  - { offset: 0x2BD70, size: 0x8, addend: 0x0, symName: __RINvYINtNtNtNtCs85QQFkKrybG_4core4iter8adapters5chain5ChainINtNtBc_6option4IterNtNtCswz7ZwgBZOU_3std4path7PathBufEBV_ENtNtNtBa_6traits8iterator8Iterator5chainINtBY_6OptionRB1f_EECsfeCe8ey9dfJ_7autocfg, symObjAddr: 0xF18, symBinAddr: 0x10000FF48, symSize: 0x9C }
  - { offset: 0x2BDF2, size: 0x8, addend: 0x0, symName: __RNvXNtNtNtCs85QQFkKrybG_4core4iter6traits7collectINtNtNtB6_8adapters5chain5ChainIBM_INtNtB8_6option4IterNtNtCswz7ZwgBZOU_3std4path7PathBufEB1k_EINtB1n_8IntoIterRB1E_EENtB2_12IntoIterator9into_iterCsfeCe8ey9dfJ_7autocfg, symObjAddr: 0x1F2C, symBinAddr: 0x100010F5C, symSize: 0x30 }
  - { offset: 0x2BF27, size: 0x8, addend: 0x0, symName: __RNvXs8_NtNtCs85QQFkKrybG_4core3str5errorNtB5_9Utf8ErrorNtNtB9_3fmt5Debug3fmtCsfeCe8ey9dfJ_7autocfg, symObjAddr: 0x21B8, symBinAddr: 0x1000111B8, symSize: 0x88 }
  - { offset: 0x2BF72, size: 0x8, addend: 0x0, symName: __RNvNvXs5_NtNtCs85QQFkKrybG_4core3str6traitsINtNtNtBb_3ops5range5RangejEINtNtNtBb_5slice5index10SliceIndexeE13get_unchecked18precondition_checkCsfeCe8ey9dfJ_7autocfg, symObjAddr: 0x1884, symBinAddr: 0x1000108B4, symSize: 0xCC }
  - { offset: 0x2BFEF, size: 0x8, addend: 0x0, symName: __RNvXs2_NtNtCs85QQFkKrybG_4core3str6traitseINtNtNtB9_3ops5index5IndexINtNtBJ_5range7RangeTojEE5indexCsfeCe8ey9dfJ_7autocfg, symObjAddr: 0x210C, symBinAddr: 0x10001110C, symSize: 0x44 }
  - { offset: 0x2C032, size: 0x8, addend: 0x0, symName: __RNvXs2_NtNtCs85QQFkKrybG_4core3str6traitseINtNtNtB9_3ops5index5IndexINtNtBJ_5range9RangeFromjEE5indexCsfeCe8ey9dfJ_7autocfg, symObjAddr: 0x2150, symBinAddr: 0x100011150, symSize: 0x44 }
  - { offset: 0x2C319, size: 0x8, addend: 0x0, symName: __RNvXNtCs85QQFkKrybG_4core7convertRNtNtCswz7ZwgBZOU_3std4path7PathBufINtB2_5AsRefNtBy_4PathE6as_refCsfeCe8ey9dfJ_7autocfg, symObjAddr: 0x1964, symBinAddr: 0x100010994, symSize: 0x28 }
  - { offset: 0x2C359, size: 0x8, addend: 0x0, symName: __RNvXNtCs85QQFkKrybG_4core7convertRNtNtCswz7ZwgBZOU_3std4path7PathBufINtB2_5AsRefNtNtNtBA_3ffi6os_str5OsStrE6as_refCsfeCe8ey9dfJ_7autocfg, symObjAddr: 0x198C, symBinAddr: 0x1000109BC, symSize: 0x28 }
  - { offset: 0x2C399, size: 0x8, addend: 0x0, symName: __RNvXNtCs85QQFkKrybG_4core7convertRRNtNtCswz7ZwgBZOU_3std4path7PathBufINtB2_5AsRefNtNtNtBB_3ffi6os_str5OsStrE6as_refCsfeCe8ey9dfJ_7autocfg, symObjAddr: 0x19B4, symBinAddr: 0x1000109E4, symSize: 0x28 }
  - { offset: 0x2C3DF, size: 0x8, addend: 0x0, symName: __RNvXs1_NtCs85QQFkKrybG_4core7convertNtNtCswz7ZwgBZOU_3std7process5StdioINtB5_4IntoBy_E4intoCsfeCe8ey9dfJ_7autocfg, symObjAddr: 0x1FE8, symBinAddr: 0x100011018, symSize: 0x1C }
  - { offset: 0x2C4A2, size: 0x8, addend: 0x0, symName: __RNvNvNtNtCs85QQFkKrybG_4core5slice3raw14from_raw_parts18precondition_checkCsfeCe8ey9dfJ_7autocfg, symObjAddr: 0x14D4, symBinAddr: 0x100010504, symSize: 0x1D8 }
  - { offset: 0x2C640, size: 0x8, addend: 0x0, symName: __RNvNvNtNtCs85QQFkKrybG_4core5slice3raw18from_raw_parts_mut18precondition_checkCsfeCe8ey9dfJ_7autocfg, symObjAddr: 0x16AC, symBinAddr: 0x1000106DC, symSize: 0x1D8 }
  - { offset: 0x2CB10, size: 0x8, addend: 0x0, symName: __RNvXNtCs85QQFkKrybG_4core6borrowyINtB2_6BorrowyE6borrowCsfeCe8ey9dfJ_7autocfg, symObjAddr: 0x1950, symBinAddr: 0x100010980, symSize: 0x14 }
  - { offset: 0x2CBBF, size: 0x8, addend: 0x0, symName: __RNvXsb_NtCs85QQFkKrybG_4core5arrayRARNtNtCswz7ZwgBZOU_3std4path7PathBufj2_NtNtNtNtB7_4iter6traits7collect12IntoIterator9into_iterCsfeCe8ey9dfJ_7autocfg, symObjAddr: 0x237C, symBinAddr: 0x10001137C, symSize: 0x58 }
  - { offset: 0x2CF84, size: 0x8, addend: 0x0, symName: __RINvMNtNtCs85QQFkKrybG_4core3fmt2rtNtB3_8Argument11new_displayNtB5_9ArgumentsECsfeCe8ey9dfJ_7autocfg, symObjAddr: 0x0, symBinAddr: 0x10000F088, symSize: 0x2C }
  - { offset: 0x2D358, size: 0x8, addend: 0x0, symName: __RINvXsd_NtCsdFlNUEO95cG_5alloc3vecINtB6_3VecNtNtB8_6string6StringEINtNtNtNtCs85QQFkKrybG_4core4iter6traits7collect12FromIteratorBG_E9from_iterINtNtNtB19_8adapters3map3MapINtNtB2l_6filter6FilterIB2h_INtNtNtB1b_3str4iter5SplitcENvMB3f_e4trimENCNvCsfeCe8ey9dfJ_7autocfg9rustflags0ENvYeNtBI_8ToString9to_stringEEB3U_, symObjAddr: 0xEA0, symBinAddr: 0x10000FED0, symSize: 0x3C }
  - { offset: 0x2D399, size: 0x8, addend: 0x0, symName: __RINvXsd_NtCsdFlNUEO95cG_5alloc3vecINtB6_3VecNtNtB8_6string6StringEINtNtNtNtCs85QQFkKrybG_4core4iter6traits7collect12FromIteratorBG_E9from_iterINtNtNtB19_8adapters3map3MapINtNtNtB1b_3str4iter5SplitcENvYeNtBI_8ToString9to_stringEECsfeCe8ey9dfJ_7autocfg, symObjAddr: 0xEDC, symBinAddr: 0x10000FF0C, symSize: 0x3C }
  - { offset: 0x2D3E5, size: 0x8, addend: 0x0, symName: __RNvNvMs_NtCsdFlNUEO95cG_5alloc3vecINtB6_3VecppE7set_len18precondition_checkCsfeCe8ey9dfJ_7autocfg, symObjAddr: 0x1428, symBinAddr: 0x100010458, symSize: 0xAC }
  - { offset: 0x2D459, size: 0x8, addend: 0x0, symName: __RNvXNtNtCsdFlNUEO95cG_5alloc3vec11spec_extendINtB4_3VecNtNtB6_6string6StringEINtB2_10SpecExtendBR_INtNtNtNtCs85QQFkKrybG_4core4iter8adapters3map3MapINtNtB1D_6filter6FilterIB1z_INtNtNtB1H_3str4iter5SplitcENvMB2T_e4trimENCNvCsfeCe8ey9dfJ_7autocfg9rustflags0ENvYeNtBT_8ToString9to_stringEE11spec_extendB3y_, symObjAddr: 0x19DC, symBinAddr: 0x100010A0C, symSize: 0x24 }
  - { offset: 0x2D4AB, size: 0x8, addend: 0x0, symName: __RNvXNtNtCsdFlNUEO95cG_5alloc3vec11spec_extendINtB4_3VecNtNtB6_6string6StringEINtB2_10SpecExtendBR_INtNtNtNtCs85QQFkKrybG_4core4iter8adapters3map3MapINtNtNtB1H_3str4iter5SplitcENvYeNtBT_8ToString9to_stringEE11spec_extendCsfeCe8ey9dfJ_7autocfg, symObjAddr: 0x1A00, symBinAddr: 0x100010A30, symSize: 0x24 }
  - { offset: 0x2D509, size: 0x8, addend: 0x0, symName: __RNvXNtNtCsdFlNUEO95cG_5alloc3vec14spec_from_iterINtB4_3VecNtNtB6_6string6StringEINtB2_12SpecFromIterBU_INtNtNtNtCs85QQFkKrybG_4core4iter8adapters3map3MapINtNtB1I_6filter6FilterIB1E_INtNtNtB1M_3str4iter5SplitcENvMB2Y_e4trimENCNvCsfeCe8ey9dfJ_7autocfg9rustflags0ENvYeNtBW_8ToString9to_stringEE9from_iterB3D_, symObjAddr: 0x1A24, symBinAddr: 0x100010A54, symSize: 0x14 }
  - { offset: 0x2D548, size: 0x8, addend: 0x0, symName: __RNvXNtNtCsdFlNUEO95cG_5alloc3vec14spec_from_iterINtB4_3VecNtNtB6_6string6StringEINtB2_12SpecFromIterBU_INtNtNtNtCs85QQFkKrybG_4core4iter8adapters3map3MapINtNtNtB1M_3str4iter5SplitcENvYeNtBW_8ToString9to_stringEE9from_iterCsfeCe8ey9dfJ_7autocfg, symObjAddr: 0x1A38, symBinAddr: 0x100010A68, symSize: 0x14 }
  - { offset: 0x2D593, size: 0x8, addend: 0x0, symName: __RNvXNtNtCsdFlNUEO95cG_5alloc3vec21spec_from_iter_nestedINtB4_3VecNtNtB6_6string6StringEINtB2_18SpecFromIterNestedB11_INtNtNtNtCs85QQFkKrybG_4core4iter8adapters3map3MapINtNtB1W_6filter6FilterIB1S_INtNtNtB20_3str4iter5SplitcENvMB3c_e4trimENCNvCsfeCe8ey9dfJ_7autocfg9rustflags0ENvYeNtB13_8ToString9to_stringEE9from_iterB3R_, symObjAddr: 0x1A4C, symBinAddr: 0x100010A7C, symSize: 0x270 }
  - { offset: 0x2D84D, size: 0x8, addend: 0x0, symName: __RNvXNtNtCsdFlNUEO95cG_5alloc3vec21spec_from_iter_nestedINtB4_3VecNtNtB6_6string6StringEINtB2_18SpecFromIterNestedB11_INtNtNtNtCs85QQFkKrybG_4core4iter8adapters3map3MapINtNtNtB20_3str4iter5SplitcENvYeNtB13_8ToString9to_stringEE9from_iterCsfeCe8ey9dfJ_7autocfg, symObjAddr: 0x1CBC, symBinAddr: 0x100010CEC, symSize: 0x270 }
  - { offset: 0x2DB0E, size: 0x8, addend: 0x0, symName: __RNvXs6_NtCsdFlNUEO95cG_5alloc3vecINtB5_3VechENtNtNtCs85QQFkKrybG_4core3ops5deref5Deref5derefCsfeCe8ey9dfJ_7autocfg, symObjAddr: 0x2194, symBinAddr: 0x100011194, symSize: 0x24 }
  - { offset: 0x2DB84, size: 0x8, addend: 0x0, symName: __RNvXsf_NtCsdFlNUEO95cG_5alloc3vecRINtB5_3VecNtNtB7_6string6StringENtNtNtNtCs85QQFkKrybG_4core4iter6traits7collect12IntoIterator9into_iterCsfeCe8ey9dfJ_7autocfg, symObjAddr: 0x23D4, symBinAddr: 0x1000113D4, symSize: 0xA4 }
  - { offset: 0x2DDB7, size: 0x8, addend: 0x0, symName: __RNvXsn_NtCsdFlNUEO95cG_5alloc3vecINtB5_3VecINtNtB7_5boxed3BoxDINtNtNtCs85QQFkKrybG_4core3ops8function5FnMutuEp6OutputINtNtB15_6result6ResultuNtNtNtCswz7ZwgBZOU_3std2io5error5ErrorENtNtB15_6marker4SyncNtB2U_4SendEL_EENtNtB13_4drop4Drop4dropCsfeCe8ey9dfJ_7autocfg, symObjAddr: 0x2478, symBinAddr: 0x100011478, symSize: 0x38 }
  - { offset: 0x2DE67, size: 0x8, addend: 0x0, symName: __RNvXsn_NtCsdFlNUEO95cG_5alloc3vecINtB5_3VecNtNtB7_6string6StringENtNtNtCs85QQFkKrybG_4core3ops4drop4Drop4dropCsfeCe8ey9dfJ_7autocfg, symObjAddr: 0x24B0, symBinAddr: 0x1000114B0, symSize: 0x38 }
  - { offset: 0x2DF17, size: 0x8, addend: 0x0, symName: __RNvXsn_NtCsdFlNUEO95cG_5alloc3vecINtB5_3VecPaENtNtNtCs85QQFkKrybG_4core3ops4drop4Drop4dropCsfeCe8ey9dfJ_7autocfg, symObjAddr: 0x24E8, symBinAddr: 0x1000114E8, symSize: 0x24 }
  - { offset: 0x2E65F, size: 0x8, addend: 0x0, symName: __RNvXs2_NtCsdFlNUEO95cG_5alloc3streNtNtB7_6borrow7ToOwned8to_ownedCsfeCe8ey9dfJ_7autocfg, symObjAddr: 0x20BC, symBinAddr: 0x1000110BC, symSize: 0x50 }
  - { offset: 0x2E76A, size: 0x8, addend: 0x0, symName: __RINvMNtNtCs85QQFkKrybG_4core3fmt2rtNtB3_8Argument11new_displayReECsfeCe8ey9dfJ_7autocfg, symObjAddr: 0x84, symBinAddr: 0x10000F0B4, symSize: 0x2C }
  - { offset: 0x2E7A2, size: 0x8, addend: 0x0, symName: __RINvMNtNtCs85QQFkKrybG_4core3fmt2rtNtB3_8Argument11new_displayjECsfeCe8ey9dfJ_7autocfg, symObjAddr: 0xB0, symBinAddr: 0x10000F0E0, symSize: 0x2C }
  - { offset: 0x2E7DA, size: 0x8, addend: 0x0, symName: __RINvMNtNtCs85QQFkKrybG_4core3fmt2rtNtB3_8Argument13new_lower_hexyECsfeCe8ey9dfJ_7autocfg, symObjAddr: 0xDC, symBinAddr: 0x10000F10C, symSize: 0x2C }
  - { offset: 0x2E82C, size: 0x8, addend: 0x0, symName: __RINvMs16_NtCswz7ZwgBZOU_3std4pathNtB7_4Path4joinNtNtCsdFlNUEO95cG_5alloc6string6StringECsfeCe8ey9dfJ_7autocfg, symObjAddr: 0x108, symBinAddr: 0x10000F138, symSize: 0x94 }
  - { offset: 0x2EA99, size: 0x8, addend: 0x0, symName: __RINvMsi_NtCsdFlNUEO95cG_5alloc3vecINtB6_3VecNtNtB8_6string6StringE16extend_desugaredINtNtNtNtCs85QQFkKrybG_4core4iter8adapters3map3MapINtNtB1p_6filter6FilterIB1l_INtNtNtB1t_3str4iter5SplitcENvMB2F_e4trimENCNvCsfeCe8ey9dfJ_7autocfg9rustflags0ENvYeNtBI_8ToString9to_stringEEB3k_, symObjAddr: 0x19C, symBinAddr: 0x10000F1CC, symSize: 0x1E8 }
  - { offset: 0x2EEAF, size: 0x8, addend: 0x0, symName: __RINvMsi_NtCsdFlNUEO95cG_5alloc3vecINtB6_3VecNtNtB8_6string6StringE16extend_desugaredINtNtNtNtCs85QQFkKrybG_4core4iter8adapters3map3MapINtNtNtB1t_3str4iter5SplitcENvYeNtBI_8ToString9to_stringEECsfeCe8ey9dfJ_7autocfg, symObjAddr: 0x384, symBinAddr: 0x10000F3B4, symSize: 0x1E8 }
  - { offset: 0x2F2BD, size: 0x8, addend: 0x0, symName: __RINvMsk_NtCswz7ZwgBZOU_3std7processNtB6_7Command3argRNtNtB8_4path7PathBufECsfeCe8ey9dfJ_7autocfg, symObjAddr: 0x56C, symBinAddr: 0x10000F59C, symSize: 0x6C }
  - { offset: 0x2F2F8, size: 0x8, addend: 0x0, symName: __RINvMsk_NtCswz7ZwgBZOU_3std7processNtB6_7Command3argRNtNtCsdFlNUEO95cG_5alloc6string6StringECsfeCe8ey9dfJ_7autocfg, symObjAddr: 0x5D8, symBinAddr: 0x10000F608, symSize: 0x6C }
  - { offset: 0x2F35A, size: 0x8, addend: 0x0, symName: __RINvMsk_NtCswz7ZwgBZOU_3std7processNtB6_7Command3argRNtNtNtB8_3ffi6os_str5OsStrECsfeCe8ey9dfJ_7autocfg, symObjAddr: 0x644, symBinAddr: 0x10000F674, symSize: 0x70 }
  - { offset: 0x2F3A2, size: 0x8, addend: 0x0, symName: __RINvMsk_NtCswz7ZwgBZOU_3std7processNtB6_7Command3argRNtNtNtB8_3ffi6os_str8OsStringECsfeCe8ey9dfJ_7autocfg, symObjAddr: 0x6B4, symBinAddr: 0x10000F6E4, symSize: 0x6C }
  - { offset: 0x2F3DD, size: 0x8, addend: 0x0, symName: __RINvMsk_NtCswz7ZwgBZOU_3std7processNtB6_7Command3argReECsfeCe8ey9dfJ_7autocfg, symObjAddr: 0x720, symBinAddr: 0x10000F750, symSize: 0x70 }
  - { offset: 0x2F418, size: 0x8, addend: 0x0, symName: __RINvMsk_NtCswz7ZwgBZOU_3std7processNtB6_7Command3newRNtNtB8_4path7PathBufECsfeCe8ey9dfJ_7autocfg, symObjAddr: 0x790, symBinAddr: 0x10000F7C0, symSize: 0x80 }
  - { offset: 0x2F46B, size: 0x8, addend: 0x0, symName: __RINvMsk_NtCswz7ZwgBZOU_3std7processNtB6_7Command4argsRARNtNtB8_4path7PathBufj2_RBR_ECsfeCe8ey9dfJ_7autocfg, symObjAddr: 0x810, symBinAddr: 0x10000F840, symSize: 0xD4 }
  - { offset: 0x2F4F5, size: 0x8, addend: 0x0, symName: __RINvMsk_NtCswz7ZwgBZOU_3std7processNtB6_7Command4argsRARej2_RBR_ECsfeCe8ey9dfJ_7autocfg, symObjAddr: 0x8E4, symBinAddr: 0x10000F914, symSize: 0xD4 }
  - { offset: 0x2F565, size: 0x8, addend: 0x0, symName: __RINvMsk_NtCswz7ZwgBZOU_3std7processNtB6_7Command4argsRINtNtCsdFlNUEO95cG_5alloc3vec3VecNtNtBV_6string6StringERB1n_ECsfeCe8ey9dfJ_7autocfg, symObjAddr: 0x9B8, symBinAddr: 0x10000F9E8, symSize: 0xD4 }
  - { offset: 0x2F5D5, size: 0x8, addend: 0x0, symName: __RINvMsk_NtCswz7ZwgBZOU_3std7processNtB6_7Command5stdinNtB6_5StdioECsfeCe8ey9dfJ_7autocfg, symObjAddr: 0xA8C, symBinAddr: 0x10000FABC, symSize: 0x5C }
  - { offset: 0x2F61D, size: 0x8, addend: 0x0, symName: __RINvMsr_NtCswz7ZwgBZOU_3std4pathNtB6_7PathBuf13set_extensionReECsfeCe8ey9dfJ_7autocfg, symObjAddr: 0xAE8, symBinAddr: 0x10000FB18, symSize: 0x74 }
  - { offset: 0x2F658, size: 0x8, addend: 0x0, symName: __RINvMsr_NtCswz7ZwgBZOU_3std4pathNtB6_7PathBuf4pushRNtNtNtB8_3ffi6os_str8OsStringECsfeCe8ey9dfJ_7autocfg, symObjAddr: 0xB5C, symBinAddr: 0x10000FB8C, symSize: 0x68 }
  - { offset: 0x2FA86, size: 0x8, addend: 0x0, symName: __RNvMNtCsdFlNUEO95cG_5alloc3vecINtB2_3VecNtNtB4_6string6StringE3newCsfeCe8ey9dfJ_7autocfg, symObjAddr: 0x10AC, symBinAddr: 0x1000100DC, symSize: 0x14 }
  - { offset: 0x2FB24, size: 0x8, addend: 0x0, symName: __RNvMs16_NtCswz7ZwgBZOU_3std4pathNtB6_4Path6to_strCsfeCe8ey9dfJ_7autocfg, symObjAddr: 0x10C0, symBinAddr: 0x1000100F0, symSize: 0x94 }
  - { offset: 0x2FC6C, size: 0x8, addend: 0x0, symName: __RNvMsI_NtCswz7ZwgBZOU_3std7processNtB5_10ExitStatus7successCsfeCe8ey9dfJ_7autocfg, symObjAddr: 0x1154, symBinAddr: 0x100010184, symSize: 0x70 }
  - { offset: 0x2FE77, size: 0x8, addend: 0x0, symName: __RNvMs_NtCsdFlNUEO95cG_5alloc3vecINtB4_3VecNtNtB6_6string6StringE7reserveCsfeCe8ey9dfJ_7autocfg, symObjAddr: 0x11C4, symBinAddr: 0x1000101F4, symSize: 0xC8 }
  - { offset: 0x30093, size: 0x8, addend: 0x0, symName: __RNvMs_NtCsdFlNUEO95cG_5alloc3vecINtB4_3VechE8as_sliceCsfeCe8ey9dfJ_7autocfg, symObjAddr: 0x128C, symBinAddr: 0x1000102BC, symSize: 0x68 }
  - { offset: 0x3016D, size: 0x8, addend: 0x0, symName: __RNvMsj_NtCswz7ZwgBZOU_3std2fsNtB5_8Metadata11permissionsCsfeCe8ey9dfJ_7autocfg, symObjAddr: 0x12F4, symBinAddr: 0x100010324, symSize: 0x18 }
  - { offset: 0x301F0, size: 0x8, addend: 0x0, symName: __RNvMsj_NtCswz7ZwgBZOU_3std2fsNtB5_8Metadata6is_dirCsfeCe8ey9dfJ_7autocfg, symObjAddr: 0x130C, symBinAddr: 0x10001033C, symSize: 0x28 }
  - { offset: 0x302BD, size: 0x8, addend: 0x0, symName: __RNvMsq_NtCswz7ZwgBZOU_3std2fsNtB5_11Permissions8readonlyCsfeCe8ey9dfJ_7autocfg, symObjAddr: 0x1334, symBinAddr: 0x100010364, symSize: 0x24 }
  - { offset: 0x302F5, size: 0x8, addend: 0x0, symName: __RNvMsv_NtCswz7ZwgBZOU_3std7processNtB5_5Stdio5pipedCsfeCe8ey9dfJ_7autocfg, symObjAddr: 0x1358, symBinAddr: 0x100010388, symSize: 0x18 }
  - { offset: 0x30DBB, size: 0x8, addend: 0x0, symName: __RINvMsb_NtNtNtCsdFlNUEO95cG_5alloc11collections5btree8navigateINtB6_13LazyLeafRangeNtNtNtB8_4node6marker5DyingNtNtNtCswz7ZwgBZOU_3std3ffi6os_str8OsStringINtNtCs85QQFkKrybG_4core6option6OptionB1K_EE16deallocating_endNtNtBc_5alloc6GlobalECsfeCe8ey9dfJ_7autocfg, symObjAddr: 0x0, symBinAddr: 0x100011954, symSize: 0x98 }
  - { offset: 0x30EEA, size: 0x8, addend: 0x0, symName: __RNCNvXs1_NtNtNtCswz7ZwgBZOU_3std2io5error14repr_bitpackedNtB7_4ReprNtNtNtCs85QQFkKrybG_4core3ops4drop4Drop4drop0CsfeCe8ey9dfJ_7autocfg, symObjAddr: 0x610, symBinAddr: 0x100011F64, symSize: 0x3C }
  - { offset: 0x30F9F, size: 0x8, addend: 0x0, symName: __RNvXs1_NtNtNtCswz7ZwgBZOU_3std2io5error14repr_bitpackedNtB5_4ReprNtNtNtCs85QQFkKrybG_4core3ops4drop4Drop4dropCsfeCe8ey9dfJ_7autocfg, symObjAddr: 0x30AC, symBinAddr: 0x1000148AC, symSize: 0x38 }
  - { offset: 0x30FC8, size: 0x8, addend: 0x0, symName: __RINvNtNtNtCswz7ZwgBZOU_3std2io5error14repr_bitpacked11decode_reprINtNtCsdFlNUEO95cG_5alloc5boxed3BoxNtB4_6CustomENCNvXs1_B2_NtB2_4ReprNtNtNtCs85QQFkKrybG_4core3ops4drop4Drop4drop0ECsfeCe8ey9dfJ_7autocfg, symObjAddr: 0x140, symBinAddr: 0x100011A94, symSize: 0x1DC }
  - { offset: 0x31235, size: 0x8, addend: 0x0, symName: __RNCNvMs0_NtNtNtCswz7ZwgBZOU_3std2io5error14repr_bitpackedNtB7_4Repr4data0CsfeCe8ey9dfJ_7autocfg, symObjAddr: 0x5FC, symBinAddr: 0x100011F50, symSize: 0x14 }
  - { offset: 0x3126D, size: 0x8, addend: 0x0, symName: __RINvNtNtNtCswz7ZwgBZOU_3std2io5error14repr_bitpacked11decode_reprRNtB4_6CustomNCNvMs0_B2_NtB2_4Repr4data0ECsfeCe8ey9dfJ_7autocfg, symObjAddr: 0x31C, symBinAddr: 0x100011C70, symSize: 0x1DC }
  - { offset: 0x314C9, size: 0x8, addend: 0x0, symName: __RNvNtNtNtCswz7ZwgBZOU_3std2io5error14repr_bitpacked14kind_from_primCsfeCe8ey9dfJ_7autocfg, symObjAddr: 0x1FE4, symBinAddr: 0x100013938, symSize: 0x608 }
  - { offset: 0x32436, size: 0x8, addend: 0x0, symName: __RNvNvMs1_NtNtCs85QQFkKrybG_4core3ptr8non_nullINtB7_7NonNullpE13new_unchecked18precondition_checkCsfeCe8ey9dfJ_7autocfg, symObjAddr: 0x25EC, symBinAddr: 0x100013F40, symSize: 0xA4 }
  - { offset: 0x32AB8, size: 0x8, addend: 0x0, symName: __RNvNvMs3_NtCs85QQFkKrybG_4core3numi13unchecked_neg18precondition_checkCsfeCe8ey9dfJ_7autocfg, symObjAddr: 0x2690, symBinAddr: 0x100013FE4, symSize: 0xB8 }
  - { offset: 0x32CAB, size: 0x8, addend: 0x0, symName: __RNvNvMs9_NtCs85QQFkKrybG_4core3numj13unchecked_add18precondition_checkCsfeCe8ey9dfJ_7autocfg, symObjAddr: 0x27F8, symBinAddr: 0x10001414C, symSize: 0xB0 }
  - { offset: 0x32D3F, size: 0x8, addend: 0x0, symName: __RNvNvMs9_NtCs85QQFkKrybG_4core3numj13unchecked_sub18precondition_checkCsfeCe8ey9dfJ_7autocfg, symObjAddr: 0x28A8, symBinAddr: 0x1000141FC, symSize: 0xAC }
  - { offset: 0x32DAE, size: 0x8, addend: 0x0, symName: __RNvMsu_NtCs85QQFkKrybG_4core3numj16from_ascii_radixCsfeCe8ey9dfJ_7autocfg, symObjAddr: 0x13E0, symBinAddr: 0x100012D34, symSize: 0x57C }
  - { offset: 0x33056, size: 0x8, addend: 0x0, symName: __RNvNvMs7_NtCs85QQFkKrybG_4core3numy13unchecked_add18precondition_checkCsfeCe8ey9dfJ_7autocfg, symObjAddr: 0x2748, symBinAddr: 0x10001409C, symSize: 0xB0 }
  - { offset: 0x330EB, size: 0x8, addend: 0x0, symName: __RNvXst_NtCs85QQFkKrybG_4core3numjNtNtNtB7_3str6traits7FromStr8from_strCsfeCe8ey9dfJ_7autocfg, symObjAddr: 0x3324, symBinAddr: 0x10001496C, symSize: 0x30 }
  - { offset: 0x33177, size: 0x8, addend: 0x0, symName: __RNvXs3_NtNtCs85QQFkKrybG_4core3str7patternNvMNtNtB9_4char7methodsc13is_whitespaceNtB5_11MultiCharEq7matchesCsfeCe8ey9dfJ_7autocfg, symObjAddr: 0x30E4, symBinAddr: 0x1000148E4, symSize: 0x28 }
  - { offset: 0x331C3, size: 0x8, addend: 0x0, symName: __RNvXsr_NtNtCs85QQFkKrybG_4core3str7patternNvMNtNtB9_4char7methodsc13is_whitespaceNtB5_7Pattern13into_searcherCsfeCe8ey9dfJ_7autocfg, symObjAddr: 0x32DC, symBinAddr: 0x100014924, symSize: 0x48 }
  - { offset: 0x33F53, size: 0x8, addend: 0x0, symName: __RNvNvNtCs85QQFkKrybG_4core4hint16assert_unchecked18precondition_checkCsfeCe8ey9dfJ_7autocfg, symObjAddr: 0x2954, symBinAddr: 0x1000142A8, symSize: 0xA4 }
  - { offset: 0x33FB3, size: 0x8, addend: 0x0, symName: __RNvNvNtCs85QQFkKrybG_4core4hint21unreachable_unchecked18precondition_checkCsfeCe8ey9dfJ_7autocfg, symObjAddr: 0x29F8, symBinAddr: 0x10001434C, symSize: 0x84 }
  - { offset: 0x341E4, size: 0x8, addend: 0x0, symName: __RNvXs19_NtCs85QQFkKrybG_4core3fmtRNtNtCsfeCe8ey9dfJ_7autocfg5error9ErrorKindNtB6_5Debug3fmtBA_, symObjAddr: 0x2EBC, symBinAddr: 0x1000146BC, symSize: 0x30 }
  - { offset: 0x3422A, size: 0x8, addend: 0x0, symName: __RNvXs19_NtCs85QQFkKrybG_4core3fmtRNtNtNtNtNtCswz7ZwgBZOU_3std3sys7process4unix4unix10ExitStatusNtB6_5Debug3fmtCsfeCe8ey9dfJ_7autocfg, symObjAddr: 0x2EEC, symBinAddr: 0x1000146EC, symSize: 0x30 }
  - { offset: 0x34407, size: 0x8, addend: 0x0, symName: __RINvXs3_NtNtCs85QQFkKrybG_4core4hash5implsRyNtB8_4Hash4hashNtNtNtCswz7ZwgBZOU_3std4hash6random13DefaultHasherECsfeCe8ey9dfJ_7autocfg, symObjAddr: 0x4F8, symBinAddr: 0x100011E4C, symSize: 0x30 }
  - { offset: 0x34458, size: 0x8, addend: 0x0, symName: __RINvXsa_NtNtCs85QQFkKrybG_4core4hash5implsyNtB8_4Hash4hashNtNtNtCswz7ZwgBZOU_3std4hash6random13DefaultHasherECsfeCe8ey9dfJ_7autocfg, symObjAddr: 0x528, symBinAddr: 0x100011E7C, symSize: 0x38 }
  - { offset: 0x3456E, size: 0x8, addend: 0x0, symName: __RNvMNtNtCs85QQFkKrybG_4core4char7methodsc13is_whitespaceCsfeCe8ey9dfJ_7autocfg, symObjAddr: 0xD1C, symBinAddr: 0x100012670, symSize: 0x90 }
  - { offset: 0x345B2, size: 0x8, addend: 0x0, symName: __RNvMNtNtCs85QQFkKrybG_4core4char7methodsc8to_digitCsfeCe8ey9dfJ_7autocfg, symObjAddr: 0xDAC, symBinAddr: 0x100012700, symSize: 0x14C }
  - { offset: 0x346B2, size: 0x8, addend: 0x0, symName: __RNvNtNtCs85QQFkKrybG_4core4char7methods15encode_utf8_rawCsfeCe8ey9dfJ_7autocfg, symObjAddr: 0x1D4C, symBinAddr: 0x1000136A0, symSize: 0x110 }
  - { offset: 0x347B2, size: 0x8, addend: 0x0, symName: __RNvNtNtCs85QQFkKrybG_4core4char7methods25encode_utf8_raw_uncheckedCsfeCe8ey9dfJ_7autocfg, symObjAddr: 0x1E5C, symBinAddr: 0x1000137B0, symSize: 0x188 }
  - { offset: 0x34A30, size: 0x8, addend: 0x0, symName: __RNvXNtNtCs85QQFkKrybG_4core3ops12control_flowINtB2_11ControlFlowReENtNtB4_9try_trait3Try11from_outputCsfeCe8ey9dfJ_7autocfg, symObjAddr: 0x2DF4, symBinAddr: 0x1000145F4, symSize: 0x10 }
  - { offset: 0x34A6E, size: 0x8, addend: 0x0, symName: __RNvXNtNtCs85QQFkKrybG_4core3ops12control_flowINtB2_11ControlFlowReENtNtB4_9try_trait3Try6branchCsfeCe8ey9dfJ_7autocfg, symObjAddr: 0x2E04, symBinAddr: 0x100014604, symSize: 0x54 }
  - { offset: 0x34AEC, size: 0x8, addend: 0x0, symName: __RNvXs_NtNtCs85QQFkKrybG_4core3ops12control_flowINtB4_11ControlFlowReEINtNtB6_9try_trait12FromResidualIBK_B12_NtNtB8_7convert10InfallibleEE13from_residualCsfeCe8ey9dfJ_7autocfg, symObjAddr: 0x32C4, symBinAddr: 0x10001490C, symSize: 0x18 }
  - { offset: 0x34D67, size: 0x8, addend: 0x0, symName: __RNvNvXs0_NtNtCs85QQFkKrybG_4core5slice5indexjINtB7_10SliceIndexSpE13get_unchecked18precondition_checkCsfeCe8ey9dfJ_7autocfg, symObjAddr: 0x2A7C, symBinAddr: 0x1000143D0, symSize: 0xAC }
  - { offset: 0x34DD5, size: 0x8, addend: 0x0, symName: __RNvNvXs0_NtNtCs85QQFkKrybG_4core5slice5indexjINtB7_10SliceIndexSpE17get_unchecked_mut18precondition_checkCsfeCe8ey9dfJ_7autocfg, symObjAddr: 0x2B28, symBinAddr: 0x10001447C, symSize: 0xAC }
  - { offset: 0x34E49, size: 0x8, addend: 0x0, symName: __RNvNvXs2_NtNtCs85QQFkKrybG_4core5slice5indexINtNtNtBb_3ops5range5RangejEINtB7_10SliceIndexSpE13get_unchecked18precondition_checkCsfeCe8ey9dfJ_7autocfg, symObjAddr: 0x2BD4, symBinAddr: 0x100014528, symSize: 0xCC }
  - { offset: 0x35107, size: 0x8, addend: 0x0, symName: __RNvNtCsfeCe8ey9dfJ_7autocfg5error7from_io, symObjAddr: 0x195C, symBinAddr: 0x1000132B0, symSize: 0x40 }
  - { offset: 0x35133, size: 0x8, addend: 0x0, symName: __RNvNtCsfeCe8ey9dfJ_7autocfg5error8from_num, symObjAddr: 0x199C, symBinAddr: 0x1000132F0, symSize: 0x40 }
  - { offset: 0x3515F, size: 0x8, addend: 0x0, symName: __RNvNtCsfeCe8ey9dfJ_7autocfg5error8from_str, symObjAddr: 0x19DC, symBinAddr: 0x100013330, symSize: 0x4C }
  - { offset: 0x3518B, size: 0x8, addend: 0x0, symName: __RNvNtCsfeCe8ey9dfJ_7autocfg5error9from_exit, symObjAddr: 0x1A28, symBinAddr: 0x10001337C, symSize: 0x40 }
  - { offset: 0x351B7, size: 0x8, addend: 0x0, symName: __RNvNtCsfeCe8ey9dfJ_7autocfg5error9from_utf8, symObjAddr: 0x1A68, symBinAddr: 0x1000133BC, symSize: 0x44 }
  - { offset: 0x351E8, size: 0x8, addend: 0x0, symName: __RNvXs0_NtCsfeCe8ey9dfJ_7autocfg5errorNtB5_5ErrorNtNtCs85QQFkKrybG_4core3fmt5Debug3fmtB7_, symObjAddr: 0x2E58, symBinAddr: 0x100014658, symSize: 0x64 }
  - { offset: 0x35228, size: 0x8, addend: 0x0, symName: __RNvXs1_NtCsfeCe8ey9dfJ_7autocfg5errorNtB5_9ErrorKindNtNtCs85QQFkKrybG_4core3fmt5Debug3fmtB7_, symObjAddr: 0x2F1C, symBinAddr: 0x10001471C, symSize: 0x190 }
  - { offset: 0x35304, size: 0x8, addend: 0x0, symName: __RNCNvMNtCsfeCe8ey9dfJ_7autocfg5rustcNtB4_5Rustc3new0B6_, symObjAddr: 0x5B8, symBinAddr: 0x100011F0C, symSize: 0x44 }
  - { offset: 0x3539B, size: 0x8, addend: 0x0, symName: __RNvNtCsfeCe8ey9dfJ_7autocfg5rustc17get_rustc_wrapper, symObjAddr: 0x1AAC, symBinAddr: 0x100013400, symSize: 0x2A0 }
  - { offset: 0x35611, size: 0x8, addend: 0x0, symName: __RNCINvMsm_NtNtNtCsdFlNUEO95cG_5alloc11collections5btree8navigateINtNtBa_4node6HandleINtB13_7NodeRefNtNtB13_6marker5DyingNtNtNtCswz7ZwgBZOU_3std3ffi6os_str8OsStringINtNtCs85QQFkKrybG_4core6option6OptionB1U_ENtB1B_4LeafENtB1B_4EdgeE27deallocating_next_uncheckedNtNtBe_5alloc6GlobalE0CsfeCe8ey9dfJ_7autocfg, symObjAddr: 0x560, symBinAddr: 0x100011EB4, symSize: 0x58 }
  - { offset: 0x35E8C, size: 0x8, addend: 0x0, symName: __RINvMsb_NtNtNtCsdFlNUEO95cG_5alloc11collections5btree8navigateINtB6_13LazyLeafRangeNtNtNtB8_4node6marker5DyingNtNtNtCswz7ZwgBZOU_3std3ffi6os_str8OsStringINtNtCs85QQFkKrybG_4core6option6OptionB1K_EE16deallocating_endNtNtBc_5alloc6GlobalECsfeCe8ey9dfJ_7autocfg, symObjAddr: 0x0, symBinAddr: 0x100011954, symSize: 0x98 }
  - { offset: 0x35F90, size: 0x8, addend: 0x0, symName: __RINvMsb_NtNtNtCsdFlNUEO95cG_5alloc11collections5btree8navigateINtB6_13LazyLeafRangeNtNtNtB8_4node6marker5DyingNtNtNtCswz7ZwgBZOU_3std3ffi6os_str8OsStringINtNtCs85QQFkKrybG_4core6option6OptionB1K_EE27deallocating_next_uncheckedNtNtBc_5alloc6GlobalECsfeCe8ey9dfJ_7autocfg, symObjAddr: 0x98, symBinAddr: 0x1000119EC, symSize: 0xA8 }
  - { offset: 0x362A3, size: 0x8, addend: 0x0, symName: __RNvMNtCsfeCe8ey9dfJ_7autocfg5rustcNtB2_5Rustc3new, symObjAddr: 0x64C, symBinAddr: 0x100011FA0, symSize: 0x114 }
  - { offset: 0x363F9, size: 0x8, addend: 0x0, symName: __RNvMNtCsfeCe8ey9dfJ_7autocfg5rustcNtB2_5Rustc7command, symObjAddr: 0x760, symBinAddr: 0x1000120B4, symSize: 0x1B4 }
  - { offset: 0x3648F, size: 0x8, addend: 0x0, symName: __RNvMNtCsfeCe8ey9dfJ_7autocfg5rustcNtB2_5Rustc7version, symObjAddr: 0x914, symBinAddr: 0x100012268, symSize: 0x408 }
  - { offset: 0x3662D, size: 0x8, addend: 0x0, symName: __RNvMs1G_NtNtCs85QQFkKrybG_4core4sync6atomicNtB6_11AtomicUsize9fetch_addCsfeCe8ey9dfJ_7autocfg, symObjAddr: 0xEF8, symBinAddr: 0x10001284C, symSize: 0xE0 }
  - { offset: 0x366D8, size: 0x8, addend: 0x0, symName: __RNvMs1_NtNtCs85QQFkKrybG_4core3ptr8non_nullINtB5_7NonNullhE20offset_from_unsignedCsfeCe8ey9dfJ_7autocfg, symObjAddr: 0xFD8, symBinAddr: 0x10001292C, symSize: 0x7C }
  - { offset: 0x36942, size: 0x8, addend: 0x0, symName: __RNvMsb_NtNtNtCsdFlNUEO95cG_5alloc11collections5btree8navigateINtB5_13LazyLeafRangeNtNtNtB7_4node6marker5DyingNtNtNtCswz7ZwgBZOU_3std3ffi6os_str8OsStringINtNtCs85QQFkKrybG_4core6option6OptionB1J_EE10take_frontCsfeCe8ey9dfJ_7autocfg, symObjAddr: 0x1054, symBinAddr: 0x1000129A8, symSize: 0x1C4 }
  - { offset: 0x36CA5, size: 0x8, addend: 0x0, symName: __RNvMsc_NtNtNtCsdFlNUEO95cG_5alloc11collections5btree8navigateINtB5_13LazyLeafRangeNtNtNtB7_4node6marker5DyingNtNtNtCswz7ZwgBZOU_3std3ffi6os_str8OsStringINtNtCs85QQFkKrybG_4core6option6OptionB1J_EE10init_frontCsfeCe8ey9dfJ_7autocfg, symObjAddr: 0x1218, symBinAddr: 0x100012B6C, symSize: 0x1C8 }
  - { offset: 0x3705A, size: 0x8, addend: 0x0, symName: __RINvNtCs85QQFkKrybG_4core3ptr10swap_chunkKj1_ECsfeCe8ey9dfJ_7autocfg, symObjAddr: 0x0, symBinAddr: 0x10001499C, symSize: 0x3C }
  - { offset: 0x370CD, size: 0x8, addend: 0x0, symName: __RNvXs5_NtNtCs85QQFkKrybG_4core3num5errorNtB5_15TryFromIntErrorNtNtB9_3fmt5Debug3fmtCsfeCe8ey9dfJ_7autocfg, symObjAddr: 0x31DC, symBinAddr: 0x100017888, symSize: 0x54 }
  - { offset: 0x3710D, size: 0x8, addend: 0x0, symName: __RNvXsb_NtNtCs85QQFkKrybG_4core3num5errorNtB5_13ParseIntErrorNtNtB9_3fmt5Debug3fmtCsfeCe8ey9dfJ_7autocfg, symObjAddr: 0x3640, symBinAddr: 0x100017CB4, symSize: 0x64 }
  - { offset: 0x375EB, size: 0x8, addend: 0x0, symName: __RINvNtCs85QQFkKrybG_4core3ptr10swap_chunkKj1_ECsfeCe8ey9dfJ_7autocfg, symObjAddr: 0x0, symBinAddr: 0x10001499C, symSize: 0x3C }
  - { offset: 0x37624, size: 0x8, addend: 0x0, symName: __RINvNtCs85QQFkKrybG_4core3ptr10swap_chunkKj2_ECsfeCe8ey9dfJ_7autocfg, symObjAddr: 0x3C, symBinAddr: 0x1000149D8, symSize: 0x3C }
  - { offset: 0x3765D, size: 0x8, addend: 0x0, symName: __RINvNtCs85QQFkKrybG_4core3ptr10swap_chunkKj4_ECsfeCe8ey9dfJ_7autocfg, symObjAddr: 0x78, symBinAddr: 0x100014A14, symSize: 0x3C }
  - { offset: 0x37696, size: 0x8, addend: 0x0, symName: __RINvNtCs85QQFkKrybG_4core3ptr10swap_chunkKj8_ECsfeCe8ey9dfJ_7autocfg, symObjAddr: 0xB4, symBinAddr: 0x100014A50, symSize: 0x3C }
  - { offset: 0x376CF, size: 0x8, addend: 0x0, symName: __RINvNtCs85QQFkKrybG_4core3ptr13drop_in_placeINtNtB4_6option6OptionINtNtCsdFlNUEO95cG_5alloc5boxed3BoxSmEEECsfeCe8ey9dfJ_7autocfg, symObjAddr: 0x180, symBinAddr: 0x100014A8C, symSize: 0x44 }
  - { offset: 0x376FE, size: 0x8, addend: 0x0, symName: __RINvNtCs85QQFkKrybG_4core3ptr13drop_in_placeINtNtB4_6option6OptionNtNtCsdFlNUEO95cG_5alloc6string6StringEECsfeCe8ey9dfJ_7autocfg, symObjAddr: 0x1C4, symBinAddr: 0x100014AD0, symSize: 0x48 }
  - { offset: 0x3772D, size: 0x8, addend: 0x0, symName: __RINvNtCs85QQFkKrybG_4core3ptr13drop_in_placeINtNtB4_6option6OptionNtNtCswz7ZwgBZOU_3std4path7PathBufEECsfeCe8ey9dfJ_7autocfg, symObjAddr: 0x20C, symBinAddr: 0x100014B18, symSize: 0x48 }
  - { offset: 0x3775C, size: 0x8, addend: 0x0, symName: __RINvNtCs85QQFkKrybG_4core3ptr13drop_in_placeINtNtB4_6option6OptionNtNtCswz7ZwgBZOU_3std7process10ChildStdinEECsfeCe8ey9dfJ_7autocfg, symObjAddr: 0x254, symBinAddr: 0x100014B60, symSize: 0x44 }
  - { offset: 0x3778B, size: 0x8, addend: 0x0, symName: __RINvNtCs85QQFkKrybG_4core3ptr13drop_in_placeINtNtB4_6option6OptionNtNtCswz7ZwgBZOU_3std7process11ChildStderrEECsfeCe8ey9dfJ_7autocfg, symObjAddr: 0x298, symBinAddr: 0x100014BA4, symSize: 0x44 }
  - { offset: 0x377BA, size: 0x8, addend: 0x0, symName: __RINvNtCs85QQFkKrybG_4core3ptr13drop_in_placeINtNtB4_6option6OptionNtNtCswz7ZwgBZOU_3std7process11ChildStdoutEECsfeCe8ey9dfJ_7autocfg, symObjAddr: 0x2DC, symBinAddr: 0x100014BE8, symSize: 0x44 }
  - { offset: 0x377E9, size: 0x8, addend: 0x0, symName: __RINvNtCs85QQFkKrybG_4core3ptr13drop_in_placeINtNtB4_6option6OptionNtNtNtCsdFlNUEO95cG_5alloc3ffi5c_str7CStringEECsfeCe8ey9dfJ_7autocfg, symObjAddr: 0x320, symBinAddr: 0x100014C2C, symSize: 0x44 }
  - { offset: 0x37818, size: 0x8, addend: 0x0, symName: __RINvNtCs85QQFkKrybG_4core3ptr13drop_in_placeINtNtB4_6option6OptionNtNtNtCswz7ZwgBZOU_3std3ffi6os_str8OsStringEECsfeCe8ey9dfJ_7autocfg, symObjAddr: 0x364, symBinAddr: 0x100014C70, symSize: 0x48 }
  - { offset: 0x37847, size: 0x8, addend: 0x0, symName: __RINvNtCs85QQFkKrybG_4core3ptr13drop_in_placeINtNtB4_6option6OptionNtNtNtNtNtCswz7ZwgBZOU_3std3sys7process4unix6common5StdioEECsfeCe8ey9dfJ_7autocfg, symObjAddr: 0x3AC, symBinAddr: 0x100014CB8, symSize: 0x44 }
  - { offset: 0x37876, size: 0x8, addend: 0x0, symName: __RINvNtCs85QQFkKrybG_4core3ptr13drop_in_placeINtNtB4_6result6ResultNtNtCsdFlNUEO95cG_5alloc6string6StringNtNtCswz7ZwgBZOU_3std3env8VarErrorEECsfeCe8ey9dfJ_7autocfg, symObjAddr: 0x3F0, symBinAddr: 0x100014CFC, symSize: 0x50 }
  - { offset: 0x378A5, size: 0x8, addend: 0x0, symName: __RINvNtCs85QQFkKrybG_4core3ptr13drop_in_placeINtNtB4_6result6ResultNtNtCsfeCe8ey9dfJ_7autocfg7version7VersionNtNtB16_5error5ErrorEEB16_, symObjAddr: 0x440, symBinAddr: 0x100014D4C, symSize: 0x40 }
  - { offset: 0x378D4, size: 0x8, addend: 0x0, symName: __RINvNtCs85QQFkKrybG_4core3ptr13drop_in_placeINtNtB4_6result6ResultuNtNtCsfeCe8ey9dfJ_7autocfg5error5ErrorEEB17_, symObjAddr: 0x480, symBinAddr: 0x100014D8C, symSize: 0x44 }
  - { offset: 0x37903, size: 0x8, addend: 0x0, symName: __RINvNtCs85QQFkKrybG_4core3ptr13drop_in_placeINtNtB4_6result6ResultuNtNtNtCswz7ZwgBZOU_3std2io5error5ErrorEECsfeCe8ey9dfJ_7autocfg, symObjAddr: 0x4C4, symBinAddr: 0x100014DD0, symSize: 0x44 }
  - { offset: 0x37932, size: 0x8, addend: 0x0, symName: __RINvNtCs85QQFkKrybG_4core3ptr13drop_in_placeINtNtCsdFlNUEO95cG_5alloc3vec3VecINtNtBL_5boxed3BoxDINtNtNtB4_3ops8function5FnMutuEp6OutputINtNtB4_6result6ResultuNtNtNtCswz7ZwgBZOU_3std2io5error5ErrorENtNtB4_6marker4SyncNtB3b_4SendEL_EEECsfeCe8ey9dfJ_7autocfg, symObjAddr: 0x508, symBinAddr: 0x100014E14, symSize: 0x5C }
  - { offset: 0x37961, size: 0x8, addend: 0x0, symName: __RINvNtCs85QQFkKrybG_4core3ptr13drop_in_placeINtNtCsdFlNUEO95cG_5alloc3vec3VecNtNtBL_6string6StringEECsfeCe8ey9dfJ_7autocfg, symObjAddr: 0x564, symBinAddr: 0x100014E70, symSize: 0x5C }
  - { offset: 0x37990, size: 0x8, addend: 0x0, symName: __RINvNtCs85QQFkKrybG_4core3ptr13drop_in_placeINtNtCsdFlNUEO95cG_5alloc3vec3VecPaEECsfeCe8ey9dfJ_7autocfg, symObjAddr: 0x5C0, symBinAddr: 0x100014ECC, symSize: 0x5C }
  - { offset: 0x379BF, size: 0x8, addend: 0x0, symName: __RINvNtCs85QQFkKrybG_4core3ptr13drop_in_placeINtNtCsdFlNUEO95cG_5alloc3vec3VechEECsfeCe8ey9dfJ_7autocfg, symObjAddr: 0x61C, symBinAddr: 0x100014F28, symSize: 0x5C }
  - { offset: 0x379EE, size: 0x8, addend: 0x0, symName: __RINvNtCs85QQFkKrybG_4core3ptr13drop_in_placeINtNtCsdFlNUEO95cG_5alloc5boxed3BoxDINtNtNtB4_3ops8function5FnMutuEp6OutputINtNtB4_6result6ResultuNtNtNtCswz7ZwgBZOU_3std2io5error5ErrorENtNtB4_6marker4SyncNtB2V_4SendEL_EECsfeCe8ey9dfJ_7autocfg, symObjAddr: 0x678, symBinAddr: 0x100014F84, symSize: 0x80 }
  - { offset: 0x37A1D, size: 0x8, addend: 0x0, symName: __RINvNtCs85QQFkKrybG_4core3ptr13drop_in_placeINtNtCsdFlNUEO95cG_5alloc5boxed3BoxDNtNtB4_5error5ErrorNtNtB4_6marker4SyncNtB1B_4SendEL_EECsfeCe8ey9dfJ_7autocfg, symObjAddr: 0x6F8, symBinAddr: 0x100015004, symSize: 0x80 }
  - { offset: 0x37A4C, size: 0x8, addend: 0x0, symName: __RINvNtCs85QQFkKrybG_4core3ptr13drop_in_placeINtNtCsdFlNUEO95cG_5alloc5boxed3BoxNtNtNtCswz7ZwgBZOU_3std2io5error6CustomEECsfeCe8ey9dfJ_7autocfg, symObjAddr: 0x778, symBinAddr: 0x100015084, symSize: 0x60 }
  - { offset: 0x37A7B, size: 0x8, addend: 0x0, symName: __RINvNtCs85QQFkKrybG_4core3ptr13drop_in_placeINtNtCsdFlNUEO95cG_5alloc5boxed3BoxShEECsfeCe8ey9dfJ_7autocfg, symObjAddr: 0x7D8, symBinAddr: 0x1000150E4, symSize: 0x2C }
  - { offset: 0x37AAA, size: 0x8, addend: 0x0, symName: __RINvNtCs85QQFkKrybG_4core3ptr13drop_in_placeINtNtCsdFlNUEO95cG_5alloc5boxed3BoxSmEECsfeCe8ey9dfJ_7autocfg, symObjAddr: 0x804, symBinAddr: 0x100015110, symSize: 0x2C }
  - { offset: 0x37AD9, size: 0x8, addend: 0x0, symName: __RINvNtCs85QQFkKrybG_4core3ptr13drop_in_placeINtNtCsdFlNUEO95cG_5alloc7raw_vec6RawVecINtNtBL_5boxed3BoxDINtNtNtB4_3ops8function5FnMutuEp6OutputINtNtB4_6result6ResultuNtNtNtCswz7ZwgBZOU_3std2io5error5ErrorENtNtB4_6marker4SyncNtB3i_4SendEL_EEECsfeCe8ey9dfJ_7autocfg, symObjAddr: 0x830, symBinAddr: 0x10001513C, symSize: 0x24 }
  - { offset: 0x37B08, size: 0x8, addend: 0x0, symName: __RINvNtCs85QQFkKrybG_4core3ptr13drop_in_placeINtNtCsdFlNUEO95cG_5alloc7raw_vec6RawVecNtNtBL_6string6StringEECsfeCe8ey9dfJ_7autocfg, symObjAddr: 0x854, symBinAddr: 0x100015160, symSize: 0x24 }
  - { offset: 0x37B37, size: 0x8, addend: 0x0, symName: __RINvNtCs85QQFkKrybG_4core3ptr13drop_in_placeINtNtCsdFlNUEO95cG_5alloc7raw_vec6RawVecPaEECsfeCe8ey9dfJ_7autocfg, symObjAddr: 0x878, symBinAddr: 0x100015184, symSize: 0x24 }
  - { offset: 0x37B66, size: 0x8, addend: 0x0, symName: __RINvNtCs85QQFkKrybG_4core3ptr13drop_in_placeINtNtCsdFlNUEO95cG_5alloc7raw_vec6RawVechEECsfeCe8ey9dfJ_7autocfg, symObjAddr: 0x89C, symBinAddr: 0x1000151A8, symSize: 0x24 }
  - { offset: 0x37B95, size: 0x8, addend: 0x0, symName: __RINvNtCs85QQFkKrybG_4core3ptr13drop_in_placeINtNtCsfieuf5LernF_9hashbrown10scopeguard10ScopeGuardNtNtBL_3raw13RawTableInnerNCINvMsa_B1z_B1x_14prepare_resizeNtNtCsdFlNUEO95cG_5alloc5alloc6GlobalE0EECsfeCe8ey9dfJ_7autocfg, symObjAddr: 0x8C0, symBinAddr: 0x1000151CC, symSize: 0x24 }
  - { offset: 0x37BC4, size: 0x8, addend: 0x0, symName: __RINvNtCs85QQFkKrybG_4core3ptr13drop_in_placeINtNtCsfieuf5LernF_9hashbrown10scopeguard10ScopeGuardQNtNtBL_3raw13RawTableInnerNCNvMsa_B1A_B1y_15rehash_in_place0EECsfeCe8ey9dfJ_7autocfg, symObjAddr: 0x8E4, symBinAddr: 0x1000151F0, symSize: 0x24 }
  - { offset: 0x37BF3, size: 0x8, addend: 0x0, symName: __RINvNtCs85QQFkKrybG_4core3ptr13drop_in_placeINtNtCsfieuf5LernF_9hashbrown3map7HashMapyuNtNtNtCswz7ZwgBZOU_3std4hash6random11RandomStateEECsfeCe8ey9dfJ_7autocfg, symObjAddr: 0x908, symBinAddr: 0x100015214, symSize: 0x24 }
  - { offset: 0x37C22, size: 0x8, addend: 0x0, symName: __RINvNtCs85QQFkKrybG_4core3ptr13drop_in_placeINtNtCsfieuf5LernF_9hashbrown3map8IntoIteryuEECsfeCe8ey9dfJ_7autocfg, symObjAddr: 0x92C, symBinAddr: 0x100015238, symSize: 0x24 }
  - { offset: 0x37C51, size: 0x8, addend: 0x0, symName: __RINvNtCs85QQFkKrybG_4core3ptr13drop_in_placeINtNtCsfieuf5LernF_9hashbrown3raw11RawIntoIterTyuEEECsfeCe8ey9dfJ_7autocfg, symObjAddr: 0x950, symBinAddr: 0x10001525C, symSize: 0x24 }
  - { offset: 0x37C80, size: 0x8, addend: 0x0, symName: __RINvNtCs85QQFkKrybG_4core3ptr13drop_in_placeINtNtCsfieuf5LernF_9hashbrown3raw8RawTableTyuEEECsfeCe8ey9dfJ_7autocfg, symObjAddr: 0x974, symBinAddr: 0x100015280, symSize: 0x24 }
  - { offset: 0x37CAF, size: 0x8, addend: 0x0, symName: __RINvNtCs85QQFkKrybG_4core3ptr13drop_in_placeINtNtCsfieuf5LernF_9hashbrown3set7HashSetyNtNtNtCswz7ZwgBZOU_3std4hash6random11RandomStateEECsfeCe8ey9dfJ_7autocfg, symObjAddr: 0x998, symBinAddr: 0x1000152A4, symSize: 0x24 }
  - { offset: 0x37CDE, size: 0x8, addend: 0x0, symName: __RINvNtCs85QQFkKrybG_4core3ptr13drop_in_placeINtNtCsfieuf5LernF_9hashbrown3set8IntoIteryEECsfeCe8ey9dfJ_7autocfg, symObjAddr: 0x9BC, symBinAddr: 0x1000152C8, symSize: 0x24 }
  - { offset: 0x37D0D, size: 0x8, addend: 0x0, symName: __RINvNtCs85QQFkKrybG_4core3ptr13drop_in_placeINtNtNtCswz7ZwgBZOU_3std2io5error9ErrorDataINtNtCsdFlNUEO95cG_5alloc5boxed3BoxNtBJ_6CustomEEECsfeCe8ey9dfJ_7autocfg, symObjAddr: 0x9E0, symBinAddr: 0x1000152EC, symSize: 0x48 }
  - { offset: 0x37D3C, size: 0x8, addend: 0x0, symName: __RINvNtCs85QQFkKrybG_4core3ptr13drop_in_placeINtNtNtNtCsdFlNUEO95cG_5alloc11collections5btree3map8BTreeMapNtNtNtCswz7ZwgBZOU_3std3ffi6os_str8OsStringINtNtB4_6option6OptionB1F_EEECsfeCe8ey9dfJ_7autocfg, symObjAddr: 0xA28, symBinAddr: 0x100015334, symSize: 0x24 }
  - { offset: 0x37D6B, size: 0x8, addend: 0x0, symName: __RINvNtCs85QQFkKrybG_4core3ptr13drop_in_placeINtNtNtNtCsdFlNUEO95cG_5alloc11collections5btree3map8IntoIterNtNtNtCswz7ZwgBZOU_3std3ffi6os_str8OsStringINtNtB4_6option6OptionB1F_EEECsfeCe8ey9dfJ_7autocfg, symObjAddr: 0xA4C, symBinAddr: 0x100015358, symSize: 0x24 }
  - { offset: 0x37D9A, size: 0x8, addend: 0x0, symName: __RINvNtCs85QQFkKrybG_4core3ptr13drop_in_placeINtNtNtNtCswz7ZwgBZOU_3std11collections4hash3set7HashSetyEECsfeCe8ey9dfJ_7autocfg, symObjAddr: 0xA70, symBinAddr: 0x10001537C, symSize: 0x24 }
  - { offset: 0x37DC9, size: 0x8, addend: 0x0, symName: __RINvNtCs85QQFkKrybG_4core3ptr13drop_in_placeINtNtNtNtCswz7ZwgBZOU_3std11collections4hash3set8IntoIteryEECsfeCe8ey9dfJ_7autocfg, symObjAddr: 0xA94, symBinAddr: 0x1000153A0, symSize: 0x24 }
  - { offset: 0x37DF8, size: 0x8, addend: 0x0, symName: __RINvNtCs85QQFkKrybG_4core3ptr13drop_in_placeINtNvMsT_NtNtNtCsdFlNUEO95cG_5alloc11collections5btree4nodeINtBP_6HandleINtBP_7NodeRefNtNtBP_6marker5DyingpppENtB26_2KVE12drop_key_val7DropperINtNtB4_6option6OptionNtNtNtCswz7ZwgBZOU_3std3ffi6os_str8OsStringEEECsfeCe8ey9dfJ_7autocfg, symObjAddr: 0xAB8, symBinAddr: 0x1000153C4, symSize: 0x24 }
  - { offset: 0x37E27, size: 0x8, addend: 0x0, symName: __RINvNtCs85QQFkKrybG_4core3ptr13drop_in_placeINtNvNtCswz7ZwgBZOU_3std2io17default_write_fmt7AdapterNtNtBN_7process10ChildStdinEECsfeCe8ey9dfJ_7autocfg, symObjAddr: 0xADC, symBinAddr: 0x1000153E8, symSize: 0x24 }
  - { offset: 0x37E56, size: 0x8, addend: 0x0, symName: __RINvNtCs85QQFkKrybG_4core3ptr13drop_in_placeINtNvNtCswz7ZwgBZOU_3std2io17default_write_fmt7AdapterNtNtNtNtBN_3sys5stdio4unix6StderrEECsfeCe8ey9dfJ_7autocfg, symObjAddr: 0xB00, symBinAddr: 0x10001540C, symSize: 0x24 }
  - { offset: 0x37E85, size: 0x8, addend: 0x0, symName: __RINvNtCs85QQFkKrybG_4core3ptr13drop_in_placeINtNvXsw_NtNtNtCsdFlNUEO95cG_5alloc11collections5btree3mapINtBP_8IntoIterpppENtNtNtB4_3ops4drop4Drop4drop9DropGuardNtNtNtCswz7ZwgBZOU_3std3ffi6os_str8OsStringINtNtB4_6option6OptionB2x_ENtNtBV_5alloc6GlobalEECsfeCe8ey9dfJ_7autocfg, symObjAddr: 0xB24, symBinAddr: 0x100015430, symSize: 0x24 }
  - { offset: 0x37EB4, size: 0x8, addend: 0x0, symName: __RINvNtCs85QQFkKrybG_4core3ptr13drop_in_placeNCNCNvCsfeCe8ey9dfJ_7autocfg19dir_contains_target00EBM_, symObjAddr: 0xB48, symBinAddr: 0x100015454, symSize: 0x24 }
  - { offset: 0x37EE3, size: 0x8, addend: 0x0, symName: __RINvNtCs85QQFkKrybG_4core3ptr13drop_in_placeNCNvCsfeCe8ey9dfJ_7autocfg19dir_contains_target0EBK_, symObjAddr: 0xB6C, symBinAddr: 0x100015478, symSize: 0x24 }
  - { offset: 0x37F12, size: 0x8, addend: 0x0, symName: __RINvNtCs85QQFkKrybG_4core3ptr13drop_in_placeNtCsfeCe8ey9dfJ_7autocfg7AutoCfgEBI_, symObjAddr: 0xB90, symBinAddr: 0x10001549C, symSize: 0xF0 }
  - { offset: 0x37F41, size: 0x8, addend: 0x0, symName: __RINvNtCs85QQFkKrybG_4core3ptr13drop_in_placeNtNtCsdFlNUEO95cG_5alloc6string6StringECsfeCe8ey9dfJ_7autocfg, symObjAddr: 0xC80, symBinAddr: 0x10001558C, symSize: 0x24 }
  - { offset: 0x37F70, size: 0x8, addend: 0x0, symName: __RINvNtCs85QQFkKrybG_4core3ptr13drop_in_placeNtNtCsfeCe8ey9dfJ_7autocfg5error5ErrorEBK_, symObjAddr: 0xCA4, symBinAddr: 0x1000155B0, symSize: 0x24 }
  - { offset: 0x37F9F, size: 0x8, addend: 0x0, symName: __RINvNtCs85QQFkKrybG_4core3ptr13drop_in_placeNtNtCsfeCe8ey9dfJ_7autocfg5error9ErrorKindEBK_, symObjAddr: 0xCC8, symBinAddr: 0x1000155D4, symSize: 0x40 }
  - { offset: 0x37FCE, size: 0x8, addend: 0x0, symName: __RINvNtCs85QQFkKrybG_4core3ptr13drop_in_placeNtNtCsfeCe8ey9dfJ_7autocfg5rustc5RustcEBK_, symObjAddr: 0xD08, symBinAddr: 0x100015614, symSize: 0x90 }
  - { offset: 0x37FFD, size: 0x8, addend: 0x0, symName: __RINvNtCs85QQFkKrybG_4core3ptr13drop_in_placeNtNtCswz7ZwgBZOU_3std3env8VarErrorECsfeCe8ey9dfJ_7autocfg, symObjAddr: 0xD98, symBinAddr: 0x1000156A4, symSize: 0x48 }
  - { offset: 0x3802C, size: 0x8, addend: 0x0, symName: __RINvNtCs85QQFkKrybG_4core3ptr13drop_in_placeNtNtCswz7ZwgBZOU_3std4path7PathBufECsfeCe8ey9dfJ_7autocfg, symObjAddr: 0xDE0, symBinAddr: 0x1000156EC, symSize: 0x24 }
  - { offset: 0x3805B, size: 0x8, addend: 0x0, symName: __RINvNtCs85QQFkKrybG_4core3ptr13drop_in_placeNtNtCswz7ZwgBZOU_3std7process10ChildStdinECsfeCe8ey9dfJ_7autocfg, symObjAddr: 0xE04, symBinAddr: 0x100015710, symSize: 0x24 }
  - { offset: 0x3808A, size: 0x8, addend: 0x0, symName: __RINvNtCs85QQFkKrybG_4core3ptr13drop_in_placeNtNtCswz7ZwgBZOU_3std7process11ChildStderrECsfeCe8ey9dfJ_7autocfg, symObjAddr: 0xE28, symBinAddr: 0x100015734, symSize: 0x24 }
  - { offset: 0x380B9, size: 0x8, addend: 0x0, symName: __RINvNtCs85QQFkKrybG_4core3ptr13drop_in_placeNtNtCswz7ZwgBZOU_3std7process11ChildStdoutECsfeCe8ey9dfJ_7autocfg, symObjAddr: 0xE4C, symBinAddr: 0x100015758, symSize: 0x24 }
  - { offset: 0x380E8, size: 0x8, addend: 0x0, symName: __RINvNtCs85QQFkKrybG_4core3ptr13drop_in_placeNtNtCswz7ZwgBZOU_3std7process5ChildECsfeCe8ey9dfJ_7autocfg, symObjAddr: 0xE70, symBinAddr: 0x10001577C, symSize: 0x94 }
  - { offset: 0x38117, size: 0x8, addend: 0x0, symName: __RINvNtCs85QQFkKrybG_4core3ptr13drop_in_placeNtNtCswz7ZwgBZOU_3std7process6OutputECsfeCe8ey9dfJ_7autocfg, symObjAddr: 0xF04, symBinAddr: 0x100015810, symSize: 0x60 }
  - { offset: 0x38146, size: 0x8, addend: 0x0, symName: __RINvNtCs85QQFkKrybG_4core3ptr13drop_in_placeNtNtCswz7ZwgBZOU_3std7process7CommandECsfeCe8ey9dfJ_7autocfg, symObjAddr: 0xF64, symBinAddr: 0x100015870, symSize: 0x24 }
  - { offset: 0x38175, size: 0x8, addend: 0x0, symName: __RINvNtCs85QQFkKrybG_4core3ptr13drop_in_placeNtNtNtCsdFlNUEO95cG_5alloc3ffi5c_str7CStringECsfeCe8ey9dfJ_7autocfg, symObjAddr: 0xF88, symBinAddr: 0x100015894, symSize: 0x5C }
  - { offset: 0x381A4, size: 0x8, addend: 0x0, symName: __RINvNtCs85QQFkKrybG_4core3ptr13drop_in_placeNtNtNtCswz7ZwgBZOU_3std2io5error5ErrorECsfeCe8ey9dfJ_7autocfg, symObjAddr: 0xFE4, symBinAddr: 0x1000158F0, symSize: 0x24 }
  - { offset: 0x381D3, size: 0x8, addend: 0x0, symName: __RINvNtCs85QQFkKrybG_4core3ptr13drop_in_placeNtNtNtCswz7ZwgBZOU_3std2io5error6CustomECsfeCe8ey9dfJ_7autocfg, symObjAddr: 0x1008, symBinAddr: 0x100015914, symSize: 0x24 }
  - { offset: 0x38202, size: 0x8, addend: 0x0, symName: __RINvNtCs85QQFkKrybG_4core3ptr13drop_in_placeNtNtNtCswz7ZwgBZOU_3std3ffi6os_str8OsStringECsfeCe8ey9dfJ_7autocfg, symObjAddr: 0x102C, symBinAddr: 0x100015938, symSize: 0x24 }
  - { offset: 0x38231, size: 0x8, addend: 0x0, symName: __RINvNtCs85QQFkKrybG_4core3ptr13drop_in_placeNtNtNtNtCswz7ZwgBZOU_3std2io5error14repr_bitpacked4ReprECsfeCe8ey9dfJ_7autocfg, symObjAddr: 0x1050, symBinAddr: 0x10001595C, symSize: 0x24 }
  - { offset: 0x38260, size: 0x8, addend: 0x0, symName: __RINvNtCs85QQFkKrybG_4core3ptr13drop_in_placeNtNtNtNtCswz7ZwgBZOU_3std2os2fd5owned7OwnedFdECsfeCe8ey9dfJ_7autocfg, symObjAddr: 0x1074, symBinAddr: 0x100015980, symSize: 0x24 }
  - { offset: 0x3828F, size: 0x8, addend: 0x0, symName: __RINvNtCs85QQFkKrybG_4core3ptr13drop_in_placeNtNtNtNtCswz7ZwgBZOU_3std3sys2fd4unix8FileDescECsfeCe8ey9dfJ_7autocfg, symObjAddr: 0x1098, symBinAddr: 0x1000159A4, symSize: 0x24 }
  - { offset: 0x382BE, size: 0x8, addend: 0x0, symName: __RINvNtCs85QQFkKrybG_4core3ptr13drop_in_placeNtNtNtNtCswz7ZwgBZOU_3std3sys6os_str5bytes3BufECsfeCe8ey9dfJ_7autocfg, symObjAddr: 0x10BC, symBinAddr: 0x1000159C8, symSize: 0x24 }
  - { offset: 0x382ED, size: 0x8, addend: 0x0, symName: __RINvNtCs85QQFkKrybG_4core3ptr13drop_in_placeNtNtNtNtCswz7ZwgBZOU_3std3sys7process3env10CommandEnvECsfeCe8ey9dfJ_7autocfg, symObjAddr: 0x10E0, symBinAddr: 0x1000159EC, symSize: 0x24 }
  - { offset: 0x3831C, size: 0x8, addend: 0x0, symName: __RINvNtCs85QQFkKrybG_4core3ptr13drop_in_placeNtNtNtNtNtCswz7ZwgBZOU_3std3sys3pal4unix4pipe8AnonPipeECsfeCe8ey9dfJ_7autocfg, symObjAddr: 0x1104, symBinAddr: 0x100015A10, symSize: 0x24 }
  - { offset: 0x3834B, size: 0x8, addend: 0x0, symName: __RINvNtCs85QQFkKrybG_4core3ptr13drop_in_placeNtNtNtNtNtCswz7ZwgBZOU_3std3sys7process4unix6common5StdioECsfeCe8ey9dfJ_7autocfg, symObjAddr: 0x1128, symBinAddr: 0x100015A34, symSize: 0x44 }
  - { offset: 0x3837A, size: 0x8, addend: 0x0, symName: __RINvNtCs85QQFkKrybG_4core3ptr13drop_in_placeNtNtNtNtNtCswz7ZwgBZOU_3std3sys7process4unix6common7CommandECsfeCe8ey9dfJ_7autocfg, symObjAddr: 0x116C, symBinAddr: 0x100015A78, symSize: 0x1DC }
  - { offset: 0x383A9, size: 0x8, addend: 0x0, symName: __RINvNtCs85QQFkKrybG_4core3ptr13drop_in_placeNtNtNtNtNtNtCswz7ZwgBZOU_3std3sys7process4unix6common13cstring_array12CStringArrayECsfeCe8ey9dfJ_7autocfg, symObjAddr: 0x1348, symBinAddr: 0x100015C54, symSize: 0x5C }
  - { offset: 0x383D8, size: 0x8, addend: 0x0, symName: __RINvNtCs85QQFkKrybG_4core3ptr13drop_in_placeNtNvNtNtNtCsdFlNUEO95cG_5alloc11collections5btree3mem7replace10PanicGuardECsfeCe8ey9dfJ_7autocfg, symObjAddr: 0x13A4, symBinAddr: 0x100015CB0, symSize: 0x24 }
  - { offset: 0x38407, size: 0x8, addend: 0x0, symName: __RINvNtCs85QQFkKrybG_4core3ptr13drop_in_placeSINtNtCsdFlNUEO95cG_5alloc5boxed3BoxDINtNtNtB4_3ops8function5FnMutuEp6OutputINtNtB4_6result6ResultuNtNtNtCswz7ZwgBZOU_3std2io5error5ErrorENtNtB4_6marker4SyncNtB2W_4SendEL_EECsfeCe8ey9dfJ_7autocfg, symObjAddr: 0x13C8, symBinAddr: 0x100015CD4, symSize: 0xB4 }
  - { offset: 0x38436, size: 0x8, addend: 0x0, symName: __RINvNtCs85QQFkKrybG_4core3ptr13drop_in_placeSNtNtCsdFlNUEO95cG_5alloc6string6StringECsfeCe8ey9dfJ_7autocfg, symObjAddr: 0x147C, symBinAddr: 0x100015D88, symSize: 0xC4 }
  - { offset: 0x38895, size: 0x8, addend: 0x0, symName: __RINvNtCs85QQFkKrybG_4core3ptr14read_unalignedNtNtNtNtB4_9core_arch10arm_shared4neon9uint8x8_tECsfeCe8ey9dfJ_7autocfg, symObjAddr: 0x1540, symBinAddr: 0x100015E4C, symSize: 0xA4 }
  - { offset: 0x389E0, size: 0x8, addend: 0x0, symName: __RINvNtCs85QQFkKrybG_4core3ptr15write_unalignedNtNtNtNtB4_9core_arch10arm_shared4neon9uint8x8_tECsfeCe8ey9dfJ_7autocfg, symObjAddr: 0x15E4, symBinAddr: 0x100015EF0, symSize: 0x78 }
  - { offset: 0x38AFC, size: 0x8, addend: 0x0, symName: __RNvNvNtCs85QQFkKrybG_4core3ptr19swap_nonoverlapping18precondition_checkCsfeCe8ey9dfJ_7autocfg, symObjAddr: 0x26B0, symBinAddr: 0x100016D9C, symSize: 0x38C }
  - { offset: 0x38E09, size: 0x8, addend: 0x0, symName: __RINvNtCs85QQFkKrybG_4core3ptr19swap_nonoverlappinghECsfeCe8ey9dfJ_7autocfg, symObjAddr: 0x171C, symBinAddr: 0x100015F68, symSize: 0xBC }
  - { offset: 0x38FFA, size: 0x8, addend: 0x0, symName: __RINvNvNtCs85QQFkKrybG_4core3ptr25swap_nonoverlapping_bytes26swap_nonoverlapping_chunksKj8_ECsfeCe8ey9dfJ_7autocfg, symObjAddr: 0x17F0, symBinAddr: 0x10001603C, symSize: 0xE4 }
  - { offset: 0x3919C, size: 0x8, addend: 0x0, symName: __RNvNvNtCs85QQFkKrybG_4core3ptr25swap_nonoverlapping_bytes25swap_nonoverlapping_shortCsfeCe8ey9dfJ_7autocfg, symObjAddr: 0x2A3C, symBinAddr: 0x100017128, symSize: 0x120 }
  - { offset: 0x39523, size: 0x8, addend: 0x0, symName: __RNvNtCs85QQFkKrybG_4core3ptr25swap_nonoverlapping_bytesCsfeCe8ey9dfJ_7autocfg, symObjAddr: 0x20BC, symBinAddr: 0x1000167A8, symSize: 0xD8 }
  - { offset: 0x396CC, size: 0x8, addend: 0x0, symName: __RNvNvNtCs85QQFkKrybG_4core3ptr19copy_nonoverlapping18precondition_checkCsfeCe8ey9dfJ_7autocfg, symObjAddr: 0x2344, symBinAddr: 0x100016A30, symSize: 0x36C }
  - { offset: 0x399AC, size: 0x8, addend: 0x0, symName: __RNvNvNtCs85QQFkKrybG_4core3ptr7replace18precondition_checkCsfeCe8ey9dfJ_7autocfg, symObjAddr: 0x2B5C, symBinAddr: 0x100017248, symSize: 0x16C }
  - { offset: 0x39BC8, size: 0x8, addend: 0x0, symName: __RNvXsn_NtNtCs85QQFkKrybG_4core3cmp5implsyNtB7_9PartialEq2eqCsfeCe8ey9dfJ_7autocfg, symObjAddr: 0x36A4, symBinAddr: 0x100017D18, symSize: 0x2C }
  - { offset: 0x3A170, size: 0x8, addend: 0x0, symName: __RINvNtNtNtNtCs85QQFkKrybG_4core9core_arch10arm_shared4neon9generated13vget_lane_u64Kl0_ECsfeCe8ey9dfJ_7autocfg, symObjAddr: 0x17D8, symBinAddr: 0x100016024, symSize: 0x18 }
  - { offset: 0x3A19F, size: 0x8, addend: 0x0, symName: __RNvNtNtNtNtCs85QQFkKrybG_4core9core_arch10arm_shared4neon9generated18vreinterpret_s8_u8CsfeCe8ey9dfJ_7autocfg, symObjAddr: 0x2194, symBinAddr: 0x100016880, symSize: 0xC }
  - { offset: 0x3A1CD, size: 0x8, addend: 0x0, symName: __RNvNtNtNtNtCs85QQFkKrybG_4core9core_arch10arm_shared4neon9generated19vreinterpret_u64_u8CsfeCe8ey9dfJ_7autocfg, symObjAddr: 0x21A0, symBinAddr: 0x10001688C, symSize: 0xC }
  - { offset: 0x3A1FB, size: 0x8, addend: 0x0, symName: __RNvNtNtNtNtCs85QQFkKrybG_4core9core_arch10arm_shared4neon9generated7vceq_u8CsfeCe8ey9dfJ_7autocfg, symObjAddr: 0x21AC, symBinAddr: 0x100016898, symSize: 0x14 }
  - { offset: 0x3A238, size: 0x8, addend: 0x0, symName: __RNvNtNtNtNtCs85QQFkKrybG_4core9core_arch10arm_shared4neon9generated7vorr_u8CsfeCe8ey9dfJ_7autocfg, symObjAddr: 0x21C0, symBinAddr: 0x1000168AC, symSize: 0x14 }
  - { offset: 0x3A275, size: 0x8, addend: 0x0, symName: __RNvNtNtNtNtCs85QQFkKrybG_4core9core_arch10arm_shared4neon9generated9vdup_n_u8CsfeCe8ey9dfJ_7autocfg, symObjAddr: 0x21D4, symBinAddr: 0x1000168C0, symSize: 0x2C }
  - { offset: 0x3A338, size: 0x8, addend: 0x0, symName: __RNvNtNtNtNtCs85QQFkKrybG_4core9core_arch7aarch644neon9generated7vld1_u8CsfeCe8ey9dfJ_7autocfg, symObjAddr: 0x2200, symBinAddr: 0x1000168EC, symSize: 0x34 }
  - { offset: 0x3A366, size: 0x8, addend: 0x0, symName: __RNvNtNtNtNtCs85QQFkKrybG_4core9core_arch7aarch644neon9generated7vst1_u8CsfeCe8ey9dfJ_7autocfg, symObjAddr: 0x2234, symBinAddr: 0x100016920, symSize: 0x40 }
  - { offset: 0x3A3A0, size: 0x8, addend: 0x0, symName: __RNvNtNtNtNtCs85QQFkKrybG_4core9core_arch7aarch644neon9generated8vcgez_s8CsfeCe8ey9dfJ_7autocfg, symObjAddr: 0x2274, symBinAddr: 0x100016960, symSize: 0x68 }
  - { offset: 0x3A442, size: 0x8, addend: 0x0, symName: __RNvNtNtNtNtCs85QQFkKrybG_4core9core_arch7aarch644neon9generated8vcltz_s8CsfeCe8ey9dfJ_7autocfg, symObjAddr: 0x22DC, symBinAddr: 0x1000169C8, symSize: 0x68 }
  - { offset: 0x3B2CD, size: 0x8, addend: 0x0, symName: __RINvXs0_NtNtNtCs85QQFkKrybG_4core4iter8adapters3mapINtB6_3MapINtNtNtBc_3ops5range5RangeyENCINvXs8_NtCsfieuf5LernF_9hashbrown3setINtB1y_7HashSetyNtNtNtCswz7ZwgBZOU_3std4hash6random11RandomStateEINtNtNtBa_6traits7collect6ExtendyE6extendBX_E0ENtNtB3a_8iterator8Iterator4folduNCINvNvB3Q_8for_each4callTyuENCINvXs1i_NtB1A_3mapINtB4Z_7HashMapyuB2i_EIB36_B4L_E6extendBN_E0E0ECsfeCe8ey9dfJ_7autocfg, symObjAddr: 0x18D4, symBinAddr: 0x100016120, symSize: 0x2C }
  - { offset: 0x3B33E, size: 0x8, addend: 0x0, symName: __RINvXs0_NtNtNtCs85QQFkKrybG_4core4iter8adapters3mapINtB6_3MapINtNtNtBc_3str4iter5SplitcENvMB12_e4trimENtNtNtBa_6traits8iterator8Iterator8try_folduNCINvNvB1C_4find5checkReQNCNvCsfeCe8ey9dfJ_7autocfg9rustflags0E0INtNtNtBc_3ops12control_flow11ControlFlowB2G_EEB2N_, symObjAddr: 0x1900, symBinAddr: 0x10001614C, symSize: 0x38 }
  - { offset: 0x3B3BC, size: 0x8, addend: 0x0, symName: __RNvXs0_NtNtNtCs85QQFkKrybG_4core4iter8adapters3mapINtB5_3MapINtNtB7_6filter6FilterIBN_INtNtNtBb_3str4iter5SplitcENvMB1r_e4trimENCNvCsfeCe8ey9dfJ_7autocfg9rustflags0ENvYeNtNtCsdFlNUEO95cG_5alloc6string8ToString9to_stringENtNtNtB9_6traits8iterator8Iterator4nextB25_, symObjAddr: 0x2E58, symBinAddr: 0x100017528, symSize: 0xA4 }
  - { offset: 0x3B458, size: 0x8, addend: 0x0, symName: __RNvXs0_NtNtNtCs85QQFkKrybG_4core4iter8adapters3mapINtB5_3MapINtNtB7_6filter6FilterIBN_INtNtNtBb_3str4iter5SplitcENvMB1r_e4trimENCNvCsfeCe8ey9dfJ_7autocfg9rustflags0ENvYeNtNtCsdFlNUEO95cG_5alloc6string8ToString9to_stringENtNtNtB9_6traits8iterator8Iterator9size_hintB25_, symObjAddr: 0x2EFC, symBinAddr: 0x1000175CC, symSize: 0x24 }
  - { offset: 0x3B49F, size: 0x8, addend: 0x0, symName: __RNvXs0_NtNtNtCs85QQFkKrybG_4core4iter8adapters3mapINtB5_3MapINtNtNtBb_3ops5range5RangeyENCINvXs8_NtCsfieuf5LernF_9hashbrown3setINtB1x_7HashSetyNtNtNtCswz7ZwgBZOU_3std4hash6random11RandomStateEINtNtNtB9_6traits7collect6ExtendyE6extendBW_E0ENtNtB39_8iterator8Iterator9size_hintCsfeCe8ey9dfJ_7autocfg, symObjAddr: 0x2F20, symBinAddr: 0x1000175F0, symSize: 0x24 }
  - { offset: 0x3B4E6, size: 0x8, addend: 0x0, symName: __RNvXs0_NtNtNtCs85QQFkKrybG_4core4iter8adapters3mapINtB5_3MapINtNtNtBb_3str4iter14SplitInclusivecENtB11_8LinesMapENtNtNtB9_6traits8iterator8Iterator4nextCsfeCe8ey9dfJ_7autocfg, symObjAddr: 0x2F44, symBinAddr: 0x100017614, symSize: 0x90 }
  - { offset: 0x3B582, size: 0x8, addend: 0x0, symName: __RNvXs0_NtNtNtCs85QQFkKrybG_4core4iter8adapters3mapINtB5_3MapINtNtNtBb_3str4iter5SplitcENvMB11_e4trimENtNtNtB9_6traits8iterator8Iterator9size_hintCsfeCe8ey9dfJ_7autocfg, symObjAddr: 0x2FD4, symBinAddr: 0x1000176A4, symSize: 0x24 }
  - { offset: 0x3B5C9, size: 0x8, addend: 0x0, symName: __RNvXs0_NtNtNtCs85QQFkKrybG_4core4iter8adapters3mapINtB5_3MapINtNtNtBb_3str4iter5SplitcENvYeNtNtCsdFlNUEO95cG_5alloc6string8ToString9to_stringENtNtNtB9_6traits8iterator8Iterator4nextCsfeCe8ey9dfJ_7autocfg, symObjAddr: 0x2FF8, symBinAddr: 0x1000176C8, symSize: 0xA4 }
  - { offset: 0x3B665, size: 0x8, addend: 0x0, symName: __RNvXs0_NtNtNtCs85QQFkKrybG_4core4iter8adapters3mapINtB5_3MapINtNtNtBb_3str4iter5SplitcENvYeNtNtCsdFlNUEO95cG_5alloc6string8ToString9to_stringENtNtNtB9_6traits8iterator8Iterator9size_hintCsfeCe8ey9dfJ_7autocfg, symObjAddr: 0x309C, symBinAddr: 0x10001776C, symSize: 0x24 }
  - { offset: 0x3B6E5, size: 0x8, addend: 0x0, symName: __RNCINvNtNtNtCs85QQFkKrybG_4core4iter8adapters3map12map_try_foldReBZ_uINtNtNtBa_3ops12control_flow11ControlFlowBZ_ENvMNtBa_3stre4trimNCINvNvNtNtNtB8_6traits8iterator8Iterator4find5checkBZ_QNCNvCsfeCe8ey9dfJ_7autocfg9rustflags0E0E0B34_, symObjAddr: 0x1BC8, symBinAddr: 0x100016354, symSize: 0x9C }
  - { offset: 0x3B77D, size: 0x8, addend: 0x0, symName: __RNCINvNtNtNtCs85QQFkKrybG_4core4iter8adapters3map8map_foldyTyuEuNCINvXs8_NtCsfieuf5LernF_9hashbrown3setINtB19_7HashSetyNtNtNtCswz7ZwgBZOU_3std4hash6random11RandomStateEINtNtNtB8_6traits7collect6ExtendyE6extendINtNtNtBa_3ops5range5RangeyEE0NCINvNvNtNtB2L_8iterator8Iterator8for_each4callBV_NCINvXs1i_NtB1b_3mapINtB4N_7HashMapyuB1T_EIB2H_BV_E6extendINtB4_3MapB3l_B10_EE0E0E0CsfeCe8ey9dfJ_7autocfg, symObjAddr: 0x1CDC, symBinAddr: 0x1000163F0, symSize: 0x78 }
  - { offset: 0x3B97E, size: 0x8, addend: 0x0, symName: __RINvYINtNtNtNtCs85QQFkKrybG_4core4iter8adapters3map3MapINtNtB8_6filter6FilterIB4_INtNtNtBc_3str4iter5SplitcENvMB1m_e4trimENCNvCsfeCe8ey9dfJ_7autocfg9rustflags0ENvYeNtNtCsdFlNUEO95cG_5alloc6string8ToString9to_stringENtNtNtBa_6traits8iterator8Iterator7collectINtNtB2G_3vec3VecNtB2E_6StringEEB20_, symObjAddr: 0x196C, symBinAddr: 0x100016184, symSize: 0x74 }
  - { offset: 0x3BA14, size: 0x8, addend: 0x0, symName: __RINvYINtNtNtNtCs85QQFkKrybG_4core4iter8adapters3map3MapINtNtNtBc_3ops5range5RangeyENCINvXs8_NtCsfieuf5LernF_9hashbrown3setINtB1s_7HashSetyNtNtNtCswz7ZwgBZOU_3std4hash6random11RandomStateEINtNtNtBa_6traits7collect6ExtendyE6extendBR_E0ENtNtB34_8iterator8Iterator8for_eachNCINvXs1i_NtB1u_3mapINtB4t_7HashMapyuB2c_EIB30_TyuEE6extendB3_E0ECsfeCe8ey9dfJ_7autocfg, symObjAddr: 0x19E0, symBinAddr: 0x1000161F8, symSize: 0x2C }
  - { offset: 0x3BA5F, size: 0x8, addend: 0x0, symName: __RINvYINtNtNtNtCs85QQFkKrybG_4core4iter8adapters3map3MapINtNtNtBc_3str4iter5SplitcENvMBW_e4trimENtNtNtBa_6traits8iterator8Iterator4findQNCNvCsfeCe8ey9dfJ_7autocfg9rustflags0EB2d_, symObjAddr: 0x1A0C, symBinAddr: 0x100016224, symSize: 0x8C }
  - { offset: 0x3BADE, size: 0x8, addend: 0x0, symName: __RINvYINtNtNtNtCs85QQFkKrybG_4core4iter8adapters3map3MapINtNtNtBc_3str4iter5SplitcENvMBW_e4trimENtNtNtBa_6traits8iterator8Iterator6filterNCNvCsfeCe8ey9dfJ_7autocfg9rustflags0EB2e_, symObjAddr: 0x1A98, symBinAddr: 0x1000162B0, symSize: 0x30 }
  - { offset: 0x3BB43, size: 0x8, addend: 0x0, symName: __RINvYINtNtNtNtCs85QQFkKrybG_4core4iter8adapters3map3MapINtNtNtBc_3str4iter5SplitcENvYeNtNtCsdFlNUEO95cG_5alloc6string8ToString9to_stringENtNtNtBa_6traits8iterator8Iterator7collectINtNtB1q_3vec3VecNtB1o_6StringEECsfeCe8ey9dfJ_7autocfg, symObjAddr: 0x1AC8, symBinAddr: 0x1000162E0, symSize: 0x74 }
  - { offset: 0x3BBE3, size: 0x8, addend: 0x0, symName: __RNCINvNvNtNtNtNtCs85QQFkKrybG_4core4iter6traits8iterator8Iterator4find5checkReNCNvMNtCsfeCe8ey9dfJ_7autocfg7versionNtB1j_7Version12from_command0E0B1l_, symObjAddr: 0x1D54, symBinAddr: 0x100016468, symSize: 0x84 }
  - { offset: 0x3BC3F, size: 0x8, addend: 0x0, symName: __RNCINvNvNtNtNtNtCs85QQFkKrybG_4core4iter6traits8iterator8Iterator4find5checkReQNCNvCsfeCe8ey9dfJ_7autocfg9rustflags0E0B1j_, symObjAddr: 0x1DD8, symBinAddr: 0x1000164EC, symSize: 0x84 }
  - { offset: 0x3BCBA, size: 0x8, addend: 0x0, symName: __RNCINvNvNtNtNtNtCs85QQFkKrybG_4core4iter6traits8iterator8Iterator8for_each4callTyuENCINvXs1i_NtCsfieuf5LernF_9hashbrown3mapINtB1t_7HashMapyuNtNtNtCswz7ZwgBZOU_3std4hash6random11RandomStateEINtNtBa_7collect6ExtendB1f_E6extendINtNtNtBc_8adapters3map3MapINtNtNtBe_3ops5range5RangeyENCINvXs8_NtB1v_3setINtB4C_7HashSetyB2e_EIB32_yE6extendB41_E0EE0E0CsfeCe8ey9dfJ_7autocfg, symObjAddr: 0x1E5C, symBinAddr: 0x100016570, symSize: 0x28 }
  - { offset: 0x3BD33, size: 0x8, addend: 0x0, symName: __RNvXNtNtNtCs85QQFkKrybG_4core4iter6traits7collectINtNtNtB6_8adapters3map3MapINtNtBQ_6filter6FilterIBM_INtNtNtB8_3str4iter5SplitcENvMB1H_e4trimENCNvCsfeCe8ey9dfJ_7autocfg9rustflags0ENvYeNtNtCsdFlNUEO95cG_5alloc6string8ToString9to_stringENtB2_12IntoIterator9into_iterB2l_, symObjAddr: 0x2D18, symBinAddr: 0x100017404, symSize: 0x30 }
  - { offset: 0x3BD6B, size: 0x8, addend: 0x0, symName: __RNvXNtNtNtCs85QQFkKrybG_4core4iter6traits7collectINtNtNtB6_8adapters3map3MapINtNtNtB8_3ops5range5RangeyENCINvXs8_NtCsfieuf5LernF_9hashbrown3setINtB1N_7HashSetyNtNtNtCswz7ZwgBZOU_3std4hash6random11RandomStateEINtB2_6ExtendyE6extendB1c_E0ENtB2_12IntoIterator9into_iterCsfeCe8ey9dfJ_7autocfg, symObjAddr: 0x2D48, symBinAddr: 0x100017434, symSize: 0x14 }
  - { offset: 0x3BDA2, size: 0x8, addend: 0x0, symName: __RNvXNtNtNtCs85QQFkKrybG_4core4iter6traits7collectINtNtNtB6_8adapters3map3MapINtNtNtB8_3str4iter5SplitcENvYeNtNtCsdFlNUEO95cG_5alloc6string8ToString9to_stringENtB2_12IntoIterator9into_iterCsfeCe8ey9dfJ_7autocfg, symObjAddr: 0x2D5C, symBinAddr: 0x100017448, symSize: 0x30 }
  - { offset: 0x3BEF3, size: 0x8, addend: 0x0, symName: __RNSNvYNCINvMs6_NtCsfieuf5LernF_9hashbrown3rawINtBd_8RawTableTyuEE14reserve_rehashNCINvNtBf_3map11make_hasheryuNtNtNtCswz7ZwgBZOU_3std4hash6random11RandomStateE0E0INtNtNtCs85QQFkKrybG_4core3ops8function6FnOnceTQNtBd_13RawTableInnerjEE9call_once6vtableCsfeCe8ey9dfJ_7autocfg, symObjAddr: 0x1EAC, symBinAddr: 0x100016598, symSize: 0x38 }
  - { offset: 0x3BF37, size: 0x8, addend: 0x0, symName: __RNSNvYNCINvMs6_NtCsfieuf5LernF_9hashbrown3rawINtBd_8RawTableTyuEE24find_or_find_insert_slotNCINvNtBf_3map14equivalent_keyyyuE0NCINvB1w_11make_hasheryuNtNtNtCswz7ZwgBZOU_3std4hash6random11RandomStateE0E0INtNtNtCs85QQFkKrybG_4core3ops8function6FnOnceTjEE9call_once6vtableCsfeCe8ey9dfJ_7autocfg, symObjAddr: 0x1EE4, symBinAddr: 0x1000165D0, symSize: 0x38 }
  - { offset: 0x3BF7B, size: 0x8, addend: 0x0, symName: __RNvYNCINvMs6_NtCsfieuf5LernF_9hashbrown3rawINtBb_8RawTableTyuEE14reserve_rehashNCINvNtBd_3map11make_hasheryuNtNtNtCswz7ZwgBZOU_3std4hash6random11RandomStateE0E0INtNtNtCs85QQFkKrybG_4core3ops8function6FnOnceTQNtBb_13RawTableInnerjEE9call_onceCsfeCe8ey9dfJ_7autocfg, symObjAddr: 0x38FC, symBinAddr: 0x100017F70, symSize: 0x5C }
  - { offset: 0x3BFBF, size: 0x8, addend: 0x0, symName: __RNvYNCINvMs6_NtCsfieuf5LernF_9hashbrown3rawINtBb_8RawTableTyuEE24find_or_find_insert_slotNCINvNtBd_3map14equivalent_keyyyuE0NCINvB1u_11make_hasheryuNtNtNtCswz7ZwgBZOU_3std4hash6random11RandomStateE0E0INtNtNtCs85QQFkKrybG_4core3ops8function6FnOnceTjEE9call_onceCsfeCe8ey9dfJ_7autocfg, symObjAddr: 0x3958, symBinAddr: 0x100017FCC, symSize: 0x58 }
  - { offset: 0x3C003, size: 0x8, addend: 0x0, symName: __RNvYNCNkNvNvMNtNtCswz7ZwgBZOU_3std4hash6randomNtBb_11RandomState3new4KEYS0s_0INtNtNtCs85QQFkKrybG_4core3ops8function6FnOnceTINtNtB1k_6option6OptionQIB1Z_INtNtB1k_4cell4CellTyyEEEEEE9call_onceCsfeCe8ey9dfJ_7autocfg, symObjAddr: 0x39B0, symBinAddr: 0x100018024, symSize: 0x4C }
  - { offset: 0x3C047, size: 0x8, addend: 0x0, symName: __RNvYNvNtCsfeCe8ey9dfJ_7autocfg5error7from_ioINtNtNtCs85QQFkKrybG_4core3ops8function6FnOnceTNtNtNtCswz7ZwgBZOU_3std2io5error5ErrorEE9call_onceB6_, symObjAddr: 0x3B4C, symBinAddr: 0x1000180C8, symSize: 0x24 }
  - { offset: 0x3C08B, size: 0x8, addend: 0x0, symName: __RNvYNvNtCsfeCe8ey9dfJ_7autocfg5error8from_numINtNtNtCs85QQFkKrybG_4core3ops8function6FnOnceTNtNtNtBO_3num5error13ParseIntErrorEE9call_onceB6_, symObjAddr: 0x3B70, symBinAddr: 0x1000180EC, symSize: 0x24 }
  - { offset: 0x3C0CF, size: 0x8, addend: 0x0, symName: __RNvYNvNtCsfeCe8ey9dfJ_7autocfg5error9from_utf8INtNtNtCs85QQFkKrybG_4core3ops8function6FnOnceTNtNtNtBP_3str5error9Utf8ErrorEE9call_onceB6_, symObjAddr: 0x3B94, symBinAddr: 0x100018110, symSize: 0x28 }
  - { offset: 0x3C113, size: 0x8, addend: 0x0, symName: __RNvYNvNvNvMNtNtCswz7ZwgBZOU_3std4hash6randomNtB9_11RandomState3new4KEYS6___initINtNtNtCs85QQFkKrybG_4core3ops8function6FnOnceuE9call_onceCsfeCe8ey9dfJ_7autocfg, symObjAddr: 0x3BBC, symBinAddr: 0x100018138, symSize: 0x1C }
  - { offset: 0x3C157, size: 0x8, addend: 0x0, symName: __RNvYNvYINtNtCs85QQFkKrybG_4core6option4IterNtNtCswz7ZwgBZOU_3std4path7PathBufENtNtNtNtBa_4iter6traits8iterator8Iterator4nextINtNtNtBa_3ops8function6FnOnceTQB5_EE9call_onceCsfeCe8ey9dfJ_7autocfg, symObjAddr: 0x3BD8, symBinAddr: 0x100018154, symSize: 0x24 }
  - { offset: 0x3C19B, size: 0x8, addend: 0x0, symName: __RNvYNvYINtNtNtNtCs85QQFkKrybG_4core4iter8adapters5chain5ChainINtNtBe_6option4IterNtNtCswz7ZwgBZOU_3std4path7PathBufEBX_ENtNtNtBc_6traits8iterator8Iterator4nextINtNtNtBe_3ops8function6FnOnceTQB5_EE9call_onceCsfeCe8ey9dfJ_7autocfg, symObjAddr: 0x3BFC, symBinAddr: 0x100018178, symSize: 0x24 }
  - { offset: 0x3C1DF, size: 0x8, addend: 0x0, symName: __RNvYNvYNtNtCswz7ZwgBZOU_3std4path7PathBufINtNtCs85QQFkKrybG_4core7convert4FromNtNtNtB9_3ffi6os_str8OsStringE4fromINtNtNtBI_3ops8function6FnOnceTB1e_EE9call_onceCsfeCe8ey9dfJ_7autocfg, symObjAddr: 0x3C20, symBinAddr: 0x10001819C, symSize: 0x34 }
  - { offset: 0x3C223, size: 0x8, addend: 0x0, symName: __RNvYNvYeNtNtCsdFlNUEO95cG_5alloc6borrow7ToOwned8to_ownedINtNtNtCs85QQFkKrybG_4core3ops8function6FnOnceTReEE9call_onceCsfeCe8ey9dfJ_7autocfg, symObjAddr: 0x3C54, symBinAddr: 0x1000181D0, symSize: 0x2C }
  - { offset: 0x3C32D, size: 0x8, addend: 0x0, symName: __RNvYNvMNtCs85QQFkKrybG_4core3stre4trimINtNtNtB7_3ops8function5FnMutTReEE8call_mutCsfeCe8ey9dfJ_7autocfg, symObjAddr: 0x3AF4, symBinAddr: 0x100018070, symSize: 0x30 }
  - { offset: 0x3C371, size: 0x8, addend: 0x0, symName: __RNvYNvMNtNtCs85QQFkKrybG_4core4char7methodsc13is_whitespaceINtNtNtB9_3ops8function5FnMutTcEE8call_mutCsfeCe8ey9dfJ_7autocfg, symObjAddr: 0x3B24, symBinAddr: 0x1000180A0, symSize: 0x28 }
  - { offset: 0x3C3B5, size: 0x8, addend: 0x0, symName: __RNvYNvYeNtNtCsdFlNUEO95cG_5alloc6string8ToString9to_stringINtNtNtCs85QQFkKrybG_4core3ops8function5FnMutTReEE8call_mutCsfeCe8ey9dfJ_7autocfg, symObjAddr: 0x3C80, symBinAddr: 0x1000181FC, symSize: 0x30 }
  - { offset: 0x3C5F1, size: 0x8, addend: 0x0, symName: __RNvXs19_NtCs85QQFkKrybG_4core3fmtRNtNtNtB8_3num5error13ParseIntErrorNtB6_5Debug3fmtCsfeCe8ey9dfJ_7autocfg, symObjAddr: 0x30E4, symBinAddr: 0x100017790, symSize: 0x30 }
  - { offset: 0x3C637, size: 0x8, addend: 0x0, symName: __RNvXs19_NtCs85QQFkKrybG_4core3fmtRNtNtNtCswz7ZwgBZOU_3std2io5error5ErrorNtB6_5Debug3fmtCsfeCe8ey9dfJ_7autocfg, symObjAddr: 0x3114, symBinAddr: 0x1000177C0, symSize: 0x30 }
  - { offset: 0x3D84D, size: 0x8, addend: 0x0, symName: __RNvXCsfieuf5LernF_9hashbrownyINtB2_10EquivalentyE10equivalentCsfeCe8ey9dfJ_7autocfg, symObjAddr: 0x2CC8, symBinAddr: 0x1000173B4, symSize: 0x50 }
  - { offset: 0x3E02A, size: 0x8, addend: 0x0, symName: __RNvXs1_NtCsdFlNUEO95cG_5alloc7raw_vecINtB5_6RawVecINtNtB7_5boxed3BoxDINtNtNtCs85QQFkKrybG_4core3ops8function5FnMutuEp6OutputINtNtB1c_6result6ResultuNtNtNtCswz7ZwgBZOU_3std2io5error5ErrorENtNtB1c_6marker4SyncNtB31_4SendEL_EENtNtB1a_4drop4Drop4dropCsfeCe8ey9dfJ_7autocfg, symObjAddr: 0x3144, symBinAddr: 0x1000177F0, symSize: 0x34 }
  - { offset: 0x3E066, size: 0x8, addend: 0x0, symName: __RNvXs1_NtCsdFlNUEO95cG_5alloc7raw_vecINtB5_6RawVecNtNtB7_6string6StringENtNtNtCs85QQFkKrybG_4core3ops4drop4Drop4dropCsfeCe8ey9dfJ_7autocfg, symObjAddr: 0x3178, symBinAddr: 0x100017824, symSize: 0x34 }
  - { offset: 0x3E0A2, size: 0x8, addend: 0x0, symName: __RNvXs1_NtCsdFlNUEO95cG_5alloc7raw_vecINtB5_6RawVecPaENtNtNtCs85QQFkKrybG_4core3ops4drop4Drop4dropCsfeCe8ey9dfJ_7autocfg, symObjAddr: 0x31AC, symBinAddr: 0x100017858, symSize: 0x30 }
  - { offset: 0x3E268, size: 0x8, addend: 0x0, symName: __RNvXNtNtNtCsdFlNUEO95cG_5alloc11collections5btree3mapINtB2_8BTreeMapNtNtNtCswz7ZwgBZOU_3std3ffi6os_str8OsStringINtNtCs85QQFkKrybG_4core6option6OptionB14_EENtNtNtB1Q_3ops4drop4Drop4dropCsfeCe8ey9dfJ_7autocfg, symObjAddr: 0x2DA8, symBinAddr: 0x100017478, symSize: 0x4C }
  - { offset: 0x3E2F5, size: 0x8, addend: 0x0, symName: __RNvXNvXsw_NtNtNtCsdFlNUEO95cG_5alloc11collections5btree3mapINtB8_8IntoIterpppENtNtNtCs85QQFkKrybG_4core3ops4drop4Drop4dropINtB2_9DropGuardNtNtNtCswz7ZwgBZOU_3std3ffi6os_str8OsStringINtNtB1k_6option6OptionB2c_ENtNtBe_5alloc6GlobalEB1e_4dropCsfeCe8ey9dfJ_7autocfg, symObjAddr: 0x2DF4, symBinAddr: 0x1000174C4, symSize: 0x64 }
  - { offset: 0x3E38A, size: 0x8, addend: 0x0, symName: __RNvXsw_NtNtNtCsdFlNUEO95cG_5alloc11collections5btree3mapINtB5_8IntoIterNtNtNtCswz7ZwgBZOU_3std3ffi6os_str8OsStringINtNtCs85QQFkKrybG_4core6option6OptionB17_EENtNtNtB1T_3ops4drop4Drop4dropCsfeCe8ey9dfJ_7autocfg, symObjAddr: 0x3860, symBinAddr: 0x100017ED4, symSize: 0x9C }
  - { offset: 0x3E401, size: 0x8, addend: 0x0, symName: __RNvXsv_NtNtNtCsdFlNUEO95cG_5alloc11collections5btree3mapINtB5_8BTreeMapNtNtNtCswz7ZwgBZOU_3std3ffi6os_str8OsStringINtNtCs85QQFkKrybG_4core6option6OptionB17_EENtNtNtNtB1T_4iter6traits7collect12IntoIterator9into_iterCsfeCe8ey9dfJ_7autocfg, symObjAddr: 0x36D0, symBinAddr: 0x100017D44, symSize: 0x190 }
  - { offset: 0x3EAEE, size: 0x8, addend: 0x0, symName: __RNvXs6_NtCsdFlNUEO95cG_5alloc5boxedINtB5_3BoxDINtNtNtCs85QQFkKrybG_4core3ops8function5FnMutuEp6OutputINtNtBP_6result6ResultuNtNtNtCswz7ZwgBZOU_3std2io5error5ErrorENtNtBP_6marker4SyncNtB2D_4SendEL_ENtNtBN_4drop4Drop4dropCsfeCe8ey9dfJ_7autocfg, symObjAddr: 0x3230, symBinAddr: 0x1000178DC, symSize: 0xCC }
  - { offset: 0x3EC29, size: 0x8, addend: 0x0, symName: __RNvXs6_NtCsdFlNUEO95cG_5alloc5boxedINtB5_3BoxDNtNtCs85QQFkKrybG_4core5error5ErrorNtNtBM_6marker4SyncNtB1j_4SendEL_ENtNtNtBM_3ops4drop4Drop4dropCsfeCe8ey9dfJ_7autocfg, symObjAddr: 0x32FC, symBinAddr: 0x1000179A8, symSize: 0xCC }
  - { offset: 0x3ED64, size: 0x8, addend: 0x0, symName: __RNvXs6_NtCsdFlNUEO95cG_5alloc5boxedINtB5_3BoxNtNtNtCswz7ZwgBZOU_3std2io5error6CustomENtNtNtCs85QQFkKrybG_4core3ops4drop4Drop4dropCsfeCe8ey9dfJ_7autocfg, symObjAddr: 0x33C8, symBinAddr: 0x100017A74, symSize: 0xB8 }
  - { offset: 0x3EE9F, size: 0x8, addend: 0x0, symName: __RNvXs6_NtCsdFlNUEO95cG_5alloc5boxedINtB5_3BoxShENtNtNtCs85QQFkKrybG_4core3ops4drop4Drop4dropCsfeCe8ey9dfJ_7autocfg, symObjAddr: 0x3480, symBinAddr: 0x100017B2C, symSize: 0xC4 }
  - { offset: 0x3EFDA, size: 0x8, addend: 0x0, symName: __RNvXs6_NtCsdFlNUEO95cG_5alloc5boxedINtB5_3BoxSmENtNtNtCs85QQFkKrybG_4core3ops4drop4Drop4dropCsfeCe8ey9dfJ_7autocfg, symObjAddr: 0x3544, symBinAddr: 0x100017BF0, symSize: 0xC4 }
  - { offset: 0x3F1E0, size: 0x8, addend: 0x0, symName: __RNvMs2_NtCsdFlNUEO95cG_5alloc7raw_vecNtB5_11RawVecInner16with_capacity_inCsfeCe8ey9dfJ_7autocfg, symObjAddr: 0x1F1C, symBinAddr: 0x100016608, symSize: 0x110 }
  - { offset: 0x3F3BC, size: 0x8, addend: 0x0, symName: __RNvMsx_NtNtNtCsdFlNUEO95cG_5alloc11collections5btree3mapINtB5_8IntoIterNtNtNtCswz7ZwgBZOU_3std3ffi6os_str8OsStringINtNtCs85QQFkKrybG_4core6option6OptionB17_EE10dying_nextCsfeCe8ey9dfJ_7autocfg, symObjAddr: 0x202C, symBinAddr: 0x100016718, symSize: 0x90 }
  - { offset: 0x40518, size: 0x8, addend: 0x0, symName: ___llvm_profile_get_magic, symObjAddr: 0x28, symBinAddr: 0x10001822C, symSize: 0x14 }
  - { offset: 0x40539, size: 0x8, addend: 0x0, symName: ___llvm_profile_get_num_padding_bytes, symObjAddr: 0x44, symBinAddr: 0x100018240, symSize: 0xC }
  - { offset: 0x40541, size: 0x8, addend: 0x0, symName: ___llvm_profile_get_version, symObjAddr: 0x50, symBinAddr: 0x10001824C, symSize: 0xC }
  - { offset: 0x4056A, size: 0x8, addend: 0x0, symName: ___llvm_profile_get_version, symObjAddr: 0x50, symBinAddr: 0x10001824C, symSize: 0xC }
  - { offset: 0x405DF, size: 0x8, addend: 0x0, symName: ___llvm_profile_is_continuous_mode_enabled, symObjAddr: 0x0, symBinAddr: 0x100018258, symSize: 0x20 }
  - { offset: 0x405FC, size: 0x8, addend: 0x0, symName: __MergedGlobals, symObjAddr: 0x3F10, symBinAddr: 0x10007DE28, symSize: 0x0 }
  - { offset: 0x4061E, size: 0x8, addend: 0x0, symName: __MergedGlobals, symObjAddr: 0x3F10, symBinAddr: 0x10007DE28, symSize: 0x0 }
  - { offset: 0x4064E, size: 0x8, addend: 0x0, symName: ___llvm_profile_is_continuous_mode_enabled, symObjAddr: 0x0, symBinAddr: 0x100018258, symSize: 0x20 }
  - { offset: 0x40656, size: 0x8, addend: 0x0, symName: ___llvm_profile_enable_continuous_mode, symObjAddr: 0x20, symBinAddr: 0x100018278, symSize: 0x10 }
  - { offset: 0x40666, size: 0x8, addend: 0x0, symName: ___llvm_profile_enable_continuous_mode, symObjAddr: 0x20, symBinAddr: 0x100018278, symSize: 0x10 }
  - { offset: 0x4066E, size: 0x8, addend: 0x0, symName: ___llvm_profile_disable_continuous_mode, symObjAddr: 0x30, symBinAddr: 0x100018288, symSize: 0xC }
  - { offset: 0x40683, size: 0x8, addend: 0x0, symName: ___llvm_profile_disable_continuous_mode, symObjAddr: 0x30, symBinAddr: 0x100018288, symSize: 0xC }
  - { offset: 0x4068B, size: 0x8, addend: 0x0, symName: ___llvm_profile_set_page_size, symObjAddr: 0x3C, symBinAddr: 0x100018294, symSize: 0xC }
  - { offset: 0x406A0, size: 0x8, addend: 0x0, symName: ___llvm_profile_set_page_size, symObjAddr: 0x3C, symBinAddr: 0x100018294, symSize: 0xC }
  - { offset: 0x406A8, size: 0x8, addend: 0x0, symName: ___llvm_profile_get_size_for_buffer, symObjAddr: 0x48, symBinAddr: 0x1000182A0, symSize: 0xC4 }
  - { offset: 0x406CB, size: 0x8, addend: 0x0, symName: ___llvm_profile_get_size_for_buffer, symObjAddr: 0x48, symBinAddr: 0x1000182A0, symSize: 0xC4 }
  - { offset: 0x406D3, size: 0x8, addend: 0x0, symName: ___llvm_profile_get_size_for_buffer_internal, symObjAddr: 0x10C, symBinAddr: 0x100018364, symSize: 0x1C0 }
  - { offset: 0x40B38, size: 0x8, addend: 0x0, symName: ___llvm_profile_get_size_for_buffer_internal, symObjAddr: 0x10C, symBinAddr: 0x100018364, symSize: 0x1C0 }
  - { offset: 0x40B40, size: 0x8, addend: 0x0, symName: ___llvm_profile_get_num_data, symObjAddr: 0x2CC, symBinAddr: 0x100018524, symSize: 0x10 }
  - { offset: 0x40F5D, size: 0x8, addend: 0x0, symName: ___llvm_profile_get_num_data, symObjAddr: 0x2CC, symBinAddr: 0x100018524, symSize: 0x10 }
  - { offset: 0x40F65, size: 0x8, addend: 0x0, symName: ___llvm_profile_get_data_size, symObjAddr: 0x2DC, symBinAddr: 0x100018534, symSize: 0x10 }
  - { offset: 0x40F9B, size: 0x8, addend: 0x0, symName: ___llvm_profile_get_data_size, symObjAddr: 0x2DC, symBinAddr: 0x100018534, symSize: 0x10 }
  - { offset: 0x40FA3, size: 0x8, addend: 0x0, symName: ___llvm_profile_get_num_vtable, symObjAddr: 0x2EC, symBinAddr: 0x100018544, symSize: 0x18 }
  - { offset: 0x40FCA, size: 0x8, addend: 0x0, symName: ___llvm_profile_get_data_size, symObjAddr: 0x2DC, symBinAddr: 0x100018534, symSize: 0x10 }
  - { offset: 0x41000, size: 0x8, addend: 0x0, symName: ___llvm_profile_get_num_vtable, symObjAddr: 0x2EC, symBinAddr: 0x100018544, symSize: 0x18 }
  - { offset: 0x41008, size: 0x8, addend: 0x0, symName: ___llvm_profile_get_vtable_section_size, symObjAddr: 0x304, symBinAddr: 0x10001855C, symSize: 0x8 }
  - { offset: 0x4105C, size: 0x8, addend: 0x0, symName: ___llvm_profile_get_vtable_section_size, symObjAddr: 0x304, symBinAddr: 0x10001855C, symSize: 0x8 }
  - { offset: 0x41064, size: 0x8, addend: 0x0, symName: ___llvm_profile_counter_entry_size, symObjAddr: 0x30C, symBinAddr: 0x100018564, symSize: 0x1C }
  - { offset: 0x41087, size: 0x8, addend: 0x0, symName: ___llvm_profile_counter_entry_size, symObjAddr: 0x30C, symBinAddr: 0x100018564, symSize: 0x1C }
  - { offset: 0x4108F, size: 0x8, addend: 0x0, symName: ___llvm_profile_get_num_counters, symObjAddr: 0x328, symBinAddr: 0x100018580, symSize: 0x48 }
  - { offset: 0x410A0, size: 0x8, addend: 0x0, symName: ___llvm_profile_get_num_counters, symObjAddr: 0x328, symBinAddr: 0x100018580, symSize: 0x48 }
  - { offset: 0x410A8, size: 0x8, addend: 0x0, symName: ___llvm_profile_get_counters_size, symObjAddr: 0x370, symBinAddr: 0x1000185C8, symSize: 0x5C }
  - { offset: 0x41114, size: 0x8, addend: 0x0, symName: ___llvm_profile_get_counters_size, symObjAddr: 0x370, symBinAddr: 0x1000185C8, symSize: 0x5C }
  - { offset: 0x4111C, size: 0x8, addend: 0x0, symName: ___llvm_profile_get_num_bitmap_bytes, symObjAddr: 0x3CC, symBinAddr: 0x100018624, symSize: 0x8 }
  - { offset: 0x411CB, size: 0x8, addend: 0x0, symName: ___llvm_profile_get_num_bitmap_bytes, symObjAddr: 0x3CC, symBinAddr: 0x100018624, symSize: 0x8 }
  - { offset: 0x411D3, size: 0x8, addend: 0x0, symName: ___llvm_profile_get_name_size, symObjAddr: 0x3D4, symBinAddr: 0x10001862C, symSize: 0x8 }
  - { offset: 0x411F7, size: 0x8, addend: 0x0, symName: ___llvm_profile_get_name_size, symObjAddr: 0x3D4, symBinAddr: 0x10001862C, symSize: 0x8 }
  - { offset: 0x411FF, size: 0x8, addend: 0x0, symName: ___llvm_profile_get_padding_sizes_for_counters, symObjAddr: 0x3DC, symBinAddr: 0x100018634, symSize: 0x15C }
  - { offset: 0x41223, size: 0x8, addend: 0x0, symName: ___llvm_profile_get_padding_sizes_for_counters, symObjAddr: 0x3DC, symBinAddr: 0x100018634, symSize: 0x15C }
  - { offset: 0x4122B, size: 0x8, addend: 0x0, symName: _initBufferWriter, symObjAddr: 0x538, symBinAddr: 0x100018790, symSize: 0x10 }
  - { offset: 0x4139A, size: 0x8, addend: 0x0, symName: _initBufferWriter, symObjAddr: 0x538, symBinAddr: 0x100018790, symSize: 0x10 }
  - { offset: 0x4150B, size: 0x8, addend: 0x0, symName: __MergedGlobals, symObjAddr: 0xA750, symBinAddr: 0x10007DE38, symSize: 0x0 }
  - { offset: 0x41639, size: 0x8, addend: 0x0, symName: __MergedGlobals, symObjAddr: 0xA750, symBinAddr: 0x10007DE38, symSize: 0x0 }
  - { offset: 0x41870, size: 0x8, addend: 0x0, symName: __MergedGlobals, symObjAddr: 0xA750, symBinAddr: 0x10007DE38, symSize: 0x0 }
  - { offset: 0x41A1A, size: 0x8, addend: 0x0, symName: _getCurFilenameLength, symObjAddr: 0x1C8, symBinAddr: 0x1000187A0, symSize: 0x104 }
  - { offset: 0x41A22, size: 0x8, addend: 0x0, symName: _getCurFilename, symObjAddr: 0x2CC, symBinAddr: 0x1000188A4, symSize: 0x31C }
  - { offset: 0x41AA5, size: 0x8, addend: 0x0, symName: _getCurFilename, symObjAddr: 0x2CC, symBinAddr: 0x1000188A4, symSize: 0x31C }
  - { offset: 0x41D1A, size: 0x8, addend: 0x0, symName: _parseAndSetFilename, symObjAddr: 0x6F0, symBinAddr: 0x100018BC0, symSize: 0x510 }
  - { offset: 0x41D22, size: 0x8, addend: 0x0, symName: ___llvm_profile_initialize, symObjAddr: 0xC00, symBinAddr: 0x1000190D0, symSize: 0xB8 }
  - { offset: 0x41F24, size: 0x8, addend: 0x0, symName: ___llvm_profile_initialize, symObjAddr: 0xC00, symBinAddr: 0x1000190D0, symSize: 0xB8 }
  - { offset: 0x41FA4, size: 0x8, addend: 0x0, symName: ___llvm_profile_write_file, symObjAddr: 0xD34, symBinAddr: 0x100019188, symSize: 0x1B4 }
  - { offset: 0x41FAC, size: 0x8, addend: 0x0, symName: _writeFile, symObjAddr: 0xEE8, symBinAddr: 0x10001933C, symSize: 0x2E4 }
  - { offset: 0x42187, size: 0x8, addend: 0x0, symName: _writeFile, symObjAddr: 0xEE8, symBinAddr: 0x10001933C, symSize: 0x2E4 }
  - { offset: 0x4232B, size: 0x8, addend: 0x0, symName: _writeFileWithoutReturn, symObjAddr: 0x1238, symBinAddr: 0x100019620, symSize: 0x4 }
  - { offset: 0x42362, size: 0x8, addend: 0x0, symName: _getProfileFileSizeForMerging, symObjAddr: 0x148C, symBinAddr: 0x100019624, symSize: 0x110 }
  - { offset: 0x4236A, size: 0x8, addend: 0x0, symName: _mmapForContinuousMode, symObjAddr: 0x159C, symBinAddr: 0x100019734, symSize: 0x264 }
  - { offset: 0x423A7, size: 0x8, addend: 0x0, symName: _mmapForContinuousMode, symObjAddr: 0x159C, symBinAddr: 0x100019734, symSize: 0x264 }
  - { offset: 0x423AF, size: 0x8, addend: 0x0, symName: _fileWriter, symObjAddr: 0x1800, symBinAddr: 0x100019998, symSize: 0x140 }
  - { offset: 0x4256E, size: 0x8, addend: 0x0, symName: _fileWriter, symObjAddr: 0x1800, symBinAddr: 0x100019998, symSize: 0x140 }
  - { offset: 0x42576, size: 0x8, addend: 0x0, symName: _binaryIdsStringWriter, symObjAddr: 0x1940, symBinAddr: 0x100019AD8, symSize: 0xD4 }
  - { offset: 0x4263E, size: 0x8, addend: 0x0, symName: _binaryIdsStringWriter, symObjAddr: 0x1940, symBinAddr: 0x100019AD8, symSize: 0xD4 }
  - { offset: 0x42646, size: 0x8, addend: 0x0, symName: _truncateCurrentFile, symObjAddr: 0x1A14, symBinAddr: 0x100019BAC, symSize: 0xD8 }
  - { offset: 0x426DF, size: 0x8, addend: 0x0, symName: _truncateCurrentFile, symObjAddr: 0x1A14, symBinAddr: 0x100019BAC, symSize: 0xD8 }
  - { offset: 0x426E7, size: 0x8, addend: 0x0, symName: _initializeProfileForContinuousMode, symObjAddr: 0x1AEC, symBinAddr: 0x100019C84, symSize: 0x2BC }
  - { offset: 0x42785, size: 0x8, addend: 0x0, symName: _initializeProfileForContinuousMode, symObjAddr: 0x1AEC, symBinAddr: 0x100019C84, symSize: 0x2BC }
  - { offset: 0x4278D, size: 0x8, addend: 0x0, symName: _createProfileDir, symObjAddr: 0x1DA8, symBinAddr: 0x100019F40, symSize: 0xA4 }
  - { offset: 0x42981, size: 0x8, addend: 0x0, symName: _createProfileDir, symObjAddr: 0x1DA8, symBinAddr: 0x100019F40, symSize: 0xA4 }
  - { offset: 0x42989, size: 0x8, addend: 0x0, symName: _parseAndSetFilename.cold.1, symObjAddr: 0x1E4C, symBinAddr: 0x100054C6C, symSize: 0x24 }
  - { offset: 0x429E6, size: 0x8, addend: 0x0, symName: _parseAndSetFilename.cold.1, symObjAddr: 0x1E4C, symBinAddr: 0x100054C6C, symSize: 0x24 }
  - { offset: 0x429EE, size: 0x8, addend: 0x0, symName: _parseAndSetFilename.cold.2, symObjAddr: 0x1E70, symBinAddr: 0x100054C90, symSize: 0x24 }
  - { offset: 0x42A10, size: 0x8, addend: 0x0, symName: _parseAndSetFilename.cold.2, symObjAddr: 0x1E70, symBinAddr: 0x100054C90, symSize: 0x24 }
  - { offset: 0x42A2A, size: 0x8, addend: 0x0, symName: _parseAndSetFilename.cold.2, symObjAddr: 0x1E70, symBinAddr: 0x100054C90, symSize: 0x24 }
  - { offset: 0x42A3A, size: 0x8, addend: 0x0, symName: _parseAndSetFilename.cold.2, symObjAddr: 0x1E70, symBinAddr: 0x100054C90, symSize: 0x24 }
  - { offset: 0x42B9A, size: 0x8, addend: 0x0, symName: _lprofProfileDumped, symObjAddr: 0x0, symBinAddr: 0x100019FE4, symSize: 0xC }
  - { offset: 0x42BB7, size: 0x8, addend: 0x0, symName: _ProfileDumped, symObjAddr: 0x4E0, symBinAddr: 0x10007DF10, symSize: 0x0 }
  - { offset: 0x42BC7, size: 0x8, addend: 0x0, symName: _lprofProfileDumped, symObjAddr: 0x0, symBinAddr: 0x100019FE4, symSize: 0xC }
  - { offset: 0x42C0F, size: 0x8, addend: 0x0, symName: _lprofGetLoadModuleSignature, symObjAddr: 0x0, symBinAddr: 0x100019FF0, symSize: 0xD0 }
  - { offset: 0x42C3C, size: 0x8, addend: 0x0, symName: _VPMergeHook, symBinAddr: 0x100080168, symSize: 0x0 }
  - { offset: 0x42EA5, size: 0x8, addend: 0x0, symName: _lprofGetLoadModuleSignature, symObjAddr: 0x0, symBinAddr: 0x100019FF0, symSize: 0xD0 }
  - { offset: 0x42EAD, size: 0x8, addend: 0x0, symName: ___llvm_profile_check_compatibility, symObjAddr: 0xD0, symBinAddr: 0x10001A0C0, symSize: 0x1CC }
  - { offset: 0x42F1D, size: 0x8, addend: 0x0, symName: ___llvm_profile_check_compatibility, symObjAddr: 0xD0, symBinAddr: 0x10001A0C0, symSize: 0x1CC }
  - { offset: 0x42F25, size: 0x8, addend: 0x0, symName: ___llvm_profile_merge_from_buffer, symObjAddr: 0x29C, symBinAddr: 0x10001A28C, symSize: 0x3E8 }
  - { offset: 0x42FFE, size: 0x8, addend: 0x0, symName: ___llvm_profile_merge_from_buffer, symObjAddr: 0x29C, symBinAddr: 0x10001A28C, symSize: 0x3E8 }
  - { offset: 0x43275, size: 0x8, addend: 0x0, symName: _lprofMergeValueProfData, symObjAddr: 0x0, symBinAddr: 0x10001A674, symSize: 0xF0 }
  - { offset: 0x43286, size: 0x8, addend: 0x0, symName: _lprofMergeValueProfData, symObjAddr: 0x0, symBinAddr: 0x10001A674, symSize: 0xF0 }
  - { offset: 0x43551, size: 0x8, addend: 0x0, symName: ___llvm_profile_begin_data, symObjAddr: 0x0, symBinAddr: 0x10001A764, symSize: 0xC }
  - { offset: 0x43559, size: 0x8, addend: 0x0, symName: _CurrentVNode, symObjAddr: 0xB0, symBinAddr: 0x10007D2E0, symSize: 0x0 }
  - { offset: 0x43570, size: 0x8, addend: 0x0, symName: _CurrentVNode, symObjAddr: 0xB0, symBinAddr: 0x10007D2E0, symSize: 0x0 }
  - { offset: 0x435ED, size: 0x8, addend: 0x0, symName: _EndVNode, symObjAddr: 0xB8, symBinAddr: 0x10007D2E8, symSize: 0x0 }
  - { offset: 0x435F6, size: 0x8, addend: 0x0, symName: ___llvm_profile_begin_data, symObjAddr: 0x0, symBinAddr: 0x10001A764, symSize: 0xC }
  - { offset: 0x435FE, size: 0x8, addend: 0x0, symName: ___llvm_profile_end_data, symObjAddr: 0xC, symBinAddr: 0x10001A770, symSize: 0xC }
  - { offset: 0x43617, size: 0x8, addend: 0x0, symName: ___llvm_profile_end_data, symObjAddr: 0xC, symBinAddr: 0x10001A770, symSize: 0xC }
  - { offset: 0x4361F, size: 0x8, addend: 0x0, symName: ___llvm_profile_begin_names, symObjAddr: 0x18, symBinAddr: 0x10001A77C, symSize: 0xC }
  - { offset: 0x43638, size: 0x8, addend: 0x0, symName: ___llvm_profile_begin_names, symObjAddr: 0x18, symBinAddr: 0x10001A77C, symSize: 0xC }
  - { offset: 0x43640, size: 0x8, addend: 0x0, symName: ___llvm_profile_end_names, symObjAddr: 0x24, symBinAddr: 0x10001A788, symSize: 0xC }
  - { offset: 0x43659, size: 0x8, addend: 0x0, symName: ___llvm_profile_end_names, symObjAddr: 0x24, symBinAddr: 0x10001A788, symSize: 0xC }
  - { offset: 0x43661, size: 0x8, addend: 0x0, symName: ___llvm_profile_begin_counters, symObjAddr: 0x30, symBinAddr: 0x10001A794, symSize: 0xC }
  - { offset: 0x4367A, size: 0x8, addend: 0x0, symName: ___llvm_profile_begin_counters, symObjAddr: 0x30, symBinAddr: 0x10001A794, symSize: 0xC }
  - { offset: 0x43682, size: 0x8, addend: 0x0, symName: ___llvm_profile_end_counters, symObjAddr: 0x3C, symBinAddr: 0x10001A7A0, symSize: 0xC }
  - { offset: 0x4369B, size: 0x8, addend: 0x0, symName: ___llvm_profile_end_counters, symObjAddr: 0x3C, symBinAddr: 0x10001A7A0, symSize: 0xC }
  - { offset: 0x436A3, size: 0x8, addend: 0x0, symName: ___llvm_profile_begin_bitmap, symObjAddr: 0x48, symBinAddr: 0x10001A7AC, symSize: 0xC }
  - { offset: 0x436BC, size: 0x8, addend: 0x0, symName: ___llvm_profile_begin_bitmap, symObjAddr: 0x48, symBinAddr: 0x10001A7AC, symSize: 0xC }
  - { offset: 0x436C4, size: 0x8, addend: 0x0, symName: ___llvm_profile_end_bitmap, symObjAddr: 0x54, symBinAddr: 0x10001A7B8, symSize: 0xC }
  - { offset: 0x436DD, size: 0x8, addend: 0x0, symName: ___llvm_profile_end_bitmap, symObjAddr: 0x54, symBinAddr: 0x10001A7B8, symSize: 0xC }
  - { offset: 0x436E5, size: 0x8, addend: 0x0, symName: ___llvm_profile_begin_vtables, symObjAddr: 0x60, symBinAddr: 0x10001A7C4, symSize: 0xC }
  - { offset: 0x436FE, size: 0x8, addend: 0x0, symName: ___llvm_profile_begin_vtables, symObjAddr: 0x60, symBinAddr: 0x10001A7C4, symSize: 0xC }
  - { offset: 0x43706, size: 0x8, addend: 0x0, symName: ___llvm_profile_end_vtables, symObjAddr: 0x6C, symBinAddr: 0x10001A7D0, symSize: 0xC }
  - { offset: 0x4371F, size: 0x8, addend: 0x0, symName: ___llvm_profile_end_vtables, symObjAddr: 0x6C, symBinAddr: 0x10001A7D0, symSize: 0xC }
  - { offset: 0x43727, size: 0x8, addend: 0x0, symName: ___llvm_profile_begin_vtabnames, symObjAddr: 0x78, symBinAddr: 0x10001A7DC, symSize: 0xC }
  - { offset: 0x43740, size: 0x8, addend: 0x0, symName: ___llvm_profile_begin_vtabnames, symObjAddr: 0x78, symBinAddr: 0x10001A7DC, symSize: 0xC }
  - { offset: 0x43748, size: 0x8, addend: 0x0, symName: ___llvm_profile_end_vtabnames, symObjAddr: 0x84, symBinAddr: 0x10001A7E8, symSize: 0xC }
  - { offset: 0x43761, size: 0x8, addend: 0x0, symName: ___llvm_profile_end_vtabnames, symObjAddr: 0x84, symBinAddr: 0x10001A7E8, symSize: 0xC }
  - { offset: 0x43769, size: 0x8, addend: 0x0, symName: ___llvm_profile_begin_vnodes, symObjAddr: 0x90, symBinAddr: 0x10001A7F4, symSize: 0xC }
  - { offset: 0x43782, size: 0x8, addend: 0x0, symName: ___llvm_profile_begin_vnodes, symObjAddr: 0x90, symBinAddr: 0x10001A7F4, symSize: 0xC }
  - { offset: 0x4378A, size: 0x8, addend: 0x0, symName: ___llvm_profile_end_vnodes, symObjAddr: 0x9C, symBinAddr: 0x10001A800, symSize: 0xC }
  - { offset: 0x437A3, size: 0x8, addend: 0x0, symName: ___llvm_profile_end_vnodes, symObjAddr: 0x9C, symBinAddr: 0x10001A800, symSize: 0xC }
  - { offset: 0x437AB, size: 0x8, addend: 0x0, symName: ___llvm_write_binary_ids, symObjAddr: 0xA8, symBinAddr: 0x10001A80C, symSize: 0x8 }
  - { offset: 0x437C4, size: 0x8, addend: 0x0, symName: ___llvm_write_binary_ids, symObjAddr: 0xA8, symBinAddr: 0x10001A80C, symSize: 0x8 }
  - { offset: 0x437CC, size: 0x8, addend: 0x0, symName: _CurrentVNode, symObjAddr: 0xB0, symBinAddr: 0x10007D2E0, symSize: 0x0 }
  - { offset: 0x43A4E, size: 0x8, addend: 0x0, symName: __GLOBAL__sub_I_InstrProfilingRuntime.cpp, symObjAddr: 0x0, symBinAddr: 0x10001A814, symSize: 0x18 }
  - { offset: 0x43A71, size: 0x8, addend: 0x0, symName: ___llvm_profile_runtime, symObjAddr: 0x590, symBinAddr: 0x1000800F8, symSize: 0x0 }
  - { offset: 0x43AA1, size: 0x8, addend: 0x0, symName: __GLOBAL__sub_I_InstrProfilingRuntime.cpp, symObjAddr: 0x0, symBinAddr: 0x10001A814, symSize: 0x18 }
  - { offset: 0x43B1D, size: 0x8, addend: 0x0, symName: ___llvm_profile_recursive_mkdir, symObjAddr: 0x0, symBinAddr: 0x10001A82C, symSize: 0x58 }
  - { offset: 0x43B25, size: 0x8, addend: 0x0, symName: _lprofDirMode, symObjAddr: 0x850, symBinAddr: 0x10007D2F0, symSize: 0x0 }
  - { offset: 0x43B3C, size: 0x8, addend: 0x0, symName: _lprofDirMode, symObjAddr: 0x850, symBinAddr: 0x10007D2F0, symSize: 0x0 }
  - { offset: 0x43BA8, size: 0x8, addend: 0x0, symName: ___llvm_profile_recursive_mkdir, symObjAddr: 0x0, symBinAddr: 0x10001A82C, symSize: 0x58 }
  - { offset: 0x43C28, size: 0x8, addend: 0x0, symName: _lprofGetHostName, symObjAddr: 0x70, symBinAddr: 0x10001A884, symSize: 0x80 }
  - { offset: 0x43D5E, size: 0x8, addend: 0x0, symName: _lprofLockFileHandle, symObjAddr: 0x208, symBinAddr: 0x10001A904, symSize: 0x90 }
  - { offset: 0x43D66, size: 0x8, addend: 0x0, symName: _lprofUnlockFileHandle, symObjAddr: 0x298, symBinAddr: 0x10001A994, symSize: 0x90 }
  - { offset: 0x43DEF, size: 0x8, addend: 0x0, symName: _lprofUnlockFileHandle, symObjAddr: 0x298, symBinAddr: 0x10001A994, symSize: 0x90 }
  - { offset: 0x43DF7, size: 0x8, addend: 0x0, symName: _lprofOpenFileEx, symObjAddr: 0x328, symBinAddr: 0x10001AA24, symSize: 0xD0 }
  - { offset: 0x43E5A, size: 0x8, addend: 0x0, symName: _lprofOpenFileEx, symObjAddr: 0x328, symBinAddr: 0x10001AA24, symSize: 0xD0 }
  - { offset: 0x43E62, size: 0x8, addend: 0x0, symName: _lprofGetFileContentBuffer, symObjAddr: 0x3F8, symBinAddr: 0x10001AAF4, symSize: 0x204 }
  - { offset: 0x43EF2, size: 0x8, addend: 0x0, symName: _lprofGetFileContentBuffer, symObjAddr: 0x3F8, symBinAddr: 0x10001AAF4, symSize: 0x204 }
  - { offset: 0x43EFA, size: 0x8, addend: 0x0, symName: _lprofReleaseBuffer, symObjAddr: 0x5FC, symBinAddr: 0x10001ACF8, symSize: 0xA0 }
  - { offset: 0x43F81, size: 0x8, addend: 0x0, symName: _lprofReleaseBuffer, symObjAddr: 0x5FC, symBinAddr: 0x10001ACF8, symSize: 0xA0 }
  - { offset: 0x43FC3, size: 0x8, addend: 0x0, symName: _lprofFindFirstDirSeparator, symObjAddr: 0x7DC, symBinAddr: 0x10001AD98, symSize: 0x8 }
  - { offset: 0x44003, size: 0x8, addend: 0x0, symName: _lprofSuspendSigKill, symObjAddr: 0x7EC, symBinAddr: 0x10001ADA0, symSize: 0x8 }
  - { offset: 0x4400B, size: 0x8, addend: 0x0, symName: _lprofRestoreSigKill, symObjAddr: 0x7F4, symBinAddr: 0x10001ADA8, symSize: 0x4 }
  - { offset: 0x44026, size: 0x8, addend: 0x0, symName: _lprofRestoreSigKill, symObjAddr: 0x7F4, symBinAddr: 0x10001ADA8, symSize: 0x4 }
  - { offset: 0x44045, size: 0x8, addend: 0x0, symName: _lprofAtExit, symObjAddr: 0x84C, symBinAddr: 0x10001ADAC, symSize: 0x4 }
  - { offset: 0x4404D, size: 0x8, addend: 0x0, symName: _lprofDirMode, symObjAddr: 0x850, symBinAddr: 0x10007D2F0, symSize: 0x0 }
  - { offset: 0x4435D, size: 0x8, addend: 0x0, symName: _getValueProfRecordHeaderSize, symObjAddr: 0x0, symBinAddr: 0x10001ADB0, symSize: 0xC }
  - { offset: 0x4437C, size: 0x8, addend: 0x0, symName: _VPMaxNumValsPerSite, symObjAddr: 0x1740, symBinAddr: 0x10007D2F8, symSize: 0x0 }
  - { offset: 0x44412, size: 0x8, addend: 0x0, symName: __MergedGlobals, symObjAddr: 0xEF50, symBinAddr: 0x10007DF40, symSize: 0x0 }
  - { offset: 0x44439, size: 0x8, addend: 0x0, symName: __MergedGlobals, symObjAddr: 0xEF50, symBinAddr: 0x10007DF40, symSize: 0x0 }
  - { offset: 0x44450, size: 0x8, addend: 0x0, symName: __MergedGlobals, symObjAddr: 0xEF50, symBinAddr: 0x10007DF40, symSize: 0x0 }
  - { offset: 0x44470, size: 0x8, addend: 0x0, symName: _TheVPDataReader, symObjAddr: 0x1748, symBinAddr: 0x10007D300, symSize: 0x0 }
  - { offset: 0x44717, size: 0x8, addend: 0x0, symName: _RTRecord, symObjAddr: 0xEF28, symBinAddr: 0x10007DF18, symSize: 0x0 }
  - { offset: 0x44912, size: 0x8, addend: 0x0, symName: _getValueProfRecordHeaderSize, symObjAddr: 0x0, symBinAddr: 0x10001ADB0, symSize: 0xC }
  - { offset: 0x4496B, size: 0x8, addend: 0x0, symName: _getValueProfRecordValueData, symObjAddr: 0x1C, symBinAddr: 0x10001ADBC, symSize: 0x14 }
  - { offset: 0x44A1C, size: 0x8, addend: 0x0, symName: _getValueProfRecordNext, symObjAddr: 0x1B4, symBinAddr: 0x10001ADD0, symSize: 0x1A4 }
  - { offset: 0x44A24, size: 0x8, addend: 0x0, symName: _getFirstValueProfRecord, symObjAddr: 0x358, symBinAddr: 0x10001AF74, symSize: 0x8 }
  - { offset: 0x44A90, size: 0x8, addend: 0x0, symName: _getFirstValueProfRecord, symObjAddr: 0x358, symBinAddr: 0x10001AF74, symSize: 0x8 }
  - { offset: 0x44B73, size: 0x8, addend: 0x0, symName: _lprofSetupValueProfiler, symObjAddr: 0xB38, symBinAddr: 0x10001AF7C, symSize: 0x64 }
  - { offset: 0x44C87, size: 0x8, addend: 0x0, symName: ___llvm_profile_instrument_target_value, symObjAddr: 0xE30, symBinAddr: 0x10001AFE0, symSize: 0x290 }
  - { offset: 0x44DB6, size: 0x8, addend: 0x0, symName: _lprofGetVPDataReader, symObjAddr: 0x1108, symBinAddr: 0x10001B270, symSize: 0xC }
  - { offset: 0x44DBE, size: 0x8, addend: 0x0, symName: _initializeValueProfRuntimeRecord, symObjAddr: 0x1114, symBinAddr: 0x10001B27C, symSize: 0x210 }
  - { offset: 0x44DD9, size: 0x8, addend: 0x0, symName: _initializeValueProfRuntimeRecord, symObjAddr: 0x1114, symBinAddr: 0x10001B27C, symSize: 0x210 }
  - { offset: 0x44DE1, size: 0x8, addend: 0x0, symName: _getNumValueDataForSiteWrapper, symObjAddr: 0x1324, symBinAddr: 0x10001B48C, symSize: 0x14 }
  - { offset: 0x44EFC, size: 0x8, addend: 0x0, symName: _getNumValueDataForSiteWrapper, symObjAddr: 0x1324, symBinAddr: 0x10001B48C, symSize: 0x14 }
  - { offset: 0x44F04, size: 0x8, addend: 0x0, symName: _getValueProfDataSizeWrapper, symObjAddr: 0x1338, symBinAddr: 0x10001B4A0, symSize: 0xDC }
  - { offset: 0x44F42, size: 0x8, addend: 0x0, symName: _getNumValueDataForSiteWrapper, symObjAddr: 0x1324, symBinAddr: 0x10001B48C, symSize: 0x14 }
  - { offset: 0x44F6A, size: 0x8, addend: 0x0, symName: _getValueProfDataSizeWrapper, symObjAddr: 0x1338, symBinAddr: 0x10001B4A0, symSize: 0xDC }
  - { offset: 0x44F72, size: 0x8, addend: 0x0, symName: _getNextNValueData, symObjAddr: 0x1414, symBinAddr: 0x10001B57C, symSize: 0x44 }
  - { offset: 0x45011, size: 0x8, addend: 0x0, symName: _getNextNValueData, symObjAddr: 0x1414, symBinAddr: 0x10001B57C, symSize: 0x44 }
  - { offset: 0x45019, size: 0x8, addend: 0x0, symName: _getNumValueSitesRT, symObjAddr: 0x1458, symBinAddr: 0x10001B5C0, symSize: 0x10 }
  - { offset: 0x450A7, size: 0x8, addend: 0x0, symName: _getNumValueSitesRT, symObjAddr: 0x1458, symBinAddr: 0x10001B5C0, symSize: 0x10 }
  - { offset: 0x450AF, size: 0x8, addend: 0x0, symName: _getNumValueDataRT, symObjAddr: 0x1468, symBinAddr: 0x10001B5D0, symSize: 0x190 }
  - { offset: 0x450EA, size: 0x8, addend: 0x0, symName: _getNumValueDataRT, symObjAddr: 0x1468, symBinAddr: 0x10001B5D0, symSize: 0x190 }
  - { offset: 0x45160, size: 0x8, addend: 0x0, symName: ___llvm_profile_instrument_target_value.cold.1, symObjAddr: 0x161C, symBinAddr: 0x100054CB4, symSize: 0x24 }
  - { offset: 0x451F2, size: 0x8, addend: 0x0, symName: ___llvm_profile_raw_version, symObjAddr: 0x0, symBinAddr: 0x10007D330, symSize: 0x0 }
  - { offset: 0x45234, size: 0x8, addend: 0x0, symName: _lprofBufferWriter, symObjAddr: 0x0, symBinAddr: 0x10001B760, symSize: 0x6C }
  - { offset: 0x45253, size: 0x8, addend: 0x0, symName: _FreeHook, symObjAddr: 0x4F98, symBinAddr: 0x100080100, symSize: 0x0 }
  - { offset: 0x45279, size: 0x8, addend: 0x0, symName: _DynamicBufferIOBuffer, symObjAddr: 0x4FA0, symBinAddr: 0x100080108, symSize: 0x0 }
  - { offset: 0x452A7, size: 0x8, addend: 0x0, symName: _VPBufferSize, symObjAddr: 0x4FA8, symBinAddr: 0x100080110, symSize: 0x0 }
  - { offset: 0x452CE, size: 0x8, addend: 0x0, symName: __MergedGlobals, symObjAddr: 0x6FB0, symBinAddr: 0x10007FF50, symSize: 0x0 }
  - { offset: 0x4541D, size: 0x8, addend: 0x0, symName: _BufferIOBuffer, symObjAddr: 0x4FB0, symBinAddr: 0x10007DF50, symSize: 0x0 }
  - { offset: 0x45447, size: 0x8, addend: 0x0, symName: __MergedGlobals, symObjAddr: 0x6FB0, symBinAddr: 0x10007FF50, symSize: 0x0 }
  - { offset: 0x454C4, size: 0x8, addend: 0x0, symName: _lprofBufferWriter, symObjAddr: 0x0, symBinAddr: 0x10001B760, symSize: 0x6C }
  - { offset: 0x455E1, size: 0x8, addend: 0x0, symName: _lprofBufferIOWrite, symObjAddr: 0x100, symBinAddr: 0x10001B7CC, symSize: 0x134 }
  - { offset: 0x456EA, size: 0x8, addend: 0x0, symName: _lprofWriteData, symObjAddr: 0x2F4, symBinAddr: 0x10001B900, symSize: 0xE0 }
  - { offset: 0x456F2, size: 0x8, addend: 0x0, symName: _lprofWriteDataImpl, symObjAddr: 0x3D4, symBinAddr: 0x10001B9E0, symSize: 0x474 }
  - { offset: 0x45B32, size: 0x8, addend: 0x0, symName: _lprofWriteDataImpl, symObjAddr: 0x3D4, symBinAddr: 0x10001B9E0, symSize: 0x474 }
  - { offset: 0x45E79, size: 0x8, addend: 0x0, symName: _writeOneValueProfData, symObjAddr: 0x8D4, symBinAddr: 0x10001BE54, symSize: 0x4A8 }
  - { offset: 0x46142, size: 0x8, addend: 0x0, symName: __RNvCskdKJRKLKjqM_7___rustc10rust_panic, symObjAddr: 0x0, symBinAddr: 0x100054CD8, symSize: 0x60 }
  - { offset: 0x464CA, size: 0x8, addend: 0x0, symName: '__ZN42_$LT$$RF$T$u20$as$u20$core..fmt..Debug$GT$3fmt17h1657bda62079795fE', symObjAddr: 0x22C30, symBinAddr: 0x10002C4C8, symSize: 0x74 }
  - { offset: 0x465E1, size: 0x8, addend: 0x0, symName: '__ZN42_$LT$$RF$T$u20$as$u20$core..fmt..Debug$GT$3fmt17h1afb9163f1905b06E', symObjAddr: 0x22CA4, symBinAddr: 0x10002C53C, symSize: 0x10 }
  - { offset: 0x46612, size: 0x8, addend: 0x0, symName: '__ZN42_$LT$$RF$T$u20$as$u20$core..fmt..Debug$GT$3fmt17h5dbecbf3553e1d6eE', symObjAddr: 0x230DC, symBinAddr: 0x10002C54C, symSize: 0x14 }
  - { offset: 0x46643, size: 0x8, addend: 0x0, symName: '__ZN42_$LT$$RF$T$u20$as$u20$core..fmt..Debug$GT$3fmt17h624b3b1b2bc3ccaaE', symObjAddr: 0x230F0, symBinAddr: 0x10002C560, symSize: 0x10 }
  - { offset: 0x46665, size: 0x8, addend: 0x0, symName: '__ZN42_$LT$$RF$T$u20$as$u20$core..fmt..Debug$GT$3fmt17h90d58bddc1b11390E', symObjAddr: 0x23210, symBinAddr: 0x10002C570, symSize: 0x9C }
  - { offset: 0x466F4, size: 0x8, addend: 0x0, symName: '__ZN42_$LT$$RF$T$u20$as$u20$core..fmt..Debug$GT$3fmt17h962ee5d805df0a43E', symObjAddr: 0x232AC, symBinAddr: 0x10002C60C, symSize: 0x1C }
  - { offset: 0x46756, size: 0x8, addend: 0x0, symName: '__ZN42_$LT$$RF$T$u20$as$u20$core..fmt..Debug$GT$3fmt17h9b59bf8331fa675dE', symObjAddr: 0x232D8, symBinAddr: 0x10002C628, symSize: 0x74 }
  - { offset: 0x467EA, size: 0x8, addend: 0x0, symName: '__ZN42_$LT$$RF$T$u20$as$u20$core..fmt..Debug$GT$3fmt17hbd1e035ac7e08f25E', symObjAddr: 0x23400, symBinAddr: 0x10002C69C, symSize: 0x1C }
  - { offset: 0x46860, size: 0x8, addend: 0x0, symName: '__ZN44_$LT$$RF$T$u20$as$u20$core..fmt..Display$GT$3fmt17h42b41cde78dd7a40E', symObjAddr: 0x23740, symBinAddr: 0x10002C6B8, symSize: 0x10 }
  - { offset: 0x4687B, size: 0x8, addend: 0x0, symName: '__ZN44_$LT$$RF$T$u20$as$u20$core..fmt..Display$GT$3fmt17h97ddbbc1a338291fE', symObjAddr: 0x23760, symBinAddr: 0x10002C6C8, symSize: 0x74 }
  - { offset: 0x46926, size: 0x8, addend: 0x0, symName: '__ZN4core3fmt3num50_$LT$impl$u20$core..fmt..Debug$u20$for$u20$i32$GT$3fmt17h0ee72d503607d7feE', symObjAddr: 0x23AE0, symBinAddr: 0x10002C790, symSize: 0x18 }
  - { offset: 0x4693D, size: 0x8, addend: 0x0, symName: '__ZN4core3fmt3num50_$LT$impl$u20$core..fmt..Debug$u20$for$u20$i32$GT$3fmt17h0ee72d503607d7feE', symObjAddr: 0x23AE0, symBinAddr: 0x10002C790, symSize: 0x18 }
  - { offset: 0x46968, size: 0x8, addend: 0x0, symName: '__ZN4core3fmt3num52_$LT$impl$u20$core..fmt..Debug$u20$for$u20$usize$GT$3fmt17hecd777b1c3510085E', symObjAddr: 0x23B40, symBinAddr: 0x10002C7A8, symSize: 0x18 }
  - { offset: 0x4697F, size: 0x8, addend: 0x0, symName: '__ZN4core3fmt3num52_$LT$impl$u20$core..fmt..Debug$u20$for$u20$usize$GT$3fmt17hecd777b1c3510085E', symObjAddr: 0x23B40, symBinAddr: 0x10002C7A8, symSize: 0x18 }
  - { offset: 0x469B9, size: 0x8, addend: 0x0, symName: __ZN4core3fmt5Write10write_char17h69a3578dfe4b32e9E, symObjAddr: 0x23CC0, symBinAddr: 0x10002C7C0, symSize: 0x128 }
  - { offset: 0x46A34, size: 0x8, addend: 0x0, symName: __ZN4core3fmt5Write10write_char17h69d96c692ad3d067E, symObjAddr: 0x23DE8, symBinAddr: 0x10002C8E8, symSize: 0x168 }
  - { offset: 0x46BAF, size: 0x8, addend: 0x0, symName: __ZN4core3fmt5Write10write_char17hca427d9223c5b6e1E, symObjAddr: 0x23F50, symBinAddr: 0x10002CA50, symSize: 0x138 }
  - { offset: 0x46D3F, size: 0x8, addend: 0x0, symName: __ZN4core3fmt5Write10write_char17he9318f738a0331ecE, symObjAddr: 0x24088, symBinAddr: 0x10002CB88, symSize: 0x110 }
  - { offset: 0x46F40, size: 0x8, addend: 0x0, symName: __ZN4core3fmt5Write9write_fmt17h09d57f97e1e98aabE, symObjAddr: 0x242C0, symBinAddr: 0x10002CC98, symSize: 0x38 }
  - { offset: 0x46F6F, size: 0x8, addend: 0x0, symName: __ZN4core3fmt5Write9write_fmt17h0e54e39e3cec6689E, symObjAddr: 0x242F8, symBinAddr: 0x10002CCD0, symSize: 0x38 }
  - { offset: 0x46F9E, size: 0x8, addend: 0x0, symName: __ZN4core3fmt5Write9write_fmt17h19fd30b4ad025d60E, symObjAddr: 0x24330, symBinAddr: 0x10002CD08, symSize: 0x38 }
  - { offset: 0x46FCD, size: 0x8, addend: 0x0, symName: __ZN4core3fmt5Write9write_fmt17h2a94cca2598c1fb1E, symObjAddr: 0x243A0, symBinAddr: 0x10002CD40, symSize: 0x38 }
  - { offset: 0x46FFC, size: 0x8, addend: 0x0, symName: __ZN4core3fmt5Write9write_fmt17heb18d397fb6127d0E, symObjAddr: 0x24410, symBinAddr: 0x10002CD78, symSize: 0x38 }
  - { offset: 0x47059, size: 0x8, addend: 0x0, symName: '__ZN50_$LT$$BP$mut$u20$T$u20$as$u20$core..fmt..Debug$GT$3fmt17hc506ef24e45fcfffE', symObjAddr: 0x31FD4, symBinAddr: 0x100036B20, symSize: 0x8 }
  - { offset: 0x47077, size: 0x8, addend: 0x0, symName: '__ZN50_$LT$$BP$mut$u20$T$u20$as$u20$core..fmt..Debug$GT$3fmt17hc506ef24e45fcfffE', symObjAddr: 0x31FD4, symBinAddr: 0x100036B20, symSize: 0x8 }
  - { offset: 0x470A6, size: 0x8, addend: 0x0, symName: '__ZN52_$LT$$RF$mut$u20$T$u20$as$u20$core..fmt..Display$GT$3fmt17hbaf30795b8d3c4d8E', symObjAddr: 0x3262C, symBinAddr: 0x100036B28, symSize: 0x10 }
  - { offset: 0x494A4, size: 0x8, addend: 0x0, symName: '__ZN4core3ptr107drop_in_place$LT$core..pin..Pin$LT$alloc..boxed..Box$LT$std..sys..pal..unix..sync..mutex..Mutex$GT$$GT$$GT$17hbd21784a02a2f8d1E', symObjAddr: 0x24A20, symBinAddr: 0x10002D04C, symSize: 0x2C }
  - { offset: 0x4953B, size: 0x8, addend: 0x0, symName: '__ZN4core3ptr109drop_in_place$LT$alloc..sync..Arc$LT$std..sync..poison..mutex..Mutex$LT$alloc..vec..Vec$LT$u8$GT$$GT$$GT$$GT$17h5646c21d902a9b21E', symObjAddr: 0x24A4C, symBinAddr: 0x10002D078, symSize: 0x20 }
  - { offset: 0x49552, size: 0x8, addend: 0x0, symName: '__ZN4core3ptr109drop_in_place$LT$alloc..sync..Arc$LT$std..sync..poison..mutex..Mutex$LT$alloc..vec..Vec$LT$u8$GT$$GT$$GT$$GT$17h5646c21d902a9b21E', symObjAddr: 0x24A4C, symBinAddr: 0x10002D078, symSize: 0x20 }
  - { offset: 0x49567, size: 0x8, addend: 0x0, symName: '__ZN4core3ptr109drop_in_place$LT$alloc..sync..Arc$LT$std..sync..poison..mutex..Mutex$LT$alloc..vec..Vec$LT$u8$GT$$GT$$GT$$GT$17h5646c21d902a9b21E', symObjAddr: 0x24A4C, symBinAddr: 0x10002D078, symSize: 0x20 }
  - { offset: 0x4957C, size: 0x8, addend: 0x0, symName: '__ZN4core3ptr109drop_in_place$LT$alloc..sync..Arc$LT$std..sync..poison..mutex..Mutex$LT$alloc..vec..Vec$LT$u8$GT$$GT$$GT$$GT$17h5646c21d902a9b21E', symObjAddr: 0x24A4C, symBinAddr: 0x10002D078, symSize: 0x20 }
  - { offset: 0x495D0, size: 0x8, addend: 0x0, symName: '__ZN4core3ptr119drop_in_place$LT$std..io..default_write_fmt..Adapter$LT$std..io..cursor..Cursor$LT$$RF$mut$u20$$u5b$u8$u5d$$GT$$GT$$GT$17hd94de8f89bec7782E', symObjAddr: 0x24AE8, symBinAddr: 0x10002D098, symSize: 0x10 }
  - { offset: 0x495E7, size: 0x8, addend: 0x0, symName: '__ZN4core3ptr119drop_in_place$LT$std..io..default_write_fmt..Adapter$LT$std..io..cursor..Cursor$LT$$RF$mut$u20$$u5b$u8$u5d$$GT$$GT$$GT$17hd94de8f89bec7782E', symObjAddr: 0x24AE8, symBinAddr: 0x10002D098, symSize: 0x10 }
  - { offset: 0x495FA, size: 0x8, addend: 0x0, symName: '__ZN4core3ptr123drop_in_place$LT$addr2line..Context$LT$gimli..read..endian_slice..EndianSlice$LT$gimli..endianity..LittleEndian$GT$$GT$$GT$17h60120d8b61f786aeE', symObjAddr: 0x24AF8, symBinAddr: 0x10002D0A8, symSize: 0x70 }
  - { offset: 0x496B3, size: 0x8, addend: 0x0, symName: '__ZN4core3ptr128drop_in_place$LT$core..result..Result$LT$$RF$std..thread..Thread$C$$LP$$RF$std..thread..Thread$C$std..thread..Thread$RP$$GT$$GT$17h75718b8337910809E', symObjAddr: 0x24B68, symBinAddr: 0x10002D118, symSize: 0x28 }
  - { offset: 0x49809, size: 0x8, addend: 0x0, symName: '__ZN4core3ptr129drop_in_place$LT$addr2line..unit..ResUnit$LT$gimli..read..endian_slice..EndianSlice$LT$gimli..endianity..LittleEndian$GT$$GT$$GT$17h61db7baa14403ae7E', symObjAddr: 0x24B90, symBinAddr: 0x10002D140, symSize: 0xE4 }
  - { offset: 0x49A2B, size: 0x8, addend: 0x0, symName: '__ZN4core3ptr129drop_in_place$LT$addr2line..unit..SupUnit$LT$gimli..read..endian_slice..EndianSlice$LT$gimli..endianity..LittleEndian$GT$$GT$$GT$17hbd87d71db3a78ec7E', symObjAddr: 0x24C74, symBinAddr: 0x10002D224, symSize: 0x54 }
  - { offset: 0x49AEA, size: 0x8, addend: 0x0, symName: '__ZN4core3ptr130drop_in_place$LT$addr2line..unit..ResUnits$LT$gimli..read..endian_slice..EndianSlice$LT$gimli..endianity..LittleEndian$GT$$GT$$GT$17hb2ce511d8969e07fE', symObjAddr: 0x24CC8, symBinAddr: 0x10002D278, symSize: 0xD0 }
  - { offset: 0x49C93, size: 0x8, addend: 0x0, symName: '__ZN4core3ptr130drop_in_place$LT$addr2line..unit..SupUnits$LT$gimli..read..endian_slice..EndianSlice$LT$gimli..endianity..LittleEndian$GT$$GT$$GT$17h3d17c95ef0deb2d2E', symObjAddr: 0x24D98, symBinAddr: 0x10002D348, symSize: 0xE4 }
  - { offset: 0x49E43, size: 0x8, addend: 0x0, symName: '__ZN4core3ptr130drop_in_place$LT$gimli..read..dwarf..Dwarf$LT$gimli..read..endian_slice..EndianSlice$LT$gimli..endianity..LittleEndian$GT$$GT$$GT$17hc9e7ef4be229448fE', symObjAddr: 0x24E7C, symBinAddr: 0x10002D42C, symSize: 0x58 }
  - { offset: 0x49ED9, size: 0x8, addend: 0x0, symName: '__ZN4core3ptr131drop_in_place$LT$$u5b$core..option..Option$LT$core..option..Option$LT$std..backtrace_rs..symbolize..gimli..Mapping$GT$$GT$$u5d$$GT$17hbc1f61e360e1245cE', symObjAddr: 0x24ED4, symBinAddr: 0x10002D484, symSize: 0xCC }
  - { offset: 0x49F83, size: 0x8, addend: 0x0, symName: '__ZN4core3ptr131drop_in_place$LT$alloc..boxed..Box$LT$dyn$u20$core..ops..function..FnOnce$LT$$LP$$RP$$GT$$u2b$Output$u20$$u3d$$u20$$LP$$RP$$GT$$GT$17hcd6787f4796be228E', symObjAddr: 0x24FA0, symBinAddr: 0x10002D550, symSize: 0x78 }
  - { offset: 0x4A06E, size: 0x8, addend: 0x0, symName: '__ZN4core3ptr137drop_in_place$LT$gimli..read..dwarf..Unit$LT$gimli..read..endian_slice..EndianSlice$LT$gimli..endianity..LittleEndian$GT$$C$usize$GT$$GT$17ha92b70ae8706df64E', symObjAddr: 0x25018, symBinAddr: 0x10002D5C8, symSize: 0x54 }
  - { offset: 0x4A16B, size: 0x8, addend: 0x0, symName: '__ZN4core3ptr138drop_in_place$LT$addr2line..function..LazyFunction$LT$gimli..read..endian_slice..EndianSlice$LT$gimli..endianity..LittleEndian$GT$$GT$$GT$17h5b1532da9ccb5096E', symObjAddr: 0x2506C, symBinAddr: 0x10002D61C, symSize: 0x64 }
  - { offset: 0x4A182, size: 0x8, addend: 0x0, symName: '__ZN4core3ptr138drop_in_place$LT$addr2line..function..LazyFunction$LT$gimli..read..endian_slice..EndianSlice$LT$gimli..endianity..LittleEndian$GT$$GT$$GT$17h5b1532da9ccb5096E', symObjAddr: 0x2506C, symBinAddr: 0x10002D61C, symSize: 0x64 }
  - { offset: 0x4A197, size: 0x8, addend: 0x0, symName: '__ZN4core3ptr138drop_in_place$LT$addr2line..function..LazyFunction$LT$gimli..read..endian_slice..EndianSlice$LT$gimli..endianity..LittleEndian$GT$$GT$$GT$17h5b1532da9ccb5096E', symObjAddr: 0x2506C, symBinAddr: 0x10002D61C, symSize: 0x64 }
  - { offset: 0x4A1AC, size: 0x8, addend: 0x0, symName: '__ZN4core3ptr138drop_in_place$LT$addr2line..function..LazyFunction$LT$gimli..read..endian_slice..EndianSlice$LT$gimli..endianity..LittleEndian$GT$$GT$$GT$17h5b1532da9ccb5096E', symObjAddr: 0x2506C, symBinAddr: 0x10002D61C, symSize: 0x64 }
  - { offset: 0x4A2E0, size: 0x8, addend: 0x0, symName: '__ZN4core3ptr144drop_in_place$LT$alloc..vec..Vec$LT$core..option..Option$LT$core..option..Option$LT$std..backtrace_rs..symbolize..gimli..Mapping$GT$$GT$$GT$$GT$17h76825e3abe87d450E', symObjAddr: 0x250D0, symBinAddr: 0x10002D680, symSize: 0x78 }
  - { offset: 0x4A43A, size: 0x8, addend: 0x0, symName: '__ZN4core3ptr152drop_in_place$LT$alloc..vec..Vec$LT$addr2line..unit..ResUnit$LT$gimli..read..endian_slice..EndianSlice$LT$gimli..endianity..LittleEndian$GT$$GT$$GT$$GT$17h6c57a6c544237a87E', symObjAddr: 0x25204, symBinAddr: 0x10002D6F8, symSize: 0xC4 }
  - { offset: 0x4A5A9, size: 0x8, addend: 0x0, symName: '__ZN4core3ptr152drop_in_place$LT$alloc..vec..Vec$LT$addr2line..unit..SupUnit$LT$gimli..read..endian_slice..EndianSlice$LT$gimli..endianity..LittleEndian$GT$$GT$$GT$$GT$17h5ad4c72a1632250dE', symObjAddr: 0x252C8, symBinAddr: 0x10002D7BC, symSize: 0xF4 }
  - { offset: 0x4A7C1, size: 0x8, addend: 0x0, symName: '__ZN4core3ptr156drop_in_place$LT$alloc..boxed..Box$LT$$u5b$core..option..Option$LT$core..option..Option$LT$std..backtrace_rs..symbolize..gimli..Mapping$GT$$GT$$u5d$$GT$$GT$17hcb1b2da851a6d067E', symObjAddr: 0x253BC, symBinAddr: 0x10002D8B0, symSize: 0xF8 }
  - { offset: 0x4A8EB, size: 0x8, addend: 0x0, symName: '__ZN4core3ptr159drop_in_place$LT$alloc..sync..ArcInner$LT$gimli..read..dwarf..Dwarf$LT$gimli..read..endian_slice..EndianSlice$LT$gimli..endianity..LittleEndian$GT$$GT$$GT$$GT$17h7de780a0c68b30e9E', symObjAddr: 0x25544, symBinAddr: 0x10002D9A8, symSize: 0x5C }
  - { offset: 0x4A9B0, size: 0x8, addend: 0x0, symName: '__ZN4core3ptr161drop_in_place$LT$alloc..vec..Vec$LT$addr2line..function..LazyFunction$LT$gimli..read..endian_slice..EndianSlice$LT$gimli..endianity..LittleEndian$GT$$GT$$GT$$GT$17h3d6d53657b9c2934E', symObjAddr: 0x255A0, symBinAddr: 0x10002DA04, symSize: 0xAC }
  - { offset: 0x4ABED, size: 0x8, addend: 0x0, symName: '__ZN4core3ptr172drop_in_place$LT$core..result..Result$LT$addr2line..Context$LT$gimli..read..endian_slice..EndianSlice$LT$gimli..endianity..LittleEndian$GT$$GT$$C$gimli..read..Error$GT$$GT$17h4bff534e67e3d6dbE', symObjAddr: 0x256F8, symBinAddr: 0x10002DAB0, symSize: 0x80 }
  - { offset: 0x4AC82, size: 0x8, addend: 0x0, symName: '__ZN4core3ptr173drop_in_place$LT$alloc..boxed..Box$LT$$u5b$addr2line..function..LazyFunction$LT$gimli..read..endian_slice..EndianSlice$LT$gimli..endianity..LittleEndian$GT$$GT$$u5d$$GT$$GT$17h2cad5765df2f5de8E', symObjAddr: 0x25778, symBinAddr: 0x10002DB30, symSize: 0x9C }
  - { offset: 0x4AC99, size: 0x8, addend: 0x0, symName: '__ZN4core3ptr173drop_in_place$LT$alloc..boxed..Box$LT$$u5b$addr2line..function..LazyFunction$LT$gimli..read..endian_slice..EndianSlice$LT$gimli..endianity..LittleEndian$GT$$GT$$u5d$$GT$$GT$17h2cad5765df2f5de8E', symObjAddr: 0x25778, symBinAddr: 0x10002DB30, symSize: 0x9C }
  - { offset: 0x4AE6E, size: 0x8, addend: 0x0, symName: '__ZN4core3ptr181drop_in_place$LT$core..option..Option$LT$gimli..read..line..IncompleteLineProgram$LT$gimli..read..endian_slice..EndianSlice$LT$gimli..endianity..LittleEndian$GT$$C$usize$GT$$GT$$GT$17h4072838a3a3bc029E', symObjAddr: 0x25884, symBinAddr: 0x10002DBCC, symSize: 0x98 }
  - { offset: 0x4B0C7, size: 0x8, addend: 0x0, symName: '__ZN4core3ptr181drop_in_place$LT$core..result..Result$LT$addr2line..frame..FrameIter$LT$gimli..read..endian_slice..EndianSlice$LT$gimli..endianity..LittleEndian$GT$$GT$$C$gimli..read..Error$GT$$GT$17h1a8da6a3f705e13bE', symObjAddr: 0x2591C, symBinAddr: 0x10002DC64, symSize: 0x34 }
  - { offset: 0x4B205, size: 0x8, addend: 0x0, symName: '__ZN4core3ptr184drop_in_place$LT$core..result..Result$LT$addr2line..function..Functions$LT$gimli..read..endian_slice..EndianSlice$LT$gimli..endianity..LittleEndian$GT$$GT$$C$gimli..read..Error$GT$$GT$17h9a3bad25e1bdcbe6E', symObjAddr: 0x25950, symBinAddr: 0x10002DC98, symSize: 0xD8 }
  - { offset: 0x4B495, size: 0x8, addend: 0x0, symName: '__ZN4core3ptr194drop_in_place$LT$core..result..Result$LT$std..sync..poison..mutex..MutexGuard$LT$$LP$$RP$$GT$$C$std..sync..poison..PoisonError$LT$std..sync..poison..mutex..MutexGuard$LT$$LP$$RP$$GT$$GT$$GT$$GT$17h0271d4bb6050713eE', symObjAddr: 0x25A9C, symBinAddr: 0x10002DD70, symSize: 0x4C }
  - { offset: 0x4B4D3, size: 0x8, addend: 0x0, symName: '__ZN4core3ptr231drop_in_place$LT$core..result..Result$LT$core..option..Option$LT$alloc..boxed..Box$LT$addr2line..unit..DwoUnit$LT$gimli..read..endian_slice..EndianSlice$LT$gimli..endianity..LittleEndian$GT$$GT$$GT$$GT$$C$gimli..read..Error$GT$$GT$17h6cb514b393938b83E', symObjAddr: 0x25AE8, symBinAddr: 0x10002DDBC, symSize: 0xD4 }
  - { offset: 0x4B6AE, size: 0x8, addend: 0x0, symName: '__ZN4core3ptr238drop_in_place$LT$alloc..boxed..convert..$LT$impl$u20$core..convert..From$LT$alloc..string..String$GT$$u20$for$u20$alloc..boxed..Box$LT$dyn$u20$core..error..Error$u2b$core..marker..Sync$u2b$core..marker..Send$GT$$GT$..from..StringError$GT$17h021cfce481c078aaE', symObjAddr: 0x25BBC, symBinAddr: 0x10002DE90, symSize: 0x18 }
  - { offset: 0x4B6C5, size: 0x8, addend: 0x0, symName: '__ZN4core3ptr238drop_in_place$LT$alloc..boxed..convert..$LT$impl$u20$core..convert..From$LT$alloc..string..String$GT$$u20$for$u20$alloc..boxed..Box$LT$dyn$u20$core..error..Error$u2b$core..marker..Sync$u2b$core..marker..Send$GT$$GT$..from..StringError$GT$17h021cfce481c078aaE', symObjAddr: 0x25BBC, symBinAddr: 0x10002DE90, symSize: 0x18 }
  - { offset: 0x4B6DA, size: 0x8, addend: 0x0, symName: '__ZN4core3ptr238drop_in_place$LT$alloc..boxed..convert..$LT$impl$u20$core..convert..From$LT$alloc..string..String$GT$$u20$for$u20$alloc..boxed..Box$LT$dyn$u20$core..error..Error$u2b$core..marker..Sync$u2b$core..marker..Send$GT$$GT$..from..StringError$GT$17h021cfce481c078aaE', symObjAddr: 0x25BBC, symBinAddr: 0x10002DE90, symSize: 0x18 }
  - { offset: 0x4B759, size: 0x8, addend: 0x0, symName: '__ZN4core3ptr275drop_in_place$LT$gimli..read..line..LineRows$LT$gimli..read..endian_slice..EndianSlice$LT$gimli..endianity..LittleEndian$GT$$C$gimli..read..line..IncompleteLineProgram$LT$gimli..read..endian_slice..EndianSlice$LT$gimli..endianity..LittleEndian$GT$$C$usize$GT$$C$usize$GT$$GT$17h53f25b84add21487E', symObjAddr: 0x25BD4, symBinAddr: 0x10002DEA8, symSize: 0x8C }
  - { offset: 0x4B9CE, size: 0x8, addend: 0x0, symName: '__ZN4core3ptr280drop_in_place$LT$$LT$alloc..collections..btree..map..IntoIter$LT$K$C$V$C$A$GT$$u20$as$u20$core..ops..drop..Drop$GT$..drop..DropGuard$LT$u64$C$core..result..Result$LT$alloc..sync..Arc$LT$gimli..read..abbrev..Abbreviations$GT$$C$gimli..read..Error$GT$$C$alloc..alloc..Global$GT$$GT$17hcc27088c1e07f147E', symObjAddr: 0x25C60, symBinAddr: 0x10002DF34, symSize: 0x84 }
  - { offset: 0x4BB3E, size: 0x8, addend: 0x0, symName: '__ZN4core3ptr284drop_in_place$LT$core..result..Result$LT$$RF$core..result..Result$LT$addr2line..line..Lines$C$gimli..read..Error$GT$$C$$LP$$RF$core..result..Result$LT$addr2line..line..Lines$C$gimli..read..Error$GT$$C$core..result..Result$LT$addr2line..line..Lines$C$gimli..read..Error$GT$$RP$$GT$$GT$17hb193a9c217a4a4c1E', symObjAddr: 0x25CE4, symBinAddr: 0x10002DFB8, symSize: 0x10 }
  - { offset: 0x4BB6F, size: 0x8, addend: 0x0, symName: '__ZN4core3ptr37drop_in_place$LT$std..env..VarsOs$GT$17h72b80feb8ea238e8E', symObjAddr: 0x25CF4, symBinAddr: 0x10002DFC8, symSize: 0xAC }
  - { offset: 0x4BE44, size: 0x8, addend: 0x0, symName: '__ZN4core3ptr42drop_in_place$LT$alloc..string..String$GT$17hf6a0412a3add09b1E', symObjAddr: 0x25EA8, symBinAddr: 0x10002E074, symSize: 0x18 }
  - { offset: 0x4BE5B, size: 0x8, addend: 0x0, symName: '__ZN4core3ptr42drop_in_place$LT$alloc..string..String$GT$17hf6a0412a3add09b1E', symObjAddr: 0x25EA8, symBinAddr: 0x10002E074, symSize: 0x18 }
  - { offset: 0x4BED9, size: 0x8, addend: 0x0, symName: '__ZN4core3ptr42drop_in_place$LT$std..io..error..Error$GT$17hf851d76d73342388E', symObjAddr: 0x25EC0, symBinAddr: 0x10002E08C, symSize: 0xAC }
  - { offset: 0x4C0BD, size: 0x8, addend: 0x0, symName: '__ZN4core3ptr44drop_in_place$LT$object..read..ObjectMap$GT$17h0847af56bc5df22dE', symObjAddr: 0x25F6C, symBinAddr: 0x10002E138, symSize: 0x58 }
  - { offset: 0x4C1EC, size: 0x8, addend: 0x0, symName: '__ZN4core3ptr46drop_in_place$LT$alloc..vec..Vec$LT$u8$GT$$GT$17hba5d5d275589670eE', symObjAddr: 0x26030, symBinAddr: 0x10002E190, symSize: 0x18 }
  - { offset: 0x4C26B, size: 0x8, addend: 0x0, symName: '__ZN4core3ptr46drop_in_place$LT$std..io..stdio..StdinLock$GT$17h0f6294c31e8bd6fbE', symObjAddr: 0x26048, symBinAddr: 0x10002E1A8, symSize: 0x54 }
  - { offset: 0x4C282, size: 0x8, addend: 0x0, symName: '__ZN4core3ptr46drop_in_place$LT$std..io..stdio..StdinLock$GT$17h0f6294c31e8bd6fbE', symObjAddr: 0x26048, symBinAddr: 0x10002E1A8, symSize: 0x54 }
  - { offset: 0x4C297, size: 0x8, addend: 0x0, symName: '__ZN4core3ptr46drop_in_place$LT$std..io..stdio..StdinLock$GT$17h0f6294c31e8bd6fbE', symObjAddr: 0x26048, symBinAddr: 0x10002E1A8, symSize: 0x54 }
  - { offset: 0x4C37B, size: 0x8, addend: 0x0, symName: '__ZN4core3ptr48drop_in_place$LT$alloc..ffi..c_str..NulError$GT$17h4b149f15bda11918E', symObjAddr: 0x26180, symBinAddr: 0x10002E1FC, symSize: 0x18 }
  - { offset: 0x4C392, size: 0x8, addend: 0x0, symName: '__ZN4core3ptr48drop_in_place$LT$alloc..ffi..c_str..NulError$GT$17h4b149f15bda11918E', symObjAddr: 0x26180, symBinAddr: 0x10002E1FC, symSize: 0x18 }
  - { offset: 0x4C41E, size: 0x8, addend: 0x0, symName: '__ZN4core3ptr557drop_in_place$LT$core..result..Result$LT$$RF$core..result..Result$LT$addr2line..function..Function$LT$gimli..read..endian_slice..EndianSlice$LT$gimli..endianity..LittleEndian$GT$$GT$$C$gimli..read..Error$GT$$C$$LP$$RF$core..result..Result$LT$addr2line..function..Function$LT$gimli..read..endian_slice..EndianSlice$LT$gimli..endianity..LittleEndian$GT$$GT$$C$gimli..read..Error$GT$$C$core..result..Result$LT$addr2line..function..Function$LT$gimli..read..endian_slice..EndianSlice$LT$gimli..endianity..LittleEndian$GT$$GT$$C$gimli..read..Error$GT$$RP$$GT$$GT$17hddd2d7300f8297eaE', symObjAddr: 0x26458, symBinAddr: 0x10002E214, symSize: 0x64 }
  - { offset: 0x4C608, size: 0x8, addend: 0x0, symName: '__ZN4core3ptr55drop_in_place$LT$gimli..read..abbrev..Abbreviations$GT$17h8587e1680933f2fcE', symObjAddr: 0x264BC, symBinAddr: 0x10002E278, symSize: 0x118 }
  - { offset: 0x4C979, size: 0x8, addend: 0x0, symName: '__ZN4core3ptr560drop_in_place$LT$core..result..Result$LT$$RF$core..result..Result$LT$addr2line..function..Functions$LT$gimli..read..endian_slice..EndianSlice$LT$gimli..endianity..LittleEndian$GT$$GT$$C$gimli..read..Error$GT$$C$$LP$$RF$core..result..Result$LT$addr2line..function..Functions$LT$gimli..read..endian_slice..EndianSlice$LT$gimli..endianity..LittleEndian$GT$$GT$$C$gimli..read..Error$GT$$C$core..result..Result$LT$addr2line..function..Functions$LT$gimli..read..endian_slice..EndianSlice$LT$gimli..endianity..LittleEndian$GT$$GT$$C$gimli..read..Error$GT$$RP$$GT$$GT$17he4dc02a625b1da45E', symObjAddr: 0x266E4, symBinAddr: 0x10002E390, symSize: 0x10 }
  - { offset: 0x4C9D4, size: 0x8, addend: 0x0, symName: '__ZN4core3ptr60drop_in_place$LT$gimli..read..abbrev..AbbreviationsCache$GT$17h05dc331b510e23d9E', symObjAddr: 0x266F4, symBinAddr: 0x10002E3A0, symSize: 0xCC }
  - { offset: 0x4CB7F, size: 0x8, addend: 0x0, symName: '__ZN4core3ptr64drop_in_place$LT$std..sys..pal..unix..sync..mutex..AttrGuard$GT$17he7e52a9dfb22022eE', symObjAddr: 0x2682C, symBinAddr: 0x10002E46C, symSize: 0x48 }
  - { offset: 0x4CBA2, size: 0x8, addend: 0x0, symName: '__ZN4core3ptr64drop_in_place$LT$std..sys..process..unix..common..ChildPipes$GT$17hd9f6e3b60aa15aaeE', symObjAddr: 0x26874, symBinAddr: 0x10002E4B4, symSize: 0x78 }
  - { offset: 0x4CCA4, size: 0x8, addend: 0x0, symName: '__ZN4core3ptr64drop_in_place$LT$std..sys..process..unix..common..StdioPipes$GT$17hb8ed25505eeea22fE', symObjAddr: 0x268EC, symBinAddr: 0x10002E52C, symSize: 0x54 }
  - { offset: 0x4CE1C, size: 0x8, addend: 0x0, symName: '__ZN4core3ptr65drop_in_place$LT$alloc..vec..Vec$LT$alloc..string..String$GT$$GT$17h1a875569544aab8bE', symObjAddr: 0x26940, symBinAddr: 0x10002E580, symSize: 0x80 }
  - { offset: 0x4CF82, size: 0x8, addend: 0x0, symName: '__ZN4core3ptr65drop_in_place$LT$std..backtrace_rs..symbolize..gimli..Context$GT$17h29923633989d7a97E', symObjAddr: 0x269C0, symBinAddr: 0x10002E600, symSize: 0xE8 }
  - { offset: 0x4D214, size: 0x8, addend: 0x0, symName: '__ZN4core3ptr66drop_in_place$LT$std..backtrace_rs..backtrace..libunwind..Bomb$GT$17hf3cf99a2a39305f3E', symObjAddr: 0x26AA8, symBinAddr: 0x10002E6E8, symSize: 0x40 }
  - { offset: 0x4D260, size: 0x8, addend: 0x0, symName: '__ZN4core3ptr701drop_in_place$LT$core..result..Result$LT$$RF$core..result..Result$LT$core..option..Option$LT$alloc..boxed..Box$LT$addr2line..unit..DwoUnit$LT$gimli..read..endian_slice..EndianSlice$LT$gimli..endianity..LittleEndian$GT$$GT$$GT$$GT$$C$gimli..read..Error$GT$$C$$LP$$RF$core..result..Result$LT$core..option..Option$LT$alloc..boxed..Box$LT$addr2line..unit..DwoUnit$LT$gimli..read..endian_slice..EndianSlice$LT$gimli..endianity..LittleEndian$GT$$GT$$GT$$GT$$C$gimli..read..Error$GT$$C$core..result..Result$LT$core..option..Option$LT$alloc..boxed..Box$LT$addr2line..unit..DwoUnit$LT$gimli..read..endian_slice..EndianSlice$LT$gimli..endianity..LittleEndian$GT$$GT$$GT$$GT$$C$gimli..read..Error$GT$$RP$$GT$$GT$17hf93357a84d00fc7eE', symObjAddr: 0x26AE8, symBinAddr: 0x10002E728, symSize: 0x14 }
  - { offset: 0x4D301, size: 0x8, addend: 0x0, symName: '__ZN4core3ptr70drop_in_place$LT$std..backtrace_rs..symbolize..gimli..stash..Stash$GT$17hed8a877d9cede334E', symObjAddr: 0x26AFC, symBinAddr: 0x10002E73C, symSize: 0xB8 }
  - { offset: 0x4D5A7, size: 0x8, addend: 0x0, symName: '__ZN4core3ptr71drop_in_place$LT$std..backtrace_rs..symbolize..gimli..macho..Object$GT$17h869151e7b414cfd4E', symObjAddr: 0x26BB4, symBinAddr: 0x10002E7F4, symSize: 0xD8 }
  - { offset: 0x4D86C, size: 0x8, addend: 0x0, symName: '__ZN4core3ptr71drop_in_place$LT$std..panicking..panic_handler..FormatStringPayload$GT$17h837459f0acb2901dE', symObjAddr: 0x26C8C, symBinAddr: 0x10002E8CC, symSize: 0x1C }
  - { offset: 0x4D928, size: 0x8, addend: 0x0, symName: '__ZN4core3ptr72drop_in_place$LT$core..option..Option$LT$object..read..ObjectMap$GT$$GT$17h379eb7351ada8367E', symObjAddr: 0x26CA8, symBinAddr: 0x10002E8E8, symSize: 0x64 }
  - { offset: 0x4DAA5, size: 0x8, addend: 0x0, symName: '__ZN4core3ptr73drop_in_place$LT$alloc..vec..Vec$LT$addr2line..line..LineSequence$GT$$GT$17h677f3e6952565af2E', symObjAddr: 0x26D0C, symBinAddr: 0x10002E94C, symSize: 0x84 }
  - { offset: 0x4DBFD, size: 0x8, addend: 0x0, symName: '__ZN4core3ptr77drop_in_place$LT$alloc..boxed..Box$LT$$u5b$alloc..string..String$u5d$$GT$$GT$17h78b274672de7575aE', symObjAddr: 0x26DC8, symBinAddr: 0x10002E9D0, symSize: 0x70 }
  - { offset: 0x4DC14, size: 0x8, addend: 0x0, symName: '__ZN4core3ptr77drop_in_place$LT$alloc..boxed..Box$LT$$u5b$alloc..string..String$u5d$$GT$$GT$17h78b274672de7575aE', symObjAddr: 0x26DC8, symBinAddr: 0x10002E9D0, symSize: 0x70 }
  - { offset: 0x4DD12, size: 0x8, addend: 0x0, symName: '__ZN4core3ptr78drop_in_place$LT$core..result..Result$LT$usize$C$std..io..error..Error$GT$$GT$17hc6788729ea2462fdE', symObjAddr: 0x26E38, symBinAddr: 0x10002EA40, symSize: 0x10 }
  - { offset: 0x4DD26, size: 0x8, addend: 0x0, symName: '__ZN4core3ptr79drop_in_place$LT$std..sync..poison..rwlock..RwLockReadGuard$LT$$LP$$RP$$GT$$GT$17ha956672fedf200a4E', symObjAddr: 0x26E48, symBinAddr: 0x10002EA50, symSize: 0x58 }
  - { offset: 0x4DDC2, size: 0x8, addend: 0x0, symName: '__ZN4core3ptr81drop_in_place$LT$core..result..Result$LT$$LP$$RP$$C$std..io..error..Error$GT$$GT$17h655ff33c339b6cb1E', symObjAddr: 0x26F48, symBinAddr: 0x10002EAA8, symSize: 0x10 }
  - { offset: 0x4DDF2, size: 0x8, addend: 0x0, symName: '__ZN4core3ptr81drop_in_place$LT$std..sys..process..unix..common..cstring_array..CStringArray$GT$17h515599651e1fa0b6E', symObjAddr: 0x26F58, symBinAddr: 0x10002EAB8, symSize: 0xD0 }
  - { offset: 0x4E13A, size: 0x8, addend: 0x0, symName: '__ZN4core3ptr82drop_in_place$LT$alloc..sync..ArcInner$LT$std..sys..fs..unix..InnerReadDir$GT$$GT$17hef996e0988305eb0E', symObjAddr: 0x27028, symBinAddr: 0x10002EB88, symSize: 0x60 }
  - { offset: 0x4E2DD, size: 0x8, addend: 0x0, symName: '__ZN4core3ptr84drop_in_place$LT$$LP$std..ffi..os_str..OsString$C$std..ffi..os_str..OsString$RP$$GT$17ha887c41ca18d2aecE', symObjAddr: 0x27088, symBinAddr: 0x10002EBE8, symSize: 0x4C }
  - { offset: 0x4E42A, size: 0x8, addend: 0x0, symName: '__ZN4core3ptr90drop_in_place$LT$std..io..buffered..bufwriter..BufWriter$LT$W$GT$..flush_buf..BufGuard$GT$17h43652e1c305a1ff2E', symObjAddr: 0x27110, symBinAddr: 0x10002EC34, symSize: 0x5C }
  - { offset: 0x4E5B1, size: 0x8, addend: 0x0, symName: '__ZN4core3ptr92drop_in_place$LT$core..result..Result$LT$addr2line..line..Lines$C$gimli..read..Error$GT$$GT$17ha1897ab6fc371eb0E', symObjAddr: 0x271BC, symBinAddr: 0x10002EC90, symSize: 0xE4 }
  - { offset: 0x4E7F7, size: 0x8, addend: 0x0, symName: '__ZN4core3ptr93drop_in_place$LT$core..option..Option$LT$std..backtrace_rs..symbolize..gimli..Mapping$GT$$GT$17hd2c3071a4d1fdf1cE', symObjAddr: 0x272A0, symBinAddr: 0x10002ED74, symSize: 0x6C }
  - { offset: 0x4E886, size: 0x8, addend: 0x0, symName: '__ZN4core3ptr95drop_in_place$LT$std..io..buffered..linewriter..LineWriter$LT$std..io..stdio..StdoutRaw$GT$$GT$17hcbf77a70a86af71fE', symObjAddr: 0x2730C, symBinAddr: 0x10002EDE0, symSize: 0xF8 }
  - { offset: 0x50A9F, size: 0x8, addend: 0x0, symName: __ZN4core5panic12PanicPayload6as_str17h1071335dd01dc3a9E, symObjAddr: 0x2A418, symBinAddr: 0x10002F004, symSize: 0x8 }
  - { offset: 0x5130E, size: 0x8, addend: 0x0, symName: '__ZN70_$LT$core..num..error..TryFromIntError$u20$as$u20$core..fmt..Debug$GT$3fmt17h14ce7830233a5c8dE', symObjAddr: 0x46EFC, symBinAddr: 0x100042D5C, symSize: 0x40 }
  - { offset: 0x52F45, size: 0x8, addend: 0x0, symName: __ZN4core5slice4sort8unstable7ipnsort17h5d7543a75d941cffE, symObjAddr: 0x310D0, symBinAddr: 0x100035CBC, symSize: 0xEC }
  - { offset: 0x53087, size: 0x8, addend: 0x0, symName: __ZN4core5slice4sort8unstable7ipnsort17h62c8a47683a638f3E, symObjAddr: 0x311BC, symBinAddr: 0x100035DA8, symSize: 0x1A8 }
  - { offset: 0x53362, size: 0x8, addend: 0x0, symName: __ZN4core5slice4sort8unstable8heapsort8heapsort17h301a034dfcc890faE, symObjAddr: 0x31364, symBinAddr: 0x100035F50, symSize: 0x100 }
  - { offset: 0x5355E, size: 0x8, addend: 0x0, symName: __ZN4core5slice4sort8unstable8heapsort8heapsort17h5ff97107d3f154adE, symObjAddr: 0x31464, symBinAddr: 0x100036050, symSize: 0x160 }
  - { offset: 0x53902, size: 0x8, addend: 0x0, symName: __ZN4core5slice4sort8unstable9quicksort9quicksort17h0ba40b7285a59f52E, symObjAddr: 0x315C4, symBinAddr: 0x1000361B0, symSize: 0x3F8 }
  - { offset: 0x541C6, size: 0x8, addend: 0x0, symName: __ZN4core5slice4sort8unstable9quicksort9quicksort17h98476d76dc825101E, symObjAddr: 0x319BC, symBinAddr: 0x1000365A8, symSize: 0x578 }
  - { offset: 0x54DD1, size: 0x8, addend: 0x0, symName: __ZN4core5slice4sort6stable14driftsort_main17h7ade04ab22cdd8f2E, symObjAddr: 0x2BCA0, symBinAddr: 0x10003088C, symSize: 0x140 }
  - { offset: 0x55089, size: 0x8, addend: 0x0, symName: __ZN4core5slice4sort6stable14driftsort_main17h7b5faaae84c7cbb7E, symObjAddr: 0x2BDE0, symBinAddr: 0x1000309CC, symSize: 0x140 }
  - { offset: 0x552BF, size: 0x8, addend: 0x0, symName: __ZN4core5slice4sort6stable14driftsort_main17ha9c3ec71caecf83fE, symObjAddr: 0x2BF20, symBinAddr: 0x100030B0C, symSize: 0x140 }
  - { offset: 0x55577, size: 0x8, addend: 0x0, symName: __ZN4core5slice4sort6stable14driftsort_main17had35389d5dd234b1E, symObjAddr: 0x2C060, symBinAddr: 0x100030C4C, symSize: 0x158 }
  - { offset: 0x558A5, size: 0x8, addend: 0x0, symName: __ZN4core5slice4sort6stable14driftsort_main17hda7ba3b19d6fc900E, symObjAddr: 0x2C1B8, symBinAddr: 0x100030DA4, symSize: 0x158 }
  - { offset: 0x55BD3, size: 0x8, addend: 0x0, symName: __ZN4core5slice4sort6stable14driftsort_main17he0ade99dc0cb88f1E, symObjAddr: 0x2C310, symBinAddr: 0x100030EFC, symSize: 0x140 }
  - { offset: 0x5609F, size: 0x8, addend: 0x0, symName: __ZN4core5slice4sort6stable5drift4sort17h085f3b0b9c131daaE, symObjAddr: 0x2C450, symBinAddr: 0x10003103C, symSize: 0x53C }
  - { offset: 0x567A9, size: 0x8, addend: 0x0, symName: __ZN4core5slice4sort6stable5drift4sort17h0b0941fd53d2eb36E, symObjAddr: 0x2C98C, symBinAddr: 0x100031578, symSize: 0x5EC }
  - { offset: 0x56EDB, size: 0x8, addend: 0x0, symName: __ZN4core5slice4sort6stable5drift4sort17h6874b5ff9a1e9842E, symObjAddr: 0x2CF78, symBinAddr: 0x100031B64, symSize: 0x4F4 }
  - { offset: 0x575CF, size: 0x8, addend: 0x0, symName: __ZN4core5slice4sort6stable5drift4sort17hacafb250fe287f02E, symObjAddr: 0x2D46C, symBinAddr: 0x100032058, symSize: 0x4F4 }
  - { offset: 0x57CC3, size: 0x8, addend: 0x0, symName: __ZN4core5slice4sort6stable5drift4sort17hb5c3f298be29b63dE, symObjAddr: 0x2D960, symBinAddr: 0x10003254C, symSize: 0x4D8 }
  - { offset: 0x58323, size: 0x8, addend: 0x0, symName: __ZN4core5slice4sort6stable5drift4sort17hd24339b1ba8572adE, symObjAddr: 0x2DE38, symBinAddr: 0x100032A24, symSize: 0x538 }
  - { offset: 0x58C2A, size: 0x8, addend: 0x0, symName: __ZN4core5slice4sort6stable9quicksort9quicksort17h6b022558501172b1E, symObjAddr: 0x2E370, symBinAddr: 0x100032F5C, symSize: 0x820 }
  - { offset: 0x59C1C, size: 0x8, addend: 0x0, symName: __ZN4core5slice4sort6stable9quicksort9quicksort17h77925009546caf48E, symObjAddr: 0x2EB90, symBinAddr: 0x10003377C, symSize: 0x834 }
  - { offset: 0x5A867, size: 0x8, addend: 0x0, symName: __ZN4core5slice4sort6stable9quicksort9quicksort17h99c833017676aa53E, symObjAddr: 0x2F3C4, symBinAddr: 0x100033FB0, symSize: 0x6D8 }
  - { offset: 0x5B375, size: 0x8, addend: 0x0, symName: __ZN4core5slice4sort6stable9quicksort9quicksort17h9b2801c31f3c9e70E, symObjAddr: 0x2FA9C, symBinAddr: 0x100034688, symSize: 0x810 }
  - { offset: 0x5BFB3, size: 0x8, addend: 0x0, symName: __ZN4core5slice4sort6stable9quicksort9quicksort17ha3ab17a848a79a77E, symObjAddr: 0x302AC, symBinAddr: 0x100034E98, symSize: 0x6E0 }
  - { offset: 0x5CAC1, size: 0x8, addend: 0x0, symName: __ZN4core5slice4sort6stable9quicksort9quicksort17hd0cb711591baa19cE, symObjAddr: 0x3098C, symBinAddr: 0x100035578, symSize: 0x744 }
  - { offset: 0x5D320, size: 0x8, addend: 0x0, symName: __ZN4core5slice4sort6shared9smallsort12sort4_stable17h0da1ce099c210ce9E, symObjAddr: 0x2AB44, symBinAddr: 0x10002F730, symSize: 0x180 }
  - { offset: 0x5D70A, size: 0x8, addend: 0x0, symName: __ZN4core5slice4sort6shared9smallsort12sort4_stable17h139ca5c859589941E, symObjAddr: 0x2ACC4, symBinAddr: 0x10002F8B0, symSize: 0x194 }
  - { offset: 0x5D8EF, size: 0x8, addend: 0x0, symName: __ZN4core5slice4sort6shared9smallsort12sort8_stable17h18703b6069e9c4ebE, symObjAddr: 0x2AE58, symBinAddr: 0x10002FA44, symSize: 0x2B8 }
  - { offset: 0x5DDD8, size: 0x8, addend: 0x0, symName: __ZN4core5slice4sort6shared9smallsort18small_sort_general17h80ae0a6b297f62c8E, symObjAddr: 0x2B110, symBinAddr: 0x10002FCFC, symSize: 0x4A0 }
  - { offset: 0x5E4EB, size: 0x8, addend: 0x0, symName: __ZN4core5slice4sort6shared9smallsort18small_sort_general17haab78fd802d5e9baE, symObjAddr: 0x2B5B0, symBinAddr: 0x10003019C, symSize: 0x408 }
  - { offset: 0x5EA13, size: 0x8, addend: 0x0, symName: __ZN4core5slice4sort6shared9smallsort25insertion_sort_shift_left17h739d96d2d11fa27bE, symObjAddr: 0x2B9B8, symBinAddr: 0x1000305A4, symSize: 0x94 }
  - { offset: 0x5EAEB, size: 0x8, addend: 0x0, symName: __ZN4core5slice4sort6shared9smallsort25insertion_sort_shift_left17hc977fb5c0688bf20E, symObjAddr: 0x2BA4C, symBinAddr: 0x100030638, symSize: 0xB8 }
  - { offset: 0x5EC0B, size: 0x8, addend: 0x0, symName: __ZN4core5slice4sort6shared9smallsort25insertion_sort_shift_left17hcc529bd7abac8e25E, symObjAddr: 0x2BB04, symBinAddr: 0x1000306F0, symSize: 0xF4 }
  - { offset: 0x5EDD1, size: 0x8, addend: 0x0, symName: __ZN4core5slice4sort6shared9smallsort25insertion_sort_shift_left17hdfffd6f60b981efdE, symObjAddr: 0x2BBF8, symBinAddr: 0x1000307E4, symSize: 0xA8 }
  - { offset: 0x5F09B, size: 0x8, addend: 0x0, symName: __ZN4core5slice4sort6shared5pivot11median3_rec17h134b703ff6d407b9E, symObjAddr: 0x2A420, symBinAddr: 0x10002F00C, symSize: 0xCC }
  - { offset: 0x5F1A6, size: 0x8, addend: 0x0, symName: __ZN4core5slice4sort6shared5pivot11median3_rec17h1e6e6b5a8f0d3c9dE, symObjAddr: 0x2A4EC, symBinAddr: 0x10002F0D8, symSize: 0xD0 }
  - { offset: 0x5F2B3, size: 0x8, addend: 0x0, symName: __ZN4core5slice4sort6shared5pivot11median3_rec17h4d263b5d0566d045E, symObjAddr: 0x2A5BC, symBinAddr: 0x10002F1A8, symSize: 0x11C }
  - { offset: 0x5F3C3, size: 0x8, addend: 0x0, symName: __ZN4core5slice4sort6shared5pivot11median3_rec17h6d7ff4f508e12b82E, symObjAddr: 0x2A6D8, symBinAddr: 0x10002F2C4, symSize: 0xD0 }
  - { offset: 0x5F4CE, size: 0x8, addend: 0x0, symName: __ZN4core5slice4sort6shared5pivot11median3_rec17h988b88348782b889E, symObjAddr: 0x2A7A8, symBinAddr: 0x10002F394, symSize: 0xD0 }
  - { offset: 0x5F5D9, size: 0x8, addend: 0x0, symName: __ZN4core5slice4sort6shared5pivot11median3_rec17hb44c311f8a001b16E, symObjAddr: 0x2A878, symBinAddr: 0x10002F464, symSize: 0x134 }
  - { offset: 0x5F814, size: 0x8, addend: 0x0, symName: __ZN4core5slice4sort6shared5pivot11median3_rec17hd942f779595c303fE, symObjAddr: 0x2A9AC, symBinAddr: 0x10002F598, symSize: 0xCC }
  - { offset: 0x5F91F, size: 0x8, addend: 0x0, symName: __ZN4core5slice4sort6shared5pivot11median3_rec17hdd0991ed80ab6e2dE, symObjAddr: 0x2AA78, symBinAddr: 0x10002F664, symSize: 0xCC }
  - { offset: 0x5FB57, size: 0x8, addend: 0x0, symName: '__ZN55_$LT$$RF$str$u20$as$u20$core..str..pattern..Pattern$GT$15is_contained_in17hc0a7ac267447aa23E', symObjAddr: 0x32C18, symBinAddr: 0x100036B38, symSize: 0x3C0 }
  - { offset: 0x618CC, size: 0x8, addend: 0x0, symName: '__ZN4core3ops8function6FnOnce40call_once$u7b$$u7b$vtable.shim$u7d$$u7d$17h08bb94a3fe447d9cE', symObjAddr: 0x246FC, symBinAddr: 0x10002CE94, symSize: 0xC }
  - { offset: 0x6191D, size: 0x8, addend: 0x0, symName: '__ZN4core3ops8function6FnOnce40call_once$u7b$$u7b$vtable.shim$u7d$$u7d$17h26c3c42f9f96ed46E', symObjAddr: 0x24730, symBinAddr: 0x10002CEA0, symSize: 0x98 }
  - { offset: 0x61A63, size: 0x8, addend: 0x0, symName: '__ZN4core3ops8function6FnOnce40call_once$u7b$$u7b$vtable.shim$u7d$$u7d$17h38e4241864c84f10E', symObjAddr: 0x247C8, symBinAddr: 0x10002CF38, symSize: 0x4 }
  - { offset: 0x61A80, size: 0x8, addend: 0x0, symName: '__ZN4core3ops8function6FnOnce40call_once$u7b$$u7b$vtable.shim$u7d$$u7d$17h38e4241864c84f10E', symObjAddr: 0x247C8, symBinAddr: 0x10002CF38, symSize: 0x4 }
  - { offset: 0x61A9F, size: 0x8, addend: 0x0, symName: '__ZN4core3ops8function6FnOnce40call_once$u7b$$u7b$vtable.shim$u7d$$u7d$17h3e7eda628a394e10E', symObjAddr: 0x247CC, symBinAddr: 0x10002CF3C, symSize: 0x60 }
  - { offset: 0x61B83, size: 0x8, addend: 0x0, symName: '__ZN4core3ops8function6FnOnce40call_once$u7b$$u7b$vtable.shim$u7d$$u7d$17h4e80488631bce74bE', symObjAddr: 0x2482C, symBinAddr: 0x10002CF9C, symSize: 0xC }
  - { offset: 0x61BD4, size: 0x8, addend: 0x0, symName: '__ZN4core3ops8function6FnOnce40call_once$u7b$$u7b$vtable.shim$u7d$$u7d$17h57a7baf643098919E', symObjAddr: 0x24838, symBinAddr: 0x10002CFA8, symSize: 0x4 }
  - { offset: 0x61BF1, size: 0x8, addend: 0x0, symName: '__ZN4core3ops8function6FnOnce40call_once$u7b$$u7b$vtable.shim$u7d$$u7d$17h57a7baf643098919E', symObjAddr: 0x24838, symBinAddr: 0x10002CFA8, symSize: 0x4 }
  - { offset: 0x61C10, size: 0x8, addend: 0x0, symName: '__ZN4core3ops8function6FnOnce40call_once$u7b$$u7b$vtable.shim$u7d$$u7d$17h5f2b35dd19b33620E', symObjAddr: 0x2483C, symBinAddr: 0x10002CFAC, symSize: 0x28 }
  - { offset: 0x61C4C, size: 0x8, addend: 0x0, symName: '__ZN4core3ops8function6FnOnce40call_once$u7b$$u7b$vtable.shim$u7d$$u7d$17h7c3cb17ef918f233E', symObjAddr: 0x24864, symBinAddr: 0x10002CFD4, symSize: 0x78 }
  - { offset: 0x61EC7, size: 0x8, addend: 0x0, symName: __ZN4core3ops8function2Fn4call17ha669e0e6e18306f7E, symObjAddr: 0x244FC, symBinAddr: 0x10002CDB0, symSize: 0x38 }
  - { offset: 0x61F5D, size: 0x8, addend: 0x0, symName: __ZN4core3ops8function2Fn4call17hc367fc34581829abE, symObjAddr: 0x245D8, symBinAddr: 0x10002CDE8, symSize: 0xAC }
  - { offset: 0x62D65, size: 0x8, addend: 0x0, symName: '__ZN36_$LT$T$u20$as$u20$core..any..Any$GT$7type_id17ha81a52e3b43c77a4E', symObjAddr: 0x1028, symBinAddr: 0x10001C7E4, symSize: 0x14 }
  - { offset: 0x62D82, size: 0x8, addend: 0x0, symName: '__ZN36_$LT$T$u20$as$u20$core..any..Any$GT$7type_id17ha81a52e3b43c77a4E', symObjAddr: 0x1028, symBinAddr: 0x10001C7E4, symSize: 0x14 }
  - { offset: 0x62D94, size: 0x8, addend: 0x0, symName: '__ZN36_$LT$T$u20$as$u20$core..any..Any$GT$7type_id17hb44d4c6033683273E', symObjAddr: 0x103C, symBinAddr: 0x10001C7F8, symSize: 0x14 }
  - { offset: 0x62DB1, size: 0x8, addend: 0x0, symName: '__ZN36_$LT$T$u20$as$u20$core..any..Any$GT$7type_id17hb44d4c6033683273E', symObjAddr: 0x103C, symBinAddr: 0x10001C7F8, symSize: 0x14 }
  - { offset: 0x63CAC, size: 0x8, addend: 0x0, symName: '__ZN4core5array69_$LT$impl$u20$core..fmt..Debug$u20$for$u20$$u5b$T$u3b$$u20$N$u5d$$GT$3fmt17hd123162ab8102d2aE', symObjAddr: 0x2A2BC, symBinAddr: 0x10002EED8, symSize: 0xFC }
  - { offset: 0x63DD2, size: 0x8, addend: 0x0, symName: '__ZN4core4cell4once17OnceCell$LT$T$GT$8try_init17h096ee8d6ab5f9ab5E', symObjAddr: 0x27404, symBinAddr: 0x1000559C0, symSize: 0x640 }
  - { offset: 0x64988, size: 0x8, addend: 0x0, symName: '__ZN4core4cell4once17OnceCell$LT$T$GT$8try_init17h0fe3646e0b88f6ceE', symObjAddr: 0x27A44, symBinAddr: 0x100056000, symSize: 0x80 }
  - { offset: 0x64A3B, size: 0x8, addend: 0x0, symName: '__ZN4core4cell4once17OnceCell$LT$T$GT$8try_init17h4233e7fefa30ef91E', symObjAddr: 0x27AC4, symBinAddr: 0x100056080, symSize: 0x1A64 }
  - { offset: 0x67E97, size: 0x8, addend: 0x0, symName: '__ZN4core4cell4once17OnceCell$LT$T$GT$8try_init17hc6312a19a1a77d35E', symObjAddr: 0x29528, symBinAddr: 0x100057AE4, symSize: 0xC24 }
  - { offset: 0x697F4, size: 0x8, addend: 0x0, symName: '__ZN4core4cell4once17OnceCell$LT$T$GT$8try_init17hcb2a62d93e38dee1E', symObjAddr: 0x2A14C, symBinAddr: 0x100058708, symSize: 0x60 }
  - { offset: 0x69812, size: 0x8, addend: 0x0, symName: '__ZN4core4cell4once17OnceCell$LT$T$GT$8try_init17hcb2a62d93e38dee1E', symObjAddr: 0x2A14C, symBinAddr: 0x100058708, symSize: 0x60 }
  - { offset: 0x69827, size: 0x8, addend: 0x0, symName: '__ZN4core4cell4once17OnceCell$LT$T$GT$8try_init17hcb2a62d93e38dee1E', symObjAddr: 0x2A14C, symBinAddr: 0x100058708, symSize: 0x60 }
  - { offset: 0x6983B, size: 0x8, addend: 0x0, symName: '__ZN4core4cell4once17OnceCell$LT$T$GT$8try_init17hcb2a62d93e38dee1E', symObjAddr: 0x2A14C, symBinAddr: 0x100058708, symSize: 0x60 }
  - { offset: 0x69892, size: 0x8, addend: 0x0, symName: '__ZN4core4cell4once17OnceCell$LT$T$GT$8try_init17hf4832393ad19d4f9E', symObjAddr: 0x2A1AC, symBinAddr: 0x100058768, symSize: 0x110 }
  - { offset: 0x6A09E, size: 0x8, addend: 0x0, symName: __ZN4core5error5Error11description17hcf90faf3be666b0fE, symObjAddr: 0x2A3C8, symBinAddr: 0x10002EFD4, symSize: 0x10 }
  - { offset: 0x6A0B9, size: 0x8, addend: 0x0, symName: __ZN4core5error5Error5cause17h9d8e707b615b1dccE, symObjAddr: 0x2A3D8, symBinAddr: 0x10002EFE4, symSize: 0x8 }
  - { offset: 0x6A0D4, size: 0x8, addend: 0x0, symName: __ZN4core5error5Error7provide17hf6f11971797fe577E, symObjAddr: 0x2A3EC, symBinAddr: 0x10002EFEC, symSize: 0x4 }
  - { offset: 0x6A0EF, size: 0x8, addend: 0x0, symName: __ZN4core5error5Error7type_id17hcfbfefb73a50f493E, symObjAddr: 0x2A404, symBinAddr: 0x10002EFF0, symSize: 0x14 }
  - { offset: 0x6A10E, size: 0x8, addend: 0x0, symName: __ZN4core5error5Error7type_id17hcfbfefb73a50f493E, symObjAddr: 0x2A404, symBinAddr: 0x10002EFF0, symSize: 0x14 }
  - { offset: 0x6A128, size: 0x8, addend: 0x0, symName: __ZN4core9panicking13assert_failed17h19670db3f6693dadE, symObjAddr: 0x31F34, symBinAddr: 0x100058878, symSize: 0x34 }
  - { offset: 0x6A144, size: 0x8, addend: 0x0, symName: __ZN4core9panicking13assert_failed17h380ae13b39a456adE, symObjAddr: 0x31F68, symBinAddr: 0x1000588AC, symSize: 0x24 }
  - { offset: 0x6A16C, size: 0x8, addend: 0x0, symName: __RNvCskdKJRKLKjqM_7___rustc10rust_panic, symObjAddr: 0x0, symBinAddr: 0x100054CD8, symSize: 0x60 }
  - { offset: 0x6A19D, size: 0x8, addend: 0x0, symName: __RNvCskdKJRKLKjqM_7___rustc17___rust_drop_panic, symObjAddr: 0x1B0, symBinAddr: 0x10001C440, symSize: 0xBC }
  - { offset: 0x6A392, size: 0x8, addend: 0x0, symName: __RNvCskdKJRKLKjqM_7___rustc17rust_begin_unwind, symObjAddr: 0x26C, symBinAddr: 0x10001C4FC, symSize: 0x20 }
  - { offset: 0x6A3C3, size: 0x8, addend: 0x0, symName: __RNvCskdKJRKLKjqM_7___rustc24___rust_foreign_exception, symObjAddr: 0x31C, symBinAddr: 0x10001C5AC, symSize: 0xBC }
  - { offset: 0x6A636, size: 0x8, addend: 0x0, symName: __ZN3std9panicking11panic_count17is_zero_slow_path17h24290651bb572e96E, symObjAddr: 0x21B78, symBinAddr: 0x100055994, symSize: 0x2C }
  - { offset: 0x6A6E5, size: 0x8, addend: 0x0, symName: __ZN3std9panicking11panic_count8increase17h90668b12758c90deE, symObjAddr: 0x21C08, symBinAddr: 0x10002B8A8, symSize: 0x64 }
  - { offset: 0x6A6FC, size: 0x8, addend: 0x0, symName: __ZN3std9panicking11panic_count8increase17h90668b12758c90deE, symObjAddr: 0x21C08, symBinAddr: 0x10002B8A8, symSize: 0x64 }
  - { offset: 0x6A711, size: 0x8, addend: 0x0, symName: __ZN3std9panicking11panic_count8increase17h90668b12758c90deE, symObjAddr: 0x21C08, symBinAddr: 0x10002B8A8, symSize: 0x64 }
  - { offset: 0x6A8BD, size: 0x8, addend: 0x0, symName: __ZN3std9panicking12default_hook17hff9145c2c6e89cdfE, symObjAddr: 0x21CD0, symBinAddr: 0x10002B90C, symSize: 0x13C }
  - { offset: 0x6AA4A, size: 0x8, addend: 0x0, symName: '__ZN3std9panicking12default_hook28_$u7b$$u7b$closure$u7d$$u7d$17hbcaf474e707f3b7dE', symObjAddr: 0x21E0C, symBinAddr: 0x10002BA48, symSize: 0x19C }
  - { offset: 0x6AC21, size: 0x8, addend: 0x0, symName: '__ZN3std9panicking12default_hook28_$u7b$$u7b$closure$u7d$$u7d$28_$u7b$$u7b$closure$u7d$$u7d$17he4e4856f72e7e2dfE', symObjAddr: 0x21FA8, symBinAddr: 0x10002BBE4, symSize: 0x314 }
  - { offset: 0x6B24E, size: 0x8, addend: 0x0, symName: __ZN3std9panicking13panic_handler19FormatStringPayload4fill17h49f06b785e976a61E, symObjAddr: 0x222BC, symBinAddr: 0x10002BEF8, symSize: 0xB8 }
  - { offset: 0x6B36B, size: 0x8, addend: 0x0, symName: '__ZN3std9panicking13panic_handler28_$u7b$$u7b$closure$u7d$$u7d$17h42f8d27eb97efb5cE', symObjAddr: 0x22374, symBinAddr: 0x10002BFB0, symSize: 0xC0 }
  - { offset: 0x6B4C7, size: 0x8, addend: 0x0, symName: '__ZN86_$LT$std..panicking..panic_handler..StaticStrPayload$u20$as$u20$core..fmt..Display$GT$3fmt17h23daa1d361c20ad8E', symObjAddr: 0x4B230, symBinAddr: 0x100043708, symSize: 0x10 }
  - { offset: 0x6B4E8, size: 0x8, addend: 0x0, symName: '__ZN89_$LT$std..panicking..panic_handler..FormatStringPayload$u20$as$u20$core..fmt..Display$GT$3fmt17h96c36f262cceff4fE', symObjAddr: 0x4B5E4, symBinAddr: 0x100043718, symSize: 0x6C }
  - { offset: 0x6B5DC, size: 0x8, addend: 0x0, symName: '__ZN93_$LT$std..panicking..panic_handler..StaticStrPayload$u20$as$u20$core..panic..PanicPayload$GT$3get17h9446d3bfcd75a0d7E', symObjAddr: 0x4BC54, symBinAddr: 0x1000437EC, symSize: 0xC }
  - { offset: 0x6B5F7, size: 0x8, addend: 0x0, symName: '__ZN93_$LT$std..panicking..panic_handler..StaticStrPayload$u20$as$u20$core..panic..PanicPayload$GT$6as_str17hdc3733a5b5cc28baE', symObjAddr: 0x4BC60, symBinAddr: 0x1000437F8, symSize: 0xC }
  - { offset: 0x6B612, size: 0x8, addend: 0x0, symName: '__ZN93_$LT$std..panicking..panic_handler..StaticStrPayload$u20$as$u20$core..panic..PanicPayload$GT$8take_box17h6400803d1e475458E', symObjAddr: 0x4BC6C, symBinAddr: 0x100043804, symSize: 0x48 }
  - { offset: 0x6B68F, size: 0x8, addend: 0x0, symName: '__ZN96_$LT$std..panicking..panic_handler..FormatStringPayload$u20$as$u20$core..panic..PanicPayload$GT$3get17he69c34545aa12e4dE', symObjAddr: 0x4C2D4, symBinAddr: 0x100043BAC, symSize: 0x1C }
  - { offset: 0x6B6AA, size: 0x8, addend: 0x0, symName: '__ZN96_$LT$std..panicking..panic_handler..FormatStringPayload$u20$as$u20$core..panic..PanicPayload$GT$8take_box17hb2deabfa34b702e6E', symObjAddr: 0x4C2F0, symBinAddr: 0x100043BC8, symSize: 0x8C }
  - { offset: 0x6B7FC, size: 0x8, addend: 0x0, symName: __ZN3std9panicking14payload_as_str17ha2e19316e5057f13E, symObjAddr: 0x224EC, symBinAddr: 0x10002C070, symSize: 0xC8 }
  - { offset: 0x6B941, size: 0x8, addend: 0x0, symName: __ZN3std9panicking15panic_with_hook17he6431e171a67d1a5E, symObjAddr: 0x225B4, symBinAddr: 0x10002C138, symSize: 0x390 }
  - { offset: 0x6C1F2, size: 0x8, addend: 0x0, symName: '__ZN102_$LT$std..sys..process..unix..common..cstring_array..CStringArray$u20$as$u20$core..ops..drop..Drop$GT$4drop17hee720c09383e4bd2E', symObjAddr: 0x3F0, symBinAddr: 0x10001C668, symSize: 0x6C }
  - { offset: 0x6C438, size: 0x8, addend: 0x0, symName: '__ZN3std3sys7process4unix4unix58_$LT$impl$u20$std..sys..process..unix..common..Command$GT$5spawn17hfcbbc52437fe5f4aE', symObjAddr: 0x18DCC, symBinAddr: 0x100027934, symSize: 0x95C }
  - { offset: 0x6D50E, size: 0x8, addend: 0x0, symName: '__ZN3std3sys7process4unix4unix58_$LT$impl$u20$std..sys..process..unix..common..Command$GT$7do_exec17h26b1e14ede09e6b2E', symObjAddr: 0x19728, symBinAddr: 0x100028290, symSize: 0x32C }
  - { offset: 0x6DCD7, size: 0x8, addend: 0x0, symName: __ZN3std3sys7process4unix6common7Command11capture_env17h8b4259b5459d513fE, symObjAddr: 0x19C2C, symBinAddr: 0x100028794, symSize: 0xB98 }
  - { offset: 0x6FF90, size: 0x8, addend: 0x0, symName: __ZN3std3sys7process4unix6common7Command3arg17h5808cfe571359bb4E, symObjAddr: 0x1A7C4, symBinAddr: 0x10002932C, symSize: 0xEC }
  - { offset: 0x702A8, size: 0x8, addend: 0x0, symName: __ZN3std3sys7process4unix6common7Command3new17h311354af76aefa00E, symObjAddr: 0x1A984, symBinAddr: 0x100029418, symSize: 0x288 }
  - { offset: 0x70802, size: 0x8, addend: 0x0, symName: __ZN3std3sys7process4unix6common7Command5stdin17h448253bc41ef699eE, symObjAddr: 0x1AC0C, symBinAddr: 0x1000296A0, symSize: 0x44 }
  - { offset: 0x7088B, size: 0x8, addend: 0x0, symName: __ZN3std3sys7process4unix6common7Command8setup_io17hfff349106e5eb2d7E, symObjAddr: 0x1AE48, symBinAddr: 0x1000296E4, symSize: 0x2F8 }
  - { offset: 0x70CE1, size: 0x8, addend: 0x0, symName: __ZN3std3sys7process4unix6common5Stdio14to_child_stdio17hf579c16cd28b5667E, symObjAddr: 0x19AF0, symBinAddr: 0x100028658, symSize: 0x13C }
  - { offset: 0x70EC4, size: 0x8, addend: 0x0, symName: __ZN3std3sys7process4unix4unix7Process4wait17h3cbedff82d34e9e8E, symObjAddr: 0x19A54, symBinAddr: 0x1000285BC, symSize: 0x9C }
  - { offset: 0x70FB2, size: 0x8, addend: 0x0, symName: '__ZN78_$LT$std..sys..process..unix..unix..ExitStatus$u20$as$u20$core..fmt..Debug$GT$3fmt17hef65732122dd0572E', symObjAddr: 0x4925C, symBinAddr: 0x100042F28, symSize: 0x58 }
  - { offset: 0x710DC, size: 0x8, addend: 0x0, symName: __ZN3std3sys3pal6common14small_c_string24run_with_cstr_allocating17h01520fb25fef5bcfE, symObjAddr: 0x169E0, symBinAddr: 0x100054FA8, symSize: 0xC0 }
  - { offset: 0x712A5, size: 0x8, addend: 0x0, symName: __ZN3std3sys3pal6common14small_c_string24run_with_cstr_allocating17h69a59f6bdb3cfdadE, symObjAddr: 0x16AA0, symBinAddr: 0x100055068, symSize: 0xBC }
  - { offset: 0x71481, size: 0x8, addend: 0x0, symName: __ZN3std3sys3pal6common14small_c_string24run_with_cstr_allocating17h798411b79b11fd56E, symObjAddr: 0x16B5C, symBinAddr: 0x100055124, symSize: 0xA4 }
  - { offset: 0x715D8, size: 0x8, addend: 0x0, symName: __ZN3std3sys3pal6common14small_c_string24run_with_cstr_allocating17h99e236d7e8506142E, symObjAddr: 0x16C00, symBinAddr: 0x1000551C8, symSize: 0xB4 }
  - { offset: 0x717A1, size: 0x8, addend: 0x0, symName: __ZN3std3sys3pal6common14small_c_string24run_with_cstr_allocating17hee1175bf1c9e834cE, symObjAddr: 0x16EFC, symBinAddr: 0x10005527C, symSize: 0xC0 }
  - { offset: 0x719AF, size: 0x8, addend: 0x0, symName: __ZN3std3sys3pal4unix14stack_overflow11thread_info16set_current_info17h02534502962db8e5E, symObjAddr: 0x14D00, symBinAddr: 0x100025BE8, symSize: 0x950 }
  - { offset: 0x72D4A, size: 0x8, addend: 0x0, symName: __ZN3std3sys3pal4unix14stack_overflow3imp12drop_handler17hc9fb2befc4b4b16bE, symObjAddr: 0x15650, symBinAddr: 0x100026538, symSize: 0x3A4 }
  - { offset: 0x7358A, size: 0x8, addend: 0x0, symName: __ZN3std3sys3pal4unix14stack_overflow3imp12make_handler17h894f5618496a4a4dE, symObjAddr: 0x159F4, symBinAddr: 0x1000268DC, symSize: 0x234 }
  - { offset: 0x7394D, size: 0x8, addend: 0x0, symName: __ZN3std3sys3pal4unix14stack_overflow3imp14signal_handler17h7e8c2c206c160b5eE, symObjAddr: 0x15C28, symBinAddr: 0x100026B10, symSize: 0x2A8 }
  - { offset: 0x73FA2, size: 0x8, addend: 0x0, symName: __ZN3std3sys3pal4unix4sync5mutex5Mutex4init17h3dc7e68cdddb15ffE, symObjAddr: 0x16564, symBinAddr: 0x1000272AC, symSize: 0x16C }
  - { offset: 0x74073, size: 0x8, addend: 0x0, symName: __ZN3std3sys3pal4unix4sync5mutex5Mutex4lock4fail17h626389f0d772d537E, symObjAddr: 0x166EC, symBinAddr: 0x100054EC4, symSize: 0xE4 }
  - { offset: 0x7433D, size: 0x8, addend: 0x0, symName: __ZN3std3sys3pal4unix14abort_internal17h8d76cac37bc1e660E, symObjAddr: 0x14CF4, symBinAddr: 0x100054EB8, symSize: 0xC }
  - { offset: 0x74358, size: 0x8, addend: 0x0, symName: __ZN3std3sys3pal4unix17decode_error_kind17hb6d24ea5e3e2f6a1E, symObjAddr: 0x15ED0, symBinAddr: 0x100026DB8, symSize: 0x150 }
  - { offset: 0x743AA, size: 0x8, addend: 0x0, symName: __ZN3std3sys3pal4unix4pipe5read217hebc7a8d2c573a493E, symObjAddr: 0x161C0, symBinAddr: 0x100026F08, symSize: 0x22C }
  - { offset: 0x747A8, size: 0x8, addend: 0x0, symName: __ZN3std3sys3pal4unix4pipe8AnonPipe5write17h29011c4a1bb3d17eE, symObjAddr: 0x163EC, symBinAddr: 0x100027134, symSize: 0x50 }
  - { offset: 0x7489F, size: 0x8, addend: 0x0, symName: __ZN3std3sys3pal4unix4pipe9anon_pipe17h8d6a328f4fe59a7fE, symObjAddr: 0x1643C, symBinAddr: 0x100027184, symSize: 0x128 }
  - { offset: 0x74C14, size: 0x8, addend: 0x0, symName: __ZN3std3sys12thread_local6native5eager7destroy17h30ed59e6126037efE, symObjAddr: 0xF88C, symBinAddr: 0x1000250FC, symSize: 0x2C }
  - { offset: 0x74DAA, size: 0x8, addend: 0x0, symName: __ZN3std3sys12thread_local5guard5apple6enable9run_dtors17h8979e0b3d1187c7fE, symObjAddr: 0xF794, symBinAddr: 0x100025004, symSize: 0xF8 }
  - { offset: 0x7527F, size: 0x8, addend: 0x0, symName: __ZN3std3sys12thread_local11destructors4list8register17he85c11a1c2ed5827E, symObjAddr: 0xF67C, symBinAddr: 0x100024EEC, symSize: 0x118 }
  - { offset: 0x755E5, size: 0x8, addend: 0x0, symName: __ZN3std3sys3env4unix13env_read_lock17h0f43be51d1951982E, symObjAddr: 0x1398C, symBinAddr: 0x100025870, symSize: 0x230 }
  - { offset: 0x75CCF, size: 0x8, addend: 0x0, symName: '__ZN3std3sys3env4unix6getenv28_$u7b$$u7b$closure$u7d$$u7d$17h8142d75fd75589c4E', symObjAddr: 0x13BBC, symBinAddr: 0x100025AA0, symSize: 0x148 }
  - { offset: 0x75FB8, size: 0x8, addend: 0x0, symName: __ZN3std3sys2fs4unix4File6open_c17h8b4308debc18b247E, symObjAddr: 0x12348, symBinAddr: 0x10002540C, symSize: 0x1A0 }
  - { offset: 0x76157, size: 0x8, addend: 0x0, symName: '__ZN65_$LT$std..sys..fs..unix..Dir$u20$as$u20$core..ops..drop..Drop$GT$4drop17hb27d2dcfbde0f4f8E', symObjAddr: 0x45A50, symBinAddr: 0x100042428, symSize: 0xC8 }
  - { offset: 0x76236, size: 0x8, addend: 0x0, symName: __ZN3std3sys2fs11remove_file17hfa3107bb92c5bbc0E, symObjAddr: 0x113E0, symBinAddr: 0x10002534C, symSize: 0xC0 }
  - { offset: 0x76361, size: 0x8, addend: 0x0, symName: __ZN3std3sys2fs8metadata17hba24bf03335a0e2eE, symObjAddr: 0x133D8, symBinAddr: 0x1000255AC, symSize: 0x128 }
  - { offset: 0x764C8, size: 0x8, addend: 0x0, symName: __ZN3std3sys2fs8read_dir17h01b537fe6e853e47E, symObjAddr: 0x13500, symBinAddr: 0x1000256D4, symSize: 0x19C }
  - { offset: 0x768C5, size: 0x8, addend: 0x0, symName: __ZN3std3sys6os_str5bytes5Slice21check_public_boundary9slow_path17hdcd3adb59a94e82dE, symObjAddr: 0x1829C, symBinAddr: 0x100027788, symSize: 0x13C }
  - { offset: 0x76ABE, size: 0x8, addend: 0x0, symName: __ZN3std3sys2fd4unix8FileDesc11read_to_end17h90678055a872cb01E, symObjAddr: 0x10B8C, symBinAddr: 0x100025128, symSize: 0x224 }
  - { offset: 0x76F57, size: 0x8, addend: 0x0, symName: '__ZN64_$LT$std..sys..stdio..unix..Stderr$u20$as$u20$std..io..Write$GT$14write_vectored17hc6a0fe94280856b7E', symObjAddr: 0x457B4, symBinAddr: 0x100042370, symSize: 0x54 }
  - { offset: 0x7702D, size: 0x8, addend: 0x0, symName: '__ZN64_$LT$std..sys..stdio..unix..Stderr$u20$as$u20$std..io..Write$GT$17is_write_vectored17ha5fe1632aa356e69E', symObjAddr: 0x45808, symBinAddr: 0x1000423C4, symSize: 0x8 }
  - { offset: 0x77047, size: 0x8, addend: 0x0, symName: '__ZN64_$LT$std..sys..stdio..unix..Stderr$u20$as$u20$std..io..Write$GT$5flush17h9c44c0bc84723652E', symObjAddr: 0x45810, symBinAddr: 0x1000423CC, symSize: 0x8 }
  - { offset: 0x77061, size: 0x8, addend: 0x0, symName: '__ZN64_$LT$std..sys..stdio..unix..Stderr$u20$as$u20$std..io..Write$GT$5write17hb65269e8ba794fd5E', symObjAddr: 0x45818, symBinAddr: 0x1000423D4, symSize: 0x54 }
  - { offset: 0x771C2, size: 0x8, addend: 0x0, symName: '__ZN3std3sys4sync8once_box16OnceBox$LT$T$GT$10initialize17hb710239f2ab0be2bE', symObjAddr: 0x18054, symBinAddr: 0x1000555D4, symSize: 0xE4 }
  - { offset: 0x7749E, size: 0x8, addend: 0x0, symName: __ZN3std3sys4sync4once5queue4Once4call17hd1bb46051256f23fE, symObjAddr: 0x1736C, symBinAddr: 0x10005533C, symSize: 0x218 }
  - { offset: 0x77780, size: 0x8, addend: 0x0, symName: '__ZN82_$LT$std..sys..sync..once..queue..WaiterQueue$u20$as$u20$core..ops..drop..Drop$GT$4drop17h7f1d4befd79eb70eE', symObjAddr: 0x4AD40, symBinAddr: 0x100043628, symSize: 0xE0 }
  - { offset: 0x77977, size: 0x8, addend: 0x0, symName: __ZN3std3sys4sync4once5queue4wait17hfd76cbd9a064ab39E, symObjAddr: 0x17764, symBinAddr: 0x100027418, symSize: 0x184 }
  - { offset: 0x77F0C, size: 0x8, addend: 0x0, symName: __ZN3std3sys4sync6rwlock5queue6RwLock12unlock_queue17h6341a139252af1a4E, symObjAddr: 0x178FC, symBinAddr: 0x10002759C, symSize: 0x1CC }
  - { offset: 0x7856E, size: 0x8, addend: 0x0, symName: __ZN3std3sys4sync6rwlock5queue6RwLock16unlock_contended17hd5d9b4bea5b136d5E, symObjAddr: 0x17DC4, symBinAddr: 0x100055554, symSize: 0x40 }
  - { offset: 0x78635, size: 0x8, addend: 0x0, symName: __ZN3std3sys4sync6rwlock5queue6RwLock21read_unlock_contended17hf10ad3e8d16e983dE, symObjAddr: 0x17E04, symBinAddr: 0x100055594, symSize: 0x40 }
  - { offset: 0x78653, size: 0x8, addend: 0x0, symName: __ZN3std3sys4sync6rwlock5queue6RwLock21read_unlock_contended17hf10ad3e8d16e983dE, symObjAddr: 0x17E04, symBinAddr: 0x100055594, symSize: 0x40 }
  - { offset: 0x78668, size: 0x8, addend: 0x0, symName: __ZN3std3sys4sync6rwlock5queue6RwLock21read_unlock_contended17hf10ad3e8d16e983dE, symObjAddr: 0x17E04, symBinAddr: 0x100055594, symSize: 0x40 }
  - { offset: 0x7888D, size: 0x8, addend: 0x0, symName: __ZN3std3sys4sync6rwlock5queue9read_lock17he5ccf40565f845d6E, symObjAddr: 0x17E44, symBinAddr: 0x100027768, symSize: 0x20 }
  - { offset: 0x788A6, size: 0x8, addend: 0x0, symName: '__ZN83_$LT$std..sys..sync..rwlock..queue..PanicGuard$u20$as$u20$core..ops..drop..Drop$GT$4drop17h5297df96adf6f25aE', symObjAddr: 0x4AFC0, symBinAddr: 0x100058A48, symSize: 0x44 }
  - { offset: 0x7896B, size: 0x8, addend: 0x0, symName: '__ZN3std3sys11personality3gcc14find_eh_action28_$u7b$$u7b$closure$u7d$$u7d$17h3ded5c67f5e06d18E', symObjAddr: 0xF51C, symBinAddr: 0x100024D8C, symSize: 0xC }
  - { offset: 0x7897F, size: 0x8, addend: 0x0, symName: '__ZN3std3sys11personality3gcc14find_eh_action28_$u7b$$u7b$closure$u7d$$u7d$17hc6e49a652099b2faE', symObjAddr: 0xF528, symBinAddr: 0x100024D98, symSize: 0xC }
  - { offset: 0x789CB, size: 0x8, addend: 0x0, symName: _rust_eh_personality, symObjAddr: 0x4F004, symBinAddr: 0x100046604, symSize: 0x378 }
  - { offset: 0x78D15, size: 0x8, addend: 0x0, symName: __ZN3std3sys11personality5dwarf2eh19read_encoded_offset17h4247a370d6a78c9aE, symObjAddr: 0xF534, symBinAddr: 0x100024DA4, symSize: 0x148 }
  - { offset: 0x78E79, size: 0x8, addend: 0x0, symName: __ZN3std3sys6random19hashmap_random_keys17hf529b7ed551945bdE, symObjAddr: 0x183D8, symBinAddr: 0x1000278C4, symSize: 0x70 }
  - { offset: 0x78EEC, size: 0x8, addend: 0x0, symName: '__ZN3std3sys9backtrace10_print_fmt28_$u7b$$u7b$closure$u7d$$u7d$17h64c635585236989fE', symObjAddr: 0x1B278, symBinAddr: 0x1000299DC, symSize: 0x24 }
  - { offset: 0x78F15, size: 0x8, addend: 0x0, symName: '__ZN3std3sys9backtrace10_print_fmt28_$u7b$$u7b$closure$u7d$$u7d$17ha7bccce4e6c2a239E', symObjAddr: 0x1B29C, symBinAddr: 0x100029A00, symSize: 0x134 }
  - { offset: 0x79029, size: 0x8, addend: 0x0, symName: '__ZN3std3sys9backtrace10_print_fmt28_$u7b$$u7b$closure$u7d$$u7d$28_$u7b$$u7b$closure$u7d$$u7d$17h98603fdd5adbbfdcE', symObjAddr: 0x1B3D0, symBinAddr: 0x100029B34, symSize: 0x25C }
  - { offset: 0x79246, size: 0x8, addend: 0x0, symName: __ZN3std3sys9backtrace13BacktraceLock5print17hea663f6050de4073E, symObjAddr: 0x1B62C, symBinAddr: 0x100029D90, symSize: 0x54 }
  - { offset: 0x79277, size: 0x8, addend: 0x0, symName: __ZN3std3sys9backtrace15output_filename17h6da850852b2497bfE, symObjAddr: 0x1B680, symBinAddr: 0x100029DE4, symSize: 0xF4 }
  - { offset: 0x793C5, size: 0x8, addend: 0x0, symName: __ZN3std3sys9backtrace26__rust_end_short_backtrace17h0de35f7407a5e0d8E, symObjAddr: 0x1B774, symBinAddr: 0x100029ED8, symSize: 0xC }
  - { offset: 0x793DF, size: 0x8, addend: 0x0, symName: __ZN3std3sys9backtrace4lock17h2199d00fb77a2766E, symObjAddr: 0x1B78C, symBinAddr: 0x100029EE4, symSize: 0x70 }
  - { offset: 0x7954C, size: 0x8, addend: 0x0, symName: '__ZN98_$LT$std..sys..backtrace..BacktraceLock..print..DisplayBacktrace$u20$as$u20$core..fmt..Display$GT$3fmt17hfd528c9d14c1136fE', symObjAddr: 0x4C548, symBinAddr: 0x100043C54, symSize: 0x210 }
  - { offset: 0x79A3D, size: 0x8, addend: 0x0, symName: __RNvCskdKJRKLKjqM_7___rustc11___rdl_alloc, symObjAddr: 0x60, symBinAddr: 0x10001C2FC, symSize: 0x6C }
  - { offset: 0x79ABB, size: 0x8, addend: 0x0, symName: __RNvCskdKJRKLKjqM_7___rustc13___rdl_dealloc, symObjAddr: 0xD8, symBinAddr: 0x10001C368, symSize: 0x4 }
  - { offset: 0x79AD9, size: 0x8, addend: 0x0, symName: __RNvCskdKJRKLKjqM_7___rustc13___rdl_dealloc, symObjAddr: 0xD8, symBinAddr: 0x10001C368, symSize: 0x4 }
  - { offset: 0x79AEC, size: 0x8, addend: 0x0, symName: __RNvCskdKJRKLKjqM_7___rustc13___rdl_realloc, symObjAddr: 0xDC, symBinAddr: 0x10001C36C, symSize: 0xD4 }
  - { offset: 0x79BC0, size: 0x8, addend: 0x0, symName: __RNvCskdKJRKLKjqM_7___rustc18___rdl_alloc_zeroed, symObjAddr: 0x28C, symBinAddr: 0x10001C51C, symSize: 0x90 }
  - { offset: 0x79C65, size: 0x8, addend: 0x0, symName: __RNvCskdKJRKLKjqM_7___rustc8___rg_oom, symObjAddr: 0x3D8, symBinAddr: 0x100054D38, symSize: 0x18 }
  - { offset: 0x79C81, size: 0x8, addend: 0x0, symName: __ZN3std5alloc24default_alloc_error_hook17hda855b09bf8ce5bfE, symObjAddr: 0x1F3C0, symBinAddr: 0x10002B050, symSize: 0x140 }
  - { offset: 0x79EB8, size: 0x8, addend: 0x0, symName: __ZN3std5alloc8rust_oom17h64a98ce1b291034bE, symObjAddr: 0x1F500, symBinAddr: 0x10005577C, symSize: 0x2C }
  - { offset: 0x79F05, size: 0x8, addend: 0x0, symName: __ZN3std2rt15handle_rt_panic17hd7a3741be038ff7bE, symObjAddr: 0xC6A4, symBinAddr: 0x100054E74, symSize: 0x44 }
  - { offset: 0x79F95, size: 0x8, addend: 0x0, symName: __ZN3std2rt19lang_start_internal17hd700ba983d3377dcE, symObjAddr: 0xC6E8, symBinAddr: 0x100023F4C, symSize: 0x6E4 }
  - { offset: 0x7ABD8, size: 0x8, addend: 0x0, symName: __ZN3std2io5error14repr_bitpacked11decode_repr17he0232b2b9818a582E, symObjAddr: 0x9D4C, symBinAddr: 0x1000230A4, symSize: 0x60 }
  - { offset: 0x7AC5E, size: 0x8, addend: 0x0, symName: __ZN3std2io5error5Error3new17hb0366e1179bed02aE, symObjAddr: 0x9E70, symBinAddr: 0x100023104, symSize: 0x128 }
  - { offset: 0x7B095, size: 0x8, addend: 0x0, symName: '__ZN3std2io5error83_$LT$impl$u20$core..fmt..Debug$u20$for$u20$std..io..error..repr_bitpacked..Repr$GT$3fmt17hc5e272b72661a34bE', symObjAddr: 0xA014, symBinAddr: 0x10002322C, symSize: 0x294 }
  - { offset: 0x7B2ED, size: 0x8, addend: 0x0, symName: '__ZN58_$LT$std..io..error..Error$u20$as$u20$core..fmt..Debug$GT$3fmt17h4bd0f28bf79564b3E', symObjAddr: 0x34100, symBinAddr: 0x100037144, symSize: 0x4 }
  - { offset: 0x7B307, size: 0x8, addend: 0x0, symName: '__ZN60_$LT$std..io..error..Error$u20$as$u20$core..fmt..Display$GT$3fmt17h96a3add2cd05308dE', symObjAddr: 0x419AC, symBinAddr: 0x100041A00, symSize: 0x208 }
  - { offset: 0x7B53A, size: 0x8, addend: 0x0, symName: '__ZN62_$LT$std..io..error..ErrorKind$u20$as$u20$core..fmt..Debug$GT$3fmt17hcbf070d750c729a3E', symObjAddr: 0x445F0, symBinAddr: 0x100042250, symSize: 0x28 }
  - { offset: 0x7B5C0, size: 0x8, addend: 0x0, symName: '__ZN3std2io8buffered9bufwriter18BufWriter$LT$W$GT$14write_all_cold17h513e838fe8161279E', symObjAddr: 0xB1E8, symBinAddr: 0x100054D50, symSize: 0x124 }
  - { offset: 0x7B814, size: 0x8, addend: 0x0, symName: '__ZN3std2io8buffered9bufwriter18BufWriter$LT$W$GT$9flush_buf17h29164ec56610038eE', symObjAddr: 0xB30C, symBinAddr: 0x100023D6C, symSize: 0x1E0 }
  - { offset: 0x7BD68, size: 0x8, addend: 0x0, symName: __ZN3std2io5Write18write_all_vectored17he688a1b06e8bbb4fE, symObjAddr: 0x9744, symBinAddr: 0x100022A9C, symSize: 0x1B4 }
  - { offset: 0x7BFC2, size: 0x8, addend: 0x0, symName: __ZN3std2io5Write9write_all17hfca7eea50e527240E, symObjAddr: 0x98F8, symBinAddr: 0x100022C50, symSize: 0xAC }
  - { offset: 0x7C0B2, size: 0x8, addend: 0x0, symName: __ZN3std2io5Write9write_fmt17h0a4c2886d71240f6E, symObjAddr: 0x99A4, symBinAddr: 0x100022CFC, symSize: 0x138 }
  - { offset: 0x7C2FC, size: 0x8, addend: 0x0, symName: __ZN3std2io5Write9write_fmt17h93365632ab64a6f8E, symObjAddr: 0x9ADC, symBinAddr: 0x100022E34, symSize: 0x138 }
  - { offset: 0x7C546, size: 0x8, addend: 0x0, symName: __ZN3std2io5Write9write_fmt17hc70e63382e9f29d2E, symObjAddr: 0x9C14, symBinAddr: 0x100022F6C, symSize: 0x138 }
  - { offset: 0x7C7FB, size: 0x8, addend: 0x0, symName: __ZN3std2io5stdio22try_set_output_capture17h95074c90c7962b08E, symObjAddr: 0xA79C, symBinAddr: 0x1000238B0, symSize: 0xEC }
  - { offset: 0x7CA79, size: 0x8, addend: 0x0, symName: '__ZN57_$LT$std..io..stdio..Stderr$u20$as$u20$std..io..Write$GT$9write_all17hde904227df37da43E', symObjAddr: 0x33A48, symBinAddr: 0x100036EF8, symSize: 0x9C }
  - { offset: 0x7CCA2, size: 0x8, addend: 0x0, symName: __ZN3std2io5stdio31print_to_buffer_if_capture_used17hcb54b0daa9580ecfE, symObjAddr: 0xA95C, symBinAddr: 0x10002399C, symSize: 0x20C }
  - { offset: 0x7D37F, size: 0x8, addend: 0x0, symName: __ZN3std2io5stdio6Stderr4lock17h60123d24c8f9e05cE, symObjAddr: 0xADCC, symBinAddr: 0x100023BA8, symSize: 0xE4 }
  - { offset: 0x7D64E, size: 0x8, addend: 0x0, symName: __ZN3std2io5stdio6_print17h31727a912c7756f3E, symObjAddr: 0xAEB0, symBinAddr: 0x100023C8C, symSize: 0xE0 }
  - { offset: 0x7D7D0, size: 0x8, addend: 0x0, symName: '__ZN61_$LT$std..io..stdio..StderrLock$u20$as$u20$std..io..Write$GT$9write_all17hb857a858b0795a45E', symObjAddr: 0x43310, symBinAddr: 0x100041DA8, symSize: 0x104 }
  - { offset: 0x7DA8F, size: 0x8, addend: 0x0, symName: '__ZN61_$LT$$RF$std..io..stdio..Stdout$u20$as$u20$std..io..Write$GT$9write_fmt17h15aba39edd7cf40aE', symObjAddr: 0x42EFC, symBinAddr: 0x100041C08, symSize: 0x1A0 }
  - { offset: 0x7DEA3, size: 0x8, addend: 0x0, symName: '__ZN61_$LT$std..io..stdio..StdoutLock$u20$as$u20$std..io..Write$GT$9write_all17ha54dfc02195772b6E', symObjAddr: 0x439C8, symBinAddr: 0x100041EAC, symSize: 0x248 }
  - { offset: 0x7E5FE, size: 0x8, addend: 0x0, symName: '__ZN3std2io5impls74_$LT$impl$u20$std..io..Write$u20$for$u20$alloc..vec..Vec$LT$u8$C$A$GT$$GT$14write_vectored17h98b0b37e86837edcE', symObjAddr: 0xA2A8, symBinAddr: 0x1000234C0, symSize: 0x174 }
  - { offset: 0x7E84B, size: 0x8, addend: 0x0, symName: '__ZN3std2io5impls74_$LT$impl$u20$std..io..Write$u20$for$u20$alloc..vec..Vec$LT$u8$C$A$GT$$GT$17is_write_vectored17h87e7f9fb9fdbeb17E', symObjAddr: 0xA41C, symBinAddr: 0x100023634, symSize: 0x8 }
  - { offset: 0x7E874, size: 0x8, addend: 0x0, symName: '__ZN3std2io5impls74_$LT$impl$u20$std..io..Write$u20$for$u20$alloc..vec..Vec$LT$u8$C$A$GT$$GT$18write_all_vectored17h61357489be1d2a24E', symObjAddr: 0xA424, symBinAddr: 0x10002363C, symSize: 0x168 }
  - { offset: 0x7E89F, size: 0x8, addend: 0x0, symName: '__ZN3std2io5impls74_$LT$impl$u20$std..io..Write$u20$for$u20$alloc..vec..Vec$LT$u8$C$A$GT$$GT$18write_all_vectored17h61357489be1d2a24E', symObjAddr: 0xA424, symBinAddr: 0x10002363C, symSize: 0x168 }
  - { offset: 0x7E8B4, size: 0x8, addend: 0x0, symName: '__ZN3std2io5impls74_$LT$impl$u20$std..io..Write$u20$for$u20$alloc..vec..Vec$LT$u8$C$A$GT$$GT$18write_all_vectored17h61357489be1d2a24E', symObjAddr: 0xA424, symBinAddr: 0x10002363C, symSize: 0x168 }
  - { offset: 0x7E8C9, size: 0x8, addend: 0x0, symName: '__ZN3std2io5impls74_$LT$impl$u20$std..io..Write$u20$for$u20$alloc..vec..Vec$LT$u8$C$A$GT$$GT$18write_all_vectored17h61357489be1d2a24E', symObjAddr: 0xA424, symBinAddr: 0x10002363C, symSize: 0x168 }
  - { offset: 0x7E8DD, size: 0x8, addend: 0x0, symName: '__ZN3std2io5impls74_$LT$impl$u20$std..io..Write$u20$for$u20$alloc..vec..Vec$LT$u8$C$A$GT$$GT$18write_all_vectored17h61357489be1d2a24E', symObjAddr: 0xA424, symBinAddr: 0x10002363C, symSize: 0x168 }
  - { offset: 0x7EAF6, size: 0x8, addend: 0x0, symName: '__ZN3std2io5impls74_$LT$impl$u20$std..io..Write$u20$for$u20$alloc..vec..Vec$LT$u8$C$A$GT$$GT$5flush17h7f80fd90e7fc18cdE', symObjAddr: 0xA58C, symBinAddr: 0x1000237A4, symSize: 0x8 }
  - { offset: 0x7EB11, size: 0x8, addend: 0x0, symName: '__ZN3std2io5impls74_$LT$impl$u20$std..io..Write$u20$for$u20$alloc..vec..Vec$LT$u8$C$A$GT$$GT$5write17h4a6ebd7f00c1e3b6E', symObjAddr: 0xA594, symBinAddr: 0x1000237AC, symSize: 0x84 }
  - { offset: 0x7EC56, size: 0x8, addend: 0x0, symName: '__ZN3std2io5impls74_$LT$impl$u20$std..io..Write$u20$for$u20$alloc..vec..Vec$LT$u8$C$A$GT$$GT$9write_all17h7a06a95410051fe1E', symObjAddr: 0xA618, symBinAddr: 0x100023830, symSize: 0x80 }
  - { offset: 0x7EDBD, size: 0x8, addend: 0x0, symName: __ZN3std2io19default_read_to_end16small_probe_read17hbff59304ba40a22dE, symObjAddr: 0x8DD8, symBinAddr: 0x1000229B0, symSize: 0xEC }
  - { offset: 0x7F0EE, size: 0x8, addend: 0x0, symName: '__ZN81_$LT$std..io..default_write_fmt..Adapter$LT$T$GT$$u20$as$u20$core..fmt..Write$GT$9write_str17h12683b88d4f37dd7E', symObjAddr: 0x4A168, symBinAddr: 0x1000433E0, symSize: 0x50 }
  - { offset: 0x7F118, size: 0x8, addend: 0x0, symName: '__ZN81_$LT$std..io..default_write_fmt..Adapter$LT$T$GT$$u20$as$u20$core..fmt..Write$GT$9write_str17h284da73b654d1506E', symObjAddr: 0x4A1B8, symBinAddr: 0x100043430, symSize: 0xD8 }
  - { offset: 0x7F22B, size: 0x8, addend: 0x0, symName: '__ZN81_$LT$std..io..default_write_fmt..Adapter$LT$T$GT$$u20$as$u20$core..fmt..Write$GT$9write_str17h2db7b0298947a58eE', symObjAddr: 0x4A290, symBinAddr: 0x100043508, symSize: 0xA0 }
  - { offset: 0x7F353, size: 0x8, addend: 0x0, symName: '__ZN81_$LT$std..io..default_write_fmt..Adapter$LT$T$GT$$u20$as$u20$core..fmt..Write$GT$9write_str17h5b7b94f2f70b6cc9E', symObjAddr: 0x4A330, symBinAddr: 0x1000435A8, symSize: 0x80 }
  - { offset: 0x7F5A8, size: 0x8, addend: 0x0, symName: __ZN3std4path4Path13_strip_prefix17h649cdf7fe52a9ca4E, symObjAddr: 0x1C7DC, symBinAddr: 0x10002A530, symSize: 0x21C }
  - { offset: 0x7F6B8, size: 0x8, addend: 0x0, symName: __ZN3std4path4Path5_join17h54f095185b763ad9E, symObjAddr: 0x1D0D4, symBinAddr: 0x10002A74C, symSize: 0x1A4 }
  - { offset: 0x7FCCE, size: 0x8, addend: 0x0, symName: __ZN3std4path10Components15len_before_body17h183e6460ce02202dE, symObjAddr: 0x1B7FC, symBinAddr: 0x100029F54, symSize: 0x18C }
  - { offset: 0x7FCE5, size: 0x8, addend: 0x0, symName: __ZN3std4path10Components15len_before_body17h183e6460ce02202dE, symObjAddr: 0x1B7FC, symBinAddr: 0x100029F54, symSize: 0x18C }
  - { offset: 0x7FCFA, size: 0x8, addend: 0x0, symName: __ZN3std4path10Components15len_before_body17h183e6460ce02202dE, symObjAddr: 0x1B7FC, symBinAddr: 0x100029F54, symSize: 0x18C }
  - { offset: 0x7FE88, size: 0x8, addend: 0x0, symName: __ZN3std4path10Components25parse_next_component_back17h96bead52961e5974E, symObjAddr: 0x1B988, symBinAddr: 0x10002A0E0, symSize: 0x12C }
  - { offset: 0x7FFED, size: 0x8, addend: 0x0, symName: __ZN3std4path10Components7as_path17h8b47be53b7bb02abE, symObjAddr: 0x1BAB4, symBinAddr: 0x10002A20C, symSize: 0x324 }
  - { offset: 0x802BF, size: 0x8, addend: 0x0, symName: __ZN3std4path7PathBuf14_set_extension17h0bb8b94ed9a7e535E, symObjAddr: 0x1DADC, symBinAddr: 0x10002A8F0, symSize: 0x2E4 }
  - { offset: 0x80A37, size: 0x8, addend: 0x0, symName: __ZN3std4path7PathBuf5_push17hf091b56e065255d4E, symObjAddr: 0x1E1C0, symBinAddr: 0x10002ABD4, symSize: 0x10C }
  - { offset: 0x80DF8, size: 0x8, addend: 0x0, symName: '__ZN61_$LT$std..path..Component$u20$as$u20$core..cmp..PartialEq$GT$2eq17hcac4c67d1f006796E', symObjAddr: 0x43C18, symBinAddr: 0x1000420F4, symSize: 0x134 }
  - { offset: 0x80F52, size: 0x8, addend: 0x0, symName: '__ZN80_$LT$std..path..Components$u20$as$u20$core..iter..traits..iterator..Iterator$GT$4next17hcff4524e130e7a04E', symObjAddr: 0x49B0C, symBinAddr: 0x100043084, symSize: 0x35C }
  - { offset: 0x81267, size: 0x8, addend: 0x0, symName: '__ZN95_$LT$std..path..Components$u20$as$u20$core..iter..traits..double_ended..DoubleEndedIterator$GT$9next_back17hbbb48aeb24b30ac1E', symObjAddr: 0x4BF38, symBinAddr: 0x10004384C, symSize: 0x360 }
  - { offset: 0x81449, size: 0x8, addend: 0x0, symName: __ZN3std7process5Child4wait17h03e578d8ccafa842E, symObjAddr: 0x20C40, symBinAddr: 0x10002B48C, symSize: 0xB8 }
  - { offset: 0x815C6, size: 0x8, addend: 0x0, symName: __ZN3std7process5abort17he872d13fc606be41E, symObjAddr: 0x20DA8, symBinAddr: 0x100055988, symSize: 0xC }
  - { offset: 0x815E6, size: 0x8, addend: 0x0, symName: __ZN3std7process7Command5spawn17hf702ff190b710972E, symObjAddr: 0x20E50, symBinAddr: 0x10002B544, symSize: 0x78 }
  - { offset: 0x81617, size: 0x8, addend: 0x0, symName: __ZN3std7process7Command6output17hf44e1086c78a62ecE, symObjAddr: 0x20EC8, symBinAddr: 0x10002B5BC, symSize: 0x2EC }
  - { offset: 0x81BA1, size: 0x8, addend: 0x0, symName: '__ZN118_$LT$std..thread..thread_name_string..ThreadNameString$u20$as$u20$core..convert..From$LT$alloc..string..String$GT$$GT$4from17h3cd36efdc78dbcc3E', symObjAddr: 0xEC0, symBinAddr: 0x10001C6D4, symSize: 0x110 }
  - { offset: 0x81E33, size: 0x8, addend: 0x0, symName: __ZN3std6thread5local18panic_access_error17h2216af0f25787575E, symObjAddr: 0x1F9B4, symBinAddr: 0x1000557A8, symSize: 0x44 }
  - { offset: 0x81E68, size: 0x8, addend: 0x0, symName: '__ZN68_$LT$std..thread..local..AccessError$u20$as$u20$core..fmt..Debug$GT$3fmt17h56cbf97f51b65d82E', symObjAddr: 0x46588, symBinAddr: 0x1000424F0, symSize: 0x38 }
  - { offset: 0x81FA9, size: 0x8, addend: 0x0, symName: __ZN3std6thread7current12init_current17h76e9942ca4b6363dE, symObjAddr: 0x1FF38, symBinAddr: 0x1000557EC, symSize: 0x164 }
  - { offset: 0x822C1, size: 0x8, addend: 0x0, symName: __ZN3std6thread7current13current_os_id17h9bf74ead444ae1deE, symObjAddr: 0x2009C, symBinAddr: 0x10002B404, symSize: 0x88 }
  - { offset: 0x824D4, size: 0x8, addend: 0x0, symName: __ZN3std6thread6Thread3new17hbf5aeb1736bec1e3E, symObjAddr: 0x1FB40, symBinAddr: 0x10002B2AC, symSize: 0x158 }
  - { offset: 0x82803, size: 0x8, addend: 0x0, symName: __ZN3std6thread8ThreadId3new9exhausted17ha73a828480ec4fa2E, symObjAddr: 0x2026C, symBinAddr: 0x100055950, symSize: 0x38 }
  - { offset: 0x82883, size: 0x8, addend: 0x0, symName: __ZN3std12backtrace_rs5print17BacktraceFrameFmt21print_raw_with_column17h3c81486fb0007567E, symObjAddr: 0x1050, symBinAddr: 0x10001C80C, symSize: 0x438 }
  - { offset: 0x82A8B, size: 0x8, addend: 0x0, symName: __ZN3std12backtrace_rs9backtrace9libunwind5trace8trace_fn17h03c27b8c72497427E, symObjAddr: 0x1488, symBinAddr: 0x10001CC44, symSize: 0x48 }
  - { offset: 0x82B46, size: 0x8, addend: 0x0, symName: __ZN3std12backtrace_rs9symbolize5gimli4mmap17h8dd225413c7073a4E, symObjAddr: 0x14D0, symBinAddr: 0x10001CC8C, symSize: 0x1DC }
  - { offset: 0x83041, size: 0x8, addend: 0x0, symName: __ZN3std12backtrace_rs9symbolize5gimli5macho11find_header17h057a153a1489d815E, symObjAddr: 0x16AC, symBinAddr: 0x10001CE68, symSize: 0x1D4 }
  - { offset: 0x8305E, size: 0x8, addend: 0x0, symName: __ZN3std12backtrace_rs9symbolize5gimli5macho11find_header17h057a153a1489d815E, symObjAddr: 0x16AC, symBinAddr: 0x10001CE68, symSize: 0x1D4 }
  - { offset: 0x83072, size: 0x8, addend: 0x0, symName: __ZN3std12backtrace_rs9symbolize5gimli5macho11find_header17h057a153a1489d815E, symObjAddr: 0x16AC, symBinAddr: 0x10001CE68, symSize: 0x1D4 }
  - { offset: 0x83086, size: 0x8, addend: 0x0, symName: __ZN3std12backtrace_rs9symbolize5gimli5macho11find_header17h057a153a1489d815E, symObjAddr: 0x16AC, symBinAddr: 0x10001CE68, symSize: 0x1D4 }
  - { offset: 0x8309A, size: 0x8, addend: 0x0, symName: __ZN3std12backtrace_rs9symbolize5gimli5macho11find_header17h057a153a1489d815E, symObjAddr: 0x16AC, symBinAddr: 0x10001CE68, symSize: 0x1D4 }
  - { offset: 0x830AF, size: 0x8, addend: 0x0, symName: __ZN3std12backtrace_rs9symbolize5gimli5macho11find_header17h057a153a1489d815E, symObjAddr: 0x16AC, symBinAddr: 0x10001CE68, symSize: 0x1D4 }
  - { offset: 0x830C4, size: 0x8, addend: 0x0, symName: __ZN3std12backtrace_rs9symbolize5gimli5macho11find_header17h057a153a1489d815E, symObjAddr: 0x16AC, symBinAddr: 0x10001CE68, symSize: 0x1D4 }
  - { offset: 0x837B1, size: 0x8, addend: 0x0, symName: __ZN3std12backtrace_rs9symbolize5gimli5macho6Object5parse17hbc26463257d20f2aE, symObjAddr: 0x1880, symBinAddr: 0x10001D03C, symSize: 0xBFC }
  - { offset: 0x85589, size: 0x8, addend: 0x0, symName: __ZN3std12backtrace_rs9symbolize5gimli5macho6Object7section17he22847e43a23fe6bE, symObjAddr: 0x247C, symBinAddr: 0x10001DC38, symSize: 0x154 }
  - { offset: 0x859A2, size: 0x8, addend: 0x0, symName: __ZN3std12backtrace_rs9symbolize5gimli7Context11find_frames17h73caac78ce26352aE, symObjAddr: 0x25D0, symBinAddr: 0x10001DD8C, symSize: 0x394 }
  - { offset: 0x85D87, size: 0x8, addend: 0x0, symName: __ZN3std12backtrace_rs9symbolize5gimli7Context3new17h2384661d7d9b1f78E, symObjAddr: 0x2964, symBinAddr: 0x10001E120, symSize: 0x2034 }
  - { offset: 0x89D1E, size: 0x8, addend: 0x0, symName: __ZN3std12backtrace_rs9symbolize5gimli7resolve17hf73b30071e9ea483E, symObjAddr: 0x4998, symBinAddr: 0x100020154, symSize: 0x2778 }
  - { offset: 0x8F6CC, size: 0x8, addend: 0x0, symName: __ZN3std12backtrace_rs9symbolize6Symbol4name17h06b8fd10d9b9a257E, symObjAddr: 0x7148, symBinAddr: 0x1000228CC, symSize: 0xE4 }
  - { offset: 0x8F87E, size: 0x8, addend: 0x0, symName: '__ZN79_$LT$std..backtrace_rs..symbolize..SymbolName$u20$as$u20$core..fmt..Display$GT$3fmt17hb783e3698fc7e9b5E', symObjAddr: 0x492D0, symBinAddr: 0x100042F80, symSize: 0x104 }
  - { offset: 0x8FA02, size: 0x8, addend: 0x0, symName: '__ZN48_$LT$std..fs..File$u20$as$u20$std..io..Write$GT$5write17h04505d9342e66371E', symObjAddr: 0x23A74, symBinAddr: 0x10002C73C, symSize: 0x54 }
  - { offset: 0x8FB1F, size: 0x8, addend: 0x0, symName: '__ZN75_$LT$std..fs..ReadDir$u20$as$u20$core..iter..traits..iterator..Iterator$GT$4next17h1265719e5d52e8c4E', symObjAddr: 0x47B60, symBinAddr: 0x100042D9C, symSize: 0x18C }
  - { offset: 0x90016, size: 0x8, addend: 0x0, symName: '__ZN62_$LT$std..ffi..os_str..Display$u20$as$u20$core..fmt..Debug$GT$3fmt17hedf894b8d70157e5E', symObjAddr: 0x445C8, symBinAddr: 0x100042228, symSize: 0x28 }
  - { offset: 0x90087, size: 0x8, addend: 0x0, symName: '__ZN64_$LT$std..ffi..os_str..Display$u20$as$u20$core..fmt..Display$GT$3fmt17h85b477a581a14f44E', symObjAddr: 0x45488, symBinAddr: 0x1000422C4, symSize: 0xAC }
  - { offset: 0x9010C, size: 0x8, addend: 0x0, symName: '__ZN3std4sync6poison5mutex14Mutex$LT$T$GT$4lock17haf609da69215fe08E', symObjAddr: 0x1E94C, symBinAddr: 0x10002AFD8, symSize: 0x78 }
  - { offset: 0x9036B, size: 0x8, addend: 0x0, symName: '__ZN3std4sync6poison4once4Once15call_once_force28_$u7b$$u7b$closure$u7d$$u7d$17ha4ab593fcc00fd4eE', symObjAddr: 0x1E638, symBinAddr: 0x10002ACE0, symSize: 0x60 }
  - { offset: 0x90422, size: 0x8, addend: 0x0, symName: '__ZN3std4sync6poison4once4Once15call_once_force28_$u7b$$u7b$closure$u7d$$u7d$17hbc808b72c855c88aE', symObjAddr: 0x1E698, symBinAddr: 0x10002AD40, symSize: 0x78 }
  - { offset: 0x9057F, size: 0x8, addend: 0x0, symName: '__ZN3std4sync6poison4once4Once9call_once28_$u7b$$u7b$closure$u7d$$u7d$17hdd57cdd633d886a2E', symObjAddr: 0x1E72C, symBinAddr: 0x10002ADB8, symSize: 0x220 }
  - { offset: 0x90D61, size: 0x8, addend: 0x0, symName: '__ZN3std4sync9once_lock17OnceLock$LT$T$GT$10initialize17h2b232360da4cbaedE', symObjAddr: 0x1EFF8, symBinAddr: 0x1000556B8, symSize: 0x68 }
  - { offset: 0x90D8C, size: 0x8, addend: 0x0, symName: '__ZN3std4sync9once_lock17OnceLock$LT$T$GT$10initialize17h2b232360da4cbaedE', symObjAddr: 0x1EFF8, symBinAddr: 0x1000556B8, symSize: 0x68 }
  - { offset: 0x90DA0, size: 0x8, addend: 0x0, symName: '__ZN3std4sync9once_lock17OnceLock$LT$T$GT$10initialize17h2b232360da4cbaedE', symObjAddr: 0x1EFF8, symBinAddr: 0x1000556B8, symSize: 0x68 }
  - { offset: 0x90DB4, size: 0x8, addend: 0x0, symName: '__ZN3std4sync9once_lock17OnceLock$LT$T$GT$10initialize17h2b232360da4cbaedE', symObjAddr: 0x1EFF8, symBinAddr: 0x1000556B8, symSize: 0x68 }
  - { offset: 0x90DCA, size: 0x8, addend: 0x0, symName: '__ZN3std4sync9once_lock17OnceLock$LT$T$GT$10initialize17h3ac2c0cdefeecb80E', symObjAddr: 0x1F060, symBinAddr: 0x100055720, symSize: 0x5C }
  - { offset: 0x90DF5, size: 0x8, addend: 0x0, symName: '__ZN3std4sync9once_lock17OnceLock$LT$T$GT$10initialize17h3ac2c0cdefeecb80E', symObjAddr: 0x1F060, symBinAddr: 0x100055720, symSize: 0x5C }
  - { offset: 0x90E09, size: 0x8, addend: 0x0, symName: '__ZN3std4sync9once_lock17OnceLock$LT$T$GT$10initialize17h3ac2c0cdefeecb80E', symObjAddr: 0x1F060, symBinAddr: 0x100055720, symSize: 0x5C }
  - { offset: 0x90E1D, size: 0x8, addend: 0x0, symName: '__ZN3std4sync9once_lock17OnceLock$LT$T$GT$10initialize17h3ac2c0cdefeecb80E', symObjAddr: 0x1F060, symBinAddr: 0x100055720, symSize: 0x5C }
  - { offset: 0x90FC8, size: 0x8, addend: 0x0, symName: __ZN3std5panic19get_backtrace_style17h31f0dac9c1426532E, symObjAddr: 0x1F538, symBinAddr: 0x10002B190, symSize: 0x11C }
  - { offset: 0x90FE6, size: 0x8, addend: 0x0, symName: __ZN3std5panic19get_backtrace_style17h31f0dac9c1426532E, symObjAddr: 0x1F538, symBinAddr: 0x10002B190, symSize: 0x11C }
  - { offset: 0x90FFB, size: 0x8, addend: 0x0, symName: __ZN3std5panic19get_backtrace_style17h31f0dac9c1426532E, symObjAddr: 0x1F538, symBinAddr: 0x10002B190, symSize: 0x11C }
  - { offset: 0x91462, size: 0x8, addend: 0x0, symName: __ZN3std3env11current_dir17hc37cdc7315eb81a1E, symObjAddr: 0xCE2C, symBinAddr: 0x100024630, symSize: 0x19C }
  - { offset: 0x91849, size: 0x8, addend: 0x0, symName: __ZN3std3env4_var17hdd815babe2a43a98E, symObjAddr: 0xD09C, symBinAddr: 0x1000247CC, symSize: 0x98 }
  - { offset: 0x91945, size: 0x8, addend: 0x0, symName: __ZN3std3env7_var_os17he408374094189780E, symObjAddr: 0xD13C, symBinAddr: 0x100024864, symSize: 0x164 }
  - { offset: 0x91BC3, size: 0x8, addend: 0x0, symName: __ZN3std3env7vars_os17h331b2bf4375dda6aE, symObjAddr: 0xD49C, symBinAddr: 0x1000249C8, symSize: 0x3C4 }
  - { offset: 0x92924, size: 0x8, addend: 0x0, symName: __ZN5alloc5alloc15exchange_malloc17h7a64f5364f308ae6E, symObjAddr: 0x39D7C, symBinAddr: 0x10003A404, symSize: 0x48 }
  - { offset: 0x93CB0, size: 0x8, addend: 0x0, symName: '__ZN64_$LT$alloc..ffi..c_str..NulError$u20$as$u20$core..fmt..Debug$GT$3fmt17hb528bfe231df95daE', symObjAddr: 0x44ED8, symBinAddr: 0x100042278, symSize: 0x4C }
  - { offset: 0x94294, size: 0x8, addend: 0x0, symName: '__ZN5alloc11collections5btree4node208Handle$LT$alloc..collections..btree..node..NodeRef$LT$alloc..collections..btree..node..marker..Mut$C$K$C$V$C$alloc..collections..btree..node..marker..Leaf$GT$$C$alloc..collections..btree..node..marker..KV$GT$5split17ha6c8a03a837e8cecE', symObjAddr: 0x371FC, symBinAddr: 0x1000380FC, symSize: 0x140 }
  - { offset: 0x94667, size: 0x8, addend: 0x0, symName: '__ZN5alloc11collections5btree4node208Handle$LT$alloc..collections..btree..node..NodeRef$LT$alloc..collections..btree..node..marker..Mut$C$K$C$V$C$alloc..collections..btree..node..marker..Leaf$GT$$C$alloc..collections..btree..node..marker..KV$GT$5split17hdd415c88aa9df7f9E', symObjAddr: 0x3733C, symBinAddr: 0x10003823C, symSize: 0x198 }
  - { offset: 0x94AA7, size: 0x8, addend: 0x0, symName: '__ZN5alloc11collections5btree4node212Handle$LT$alloc..collections..btree..node..NodeRef$LT$alloc..collections..btree..node..marker..Mut$C$K$C$V$C$alloc..collections..btree..node..marker..Internal$GT$$C$alloc..collections..btree..node..marker..KV$GT$5split17h61b27ed46e18cc21E', symObjAddr: 0x374D4, symBinAddr: 0x1000383D4, symSize: 0x1FC }
  - { offset: 0x95064, size: 0x8, addend: 0x0, symName: '__ZN5alloc11collections5btree4node212Handle$LT$alloc..collections..btree..node..NodeRef$LT$alloc..collections..btree..node..marker..Mut$C$K$C$V$C$alloc..collections..btree..node..marker..Internal$GT$$C$alloc..collections..btree..node..marker..KV$GT$5split17hb227b69ac0b3e3f9E', symObjAddr: 0x376D0, symBinAddr: 0x1000385D0, symSize: 0x274 }
  - { offset: 0x956F9, size: 0x8, addend: 0x0, symName: '__ZN5alloc11collections5btree6remove259_$LT$impl$u20$alloc..collections..btree..node..Handle$LT$alloc..collections..btree..node..NodeRef$LT$alloc..collections..btree..node..marker..Mut$C$K$C$V$C$alloc..collections..btree..node..marker..Leaf$GT$$C$alloc..collections..btree..node..marker..KV$GT$$GT$14remove_leaf_kv17h80c70ada1e450bd7E', symObjAddr: 0x38EE4, symBinAddr: 0x100039604, symSize: 0x568 }
  - { offset: 0x96343, size: 0x8, addend: 0x0, symName: '__ZN5alloc11collections5btree6remove259_$LT$impl$u20$alloc..collections..btree..node..Handle$LT$alloc..collections..btree..node..NodeRef$LT$alloc..collections..btree..node..marker..Mut$C$K$C$V$C$alloc..collections..btree..node..marker..Leaf$GT$$C$alloc..collections..btree..node..marker..KV$GT$$GT$14remove_leaf_kv17hbb73ffc9875814dbE', symObjAddr: 0x3944C, symBinAddr: 0x100039B6C, symSize: 0x524 }
  - { offset: 0x98006, size: 0x8, addend: 0x0, symName: '__ZN5alloc11collections5btree4node29BalancingContext$LT$K$C$V$GT$15bulk_steal_left17h2991e4cb8ce5f906E', symObjAddr: 0x37BBC, symBinAddr: 0x100038844, symSize: 0x1F0 }
  - { offset: 0x98536, size: 0x8, addend: 0x0, symName: '__ZN5alloc11collections5btree4node29BalancingContext$LT$K$C$V$GT$15bulk_steal_left17hcb35e3ceea232fdfE', symObjAddr: 0x37DAC, symBinAddr: 0x100038A34, symSize: 0x280 }
  - { offset: 0x98A9E, size: 0x8, addend: 0x0, symName: '__ZN5alloc11collections5btree4node29BalancingContext$LT$K$C$V$GT$16bulk_steal_right17h43a940da68472492E', symObjAddr: 0x3802C, symBinAddr: 0x100038CB4, symSize: 0x2C8 }
  - { offset: 0x990BB, size: 0x8, addend: 0x0, symName: '__ZN5alloc11collections5btree4node29BalancingContext$LT$K$C$V$GT$16bulk_steal_right17hea11ac28cf98500dE', symObjAddr: 0x382F4, symBinAddr: 0x100038F7C, symSize: 0x23C }
  - { offset: 0x99709, size: 0x8, addend: 0x0, symName: '__ZN5alloc11collections5btree4node29BalancingContext$LT$K$C$V$GT$8do_merge17h13333d6dfff3d928E', symObjAddr: 0x38530, symBinAddr: 0x1000391B8, symSize: 0x1F4 }
  - { offset: 0x99D1D, size: 0x8, addend: 0x0, symName: '__ZN5alloc11collections5btree4node29BalancingContext$LT$K$C$V$GT$8do_merge17hac7b6a316cf9144aE', symObjAddr: 0x38724, symBinAddr: 0x1000393AC, symSize: 0x258 }
  - { offset: 0x9A5B3, size: 0x8, addend: 0x0, symName: '__ZN5alloc11collections5btree3map25BTreeMap$LT$K$C$V$C$A$GT$6insert17ha4852dcd205f58ecE', symObjAddr: 0x360AC, symBinAddr: 0x100037148, symSize: 0x99C }
  - { offset: 0x9BFD1, size: 0x8, addend: 0x0, symName: '__ZN5alloc11collections5btree3map25IntoIter$LT$K$C$V$C$A$GT$10dying_next17h0a5ca3d1aba591fbE', symObjAddr: 0x36A48, symBinAddr: 0x100037AE4, symSize: 0x208 }
  - { offset: 0x9C38D, size: 0x8, addend: 0x0, symName: '__ZN5alloc11collections5btree3map25IntoIter$LT$K$C$V$C$A$GT$10dying_next17h22b1c64eb370863dE', symObjAddr: 0x36C50, symBinAddr: 0x100037CEC, symSize: 0x208 }
  - { offset: 0x9C749, size: 0x8, addend: 0x0, symName: '__ZN5alloc11collections5btree3map25IntoIter$LT$K$C$V$C$A$GT$10dying_next17h80944ebf24a3bbadE', symObjAddr: 0x36E58, symBinAddr: 0x100037EF4, symSize: 0x208 }
  - { offset: 0x9DA13, size: 0x8, addend: 0x0, symName: '__ZN5alloc7raw_vec19RawVec$LT$T$C$A$GT$8grow_one17h09f72ff2edcb7145E', symObjAddr: 0x39E44, symBinAddr: 0x10003A44C, symSize: 0xB4 }
  - { offset: 0x9DB3E, size: 0x8, addend: 0x0, symName: '__ZN5alloc7raw_vec19RawVec$LT$T$C$A$GT$8grow_one17h0a83f3c2f81107feE', symObjAddr: 0x39EF8, symBinAddr: 0x10003A500, symSize: 0xC0 }
  - { offset: 0x9DC54, size: 0x8, addend: 0x0, symName: '__ZN5alloc7raw_vec19RawVec$LT$T$C$A$GT$8grow_one17h0b8cc8aaa4ca2627E', symObjAddr: 0x39FB8, symBinAddr: 0x10003A5C0, symSize: 0xB8 }
  - { offset: 0x9DD6A, size: 0x8, addend: 0x0, symName: '__ZN5alloc7raw_vec19RawVec$LT$T$C$A$GT$8grow_one17h2538c3a76f8332d4E', symObjAddr: 0x3A070, symBinAddr: 0x10003A678, symSize: 0xB4 }
  - { offset: 0x9DE95, size: 0x8, addend: 0x0, symName: '__ZN5alloc7raw_vec19RawVec$LT$T$C$A$GT$8grow_one17h35b443c82a84d8f5E', symObjAddr: 0x3A124, symBinAddr: 0x10003A72C, symSize: 0xC0 }
  - { offset: 0x9DFAB, size: 0x8, addend: 0x0, symName: '__ZN5alloc7raw_vec19RawVec$LT$T$C$A$GT$8grow_one17h3f245f84b3ab39cdE', symObjAddr: 0x3A1E4, symBinAddr: 0x10003A7EC, symSize: 0xB4 }
  - { offset: 0x9E0D6, size: 0x8, addend: 0x0, symName: '__ZN5alloc7raw_vec19RawVec$LT$T$C$A$GT$8grow_one17h6539c0c099fe1986E', symObjAddr: 0x3A358, symBinAddr: 0x10003A8A0, symSize: 0xB4 }
  - { offset: 0x9E201, size: 0x8, addend: 0x0, symName: '__ZN5alloc7raw_vec19RawVec$LT$T$C$A$GT$8grow_one17h94e06e2249cf7166E', symObjAddr: 0x3A40C, symBinAddr: 0x10003A954, symSize: 0xB8 }
  - { offset: 0x9E317, size: 0x8, addend: 0x0, symName: '__ZN5alloc7raw_vec19RawVec$LT$T$C$A$GT$8grow_one17hae47f4ea8854854fE', symObjAddr: 0x3A4C4, symBinAddr: 0x10003AA0C, symSize: 0xC0 }
  - { offset: 0x9E42D, size: 0x8, addend: 0x0, symName: '__ZN5alloc7raw_vec19RawVec$LT$T$C$A$GT$8grow_one17hb2be22af9cda6662E', symObjAddr: 0x3A584, symBinAddr: 0x10003AACC, symSize: 0xC0 }
  - { offset: 0x9E543, size: 0x8, addend: 0x0, symName: '__ZN5alloc7raw_vec19RawVec$LT$T$C$A$GT$8grow_one17hbb242b5a27216b95E', symObjAddr: 0x3A644, symBinAddr: 0x10003AB8C, symSize: 0xB8 }
  - { offset: 0x9E90D, size: 0x8, addend: 0x0, symName: __ZN5alloc7raw_vec11finish_grow17h1fe80a46fbbf8c9aE, symObjAddr: 0x39DC4, symBinAddr: 0x1000588D0, symSize: 0x80 }
  - { offset: 0x9E999, size: 0x8, addend: 0x0, symName: '__ZN5alloc7raw_vec20RawVecInner$LT$A$GT$7reserve21do_reserve_and_handle17h27d899f8eb2799c8E', symObjAddr: 0x3A6FC, symBinAddr: 0x100058950, symSize: 0xF8 }
  - { offset: 0x9EC51, size: 0x8, addend: 0x0, symName: '__ZN58_$LT$alloc..string..String$u20$as$u20$core..fmt..Debug$GT$3fmt17h762f034d0b19a212E', symObjAddr: 0x33F2C, symBinAddr: 0x100036F94, symSize: 0x10 }
  - { offset: 0x9ED0C, size: 0x8, addend: 0x0, symName: '__ZN58_$LT$alloc..string..String$u20$as$u20$core..fmt..Write$GT$10write_char17hf5eb0556627f32e1E', symObjAddr: 0x33F3C, symBinAddr: 0x100036FA4, symSize: 0x120 }
  - { offset: 0x9EEAF, size: 0x8, addend: 0x0, symName: '__ZN58_$LT$alloc..string..String$u20$as$u20$core..fmt..Write$GT$9write_str17h4f289a0bc5411d70E', symObjAddr: 0x3405C, symBinAddr: 0x1000370C4, symSize: 0x80 }
  - { offset: 0x9F008, size: 0x8, addend: 0x0, symName: '__ZN60_$LT$alloc..string..String$u20$as$u20$core..fmt..Display$GT$3fmt17h40cb6c2d63a0400fE', symObjAddr: 0x415A0, symBinAddr: 0x1000419F0, symSize: 0x10 }
  - { offset: 0x9F4A5, size: 0x8, addend: 0x0, symName: '__ZN5alloc4sync16Arc$LT$T$C$A$GT$9drop_slow17h0590c51487cc0e78E', symObjAddr: 0x39970, symBinAddr: 0x10003A090, symSize: 0x78 }
  - { offset: 0x9F673, size: 0x8, addend: 0x0, symName: '__ZN5alloc4sync16Arc$LT$T$C$A$GT$9drop_slow17h455f000bacbe8778E', symObjAddr: 0x399E8, symBinAddr: 0x10003A108, symSize: 0x98 }
  - { offset: 0x9F815, size: 0x8, addend: 0x0, symName: '__ZN5alloc4sync16Arc$LT$T$C$A$GT$9drop_slow17h58bfec597942d7c0E', symObjAddr: 0x39A80, symBinAddr: 0x10003A1A0, symSize: 0xC0 }
  - { offset: 0x9FB3E, size: 0x8, addend: 0x0, symName: '__ZN5alloc4sync16Arc$LT$T$C$A$GT$9drop_slow17h71ce5645e9f4e2faE', symObjAddr: 0x39BD8, symBinAddr: 0x10003A260, symSize: 0xD0 }
  - { offset: 0x9FD57, size: 0x8, addend: 0x0, symName: '__ZN5alloc4sync16Arc$LT$T$C$A$GT$9drop_slow17hc514d4cb9a32a567E', symObjAddr: 0x39CA8, symBinAddr: 0x10003A330, symSize: 0x34 }
  - { offset: 0x9FE36, size: 0x8, addend: 0x0, symName: '__ZN5alloc4sync16Arc$LT$T$C$A$GT$9drop_slow17hed6f5b3a05cf41fbE', symObjAddr: 0x39CDC, symBinAddr: 0x10003A364, symSize: 0xA0 }
  - { offset: 0xA0923, size: 0x8, addend: 0x0, symName: __ZN6object4read7archive13ArchiveMember5parse17h0cf35c47a3262c28E, symObjAddr: 0x46924, symBinAddr: 0x100042784, symSize: 0x30C }
  - { offset: 0xA0FE4, size: 0x8, addend: 0x0, symName: __ZN6object4read7archive23parse_bsd_extended_name17hc2fd94417d200a20E, symObjAddr: 0x46C30, symBinAddr: 0x100042A90, symSize: 0x2CC }
  - { offset: 0xA1983, size: 0x8, addend: 0x0, symName: '__ZN6memchr6memchr6memchr28_$u7b$$u7b$closure$u7d$$u7d$17h397791b73b81e986E', symObjAddr: 0x466C8, symBinAddr: 0x100042528, symSize: 0x25C }
  - { offset: 0xA214E, size: 0x8, addend: 0x0, symName: '__ZN9addr2line4unit16ResUnit$LT$R$GT$25find_function_or_location28_$u7b$$u7b$closure$u7d$$u7d$17h0b2560d358ac4418E', symObjAddr: 0x4D0B0, symBinAddr: 0x1000447BC, symSize: 0x30C }
  - { offset: 0xA24E3, size: 0x8, addend: 0x0, symName: '__ZN9addr2line4unit16ResUnit$LT$R$GT$25find_function_or_location17hb8c2717196c051f4E', symObjAddr: 0x4CD44, symBinAddr: 0x100044450, symSize: 0x36C }
  - { offset: 0xA2A0C, size: 0x8, addend: 0x0, symName: '__ZN9addr2line16Context$LT$R$GT$9find_unit17h6f93650cf3288060E', symObjAddr: 0x4C758, symBinAddr: 0x100043E64, symSize: 0x15C }
  - { offset: 0xA2B8E, size: 0x8, addend: 0x0, symName: '__ZN9addr2line6lookup30LoopingLookup$LT$T$C$L$C$F$GT$10new_lookup17h7be4a3ff02a5568bE', symObjAddr: 0x4D67C, symBinAddr: 0x100044D88, symSize: 0x438 }
  - { offset: 0xA30F1, size: 0x8, addend: 0x0, symName: __ZN9addr2line4line11render_file17h6d17362951bb3a0fE, symObjAddr: 0x4C8B4, symBinAddr: 0x100043FC0, symSize: 0x490 }
  - { offset: 0xA3A9E, size: 0x8, addend: 0x0, symName: '__ZN9addr2line8function17Function$LT$R$GT$14parse_children17h94e2fbb278f6f4afE', symObjAddr: 0x4DE18, symBinAddr: 0x100045524, symSize: 0xF20 }
  - { offset: 0xA5399, size: 0x8, addend: 0x0, symName: __ZN9addr2line8function10name_entry17hdcd9d55faa5b8559E, symObjAddr: 0x4DAB4, symBinAddr: 0x1000451C0, symSize: 0x364 }
  - { offset: 0xA5872, size: 0x8, addend: 0x0, symName: __ZN9addr2line8function9name_attr17h005d1ad1ee1bd9b3E, symObjAddr: 0x4ED38, symBinAddr: 0x100046444, symSize: 0x1C0 }
  - { offset: 0xA5A5E, size: 0x8, addend: 0x0, symName: '__ZN9addr2line5frame18FrameIter$LT$R$GT$4next17h9c99cb3977d75464E', symObjAddr: 0x4D3BC, symBinAddr: 0x100044AC8, symSize: 0x2C0 }
  - { offset: 0xA62EE, size: 0x8, addend: 0x0, symName: '__ZN5gimli4read5dwarf14Dwarf$LT$R$GT$11attr_string17h61d81fbcbee62996E', symObjAddr: 0x3F804, symBinAddr: 0x10003FC54, symSize: 0x220 }
  - { offset: 0xA6A88, size: 0x8, addend: 0x0, symName: '__ZN5gimli4read5dwarf13Unit$LT$R$GT$3new17h58a22d42e2b88249E', symObjAddr: 0x3DB64, symBinAddr: 0x10003DFB4, symSize: 0x1CA0 }
  - { offset: 0xAA253, size: 0x8, addend: 0x0, symName: '__ZN5gimli4read7aranges30ArangeHeader$LT$R$C$Offset$GT$5parse17h18ec296afb75f086E', symObjAddr: 0x40688, symBinAddr: 0x100040AD8, symSize: 0x2A8 }
  - { offset: 0xAACC1, size: 0x8, addend: 0x0, symName: '__ZN5gimli4read4unit18Attribute$LT$R$GT$5value17hd84235d5f0589f1bE', symObjAddr: 0x3CD78, symBinAddr: 0x10003D1C8, symSize: 0x598 }
  - { offset: 0xAB0CC, size: 0x8, addend: 0x0, symName: '__ZN90_$LT$gimli..read..unit..AttributeValue$LT$R$C$Offset$GT$$u20$as$u20$core..clone..Clone$GT$5clone17h73aa6ddc12793aa1E', symObjAddr: 0x4B650, symBinAddr: 0x100043784, symSize: 0x68 }
  - { offset: 0xAB12C, size: 0x8, addend: 0x0, symName: '__ZN5gimli4read4unit32AttributeValue$LT$R$C$Offset$GT$11udata_value17ha8d2cb136f47175bE', symObjAddr: 0x3D5C8, symBinAddr: 0x10003DA18, symSize: 0x84 }
  - { offset: 0xAB187, size: 0x8, addend: 0x0, symName: __ZN5gimli4read4unit15parse_attribute17hc1d74b8eec228250E, symObjAddr: 0x3B990, symBinAddr: 0x10003BDE0, symSize: 0xF74 }
  - { offset: 0xADD31, size: 0x8, addend: 0x0, symName: __ZN5gimli4read4unit15skip_attributes17hdc6142efc7264c05E, symObjAddr: 0x3C904, symBinAddr: 0x10003CD54, symSize: 0x474 }
  - { offset: 0xAE71B, size: 0x8, addend: 0x0, symName: '__ZN5gimli4read4unit22EntriesCursor$LT$R$GT$10next_entry17h8f756747ff1f8396E', symObjAddr: 0x3D310, symBinAddr: 0x10003D760, symSize: 0x2B8 }
  - { offset: 0xAECDF, size: 0x8, addend: 0x0, symName: '__ZN5gimli4read4unit33DebugInfoUnitHeadersIter$LT$R$GT$4next17hb26e96162b5603e4E', symObjAddr: 0x3D64C, symBinAddr: 0x10003DA9C, symSize: 0x518 }
  - { offset: 0xAFFC7, size: 0x8, addend: 0x0, symName: __ZN5gimli4read6reader6Reader11read_offset17ha6198688e6a6cc43E, symObjAddr: 0x401D4, symBinAddr: 0x100040624, symSize: 0xB4 }
  - { offset: 0xB01E6, size: 0x8, addend: 0x0, symName: __ZN5gimli4read6reader6Reader12read_sleb12817he7622149ed2ba8f3E, symObjAddr: 0x40288, symBinAddr: 0x1000406D8, symSize: 0x23C }
  - { offset: 0xB02C2, size: 0x8, addend: 0x0, symName: __ZN5gimli4read6reader6Reader12read_uleb12817hd0ba7762d4f5272cE, symObjAddr: 0x404C4, symBinAddr: 0x100040914, symSize: 0xB8 }
  - { offset: 0xB0369, size: 0x8, addend: 0x0, symName: __ZN5gimli4read6reader6Reader17read_sized_offset17h56144a8ee82a97f2E, symObjAddr: 0x4057C, symBinAddr: 0x1000409CC, symSize: 0x10C }
  - { offset: 0xB09E0, size: 0x8, addend: 0x0, symName: '__ZN5gimli4read8rnglists20RngListIter$LT$R$GT$4next17hbfe62e2e23855b41E', symObjAddr: 0x40930, symBinAddr: 0x100040D80, symSize: 0xC70 }
  - { offset: 0xB3357, size: 0x8, addend: 0x0, symName: '__ZN5gimli4read5index18UnitIndex$LT$R$GT$5parse17hf42bddb15b37e4adE', symObjAddr: 0x3FA24, symBinAddr: 0x10003FE74, symSize: 0x7B0 }
  - { offset: 0xB3A37, size: 0x8, addend: 0x0, symName: '__ZN5gimli4read4line27FileEntry$LT$R$C$Offset$GT$5parse17h809629ae1f90afdcE', symObjAddr: 0x3B774, symBinAddr: 0x10003BBC4, symSize: 0x21C }
  - { offset: 0xB3C9F, size: 0x8, addend: 0x0, symName: __ZN5gimli4read4line13parse_file_v517h46b7dbdd20cc86bdE, symObjAddr: 0x3A7F4, symBinAddr: 0x10003AC44, symSize: 0x2B4 }
  - { offset: 0xB3E27, size: 0x8, addend: 0x0, symName: __ZN5gimli4read4line15FileEntryFormat5parse17h8d770897394a1285E, symObjAddr: 0x3AAA8, symBinAddr: 0x10003AEF8, symSize: 0x370 }
  - { offset: 0xB461F, size: 0x8, addend: 0x0, symName: __ZN5gimli4read4line15parse_attribute17h8f693dd0ab51bc26E, symObjAddr: 0x3AE18, symBinAddr: 0x10003B268, symSize: 0x874 }
  - { offset: 0xB5E22, size: 0x8, addend: 0x0, symName: __ZN5gimli4read4line18parse_directory_v517hb83c7405e582bcc2E, symObjAddr: 0x3B68C, symBinAddr: 0x10003BADC, symSize: 0xE8 }
  - { offset: 0xB60B3, size: 0x8, addend: 0x0, symName: _OUTLINED_FUNCTION_0, symObjAddr: 0x4F37C, symBinAddr: 0x10004697C, symSize: 0x8 }
  - { offset: 0xB60CB, size: 0x8, addend: 0x0, symName: _OUTLINED_FUNCTION_1, symObjAddr: 0x4F384, symBinAddr: 0x100046984, symSize: 0xC }
  - { offset: 0xB60E3, size: 0x8, addend: 0x0, symName: _OUTLINED_FUNCTION_2, symObjAddr: 0x4F390, symBinAddr: 0x100046990, symSize: 0xC }
  - { offset: 0xB60FB, size: 0x8, addend: 0x0, symName: _OUTLINED_FUNCTION_3, symObjAddr: 0x4F39C, symBinAddr: 0x10004699C, symSize: 0x10 }
  - { offset: 0xB6113, size: 0x8, addend: 0x0, symName: _OUTLINED_FUNCTION_4, symObjAddr: 0x4F3AC, symBinAddr: 0x1000469AC, symSize: 0x10 }
  - { offset: 0xB612B, size: 0x8, addend: 0x0, symName: _OUTLINED_FUNCTION_5, symObjAddr: 0x4F3BC, symBinAddr: 0x1000469BC, symSize: 0xC }
  - { offset: 0xB6143, size: 0x8, addend: 0x0, symName: _OUTLINED_FUNCTION_6, symObjAddr: 0x4F3C8, symBinAddr: 0x1000469C8, symSize: 0xC }
  - { offset: 0xB615B, size: 0x8, addend: 0x0, symName: _OUTLINED_FUNCTION_7, symObjAddr: 0x4F3D4, symBinAddr: 0x1000469D4, symSize: 0x10 }
  - { offset: 0xB6173, size: 0x8, addend: 0x0, symName: _OUTLINED_FUNCTION_8, symObjAddr: 0x4F3E4, symBinAddr: 0x1000469E4, symSize: 0x8 }
  - { offset: 0xB618B, size: 0x8, addend: 0x0, symName: _OUTLINED_FUNCTION_9, symObjAddr: 0x4F3EC, symBinAddr: 0x1000469EC, symSize: 0x24 }
  - { offset: 0xB61A3, size: 0x8, addend: 0x0, symName: _OUTLINED_FUNCTION_10, symObjAddr: 0x4F410, symBinAddr: 0x100046A10, symSize: 0x8 }
  - { offset: 0xB61BB, size: 0x8, addend: 0x0, symName: _OUTLINED_FUNCTION_11, symObjAddr: 0x4F418, symBinAddr: 0x100046A18, symSize: 0x8 }
  - { offset: 0xB61D3, size: 0x8, addend: 0x0, symName: _OUTLINED_FUNCTION_12, symObjAddr: 0x4F420, symBinAddr: 0x100046A20, symSize: 0x24 }
  - { offset: 0xB61EB, size: 0x8, addend: 0x0, symName: _OUTLINED_FUNCTION_13, symObjAddr: 0x4F444, symBinAddr: 0x100046A44, symSize: 0x20 }
  - { offset: 0xB6203, size: 0x8, addend: 0x0, symName: _OUTLINED_FUNCTION_14, symObjAddr: 0x4F464, symBinAddr: 0x100046A64, symSize: 0x10 }
  - { offset: 0xB621B, size: 0x8, addend: 0x0, symName: _OUTLINED_FUNCTION_15, symObjAddr: 0x4F474, symBinAddr: 0x100046A74, symSize: 0x10 }
  - { offset: 0xB6233, size: 0x8, addend: 0x0, symName: _OUTLINED_FUNCTION_16, symObjAddr: 0x4F484, symBinAddr: 0x100046A84, symSize: 0x10 }
  - { offset: 0xB624B, size: 0x8, addend: 0x0, symName: _OUTLINED_FUNCTION_17, symObjAddr: 0x4F494, symBinAddr: 0x100046A94, symSize: 0x10 }
  - { offset: 0xB6263, size: 0x8, addend: 0x0, symName: _OUTLINED_FUNCTION_18, symObjAddr: 0x4F4A4, symBinAddr: 0x100046AA4, symSize: 0x8 }
  - { offset: 0xB627B, size: 0x8, addend: 0x0, symName: _OUTLINED_FUNCTION_19, symObjAddr: 0x4F4AC, symBinAddr: 0x100046AAC, symSize: 0x8 }
  - { offset: 0xB6293, size: 0x8, addend: 0x0, symName: _OUTLINED_FUNCTION_20, symObjAddr: 0x4F4B4, symBinAddr: 0x100046AB4, symSize: 0xC }
  - { offset: 0xB62AB, size: 0x8, addend: 0x0, symName: _OUTLINED_FUNCTION_21, symObjAddr: 0x4F4C0, symBinAddr: 0x100046AC0, symSize: 0x8 }
  - { offset: 0xB62C3, size: 0x8, addend: 0x0, symName: _OUTLINED_FUNCTION_22, symObjAddr: 0x4F4C8, symBinAddr: 0x100046AC8, symSize: 0x10 }
  - { offset: 0xB62DB, size: 0x8, addend: 0x0, symName: _OUTLINED_FUNCTION_23, symObjAddr: 0x4F4D8, symBinAddr: 0x100046AD8, symSize: 0x10 }
  - { offset: 0xB62F3, size: 0x8, addend: 0x0, symName: _OUTLINED_FUNCTION_24, symObjAddr: 0x4F4E8, symBinAddr: 0x100046AE8, symSize: 0x18 }
  - { offset: 0xB630B, size: 0x8, addend: 0x0, symName: _OUTLINED_FUNCTION_25, symObjAddr: 0x4F500, symBinAddr: 0x100046B00, symSize: 0xC }
  - { offset: 0xB6323, size: 0x8, addend: 0x0, symName: _OUTLINED_FUNCTION_26, symObjAddr: 0x4F50C, symBinAddr: 0x100046B0C, symSize: 0x8 }
  - { offset: 0xB633B, size: 0x8, addend: 0x0, symName: _OUTLINED_FUNCTION_27, symObjAddr: 0x4F514, symBinAddr: 0x100046B14, symSize: 0x8 }
  - { offset: 0xB6353, size: 0x8, addend: 0x0, symName: _OUTLINED_FUNCTION_28, symObjAddr: 0x4F51C, symBinAddr: 0x100046B1C, symSize: 0xC }
  - { offset: 0xB636B, size: 0x8, addend: 0x0, symName: _OUTLINED_FUNCTION_29, symObjAddr: 0x4F528, symBinAddr: 0x100046B28, symSize: 0xC }
  - { offset: 0xB6383, size: 0x8, addend: 0x0, symName: _OUTLINED_FUNCTION_30, symObjAddr: 0x4F534, symBinAddr: 0x100046B34, symSize: 0xC }
  - { offset: 0xB639B, size: 0x8, addend: 0x0, symName: _OUTLINED_FUNCTION_31, symObjAddr: 0x4F540, symBinAddr: 0x100046B40, symSize: 0xC }
  - { offset: 0xB63B3, size: 0x8, addend: 0x0, symName: _OUTLINED_FUNCTION_32, symObjAddr: 0x4F54C, symBinAddr: 0x100046B4C, symSize: 0x8 }
  - { offset: 0xB63CB, size: 0x8, addend: 0x0, symName: _OUTLINED_FUNCTION_33, symObjAddr: 0x4F554, symBinAddr: 0x100046B54, symSize: 0x10 }
  - { offset: 0xB63E3, size: 0x8, addend: 0x0, symName: _OUTLINED_FUNCTION_34, symObjAddr: 0x4F564, symBinAddr: 0x100046B64, symSize: 0x14 }
  - { offset: 0xB63FB, size: 0x8, addend: 0x0, symName: _OUTLINED_FUNCTION_35, symObjAddr: 0x4F578, symBinAddr: 0x100046B78, symSize: 0x14 }
  - { offset: 0xB6413, size: 0x8, addend: 0x0, symName: _OUTLINED_FUNCTION_36, symObjAddr: 0x4F58C, symBinAddr: 0x100046B8C, symSize: 0x14 }
  - { offset: 0xB6449, size: 0x8, addend: 0x0, symName: __RNvCskdKJRKLKjqM_7___rustc18___rust_start_panic, symObjAddr: 0x0, symBinAddr: 0x100046BA0, symSize: 0xA0 }
  - { offset: 0xB6524, size: 0x8, addend: 0x0, symName: __ZN12panic_unwind3imp5panic17exception_cleanup17h4266e266b2c9487cE, symObjAddr: 0x108, symBinAddr: 0x100046CA8, symSize: 0x18 }
  - { offset: 0xB6540, size: 0x8, addend: 0x0, symName: __RNvCskdKJRKLKjqM_7___rustc18___rust_start_panic, symObjAddr: 0x0, symBinAddr: 0x100046BA0, symSize: 0xA0 }
  - { offset: 0xB65CA, size: 0x8, addend: 0x0, symName: __RNvCskdKJRKLKjqM_7___rustc20___rust_panic_cleanup, symObjAddr: 0xA0, symBinAddr: 0x100046C40, symSize: 0x68 }
  - { offset: 0xB66BF, size: 0x8, addend: 0x0, symName: '__ZN4core3ptr49drop_in_place$LT$panic_unwind..imp..Exception$GT$17haf5bf9a577d18351E', symObjAddr: 0x120, symBinAddr: 0x100046CC0, symSize: 0x78 }
  - { offset: 0xB67C6, size: 0x8, addend: 0x0, symName: '__ZN4core3ptr74drop_in_place$LT$alloc..boxed..Box$LT$panic_unwind..imp..Exception$GT$$GT$17hfb07d84a22c2fe57E', symObjAddr: 0x198, symBinAddr: 0x100046D38, symSize: 0x8C }
  - { offset: 0xB69E5, size: 0x8, addend: 0x0, symName: __ZN9hashbrown3raw11Fallibility17capacity_overflow17h5345637d691a171bE, symObjAddr: 0x148, symBinAddr: 0x10004E848, symSize: 0x44 }
  - { offset: 0xB6A14, size: 0x8, addend: 0x0, symName: __ZN9hashbrown3raw11Fallibility9alloc_err17h7ccfec3b6338a4a5E, symObjAddr: 0x18C, symBinAddr: 0x10004E88C, symSize: 0x24 }
  - { offset: 0xB6AA6, size: 0x8, addend: 0x0, symName: __ZN4core3fmt5Write9write_fmt17h4804216ef2799c76E, symObjAddr: 0x144, symBinAddr: 0x10004E950, symSize: 0x38 }
  - { offset: 0xB6AE8, size: 0x8, addend: 0x0, symName: '__ZN53_$LT$core..fmt..Error$u20$as$u20$core..fmt..Debug$GT$3fmt17h2c60f2117c688a19E', symObjAddr: 0x434, symBinAddr: 0x10004E9A0, symSize: 0x14 }
  - { offset: 0xB6C33, size: 0x8, addend: 0x0, symName: '__ZN69_$LT$core..alloc..layout..LayoutError$u20$as$u20$core..fmt..Debug$GT$3fmt17h64c9cb4b8dea4922E', symObjAddr: 0x4FA4, symBinAddr: 0x10004F164, symSize: 0x14 }
  - { offset: 0xB6CA8, size: 0x8, addend: 0x0, symName: '__ZN4core3ptr42drop_in_place$LT$alloc..string..String$GT$17h125e75c66c8dab73E', symObjAddr: 0x194, symBinAddr: 0x10004E988, symSize: 0x18 }
  - { offset: 0xB704C, size: 0x8, addend: 0x0, symName: __ZN5alloc5alloc18handle_alloc_error17h26baa107ca8d7d87E, symObjAddr: 0x3110, symBinAddr: 0x100058B38, symSize: 0x18 }
  - { offset: 0xB7320, size: 0x8, addend: 0x0, symName: __ZN5alloc7raw_vec11finish_grow17hae2a77561b3eba9fE, symObjAddr: 0x4A98, symBinAddr: 0x100058B50, symSize: 0x80 }
  - { offset: 0xB7395, size: 0x8, addend: 0x0, symName: __ZN5alloc7raw_vec12handle_error17hda5280d2e54fe328E, symObjAddr: 0x4B18, symBinAddr: 0x100058BD0, symSize: 0x18 }
  - { offset: 0xB73D4, size: 0x8, addend: 0x0, symName: __ZN5alloc7raw_vec17capacity_overflow17h17d905a29a8903c6E, symObjAddr: 0x4B30, symBinAddr: 0x100058BE8, symSize: 0x34 }
  - { offset: 0xB740D, size: 0x8, addend: 0x0, symName: '__ZN5alloc7raw_vec20RawVecInner$LT$A$GT$7reserve21do_reserve_and_handle17h11d004b711ee78ceE', symObjAddr: 0x4C04, symBinAddr: 0x100058C1C, symSize: 0xAC }
  - { offset: 0xB7599, size: 0x8, addend: 0x0, symName: '__ZN254_$LT$alloc..boxed..convert..$LT$impl$u20$core..convert..From$LT$alloc..string..String$GT$$u20$for$u20$alloc..boxed..Box$LT$dyn$u20$core..error..Error$u2b$core..marker..Sync$u2b$core..marker..Send$GT$$GT$..from..StringError$u20$as$u20$core..fmt..Debug$GT$3fmt17h75dec14bca657cd7E', symObjAddr: 0x114, symBinAddr: 0x10004E930, symSize: 0x10 }
  - { offset: 0xB766A, size: 0x8, addend: 0x0, symName: '__ZN256_$LT$alloc..boxed..convert..$LT$impl$u20$core..convert..From$LT$alloc..string..String$GT$$u20$for$u20$alloc..boxed..Box$LT$dyn$u20$core..error..Error$u2b$core..marker..Sync$u2b$core..marker..Send$GT$$GT$..from..StringError$u20$as$u20$core..fmt..Display$GT$3fmt17h47fcec3434e746beE', symObjAddr: 0x124, symBinAddr: 0x10004E940, symSize: 0x10 }
  - { offset: 0xB775D, size: 0x8, addend: 0x0, symName: '__ZN100_$LT$alloc..ffi..c_str..CString$u20$as$u20$core..convert..From$LT$$RF$core..ffi..c_str..CStr$GT$$GT$4from17ha0ae31de1f056ba8E', symObjAddr: 0x94, symBinAddr: 0x10004E8B0, symSize: 0x80 }
  - { offset: 0xB78CD, size: 0x8, addend: 0x0, symName: __ZN5alloc3ffi5c_str7CString19_from_vec_unchecked17ha9e4236e455233d9E, symObjAddr: 0xAA0, symBinAddr: 0x10004EB44, symSize: 0x160 }
  - { offset: 0xB7BF7, size: 0x8, addend: 0x0, symName: __ZN5alloc3ffi5c_str7CString8from_raw17hd515aced8920cd6dE, symObjAddr: 0xCA4, symBinAddr: 0x10004ECA4, symSize: 0x28 }
  - { offset: 0xB7C30, size: 0x8, addend: 0x0, symName: '__ZN72_$LT$$RF$str$u20$as$u20$alloc..ffi..c_str..CString..new..SpecNewImpl$GT$13spec_new_impl17h45e6a9b6841b9026E', symObjAddr: 0x4FB8, symBinAddr: 0x10004F178, symSize: 0x114 }
  - { offset: 0xB80E0, size: 0x8, addend: 0x0, symName: __ZN5alloc6string6String15from_utf8_lossy17h3827377ec6f44505E, symObjAddr: 0x40B8, symBinAddr: 0x10004EF28, symSize: 0x23C }
  - { offset: 0xB868E, size: 0x8, addend: 0x0, symName: '__ZN58_$LT$alloc..string..String$u20$as$u20$core..fmt..Write$GT$10write_char17hf5eb0556627f32e1E', symObjAddr: 0x4AC, symBinAddr: 0x10004E9B4, symSize: 0x118 }
  - { offset: 0xB8831, size: 0x8, addend: 0x0, symName: '__ZN58_$LT$alloc..string..String$u20$as$u20$core..fmt..Write$GT$9write_str17h4f289a0bc5411d70E', symObjAddr: 0x5C4, symBinAddr: 0x10004EACC, symSize: 0x78 }
  - { offset: 0xB8998, size: 0x8, addend: 0x0, symName: '__ZN98_$LT$alloc..string..String$u20$as$u20$core..convert..From$LT$alloc..borrow..Cow$LT$str$GT$$GT$$GT$4from17h5469e7f25801e42aE', symObjAddr: 0x58FC, symBinAddr: 0x10004F28C, symSize: 0xB4 }
  - { offset: 0xB8B8C, size: 0x8, addend: 0x0, symName: __ZN5alloc3fmt6format12format_inner17h0dad41b42c4e8ea8E, symObjAddr: 0xCCC, symBinAddr: 0x10004ECCC, symSize: 0x1E8 }
  - { offset: 0xB8E46, size: 0x8, addend: 0x0, symName: __ZN5alloc4sync32arcinner_layout_for_value_layout17he81fe29099bd6304E, symObjAddr: 0x226C, symBinAddr: 0x10004EEB4, symSize: 0x74 }
  - { offset: 0xB8F9B, size: 0x8, addend: 0x0, symName: '__ZN71_$LT$core..ops..range..Range$LT$Idx$GT$$u20$as$u20$core..fmt..Debug$GT$3fmt17h9ee395a326b5a38dE', symObjAddr: 0x1D05C, symBinAddr: 0x100054050, symSize: 0x5C }
  - { offset: 0xB923F, size: 0x8, addend: 0x0, symName: '__ZN4core4char7methods22_$LT$impl$u20$char$GT$16escape_debug_ext17h65363754973cca06E', symObjAddr: 0x15EAC, symBinAddr: 0x100053194, symSize: 0x284 }
  - { offset: 0xB9429, size: 0x8, addend: 0x0, symName: __ZN4core4char7methods15encode_utf8_raw8do_panic7runtime17hf09a7bf7d34256f1E, symObjAddr: 0x15DD4, symBinAddr: 0x100058D74, symSize: 0x6C }
  - { offset: 0xB966D, size: 0x8, addend: 0x0, symName: __ZN4core3num22from_ascii_radix_panic8do_panic7runtime17h7f9501ed7945387fE, symObjAddr: 0xD48C, symBinAddr: 0x100058CD4, symSize: 0x44 }
  - { offset: 0xB96A0, size: 0x8, addend: 0x0, symName: __ZN4core3num22from_ascii_radix_panic17h9c5061ce301e38d1E, symObjAddr: 0xD480, symBinAddr: 0x100058CC8, symSize: 0xC }
  - { offset: 0xB995E, size: 0x8, addend: 0x0, symName: __ZN4core6option13expect_failed17ha7eb9005b8b6a5f0E, symObjAddr: 0x16714, symBinAddr: 0x100058F4C, symSize: 0x48 }
  - { offset: 0xB99A6, size: 0x8, addend: 0x0, symName: __ZN4core6option13unwrap_failed17h5390b8bf3624dae4E, symObjAddr: 0x1675C, symBinAddr: 0x100058F94, symSize: 0x1C }
  - { offset: 0xB9EBB, size: 0x8, addend: 0x0, symName: __ZN4core5slice5index16slice_index_fail8do_panic7runtime17h264a8ffb4962c84aE, symObjAddr: 0x16438, symBinAddr: 0x100058E5C, symSize: 0x50 }
  - { offset: 0xB9EEC, size: 0x8, addend: 0x0, symName: __ZN4core5slice5index16slice_index_fail8do_panic7runtime17hc3cb4cb0f63d7a0dE, symObjAddr: 0x16488, symBinAddr: 0x100058EAC, symSize: 0x50 }
  - { offset: 0xB9F1D, size: 0x8, addend: 0x0, symName: __ZN4core5slice5index16slice_index_fail8do_panic7runtime17hdb76a588098e04d1E, symObjAddr: 0x164D8, symBinAddr: 0x100058EFC, symSize: 0x50 }
  - { offset: 0xB9F50, size: 0x8, addend: 0x0, symName: __ZN4core5slice5index16slice_index_fail17hcba6beb3c7e54df7E, symObjAddr: 0x163F4, symBinAddr: 0x100058E18, symSize: 0x44 }
  - { offset: 0xBA009, size: 0x8, addend: 0x0, symName: __ZN4core5slice6memchr14memchr_aligned17h0fd76980ccaa34afE, symObjAddr: 0x16528, symBinAddr: 0x100053464, symSize: 0xDC }
  - { offset: 0xBA020, size: 0x8, addend: 0x0, symName: __ZN4core5slice6memchr14memchr_aligned17h0fd76980ccaa34afE, symObjAddr: 0x16528, symBinAddr: 0x100053464, symSize: 0xDC }
  - { offset: 0xBA035, size: 0x8, addend: 0x0, symName: __ZN4core5slice6memchr14memchr_aligned17h0fd76980ccaa34afE, symObjAddr: 0x16528, symBinAddr: 0x100053464, symSize: 0xDC }
  - { offset: 0xBA049, size: 0x8, addend: 0x0, symName: __ZN4core5slice6memchr14memchr_aligned17h0fd76980ccaa34afE, symObjAddr: 0x16528, symBinAddr: 0x100053464, symSize: 0xDC }
  - { offset: 0xBA05E, size: 0x8, addend: 0x0, symName: __ZN4core5slice6memchr14memchr_aligned17h0fd76980ccaa34afE, symObjAddr: 0x16528, symBinAddr: 0x100053464, symSize: 0xDC }
  - { offset: 0xBA10D, size: 0x8, addend: 0x0, symName: __ZN4core5slice6memchr7memrchr17h9d6664cc82317f7aE, symObjAddr: 0x16604, symBinAddr: 0x100053540, symSize: 0x110 }
  - { offset: 0xBA2A9, size: 0x8, addend: 0x0, symName: __ZN4core5slice4sort6shared9smallsort22panic_on_ord_violation17haee08cae494f9b76E, symObjAddr: 0x162E0, symBinAddr: 0x100058DE0, symSize: 0x38 }
  - { offset: 0xBA2E6, size: 0x8, addend: 0x0, symName: __ZN4core5slice4sort6stable5drift11sqrt_approx17h4d80f437b4f05e96E, symObjAddr: 0x16318, symBinAddr: 0x100053438, symSize: 0x2C }
  - { offset: 0xBA3DB, size: 0x8, addend: 0x0, symName: __ZN4core3fmt9Formatter10debug_list17hbc06b89459e82ed2E, symObjAddr: 0x9CA8, symBinAddr: 0x100050D20, symSize: 0x48 }
  - { offset: 0xBA41B, size: 0x8, addend: 0x0, symName: __ZN4core3fmt9Formatter11debug_tuple17h51c84851e9ce025eE, symObjAddr: 0x9CF0, symBinAddr: 0x100050D68, symSize: 0x50 }
  - { offset: 0xBA469, size: 0x8, addend: 0x0, symName: __ZN4core3fmt9Formatter12debug_struct17hff016019e19a1e59E, symObjAddr: 0x9D40, symBinAddr: 0x100050DB8, symSize: 0x3C }
  - { offset: 0xBA4D2, size: 0x8, addend: 0x0, symName: __ZN4core3fmt9Formatter12pad_integral17h6b76510de31552c4E, symObjAddr: 0x9DF8, symBinAddr: 0x100050E70, symSize: 0x3B4 }
  - { offset: 0xBA7D3, size: 0x8, addend: 0x0, symName: __ZN4core3fmt9Formatter25debug_tuple_field1_finish17hd754385b76890be0E, symObjAddr: 0xA668, symBinAddr: 0x100051224, symSize: 0x160 }
  - { offset: 0xBA9CE, size: 0x8, addend: 0x0, symName: __ZN4core3fmt9Formatter25debug_tuple_field2_finish17hd192ca962f3e76f9E, symObjAddr: 0xA7C8, symBinAddr: 0x100051384, symSize: 0x1D8 }
  - { offset: 0xBACC6, size: 0x8, addend: 0x0, symName: __ZN4core3fmt9Formatter26debug_struct_field1_finish17hdf9e3e8cc9fad70bE, symObjAddr: 0xB580, symBinAddr: 0x10005155C, symSize: 0xD0 }
  - { offset: 0xBAD9D, size: 0x8, addend: 0x0, symName: __ZN4core3fmt9Formatter26debug_struct_field2_finish17h3b83c18c70479e53E, symObjAddr: 0xB650, symBinAddr: 0x10005162C, symSize: 0x104 }
  - { offset: 0xBAE74, size: 0x8, addend: 0x0, symName: __ZN4core3fmt9Formatter3pad17hff1f0d89dcf14919E, symObjAddr: 0xBC68, symBinAddr: 0x100051730, symSize: 0x304 }
  - { offset: 0xBB1D4, size: 0x8, addend: 0x0, symName: __ZN4core3fmt9Formatter9write_str17hc566c39ab04e0b97E, symObjAddr: 0xC018, symBinAddr: 0x100051A34, symSize: 0x10 }
  - { offset: 0xBB244, size: 0x8, addend: 0x0, symName: __ZN4core3fmt8builders11DebugStruct5field17h207d6e7a951e3da0E, symObjAddr: 0x91AC, symBinAddr: 0x10005095C, symSize: 0x1B4 }
  - { offset: 0xBB450, size: 0x8, addend: 0x0, symName: __ZN4core3fmt8builders11DebugStruct6finish17h09aadd2fc45d6189E, symObjAddr: 0x9360, symBinAddr: 0x100050B10, symSize: 0x7C }
  - { offset: 0xBB578, size: 0x8, addend: 0x0, symName: __ZN4core3fmt8builders10DebugTuple5field17h05b75b880ca687fcE, symObjAddr: 0x8EC8, symBinAddr: 0x100050760, symSize: 0x148 }
  - { offset: 0xBB6F6, size: 0x8, addend: 0x0, symName: __ZN4core3fmt8builders10DebugTuple6finish17hbdc58b7a910cf8f5E, symObjAddr: 0x9010, symBinAddr: 0x1000508A8, symSize: 0xB4 }
  - { offset: 0xBB831, size: 0x8, addend: 0x0, symName: __ZN4core3fmt8builders8DebugSet5entry17h2d9f8a7b8dc85098E, symObjAddr: 0x9A00, symBinAddr: 0x100050B8C, symSize: 0x148 }
  - { offset: 0xBBA12, size: 0x8, addend: 0x0, symName: __ZN4core3fmt8builders9DebugList6finish17h1e2c90a4f4b268bbE, symObjAddr: 0x9C5C, symBinAddr: 0x100050CD4, symSize: 0x4C }
  - { offset: 0xBBA8F, size: 0x8, addend: 0x0, symName: '__ZN68_$LT$core..fmt..builders..PadAdapter$u20$as$u20$core..fmt..Write$GT$10write_char17h26ddfb0e18c0d503E', symObjAddr: 0x1BDC8, symBinAddr: 0x100053D8C, symSize: 0x80 }
  - { offset: 0xBBAB8, size: 0x8, addend: 0x0, symName: '__ZN68_$LT$core..fmt..builders..PadAdapter$u20$as$u20$core..fmt..Write$GT$9write_str17hc88595c259955ac6E', symObjAddr: 0x1BE48, symBinAddr: 0x100053E0C, symSize: 0x244 }
  - { offset: 0xBBD75, size: 0x8, addend: 0x0, symName: '__ZN57_$LT$core..fmt..Formatter$u20$as$u20$core..fmt..Write$GT$10write_char17ha628134952590ac5E', symObjAddr: 0x1880C, symBinAddr: 0x1000539FC, symSize: 0x10 }
  - { offset: 0xBBDB1, size: 0x8, addend: 0x0, symName: '__ZN40_$LT$str$u20$as$u20$core..fmt..Debug$GT$3fmt17h6237d1724b23f846E', symObjAddr: 0x278, symBinAddr: 0x10004F340, symSize: 0x398 }
  - { offset: 0xBC1BD, size: 0x8, addend: 0x0, symName: '__ZN41_$LT$char$u20$as$u20$core..fmt..Debug$GT$3fmt17h59e0a889e40b0668E', symObjAddr: 0x610, symBinAddr: 0x10004F6D8, symSize: 0xA8 }
  - { offset: 0xBC2C7, size: 0x8, addend: 0x0, symName: '__ZN42_$LT$$RF$T$u20$as$u20$core..fmt..Debug$GT$3fmt17h64c69660141ac234E', symObjAddr: 0x6D8, symBinAddr: 0x10004F780, symSize: 0x10 }
  - { offset: 0xBC2DB, size: 0x8, addend: 0x0, symName: '__ZN42_$LT$$RF$T$u20$as$u20$core..fmt..Debug$GT$3fmt17h69565c29f92b8fc4E', symObjAddr: 0x6E8, symBinAddr: 0x10004F790, symSize: 0x8 }
  - { offset: 0xBC2EF, size: 0x8, addend: 0x0, symName: '__ZN42_$LT$$RF$T$u20$as$u20$core..fmt..Debug$GT$3fmt17h94db8d2ef512e5afE', symObjAddr: 0x6F0, symBinAddr: 0x10004F798, symSize: 0xC }
  - { offset: 0xBC32C, size: 0x8, addend: 0x0, symName: '__ZN42_$LT$str$u20$as$u20$core..fmt..Display$GT$3fmt17h1e7192c885a6ee43E', symObjAddr: 0x868, symBinAddr: 0x10004F7A4, symSize: 0x14 }
  - { offset: 0xBC354, size: 0x8, addend: 0x0, symName: '__ZN43_$LT$char$u20$as$u20$core..fmt..Display$GT$3fmt17hdbc7e490592ff55fE', symObjAddr: 0x8B0, symBinAddr: 0x10004F7B8, symSize: 0xD4 }
  - { offset: 0xBC3CA, size: 0x8, addend: 0x0, symName: '__ZN44_$LT$$RF$T$u20$as$u20$core..fmt..Display$GT$3fmt17hee11fbb5a7b19b29E', symObjAddr: 0xACC, symBinAddr: 0x10004F88C, symSize: 0x10 }
  - { offset: 0xBC49E, size: 0x8, addend: 0x0, symName: '__ZN4core3fmt3num3imp51_$LT$impl$u20$core..fmt..Display$u20$for$u20$u8$GT$3fmt17h96dad03e83fb5f48E', symObjAddr: 0x2680, symBinAddr: 0x10004FA40, symSize: 0xB0 }
  - { offset: 0xBC583, size: 0x8, addend: 0x0, symName: '__ZN4core3fmt3num3imp52_$LT$impl$u20$core..fmt..Display$u20$for$u20$i32$GT$3fmt17h52781b7f8b2f4a4fE', symObjAddr: 0x2848, symBinAddr: 0x10004FAF0, symSize: 0x13C }
  - { offset: 0xBC683, size: 0x8, addend: 0x0, symName: '__ZN4core3fmt3num3imp52_$LT$impl$u20$core..fmt..Display$u20$for$u20$u32$GT$3fmt17h5beaee6a6019d596E', symObjAddr: 0x2BC4, symBinAddr: 0x10004FC2C, symSize: 0x130 }
  - { offset: 0xBC780, size: 0x8, addend: 0x0, symName: '__ZN4core3fmt3num3imp52_$LT$impl$u20$core..fmt..Display$u20$for$u20$u64$GT$3fmt17h14d52cab6e85bc6fE', symObjAddr: 0x2CF4, symBinAddr: 0x10004FD5C, symSize: 0x13C }
  - { offset: 0xBC8BB, size: 0x8, addend: 0x0, symName: '__ZN4core3fmt3num52_$LT$impl$u20$core..fmt..LowerHex$u20$for$u20$u8$GT$3fmt17hb13fce475fc222b2E', symObjAddr: 0x4BF0, symBinAddr: 0x10005023C, symSize: 0x74 }
  - { offset: 0xBC92D, size: 0x8, addend: 0x0, symName: '__ZN4core3fmt3num52_$LT$impl$u20$core..fmt..UpperHex$u20$for$u20$u8$GT$3fmt17hb1de02a3a7bbd3c7E', symObjAddr: 0x4CD8, symBinAddr: 0x1000502B0, symSize: 0x74 }
  - { offset: 0xBC9B2, size: 0x8, addend: 0x0, symName: '__ZN4core3fmt3num53_$LT$impl$u20$core..fmt..UpperHex$u20$for$u20$u32$GT$3fmt17hb34391e4c80e6b6fE', symObjAddr: 0x52AC, symBinAddr: 0x100050480, symSize: 0x74 }
  - { offset: 0xBCA24, size: 0x8, addend: 0x0, symName: '__ZN4core3fmt3num53_$LT$impl$u20$core..fmt..LowerHex$u20$for$u20$u64$GT$3fmt17h79a829e8e24e1101E', symObjAddr: 0x5068, symBinAddr: 0x100050398, symSize: 0x74 }
  - { offset: 0xBCA96, size: 0x8, addend: 0x0, symName: '__ZN4core3fmt3num53_$LT$impl$u20$core..fmt..UpperHex$u20$for$u20$u64$GT$3fmt17hc53763e351945eb2E', symObjAddr: 0x5320, symBinAddr: 0x1000504F4, symSize: 0x74 }
  - { offset: 0xBCAFB, size: 0x8, addend: 0x0, symName: '__ZN4core3fmt3num50_$LT$impl$u20$core..fmt..Debug$u20$for$u20$u64$GT$3fmt17hc0c6345233f6992cE', symObjAddr: 0x3E30, symBinAddr: 0x10004FE98, symSize: 0x1CC }
  - { offset: 0xBCC77, size: 0x8, addend: 0x0, symName: '__ZN4core3fmt3num52_$LT$impl$u20$core..fmt..Debug$u20$for$u20$usize$GT$3fmt17hecd777b1c3510085E', symObjAddr: 0x49A4, symBinAddr: 0x100050064, symSize: 0x1D8 }
  - { offset: 0xBCDE0, size: 0x8, addend: 0x0, symName: '__ZN4core3fmt3num53_$LT$impl$u20$core..fmt..LowerHex$u20$for$u20$i32$GT$3fmt17hdfae8c5dbc559eecE', symObjAddr: 0x4E98, symBinAddr: 0x100050324, symSize: 0x74 }
  - { offset: 0xBCE67, size: 0x8, addend: 0x0, symName: '__ZN4core3fmt3num53_$LT$impl$u20$core..fmt..UpperHex$u20$for$u20$i32$GT$3fmt17h723ababa892c8d1fE', symObjAddr: 0x5150, symBinAddr: 0x10005040C, symSize: 0x74 }
  - { offset: 0xBD076, size: 0x8, addend: 0x0, symName: __ZN4core3fmt17pointer_fmt_inner17h8bac0a374e702121E, symObjAddr: 0x10FC, symBinAddr: 0x10004F98C, symSize: 0xB4 }
  - { offset: 0xBD133, size: 0x8, addend: 0x0, symName: __ZN4core3fmt5Write9write_fmt17h335a5c637617de5aE, symObjAddr: 0x640C, symBinAddr: 0x100050568, symSize: 0x10 }
  - { offset: 0xBD1B2, size: 0x8, addend: 0x0, symName: __ZN4core3fmt5write17h2ddadfca81aeb692E, symObjAddr: 0x8C20, symBinAddr: 0x100050578, symSize: 0x1E8 }
  - { offset: 0xBD37D, size: 0x8, addend: 0x0, symName: __ZN4core3fmt9Formatter12pad_integral12write_prefix17h1291243e63835aa1E, symObjAddr: 0x9D7C, symBinAddr: 0x100050DF4, symSize: 0x7C }
  - { offset: 0xBD3E5, size: 0x8, addend: 0x0, symName: '__ZN59_$LT$core..fmt..Arguments$u20$as$u20$core..fmt..Display$GT$3fmt17hd8696728533e2ff8E', symObjAddr: 0x194B8, symBinAddr: 0x100053A0C, symSize: 0xC }
  - { offset: 0xBD508, size: 0x8, addend: 0x0, symName: __ZN4core6result13unwrap_failed17h6d77827dc3df0d45E, symObjAddr: 0x16778, symBinAddr: 0x100058FB0, symSize: 0x5C }
  - { offset: 0xBD79C, size: 0x8, addend: 0x0, symName: __ZN4core3str5count14do_count_chars17h843327bbee0854c3E, symObjAddr: 0x14570, symBinAddr: 0x100051CB0, symSize: 0x718 }
  - { offset: 0xBDB98, size: 0x8, addend: 0x0, symName: __ZN4core3str5count23char_count_general_case17habd9bffbcb484ba4E, symObjAddr: 0x14C88, symBinAddr: 0x1000523C8, symSize: 0x2A8 }
  - { offset: 0xBDC40, size: 0x8, addend: 0x0, symName: __ZN4core3str16slice_error_fail17h525eecae2eaa107fE, symObjAddr: 0x14198, symBinAddr: 0x100058D18, symSize: 0xC }
  - { offset: 0xBDC5A, size: 0x8, addend: 0x0, symName: __ZN4core3str19slice_error_fail_rt17hb42e3abad203a6cdE, symObjAddr: 0x141D8, symBinAddr: 0x100051A44, symSize: 0x26C }
  - { offset: 0xBDDDD, size: 0x8, addend: 0x0, symName: __ZN4core3str7pattern11StrSearcher3new17h08afc4e4b23bec43E, symObjAddr: 0x14F64, symBinAddr: 0x100052670, symSize: 0x8B0 }
  - { offset: 0xBE074, size: 0x8, addend: 0x0, symName: __ZN4core3str8converts9from_utf817h919d4dab8ff84af4E, symObjAddr: 0x15A88, symBinAddr: 0x100052F20, symSize: 0x274 }
  - { offset: 0xBE091, size: 0x8, addend: 0x0, symName: __ZN4core3str8converts9from_utf817h919d4dab8ff84af4E, symObjAddr: 0x15A88, symBinAddr: 0x100052F20, symSize: 0x274 }
  - { offset: 0xBE0FF, size: 0x8, addend: 0x0, symName: '__ZN60_$LT$core..str..lossy..Debug$u20$as$u20$core..fmt..Debug$GT$3fmt17hd86b5da5762d62d9E', symObjAddr: 0x19B58, symBinAddr: 0x100053A18, symSize: 0x360 }
  - { offset: 0xBE401, size: 0x8, addend: 0x0, symName: '__ZN87_$LT$core..str..lossy..Utf8Chunks$u20$as$u20$core..iter..traits..iterator..Iterator$GT$4next17h95aaa406218940b3E', symObjAddr: 0x1F918, symBinAddr: 0x1000540AC, symSize: 0x1C0 }
  - { offset: 0xBE615, size: 0x8, addend: 0x0, symName: __ZN4core3ffi5c_str4CStr19from_bytes_with_nul17h949d50f69b18d62aE, symObjAddr: 0xF20, symBinAddr: 0x10004F89C, symSize: 0xF0 }
  - { offset: 0xBE633, size: 0x8, addend: 0x0, symName: __ZN4core3ffi5c_str4CStr19from_bytes_with_nul17h949d50f69b18d62aE, symObjAddr: 0xF20, symBinAddr: 0x10004F89C, symSize: 0xF0 }
  - { offset: 0xBE753, size: 0x8, addend: 0x0, symName: __ZN4core4cell22panic_already_borrowed8do_panic7runtime17hb049e5e6e3009115E, symObjAddr: 0x15D08, symBinAddr: 0x100058D30, symSize: 0x44 }
  - { offset: 0xBE786, size: 0x8, addend: 0x0, symName: __ZN4core4cell22panic_already_borrowed17h2b3e251322659aa8E, symObjAddr: 0x15CFC, symBinAddr: 0x100058D24, symSize: 0xC }
  - { offset: 0xBE7BB, size: 0x8, addend: 0x0, symName: '__ZN65_$LT$core..cell..BorrowMutError$u20$as$u20$core..fmt..Display$GT$3fmt17h88d30539f104455aE', symObjAddr: 0x1A498, symBinAddr: 0x100053D78, symSize: 0x14 }
  - { offset: 0xBE80B, size: 0x8, addend: 0x0, symName: __ZN4core7unicode12unicode_data15grapheme_extend11lookup_slow17h7cfd3b15da7724b7E, symObjAddr: 0x16D14, symBinAddr: 0x100053650, symSize: 0x108 }
  - { offset: 0xBE9DE, size: 0x8, addend: 0x0, symName: __ZN4core7unicode9printable12is_printable17h2705576d9a4eb781E, symObjAddr: 0x17234, symBinAddr: 0x100053758, symSize: 0x2A4 }
  - { offset: 0xBECCF, size: 0x8, addend: 0x0, symName: __ZN4core5alloc6layout6Layout19is_size_align_valid17he773f7fedf08cc11E, symObjAddr: 0x161BC, symBinAddr: 0x100053418, symSize: 0x20 }
  - { offset: 0xBECEC, size: 0x8, addend: 0x0, symName: __ZN4core5alloc6layout6Layout19is_size_align_valid17he773f7fedf08cc11E, symObjAddr: 0x161BC, symBinAddr: 0x100053418, symSize: 0x20 }
  - { offset: 0xBED19, size: 0x8, addend: 0x0, symName: __ZN4core9panicking11panic_const23panic_const_div_by_zero17h4bab502c4a7f6f5bE, symObjAddr: 0x174D8, symBinAddr: 0x10005900C, symSize: 0x34 }
  - { offset: 0xBED48, size: 0x8, addend: 0x0, symName: __ZN4core9panicking11panic_const23panic_const_rem_by_zero17h6c478c7599da4a96E, symObjAddr: 0x17540, symBinAddr: 0x100059040, symSize: 0x34 }
  - { offset: 0xBED77, size: 0x8, addend: 0x0, symName: __ZN4core9panicking11panic_const24panic_const_add_overflow17h88d62ca6e8482045E, symObjAddr: 0x17574, symBinAddr: 0x100059074, symSize: 0x34 }
  - { offset: 0xBEDA7, size: 0x8, addend: 0x0, symName: __ZN4core9panicking13assert_failed17h420d4be177614dd0E, symObjAddr: 0x17950, symBinAddr: 0x1000590A8, symSize: 0x24 }
  - { offset: 0xBEDC2, size: 0x8, addend: 0x0, symName: __ZN4core9panicking13assert_failed17hcd10705fda4a35e5E, symObjAddr: 0x17998, symBinAddr: 0x1000590CC, symSize: 0x24 }
  - { offset: 0xBEDDD, size: 0x8, addend: 0x0, symName: __ZN4core9panicking14panic_nounwind17h50f882120c826ceeE, symObjAddr: 0x179BC, symBinAddr: 0x1000590F0, symSize: 0x3C }
  - { offset: 0xBEE0C, size: 0x8, addend: 0x0, symName: __ZN4core9panicking16panic_in_cleanup17h8699c7095cf5e6c5E, symObjAddr: 0x17A5C, symBinAddr: 0x10005912C, symSize: 0x18 }
  - { offset: 0xBEE27, size: 0x8, addend: 0x0, symName: __ZN4core9panicking18panic_bounds_check17h8935b4e0a545757eE, symObjAddr: 0x17A74, symBinAddr: 0x100059144, symSize: 0x50 }
  - { offset: 0xBEE6D, size: 0x8, addend: 0x0, symName: __ZN4core9panicking18panic_nounwind_fmt17h3db3f511675e5bd7E, symObjAddr: 0x17AC4, symBinAddr: 0x100059194, symSize: 0x3C }
  - { offset: 0xBEEB2, size: 0x8, addend: 0x0, symName: __ZN4core9panicking19assert_failed_inner17h13db5798706a154aE, symObjAddr: 0x17B00, symBinAddr: 0x1000591D0, symSize: 0xE4 }
  - { offset: 0xBEEFA, size: 0x8, addend: 0x0, symName: __ZN4core9panicking19panic_cannot_unwind17h396781a6699a759fE, symObjAddr: 0x17BE4, symBinAddr: 0x1000592B4, symSize: 0x18 }
  - { offset: 0xBEF15, size: 0x8, addend: 0x0, symName: __ZN4core9panicking26panic_nounwind_nobacktrace17h779196fb6afb7816E, symObjAddr: 0x17BFC, symBinAddr: 0x1000592CC, symSize: 0x3C }
  - { offset: 0xBEF44, size: 0x8, addend: 0x0, symName: __ZN4core9panicking5panic17hb13a99a9a5205e75E, symObjAddr: 0x17D00, symBinAddr: 0x100059308, symSize: 0x34 }
  - { offset: 0xBEF73, size: 0x8, addend: 0x0, symName: __ZN4core9panicking9panic_fmt17h96de7a67cc512650E, symObjAddr: 0x17D34, symBinAddr: 0x10005933C, symSize: 0x20 }
  - { offset: 0xBEFE4, size: 0x8, addend: 0x0, symName: _OUTLINED_FUNCTION_0, symObjAddr: 0x1FB3C, symBinAddr: 0x10005426C, symSize: 0x10 }
...
