---
triple:          'arm64-apple-darwin'
binary-path:     '/Users/johnhjediny/Documents/GitHub/json-schema-x-graphql/converters/rust/target/debug/build/serde_core-30caa210cc276a22/build_script_build-30caa210cc276a22'
relocations:
  - { offset: 0x1E, size: 0x8, addend: 0x0, symName: __RINvMNtCs85QQFkKrybG_4core3stre11starts_withReECsll8mMrVlOqJ_18build_script_build, symObjAddr: 0x0, symBinAddr: 0x100000BF0, symSize: 0x4C }
  - { offset: 0x241, size: 0x8, addend: 0x0, symName: __RNCNvXs1_NtNtNtCswz7ZwgBZOU_3std2io5error14repr_bitpackedNtB7_4ReprNtNtNtCs85QQFkKrybG_4core3ops4drop4Drop4drop0Csll8mMrVlOqJ_18build_script_build, symObjAddr: 0x1C44, symBinAddr: 0x100002834, symSize: 0x3C }
  - { offset: 0x2F6, size: 0x8, addend: 0x0, symName: __RNvXs1_NtNtNtCswz7ZwgBZOU_3std2io5error14repr_bitpackedNtB5_4ReprNtNtNtCs85QQFkKrybG_4core3ops4drop4Drop4dropCsll8mMrVlOqJ_18build_script_build, symObjAddr: 0x47BC, symBinAddr: 0x1000053AC, symSize: 0x38 }
  - { offset: 0x31F, size: 0x8, addend: 0x0, symName: __RINvNtNtNtCswz7ZwgBZOU_3std2io5error14repr_bitpacked11decode_reprINtNtCsdFlNUEO95cG_5alloc5boxed3BoxNtB4_6CustomENCNvXs1_B2_NtB2_4ReprNtNtNtCs85QQFkKrybG_4core3ops4drop4Drop4drop0ECsll8mMrVlOqJ_18build_script_build, symObjAddr: 0x1748, symBinAddr: 0x100002338, symSize: 0x1DC }
  - { offset: 0x58C, size: 0x8, addend: 0x0, symName: __RNCNvMs0_NtNtNtCswz7ZwgBZOU_3std2io5error14repr_bitpackedNtB7_4Repr4data0Csll8mMrVlOqJ_18build_script_build, symObjAddr: 0x1B28, symBinAddr: 0x100002718, symSize: 0x14 }
  - { offset: 0x5C4, size: 0x8, addend: 0x0, symName: __RINvNtNtNtCswz7ZwgBZOU_3std2io5error14repr_bitpacked11decode_reprRNtB4_6CustomNCNvMs0_B2_NtB2_4Repr4data0ECsll8mMrVlOqJ_18build_script_build, symObjAddr: 0x1924, symBinAddr: 0x100002514, symSize: 0x1DC }
  - { offset: 0x820, size: 0x8, addend: 0x0, symName: __RNvNtNtNtCswz7ZwgBZOU_3std2io5error14repr_bitpacked14kind_from_primCsll8mMrVlOqJ_18build_script_build, symObjAddr: 0x3F18, symBinAddr: 0x100004B08, symSize: 0x608 }
  - { offset: 0x12EB, size: 0x8, addend: 0x0, symName: __RNvXs5_NtNtNtCswz7ZwgBZOU_3std2os2fd5ownedNtB5_7OwnedFdNtNtNtCs85QQFkKrybG_4core3ops4drop4Drop4dropCsll8mMrVlOqJ_18build_script_build, symObjAddr: 0x499C, symBinAddr: 0x10000558C, symSize: 0x40 }
  - { offset: 0x14D1, size: 0x8, addend: 0x0, symName: __RNvXs1_NtCsdFlNUEO95cG_5alloc5allocNtB5_6GlobalNtNtCs85QQFkKrybG_4core5clone5Clone5cloneCsll8mMrVlOqJ_18build_script_build, symObjAddr: 0x47AC, symBinAddr: 0x10000539C, symSize: 0x10 }
  - { offset: 0x1522, size: 0x8, addend: 0x0, symName: __RNvXs_NtCsdFlNUEO95cG_5alloc5allocNtB4_6GlobalNtNtCs85QQFkKrybG_4core5alloc9Allocator10deallocateCsll8mMrVlOqJ_18build_script_build, symObjAddr: 0x4C94, symBinAddr: 0x100005884, symSize: 0x80 }
  - { offset: 0x16A2, size: 0x8, addend: 0x0, symName: __RINvMs3_NtCsdFlNUEO95cG_5alloc3stre7replaceReECsll8mMrVlOqJ_18build_script_build, symObjAddr: 0x11C, symBinAddr: 0x100000D0C, symSize: 0x6FC }
  - { offset: 0x21D0, size: 0x8, addend: 0x0, symName: __RNCNvNtCsdFlNUEO95cG_5alloc3str13replace_ascii0Csll8mMrVlOqJ_18build_script_build, symObjAddr: 0x1BE4, symBinAddr: 0x1000027D4, symSize: 0x60 }
  - { offset: 0x2CC5, size: 0x8, addend: 0x0, symName: __RNvXNvMsT_NtNtNtCsdFlNUEO95cG_5alloc11collections5btree4nodeINtB8_6HandleINtB8_7NodeRefNtNtB8_6marker5DyingpppENtB1p_2KVE12drop_key_valINtB2_7DropperINtNtCs85QQFkKrybG_4core6option6OptionNtNtNtCswz7ZwgBZOU_3std3ffi6os_str8OsStringEENtNtNtB2s_3ops4drop4Drop4dropCsll8mMrVlOqJ_18build_script_build, symObjAddr: 0x4780, symBinAddr: 0x100005370, symSize: 0x2C }
  - { offset: 0x302D, size: 0x8, addend: 0x0, symName: __RNvNvMs1_NtNtCs85QQFkKrybG_4core3ptr8non_nullINtB7_7NonNullpE13new_unchecked18precondition_checkCsll8mMrVlOqJ_18build_script_build, symObjAddr: 0x4520, symBinAddr: 0x100005110, symSize: 0xA4 }
  - { offset: 0x3BF2, size: 0x8, addend: 0x0, symName: __RNvNvMs9_NtCs85QQFkKrybG_4core3numj13unchecked_add18precondition_checkCsll8mMrVlOqJ_18build_script_build, symObjAddr: 0x45C4, symBinAddr: 0x1000051B4, symSize: 0xB0 }
  - { offset: 0x3C86, size: 0x8, addend: 0x0, symName: __RNvNvMs9_NtCs85QQFkKrybG_4core3numj13unchecked_sub18precondition_checkCsll8mMrVlOqJ_18build_script_build, symObjAddr: 0x4674, symBinAddr: 0x100005264, symSize: 0xAC }
  - { offset: 0x3E97, size: 0x8, addend: 0x0, symName: __RNvMsA_NtCs85QQFkKrybG_4core3numm16from_ascii_radixCsll8mMrVlOqJ_18build_script_build, symObjAddr: 0x2F1C, symBinAddr: 0x100003B0C, symSize: 0x59C }
  - { offset: 0x4157, size: 0x8, addend: 0x0, symName: __RNvXsz_NtCs85QQFkKrybG_4core3nummNtNtNtB7_3str6traits7FromStr8from_strCsll8mMrVlOqJ_18build_script_build, symObjAddr: 0x5874, symBinAddr: 0x100006464, symSize: 0x40 }
  - { offset: 0x44CF, size: 0x8, addend: 0x0, symName: __RINvMNtCs85QQFkKrybG_4core3stre11starts_withReECsll8mMrVlOqJ_18build_script_build, symObjAddr: 0x0, symBinAddr: 0x100000BF0, symSize: 0x4C }
  - { offset: 0x4515, size: 0x8, addend: 0x0, symName: __RINvMNtCs85QQFkKrybG_4core3stre5parsemECsll8mMrVlOqJ_18build_script_build, symObjAddr: 0x4C, symBinAddr: 0x100000C3C, symSize: 0x38 }
  - { offset: 0x454C, size: 0x8, addend: 0x0, symName: __RINvMNtCs85QQFkKrybG_4core3stre5splitcECsll8mMrVlOqJ_18build_script_build, symObjAddr: 0x84, symBinAddr: 0x100000C74, symSize: 0x98 }
  - { offset: 0x4842, size: 0x8, addend: 0x0, symName: __RNCNvMsp_NtNtCs85QQFkKrybG_4core3str4iterINtB7_20MatchIndicesInternalReE4next0Csll8mMrVlOqJ_18build_script_build, symObjAddr: 0x1B3C, symBinAddr: 0x10000272C, symSize: 0xA8 }
  - { offset: 0x4A19, size: 0x8, addend: 0x0, symName: __RNvXsX_NtNtCs85QQFkKrybG_4core3str4iterINtB5_5SplitcENtNtNtNtB9_4iter6traits8iterator8Iterator4nextCsll8mMrVlOqJ_18build_script_build, symObjAddr: 0x4C70, symBinAddr: 0x100005860, symSize: 0x24 }
  - { offset: 0x4D8D, size: 0x8, addend: 0x0, symName: __RNvXs2_NtNtCs85QQFkKrybG_4core3str7patterncNtB5_7Pattern13into_searcherCsll8mMrVlOqJ_18build_script_build, symObjAddr: 0x47F4, symBinAddr: 0x1000053E4, symSize: 0x114 }
  - { offset: 0x4EAB, size: 0x8, addend: 0x0, symName: __RNvXs_NtNtCs85QQFkKrybG_4core3str7patternNtB4_12CharSearcherNtB4_8Searcher10next_matchCsll8mMrVlOqJ_18build_script_build, symObjAddr: 0x4D14, symBinAddr: 0x100005904, symSize: 0x3BC }
  - { offset: 0x53CE, size: 0x8, addend: 0x0, symName: __RNvXs_NtNtCs85QQFkKrybG_4core3str7patternNtB4_12CharSearcherNtB4_8Searcher8haystackCsll8mMrVlOqJ_18build_script_build, symObjAddr: 0x50D0, symBinAddr: 0x100005CC0, symSize: 0x20 }
  - { offset: 0x5402, size: 0x8, addend: 0x0, symName: __RNvXst_NtNtCs85QQFkKrybG_4core3str7patternReNtB5_7Pattern12is_prefix_ofCsll8mMrVlOqJ_18build_script_build, symObjAddr: 0x519C, symBinAddr: 0x100005D8C, symSize: 0x4C }
  - { offset: 0x543F, size: 0x8, addend: 0x0, symName: __RNvXst_NtNtCs85QQFkKrybG_4core3str7patternReNtB5_7Pattern13into_searcherCsll8mMrVlOqJ_18build_script_build, symObjAddr: 0x51E8, symBinAddr: 0x100005DD8, symSize: 0x4C }
  - { offset: 0x547C, size: 0x8, addend: 0x0, symName: __RNvXst_NtNtCs85QQFkKrybG_4core3str7patternReNtB5_7Pattern15as_utf8_patternCsll8mMrVlOqJ_18build_script_build, symObjAddr: 0x5234, symBinAddr: 0x100005E24, symSize: 0x38 }
  - { offset: 0x54B0, size: 0x8, addend: 0x0, symName: __RNvXsv_NtNtCs85QQFkKrybG_4core3str7patternNtB5_11StrSearcherNtB5_8Searcher10next_matchCsll8mMrVlOqJ_18build_script_build, symObjAddr: 0x526C, symBinAddr: 0x100005E5C, symSize: 0x148 }
  - { offset: 0x553C, size: 0x8, addend: 0x0, symName: __RNvXsv_NtNtCs85QQFkKrybG_4core3str7patternNtB5_11StrSearcherNtB5_8Searcher4nextCsll8mMrVlOqJ_18build_script_build, symObjAddr: 0x53B4, symBinAddr: 0x100005FA4, symSize: 0x454 }
  - { offset: 0x5849, size: 0x8, addend: 0x0, symName: __RNvXsv_NtNtCs85QQFkKrybG_4core3str7patternNtB5_11StrSearcherNtB5_8Searcher8haystackCsll8mMrVlOqJ_18build_script_build, symObjAddr: 0x5808, symBinAddr: 0x1000063F8, symSize: 0x20 }
  - { offset: 0x587D, size: 0x8, addend: 0x0, symName: __RNvXsy_NtNtCs85QQFkKrybG_4core3str7patternNtB5_9MatchOnlyNtB5_14TwoWayStrategy16use_early_rejectCsll8mMrVlOqJ_18build_script_build, symObjAddr: 0x5828, symBinAddr: 0x100006418, symSize: 0xC }
  - { offset: 0x589B, size: 0x8, addend: 0x0, symName: __RNvXsy_NtNtCs85QQFkKrybG_4core3str7patternNtB5_9MatchOnlyNtB5_14TwoWayStrategy8matchingCsll8mMrVlOqJ_18build_script_build, symObjAddr: 0x5834, symBinAddr: 0x100006424, symSize: 0x28 }
  - { offset: 0x58D8, size: 0x8, addend: 0x0, symName: __RNvXsy_NtNtCs85QQFkKrybG_4core3str7patternNtB5_9MatchOnlyNtB5_14TwoWayStrategy9rejectingCsll8mMrVlOqJ_18build_script_build, symObjAddr: 0x585C, symBinAddr: 0x10000644C, symSize: 0x18 }
  - { offset: 0x591B, size: 0x8, addend: 0x0, symName: __RNvXsz_NtNtCs85QQFkKrybG_4core3str7patternNtB5_14RejectAndMatchNtB5_14TwoWayStrategy16use_early_rejectCsll8mMrVlOqJ_18build_script_build, symObjAddr: 0x58B4, symBinAddr: 0x1000064A4, symSize: 0xC }
  - { offset: 0x5939, size: 0x8, addend: 0x0, symName: __RNvXsz_NtNtCs85QQFkKrybG_4core3str7patternNtB5_14RejectAndMatchNtB5_14TwoWayStrategy8matchingCsll8mMrVlOqJ_18build_script_build, symObjAddr: 0x58C0, symBinAddr: 0x1000064B0, symSize: 0x20 }
  - { offset: 0x5976, size: 0x8, addend: 0x0, symName: __RNvXsz_NtNtCs85QQFkKrybG_4core3str7patternNtB5_14RejectAndMatchNtB5_14TwoWayStrategy9rejectingCsll8mMrVlOqJ_18build_script_build, symObjAddr: 0x58E0, symBinAddr: 0x1000064D0, symSize: 0x28 }
  - { offset: 0x5BCA, size: 0x8, addend: 0x0, symName: __RNvXs9_NtNtCs85QQFkKrybG_4core3str6traitsINtNtNtB9_3ops5range9RangeFromjEINtNtNtB9_5slice5index10SliceIndexeE3getCsll8mMrVlOqJ_18build_script_build, symObjAddr: 0x49DC, symBinAddr: 0x1000055CC, symSize: 0x150 }
  - { offset: 0x5E5E, size: 0x8, addend: 0x0, symName: __RNvMNtNtCs85QQFkKrybG_4core4char7methodsc8to_digitCsll8mMrVlOqJ_18build_script_build, symObjAddr: 0x2D54, symBinAddr: 0x100003944, symSize: 0x14C }
  - { offset: 0x5FE0, size: 0x8, addend: 0x0, symName: __RNvNtNtCs85QQFkKrybG_4core4char7methods15encode_utf8_rawCsll8mMrVlOqJ_18build_script_build, symObjAddr: 0x3C80, symBinAddr: 0x100004870, symSize: 0x110 }
  - { offset: 0x60E0, size: 0x8, addend: 0x0, symName: __RNvNtNtCs85QQFkKrybG_4core4char7methods25encode_utf8_raw_uncheckedCsll8mMrVlOqJ_18build_script_build, symObjAddr: 0x3D90, symBinAddr: 0x100004980, symSize: 0x188 }
  - { offset: 0x6A3C, size: 0x8, addend: 0x0, symName: __RNvXsC_NtCs85QQFkKrybG_4core6optionINtB5_6OptionNtNtCswz7ZwgBZOU_3std7process6OutputENtNtNtB7_3ops9try_trait3Try6branchCsll8mMrVlOqJ_18build_script_build, symObjAddr: 0x4B2C, symBinAddr: 0x10000571C, symSize: 0x78 }
  - { offset: 0x6A92, size: 0x8, addend: 0x0, symName: __RNvXsC_NtCs85QQFkKrybG_4core6optionINtB5_6OptionNtNtNtCswz7ZwgBZOU_3std3ffi6os_str8OsStringENtNtNtB7_3ops9try_trait3Try6branchCsll8mMrVlOqJ_18build_script_build, symObjAddr: 0x4BA4, symBinAddr: 0x100005794, symSize: 0x68 }
  - { offset: 0x6AE8, size: 0x8, addend: 0x0, symName: __RNvXsC_NtCs85QQFkKrybG_4core6optionINtB5_6OptionReENtNtNtB7_3ops9try_trait3Try6branchCsll8mMrVlOqJ_18build_script_build, symObjAddr: 0x4C0C, symBinAddr: 0x1000057FC, symSize: 0x54 }
  - { offset: 0x6B79, size: 0x8, addend: 0x0, symName: __RNvXsD_NtCs85QQFkKrybG_4core6optionINtB5_6OptionmEINtNtNtB7_3ops9try_trait12FromResidualIBy_NtNtB7_7convert10InfallibleEE13from_residualCsll8mMrVlOqJ_18build_script_build, symObjAddr: 0x4C60, symBinAddr: 0x100005850, symSize: 0x10 }
  - { offset: 0x6C83, size: 0x8, addend: 0x0, symName: __RNvXsd_NtCs85QQFkKrybG_4core6optionINtB5_6OptionReENtNtB7_3cmp9PartialEq2eqCsll8mMrVlOqJ_18build_script_build, symObjAddr: 0x50F0, symBinAddr: 0x100005CE0, symSize: 0xAC }
  - { offset: 0x72F0, size: 0x8, addend: 0x0, symName: __RNvXs5_NtNtCs85QQFkKrybG_4core5slice5indexINtNtNtB9_3ops5range9RangeFromjEINtB5_10SliceIndexShE5indexCsll8mMrVlOqJ_18build_script_build, symObjAddr: 0x4908, symBinAddr: 0x1000054F8, symSize: 0x94 }
  - { offset: 0x76FB, size: 0x8, addend: 0x0, symName: __RNCINvNvNtNtNtNtCs85QQFkKrybG_4core4iter6traits8iterator8Iterator8for_each4callhNCINvMsi_NtCsdFlNUEO95cG_5alloc3vecINtB1p_3VechE14extend_trustedINtNtNtBc_8adapters3map3MapINtNtNtBe_5slice4iter4IterhENCNvNtB1r_3str13replace_ascii0EE0E0Csll8mMrVlOqJ_18build_script_build, symObjAddr: 0x1B00, symBinAddr: 0x1000026F0, symSize: 0x28 }
  - { offset: 0x84C9, size: 0x8, addend: 0x0, symName: __RNvYINtNtCs85QQFkKrybG_4core6option6OptionReENtNtB7_3cmp9PartialEq2neCsll8mMrVlOqJ_18build_script_build, symObjAddr: 0x5908, symBinAddr: 0x1000064F8, symSize: 0x30 }
  - { offset: 0x873D, size: 0x8, addend: 0x0, symName: __RNvXNtCs85QQFkKrybG_4core7convertReINtB2_5AsRefNtNtCswz7ZwgBZOU_3std4path4PathE6as_refCsll8mMrVlOqJ_18build_script_build, symObjAddr: 0x4720, symBinAddr: 0x100005310, symSize: 0x30 }
  - { offset: 0x877D, size: 0x8, addend: 0x0, symName: __RNvXNtCs85QQFkKrybG_4core7convertReINtB2_5AsRefNtNtNtCswz7ZwgBZOU_3std3ffi6os_str5OsStrE6as_refCsll8mMrVlOqJ_18build_script_build, symObjAddr: 0x4750, symBinAddr: 0x100005340, symSize: 0x30 }
  - { offset: 0x8E67, size: 0x8, addend: 0x0, symName: __RINvMsh_NtNtNtCsdFlNUEO95cG_5alloc11collections5btree4nodeINtB6_7NodeRefNtNtB6_6marker5DyingNtNtNtCswz7ZwgBZOU_3std3ffi6os_str8OsStringINtNtCs85QQFkKrybG_4core6option6OptionB1s_ENtB1a_14LeafOrInternalE21deallocate_and_ascendNtNtBc_5alloc6GlobalECsll8mMrVlOqJ_18build_script_build, symObjAddr: 0x818, symBinAddr: 0x100001408, symSize: 0x188 }
  - { offset: 0x90B9, size: 0x8, addend: 0x0, symName: __RINvMsj_NtNtNtCsdFlNUEO95cG_5alloc11collections5btree8navigateINtNtB8_4node6HandleINtB11_7NodeRefNtNtB11_6marker5DyingNtNtNtCswz7ZwgBZOU_3std3ffi6os_str8OsStringINtNtCs85QQFkKrybG_4core6option6OptionB1S_ENtB1z_4LeafENtB1z_4EdgeE16deallocating_endNtNtBc_5alloc6GlobalECsll8mMrVlOqJ_18build_script_build, symObjAddr: 0x9A0, symBinAddr: 0x100001590, symSize: 0xD4 }
  - { offset: 0x933A, size: 0x8, addend: 0x0, symName: __RINvMsj_NtNtNtCsdFlNUEO95cG_5alloc11collections5btree8navigateINtNtB8_4node6HandleINtB11_7NodeRefNtNtB11_6marker5DyingNtNtNtCswz7ZwgBZOU_3std3ffi6os_str8OsStringINtNtCs85QQFkKrybG_4core6option6OptionB1S_ENtB1z_4LeafENtB1z_4EdgeE17deallocating_nextNtNtBc_5alloc6GlobalECsll8mMrVlOqJ_18build_script_build, symObjAddr: 0xA74, symBinAddr: 0x100001664, symSize: 0x254 }
  - { offset: 0x9584, size: 0x8, addend: 0x0, symName: __RINvMsx_NtNtCs85QQFkKrybG_4core3str7patternNtB6_14TwoWaySearcher4nextNtB6_14RejectAndMatchECsll8mMrVlOqJ_18build_script_build, symObjAddr: 0xCC8, symBinAddr: 0x1000018B8, symSize: 0x540 }
  - { offset: 0x9906, size: 0x8, addend: 0x0, symName: __RINvMsx_NtNtCs85QQFkKrybG_4core3str7patternNtB6_14TwoWaySearcher4nextNtB6_9MatchOnlyECsll8mMrVlOqJ_18build_script_build, symObjAddr: 0x1208, symBinAddr: 0x100001DF8, symSize: 0x540 }
  - { offset: 0x9E6C, size: 0x8, addend: 0x0, symName: __RNvCsll8mMrVlOqJ_18build_script_build19rustc_minor_version, symObjAddr: 0x1C80, symBinAddr: 0x100002870, symSize: 0x498 }
  - { offset: 0x9F7D, size: 0x8, addend: 0x0, symName: __RNvCsll8mMrVlOqJ_18build_script_build4main, symObjAddr: 0x2118, symBinAddr: 0x100002D08, symSize: 0xC3C }
  - { offset: 0xA27E, size: 0x8, addend: 0x0, symName: __RNvMs1_NtNtCs85QQFkKrybG_4core3ptr8non_nullINtB5_7NonNullhE20offset_from_unsignedCsll8mMrVlOqJ_18build_script_build, symObjAddr: 0x2EA0, symBinAddr: 0x100003A90, symSize: 0x7C }
  - { offset: 0xA43E, size: 0x8, addend: 0x0, symName: __RNvMsO_NtNtNtCsdFlNUEO95cG_5alloc11collections5btree4nodeINtB5_6HandleINtB5_7NodeRefNtNtB5_6marker5DyingNtNtNtCswz7ZwgBZOU_3std3ffi6os_str8OsStringINtNtCs85QQFkKrybG_4core6option6OptionB1E_ENtB1m_8InternalENtB1m_4EdgeE7descendCsll8mMrVlOqJ_18build_script_build, symObjAddr: 0x34B8, symBinAddr: 0x1000040A8, symSize: 0x9C }
  - { offset: 0xA71D, size: 0x8, addend: 0x0, symName: __RNvMsT_NtNtNtCsdFlNUEO95cG_5alloc11collections5btree4nodeINtB5_6HandleINtB5_7NodeRefNtNtB5_6marker5DyingNtNtNtCswz7ZwgBZOU_3std3ffi6os_str8OsStringINtNtCs85QQFkKrybG_4core6option6OptionB1E_ENtB1m_14LeafOrInternalENtB1m_2KVE12drop_key_valCsll8mMrVlOqJ_18build_script_build, symObjAddr: 0x3554, symBinAddr: 0x100004144, symSize: 0x138 }
  - { offset: 0xAA13, size: 0x8, addend: 0x0, symName: __RNvMse_NtNtNtCsdFlNUEO95cG_5alloc11collections5btree4nodeINtB5_7NodeRefNtNtB5_6marker5DyingNtNtNtCswz7ZwgBZOU_3std3ffi6os_str8OsStringINtNtCs85QQFkKrybG_4core6option6OptionB1r_ENtB19_14LeafOrInternalE6ascendCsll8mMrVlOqJ_18build_script_build, symObjAddr: 0x368C, symBinAddr: 0x10000427C, symSize: 0x17C }
  - { offset: 0xABD3, size: 0x8, addend: 0x0, symName: __RNvMsf_NtNtCs85QQFkKrybG_4core3str4iterINtB5_13SplitInternalcE4nextCsll8mMrVlOqJ_18build_script_build, symObjAddr: 0x3808, symBinAddr: 0x1000043F8, symSize: 0x140 }
  - { offset: 0xAD17, size: 0x8, addend: 0x0, symName: __RNvMsf_NtNtCs85QQFkKrybG_4core3str4iterINtB5_13SplitInternalcE7get_endCsll8mMrVlOqJ_18build_script_build, symObjAddr: 0x3948, symBinAddr: 0x100004538, symSize: 0x128 }
  - { offset: 0xB031, size: 0x8, addend: 0x0, symName: __RNvMsp_NtNtNtCsdFlNUEO95cG_5alloc11collections5btree8navigateINtNtB7_4node6HandleINtB10_7NodeRefNtNtB10_6marker5DyingNtNtNtCswz7ZwgBZOU_3std3ffi6os_str8OsStringINtNtCs85QQFkKrybG_4core6option6OptionB1R_ENtB1y_14LeafOrInternalENtB1y_2KVE14next_leaf_edgeCsll8mMrVlOqJ_18build_script_build, symObjAddr: 0x3A70, symBinAddr: 0x100004660, symSize: 0x210 }
  - { offset: 0xB561, size: 0x8, addend: 0x0, symName: __RINvMs16_NtCswz7ZwgBZOU_3std4pathNtB7_4Path4joinReECsll8mMrVlOqJ_18build_script_build, symObjAddr: 0x0, symBinAddr: 0x100006554, symSize: 0x80 }
  - { offset: 0xB5C7, size: 0x8, addend: 0x0, symName: __RNvXNvNtCswz7ZwgBZOU_3std2io17default_write_fmtINtB2_7AdapterNtNtNtNtB6_3sys5stdio4unix6StderrENtNtCs85QQFkKrybG_4core3fmt5Write9write_strCsll8mMrVlOqJ_18build_script_build, symObjAddr: 0x306C, symBinAddr: 0x100009514, symSize: 0xB4 }
  - { offset: 0xB996, size: 0x8, addend: 0x0, symName: __RINvNtCswz7ZwgBZOU_3std2io17default_write_fmtNtNtNtNtB4_3sys5stdio4unix6StderrECsll8mMrVlOqJ_18build_script_build, symObjAddr: 0x1240, symBinAddr: 0x1000076EC, symSize: 0x120 }
  - { offset: 0xBA4A, size: 0x8, addend: 0x0, symName: __RNvYNtNtNtNtCswz7ZwgBZOU_3std3sys5stdio4unix6StderrNtNtBa_2io5Write9write_allCsll8mMrVlOqJ_18build_script_build, symObjAddr: 0x4310, symBinAddr: 0x10000A7B8, symSize: 0x268 }
  - { offset: 0xBBF2, size: 0x8, addend: 0x0, symName: __RNvYNtNtNtNtCswz7ZwgBZOU_3std3sys5stdio4unix6StderrNtNtBa_2io5Write9write_fmtCsll8mMrVlOqJ_18build_script_build, symObjAddr: 0x4578, symBinAddr: 0x10000AA20, symSize: 0x154 }
  - { offset: 0xBF63, size: 0x8, addend: 0x0, symName: __RINvNtNtCswz7ZwgBZOU_3std3sys9backtrace28___rust_begin_short_backtraceFEuuECsll8mMrVlOqJ_18build_script_build, symObjAddr: 0x16B4, symBinAddr: 0x100007B60, symSize: 0x24 }
  - { offset: 0xC020, size: 0x8, addend: 0x0, symName: __RNvNtNtNtCswz7ZwgBZOU_3std3sys2fs4unix23debug_assert_fd_is_openCsll8mMrVlOqJ_18build_script_build, symObjAddr: 0x24F8, symBinAddr: 0x1000089A0, symSize: 0xCC }
  - { offset: 0xC0B1, size: 0x8, addend: 0x0, symName: __RNCINvNtCswz7ZwgBZOU_3std2rt10lang_startuE0Csll8mMrVlOqJ_18build_script_build, symObjAddr: 0x1B14, symBinAddr: 0x100007FC0, symSize: 0x34 }
  - { offset: 0xC11B, size: 0x8, addend: 0x0, symName: __RINvNtCswz7ZwgBZOU_3std2rt10lang_startuECsll8mMrVlOqJ_18build_script_build, symObjAddr: 0x1360, symBinAddr: 0x10000780C, symSize: 0x60 }
  - { offset: 0xC250, size: 0x8, addend: 0x0, symName: __RNvXsV_NtNtCswz7ZwgBZOU_3std3ffi6os_strNtB5_8OsStringINtNtCs85QQFkKrybG_4core7convert5AsRefNtB5_5OsStrE6as_refCsll8mMrVlOqJ_18build_script_build, symObjAddr: 0x3ABC, symBinAddr: 0x100009F64, symSize: 0x2C }
  - { offset: 0xC2A2, size: 0x8, addend: 0x0, symName: __RNvXs3_NtNtCswz7ZwgBZOU_3std3ffi6os_strNtB5_8OsStringINtNtNtCs85QQFkKrybG_4core3ops5index5IndexNtNtBU_5range9RangeFullE5indexCsll8mMrVlOqJ_18build_script_build, symObjAddr: 0x3538, symBinAddr: 0x1000099E0, symSize: 0x80 }
  - { offset: 0xC3B1, size: 0x8, addend: 0x0, symName: __RNvXsW_NtNtCswz7ZwgBZOU_3std3ffi6os_streINtNtCs85QQFkKrybG_4core7convert5AsRefNtB5_5OsStrE6as_refCsll8mMrVlOqJ_18build_script_build, symObjAddr: 0x3AE8, symBinAddr: 0x100009F90, symSize: 0x18 }
  - { offset: 0xC459, size: 0x8, addend: 0x0, symName: __RNvXs1p_NtCswz7ZwgBZOU_3std4patheINtNtCs85QQFkKrybG_4core7convert5AsRefNtB6_4PathE6as_refCsll8mMrVlOqJ_18build_script_build, symObjAddr: 0x33E4, symBinAddr: 0x10000988C, symSize: 0x18 }
  - { offset: 0xC4AB, size: 0x8, addend: 0x0, symName: __RNvXsH_NtCswz7ZwgBZOU_3std4pathNtB5_7PathBufNtNtNtCs85QQFkKrybG_4core3ops5deref5Deref5derefCsll8mMrVlOqJ_18build_script_build, symObjAddr: 0x3A88, symBinAddr: 0x100009F30, symSize: 0x34 }
  - { offset: 0xC539, size: 0x8, addend: 0x0, symName: __RNvXs1r_NtCswz7ZwgBZOU_3std4pathNtB6_7PathBufINtNtCs85QQFkKrybG_4core7convert5AsRefNtB6_4PathE6as_refCsll8mMrVlOqJ_18build_script_build, symObjAddr: 0x33FC, symBinAddr: 0x1000098A4, symSize: 0x34 }
  - { offset: 0xC5E5, size: 0x8, addend: 0x0, symName: __RNvXsA_NtCswz7ZwgBZOU_3std4pathNtB5_7PathBufINtNtCs85QQFkKrybG_4core7convert4FromNtNtNtB7_3ffi6os_str8OsStringE4fromCsll8mMrVlOqJ_18build_script_build, symObjAddr: 0x3A4C, symBinAddr: 0x100009EF4, symSize: 0x18 }
  - { offset: 0xC6E4, size: 0x8, addend: 0x0, symName: __RNvXsZ_NtCswz7ZwgBZOU_3std7processuNtB5_11Termination6reportCsll8mMrVlOqJ_18build_script_build, symObjAddr: 0x3B00, symBinAddr: 0x100009FA8, symSize: 0x10 }
  - { offset: 0xC75D, size: 0x8, addend: 0x0, symName: __RINvNtCswz7ZwgBZOU_3std2fs5writeNtNtB4_4path7PathBufNtNtCsdFlNUEO95cG_5alloc6string6StringECsll8mMrVlOqJ_18build_script_build, symObjAddr: 0x1184, symBinAddr: 0x100007630, symSize: 0xBC }
  - { offset: 0xC7B4, size: 0x8, addend: 0x0, symName: __RINvNtCswz7ZwgBZOU_3std3env3varReECsll8mMrVlOqJ_18build_script_build, symObjAddr: 0x13C0, symBinAddr: 0x10000786C, symSize: 0x68 }
  - { offset: 0xC7E9, size: 0x8, addend: 0x0, symName: __RINvNtCswz7ZwgBZOU_3std3env6var_osReECsll8mMrVlOqJ_18build_script_build, symObjAddr: 0x1428, symBinAddr: 0x1000078D4, symSize: 0x68 }
  - { offset: 0xC825, size: 0x8, addend: 0x0, symName: __RNvXsk_NtCswz7ZwgBZOU_3std3envNtB5_8VarErrorNtNtCs85QQFkKrybG_4core3fmt5Debug3fmtCsll8mMrVlOqJ_18build_script_build, symObjAddr: 0x3EC4, symBinAddr: 0x10000A36C, symSize: 0xA0 }
  - { offset: 0xD5D1, size: 0x8, addend: 0x0, symName: __RINvNtCs85QQFkKrybG_4core3ptr13drop_in_placeINtNtB4_6option6OptionINtNtCsdFlNUEO95cG_5alloc5boxed3BoxSmEEECsll8mMrVlOqJ_18build_script_build, symObjAddr: 0x528, symBinAddr: 0x1000069D4, symSize: 0x44 }
  - { offset: 0xD600, size: 0x8, addend: 0x0, symName: __RINvNtCs85QQFkKrybG_4core3ptr13drop_in_placeINtNtB4_6option6OptionNtNtNtCsdFlNUEO95cG_5alloc3ffi5c_str7CStringEECsll8mMrVlOqJ_18build_script_build, symObjAddr: 0x56C, symBinAddr: 0x100006A18, symSize: 0x44 }
  - { offset: 0xD62F, size: 0x8, addend: 0x0, symName: __RINvNtCs85QQFkKrybG_4core3ptr13drop_in_placeINtNtB4_6option6OptionNtNtNtCswz7ZwgBZOU_3std3ffi6os_str8OsStringEECsll8mMrVlOqJ_18build_script_build, symObjAddr: 0x5B0, symBinAddr: 0x100006A5C, symSize: 0x48 }
  - { offset: 0xD65E, size: 0x8, addend: 0x0, symName: __RINvNtCs85QQFkKrybG_4core3ptr13drop_in_placeINtNtB4_6option6OptionNtNtNtNtNtCswz7ZwgBZOU_3std3sys7process4unix6common5StdioEECsll8mMrVlOqJ_18build_script_build, symObjAddr: 0x5F8, symBinAddr: 0x100006AA4, symSize: 0x44 }
  - { offset: 0xD68D, size: 0x8, addend: 0x0, symName: __RINvNtCs85QQFkKrybG_4core3ptr13drop_in_placeINtNtB4_6result6ResultNtNtCswz7ZwgBZOU_3std7process6OutputNtNtNtB16_2io5error5ErrorEECsll8mMrVlOqJ_18build_script_build, symObjAddr: 0x63C, symBinAddr: 0x100006AE8, symSize: 0x5C }
  - { offset: 0xD6BC, size: 0x8, addend: 0x0, symName: __RINvNtCs85QQFkKrybG_4core3ptr13drop_in_placeINtNtB4_6result6ResultuNtNtNtCswz7ZwgBZOU_3std2io5error5ErrorEECsll8mMrVlOqJ_18build_script_build, symObjAddr: 0x698, symBinAddr: 0x100006B44, symSize: 0x44 }
  - { offset: 0xD6EB, size: 0x8, addend: 0x0, symName: __RINvNtCs85QQFkKrybG_4core3ptr13drop_in_placeINtNtCsdFlNUEO95cG_5alloc3vec3VecINtNtBL_5boxed3BoxDINtNtNtB4_3ops8function5FnMutuEp6OutputINtNtB4_6result6ResultuNtNtNtCswz7ZwgBZOU_3std2io5error5ErrorENtNtB4_6marker4SyncNtB3b_4SendEL_EEECsll8mMrVlOqJ_18build_script_build, symObjAddr: 0x6DC, symBinAddr: 0x100006B88, symSize: 0x5C }
  - { offset: 0xD71A, size: 0x8, addend: 0x0, symName: __RINvNtCs85QQFkKrybG_4core3ptr13drop_in_placeINtNtCsdFlNUEO95cG_5alloc3vec3VecPaEECsll8mMrVlOqJ_18build_script_build, symObjAddr: 0x738, symBinAddr: 0x100006BE4, symSize: 0x5C }
  - { offset: 0xD749, size: 0x8, addend: 0x0, symName: __RINvNtCs85QQFkKrybG_4core3ptr13drop_in_placeINtNtCsdFlNUEO95cG_5alloc3vec3VechEECsll8mMrVlOqJ_18build_script_build, symObjAddr: 0x794, symBinAddr: 0x100006C40, symSize: 0x5C }
  - { offset: 0xD778, size: 0x8, addend: 0x0, symName: __RINvNtCs85QQFkKrybG_4core3ptr13drop_in_placeINtNtCsdFlNUEO95cG_5alloc5boxed3BoxDINtNtNtB4_3ops8function5FnMutuEp6OutputINtNtB4_6result6ResultuNtNtNtCswz7ZwgBZOU_3std2io5error5ErrorENtNtB4_6marker4SyncNtB2V_4SendEL_EECsll8mMrVlOqJ_18build_script_build, symObjAddr: 0x7F0, symBinAddr: 0x100006C9C, symSize: 0x80 }
  - { offset: 0xD7A7, size: 0x8, addend: 0x0, symName: __RINvNtCs85QQFkKrybG_4core3ptr13drop_in_placeINtNtCsdFlNUEO95cG_5alloc5boxed3BoxDNtNtB4_5error5ErrorNtNtB4_6marker4SyncNtB1B_4SendEL_EECsll8mMrVlOqJ_18build_script_build, symObjAddr: 0x870, symBinAddr: 0x100006D1C, symSize: 0x80 }
  - { offset: 0xD7D6, size: 0x8, addend: 0x0, symName: __RINvNtCs85QQFkKrybG_4core3ptr13drop_in_placeINtNtCsdFlNUEO95cG_5alloc5boxed3BoxNtNtNtCswz7ZwgBZOU_3std2io5error6CustomEECsll8mMrVlOqJ_18build_script_build, symObjAddr: 0x8F0, symBinAddr: 0x100006D9C, symSize: 0x60 }
  - { offset: 0xD805, size: 0x8, addend: 0x0, symName: __RINvNtCs85QQFkKrybG_4core3ptr13drop_in_placeINtNtCsdFlNUEO95cG_5alloc5boxed3BoxShEECsll8mMrVlOqJ_18build_script_build, symObjAddr: 0x950, symBinAddr: 0x100006DFC, symSize: 0x2C }
  - { offset: 0xD834, size: 0x8, addend: 0x0, symName: __RINvNtCs85QQFkKrybG_4core3ptr13drop_in_placeINtNtCsdFlNUEO95cG_5alloc5boxed3BoxSmEECsll8mMrVlOqJ_18build_script_build, symObjAddr: 0x97C, symBinAddr: 0x100006E28, symSize: 0x2C }
  - { offset: 0xD863, size: 0x8, addend: 0x0, symName: __RINvNtCs85QQFkKrybG_4core3ptr13drop_in_placeINtNtCsdFlNUEO95cG_5alloc7raw_vec6RawVecINtNtBL_5boxed3BoxDINtNtNtB4_3ops8function5FnMutuEp6OutputINtNtB4_6result6ResultuNtNtNtCswz7ZwgBZOU_3std2io5error5ErrorENtNtB4_6marker4SyncNtB3i_4SendEL_EEECsll8mMrVlOqJ_18build_script_build, symObjAddr: 0x9A8, symBinAddr: 0x100006E54, symSize: 0x24 }
  - { offset: 0xD892, size: 0x8, addend: 0x0, symName: __RINvNtCs85QQFkKrybG_4core3ptr13drop_in_placeINtNtCsdFlNUEO95cG_5alloc7raw_vec6RawVecPaEECsll8mMrVlOqJ_18build_script_build, symObjAddr: 0x9CC, symBinAddr: 0x100006E78, symSize: 0x24 }
  - { offset: 0xD8C1, size: 0x8, addend: 0x0, symName: __RINvNtCs85QQFkKrybG_4core3ptr13drop_in_placeINtNtCsdFlNUEO95cG_5alloc7raw_vec6RawVechEECsll8mMrVlOqJ_18build_script_build, symObjAddr: 0x9F0, symBinAddr: 0x100006E9C, symSize: 0x24 }
  - { offset: 0xD8F0, size: 0x8, addend: 0x0, symName: __RINvNtCs85QQFkKrybG_4core3ptr13drop_in_placeINtNtNtCswz7ZwgBZOU_3std2io5error9ErrorDataINtNtCsdFlNUEO95cG_5alloc5boxed3BoxNtBJ_6CustomEEECsll8mMrVlOqJ_18build_script_build, symObjAddr: 0xA14, symBinAddr: 0x100006EC0, symSize: 0x48 }
  - { offset: 0xD91F, size: 0x8, addend: 0x0, symName: __RINvNtCs85QQFkKrybG_4core3ptr13drop_in_placeINtNtNtNtCsdFlNUEO95cG_5alloc11collections5btree3map8BTreeMapNtNtNtCswz7ZwgBZOU_3std3ffi6os_str8OsStringINtNtB4_6option6OptionB1F_EEECsll8mMrVlOqJ_18build_script_build, symObjAddr: 0xA5C, symBinAddr: 0x100006F08, symSize: 0x24 }
  - { offset: 0xD94E, size: 0x8, addend: 0x0, symName: __RINvNtCs85QQFkKrybG_4core3ptr13drop_in_placeINtNtNtNtCsdFlNUEO95cG_5alloc11collections5btree3map8IntoIterNtNtNtCswz7ZwgBZOU_3std3ffi6os_str8OsStringINtNtB4_6option6OptionB1F_EEECsll8mMrVlOqJ_18build_script_build, symObjAddr: 0xA80, symBinAddr: 0x100006F2C, symSize: 0x24 }
  - { offset: 0xD97D, size: 0x8, addend: 0x0, symName: __RINvNtCs85QQFkKrybG_4core3ptr13drop_in_placeINtNvMsT_NtNtNtCsdFlNUEO95cG_5alloc11collections5btree4nodeINtBP_6HandleINtBP_7NodeRefNtNtBP_6marker5DyingpppENtB26_2KVE12drop_key_val7DropperINtNtB4_6option6OptionNtNtNtCswz7ZwgBZOU_3std3ffi6os_str8OsStringEEECsll8mMrVlOqJ_18build_script_build, symObjAddr: 0xAA4, symBinAddr: 0x100006F50, symSize: 0x24 }
  - { offset: 0xD9AC, size: 0x8, addend: 0x0, symName: __RINvNtCs85QQFkKrybG_4core3ptr13drop_in_placeINtNvNtCswz7ZwgBZOU_3std2io17default_write_fmt7AdapterNtNtNtNtBN_3sys5stdio4unix6StderrEECsll8mMrVlOqJ_18build_script_build, symObjAddr: 0xAC8, symBinAddr: 0x100006F74, symSize: 0x24 }
  - { offset: 0xD9DB, size: 0x8, addend: 0x0, symName: __RINvNtCs85QQFkKrybG_4core3ptr13drop_in_placeINtNvXsw_NtNtNtCsdFlNUEO95cG_5alloc11collections5btree3mapINtBP_8IntoIterpppENtNtNtB4_3ops4drop4Drop4drop9DropGuardNtNtNtCswz7ZwgBZOU_3std3ffi6os_str8OsStringINtNtB4_6option6OptionB2x_ENtNtBV_5alloc6GlobalEECsll8mMrVlOqJ_18build_script_build, symObjAddr: 0xAEC, symBinAddr: 0x100006F98, symSize: 0x24 }
  - { offset: 0xDA0A, size: 0x8, addend: 0x0, symName: __RINvNtCs85QQFkKrybG_4core3ptr13drop_in_placeNCINvMsi_NtCsdFlNUEO95cG_5alloc3vecINtBP_3VechE14extend_trustedINtNtNtNtB4_4iter8adapters3map3MapINtNtNtB4_5slice4iter4IterhENCNvNtBR_3str13replace_ascii0EE0ECsll8mMrVlOqJ_18build_script_build, symObjAddr: 0xB10, symBinAddr: 0x100006FBC, symSize: 0x24 }
  - { offset: 0xDA39, size: 0x8, addend: 0x0, symName: __RINvNtCs85QQFkKrybG_4core3ptr13drop_in_placeNCINvNtNtNtB4_4iter8adapters3map8map_foldRhhuNCNvNtCsdFlNUEO95cG_5alloc3str13replace_ascii0NCINvNvNtNtNtBP_6traits8iterator8Iterator8for_each4callhNCINvMsi_NtB1v_3vecINtB3c_3VechE14extend_trustedINtBL_3MapINtNtNtB4_5slice4iter4IterhEB1p_EE0E0E0ECsll8mMrVlOqJ_18build_script_build, symObjAddr: 0xB34, symBinAddr: 0x100006FE0, symSize: 0x24 }
  - { offset: 0xDA68, size: 0x8, addend: 0x0, symName: __RINvNtCs85QQFkKrybG_4core3ptr13drop_in_placeNCINvNvNtNtNtNtB4_4iter6traits8iterator8Iterator8for_each4callhNCINvMsi_NtCsdFlNUEO95cG_5alloc3vecINtB1Q_3VechE14extend_trustedINtNtNtBT_8adapters3map3MapINtNtNtB4_5slice4iter4IterhENCNvNtB1S_3str13replace_ascii0EE0E0ECsll8mMrVlOqJ_18build_script_build, symObjAddr: 0xB58, symBinAddr: 0x100007004, symSize: 0x24 }
  - { offset: 0xDA97, size: 0x8, addend: 0x0, symName: __RINvNtCs85QQFkKrybG_4core3ptr13drop_in_placeNtNtCsdFlNUEO95cG_5alloc6string6StringECsll8mMrVlOqJ_18build_script_build, symObjAddr: 0xB7C, symBinAddr: 0x100007028, symSize: 0x24 }
  - { offset: 0xDAC6, size: 0x8, addend: 0x0, symName: __RINvNtCs85QQFkKrybG_4core3ptr13drop_in_placeNtNtCswz7ZwgBZOU_3std3env8VarErrorECsll8mMrVlOqJ_18build_script_build, symObjAddr: 0xBA0, symBinAddr: 0x10000704C, symSize: 0x48 }
  - { offset: 0xDAF5, size: 0x8, addend: 0x0, symName: __RINvNtCs85QQFkKrybG_4core3ptr13drop_in_placeNtNtCswz7ZwgBZOU_3std4path7PathBufECsll8mMrVlOqJ_18build_script_build, symObjAddr: 0xBE8, symBinAddr: 0x100007094, symSize: 0x24 }
  - { offset: 0xDB24, size: 0x8, addend: 0x0, symName: __RINvNtCs85QQFkKrybG_4core3ptr13drop_in_placeNtNtCswz7ZwgBZOU_3std7process6OutputECsll8mMrVlOqJ_18build_script_build, symObjAddr: 0xC0C, symBinAddr: 0x1000070B8, symSize: 0x60 }
  - { offset: 0xDB53, size: 0x8, addend: 0x0, symName: __RINvNtCs85QQFkKrybG_4core3ptr13drop_in_placeNtNtCswz7ZwgBZOU_3std7process7CommandECsll8mMrVlOqJ_18build_script_build, symObjAddr: 0xC6C, symBinAddr: 0x100007118, symSize: 0x24 }
  - { offset: 0xDB82, size: 0x8, addend: 0x0, symName: __RINvNtCs85QQFkKrybG_4core3ptr13drop_in_placeNtNtNtCsdFlNUEO95cG_5alloc3ffi5c_str7CStringECsll8mMrVlOqJ_18build_script_build, symObjAddr: 0xC90, symBinAddr: 0x10000713C, symSize: 0x5C }
  - { offset: 0xDBB1, size: 0x8, addend: 0x0, symName: __RINvNtCs85QQFkKrybG_4core3ptr13drop_in_placeNtNtNtCsdFlNUEO95cG_5alloc3vec15set_len_on_drop12SetLenOnDropECsll8mMrVlOqJ_18build_script_build, symObjAddr: 0xCEC, symBinAddr: 0x100007198, symSize: 0x24 }
  - { offset: 0xDBE0, size: 0x8, addend: 0x0, symName: __RINvNtCs85QQFkKrybG_4core3ptr13drop_in_placeNtNtNtCswz7ZwgBZOU_3std2io5error5ErrorECsll8mMrVlOqJ_18build_script_build, symObjAddr: 0xD10, symBinAddr: 0x1000071BC, symSize: 0x24 }
  - { offset: 0xDC0F, size: 0x8, addend: 0x0, symName: __RINvNtCs85QQFkKrybG_4core3ptr13drop_in_placeNtNtNtCswz7ZwgBZOU_3std2io5error6CustomECsll8mMrVlOqJ_18build_script_build, symObjAddr: 0xD34, symBinAddr: 0x1000071E0, symSize: 0x24 }
  - { offset: 0xDC3E, size: 0x8, addend: 0x0, symName: __RINvNtCs85QQFkKrybG_4core3ptr13drop_in_placeNtNtNtCswz7ZwgBZOU_3std3ffi6os_str8OsStringECsll8mMrVlOqJ_18build_script_build, symObjAddr: 0xD58, symBinAddr: 0x100007204, symSize: 0x24 }
  - { offset: 0xDC6D, size: 0x8, addend: 0x0, symName: __RINvNtCs85QQFkKrybG_4core3ptr13drop_in_placeNtNtNtNtCswz7ZwgBZOU_3std2io5error14repr_bitpacked4ReprECsll8mMrVlOqJ_18build_script_build, symObjAddr: 0xD7C, symBinAddr: 0x100007228, symSize: 0x24 }
  - { offset: 0xDC9C, size: 0x8, addend: 0x0, symName: __RINvNtCs85QQFkKrybG_4core3ptr13drop_in_placeNtNtNtNtCswz7ZwgBZOU_3std2os2fd5owned7OwnedFdECsll8mMrVlOqJ_18build_script_build, symObjAddr: 0xDA0, symBinAddr: 0x10000724C, symSize: 0x24 }
  - { offset: 0xDCCB, size: 0x8, addend: 0x0, symName: __RINvNtCs85QQFkKrybG_4core3ptr13drop_in_placeNtNtNtNtCswz7ZwgBZOU_3std3sys2fd4unix8FileDescECsll8mMrVlOqJ_18build_script_build, symObjAddr: 0xDC4, symBinAddr: 0x100007270, symSize: 0x24 }
  - { offset: 0xDCFA, size: 0x8, addend: 0x0, symName: __RINvNtCs85QQFkKrybG_4core3ptr13drop_in_placeNtNtNtNtCswz7ZwgBZOU_3std3sys6os_str5bytes3BufECsll8mMrVlOqJ_18build_script_build, symObjAddr: 0xDE8, symBinAddr: 0x100007294, symSize: 0x24 }
  - { offset: 0xDD29, size: 0x8, addend: 0x0, symName: __RINvNtCs85QQFkKrybG_4core3ptr13drop_in_placeNtNtNtNtCswz7ZwgBZOU_3std3sys7process3env10CommandEnvECsll8mMrVlOqJ_18build_script_build, symObjAddr: 0xE0C, symBinAddr: 0x1000072B8, symSize: 0x24 }
  - { offset: 0xDD58, size: 0x8, addend: 0x0, symName: __RINvNtCs85QQFkKrybG_4core3ptr13drop_in_placeNtNtNtNtNtCswz7ZwgBZOU_3std3sys7process4unix6common5StdioECsll8mMrVlOqJ_18build_script_build, symObjAddr: 0xE30, symBinAddr: 0x1000072DC, symSize: 0x44 }
  - { offset: 0xDD87, size: 0x8, addend: 0x0, symName: __RINvNtCs85QQFkKrybG_4core3ptr13drop_in_placeNtNtNtNtNtCswz7ZwgBZOU_3std3sys7process4unix6common7CommandECsll8mMrVlOqJ_18build_script_build, symObjAddr: 0xE74, symBinAddr: 0x100007320, symSize: 0x1DC }
  - { offset: 0xDDB6, size: 0x8, addend: 0x0, symName: __RINvNtCs85QQFkKrybG_4core3ptr13drop_in_placeNtNtNtNtNtNtCswz7ZwgBZOU_3std3sys7process4unix6common13cstring_array12CStringArrayECsll8mMrVlOqJ_18build_script_build, symObjAddr: 0x1050, symBinAddr: 0x1000074FC, symSize: 0x5C }
  - { offset: 0xDDE5, size: 0x8, addend: 0x0, symName: __RINvNtCs85QQFkKrybG_4core3ptr13drop_in_placeNtNvNtNtNtCsdFlNUEO95cG_5alloc11collections5btree3mem7replace10PanicGuardECsll8mMrVlOqJ_18build_script_build, symObjAddr: 0x10AC, symBinAddr: 0x100007558, symSize: 0x24 }
  - { offset: 0xDE14, size: 0x8, addend: 0x0, symName: __RINvNtCs85QQFkKrybG_4core3ptr13drop_in_placeSINtNtCsdFlNUEO95cG_5alloc5boxed3BoxDINtNtNtB4_3ops8function5FnMutuEp6OutputINtNtB4_6result6ResultuNtNtNtCswz7ZwgBZOU_3std2io5error5ErrorENtNtB4_6marker4SyncNtB2W_4SendEL_EECsll8mMrVlOqJ_18build_script_build, symObjAddr: 0x10D0, symBinAddr: 0x10000757C, symSize: 0xB4 }
  - { offset: 0xDF7B, size: 0x8, addend: 0x0, symName: __RNvNvMNtNtCs85QQFkKrybG_4core3ptr9const_ptrPp20offset_from_unsigned18precondition_checkCsll8mMrVlOqJ_18build_script_build, symObjAddr: 0x25C4, symBinAddr: 0x100008A6C, symSize: 0xAC }
  - { offset: 0xE29E, size: 0x8, addend: 0x0, symName: __RNvXs5_NtNtCs85QQFkKrybG_4core3num5errorNtB5_15TryFromIntErrorNtNtB9_3fmt5Debug3fmtCsll8mMrVlOqJ_18build_script_build, symObjAddr: 0x35B8, symBinAddr: 0x100009A60, symSize: 0x54 }
  - { offset: 0xE6AB, size: 0x8, addend: 0x0, symName: __RNvXs19_NtCs85QQFkKrybG_4core3fmtRNtNtNtCswz7ZwgBZOU_3std3ffi6os_str8OsStringNtB6_5Debug3fmtCsll8mMrVlOqJ_18build_script_build, symObjAddr: 0x3224, symBinAddr: 0x1000096CC, symSize: 0x30 }
  - { offset: 0xE701, size: 0x8, addend: 0x0, symName: __RNvXs_NvNtNtCs85QQFkKrybG_4core3fmt5Write9write_fmtQINtNvNtCswz7ZwgBZOU_3std2io17default_write_fmt7AdapterNtNtNtNtBV_3sys5stdio4unix6StderrENtB4_12SpecWriteFmt14spec_write_fmtCsll8mMrVlOqJ_18build_script_build, symObjAddr: 0x3D64, symBinAddr: 0x10000A20C, symSize: 0x160 }
  - { offset: 0xE7B8, size: 0x8, addend: 0x0, symName: __RNvYINtNvNtCswz7ZwgBZOU_3std2io17default_write_fmt7AdapterNtNtNtNtB9_3sys5stdio4unix6StderrENtNtCs85QQFkKrybG_4core3fmt5Write10write_charCsll8mMrVlOqJ_18build_script_build, symObjAddr: 0x4230, symBinAddr: 0x10000A6D8, symSize: 0x70 }
  - { offset: 0xE820, size: 0x8, addend: 0x0, symName: __RNvYINtNvNtCswz7ZwgBZOU_3std2io17default_write_fmt7AdapterNtNtNtNtB9_3sys5stdio4unix6StderrENtNtCs85QQFkKrybG_4core3fmt5Write9write_fmtCsll8mMrVlOqJ_18build_script_build, symObjAddr: 0x42A0, symBinAddr: 0x10000A748, symSize: 0x24 }
  - { offset: 0xF622, size: 0x8, addend: 0x0, symName: __RNCINvNtNtNtCs85QQFkKrybG_4core4iter8adapters3map8map_foldRhhuNCNvNtCsdFlNUEO95cG_5alloc3str13replace_ascii0NCINvNvNtNtNtB8_6traits8iterator8Iterator8for_each4callhNCINvMsi_NtB14_3vecINtB2L_3VechE14extend_trustedINtB4_3MapINtNtNtBa_5slice4iter4IterhEBY_EE0E0E0Csll8mMrVlOqJ_18build_script_build, symObjAddr: 0x1B48, symBinAddr: 0x100007FF4, symSize: 0x7C }
  - { offset: 0xF6AD, size: 0x8, addend: 0x0, symName: __RINvXs0_NtNtNtCs85QQFkKrybG_4core4iter8adapters3mapINtB6_3MapINtNtNtBc_5slice4iter4IterhENCNvNtCsdFlNUEO95cG_5alloc3str13replace_ascii0ENtNtNtBa_6traits8iterator8Iterator4folduNCINvNvB2a_8for_each4callhNCINvMsi_NtB1v_3vecINtB3n_3VechE14extend_trustedBN_E0E0ECsll8mMrVlOqJ_18build_script_build, symObjAddr: 0x17A4, symBinAddr: 0x100007C50, symSize: 0x58 }
  - { offset: 0xF746, size: 0x8, addend: 0x0, symName: __RNvXs0_NtNtNtCs85QQFkKrybG_4core4iter8adapters3mapINtB5_3MapINtNtNtBb_5slice4iter4IterhENCNvNtCsdFlNUEO95cG_5alloc3str13replace_ascii0ENtNtNtB9_6traits8iterator8Iterator9size_hintCsll8mMrVlOqJ_18build_script_build, symObjAddr: 0x3200, symBinAddr: 0x1000096A8, symSize: 0x24 }
  - { offset: 0xF7EE, size: 0x8, addend: 0x0, symName: __RINvYINtNtNtNtCs85QQFkKrybG_4core4iter8adapters3map3MapINtNtNtBc_5slice4iter4IterhENCNvNtCsdFlNUEO95cG_5alloc3str13replace_ascii0ENtNtNtBa_6traits8iterator8Iterator7collectINtNtB1p_3vec3VechEECsll8mMrVlOqJ_18build_script_build, symObjAddr: 0x19F0, symBinAddr: 0x100007E9C, symSize: 0x68 }
  - { offset: 0xF884, size: 0x8, addend: 0x0, symName: __RINvYINtNtNtNtCs85QQFkKrybG_4core4iter8adapters3map3MapINtNtNtBc_5slice4iter4IterhENCNvNtCsdFlNUEO95cG_5alloc3str13replace_ascii0ENtNtNtBa_6traits8iterator8Iterator8for_eachNCINvMsi_NtB1p_3vecINtB2U_3VechE14extend_trustedB3_E0ECsll8mMrVlOqJ_18build_script_build, symObjAddr: 0x1A58, symBinAddr: 0x100007F04, symSize: 0x34 }
  - { offset: 0xF8FC, size: 0x8, addend: 0x0, symName: __RNvXNtNtNtCs85QQFkKrybG_4core4iter6traits7collectINtNtNtB6_8adapters3map3MapINtNtNtB8_5slice4iter4IterhENCNvNtCsdFlNUEO95cG_5alloc3str13replace_ascii0ENtB2_12IntoIterator9into_iterCsll8mMrVlOqJ_18build_script_build, symObjAddr: 0x300C, symBinAddr: 0x1000094B4, symSize: 0x14 }
  - { offset: 0xF97C, size: 0x8, addend: 0x0, symName: __RINvXs2E_NtNtCs85QQFkKrybG_4core5slice4iterINtB7_4IterhENtNtNtNtBb_4iter6traits8iterator8Iterator4folduNCINvNtNtBY_8adapters3map8map_foldRhhuNCNvNtCsdFlNUEO95cG_5alloc3str13replace_ascii0NCINvNvBS_8for_each4callhNCINvMsi_NtB2l_3vecINtB3x_3VechE14extend_trustedINtB1I_3MapBF_B2f_EE0E0E0ECsll8mMrVlOqJ_18build_script_build, symObjAddr: 0x17FC, symBinAddr: 0x100007CA8, symSize: 0x1B8 }
  - { offset: 0xFAD1, size: 0x8, addend: 0x0, symName: __RNvXs2E_NtNtCs85QQFkKrybG_4core5slice4iterINtB6_4IterhENtNtNtNtBa_4iter6traits8iterator8Iterator4nextCsll8mMrVlOqJ_18build_script_build, symObjAddr: 0x3430, symBinAddr: 0x1000098D8, symSize: 0xA8 }
  - { offset: 0xFC0B, size: 0x8, addend: 0x0, symName: __RNvXs2E_NtNtCs85QQFkKrybG_4core5slice4iterINtB6_4IterhENtNtNtNtBa_4iter6traits8iterator8Iterator9size_hintCsll8mMrVlOqJ_18build_script_build, symObjAddr: 0x34D8, symBinAddr: 0x100009980, symSize: 0x60 }
  - { offset: 0xFCE6, size: 0x8, addend: 0x0, symName: __RNvNvNtNtCs85QQFkKrybG_4core5slice3raw14from_raw_parts18precondition_checkCsll8mMrVlOqJ_18build_script_build, symObjAddr: 0x2958, symBinAddr: 0x100008E00, symSize: 0x1D8 }
  - { offset: 0xFE84, size: 0x8, addend: 0x0, symName: __RNvNvNtNtCs85QQFkKrybG_4core5slice3raw18from_raw_parts_mut18precondition_checkCsll8mMrVlOqJ_18build_script_build, symObjAddr: 0x2B30, symBinAddr: 0x100008FD8, symSize: 0x1D8 }
  - { offset: 0x100B8, size: 0x8, addend: 0x0, symName: __RNvNtNtCs85QQFkKrybG_4core5slice6memchr6memchrCsll8mMrVlOqJ_18build_script_build, symObjAddr: 0x23E4, symBinAddr: 0x10000888C, symSize: 0x114 }
  - { offset: 0x10131, size: 0x8, addend: 0x0, symName: __RNvNvXs0_NtNtCs85QQFkKrybG_4core5slice5indexjINtB7_10SliceIndexSpE13get_unchecked18precondition_checkCsll8mMrVlOqJ_18build_script_build, symObjAddr: 0x2D08, symBinAddr: 0x1000091B0, symSize: 0xAC }
  - { offset: 0x1019F, size: 0x8, addend: 0x0, symName: __RNvNvXs0_NtNtCs85QQFkKrybG_4core5slice5indexjINtB7_10SliceIndexSpE17get_unchecked_mut18precondition_checkCsll8mMrVlOqJ_18build_script_build, symObjAddr: 0x2DB4, symBinAddr: 0x10000925C, symSize: 0xAC }
  - { offset: 0x10244, size: 0x8, addend: 0x0, symName: __RNvNvXs2_NtNtCs85QQFkKrybG_4core5slice5indexINtNtNtBb_3ops5range5RangejEINtB7_10SliceIndexSpE13get_unchecked18precondition_checkCsll8mMrVlOqJ_18build_script_build, symObjAddr: 0x2E60, symBinAddr: 0x100009308, symSize: 0xCC }
  - { offset: 0x104F9, size: 0x8, addend: 0x0, symName: __RINvNtNtCs85QQFkKrybG_4core3str11validations15next_code_pointINtNtNtB6_5slice4iter4IterhEECsll8mMrVlOqJ_18build_script_build, symObjAddr: 0x1490, symBinAddr: 0x10000793C, symSize: 0x224 }
  - { offset: 0x1077B, size: 0x8, addend: 0x0, symName: __RNvNvXs5_NtNtCs85QQFkKrybG_4core3str6traitsINtNtNtBb_3ops5range5RangejEINtNtNtBb_5slice5index10SliceIndexeE13get_unchecked18precondition_checkCsll8mMrVlOqJ_18build_script_build, symObjAddr: 0x2F2C, symBinAddr: 0x1000093D4, symSize: 0xCC }
  - { offset: 0x1081F, size: 0x8, addend: 0x0, symName: __RNvXs_NtNtCs85QQFkKrybG_4core3str6traitseNtNtB8_3cmp9PartialEq2eqCsll8mMrVlOqJ_18build_script_build, symObjAddr: 0x3B10, symBinAddr: 0x100009FB8, symSize: 0xAC }
  - { offset: 0x10AEF, size: 0x8, addend: 0x0, symName: __RNSNvYNCINvNtCswz7ZwgBZOU_3std2rt10lang_startuE0INtNtNtCs85QQFkKrybG_4core3ops8function6FnOnceuE9call_once6vtableCsll8mMrVlOqJ_18build_script_build, symObjAddr: 0x1BC4, symBinAddr: 0x100008070, symSize: 0x28 }
  - { offset: 0x10B33, size: 0x8, addend: 0x0, symName: __RNvYFEuINtNtNtCs85QQFkKrybG_4core3ops8function6FnOnceuE9call_onceCsll8mMrVlOqJ_18build_script_build, symObjAddr: 0x4210, symBinAddr: 0x10000A6B8, symSize: 0x20 }
  - { offset: 0x10B73, size: 0x8, addend: 0x0, symName: __RNvYNCINvNtCswz7ZwgBZOU_3std2rt10lang_startuE0INtNtNtCs85QQFkKrybG_4core3ops8function6FnOnceuE9call_onceCsll8mMrVlOqJ_18build_script_build, symObjAddr: 0x42C4, symBinAddr: 0x10000A76C, symSize: 0x4C }
  - { offset: 0x10C54, size: 0x8, addend: 0x0, symName: __RNvNvNtCs85QQFkKrybG_4core4hint16assert_unchecked18precondition_checkCsll8mMrVlOqJ_18build_script_build, symObjAddr: 0x272C, symBinAddr: 0x100008BD4, symSize: 0xA4 }
  - { offset: 0x10CB4, size: 0x8, addend: 0x0, symName: __RNvNvNtCs85QQFkKrybG_4core4hint21unreachable_unchecked18precondition_checkCsll8mMrVlOqJ_18build_script_build, symObjAddr: 0x27D0, symBinAddr: 0x100008C78, symSize: 0x84 }
  - { offset: 0x10E09, size: 0x8, addend: 0x0, symName: __RNvNvMNtNtCs85QQFkKrybG_4core5alloc6layoutNtB4_6Layout25from_size_align_unchecked18precondition_checkCsll8mMrVlOqJ_18build_script_build, symObjAddr: 0x2670, symBinAddr: 0x100008B18, symSize: 0xBC }
  - { offset: 0x10EB5, size: 0x8, addend: 0x0, symName: __RNvNvNtNtCs85QQFkKrybG_4core4char7convert18from_u32_unchecked18precondition_checkCsll8mMrVlOqJ_18build_script_build, symObjAddr: 0x2854, symBinAddr: 0x100008CFC, symSize: 0x104 }
  - { offset: 0x11168, size: 0x8, addend: 0x0, symName: __RNvXs7_NtNtCs85QQFkKrybG_4core3cmp5implsReNtB7_9PartialEq2eqCsll8mMrVlOqJ_18build_script_build, symObjAddr: 0x3A08, symBinAddr: 0x100009EB0, symSize: 0x44 }
  - { offset: 0x1122A, size: 0x8, addend: 0x0, symName: __RNvYjNtNtCs85QQFkKrybG_4core3cmp3Ord3maxCsll8mMrVlOqJ_18build_script_build, symObjAddr: 0x46CC, symBinAddr: 0x10000AB74, symSize: 0x80 }
  - { offset: 0x11515, size: 0x8, addend: 0x0, symName: __RNvXs_NtNtCsdFlNUEO95cG_5alloc3vec15set_len_on_dropNtB4_12SetLenOnDropNtNtNtCs85QQFkKrybG_4core3ops4drop4Drop4dropCsll8mMrVlOqJ_18build_script_build, symObjAddr: 0x3BE0, symBinAddr: 0x10000A088, symSize: 0x20 }
  - { offset: 0x1161D, size: 0x8, addend: 0x0, symName: __RNCINvMsi_NtCsdFlNUEO95cG_5alloc3vecINtB8_3VechE14extend_trustedINtNtNtNtCs85QQFkKrybG_4core4iter8adapters3map3MapINtNtNtB19_5slice4iter4IterhENCNvNtBa_3str13replace_ascii0EE0Csll8mMrVlOqJ_18build_script_build, symObjAddr: 0x1A8C, symBinAddr: 0x100007F38, symSize: 0x30 }
  - { offset: 0x116CC, size: 0x8, addend: 0x0, symName: __RINvXsd_NtCsdFlNUEO95cG_5alloc3vecINtB6_3VechEINtNtNtNtCs85QQFkKrybG_4core4iter6traits7collect12FromIteratorhE9from_iterINtNtNtBP_8adapters3map3MapINtNtNtBR_5slice4iter4IterhENCNvNtB8_3str13replace_ascii0EECsll8mMrVlOqJ_18build_script_build, symObjAddr: 0x19B4, symBinAddr: 0x100007E60, symSize: 0x3C }
  - { offset: 0x11718, size: 0x8, addend: 0x0, symName: __RNvXNtNtCsdFlNUEO95cG_5alloc3vec14spec_from_iterINtB4_3VechEINtB2_12SpecFromIterhINtNtNtNtCs85QQFkKrybG_4core4iter8adapters3map3MapINtNtNtB1q_5slice4iter4IterhENCNvNtB6_3str13replace_ascii0EE9from_iterCsll8mMrVlOqJ_18build_script_build, symObjAddr: 0x2FF8, symBinAddr: 0x1000094A0, symSize: 0x14 }
  - { offset: 0x1175E, size: 0x8, addend: 0x0, symName: __RNvXs6_NtCsdFlNUEO95cG_5alloc3vecINtB5_3VechENtNtNtCs85QQFkKrybG_4core3ops5deref5Deref5derefCsll8mMrVlOqJ_18build_script_build, symObjAddr: 0x360C, symBinAddr: 0x100009AB4, symSize: 0x24 }
  - { offset: 0x117A9, size: 0x8, addend: 0x0, symName: __RNvXs_NtNtCsdFlNUEO95cG_5alloc3vec11spec_extendINtB6_3VechEINtB4_10SpecExtendhINtNtNtNtCs85QQFkKrybG_4core4iter8adapters3map3MapINtNtNtB1n_5slice4iter4IterhENCNvNtB8_3str13replace_ascii0EE11spec_extendCsll8mMrVlOqJ_18build_script_build, symObjAddr: 0x3BBC, symBinAddr: 0x10000A064, symSize: 0x24 }
  - { offset: 0x11807, size: 0x8, addend: 0x0, symName: __RNvXs_NtNtCsdFlNUEO95cG_5alloc3vec21spec_from_iter_nestedINtB6_3VechEINtB4_18SpecFromIterNestedhINtNtNtNtCs85QQFkKrybG_4core4iter8adapters3map3MapINtNtNtB1F_5slice4iter4IterhENCNvNtB8_3str13replace_ascii0EE9from_iterCsll8mMrVlOqJ_18build_script_build, symObjAddr: 0x3C00, symBinAddr: 0x10000A0A8, symSize: 0x164 }
  - { offset: 0x118E5, size: 0x8, addend: 0x0, symName: __RNvXsn_NtCsdFlNUEO95cG_5alloc3vecINtB5_3VecINtNtB7_5boxed3BoxDINtNtNtCs85QQFkKrybG_4core3ops8function5FnMutuEp6OutputINtNtB15_6result6ResultuNtNtNtCswz7ZwgBZOU_3std2io5error5ErrorENtNtB15_6marker4SyncNtB2U_4SendEL_EENtNtB13_4drop4Drop4dropCsll8mMrVlOqJ_18build_script_build, symObjAddr: 0x3F64, symBinAddr: 0x10000A40C, symSize: 0x38 }
  - { offset: 0x11995, size: 0x8, addend: 0x0, symName: __RNvXsn_NtCsdFlNUEO95cG_5alloc3vecINtB5_3VecPaENtNtNtCs85QQFkKrybG_4core3ops4drop4Drop4dropCsll8mMrVlOqJ_18build_script_build, symObjAddr: 0x3F9C, symBinAddr: 0x10000A444, symSize: 0x24 }
  - { offset: 0x11D47, size: 0x8, addend: 0x0, symName: __RNvXs1_NtCsdFlNUEO95cG_5alloc7raw_vecINtB5_6RawVecINtNtB7_5boxed3BoxDINtNtNtCs85QQFkKrybG_4core3ops8function5FnMutuEp6OutputINtNtB1c_6result6ResultuNtNtNtCswz7ZwgBZOU_3std2io5error5ErrorENtNtB1c_6marker4SyncNtB31_4SendEL_EENtNtB1a_4drop4Drop4dropCsll8mMrVlOqJ_18build_script_build, symObjAddr: 0x3254, symBinAddr: 0x1000096FC, symSize: 0x34 }
  - { offset: 0x11D83, size: 0x8, addend: 0x0, symName: __RNvXs1_NtCsdFlNUEO95cG_5alloc7raw_vecINtB5_6RawVecPaENtNtNtCs85QQFkKrybG_4core3ops4drop4Drop4dropCsll8mMrVlOqJ_18build_script_build, symObjAddr: 0x3288, symBinAddr: 0x100009730, symSize: 0x30 }
  - { offset: 0x11F8F, size: 0x8, addend: 0x0, symName: __RNCINvMsm_NtNtNtCsdFlNUEO95cG_5alloc11collections5btree8navigateINtNtBa_4node6HandleINtB13_7NodeRefNtNtB13_6marker5DyingNtNtNtCswz7ZwgBZOU_3std3ffi6os_str8OsStringINtNtCs85QQFkKrybG_4core6option6OptionB1U_ENtB1B_4LeafENtB1B_4EdgeE27deallocating_next_uncheckedNtNtBe_5alloc6GlobalE0Csll8mMrVlOqJ_18build_script_build, symObjAddr: 0x1ABC, symBinAddr: 0x100007F68, symSize: 0x58 }
  - { offset: 0x12689, size: 0x8, addend: 0x0, symName: __RNvXNtNtNtCsdFlNUEO95cG_5alloc11collections5btree3mapINtB2_8BTreeMapNtNtNtCswz7ZwgBZOU_3std3ffi6os_str8OsStringINtNtCs85QQFkKrybG_4core6option6OptionB14_EENtNtNtB1Q_3ops4drop4Drop4dropCsll8mMrVlOqJ_18build_script_build, symObjAddr: 0x3020, symBinAddr: 0x1000094C8, symSize: 0x4C }
  - { offset: 0x12716, size: 0x8, addend: 0x0, symName: __RNvXNvXsw_NtNtNtCsdFlNUEO95cG_5alloc11collections5btree3mapINtB8_8IntoIterpppENtNtNtCs85QQFkKrybG_4core3ops4drop4Drop4dropINtB2_9DropGuardNtNtNtCswz7ZwgBZOU_3std3ffi6os_str8OsStringINtNtB1k_6option6OptionB2c_ENtNtBe_5alloc6GlobalEB1e_4dropCsll8mMrVlOqJ_18build_script_build, symObjAddr: 0x312C, symBinAddr: 0x1000095D4, symSize: 0x64 }
  - { offset: 0x127AB, size: 0x8, addend: 0x0, symName: __RNvXsw_NtNtNtCsdFlNUEO95cG_5alloc11collections5btree3mapINtB5_8IntoIterNtNtNtCswz7ZwgBZOU_3std3ffi6os_str8OsStringINtNtCs85QQFkKrybG_4core6option6OptionB17_EENtNtNtB1T_3ops4drop4Drop4dropCsll8mMrVlOqJ_18build_script_build, symObjAddr: 0x4174, symBinAddr: 0x10000A61C, symSize: 0x9C }
  - { offset: 0x12822, size: 0x8, addend: 0x0, symName: __RNvXsv_NtNtNtCsdFlNUEO95cG_5alloc11collections5btree3mapINtB5_8BTreeMapNtNtNtCswz7ZwgBZOU_3std3ffi6os_str8OsStringINtNtCs85QQFkKrybG_4core6option6OptionB17_EENtNtNtNtB1T_4iter6traits7collect12IntoIterator9into_iterCsll8mMrVlOqJ_18build_script_build, symObjAddr: 0x3FE4, symBinAddr: 0x10000A48C, symSize: 0x190 }
  - { offset: 0x129A1, size: 0x8, addend: 0x0, symName: __RINvNtNtNtCsdFlNUEO95cG_5alloc11collections5btree3mem7replaceINtNtB4_4node6HandleINtB10_7NodeRefNtNtB10_6marker5DyingNtNtNtCswz7ZwgBZOU_3std3ffi6os_str8OsStringINtNtCs85QQFkKrybG_4core6option6OptionB1R_ENtB1y_4LeafENtB1y_4EdgeEIBY_IB1i_B1w_B1R_B2y_NtB1y_14LeafOrInternalENtB1y_2KVENCINvMsm_NtB4_8navigateBX_27deallocating_next_uncheckedNtNtB8_5alloc6GlobalE0ECsll8mMrVlOqJ_18build_script_build, symObjAddr: 0x16D8, symBinAddr: 0x100007B84, symSize: 0xCC }
  - { offset: 0x12A9B, size: 0x8, addend: 0x0, symName: __RNvXNvNtNtNtCsdFlNUEO95cG_5alloc11collections5btree3mem7replaceNtB2_10PanicGuardNtNtNtCs85QQFkKrybG_4core3ops4drop4Drop4dropCsll8mMrVlOqJ_18build_script_build, symObjAddr: 0x3120, symBinAddr: 0x1000095C8, symSize: 0xC }
  - { offset: 0x12B8D, size: 0x8, addend: 0x0, symName: __RNvXs0_NtNtCsdFlNUEO95cG_5alloc3ffi5c_strNtB5_7CStringNtNtNtCs85QQFkKrybG_4core3ops4drop4Drop4dropCsll8mMrVlOqJ_18build_script_build, symObjAddr: 0x3190, symBinAddr: 0x100009638, symSize: 0x70 }
  - { offset: 0x12C7B, size: 0x8, addend: 0x0, symName: __RNvXs1n_NtCsdFlNUEO95cG_5alloc6stringNtB6_6StringINtNtCs85QQFkKrybG_4core3cmp9PartialEqReE2eqCsll8mMrVlOqJ_18build_script_build, symObjAddr: 0x32B8, symBinAddr: 0x100009760, symSize: 0x12C }
  - { offset: 0x12F56, size: 0x8, addend: 0x0, symName: __RNvXsE_NtCsdFlNUEO95cG_5alloc6stringNtB5_6StringINtNtCs85QQFkKrybG_4core7convert5AsRefShE6as_refCsll8mMrVlOqJ_18build_script_build, symObjAddr: 0x3A64, symBinAddr: 0x100009F0C, symSize: 0x24 }
  - { offset: 0x12FA8, size: 0x8, addend: 0x0, symName: __RNvXss_NtCsdFlNUEO95cG_5alloc6stringNtB5_6StringNtNtNtCs85QQFkKrybG_4core3ops5deref5Deref5derefCsll8mMrVlOqJ_18build_script_build, symObjAddr: 0x3FC0, symBinAddr: 0x10000A468, symSize: 0x24 }
  - { offset: 0x12FE2, size: 0x8, addend: 0x0, symName: __RNvXs6_NtCsdFlNUEO95cG_5alloc5boxedINtB5_3BoxDINtNtNtCs85QQFkKrybG_4core3ops8function5FnMutuEp6OutputINtNtBP_6result6ResultuNtNtNtCswz7ZwgBZOU_3std2io5error5ErrorENtNtBP_6marker4SyncNtB2D_4SendEL_ENtNtBN_4drop4Drop4dropCsll8mMrVlOqJ_18build_script_build, symObjAddr: 0x3630, symBinAddr: 0x100009AD8, symSize: 0xCC }
  - { offset: 0x1311D, size: 0x8, addend: 0x0, symName: __RNvXs6_NtCsdFlNUEO95cG_5alloc5boxedINtB5_3BoxDNtNtCs85QQFkKrybG_4core5error5ErrorNtNtBM_6marker4SyncNtB1j_4SendEL_ENtNtNtBM_3ops4drop4Drop4dropCsll8mMrVlOqJ_18build_script_build, symObjAddr: 0x36FC, symBinAddr: 0x100009BA4, symSize: 0xCC }
  - { offset: 0x13258, size: 0x8, addend: 0x0, symName: __RNvXs6_NtCsdFlNUEO95cG_5alloc5boxedINtB5_3BoxNtNtNtCswz7ZwgBZOU_3std2io5error6CustomENtNtNtCs85QQFkKrybG_4core3ops4drop4Drop4dropCsll8mMrVlOqJ_18build_script_build, symObjAddr: 0x37C8, symBinAddr: 0x100009C70, symSize: 0xB8 }
  - { offset: 0x13393, size: 0x8, addend: 0x0, symName: __RNvXs6_NtCsdFlNUEO95cG_5alloc5boxedINtB5_3BoxShENtNtNtCs85QQFkKrybG_4core3ops4drop4Drop4dropCsll8mMrVlOqJ_18build_script_build, symObjAddr: 0x3880, symBinAddr: 0x100009D28, symSize: 0xC4 }
  - { offset: 0x134CE, size: 0x8, addend: 0x0, symName: __RNvXs6_NtCsdFlNUEO95cG_5alloc5boxedINtB5_3BoxSmENtNtNtCs85QQFkKrybG_4core3ops4drop4Drop4dropCsll8mMrVlOqJ_18build_script_build, symObjAddr: 0x3944, symBinAddr: 0x100009DEC, symSize: 0xC4 }
  - { offset: 0x13640, size: 0x8, addend: 0x0, symName: __RINvMs16_NtCswz7ZwgBZOU_3std4pathNtB7_4Path4joinReECsll8mMrVlOqJ_18build_script_build, symObjAddr: 0x0, symBinAddr: 0x100006554, symSize: 0x80 }
  - { offset: 0x1378A, size: 0x8, addend: 0x0, symName: __RINvMs_NtNtCs85QQFkKrybG_4core3fmt2rtNtB7_9Arguments9new_constKj1_ECsll8mMrVlOqJ_18build_script_build, symObjAddr: 0x80, symBinAddr: 0x1000065D4, symSize: 0x48 }
  - { offset: 0x13836, size: 0x8, addend: 0x0, symName: __RINvMsb_NtNtNtCsdFlNUEO95cG_5alloc11collections5btree8navigateINtB6_13LazyLeafRangeNtNtNtB8_4node6marker5DyingNtNtNtCswz7ZwgBZOU_3std3ffi6os_str8OsStringINtNtCs85QQFkKrybG_4core6option6OptionB1K_EE16deallocating_endNtNtBc_5alloc6GlobalECsll8mMrVlOqJ_18build_script_build, symObjAddr: 0xC8, symBinAddr: 0x10000661C, symSize: 0x98 }
  - { offset: 0x13933, size: 0x8, addend: 0x0, symName: __RINvMsb_NtNtNtCsdFlNUEO95cG_5alloc11collections5btree8navigateINtB6_13LazyLeafRangeNtNtNtB8_4node6marker5DyingNtNtNtCswz7ZwgBZOU_3std3ffi6os_str8OsStringINtNtCs85QQFkKrybG_4core6option6OptionB1K_EE27deallocating_next_uncheckedNtNtBc_5alloc6GlobalECsll8mMrVlOqJ_18build_script_build, symObjAddr: 0x160, symBinAddr: 0x1000066B4, symSize: 0xA8 }
  - { offset: 0x13B00, size: 0x8, addend: 0x0, symName: __RINvMsi_NtCsdFlNUEO95cG_5alloc3vecINtB6_3VechE14extend_trustedINtNtNtNtCs85QQFkKrybG_4core4iter8adapters3map3MapINtNtNtB17_5slice4iter4IterhENCNvNtB8_3str13replace_ascii0EECsll8mMrVlOqJ_18build_script_build, symObjAddr: 0x208, symBinAddr: 0x10000675C, symSize: 0x178 }
  - { offset: 0x13DFE, size: 0x8, addend: 0x0, symName: __RINvMsk_NtCswz7ZwgBZOU_3std7processNtB6_7Command3argReECsll8mMrVlOqJ_18build_script_build, symObjAddr: 0x380, symBinAddr: 0x1000068D4, symSize: 0x70 }
  - { offset: 0x13E39, size: 0x8, addend: 0x0, symName: __RINvMsk_NtCswz7ZwgBZOU_3std7processNtB6_7Command3newNtNtNtB8_3ffi6os_str8OsStringECsll8mMrVlOqJ_18build_script_build, symObjAddr: 0x3F0, symBinAddr: 0x100006944, symSize: 0x90 }
  - { offset: 0x1401D, size: 0x8, addend: 0x0, symName: __RNvMNtCs85QQFkKrybG_4core6resultINtB2_6ResultNtNtCswz7ZwgBZOU_3std7process6OutputNtNtNtBL_2io5error5ErrorE2okCsll8mMrVlOqJ_18build_script_build, symObjAddr: 0x1BEC, symBinAddr: 0x100008098, symSize: 0xA8 }
  - { offset: 0x14071, size: 0x8, addend: 0x0, symName: __RNvMNtCs85QQFkKrybG_4core6resultINtB2_6ResultReNtNtNtB4_3str5error9Utf8ErrorE2okCsll8mMrVlOqJ_18build_script_build, symObjAddr: 0x1C94, symBinAddr: 0x100008140, symSize: 0x60 }
  - { offset: 0x140C5, size: 0x8, addend: 0x0, symName: __RNvMNtCs85QQFkKrybG_4core6resultINtB2_6ResulthNtNtNtB4_3num5error15TryFromIntErrorE6expectCsll8mMrVlOqJ_18build_script_build, symObjAddr: 0x1CF4, symBinAddr: 0x1000081A0, symSize: 0x84 }
  - { offset: 0x14127, size: 0x8, addend: 0x0, symName: __RNvMNtCs85QQFkKrybG_4core6resultINtB2_6ResultmNtNtNtB4_3num5error13ParseIntErrorE2okCsll8mMrVlOqJ_18build_script_build, symObjAddr: 0x1D78, symBinAddr: 0x100008224, symSize: 0x5C }
  - { offset: 0x14265, size: 0x8, addend: 0x0, symName: __RNvMNtCsdFlNUEO95cG_5alloc6stringNtB2_6String6as_strCsll8mMrVlOqJ_18build_script_build, symObjAddr: 0x1DD4, symBinAddr: 0x100008280, symSize: 0x78 }
  - { offset: 0x14408, size: 0x8, addend: 0x0, symName: __RNvMs2_NtCsdFlNUEO95cG_5alloc7raw_vecNtB5_11RawVecInner16with_capacity_inCsll8mMrVlOqJ_18build_script_build, symObjAddr: 0x1E4C, symBinAddr: 0x1000082F8, symSize: 0x110 }
  - { offset: 0x145CA, size: 0x8, addend: 0x0, symName: __RNvMs_NtCsdFlNUEO95cG_5alloc3vecINtB4_3VechE8as_sliceCsll8mMrVlOqJ_18build_script_build, symObjAddr: 0x1F5C, symBinAddr: 0x100008408, symSize: 0x68 }
  - { offset: 0x1481A, size: 0x8, addend: 0x0, symName: __RNvMsb_NtNtNtCsdFlNUEO95cG_5alloc11collections5btree8navigateINtB5_13LazyLeafRangeNtNtNtB7_4node6marker5DyingNtNtNtCswz7ZwgBZOU_3std3ffi6os_str8OsStringINtNtCs85QQFkKrybG_4core6option6OptionB1J_EE10take_frontCsll8mMrVlOqJ_18build_script_build, symObjAddr: 0x1FC4, symBinAddr: 0x100008470, symSize: 0x1C4 }
  - { offset: 0x14B7D, size: 0x8, addend: 0x0, symName: __RNvMsc_NtNtNtCsdFlNUEO95cG_5alloc11collections5btree8navigateINtB5_13LazyLeafRangeNtNtNtB7_4node6marker5DyingNtNtNtCswz7ZwgBZOU_3std3ffi6os_str8OsStringINtNtCs85QQFkKrybG_4core6option6OptionB1J_EE10init_frontCsll8mMrVlOqJ_18build_script_build, symObjAddr: 0x2188, symBinAddr: 0x100008634, symSize: 0x1C8 }
  - { offset: 0x14D1C, size: 0x8, addend: 0x0, symName: __RNvMsx_NtNtNtCsdFlNUEO95cG_5alloc11collections5btree3mapINtB5_8IntoIterNtNtNtCswz7ZwgBZOU_3std3ffi6os_str8OsStringINtNtCs85QQFkKrybG_4core6option6OptionB17_EE10dying_nextCsll8mMrVlOqJ_18build_script_build, symObjAddr: 0x2350, symBinAddr: 0x1000087FC, symSize: 0x90 }
  - { offset: 0x15CA7, size: 0x8, addend: 0x0, symName: ___llvm_profile_get_magic, symObjAddr: 0x28, symBinAddr: 0x10000AC14, symSize: 0x14 }
  - { offset: 0x15CC8, size: 0x8, addend: 0x0, symName: ___llvm_profile_get_num_padding_bytes, symObjAddr: 0x44, symBinAddr: 0x10000AC28, symSize: 0xC }
  - { offset: 0x15CD0, size: 0x8, addend: 0x0, symName: ___llvm_profile_get_version, symObjAddr: 0x50, symBinAddr: 0x10000AC34, symSize: 0xC }
  - { offset: 0x15CF9, size: 0x8, addend: 0x0, symName: ___llvm_profile_get_version, symObjAddr: 0x50, symBinAddr: 0x10000AC34, symSize: 0xC }
  - { offset: 0x15D6E, size: 0x8, addend: 0x0, symName: ___llvm_profile_is_continuous_mode_enabled, symObjAddr: 0x0, symBinAddr: 0x10000AC40, symSize: 0x20 }
  - { offset: 0x15D8B, size: 0x8, addend: 0x0, symName: __MergedGlobals, symObjAddr: 0x3F10, symBinAddr: 0x1000650A0, symSize: 0x0 }
  - { offset: 0x15DAD, size: 0x8, addend: 0x0, symName: __MergedGlobals, symObjAddr: 0x3F10, symBinAddr: 0x1000650A0, symSize: 0x0 }
  - { offset: 0x15DDD, size: 0x8, addend: 0x0, symName: ___llvm_profile_is_continuous_mode_enabled, symObjAddr: 0x0, symBinAddr: 0x10000AC40, symSize: 0x20 }
  - { offset: 0x15DE5, size: 0x8, addend: 0x0, symName: ___llvm_profile_enable_continuous_mode, symObjAddr: 0x20, symBinAddr: 0x10000AC60, symSize: 0x10 }
  - { offset: 0x15DF5, size: 0x8, addend: 0x0, symName: ___llvm_profile_enable_continuous_mode, symObjAddr: 0x20, symBinAddr: 0x10000AC60, symSize: 0x10 }
  - { offset: 0x15DFD, size: 0x8, addend: 0x0, symName: ___llvm_profile_disable_continuous_mode, symObjAddr: 0x30, symBinAddr: 0x10000AC70, symSize: 0xC }
  - { offset: 0x15E12, size: 0x8, addend: 0x0, symName: ___llvm_profile_disable_continuous_mode, symObjAddr: 0x30, symBinAddr: 0x10000AC70, symSize: 0xC }
  - { offset: 0x15E1A, size: 0x8, addend: 0x0, symName: ___llvm_profile_set_page_size, symObjAddr: 0x3C, symBinAddr: 0x10000AC7C, symSize: 0xC }
  - { offset: 0x15E2F, size: 0x8, addend: 0x0, symName: ___llvm_profile_set_page_size, symObjAddr: 0x3C, symBinAddr: 0x10000AC7C, symSize: 0xC }
  - { offset: 0x15E37, size: 0x8, addend: 0x0, symName: ___llvm_profile_get_size_for_buffer, symObjAddr: 0x48, symBinAddr: 0x10000AC88, symSize: 0xC4 }
  - { offset: 0x15E5A, size: 0x8, addend: 0x0, symName: ___llvm_profile_get_size_for_buffer, symObjAddr: 0x48, symBinAddr: 0x10000AC88, symSize: 0xC4 }
  - { offset: 0x15E62, size: 0x8, addend: 0x0, symName: ___llvm_profile_get_size_for_buffer_internal, symObjAddr: 0x10C, symBinAddr: 0x10000AD4C, symSize: 0x1C0 }
  - { offset: 0x162C5, size: 0x8, addend: 0x0, symName: ___llvm_profile_get_size_for_buffer_internal, symObjAddr: 0x10C, symBinAddr: 0x10000AD4C, symSize: 0x1C0 }
  - { offset: 0x162CD, size: 0x8, addend: 0x0, symName: ___llvm_profile_get_num_data, symObjAddr: 0x2CC, symBinAddr: 0x10000AF0C, symSize: 0x10 }
  - { offset: 0x166BC, size: 0x8, addend: 0x0, symName: ___llvm_profile_get_num_data, symObjAddr: 0x2CC, symBinAddr: 0x10000AF0C, symSize: 0x10 }
  - { offset: 0x166C4, size: 0x8, addend: 0x0, symName: ___llvm_profile_get_data_size, symObjAddr: 0x2DC, symBinAddr: 0x10000AF1C, symSize: 0x10 }
  - { offset: 0x166F5, size: 0x8, addend: 0x0, symName: ___llvm_profile_get_data_size, symObjAddr: 0x2DC, symBinAddr: 0x10000AF1C, symSize: 0x10 }
  - { offset: 0x166FD, size: 0x8, addend: 0x0, symName: ___llvm_profile_get_num_vtable, symObjAddr: 0x2EC, symBinAddr: 0x10000AF2C, symSize: 0x18 }
  - { offset: 0x16721, size: 0x8, addend: 0x0, symName: ___llvm_profile_get_data_size, symObjAddr: 0x2DC, symBinAddr: 0x10000AF1C, symSize: 0x10 }
  - { offset: 0x16753, size: 0x8, addend: 0x0, symName: ___llvm_profile_get_num_vtable, symObjAddr: 0x2EC, symBinAddr: 0x10000AF2C, symSize: 0x18 }
  - { offset: 0x1675B, size: 0x8, addend: 0x0, symName: ___llvm_profile_get_vtable_section_size, symObjAddr: 0x304, symBinAddr: 0x10000AF44, symSize: 0x8 }
  - { offset: 0x167AD, size: 0x8, addend: 0x0, symName: ___llvm_profile_get_vtable_section_size, symObjAddr: 0x304, symBinAddr: 0x10000AF44, symSize: 0x8 }
  - { offset: 0x167B5, size: 0x8, addend: 0x0, symName: ___llvm_profile_counter_entry_size, symObjAddr: 0x30C, symBinAddr: 0x10000AF4C, symSize: 0x1C }
  - { offset: 0x167D6, size: 0x8, addend: 0x0, symName: ___llvm_profile_counter_entry_size, symObjAddr: 0x30C, symBinAddr: 0x10000AF4C, symSize: 0x1C }
  - { offset: 0x167DE, size: 0x8, addend: 0x0, symName: ___llvm_profile_get_num_counters, symObjAddr: 0x328, symBinAddr: 0x10000AF68, symSize: 0x48 }
  - { offset: 0x167EE, size: 0x8, addend: 0x0, symName: ___llvm_profile_get_num_counters, symObjAddr: 0x328, symBinAddr: 0x10000AF68, symSize: 0x48 }
  - { offset: 0x167F6, size: 0x8, addend: 0x0, symName: ___llvm_profile_get_counters_size, symObjAddr: 0x370, symBinAddr: 0x10000AFB0, symSize: 0x5C }
  - { offset: 0x1685B, size: 0x8, addend: 0x0, symName: ___llvm_profile_get_counters_size, symObjAddr: 0x370, symBinAddr: 0x10000AFB0, symSize: 0x5C }
  - { offset: 0x16863, size: 0x8, addend: 0x0, symName: ___llvm_profile_get_num_bitmap_bytes, symObjAddr: 0x3CC, symBinAddr: 0x10000B00C, symSize: 0x8 }
  - { offset: 0x16907, size: 0x8, addend: 0x0, symName: ___llvm_profile_get_num_bitmap_bytes, symObjAddr: 0x3CC, symBinAddr: 0x10000B00C, symSize: 0x8 }
  - { offset: 0x1690F, size: 0x8, addend: 0x0, symName: ___llvm_profile_get_name_size, symObjAddr: 0x3D4, symBinAddr: 0x10000B014, symSize: 0x8 }
  - { offset: 0x16930, size: 0x8, addend: 0x0, symName: ___llvm_profile_get_name_size, symObjAddr: 0x3D4, symBinAddr: 0x10000B014, symSize: 0x8 }
  - { offset: 0x16938, size: 0x8, addend: 0x0, symName: ___llvm_profile_get_padding_sizes_for_counters, symObjAddr: 0x3DC, symBinAddr: 0x10000B01C, symSize: 0x15C }
  - { offset: 0x16959, size: 0x8, addend: 0x0, symName: ___llvm_profile_get_padding_sizes_for_counters, symObjAddr: 0x3DC, symBinAddr: 0x10000B01C, symSize: 0x15C }
  - { offset: 0x16961, size: 0x8, addend: 0x0, symName: _initBufferWriter, symObjAddr: 0x538, symBinAddr: 0x10000B178, symSize: 0x10 }
  - { offset: 0x16AB5, size: 0x8, addend: 0x0, symName: _initBufferWriter, symObjAddr: 0x538, symBinAddr: 0x10000B178, symSize: 0x10 }
  - { offset: 0x16C1F, size: 0x8, addend: 0x0, symName: __MergedGlobals, symObjAddr: 0xA750, symBinAddr: 0x1000650B0, symSize: 0x0 }
  - { offset: 0x16D4A, size: 0x8, addend: 0x0, symName: __MergedGlobals, symObjAddr: 0xA750, symBinAddr: 0x1000650B0, symSize: 0x0 }
  - { offset: 0x16F7A, size: 0x8, addend: 0x0, symName: __MergedGlobals, symObjAddr: 0xA750, symBinAddr: 0x1000650B0, symSize: 0x0 }
  - { offset: 0x1711E, size: 0x8, addend: 0x0, symName: _getCurFilenameLength, symObjAddr: 0x1C8, symBinAddr: 0x10000B188, symSize: 0x104 }
  - { offset: 0x17126, size: 0x8, addend: 0x0, symName: _getCurFilename, symObjAddr: 0x2CC, symBinAddr: 0x10000B28C, symSize: 0x31C }
  - { offset: 0x171A9, size: 0x8, addend: 0x0, symName: _getCurFilename, symObjAddr: 0x2CC, symBinAddr: 0x10000B28C, symSize: 0x31C }
  - { offset: 0x1741A, size: 0x8, addend: 0x0, symName: _parseAndSetFilename, symObjAddr: 0x6F0, symBinAddr: 0x10000B5A8, symSize: 0x510 }
  - { offset: 0x17422, size: 0x8, addend: 0x0, symName: ___llvm_profile_initialize, symObjAddr: 0xC00, symBinAddr: 0x10000BAB8, symSize: 0xB8 }
  - { offset: 0x17613, size: 0x8, addend: 0x0, symName: ___llvm_profile_initialize, symObjAddr: 0xC00, symBinAddr: 0x10000BAB8, symSize: 0xB8 }
  - { offset: 0x1768F, size: 0x8, addend: 0x0, symName: ___llvm_profile_write_file, symObjAddr: 0xD34, symBinAddr: 0x10000BB70, symSize: 0x1B4 }
  - { offset: 0x17697, size: 0x8, addend: 0x0, symName: _writeFile, symObjAddr: 0xEE8, symBinAddr: 0x10000BD24, symSize: 0x2E4 }
  - { offset: 0x17872, size: 0x8, addend: 0x0, symName: _writeFile, symObjAddr: 0xEE8, symBinAddr: 0x10000BD24, symSize: 0x2E4 }
  - { offset: 0x17A0D, size: 0x8, addend: 0x0, symName: _writeFileWithoutReturn, symObjAddr: 0x1238, symBinAddr: 0x10000C008, symSize: 0x4 }
  - { offset: 0x17A44, size: 0x8, addend: 0x0, symName: _getProfileFileSizeForMerging, symObjAddr: 0x148C, symBinAddr: 0x10000C00C, symSize: 0x110 }
  - { offset: 0x17A4C, size: 0x8, addend: 0x0, symName: _mmapForContinuousMode, symObjAddr: 0x159C, symBinAddr: 0x10000C11C, symSize: 0x264 }
  - { offset: 0x17A89, size: 0x8, addend: 0x0, symName: _mmapForContinuousMode, symObjAddr: 0x159C, symBinAddr: 0x10000C11C, symSize: 0x264 }
  - { offset: 0x17A91, size: 0x8, addend: 0x0, symName: _fileWriter, symObjAddr: 0x1800, symBinAddr: 0x10000C380, symSize: 0x140 }
  - { offset: 0x17C50, size: 0x8, addend: 0x0, symName: _fileWriter, symObjAddr: 0x1800, symBinAddr: 0x10000C380, symSize: 0x140 }
  - { offset: 0x17C58, size: 0x8, addend: 0x0, symName: _binaryIdsStringWriter, symObjAddr: 0x1940, symBinAddr: 0x10000C4C0, symSize: 0xD4 }
  - { offset: 0x17D20, size: 0x8, addend: 0x0, symName: _binaryIdsStringWriter, symObjAddr: 0x1940, symBinAddr: 0x10000C4C0, symSize: 0xD4 }
  - { offset: 0x17D28, size: 0x8, addend: 0x0, symName: _truncateCurrentFile, symObjAddr: 0x1A14, symBinAddr: 0x10000C594, symSize: 0xD8 }
  - { offset: 0x17DC1, size: 0x8, addend: 0x0, symName: _truncateCurrentFile, symObjAddr: 0x1A14, symBinAddr: 0x10000C594, symSize: 0xD8 }
  - { offset: 0x17DC9, size: 0x8, addend: 0x0, symName: _initializeProfileForContinuousMode, symObjAddr: 0x1AEC, symBinAddr: 0x10000C66C, symSize: 0x2BC }
  - { offset: 0x17E67, size: 0x8, addend: 0x0, symName: _initializeProfileForContinuousMode, symObjAddr: 0x1AEC, symBinAddr: 0x10000C66C, symSize: 0x2BC }
  - { offset: 0x17E6F, size: 0x8, addend: 0x0, symName: _createProfileDir, symObjAddr: 0x1DA8, symBinAddr: 0x10000C928, symSize: 0xA4 }
  - { offset: 0x18057, size: 0x8, addend: 0x0, symName: _createProfileDir, symObjAddr: 0x1DA8, symBinAddr: 0x10000C928, symSize: 0xA4 }
  - { offset: 0x1805F, size: 0x8, addend: 0x0, symName: _parseAndSetFilename.cold.1, symObjAddr: 0x1E4C, symBinAddr: 0x100045D44, symSize: 0x24 }
  - { offset: 0x180BC, size: 0x8, addend: 0x0, symName: _parseAndSetFilename.cold.1, symObjAddr: 0x1E4C, symBinAddr: 0x100045D44, symSize: 0x24 }
  - { offset: 0x180C4, size: 0x8, addend: 0x0, symName: _parseAndSetFilename.cold.2, symObjAddr: 0x1E70, symBinAddr: 0x100045D68, symSize: 0x24 }
  - { offset: 0x180E6, size: 0x8, addend: 0x0, symName: _parseAndSetFilename.cold.2, symObjAddr: 0x1E70, symBinAddr: 0x100045D68, symSize: 0x24 }
  - { offset: 0x18100, size: 0x8, addend: 0x0, symName: _parseAndSetFilename.cold.2, symObjAddr: 0x1E70, symBinAddr: 0x100045D68, symSize: 0x24 }
  - { offset: 0x18110, size: 0x8, addend: 0x0, symName: _parseAndSetFilename.cold.2, symObjAddr: 0x1E70, symBinAddr: 0x100045D68, symSize: 0x24 }
  - { offset: 0x18270, size: 0x8, addend: 0x0, symName: _lprofProfileDumped, symObjAddr: 0x0, symBinAddr: 0x10000C9CC, symSize: 0xC }
  - { offset: 0x1828D, size: 0x8, addend: 0x0, symName: _ProfileDumped, symObjAddr: 0x4E0, symBinAddr: 0x100065188, symSize: 0x0 }
  - { offset: 0x1829D, size: 0x8, addend: 0x0, symName: _lprofProfileDumped, symObjAddr: 0x0, symBinAddr: 0x10000C9CC, symSize: 0xC }
  - { offset: 0x182E5, size: 0x8, addend: 0x0, symName: _lprofGetLoadModuleSignature, symObjAddr: 0x0, symBinAddr: 0x10000C9D8, symSize: 0xD0 }
  - { offset: 0x18312, size: 0x8, addend: 0x0, symName: _VPMergeHook, symBinAddr: 0x1000673C0, symSize: 0x0 }
  - { offset: 0x18579, size: 0x8, addend: 0x0, symName: _lprofGetLoadModuleSignature, symObjAddr: 0x0, symBinAddr: 0x10000C9D8, symSize: 0xD0 }
  - { offset: 0x18581, size: 0x8, addend: 0x0, symName: ___llvm_profile_check_compatibility, symObjAddr: 0xD0, symBinAddr: 0x10000CAA8, symSize: 0x1CC }
  - { offset: 0x185F1, size: 0x8, addend: 0x0, symName: ___llvm_profile_check_compatibility, symObjAddr: 0xD0, symBinAddr: 0x10000CAA8, symSize: 0x1CC }
  - { offset: 0x185F9, size: 0x8, addend: 0x0, symName: ___llvm_profile_merge_from_buffer, symObjAddr: 0x29C, symBinAddr: 0x10000CC74, symSize: 0x3E8 }
  - { offset: 0x186D1, size: 0x8, addend: 0x0, symName: ___llvm_profile_merge_from_buffer, symObjAddr: 0x29C, symBinAddr: 0x10000CC74, symSize: 0x3E8 }
  - { offset: 0x18943, size: 0x8, addend: 0x0, symName: _lprofMergeValueProfData, symObjAddr: 0x0, symBinAddr: 0x10000D05C, symSize: 0xF0 }
  - { offset: 0x18954, size: 0x8, addend: 0x0, symName: _lprofMergeValueProfData, symObjAddr: 0x0, symBinAddr: 0x10000D05C, symSize: 0xF0 }
  - { offset: 0x18C1C, size: 0x8, addend: 0x0, symName: ___llvm_profile_begin_data, symObjAddr: 0x0, symBinAddr: 0x10000D14C, symSize: 0xC }
  - { offset: 0x18C24, size: 0x8, addend: 0x0, symName: _CurrentVNode, symObjAddr: 0xB0, symBinAddr: 0x100064590, symSize: 0x0 }
  - { offset: 0x18C3B, size: 0x8, addend: 0x0, symName: _CurrentVNode, symObjAddr: 0xB0, symBinAddr: 0x100064590, symSize: 0x0 }
  - { offset: 0x18CB7, size: 0x8, addend: 0x0, symName: _EndVNode, symObjAddr: 0xB8, symBinAddr: 0x100064598, symSize: 0x0 }
  - { offset: 0x18CC0, size: 0x8, addend: 0x0, symName: ___llvm_profile_begin_data, symObjAddr: 0x0, symBinAddr: 0x10000D14C, symSize: 0xC }
  - { offset: 0x18CC8, size: 0x8, addend: 0x0, symName: ___llvm_profile_end_data, symObjAddr: 0xC, symBinAddr: 0x10000D158, symSize: 0xC }
  - { offset: 0x18CE1, size: 0x8, addend: 0x0, symName: ___llvm_profile_end_data, symObjAddr: 0xC, symBinAddr: 0x10000D158, symSize: 0xC }
  - { offset: 0x18CE9, size: 0x8, addend: 0x0, symName: ___llvm_profile_begin_names, symObjAddr: 0x18, symBinAddr: 0x10000D164, symSize: 0xC }
  - { offset: 0x18D02, size: 0x8, addend: 0x0, symName: ___llvm_profile_begin_names, symObjAddr: 0x18, symBinAddr: 0x10000D164, symSize: 0xC }
  - { offset: 0x18D0A, size: 0x8, addend: 0x0, symName: ___llvm_profile_end_names, symObjAddr: 0x24, symBinAddr: 0x10000D170, symSize: 0xC }
  - { offset: 0x18D23, size: 0x8, addend: 0x0, symName: ___llvm_profile_end_names, symObjAddr: 0x24, symBinAddr: 0x10000D170, symSize: 0xC }
  - { offset: 0x18D2B, size: 0x8, addend: 0x0, symName: ___llvm_profile_begin_counters, symObjAddr: 0x30, symBinAddr: 0x10000D17C, symSize: 0xC }
  - { offset: 0x18D44, size: 0x8, addend: 0x0, symName: ___llvm_profile_begin_counters, symObjAddr: 0x30, symBinAddr: 0x10000D17C, symSize: 0xC }
  - { offset: 0x18D4C, size: 0x8, addend: 0x0, symName: ___llvm_profile_end_counters, symObjAddr: 0x3C, symBinAddr: 0x10000D188, symSize: 0xC }
  - { offset: 0x18D65, size: 0x8, addend: 0x0, symName: ___llvm_profile_end_counters, symObjAddr: 0x3C, symBinAddr: 0x10000D188, symSize: 0xC }
  - { offset: 0x18D6D, size: 0x8, addend: 0x0, symName: ___llvm_profile_begin_bitmap, symObjAddr: 0x48, symBinAddr: 0x10000D194, symSize: 0xC }
  - { offset: 0x18D86, size: 0x8, addend: 0x0, symName: ___llvm_profile_begin_bitmap, symObjAddr: 0x48, symBinAddr: 0x10000D194, symSize: 0xC }
  - { offset: 0x18D8E, size: 0x8, addend: 0x0, symName: ___llvm_profile_end_bitmap, symObjAddr: 0x54, symBinAddr: 0x10000D1A0, symSize: 0xC }
  - { offset: 0x18DA7, size: 0x8, addend: 0x0, symName: ___llvm_profile_end_bitmap, symObjAddr: 0x54, symBinAddr: 0x10000D1A0, symSize: 0xC }
  - { offset: 0x18DAF, size: 0x8, addend: 0x0, symName: ___llvm_profile_begin_vtables, symObjAddr: 0x60, symBinAddr: 0x10000D1AC, symSize: 0xC }
  - { offset: 0x18DC8, size: 0x8, addend: 0x0, symName: ___llvm_profile_begin_vtables, symObjAddr: 0x60, symBinAddr: 0x10000D1AC, symSize: 0xC }
  - { offset: 0x18DD0, size: 0x8, addend: 0x0, symName: ___llvm_profile_end_vtables, symObjAddr: 0x6C, symBinAddr: 0x10000D1B8, symSize: 0xC }
  - { offset: 0x18DE9, size: 0x8, addend: 0x0, symName: ___llvm_profile_end_vtables, symObjAddr: 0x6C, symBinAddr: 0x10000D1B8, symSize: 0xC }
  - { offset: 0x18DF1, size: 0x8, addend: 0x0, symName: ___llvm_profile_begin_vtabnames, symObjAddr: 0x78, symBinAddr: 0x10000D1C4, symSize: 0xC }
  - { offset: 0x18E0A, size: 0x8, addend: 0x0, symName: ___llvm_profile_begin_vtabnames, symObjAddr: 0x78, symBinAddr: 0x10000D1C4, symSize: 0xC }
  - { offset: 0x18E12, size: 0x8, addend: 0x0, symName: ___llvm_profile_end_vtabnames, symObjAddr: 0x84, symBinAddr: 0x10000D1D0, symSize: 0xC }
  - { offset: 0x18E2B, size: 0x8, addend: 0x0, symName: ___llvm_profile_end_vtabnames, symObjAddr: 0x84, symBinAddr: 0x10000D1D0, symSize: 0xC }
  - { offset: 0x18E33, size: 0x8, addend: 0x0, symName: ___llvm_profile_begin_vnodes, symObjAddr: 0x90, symBinAddr: 0x10000D1DC, symSize: 0xC }
  - { offset: 0x18E4C, size: 0x8, addend: 0x0, symName: ___llvm_profile_begin_vnodes, symObjAddr: 0x90, symBinAddr: 0x10000D1DC, symSize: 0xC }
  - { offset: 0x18E54, size: 0x8, addend: 0x0, symName: ___llvm_profile_end_vnodes, symObjAddr: 0x9C, symBinAddr: 0x10000D1E8, symSize: 0xC }
  - { offset: 0x18E6D, size: 0x8, addend: 0x0, symName: ___llvm_profile_end_vnodes, symObjAddr: 0x9C, symBinAddr: 0x10000D1E8, symSize: 0xC }
  - { offset: 0x18E75, size: 0x8, addend: 0x0, symName: ___llvm_write_binary_ids, symObjAddr: 0xA8, symBinAddr: 0x10000D1F4, symSize: 0x8 }
  - { offset: 0x18E8E, size: 0x8, addend: 0x0, symName: ___llvm_write_binary_ids, symObjAddr: 0xA8, symBinAddr: 0x10000D1F4, symSize: 0x8 }
  - { offset: 0x18E96, size: 0x8, addend: 0x0, symName: _CurrentVNode, symObjAddr: 0xB0, symBinAddr: 0x100064590, symSize: 0x0 }
  - { offset: 0x19114, size: 0x8, addend: 0x0, symName: __GLOBAL__sub_I_InstrProfilingRuntime.cpp, symObjAddr: 0x0, symBinAddr: 0x10000D1FC, symSize: 0x18 }
  - { offset: 0x19137, size: 0x8, addend: 0x0, symName: ___llvm_profile_runtime, symObjAddr: 0x590, symBinAddr: 0x100067370, symSize: 0x0 }
  - { offset: 0x19167, size: 0x8, addend: 0x0, symName: __GLOBAL__sub_I_InstrProfilingRuntime.cpp, symObjAddr: 0x0, symBinAddr: 0x10000D1FC, symSize: 0x18 }
  - { offset: 0x191E3, size: 0x8, addend: 0x0, symName: ___llvm_profile_recursive_mkdir, symObjAddr: 0x0, symBinAddr: 0x10000D214, symSize: 0x58 }
  - { offset: 0x191EB, size: 0x8, addend: 0x0, symName: _lprofDirMode, symObjAddr: 0x850, symBinAddr: 0x1000645A0, symSize: 0x0 }
  - { offset: 0x19202, size: 0x8, addend: 0x0, symName: _lprofDirMode, symObjAddr: 0x850, symBinAddr: 0x1000645A0, symSize: 0x0 }
  - { offset: 0x1926D, size: 0x8, addend: 0x0, symName: ___llvm_profile_recursive_mkdir, symObjAddr: 0x0, symBinAddr: 0x10000D214, symSize: 0x58 }
  - { offset: 0x192EC, size: 0x8, addend: 0x0, symName: _lprofGetHostName, symObjAddr: 0x70, symBinAddr: 0x10000D26C, symSize: 0x80 }
  - { offset: 0x19421, size: 0x8, addend: 0x0, symName: _lprofLockFileHandle, symObjAddr: 0x208, symBinAddr: 0x10000D2EC, symSize: 0x90 }
  - { offset: 0x19429, size: 0x8, addend: 0x0, symName: _lprofUnlockFileHandle, symObjAddr: 0x298, symBinAddr: 0x10000D37C, symSize: 0x90 }
  - { offset: 0x194AF, size: 0x8, addend: 0x0, symName: _lprofUnlockFileHandle, symObjAddr: 0x298, symBinAddr: 0x10000D37C, symSize: 0x90 }
  - { offset: 0x194B7, size: 0x8, addend: 0x0, symName: _lprofOpenFileEx, symObjAddr: 0x328, symBinAddr: 0x10000D40C, symSize: 0xD0 }
  - { offset: 0x19517, size: 0x8, addend: 0x0, symName: _lprofOpenFileEx, symObjAddr: 0x328, symBinAddr: 0x10000D40C, symSize: 0xD0 }
  - { offset: 0x1951F, size: 0x8, addend: 0x0, symName: _lprofGetFileContentBuffer, symObjAddr: 0x3F8, symBinAddr: 0x10000D4DC, symSize: 0x204 }
  - { offset: 0x195AC, size: 0x8, addend: 0x0, symName: _lprofGetFileContentBuffer, symObjAddr: 0x3F8, symBinAddr: 0x10000D4DC, symSize: 0x204 }
  - { offset: 0x195B4, size: 0x8, addend: 0x0, symName: _lprofReleaseBuffer, symObjAddr: 0x5FC, symBinAddr: 0x10000D6E0, symSize: 0xA0 }
  - { offset: 0x1963B, size: 0x8, addend: 0x0, symName: _lprofReleaseBuffer, symObjAddr: 0x5FC, symBinAddr: 0x10000D6E0, symSize: 0xA0 }
  - { offset: 0x1967D, size: 0x8, addend: 0x0, symName: _lprofFindFirstDirSeparator, symObjAddr: 0x7DC, symBinAddr: 0x10000D780, symSize: 0x8 }
  - { offset: 0x196BD, size: 0x8, addend: 0x0, symName: _lprofSuspendSigKill, symObjAddr: 0x7EC, symBinAddr: 0x10000D788, symSize: 0x8 }
  - { offset: 0x196C5, size: 0x8, addend: 0x0, symName: _lprofRestoreSigKill, symObjAddr: 0x7F4, symBinAddr: 0x10000D790, symSize: 0x4 }
  - { offset: 0x196E0, size: 0x8, addend: 0x0, symName: _lprofRestoreSigKill, symObjAddr: 0x7F4, symBinAddr: 0x10000D790, symSize: 0x4 }
  - { offset: 0x196FF, size: 0x8, addend: 0x0, symName: _lprofAtExit, symObjAddr: 0x84C, symBinAddr: 0x10000D794, symSize: 0x4 }
  - { offset: 0x19707, size: 0x8, addend: 0x0, symName: _lprofDirMode, symObjAddr: 0x850, symBinAddr: 0x1000645A0, symSize: 0x0 }
  - { offset: 0x19A10, size: 0x8, addend: 0x0, symName: _getValueProfRecordHeaderSize, symObjAddr: 0x0, symBinAddr: 0x10000D798, symSize: 0xC }
  - { offset: 0x19A2F, size: 0x8, addend: 0x0, symName: _VPMaxNumValsPerSite, symObjAddr: 0x1740, symBinAddr: 0x1000645A8, symSize: 0x0 }
  - { offset: 0x19AC4, size: 0x8, addend: 0x0, symName: __MergedGlobals, symObjAddr: 0xEF50, symBinAddr: 0x1000651B8, symSize: 0x0 }
  - { offset: 0x19AEB, size: 0x8, addend: 0x0, symName: __MergedGlobals, symObjAddr: 0xEF50, symBinAddr: 0x1000651B8, symSize: 0x0 }
  - { offset: 0x19B02, size: 0x8, addend: 0x0, symName: __MergedGlobals, symObjAddr: 0xEF50, symBinAddr: 0x1000651B8, symSize: 0x0 }
  - { offset: 0x19B21, size: 0x8, addend: 0x0, symName: _TheVPDataReader, symObjAddr: 0x1748, symBinAddr: 0x1000645B0, symSize: 0x0 }
  - { offset: 0x19DC1, size: 0x8, addend: 0x0, symName: _RTRecord, symObjAddr: 0xEF28, symBinAddr: 0x100065190, symSize: 0x0 }
  - { offset: 0x19FB0, size: 0x8, addend: 0x0, symName: _getValueProfRecordHeaderSize, symObjAddr: 0x0, symBinAddr: 0x10000D798, symSize: 0xC }
  - { offset: 0x1A006, size: 0x8, addend: 0x0, symName: _getValueProfRecordValueData, symObjAddr: 0x1C, symBinAddr: 0x10000D7A4, symSize: 0x14 }
  - { offset: 0x1A0B4, size: 0x8, addend: 0x0, symName: _getValueProfRecordNext, symObjAddr: 0x1B4, symBinAddr: 0x10000D7B8, symSize: 0x1A4 }
  - { offset: 0x1A0BC, size: 0x8, addend: 0x0, symName: _getFirstValueProfRecord, symObjAddr: 0x358, symBinAddr: 0x10000D95C, symSize: 0x8 }
  - { offset: 0x1A123, size: 0x8, addend: 0x0, symName: _getFirstValueProfRecord, symObjAddr: 0x358, symBinAddr: 0x10000D95C, symSize: 0x8 }
  - { offset: 0x1A205, size: 0x8, addend: 0x0, symName: _lprofSetupValueProfiler, symObjAddr: 0xB38, symBinAddr: 0x10000D964, symSize: 0x64 }
  - { offset: 0x1A317, size: 0x8, addend: 0x0, symName: ___llvm_profile_instrument_target_value, symObjAddr: 0xE30, symBinAddr: 0x10000D9C8, symSize: 0x290 }
  - { offset: 0x1A435, size: 0x8, addend: 0x0, symName: _lprofGetVPDataReader, symObjAddr: 0x1108, symBinAddr: 0x10000DC58, symSize: 0xC }
  - { offset: 0x1A43D, size: 0x8, addend: 0x0, symName: _initializeValueProfRuntimeRecord, symObjAddr: 0x1114, symBinAddr: 0x10000DC64, symSize: 0x210 }
  - { offset: 0x1A458, size: 0x8, addend: 0x0, symName: _initializeValueProfRuntimeRecord, symObjAddr: 0x1114, symBinAddr: 0x10000DC64, symSize: 0x210 }
  - { offset: 0x1A460, size: 0x8, addend: 0x0, symName: _getNumValueDataForSiteWrapper, symObjAddr: 0x1324, symBinAddr: 0x10000DE74, symSize: 0x14 }
  - { offset: 0x1A57B, size: 0x8, addend: 0x0, symName: _getNumValueDataForSiteWrapper, symObjAddr: 0x1324, symBinAddr: 0x10000DE74, symSize: 0x14 }
  - { offset: 0x1A583, size: 0x8, addend: 0x0, symName: _getValueProfDataSizeWrapper, symObjAddr: 0x1338, symBinAddr: 0x10000DE88, symSize: 0xDC }
  - { offset: 0x1A5C1, size: 0x8, addend: 0x0, symName: _getNumValueDataForSiteWrapper, symObjAddr: 0x1324, symBinAddr: 0x10000DE74, symSize: 0x14 }
  - { offset: 0x1A5E7, size: 0x8, addend: 0x0, symName: _getValueProfDataSizeWrapper, symObjAddr: 0x1338, symBinAddr: 0x10000DE88, symSize: 0xDC }
  - { offset: 0x1A5EF, size: 0x8, addend: 0x0, symName: _getNextNValueData, symObjAddr: 0x1414, symBinAddr: 0x10000DF64, symSize: 0x44 }
  - { offset: 0x1A686, size: 0x8, addend: 0x0, symName: _getNextNValueData, symObjAddr: 0x1414, symBinAddr: 0x10000DF64, symSize: 0x44 }
  - { offset: 0x1A68E, size: 0x8, addend: 0x0, symName: _getNumValueSitesRT, symObjAddr: 0x1458, symBinAddr: 0x10000DFA8, symSize: 0x10 }
  - { offset: 0x1A71C, size: 0x8, addend: 0x0, symName: _getNumValueSitesRT, symObjAddr: 0x1458, symBinAddr: 0x10000DFA8, symSize: 0x10 }
  - { offset: 0x1A724, size: 0x8, addend: 0x0, symName: _getNumValueDataRT, symObjAddr: 0x1468, symBinAddr: 0x10000DFB8, symSize: 0x190 }
  - { offset: 0x1A75F, size: 0x8, addend: 0x0, symName: _getNumValueDataRT, symObjAddr: 0x1468, symBinAddr: 0x10000DFB8, symSize: 0x190 }
  - { offset: 0x1A7D5, size: 0x8, addend: 0x0, symName: ___llvm_profile_instrument_target_value.cold.1, symObjAddr: 0x161C, symBinAddr: 0x100045D8C, symSize: 0x24 }
  - { offset: 0x1A865, size: 0x8, addend: 0x0, symName: ___llvm_profile_raw_version, symObjAddr: 0x0, symBinAddr: 0x1000645E0, symSize: 0x0 }
  - { offset: 0x1A8A7, size: 0x8, addend: 0x0, symName: _lprofBufferWriter, symObjAddr: 0x0, symBinAddr: 0x10000E148, symSize: 0x6C }
  - { offset: 0x1A8C6, size: 0x8, addend: 0x0, symName: _FreeHook, symObjAddr: 0x4F98, symBinAddr: 0x100067378, symSize: 0x0 }
  - { offset: 0x1A8EC, size: 0x8, addend: 0x0, symName: _DynamicBufferIOBuffer, symObjAddr: 0x4FA0, symBinAddr: 0x100067380, symSize: 0x0 }
  - { offset: 0x1A91A, size: 0x8, addend: 0x0, symName: _VPBufferSize, symObjAddr: 0x4FA8, symBinAddr: 0x100067388, symSize: 0x0 }
  - { offset: 0x1A941, size: 0x8, addend: 0x0, symName: __MergedGlobals, symObjAddr: 0x6FB0, symBinAddr: 0x1000671C8, symSize: 0x0 }
  - { offset: 0x1AA8B, size: 0x8, addend: 0x0, symName: _BufferIOBuffer, symObjAddr: 0x4FB0, symBinAddr: 0x1000651C8, symSize: 0x0 }
  - { offset: 0x1AAB5, size: 0x8, addend: 0x0, symName: __MergedGlobals, symObjAddr: 0x6FB0, symBinAddr: 0x1000671C8, symSize: 0x0 }
  - { offset: 0x1AB30, size: 0x8, addend: 0x0, symName: _lprofBufferWriter, symObjAddr: 0x0, symBinAddr: 0x10000E148, symSize: 0x6C }
  - { offset: 0x1AC48, size: 0x8, addend: 0x0, symName: _lprofBufferIOWrite, symObjAddr: 0x100, symBinAddr: 0x10000E1B4, symSize: 0x134 }
  - { offset: 0x1AD49, size: 0x8, addend: 0x0, symName: _lprofWriteData, symObjAddr: 0x2F4, symBinAddr: 0x10000E2E8, symSize: 0xE0 }
  - { offset: 0x1AD51, size: 0x8, addend: 0x0, symName: _lprofWriteDataImpl, symObjAddr: 0x3D4, symBinAddr: 0x10000E3C8, symSize: 0x474 }
  - { offset: 0x1B188, size: 0x8, addend: 0x0, symName: _lprofWriteDataImpl, symObjAddr: 0x3D4, symBinAddr: 0x10000E3C8, symSize: 0x474 }
  - { offset: 0x1B4C3, size: 0x8, addend: 0x0, symName: _writeOneValueProfData, symObjAddr: 0x8D4, symBinAddr: 0x10000E83C, symSize: 0x4A8 }
  - { offset: 0x1B786, size: 0x8, addend: 0x0, symName: __RNvCskdKJRKLKjqM_7___rustc10rust_panic, symObjAddr: 0x0, symBinAddr: 0x100045DB0, symSize: 0x60 }
  - { offset: 0x1BADA, size: 0x8, addend: 0x0, symName: '__ZN42_$LT$$RF$T$u20$as$u20$core..fmt..Debug$GT$3fmt17h1657bda62079795fE', symObjAddr: 0x22C30, symBinAddr: 0x10001E75C, symSize: 0x74 }
  - { offset: 0x1BBF1, size: 0x8, addend: 0x0, symName: '__ZN42_$LT$$RF$T$u20$as$u20$core..fmt..Debug$GT$3fmt17h1afb9163f1905b06E', symObjAddr: 0x22CA4, symBinAddr: 0x10001E7D0, symSize: 0x10 }
  - { offset: 0x1BC22, size: 0x8, addend: 0x0, symName: '__ZN42_$LT$$RF$T$u20$as$u20$core..fmt..Debug$GT$3fmt17h5dbecbf3553e1d6eE', symObjAddr: 0x230DC, symBinAddr: 0x10001E7E0, symSize: 0x14 }
  - { offset: 0x1BC53, size: 0x8, addend: 0x0, symName: '__ZN42_$LT$$RF$T$u20$as$u20$core..fmt..Debug$GT$3fmt17h624b3b1b2bc3ccaaE', symObjAddr: 0x230F0, symBinAddr: 0x10001E7F4, symSize: 0x10 }
  - { offset: 0x1BC75, size: 0x8, addend: 0x0, symName: '__ZN42_$LT$$RF$T$u20$as$u20$core..fmt..Debug$GT$3fmt17h90d58bddc1b11390E', symObjAddr: 0x23210, symBinAddr: 0x10001E804, symSize: 0x9C }
  - { offset: 0x1BD04, size: 0x8, addend: 0x0, symName: '__ZN42_$LT$$RF$T$u20$as$u20$core..fmt..Debug$GT$3fmt17h962ee5d805df0a43E', symObjAddr: 0x232AC, symBinAddr: 0x10001E8A0, symSize: 0x1C }
  - { offset: 0x1BD66, size: 0x8, addend: 0x0, symName: '__ZN42_$LT$$RF$T$u20$as$u20$core..fmt..Debug$GT$3fmt17h9b59bf8331fa675dE', symObjAddr: 0x232D8, symBinAddr: 0x10001E8BC, symSize: 0x74 }
  - { offset: 0x1BDFA, size: 0x8, addend: 0x0, symName: '__ZN42_$LT$$RF$T$u20$as$u20$core..fmt..Debug$GT$3fmt17hbd1e035ac7e08f25E', symObjAddr: 0x23400, symBinAddr: 0x10001E930, symSize: 0x1C }
  - { offset: 0x1BE62, size: 0x8, addend: 0x0, symName: '__ZN44_$LT$$RF$T$u20$as$u20$core..fmt..Display$GT$3fmt17h42b41cde78dd7a40E', symObjAddr: 0x23740, symBinAddr: 0x10001E94C, symSize: 0x10 }
  - { offset: 0x1BE7D, size: 0x8, addend: 0x0, symName: '__ZN44_$LT$$RF$T$u20$as$u20$core..fmt..Display$GT$3fmt17h97ddbbc1a338291fE', symObjAddr: 0x23760, symBinAddr: 0x10001E95C, symSize: 0x74 }
  - { offset: 0x1BF28, size: 0x8, addend: 0x0, symName: '__ZN4core3fmt3num50_$LT$impl$u20$core..fmt..Debug$u20$for$u20$i32$GT$3fmt17h0ee72d503607d7feE', symObjAddr: 0x23AE0, symBinAddr: 0x10001E9D0, symSize: 0x18 }
  - { offset: 0x1BF3F, size: 0x8, addend: 0x0, symName: '__ZN4core3fmt3num50_$LT$impl$u20$core..fmt..Debug$u20$for$u20$i32$GT$3fmt17h0ee72d503607d7feE', symObjAddr: 0x23AE0, symBinAddr: 0x10001E9D0, symSize: 0x18 }
  - { offset: 0x1BF6A, size: 0x8, addend: 0x0, symName: '__ZN4core3fmt3num52_$LT$impl$u20$core..fmt..Debug$u20$for$u20$usize$GT$3fmt17hecd777b1c3510085E', symObjAddr: 0x23B40, symBinAddr: 0x10001E9E8, symSize: 0x18 }
  - { offset: 0x1BF81, size: 0x8, addend: 0x0, symName: '__ZN4core3fmt3num52_$LT$impl$u20$core..fmt..Debug$u20$for$u20$usize$GT$3fmt17hecd777b1c3510085E', symObjAddr: 0x23B40, symBinAddr: 0x10001E9E8, symSize: 0x18 }
  - { offset: 0x1BFBB, size: 0x8, addend: 0x0, symName: __ZN4core3fmt5Write10write_char17h69a3578dfe4b32e9E, symObjAddr: 0x23CC0, symBinAddr: 0x10001EA00, symSize: 0x128 }
  - { offset: 0x1C036, size: 0x8, addend: 0x0, symName: __ZN4core3fmt5Write10write_char17h69d96c692ad3d067E, symObjAddr: 0x23DE8, symBinAddr: 0x10001EB28, symSize: 0x168 }
  - { offset: 0x1C1B1, size: 0x8, addend: 0x0, symName: __ZN4core3fmt5Write10write_char17hca427d9223c5b6e1E, symObjAddr: 0x23F50, symBinAddr: 0x10001EC90, symSize: 0x138 }
  - { offset: 0x1C341, size: 0x8, addend: 0x0, symName: __ZN4core3fmt5Write10write_char17he9318f738a0331ecE, symObjAddr: 0x24088, symBinAddr: 0x10001EDC8, symSize: 0x110 }
  - { offset: 0x1C542, size: 0x8, addend: 0x0, symName: __ZN4core3fmt5Write9write_fmt17h09d57f97e1e98aabE, symObjAddr: 0x242C0, symBinAddr: 0x10001EED8, symSize: 0x38 }
  - { offset: 0x1C571, size: 0x8, addend: 0x0, symName: __ZN4core3fmt5Write9write_fmt17h0e54e39e3cec6689E, symObjAddr: 0x242F8, symBinAddr: 0x10001EF10, symSize: 0x38 }
  - { offset: 0x1C5A0, size: 0x8, addend: 0x0, symName: __ZN4core3fmt5Write9write_fmt17h19fd30b4ad025d60E, symObjAddr: 0x24330, symBinAddr: 0x10001EF48, symSize: 0x38 }
  - { offset: 0x1C5CF, size: 0x8, addend: 0x0, symName: __ZN4core3fmt5Write9write_fmt17h2a94cca2598c1fb1E, symObjAddr: 0x243A0, symBinAddr: 0x10001EF80, symSize: 0x38 }
  - { offset: 0x1C5FE, size: 0x8, addend: 0x0, symName: __ZN4core3fmt5Write9write_fmt17heb18d397fb6127d0E, symObjAddr: 0x24410, symBinAddr: 0x10001EFB8, symSize: 0x38 }
  - { offset: 0x1C65B, size: 0x8, addend: 0x0, symName: '__ZN50_$LT$$BP$mut$u20$T$u20$as$u20$core..fmt..Debug$GT$3fmt17hc506ef24e45fcfffE', symObjAddr: 0x31FD4, symBinAddr: 0x100028C7C, symSize: 0x8 }
  - { offset: 0x1C679, size: 0x8, addend: 0x0, symName: '__ZN50_$LT$$BP$mut$u20$T$u20$as$u20$core..fmt..Debug$GT$3fmt17hc506ef24e45fcfffE', symObjAddr: 0x31FD4, symBinAddr: 0x100028C7C, symSize: 0x8 }
  - { offset: 0x1C6A8, size: 0x8, addend: 0x0, symName: '__ZN52_$LT$$RF$mut$u20$T$u20$as$u20$core..fmt..Display$GT$3fmt17hbaf30795b8d3c4d8E', symObjAddr: 0x3262C, symBinAddr: 0x100028C84, symSize: 0x10 }
  - { offset: 0x1E9FE, size: 0x8, addend: 0x0, symName: '__ZN4core3ptr107drop_in_place$LT$core..pin..Pin$LT$alloc..boxed..Box$LT$std..sys..pal..unix..sync..mutex..Mutex$GT$$GT$$GT$17hbd21784a02a2f8d1E', symObjAddr: 0x24A20, symBinAddr: 0x10001F1A8, symSize: 0x2C }
  - { offset: 0x1EA95, size: 0x8, addend: 0x0, symName: '__ZN4core3ptr109drop_in_place$LT$alloc..sync..Arc$LT$std..sync..poison..mutex..Mutex$LT$alloc..vec..Vec$LT$u8$GT$$GT$$GT$$GT$17h5646c21d902a9b21E', symObjAddr: 0x24A4C, symBinAddr: 0x10001F1D4, symSize: 0x20 }
  - { offset: 0x1EAAC, size: 0x8, addend: 0x0, symName: '__ZN4core3ptr109drop_in_place$LT$alloc..sync..Arc$LT$std..sync..poison..mutex..Mutex$LT$alloc..vec..Vec$LT$u8$GT$$GT$$GT$$GT$17h5646c21d902a9b21E', symObjAddr: 0x24A4C, symBinAddr: 0x10001F1D4, symSize: 0x20 }
  - { offset: 0x1EAC1, size: 0x8, addend: 0x0, symName: '__ZN4core3ptr109drop_in_place$LT$alloc..sync..Arc$LT$std..sync..poison..mutex..Mutex$LT$alloc..vec..Vec$LT$u8$GT$$GT$$GT$$GT$17h5646c21d902a9b21E', symObjAddr: 0x24A4C, symBinAddr: 0x10001F1D4, symSize: 0x20 }
  - { offset: 0x1EAD6, size: 0x8, addend: 0x0, symName: '__ZN4core3ptr109drop_in_place$LT$alloc..sync..Arc$LT$std..sync..poison..mutex..Mutex$LT$alloc..vec..Vec$LT$u8$GT$$GT$$GT$$GT$17h5646c21d902a9b21E', symObjAddr: 0x24A4C, symBinAddr: 0x10001F1D4, symSize: 0x20 }
  - { offset: 0x1EB2A, size: 0x8, addend: 0x0, symName: '__ZN4core3ptr119drop_in_place$LT$std..io..default_write_fmt..Adapter$LT$std..io..cursor..Cursor$LT$$RF$mut$u20$$u5b$u8$u5d$$GT$$GT$$GT$17hd94de8f89bec7782E', symObjAddr: 0x24AE8, symBinAddr: 0x10001F1F4, symSize: 0x10 }
  - { offset: 0x1EB41, size: 0x8, addend: 0x0, symName: '__ZN4core3ptr119drop_in_place$LT$std..io..default_write_fmt..Adapter$LT$std..io..cursor..Cursor$LT$$RF$mut$u20$$u5b$u8$u5d$$GT$$GT$$GT$17hd94de8f89bec7782E', symObjAddr: 0x24AE8, symBinAddr: 0x10001F1F4, symSize: 0x10 }
  - { offset: 0x1EB54, size: 0x8, addend: 0x0, symName: '__ZN4core3ptr123drop_in_place$LT$addr2line..Context$LT$gimli..read..endian_slice..EndianSlice$LT$gimli..endianity..LittleEndian$GT$$GT$$GT$17h60120d8b61f786aeE', symObjAddr: 0x24AF8, symBinAddr: 0x10001F204, symSize: 0x70 }
  - { offset: 0x1EC0D, size: 0x8, addend: 0x0, symName: '__ZN4core3ptr128drop_in_place$LT$core..result..Result$LT$$RF$std..thread..Thread$C$$LP$$RF$std..thread..Thread$C$std..thread..Thread$RP$$GT$$GT$17h75718b8337910809E', symObjAddr: 0x24B68, symBinAddr: 0x10001F274, symSize: 0x28 }
  - { offset: 0x1ED63, size: 0x8, addend: 0x0, symName: '__ZN4core3ptr129drop_in_place$LT$addr2line..unit..ResUnit$LT$gimli..read..endian_slice..EndianSlice$LT$gimli..endianity..LittleEndian$GT$$GT$$GT$17h61db7baa14403ae7E', symObjAddr: 0x24B90, symBinAddr: 0x10001F29C, symSize: 0xE4 }
  - { offset: 0x1EF85, size: 0x8, addend: 0x0, symName: '__ZN4core3ptr129drop_in_place$LT$addr2line..unit..SupUnit$LT$gimli..read..endian_slice..EndianSlice$LT$gimli..endianity..LittleEndian$GT$$GT$$GT$17hbd87d71db3a78ec7E', symObjAddr: 0x24C74, symBinAddr: 0x10001F380, symSize: 0x54 }
  - { offset: 0x1F044, size: 0x8, addend: 0x0, symName: '__ZN4core3ptr130drop_in_place$LT$addr2line..unit..ResUnits$LT$gimli..read..endian_slice..EndianSlice$LT$gimli..endianity..LittleEndian$GT$$GT$$GT$17hb2ce511d8969e07fE', symObjAddr: 0x24CC8, symBinAddr: 0x10001F3D4, symSize: 0xD0 }
  - { offset: 0x1F1ED, size: 0x8, addend: 0x0, symName: '__ZN4core3ptr130drop_in_place$LT$addr2line..unit..SupUnits$LT$gimli..read..endian_slice..EndianSlice$LT$gimli..endianity..LittleEndian$GT$$GT$$GT$17h3d17c95ef0deb2d2E', symObjAddr: 0x24D98, symBinAddr: 0x10001F4A4, symSize: 0xE4 }
  - { offset: 0x1F39D, size: 0x8, addend: 0x0, symName: '__ZN4core3ptr130drop_in_place$LT$gimli..read..dwarf..Dwarf$LT$gimli..read..endian_slice..EndianSlice$LT$gimli..endianity..LittleEndian$GT$$GT$$GT$17hc9e7ef4be229448fE', symObjAddr: 0x24E7C, symBinAddr: 0x10001F588, symSize: 0x58 }
  - { offset: 0x1F433, size: 0x8, addend: 0x0, symName: '__ZN4core3ptr131drop_in_place$LT$$u5b$core..option..Option$LT$core..option..Option$LT$std..backtrace_rs..symbolize..gimli..Mapping$GT$$GT$$u5d$$GT$17hbc1f61e360e1245cE', symObjAddr: 0x24ED4, symBinAddr: 0x10001F5E0, symSize: 0xCC }
  - { offset: 0x1F4DD, size: 0x8, addend: 0x0, symName: '__ZN4core3ptr131drop_in_place$LT$alloc..boxed..Box$LT$dyn$u20$core..ops..function..FnOnce$LT$$LP$$RP$$GT$$u2b$Output$u20$$u3d$$u20$$LP$$RP$$GT$$GT$17hcd6787f4796be228E', symObjAddr: 0x24FA0, symBinAddr: 0x10001F6AC, symSize: 0x78 }
  - { offset: 0x1F5C8, size: 0x8, addend: 0x0, symName: '__ZN4core3ptr137drop_in_place$LT$gimli..read..dwarf..Unit$LT$gimli..read..endian_slice..EndianSlice$LT$gimli..endianity..LittleEndian$GT$$C$usize$GT$$GT$17ha92b70ae8706df64E', symObjAddr: 0x25018, symBinAddr: 0x10001F724, symSize: 0x54 }
  - { offset: 0x1F6C5, size: 0x8, addend: 0x0, symName: '__ZN4core3ptr138drop_in_place$LT$addr2line..function..LazyFunction$LT$gimli..read..endian_slice..EndianSlice$LT$gimli..endianity..LittleEndian$GT$$GT$$GT$17h5b1532da9ccb5096E', symObjAddr: 0x2506C, symBinAddr: 0x10001F778, symSize: 0x64 }
  - { offset: 0x1F6DC, size: 0x8, addend: 0x0, symName: '__ZN4core3ptr138drop_in_place$LT$addr2line..function..LazyFunction$LT$gimli..read..endian_slice..EndianSlice$LT$gimli..endianity..LittleEndian$GT$$GT$$GT$17h5b1532da9ccb5096E', symObjAddr: 0x2506C, symBinAddr: 0x10001F778, symSize: 0x64 }
  - { offset: 0x1F6F1, size: 0x8, addend: 0x0, symName: '__ZN4core3ptr138drop_in_place$LT$addr2line..function..LazyFunction$LT$gimli..read..endian_slice..EndianSlice$LT$gimli..endianity..LittleEndian$GT$$GT$$GT$17h5b1532da9ccb5096E', symObjAddr: 0x2506C, symBinAddr: 0x10001F778, symSize: 0x64 }
  - { offset: 0x1F706, size: 0x8, addend: 0x0, symName: '__ZN4core3ptr138drop_in_place$LT$addr2line..function..LazyFunction$LT$gimli..read..endian_slice..EndianSlice$LT$gimli..endianity..LittleEndian$GT$$GT$$GT$17h5b1532da9ccb5096E', symObjAddr: 0x2506C, symBinAddr: 0x10001F778, symSize: 0x64 }
  - { offset: 0x1F83A, size: 0x8, addend: 0x0, symName: '__ZN4core3ptr144drop_in_place$LT$alloc..vec..Vec$LT$core..option..Option$LT$core..option..Option$LT$std..backtrace_rs..symbolize..gimli..Mapping$GT$$GT$$GT$$GT$17h76825e3abe87d450E', symObjAddr: 0x250D0, symBinAddr: 0x10001F7DC, symSize: 0x78 }
  - { offset: 0x1F994, size: 0x8, addend: 0x0, symName: '__ZN4core3ptr152drop_in_place$LT$alloc..vec..Vec$LT$addr2line..unit..ResUnit$LT$gimli..read..endian_slice..EndianSlice$LT$gimli..endianity..LittleEndian$GT$$GT$$GT$$GT$17h6c57a6c544237a87E', symObjAddr: 0x25204, symBinAddr: 0x10001F854, symSize: 0xC4 }
  - { offset: 0x1FB03, size: 0x8, addend: 0x0, symName: '__ZN4core3ptr152drop_in_place$LT$alloc..vec..Vec$LT$addr2line..unit..SupUnit$LT$gimli..read..endian_slice..EndianSlice$LT$gimli..endianity..LittleEndian$GT$$GT$$GT$$GT$17h5ad4c72a1632250dE', symObjAddr: 0x252C8, symBinAddr: 0x10001F918, symSize: 0xF4 }
  - { offset: 0x1FD1B, size: 0x8, addend: 0x0, symName: '__ZN4core3ptr156drop_in_place$LT$alloc..boxed..Box$LT$$u5b$core..option..Option$LT$core..option..Option$LT$std..backtrace_rs..symbolize..gimli..Mapping$GT$$GT$$u5d$$GT$$GT$17hcb1b2da851a6d067E', symObjAddr: 0x253BC, symBinAddr: 0x10001FA0C, symSize: 0xF8 }
  - { offset: 0x1FE45, size: 0x8, addend: 0x0, symName: '__ZN4core3ptr159drop_in_place$LT$alloc..sync..ArcInner$LT$gimli..read..dwarf..Dwarf$LT$gimli..read..endian_slice..EndianSlice$LT$gimli..endianity..LittleEndian$GT$$GT$$GT$$GT$17h7de780a0c68b30e9E', symObjAddr: 0x25544, symBinAddr: 0x10001FB04, symSize: 0x5C }
  - { offset: 0x1FF0A, size: 0x8, addend: 0x0, symName: '__ZN4core3ptr161drop_in_place$LT$alloc..vec..Vec$LT$addr2line..function..LazyFunction$LT$gimli..read..endian_slice..EndianSlice$LT$gimli..endianity..LittleEndian$GT$$GT$$GT$$GT$17h3d6d53657b9c2934E', symObjAddr: 0x255A0, symBinAddr: 0x10001FB60, symSize: 0xAC }
  - { offset: 0x20147, size: 0x8, addend: 0x0, symName: '__ZN4core3ptr172drop_in_place$LT$core..result..Result$LT$addr2line..Context$LT$gimli..read..endian_slice..EndianSlice$LT$gimli..endianity..LittleEndian$GT$$GT$$C$gimli..read..Error$GT$$GT$17h4bff534e67e3d6dbE', symObjAddr: 0x256F8, symBinAddr: 0x10001FC0C, symSize: 0x80 }
  - { offset: 0x201DC, size: 0x8, addend: 0x0, symName: '__ZN4core3ptr173drop_in_place$LT$alloc..boxed..Box$LT$$u5b$addr2line..function..LazyFunction$LT$gimli..read..endian_slice..EndianSlice$LT$gimli..endianity..LittleEndian$GT$$GT$$u5d$$GT$$GT$17h2cad5765df2f5de8E', symObjAddr: 0x25778, symBinAddr: 0x10001FC8C, symSize: 0x9C }
  - { offset: 0x201F3, size: 0x8, addend: 0x0, symName: '__ZN4core3ptr173drop_in_place$LT$alloc..boxed..Box$LT$$u5b$addr2line..function..LazyFunction$LT$gimli..read..endian_slice..EndianSlice$LT$gimli..endianity..LittleEndian$GT$$GT$$u5d$$GT$$GT$17h2cad5765df2f5de8E', symObjAddr: 0x25778, symBinAddr: 0x10001FC8C, symSize: 0x9C }
  - { offset: 0x203C8, size: 0x8, addend: 0x0, symName: '__ZN4core3ptr181drop_in_place$LT$core..option..Option$LT$gimli..read..line..IncompleteLineProgram$LT$gimli..read..endian_slice..EndianSlice$LT$gimli..endianity..LittleEndian$GT$$C$usize$GT$$GT$$GT$17h4072838a3a3bc029E', symObjAddr: 0x25884, symBinAddr: 0x10001FD28, symSize: 0x98 }
  - { offset: 0x20621, size: 0x8, addend: 0x0, symName: '__ZN4core3ptr181drop_in_place$LT$core..result..Result$LT$addr2line..frame..FrameIter$LT$gimli..read..endian_slice..EndianSlice$LT$gimli..endianity..LittleEndian$GT$$GT$$C$gimli..read..Error$GT$$GT$17h1a8da6a3f705e13bE', symObjAddr: 0x2591C, symBinAddr: 0x10001FDC0, symSize: 0x34 }
  - { offset: 0x2075F, size: 0x8, addend: 0x0, symName: '__ZN4core3ptr184drop_in_place$LT$core..result..Result$LT$addr2line..function..Functions$LT$gimli..read..endian_slice..EndianSlice$LT$gimli..endianity..LittleEndian$GT$$GT$$C$gimli..read..Error$GT$$GT$17h9a3bad25e1bdcbe6E', symObjAddr: 0x25950, symBinAddr: 0x10001FDF4, symSize: 0xD8 }
  - { offset: 0x209EF, size: 0x8, addend: 0x0, symName: '__ZN4core3ptr194drop_in_place$LT$core..result..Result$LT$std..sync..poison..mutex..MutexGuard$LT$$LP$$RP$$GT$$C$std..sync..poison..PoisonError$LT$std..sync..poison..mutex..MutexGuard$LT$$LP$$RP$$GT$$GT$$GT$$GT$17h0271d4bb6050713eE', symObjAddr: 0x25A9C, symBinAddr: 0x10001FECC, symSize: 0x4C }
  - { offset: 0x20A2D, size: 0x8, addend: 0x0, symName: '__ZN4core3ptr231drop_in_place$LT$core..result..Result$LT$core..option..Option$LT$alloc..boxed..Box$LT$addr2line..unit..DwoUnit$LT$gimli..read..endian_slice..EndianSlice$LT$gimli..endianity..LittleEndian$GT$$GT$$GT$$GT$$C$gimli..read..Error$GT$$GT$17h6cb514b393938b83E', symObjAddr: 0x25AE8, symBinAddr: 0x10001FF18, symSize: 0xD4 }
  - { offset: 0x20C08, size: 0x8, addend: 0x0, symName: '__ZN4core3ptr238drop_in_place$LT$alloc..boxed..convert..$LT$impl$u20$core..convert..From$LT$alloc..string..String$GT$$u20$for$u20$alloc..boxed..Box$LT$dyn$u20$core..error..Error$u2b$core..marker..Sync$u2b$core..marker..Send$GT$$GT$..from..StringError$GT$17h021cfce481c078aaE', symObjAddr: 0x25BBC, symBinAddr: 0x10001FFEC, symSize: 0x18 }
  - { offset: 0x20C1F, size: 0x8, addend: 0x0, symName: '__ZN4core3ptr238drop_in_place$LT$alloc..boxed..convert..$LT$impl$u20$core..convert..From$LT$alloc..string..String$GT$$u20$for$u20$alloc..boxed..Box$LT$dyn$u20$core..error..Error$u2b$core..marker..Sync$u2b$core..marker..Send$GT$$GT$..from..StringError$GT$17h021cfce481c078aaE', symObjAddr: 0x25BBC, symBinAddr: 0x10001FFEC, symSize: 0x18 }
  - { offset: 0x20C34, size: 0x8, addend: 0x0, symName: '__ZN4core3ptr238drop_in_place$LT$alloc..boxed..convert..$LT$impl$u20$core..convert..From$LT$alloc..string..String$GT$$u20$for$u20$alloc..boxed..Box$LT$dyn$u20$core..error..Error$u2b$core..marker..Sync$u2b$core..marker..Send$GT$$GT$..from..StringError$GT$17h021cfce481c078aaE', symObjAddr: 0x25BBC, symBinAddr: 0x10001FFEC, symSize: 0x18 }
  - { offset: 0x20CB3, size: 0x8, addend: 0x0, symName: '__ZN4core3ptr275drop_in_place$LT$gimli..read..line..LineRows$LT$gimli..read..endian_slice..EndianSlice$LT$gimli..endianity..LittleEndian$GT$$C$gimli..read..line..IncompleteLineProgram$LT$gimli..read..endian_slice..EndianSlice$LT$gimli..endianity..LittleEndian$GT$$C$usize$GT$$C$usize$GT$$GT$17h53f25b84add21487E', symObjAddr: 0x25BD4, symBinAddr: 0x100020004, symSize: 0x8C }
  - { offset: 0x20F28, size: 0x8, addend: 0x0, symName: '__ZN4core3ptr280drop_in_place$LT$$LT$alloc..collections..btree..map..IntoIter$LT$K$C$V$C$A$GT$$u20$as$u20$core..ops..drop..Drop$GT$..drop..DropGuard$LT$u64$C$core..result..Result$LT$alloc..sync..Arc$LT$gimli..read..abbrev..Abbreviations$GT$$C$gimli..read..Error$GT$$C$alloc..alloc..Global$GT$$GT$17hcc27088c1e07f147E', symObjAddr: 0x25C60, symBinAddr: 0x100020090, symSize: 0x84 }
  - { offset: 0x21098, size: 0x8, addend: 0x0, symName: '__ZN4core3ptr284drop_in_place$LT$core..result..Result$LT$$RF$core..result..Result$LT$addr2line..line..Lines$C$gimli..read..Error$GT$$C$$LP$$RF$core..result..Result$LT$addr2line..line..Lines$C$gimli..read..Error$GT$$C$core..result..Result$LT$addr2line..line..Lines$C$gimli..read..Error$GT$$RP$$GT$$GT$17hb193a9c217a4a4c1E', symObjAddr: 0x25CE4, symBinAddr: 0x100020114, symSize: 0x10 }
  - { offset: 0x210C9, size: 0x8, addend: 0x0, symName: '__ZN4core3ptr37drop_in_place$LT$std..env..VarsOs$GT$17h72b80feb8ea238e8E', symObjAddr: 0x25CF4, symBinAddr: 0x100020124, symSize: 0xAC }
  - { offset: 0x2139E, size: 0x8, addend: 0x0, symName: '__ZN4core3ptr42drop_in_place$LT$alloc..string..String$GT$17hf6a0412a3add09b1E', symObjAddr: 0x25EA8, symBinAddr: 0x1000201D0, symSize: 0x18 }
  - { offset: 0x213B5, size: 0x8, addend: 0x0, symName: '__ZN4core3ptr42drop_in_place$LT$alloc..string..String$GT$17hf6a0412a3add09b1E', symObjAddr: 0x25EA8, symBinAddr: 0x1000201D0, symSize: 0x18 }
  - { offset: 0x21433, size: 0x8, addend: 0x0, symName: '__ZN4core3ptr42drop_in_place$LT$std..io..error..Error$GT$17hf851d76d73342388E', symObjAddr: 0x25EC0, symBinAddr: 0x1000201E8, symSize: 0xAC }
  - { offset: 0x21617, size: 0x8, addend: 0x0, symName: '__ZN4core3ptr44drop_in_place$LT$object..read..ObjectMap$GT$17h0847af56bc5df22dE', symObjAddr: 0x25F6C, symBinAddr: 0x100020294, symSize: 0x58 }
  - { offset: 0x21746, size: 0x8, addend: 0x0, symName: '__ZN4core3ptr46drop_in_place$LT$alloc..vec..Vec$LT$u8$GT$$GT$17hba5d5d275589670eE', symObjAddr: 0x26030, symBinAddr: 0x1000202EC, symSize: 0x18 }
  - { offset: 0x217C5, size: 0x8, addend: 0x0, symName: '__ZN4core3ptr46drop_in_place$LT$std..io..stdio..StdinLock$GT$17h0f6294c31e8bd6fbE', symObjAddr: 0x26048, symBinAddr: 0x100020304, symSize: 0x54 }
  - { offset: 0x217DC, size: 0x8, addend: 0x0, symName: '__ZN4core3ptr46drop_in_place$LT$std..io..stdio..StdinLock$GT$17h0f6294c31e8bd6fbE', symObjAddr: 0x26048, symBinAddr: 0x100020304, symSize: 0x54 }
  - { offset: 0x217F1, size: 0x8, addend: 0x0, symName: '__ZN4core3ptr46drop_in_place$LT$std..io..stdio..StdinLock$GT$17h0f6294c31e8bd6fbE', symObjAddr: 0x26048, symBinAddr: 0x100020304, symSize: 0x54 }
  - { offset: 0x218D5, size: 0x8, addend: 0x0, symName: '__ZN4core3ptr48drop_in_place$LT$alloc..ffi..c_str..NulError$GT$17h4b149f15bda11918E', symObjAddr: 0x26180, symBinAddr: 0x100020358, symSize: 0x18 }
  - { offset: 0x218EC, size: 0x8, addend: 0x0, symName: '__ZN4core3ptr48drop_in_place$LT$alloc..ffi..c_str..NulError$GT$17h4b149f15bda11918E', symObjAddr: 0x26180, symBinAddr: 0x100020358, symSize: 0x18 }
  - { offset: 0x21978, size: 0x8, addend: 0x0, symName: '__ZN4core3ptr557drop_in_place$LT$core..result..Result$LT$$RF$core..result..Result$LT$addr2line..function..Function$LT$gimli..read..endian_slice..EndianSlice$LT$gimli..endianity..LittleEndian$GT$$GT$$C$gimli..read..Error$GT$$C$$LP$$RF$core..result..Result$LT$addr2line..function..Function$LT$gimli..read..endian_slice..EndianSlice$LT$gimli..endianity..LittleEndian$GT$$GT$$C$gimli..read..Error$GT$$C$core..result..Result$LT$addr2line..function..Function$LT$gimli..read..endian_slice..EndianSlice$LT$gimli..endianity..LittleEndian$GT$$GT$$C$gimli..read..Error$GT$$RP$$GT$$GT$17hddd2d7300f8297eaE', symObjAddr: 0x26458, symBinAddr: 0x100020370, symSize: 0x64 }
  - { offset: 0x21B62, size: 0x8, addend: 0x0, symName: '__ZN4core3ptr55drop_in_place$LT$gimli..read..abbrev..Abbreviations$GT$17h8587e1680933f2fcE', symObjAddr: 0x264BC, symBinAddr: 0x1000203D4, symSize: 0x118 }
  - { offset: 0x21ED3, size: 0x8, addend: 0x0, symName: '__ZN4core3ptr560drop_in_place$LT$core..result..Result$LT$$RF$core..result..Result$LT$addr2line..function..Functions$LT$gimli..read..endian_slice..EndianSlice$LT$gimli..endianity..LittleEndian$GT$$GT$$C$gimli..read..Error$GT$$C$$LP$$RF$core..result..Result$LT$addr2line..function..Functions$LT$gimli..read..endian_slice..EndianSlice$LT$gimli..endianity..LittleEndian$GT$$GT$$C$gimli..read..Error$GT$$C$core..result..Result$LT$addr2line..function..Functions$LT$gimli..read..endian_slice..EndianSlice$LT$gimli..endianity..LittleEndian$GT$$GT$$C$gimli..read..Error$GT$$RP$$GT$$GT$17he4dc02a625b1da45E', symObjAddr: 0x266E4, symBinAddr: 0x1000204EC, symSize: 0x10 }
  - { offset: 0x21F2E, size: 0x8, addend: 0x0, symName: '__ZN4core3ptr60drop_in_place$LT$gimli..read..abbrev..AbbreviationsCache$GT$17h05dc331b510e23d9E', symObjAddr: 0x266F4, symBinAddr: 0x1000204FC, symSize: 0xCC }
  - { offset: 0x220D9, size: 0x8, addend: 0x0, symName: '__ZN4core3ptr64drop_in_place$LT$std..sys..pal..unix..sync..mutex..AttrGuard$GT$17he7e52a9dfb22022eE', symObjAddr: 0x2682C, symBinAddr: 0x1000205C8, symSize: 0x48 }
  - { offset: 0x220FC, size: 0x8, addend: 0x0, symName: '__ZN4core3ptr64drop_in_place$LT$std..sys..process..unix..common..ChildPipes$GT$17hd9f6e3b60aa15aaeE', symObjAddr: 0x26874, symBinAddr: 0x100020610, symSize: 0x78 }
  - { offset: 0x221FE, size: 0x8, addend: 0x0, symName: '__ZN4core3ptr64drop_in_place$LT$std..sys..process..unix..common..StdioPipes$GT$17hb8ed25505eeea22fE', symObjAddr: 0x268EC, symBinAddr: 0x100020688, symSize: 0x54 }
  - { offset: 0x22376, size: 0x8, addend: 0x0, symName: '__ZN4core3ptr65drop_in_place$LT$alloc..vec..Vec$LT$alloc..string..String$GT$$GT$17h1a875569544aab8bE', symObjAddr: 0x26940, symBinAddr: 0x1000206DC, symSize: 0x80 }
  - { offset: 0x224DC, size: 0x8, addend: 0x0, symName: '__ZN4core3ptr65drop_in_place$LT$std..backtrace_rs..symbolize..gimli..Context$GT$17h29923633989d7a97E', symObjAddr: 0x269C0, symBinAddr: 0x10002075C, symSize: 0xE8 }
  - { offset: 0x2276E, size: 0x8, addend: 0x0, symName: '__ZN4core3ptr66drop_in_place$LT$std..backtrace_rs..backtrace..libunwind..Bomb$GT$17hf3cf99a2a39305f3E', symObjAddr: 0x26AA8, symBinAddr: 0x100020844, symSize: 0x40 }
  - { offset: 0x227BA, size: 0x8, addend: 0x0, symName: '__ZN4core3ptr701drop_in_place$LT$core..result..Result$LT$$RF$core..result..Result$LT$core..option..Option$LT$alloc..boxed..Box$LT$addr2line..unit..DwoUnit$LT$gimli..read..endian_slice..EndianSlice$LT$gimli..endianity..LittleEndian$GT$$GT$$GT$$GT$$C$gimli..read..Error$GT$$C$$LP$$RF$core..result..Result$LT$core..option..Option$LT$alloc..boxed..Box$LT$addr2line..unit..DwoUnit$LT$gimli..read..endian_slice..EndianSlice$LT$gimli..endianity..LittleEndian$GT$$GT$$GT$$GT$$C$gimli..read..Error$GT$$C$core..result..Result$LT$core..option..Option$LT$alloc..boxed..Box$LT$addr2line..unit..DwoUnit$LT$gimli..read..endian_slice..EndianSlice$LT$gimli..endianity..LittleEndian$GT$$GT$$GT$$GT$$C$gimli..read..Error$GT$$RP$$GT$$GT$17hf93357a84d00fc7eE', symObjAddr: 0x26AE8, symBinAddr: 0x100020884, symSize: 0x14 }
  - { offset: 0x2285B, size: 0x8, addend: 0x0, symName: '__ZN4core3ptr70drop_in_place$LT$std..backtrace_rs..symbolize..gimli..stash..Stash$GT$17hed8a877d9cede334E', symObjAddr: 0x26AFC, symBinAddr: 0x100020898, symSize: 0xB8 }
  - { offset: 0x22B01, size: 0x8, addend: 0x0, symName: '__ZN4core3ptr71drop_in_place$LT$std..backtrace_rs..symbolize..gimli..macho..Object$GT$17h869151e7b414cfd4E', symObjAddr: 0x26BB4, symBinAddr: 0x100020950, symSize: 0xD8 }
  - { offset: 0x22DC6, size: 0x8, addend: 0x0, symName: '__ZN4core3ptr71drop_in_place$LT$std..panicking..panic_handler..FormatStringPayload$GT$17h837459f0acb2901dE', symObjAddr: 0x26C8C, symBinAddr: 0x100020A28, symSize: 0x1C }
  - { offset: 0x22E82, size: 0x8, addend: 0x0, symName: '__ZN4core3ptr72drop_in_place$LT$core..option..Option$LT$object..read..ObjectMap$GT$$GT$17h379eb7351ada8367E', symObjAddr: 0x26CA8, symBinAddr: 0x100020A44, symSize: 0x64 }
  - { offset: 0x22FFF, size: 0x8, addend: 0x0, symName: '__ZN4core3ptr73drop_in_place$LT$alloc..vec..Vec$LT$addr2line..line..LineSequence$GT$$GT$17h677f3e6952565af2E', symObjAddr: 0x26D0C, symBinAddr: 0x100020AA8, symSize: 0x84 }
  - { offset: 0x23157, size: 0x8, addend: 0x0, symName: '__ZN4core3ptr77drop_in_place$LT$alloc..boxed..Box$LT$$u5b$alloc..string..String$u5d$$GT$$GT$17h78b274672de7575aE', symObjAddr: 0x26DC8, symBinAddr: 0x100020B2C, symSize: 0x70 }
  - { offset: 0x2316E, size: 0x8, addend: 0x0, symName: '__ZN4core3ptr77drop_in_place$LT$alloc..boxed..Box$LT$$u5b$alloc..string..String$u5d$$GT$$GT$17h78b274672de7575aE', symObjAddr: 0x26DC8, symBinAddr: 0x100020B2C, symSize: 0x70 }
  - { offset: 0x2326C, size: 0x8, addend: 0x0, symName: '__ZN4core3ptr78drop_in_place$LT$core..result..Result$LT$usize$C$std..io..error..Error$GT$$GT$17hc6788729ea2462fdE', symObjAddr: 0x26E38, symBinAddr: 0x100020B9C, symSize: 0x10 }
  - { offset: 0x23280, size: 0x8, addend: 0x0, symName: '__ZN4core3ptr79drop_in_place$LT$std..sync..poison..rwlock..RwLockReadGuard$LT$$LP$$RP$$GT$$GT$17ha956672fedf200a4E', symObjAddr: 0x26E48, symBinAddr: 0x100020BAC, symSize: 0x58 }
  - { offset: 0x2331C, size: 0x8, addend: 0x0, symName: '__ZN4core3ptr81drop_in_place$LT$core..result..Result$LT$$LP$$RP$$C$std..io..error..Error$GT$$GT$17h655ff33c339b6cb1E', symObjAddr: 0x26F48, symBinAddr: 0x100020C04, symSize: 0x10 }
  - { offset: 0x2334C, size: 0x8, addend: 0x0, symName: '__ZN4core3ptr81drop_in_place$LT$std..sys..process..unix..common..cstring_array..CStringArray$GT$17h515599651e1fa0b6E', symObjAddr: 0x26F58, symBinAddr: 0x100020C14, symSize: 0xD0 }
  - { offset: 0x23694, size: 0x8, addend: 0x0, symName: '__ZN4core3ptr82drop_in_place$LT$alloc..sync..ArcInner$LT$std..sys..fs..unix..InnerReadDir$GT$$GT$17hef996e0988305eb0E', symObjAddr: 0x27028, symBinAddr: 0x100020CE4, symSize: 0x60 }
  - { offset: 0x23837, size: 0x8, addend: 0x0, symName: '__ZN4core3ptr84drop_in_place$LT$$LP$std..ffi..os_str..OsString$C$std..ffi..os_str..OsString$RP$$GT$17ha887c41ca18d2aecE', symObjAddr: 0x27088, symBinAddr: 0x100020D44, symSize: 0x4C }
  - { offset: 0x23984, size: 0x8, addend: 0x0, symName: '__ZN4core3ptr90drop_in_place$LT$std..io..buffered..bufwriter..BufWriter$LT$W$GT$..flush_buf..BufGuard$GT$17h43652e1c305a1ff2E', symObjAddr: 0x27110, symBinAddr: 0x100020D90, symSize: 0x5C }
  - { offset: 0x23B0B, size: 0x8, addend: 0x0, symName: '__ZN4core3ptr92drop_in_place$LT$core..result..Result$LT$addr2line..line..Lines$C$gimli..read..Error$GT$$GT$17ha1897ab6fc371eb0E', symObjAddr: 0x271BC, symBinAddr: 0x100020DEC, symSize: 0xE4 }
  - { offset: 0x23D51, size: 0x8, addend: 0x0, symName: '__ZN4core3ptr93drop_in_place$LT$core..option..Option$LT$std..backtrace_rs..symbolize..gimli..Mapping$GT$$GT$17hd2c3071a4d1fdf1cE', symObjAddr: 0x272A0, symBinAddr: 0x100020ED0, symSize: 0x6C }
  - { offset: 0x23DE0, size: 0x8, addend: 0x0, symName: '__ZN4core3ptr95drop_in_place$LT$std..io..buffered..linewriter..LineWriter$LT$std..io..stdio..StdoutRaw$GT$$GT$17hcbf77a70a86af71fE', symObjAddr: 0x2730C, symBinAddr: 0x100020F3C, symSize: 0xF8 }
  - { offset: 0x25F7B, size: 0x8, addend: 0x0, symName: __ZN4core5panic12PanicPayload6as_str17h1071335dd01dc3a9E, symObjAddr: 0x2A418, symBinAddr: 0x100021160, symSize: 0x8 }
  - { offset: 0x267CE, size: 0x8, addend: 0x0, symName: '__ZN70_$LT$core..num..error..TryFromIntError$u20$as$u20$core..fmt..Debug$GT$3fmt17h14ce7830233a5c8dE', symObjAddr: 0x46EFC, symBinAddr: 0x100034CE0, symSize: 0x40 }
  - { offset: 0x2832B, size: 0x8, addend: 0x0, symName: __ZN4core5slice4sort8unstable7ipnsort17h5d7543a75d941cffE, symObjAddr: 0x310D0, symBinAddr: 0x100027E18, symSize: 0xEC }
  - { offset: 0x2846D, size: 0x8, addend: 0x0, symName: __ZN4core5slice4sort8unstable7ipnsort17h62c8a47683a638f3E, symObjAddr: 0x311BC, symBinAddr: 0x100027F04, symSize: 0x1A8 }
  - { offset: 0x28748, size: 0x8, addend: 0x0, symName: __ZN4core5slice4sort8unstable8heapsort8heapsort17h301a034dfcc890faE, symObjAddr: 0x31364, symBinAddr: 0x1000280AC, symSize: 0x100 }
  - { offset: 0x28944, size: 0x8, addend: 0x0, symName: __ZN4core5slice4sort8unstable8heapsort8heapsort17h5ff97107d3f154adE, symObjAddr: 0x31464, symBinAddr: 0x1000281AC, symSize: 0x160 }
  - { offset: 0x28CE8, size: 0x8, addend: 0x0, symName: __ZN4core5slice4sort8unstable9quicksort9quicksort17h0ba40b7285a59f52E, symObjAddr: 0x315C4, symBinAddr: 0x10002830C, symSize: 0x3F8 }
  - { offset: 0x295AC, size: 0x8, addend: 0x0, symName: __ZN4core5slice4sort8unstable9quicksort9quicksort17h98476d76dc825101E, symObjAddr: 0x319BC, symBinAddr: 0x100028704, symSize: 0x578 }
  - { offset: 0x2A1B7, size: 0x8, addend: 0x0, symName: __ZN4core5slice4sort6stable14driftsort_main17h7ade04ab22cdd8f2E, symObjAddr: 0x2BCA0, symBinAddr: 0x1000229E8, symSize: 0x140 }
  - { offset: 0x2A46F, size: 0x8, addend: 0x0, symName: __ZN4core5slice4sort6stable14driftsort_main17h7b5faaae84c7cbb7E, symObjAddr: 0x2BDE0, symBinAddr: 0x100022B28, symSize: 0x140 }
  - { offset: 0x2A6A5, size: 0x8, addend: 0x0, symName: __ZN4core5slice4sort6stable14driftsort_main17ha9c3ec71caecf83fE, symObjAddr: 0x2BF20, symBinAddr: 0x100022C68, symSize: 0x140 }
  - { offset: 0x2A95D, size: 0x8, addend: 0x0, symName: __ZN4core5slice4sort6stable14driftsort_main17had35389d5dd234b1E, symObjAddr: 0x2C060, symBinAddr: 0x100022DA8, symSize: 0x158 }
  - { offset: 0x2AC8B, size: 0x8, addend: 0x0, symName: __ZN4core5slice4sort6stable14driftsort_main17hda7ba3b19d6fc900E, symObjAddr: 0x2C1B8, symBinAddr: 0x100022F00, symSize: 0x158 }
  - { offset: 0x2AFB9, size: 0x8, addend: 0x0, symName: __ZN4core5slice4sort6stable14driftsort_main17he0ade99dc0cb88f1E, symObjAddr: 0x2C310, symBinAddr: 0x100023058, symSize: 0x140 }
  - { offset: 0x2B485, size: 0x8, addend: 0x0, symName: __ZN4core5slice4sort6stable5drift4sort17h085f3b0b9c131daaE, symObjAddr: 0x2C450, symBinAddr: 0x100023198, symSize: 0x53C }
  - { offset: 0x2BB8F, size: 0x8, addend: 0x0, symName: __ZN4core5slice4sort6stable5drift4sort17h0b0941fd53d2eb36E, symObjAddr: 0x2C98C, symBinAddr: 0x1000236D4, symSize: 0x5EC }
  - { offset: 0x2C2C1, size: 0x8, addend: 0x0, symName: __ZN4core5slice4sort6stable5drift4sort17h6874b5ff9a1e9842E, symObjAddr: 0x2CF78, symBinAddr: 0x100023CC0, symSize: 0x4F4 }
  - { offset: 0x2C9B5, size: 0x8, addend: 0x0, symName: __ZN4core5slice4sort6stable5drift4sort17hacafb250fe287f02E, symObjAddr: 0x2D46C, symBinAddr: 0x1000241B4, symSize: 0x4F4 }
  - { offset: 0x2D0A9, size: 0x8, addend: 0x0, symName: __ZN4core5slice4sort6stable5drift4sort17hb5c3f298be29b63dE, symObjAddr: 0x2D960, symBinAddr: 0x1000246A8, symSize: 0x4D8 }
  - { offset: 0x2D709, size: 0x8, addend: 0x0, symName: __ZN4core5slice4sort6stable5drift4sort17hd24339b1ba8572adE, symObjAddr: 0x2DE38, symBinAddr: 0x100024B80, symSize: 0x538 }
  - { offset: 0x2E010, size: 0x8, addend: 0x0, symName: __ZN4core5slice4sort6stable9quicksort9quicksort17h6b022558501172b1E, symObjAddr: 0x2E370, symBinAddr: 0x1000250B8, symSize: 0x820 }
  - { offset: 0x2F002, size: 0x8, addend: 0x0, symName: __ZN4core5slice4sort6stable9quicksort9quicksort17h77925009546caf48E, symObjAddr: 0x2EB90, symBinAddr: 0x1000258D8, symSize: 0x834 }
  - { offset: 0x2FC4D, size: 0x8, addend: 0x0, symName: __ZN4core5slice4sort6stable9quicksort9quicksort17h99c833017676aa53E, symObjAddr: 0x2F3C4, symBinAddr: 0x10002610C, symSize: 0x6D8 }
  - { offset: 0x3075B, size: 0x8, addend: 0x0, symName: __ZN4core5slice4sort6stable9quicksort9quicksort17h9b2801c31f3c9e70E, symObjAddr: 0x2FA9C, symBinAddr: 0x1000267E4, symSize: 0x810 }
  - { offset: 0x31399, size: 0x8, addend: 0x0, symName: __ZN4core5slice4sort6stable9quicksort9quicksort17ha3ab17a848a79a77E, symObjAddr: 0x302AC, symBinAddr: 0x100026FF4, symSize: 0x6E0 }
  - { offset: 0x31EA7, size: 0x8, addend: 0x0, symName: __ZN4core5slice4sort6stable9quicksort9quicksort17hd0cb711591baa19cE, symObjAddr: 0x3098C, symBinAddr: 0x1000276D4, symSize: 0x744 }
  - { offset: 0x32706, size: 0x8, addend: 0x0, symName: __ZN4core5slice4sort6shared9smallsort12sort4_stable17h0da1ce099c210ce9E, symObjAddr: 0x2AB44, symBinAddr: 0x10002188C, symSize: 0x180 }
  - { offset: 0x32AF0, size: 0x8, addend: 0x0, symName: __ZN4core5slice4sort6shared9smallsort12sort4_stable17h139ca5c859589941E, symObjAddr: 0x2ACC4, symBinAddr: 0x100021A0C, symSize: 0x194 }
  - { offset: 0x32CD5, size: 0x8, addend: 0x0, symName: __ZN4core5slice4sort6shared9smallsort12sort8_stable17h18703b6069e9c4ebE, symObjAddr: 0x2AE58, symBinAddr: 0x100021BA0, symSize: 0x2B8 }
  - { offset: 0x331BE, size: 0x8, addend: 0x0, symName: __ZN4core5slice4sort6shared9smallsort18small_sort_general17h80ae0a6b297f62c8E, symObjAddr: 0x2B110, symBinAddr: 0x100021E58, symSize: 0x4A0 }
  - { offset: 0x338D1, size: 0x8, addend: 0x0, symName: __ZN4core5slice4sort6shared9smallsort18small_sort_general17haab78fd802d5e9baE, symObjAddr: 0x2B5B0, symBinAddr: 0x1000222F8, symSize: 0x408 }
  - { offset: 0x33DF9, size: 0x8, addend: 0x0, symName: __ZN4core5slice4sort6shared9smallsort25insertion_sort_shift_left17h739d96d2d11fa27bE, symObjAddr: 0x2B9B8, symBinAddr: 0x100022700, symSize: 0x94 }
  - { offset: 0x33ED1, size: 0x8, addend: 0x0, symName: __ZN4core5slice4sort6shared9smallsort25insertion_sort_shift_left17hc977fb5c0688bf20E, symObjAddr: 0x2BA4C, symBinAddr: 0x100022794, symSize: 0xB8 }
  - { offset: 0x33FF1, size: 0x8, addend: 0x0, symName: __ZN4core5slice4sort6shared9smallsort25insertion_sort_shift_left17hcc529bd7abac8e25E, symObjAddr: 0x2BB04, symBinAddr: 0x10002284C, symSize: 0xF4 }
  - { offset: 0x341B7, size: 0x8, addend: 0x0, symName: __ZN4core5slice4sort6shared9smallsort25insertion_sort_shift_left17hdfffd6f60b981efdE, symObjAddr: 0x2BBF8, symBinAddr: 0x100022940, symSize: 0xA8 }
  - { offset: 0x34481, size: 0x8, addend: 0x0, symName: __ZN4core5slice4sort6shared5pivot11median3_rec17h134b703ff6d407b9E, symObjAddr: 0x2A420, symBinAddr: 0x100021168, symSize: 0xCC }
  - { offset: 0x3458C, size: 0x8, addend: 0x0, symName: __ZN4core5slice4sort6shared5pivot11median3_rec17h1e6e6b5a8f0d3c9dE, symObjAddr: 0x2A4EC, symBinAddr: 0x100021234, symSize: 0xD0 }
  - { offset: 0x34699, size: 0x8, addend: 0x0, symName: __ZN4core5slice4sort6shared5pivot11median3_rec17h4d263b5d0566d045E, symObjAddr: 0x2A5BC, symBinAddr: 0x100021304, symSize: 0x11C }
  - { offset: 0x347A9, size: 0x8, addend: 0x0, symName: __ZN4core5slice4sort6shared5pivot11median3_rec17h6d7ff4f508e12b82E, symObjAddr: 0x2A6D8, symBinAddr: 0x100021420, symSize: 0xD0 }
  - { offset: 0x348B4, size: 0x8, addend: 0x0, symName: __ZN4core5slice4sort6shared5pivot11median3_rec17h988b88348782b889E, symObjAddr: 0x2A7A8, symBinAddr: 0x1000214F0, symSize: 0xD0 }
  - { offset: 0x349BF, size: 0x8, addend: 0x0, symName: __ZN4core5slice4sort6shared5pivot11median3_rec17hb44c311f8a001b16E, symObjAddr: 0x2A878, symBinAddr: 0x1000215C0, symSize: 0x134 }
  - { offset: 0x34BFA, size: 0x8, addend: 0x0, symName: __ZN4core5slice4sort6shared5pivot11median3_rec17hd942f779595c303fE, symObjAddr: 0x2A9AC, symBinAddr: 0x1000216F4, symSize: 0xCC }
  - { offset: 0x34D05, size: 0x8, addend: 0x0, symName: __ZN4core5slice4sort6shared5pivot11median3_rec17hdd0991ed80ab6e2dE, symObjAddr: 0x2AA78, symBinAddr: 0x1000217C0, symSize: 0xCC }
  - { offset: 0x34F3D, size: 0x8, addend: 0x0, symName: '__ZN55_$LT$$RF$str$u20$as$u20$core..str..pattern..Pattern$GT$15is_contained_in17hc0a7ac267447aa23E', symObjAddr: 0x32C18, symBinAddr: 0x100028C94, symSize: 0x3C0 }
  - { offset: 0x36C19, size: 0x8, addend: 0x0, symName: '__ZN4core3ops8function6FnOnce40call_once$u7b$$u7b$vtable.shim$u7d$$u7d$17h08bb94a3fe447d9cE', symObjAddr: 0x246FC, symBinAddr: 0x10001EFF0, symSize: 0xC }
  - { offset: 0x36C6A, size: 0x8, addend: 0x0, symName: '__ZN4core3ops8function6FnOnce40call_once$u7b$$u7b$vtable.shim$u7d$$u7d$17h26c3c42f9f96ed46E', symObjAddr: 0x24730, symBinAddr: 0x10001EFFC, symSize: 0x98 }
  - { offset: 0x36DB0, size: 0x8, addend: 0x0, symName: '__ZN4core3ops8function6FnOnce40call_once$u7b$$u7b$vtable.shim$u7d$$u7d$17h38e4241864c84f10E', symObjAddr: 0x247C8, symBinAddr: 0x10001F094, symSize: 0x4 }
  - { offset: 0x36DCD, size: 0x8, addend: 0x0, symName: '__ZN4core3ops8function6FnOnce40call_once$u7b$$u7b$vtable.shim$u7d$$u7d$17h38e4241864c84f10E', symObjAddr: 0x247C8, symBinAddr: 0x10001F094, symSize: 0x4 }
  - { offset: 0x36DEC, size: 0x8, addend: 0x0, symName: '__ZN4core3ops8function6FnOnce40call_once$u7b$$u7b$vtable.shim$u7d$$u7d$17h3e7eda628a394e10E', symObjAddr: 0x247CC, symBinAddr: 0x10001F098, symSize: 0x60 }
  - { offset: 0x36ED0, size: 0x8, addend: 0x0, symName: '__ZN4core3ops8function6FnOnce40call_once$u7b$$u7b$vtable.shim$u7d$$u7d$17h4e80488631bce74bE', symObjAddr: 0x2482C, symBinAddr: 0x10001F0F8, symSize: 0xC }
  - { offset: 0x36F21, size: 0x8, addend: 0x0, symName: '__ZN4core3ops8function6FnOnce40call_once$u7b$$u7b$vtable.shim$u7d$$u7d$17h57a7baf643098919E', symObjAddr: 0x24838, symBinAddr: 0x10001F104, symSize: 0x4 }
  - { offset: 0x36F3E, size: 0x8, addend: 0x0, symName: '__ZN4core3ops8function6FnOnce40call_once$u7b$$u7b$vtable.shim$u7d$$u7d$17h57a7baf643098919E', symObjAddr: 0x24838, symBinAddr: 0x10001F104, symSize: 0x4 }
  - { offset: 0x36F5D, size: 0x8, addend: 0x0, symName: '__ZN4core3ops8function6FnOnce40call_once$u7b$$u7b$vtable.shim$u7d$$u7d$17h5f2b35dd19b33620E', symObjAddr: 0x2483C, symBinAddr: 0x10001F108, symSize: 0x28 }
  - { offset: 0x36F99, size: 0x8, addend: 0x0, symName: '__ZN4core3ops8function6FnOnce40call_once$u7b$$u7b$vtable.shim$u7d$$u7d$17h7c3cb17ef918f233E', symObjAddr: 0x24864, symBinAddr: 0x10001F130, symSize: 0x78 }
  - { offset: 0x37EC1, size: 0x8, addend: 0x0, symName: '__ZN36_$LT$T$u20$as$u20$core..any..Any$GT$7type_id17ha81a52e3b43c77a4E', symObjAddr: 0x1028, symBinAddr: 0x10000F1CC, symSize: 0x14 }
  - { offset: 0x37EDE, size: 0x8, addend: 0x0, symName: '__ZN36_$LT$T$u20$as$u20$core..any..Any$GT$7type_id17ha81a52e3b43c77a4E', symObjAddr: 0x1028, symBinAddr: 0x10000F1CC, symSize: 0x14 }
  - { offset: 0x37EF0, size: 0x8, addend: 0x0, symName: '__ZN36_$LT$T$u20$as$u20$core..any..Any$GT$7type_id17hb44d4c6033683273E', symObjAddr: 0x103C, symBinAddr: 0x10000F1E0, symSize: 0x14 }
  - { offset: 0x37F0D, size: 0x8, addend: 0x0, symName: '__ZN36_$LT$T$u20$as$u20$core..any..Any$GT$7type_id17hb44d4c6033683273E', symObjAddr: 0x103C, symBinAddr: 0x10000F1E0, symSize: 0x14 }
  - { offset: 0x38DC5, size: 0x8, addend: 0x0, symName: '__ZN4core5array69_$LT$impl$u20$core..fmt..Debug$u20$for$u20$$u5b$T$u3b$$u20$N$u5d$$GT$3fmt17hd123162ab8102d2aE', symObjAddr: 0x2A2BC, symBinAddr: 0x100021034, symSize: 0xFC }
  - { offset: 0x38EEB, size: 0x8, addend: 0x0, symName: '__ZN4core4cell4once17OnceCell$LT$T$GT$8try_init17h096ee8d6ab5f9ab5E', symObjAddr: 0x27404, symBinAddr: 0x1000468D8, symSize: 0x640 }
  - { offset: 0x39AA1, size: 0x8, addend: 0x0, symName: '__ZN4core4cell4once17OnceCell$LT$T$GT$8try_init17h0fe3646e0b88f6ceE', symObjAddr: 0x27A44, symBinAddr: 0x100046F18, symSize: 0x80 }
  - { offset: 0x39B54, size: 0x8, addend: 0x0, symName: '__ZN4core4cell4once17OnceCell$LT$T$GT$8try_init17h4233e7fefa30ef91E', symObjAddr: 0x27AC4, symBinAddr: 0x100046F98, symSize: 0x1A64 }
  - { offset: 0x3CFB0, size: 0x8, addend: 0x0, symName: '__ZN4core4cell4once17OnceCell$LT$T$GT$8try_init17hc6312a19a1a77d35E', symObjAddr: 0x29528, symBinAddr: 0x1000489FC, symSize: 0xC24 }
  - { offset: 0x3E90D, size: 0x8, addend: 0x0, symName: '__ZN4core4cell4once17OnceCell$LT$T$GT$8try_init17hcb2a62d93e38dee1E', symObjAddr: 0x2A14C, symBinAddr: 0x100049620, symSize: 0x60 }
  - { offset: 0x3E92B, size: 0x8, addend: 0x0, symName: '__ZN4core4cell4once17OnceCell$LT$T$GT$8try_init17hcb2a62d93e38dee1E', symObjAddr: 0x2A14C, symBinAddr: 0x100049620, symSize: 0x60 }
  - { offset: 0x3E940, size: 0x8, addend: 0x0, symName: '__ZN4core4cell4once17OnceCell$LT$T$GT$8try_init17hcb2a62d93e38dee1E', symObjAddr: 0x2A14C, symBinAddr: 0x100049620, symSize: 0x60 }
  - { offset: 0x3E954, size: 0x8, addend: 0x0, symName: '__ZN4core4cell4once17OnceCell$LT$T$GT$8try_init17hcb2a62d93e38dee1E', symObjAddr: 0x2A14C, symBinAddr: 0x100049620, symSize: 0x60 }
  - { offset: 0x3E9AB, size: 0x8, addend: 0x0, symName: '__ZN4core4cell4once17OnceCell$LT$T$GT$8try_init17hf4832393ad19d4f9E', symObjAddr: 0x2A1AC, symBinAddr: 0x100049680, symSize: 0x110 }
  - { offset: 0x3F171, size: 0x8, addend: 0x0, symName: __ZN4core5error5Error11description17hcf90faf3be666b0fE, symObjAddr: 0x2A3C8, symBinAddr: 0x100021130, symSize: 0x10 }
  - { offset: 0x3F18C, size: 0x8, addend: 0x0, symName: __ZN4core5error5Error5cause17h9d8e707b615b1dccE, symObjAddr: 0x2A3D8, symBinAddr: 0x100021140, symSize: 0x8 }
  - { offset: 0x3F1A7, size: 0x8, addend: 0x0, symName: __ZN4core5error5Error7provide17hf6f11971797fe577E, symObjAddr: 0x2A3EC, symBinAddr: 0x100021148, symSize: 0x4 }
  - { offset: 0x3F1C2, size: 0x8, addend: 0x0, symName: __ZN4core5error5Error7type_id17hcfbfefb73a50f493E, symObjAddr: 0x2A404, symBinAddr: 0x10002114C, symSize: 0x14 }
  - { offset: 0x3F1E1, size: 0x8, addend: 0x0, symName: __ZN4core5error5Error7type_id17hcfbfefb73a50f493E, symObjAddr: 0x2A404, symBinAddr: 0x10002114C, symSize: 0x14 }
  - { offset: 0x3F1FB, size: 0x8, addend: 0x0, symName: __ZN4core9panicking13assert_failed17h19670db3f6693dadE, symObjAddr: 0x31F34, symBinAddr: 0x100049790, symSize: 0x34 }
  - { offset: 0x3F217, size: 0x8, addend: 0x0, symName: __ZN4core9panicking13assert_failed17h380ae13b39a456adE, symObjAddr: 0x31F68, symBinAddr: 0x1000497C4, symSize: 0x24 }
  - { offset: 0x3F23F, size: 0x8, addend: 0x0, symName: __RNvCskdKJRKLKjqM_7___rustc10rust_panic, symObjAddr: 0x0, symBinAddr: 0x100045DB0, symSize: 0x60 }
  - { offset: 0x3F270, size: 0x8, addend: 0x0, symName: __RNvCskdKJRKLKjqM_7___rustc17___rust_drop_panic, symObjAddr: 0x1B0, symBinAddr: 0x10000EE28, symSize: 0xBC }
  - { offset: 0x3F465, size: 0x8, addend: 0x0, symName: __RNvCskdKJRKLKjqM_7___rustc17rust_begin_unwind, symObjAddr: 0x26C, symBinAddr: 0x10000EEE4, symSize: 0x20 }
  - { offset: 0x3F496, size: 0x8, addend: 0x0, symName: __RNvCskdKJRKLKjqM_7___rustc24___rust_foreign_exception, symObjAddr: 0x31C, symBinAddr: 0x10000EF94, symSize: 0xBC }
  - { offset: 0x3F709, size: 0x8, addend: 0x0, symName: __ZN3std9panicking11panic_count17is_zero_slow_path17h24290651bb572e96E, symObjAddr: 0x21B78, symBinAddr: 0x1000468AC, symSize: 0x2C }
  - { offset: 0x3F7B8, size: 0x8, addend: 0x0, symName: __ZN3std9panicking11panic_count8increase17h90668b12758c90deE, symObjAddr: 0x21C08, symBinAddr: 0x10001DB3C, symSize: 0x64 }
  - { offset: 0x3F7CF, size: 0x8, addend: 0x0, symName: __ZN3std9panicking11panic_count8increase17h90668b12758c90deE, symObjAddr: 0x21C08, symBinAddr: 0x10001DB3C, symSize: 0x64 }
  - { offset: 0x3F7E4, size: 0x8, addend: 0x0, symName: __ZN3std9panicking11panic_count8increase17h90668b12758c90deE, symObjAddr: 0x21C08, symBinAddr: 0x10001DB3C, symSize: 0x64 }
  - { offset: 0x3F990, size: 0x8, addend: 0x0, symName: __ZN3std9panicking12default_hook17hff9145c2c6e89cdfE, symObjAddr: 0x21CD0, symBinAddr: 0x10001DBA0, symSize: 0x13C }
  - { offset: 0x3FB1D, size: 0x8, addend: 0x0, symName: '__ZN3std9panicking12default_hook28_$u7b$$u7b$closure$u7d$$u7d$17hbcaf474e707f3b7dE', symObjAddr: 0x21E0C, symBinAddr: 0x10001DCDC, symSize: 0x19C }
  - { offset: 0x3FCF4, size: 0x8, addend: 0x0, symName: '__ZN3std9panicking12default_hook28_$u7b$$u7b$closure$u7d$$u7d$28_$u7b$$u7b$closure$u7d$$u7d$17he4e4856f72e7e2dfE', symObjAddr: 0x21FA8, symBinAddr: 0x10001DE78, symSize: 0x314 }
  - { offset: 0x40321, size: 0x8, addend: 0x0, symName: __ZN3std9panicking13panic_handler19FormatStringPayload4fill17h49f06b785e976a61E, symObjAddr: 0x222BC, symBinAddr: 0x10001E18C, symSize: 0xB8 }
  - { offset: 0x4043E, size: 0x8, addend: 0x0, symName: '__ZN3std9panicking13panic_handler28_$u7b$$u7b$closure$u7d$$u7d$17h42f8d27eb97efb5cE', symObjAddr: 0x22374, symBinAddr: 0x10001E244, symSize: 0xC0 }
  - { offset: 0x4059A, size: 0x8, addend: 0x0, symName: '__ZN86_$LT$std..panicking..panic_handler..StaticStrPayload$u20$as$u20$core..fmt..Display$GT$3fmt17h23daa1d361c20ad8E', symObjAddr: 0x4B230, symBinAddr: 0x100035634, symSize: 0x10 }
  - { offset: 0x405BB, size: 0x8, addend: 0x0, symName: '__ZN89_$LT$std..panicking..panic_handler..FormatStringPayload$u20$as$u20$core..fmt..Display$GT$3fmt17h96c36f262cceff4fE', symObjAddr: 0x4B5E4, symBinAddr: 0x100035644, symSize: 0x6C }
  - { offset: 0x406AF, size: 0x8, addend: 0x0, symName: '__ZN93_$LT$std..panicking..panic_handler..StaticStrPayload$u20$as$u20$core..panic..PanicPayload$GT$3get17h9446d3bfcd75a0d7E', symObjAddr: 0x4BC54, symBinAddr: 0x100035718, symSize: 0xC }
  - { offset: 0x406CA, size: 0x8, addend: 0x0, symName: '__ZN93_$LT$std..panicking..panic_handler..StaticStrPayload$u20$as$u20$core..panic..PanicPayload$GT$6as_str17hdc3733a5b5cc28baE', symObjAddr: 0x4BC60, symBinAddr: 0x100035724, symSize: 0xC }
  - { offset: 0x406E5, size: 0x8, addend: 0x0, symName: '__ZN93_$LT$std..panicking..panic_handler..StaticStrPayload$u20$as$u20$core..panic..PanicPayload$GT$8take_box17h6400803d1e475458E', symObjAddr: 0x4BC6C, symBinAddr: 0x100035730, symSize: 0x48 }
  - { offset: 0x40762, size: 0x8, addend: 0x0, symName: '__ZN96_$LT$std..panicking..panic_handler..FormatStringPayload$u20$as$u20$core..panic..PanicPayload$GT$3get17he69c34545aa12e4dE', symObjAddr: 0x4C2D4, symBinAddr: 0x100035AD8, symSize: 0x1C }
  - { offset: 0x4077D, size: 0x8, addend: 0x0, symName: '__ZN96_$LT$std..panicking..panic_handler..FormatStringPayload$u20$as$u20$core..panic..PanicPayload$GT$8take_box17hb2deabfa34b702e6E', symObjAddr: 0x4C2F0, symBinAddr: 0x100035AF4, symSize: 0x8C }
  - { offset: 0x408CF, size: 0x8, addend: 0x0, symName: __ZN3std9panicking14payload_as_str17ha2e19316e5057f13E, symObjAddr: 0x224EC, symBinAddr: 0x10001E304, symSize: 0xC8 }
  - { offset: 0x40A14, size: 0x8, addend: 0x0, symName: __ZN3std9panicking15panic_with_hook17he6431e171a67d1a5E, symObjAddr: 0x225B4, symBinAddr: 0x10001E3CC, symSize: 0x390 }
  - { offset: 0x412C5, size: 0x8, addend: 0x0, symName: '__ZN102_$LT$std..sys..process..unix..common..cstring_array..CStringArray$u20$as$u20$core..ops..drop..Drop$GT$4drop17hee720c09383e4bd2E', symObjAddr: 0x3F0, symBinAddr: 0x10000F050, symSize: 0x6C }
  - { offset: 0x4150B, size: 0x8, addend: 0x0, symName: '__ZN3std3sys7process4unix4unix58_$LT$impl$u20$std..sys..process..unix..common..Command$GT$5spawn17hfcbbc52437fe5f4aE', symObjAddr: 0x18DCC, symBinAddr: 0x10001A12C, symSize: 0x95C }
  - { offset: 0x425E1, size: 0x8, addend: 0x0, symName: '__ZN3std3sys7process4unix4unix58_$LT$impl$u20$std..sys..process..unix..common..Command$GT$7do_exec17h26b1e14ede09e6b2E', symObjAddr: 0x19728, symBinAddr: 0x10001AA88, symSize: 0x32C }
  - { offset: 0x42DAA, size: 0x8, addend: 0x0, symName: __ZN3std3sys7process4unix6common7Command11capture_env17h8b4259b5459d513fE, symObjAddr: 0x19C2C, symBinAddr: 0x10001AF8C, symSize: 0xB98 }
  - { offset: 0x45063, size: 0x8, addend: 0x0, symName: __ZN3std3sys7process4unix6common7Command3arg17h5808cfe571359bb4E, symObjAddr: 0x1A7C4, symBinAddr: 0x10001BB24, symSize: 0xEC }
  - { offset: 0x4537B, size: 0x8, addend: 0x0, symName: __ZN3std3sys7process4unix6common7Command3new17h311354af76aefa00E, symObjAddr: 0x1A984, symBinAddr: 0x10001BC10, symSize: 0x288 }
  - { offset: 0x458D5, size: 0x8, addend: 0x0, symName: __ZN3std3sys7process4unix6common7Command8setup_io17hfff349106e5eb2d7E, symObjAddr: 0x1AE48, symBinAddr: 0x10001BE98, symSize: 0x2F8 }
  - { offset: 0x45D2B, size: 0x8, addend: 0x0, symName: __ZN3std3sys7process4unix6common5Stdio14to_child_stdio17hf579c16cd28b5667E, symObjAddr: 0x19AF0, symBinAddr: 0x10001AE50, symSize: 0x13C }
  - { offset: 0x45F0E, size: 0x8, addend: 0x0, symName: __ZN3std3sys7process4unix4unix7Process4wait17h3cbedff82d34e9e8E, symObjAddr: 0x19A54, symBinAddr: 0x10001ADB4, symSize: 0x9C }
  - { offset: 0x460B0, size: 0x8, addend: 0x0, symName: __ZN3std3sys3pal6common14small_c_string24run_with_cstr_allocating17h798411b79b11fd56E, symObjAddr: 0x16B5C, symBinAddr: 0x100046080, symSize: 0xA4 }
  - { offset: 0x46207, size: 0x8, addend: 0x0, symName: __ZN3std3sys3pal6common14small_c_string24run_with_cstr_allocating17h99e236d7e8506142E, symObjAddr: 0x16C00, symBinAddr: 0x100046124, symSize: 0xB4 }
  - { offset: 0x463D0, size: 0x8, addend: 0x0, symName: __ZN3std3sys3pal6common14small_c_string24run_with_cstr_allocating17hee1175bf1c9e834cE, symObjAddr: 0x16EFC, symBinAddr: 0x1000461D8, symSize: 0xC0 }
  - { offset: 0x465DE, size: 0x8, addend: 0x0, symName: __ZN3std3sys3pal4unix14stack_overflow11thread_info16set_current_info17h02534502962db8e5E, symObjAddr: 0x14D00, symBinAddr: 0x10001858C, symSize: 0x950 }
  - { offset: 0x47979, size: 0x8, addend: 0x0, symName: __ZN3std3sys3pal4unix14stack_overflow3imp12drop_handler17hc9fb2befc4b4b16bE, symObjAddr: 0x15650, symBinAddr: 0x100018EDC, symSize: 0x3A4 }
  - { offset: 0x481B9, size: 0x8, addend: 0x0, symName: __ZN3std3sys3pal4unix14stack_overflow3imp12make_handler17h894f5618496a4a4dE, symObjAddr: 0x159F4, symBinAddr: 0x100019280, symSize: 0x234 }
  - { offset: 0x4857C, size: 0x8, addend: 0x0, symName: __ZN3std3sys3pal4unix14stack_overflow3imp14signal_handler17h7e8c2c206c160b5eE, symObjAddr: 0x15C28, symBinAddr: 0x1000194B4, symSize: 0x2A8 }
  - { offset: 0x48BD1, size: 0x8, addend: 0x0, symName: __ZN3std3sys3pal4unix4sync5mutex5Mutex4init17h3dc7e68cdddb15ffE, symObjAddr: 0x16564, symBinAddr: 0x100019C50, symSize: 0x16C }
  - { offset: 0x48CA2, size: 0x8, addend: 0x0, symName: __ZN3std3sys3pal4unix4sync5mutex5Mutex4lock4fail17h626389f0d772d537E, symObjAddr: 0x166EC, symBinAddr: 0x100045F9C, symSize: 0xE4 }
  - { offset: 0x48F6C, size: 0x8, addend: 0x0, symName: __ZN3std3sys3pal4unix14abort_internal17h8d76cac37bc1e660E, symObjAddr: 0x14CF4, symBinAddr: 0x100045F90, symSize: 0xC }
  - { offset: 0x48F87, size: 0x8, addend: 0x0, symName: __ZN3std3sys3pal4unix17decode_error_kind17hb6d24ea5e3e2f6a1E, symObjAddr: 0x15ED0, symBinAddr: 0x10001975C, symSize: 0x150 }
  - { offset: 0x48FD9, size: 0x8, addend: 0x0, symName: __ZN3std3sys3pal4unix4pipe5read217hebc7a8d2c573a493E, symObjAddr: 0x161C0, symBinAddr: 0x1000198AC, symSize: 0x22C }
  - { offset: 0x493D7, size: 0x8, addend: 0x0, symName: __ZN3std3sys3pal4unix4pipe8AnonPipe5write17h29011c4a1bb3d17eE, symObjAddr: 0x163EC, symBinAddr: 0x100019AD8, symSize: 0x50 }
  - { offset: 0x494CE, size: 0x8, addend: 0x0, symName: __ZN3std3sys3pal4unix4pipe9anon_pipe17h8d6a328f4fe59a7fE, symObjAddr: 0x1643C, symBinAddr: 0x100019B28, symSize: 0x128 }
  - { offset: 0x49843, size: 0x8, addend: 0x0, symName: __ZN3std3sys12thread_local6native5eager7destroy17h30ed59e6126037efE, symObjAddr: 0xF88C, symBinAddr: 0x100017C88, symSize: 0x2C }
  - { offset: 0x499D9, size: 0x8, addend: 0x0, symName: __ZN3std3sys12thread_local5guard5apple6enable9run_dtors17h8979e0b3d1187c7fE, symObjAddr: 0xF794, symBinAddr: 0x100017B90, symSize: 0xF8 }
  - { offset: 0x49EAE, size: 0x8, addend: 0x0, symName: __ZN3std3sys12thread_local11destructors4list8register17he85c11a1c2ed5827E, symObjAddr: 0xF67C, symBinAddr: 0x100017A78, symSize: 0x118 }
  - { offset: 0x4A214, size: 0x8, addend: 0x0, symName: __ZN3std3sys3env4unix13env_read_lock17h0f43be51d1951982E, symObjAddr: 0x1398C, symBinAddr: 0x100018214, symSize: 0x230 }
  - { offset: 0x4A8FE, size: 0x8, addend: 0x0, symName: '__ZN3std3sys3env4unix6getenv28_$u7b$$u7b$closure$u7d$$u7d$17h8142d75fd75589c4E', symObjAddr: 0x13BBC, symBinAddr: 0x100018444, symSize: 0x148 }
  - { offset: 0x4AC11, size: 0x8, addend: 0x0, symName: __ZN3std3sys2fs4unix4File6open_c17h8b4308debc18b247E, symObjAddr: 0x12348, symBinAddr: 0x100017ED8, symSize: 0x1A0 }
  - { offset: 0x4AD94, size: 0x8, addend: 0x0, symName: '__ZN65_$LT$std..sys..fs..unix..Dir$u20$as$u20$core..ops..drop..Drop$GT$4drop17hb27d2dcfbde0f4f8E', symObjAddr: 0x45A50, symBinAddr: 0x1000343E4, symSize: 0xC8 }
  - { offset: 0x4AE73, size: 0x8, addend: 0x0, symName: __ZN3std3sys2fs8read_dir17h01b537fe6e853e47E, symObjAddr: 0x13500, symBinAddr: 0x100018078, symSize: 0x19C }
  - { offset: 0x4B2B2, size: 0x8, addend: 0x0, symName: __ZN3std3sys2fd4unix8FileDesc11read_to_end17h90678055a872cb01E, symObjAddr: 0x10B8C, symBinAddr: 0x100017CB4, symSize: 0x224 }
  - { offset: 0x4B74B, size: 0x8, addend: 0x0, symName: '__ZN64_$LT$std..sys..stdio..unix..Stderr$u20$as$u20$std..io..Write$GT$14write_vectored17hc6a0fe94280856b7E', symObjAddr: 0x457B4, symBinAddr: 0x10003432C, symSize: 0x54 }
  - { offset: 0x4B821, size: 0x8, addend: 0x0, symName: '__ZN64_$LT$std..sys..stdio..unix..Stderr$u20$as$u20$std..io..Write$GT$17is_write_vectored17ha5fe1632aa356e69E', symObjAddr: 0x45808, symBinAddr: 0x100034380, symSize: 0x8 }
  - { offset: 0x4B83B, size: 0x8, addend: 0x0, symName: '__ZN64_$LT$std..sys..stdio..unix..Stderr$u20$as$u20$std..io..Write$GT$5flush17h9c44c0bc84723652E', symObjAddr: 0x45810, symBinAddr: 0x100034388, symSize: 0x8 }
  - { offset: 0x4B855, size: 0x8, addend: 0x0, symName: '__ZN64_$LT$std..sys..stdio..unix..Stderr$u20$as$u20$std..io..Write$GT$5write17hb65269e8ba794fd5E', symObjAddr: 0x45818, symBinAddr: 0x100034390, symSize: 0x54 }
  - { offset: 0x4B9B6, size: 0x8, addend: 0x0, symName: '__ZN3std3sys4sync8once_box16OnceBox$LT$T$GT$10initialize17hb710239f2ab0be2bE', symObjAddr: 0x18054, symBinAddr: 0x100046530, symSize: 0xE4 }
  - { offset: 0x4BC78, size: 0x8, addend: 0x0, symName: __ZN3std3sys4sync4once5queue4Once4call17hd1bb46051256f23fE, symObjAddr: 0x1736C, symBinAddr: 0x100046298, symSize: 0x218 }
  - { offset: 0x4BF5A, size: 0x8, addend: 0x0, symName: '__ZN82_$LT$std..sys..sync..once..queue..WaiterQueue$u20$as$u20$core..ops..drop..Drop$GT$4drop17h7f1d4befd79eb70eE', symObjAddr: 0x4AD40, symBinAddr: 0x100035554, symSize: 0xE0 }
  - { offset: 0x4C151, size: 0x8, addend: 0x0, symName: __ZN3std3sys4sync4once5queue4wait17hfd76cbd9a064ab39E, symObjAddr: 0x17764, symBinAddr: 0x100019DBC, symSize: 0x184 }
  - { offset: 0x4C6E6, size: 0x8, addend: 0x0, symName: __ZN3std3sys4sync6rwlock5queue6RwLock12unlock_queue17h6341a139252af1a4E, symObjAddr: 0x178FC, symBinAddr: 0x100019F40, symSize: 0x1CC }
  - { offset: 0x4CD48, size: 0x8, addend: 0x0, symName: __ZN3std3sys4sync6rwlock5queue6RwLock16unlock_contended17hd5d9b4bea5b136d5E, symObjAddr: 0x17DC4, symBinAddr: 0x1000464B0, symSize: 0x40 }
  - { offset: 0x4CE0F, size: 0x8, addend: 0x0, symName: __ZN3std3sys4sync6rwlock5queue6RwLock21read_unlock_contended17hf10ad3e8d16e983dE, symObjAddr: 0x17E04, symBinAddr: 0x1000464F0, symSize: 0x40 }
  - { offset: 0x4CE2D, size: 0x8, addend: 0x0, symName: __ZN3std3sys4sync6rwlock5queue6RwLock21read_unlock_contended17hf10ad3e8d16e983dE, symObjAddr: 0x17E04, symBinAddr: 0x1000464F0, symSize: 0x40 }
  - { offset: 0x4CE42, size: 0x8, addend: 0x0, symName: __ZN3std3sys4sync6rwlock5queue6RwLock21read_unlock_contended17hf10ad3e8d16e983dE, symObjAddr: 0x17E04, symBinAddr: 0x1000464F0, symSize: 0x40 }
  - { offset: 0x4D067, size: 0x8, addend: 0x0, symName: __ZN3std3sys4sync6rwlock5queue9read_lock17he5ccf40565f845d6E, symObjAddr: 0x17E44, symBinAddr: 0x10001A10C, symSize: 0x20 }
  - { offset: 0x4D080, size: 0x8, addend: 0x0, symName: '__ZN83_$LT$std..sys..sync..rwlock..queue..PanicGuard$u20$as$u20$core..ops..drop..Drop$GT$4drop17h5297df96adf6f25aE', symObjAddr: 0x4AFC0, symBinAddr: 0x100049960, symSize: 0x44 }
  - { offset: 0x4D145, size: 0x8, addend: 0x0, symName: '__ZN3std3sys11personality3gcc14find_eh_action28_$u7b$$u7b$closure$u7d$$u7d$17h3ded5c67f5e06d18E', symObjAddr: 0xF51C, symBinAddr: 0x100017918, symSize: 0xC }
  - { offset: 0x4D159, size: 0x8, addend: 0x0, symName: '__ZN3std3sys11personality3gcc14find_eh_action28_$u7b$$u7b$closure$u7d$$u7d$17hc6e49a652099b2faE', symObjAddr: 0xF528, symBinAddr: 0x100017924, symSize: 0xC }
  - { offset: 0x4D1A5, size: 0x8, addend: 0x0, symName: _rust_eh_personality, symObjAddr: 0x4F004, symBinAddr: 0x100038530, symSize: 0x378 }
  - { offset: 0x4D4EF, size: 0x8, addend: 0x0, symName: __ZN3std3sys11personality5dwarf2eh19read_encoded_offset17h4247a370d6a78c9aE, symObjAddr: 0xF534, symBinAddr: 0x100017930, symSize: 0x148 }
  - { offset: 0x4D645, size: 0x8, addend: 0x0, symName: '__ZN3std3sys9backtrace10_print_fmt28_$u7b$$u7b$closure$u7d$$u7d$17h64c635585236989fE', symObjAddr: 0x1B278, symBinAddr: 0x10001C190, symSize: 0x24 }
  - { offset: 0x4D66E, size: 0x8, addend: 0x0, symName: '__ZN3std3sys9backtrace10_print_fmt28_$u7b$$u7b$closure$u7d$$u7d$17ha7bccce4e6c2a239E', symObjAddr: 0x1B29C, symBinAddr: 0x10001C1B4, symSize: 0x134 }
  - { offset: 0x4D782, size: 0x8, addend: 0x0, symName: '__ZN3std3sys9backtrace10_print_fmt28_$u7b$$u7b$closure$u7d$$u7d$28_$u7b$$u7b$closure$u7d$$u7d$17h98603fdd5adbbfdcE', symObjAddr: 0x1B3D0, symBinAddr: 0x10001C2E8, symSize: 0x25C }
  - { offset: 0x4D99F, size: 0x8, addend: 0x0, symName: __ZN3std3sys9backtrace13BacktraceLock5print17hea663f6050de4073E, symObjAddr: 0x1B62C, symBinAddr: 0x10001C544, symSize: 0x54 }
  - { offset: 0x4D9D0, size: 0x8, addend: 0x0, symName: __ZN3std3sys9backtrace15output_filename17h6da850852b2497bfE, symObjAddr: 0x1B680, symBinAddr: 0x10001C598, symSize: 0xF4 }
  - { offset: 0x4DB1E, size: 0x8, addend: 0x0, symName: __ZN3std3sys9backtrace26__rust_end_short_backtrace17h0de35f7407a5e0d8E, symObjAddr: 0x1B774, symBinAddr: 0x10001C68C, symSize: 0xC }
  - { offset: 0x4DB38, size: 0x8, addend: 0x0, symName: __ZN3std3sys9backtrace4lock17h2199d00fb77a2766E, symObjAddr: 0x1B78C, symBinAddr: 0x10001C698, symSize: 0x70 }
  - { offset: 0x4DCA5, size: 0x8, addend: 0x0, symName: '__ZN98_$LT$std..sys..backtrace..BacktraceLock..print..DisplayBacktrace$u20$as$u20$core..fmt..Display$GT$3fmt17hfd528c9d14c1136fE', symObjAddr: 0x4C548, symBinAddr: 0x100035B80, symSize: 0x210 }
  - { offset: 0x4E196, size: 0x8, addend: 0x0, symName: __RNvCskdKJRKLKjqM_7___rustc11___rdl_alloc, symObjAddr: 0x60, symBinAddr: 0x10000ECE4, symSize: 0x6C }
  - { offset: 0x4E214, size: 0x8, addend: 0x0, symName: __RNvCskdKJRKLKjqM_7___rustc13___rdl_dealloc, symObjAddr: 0xD8, symBinAddr: 0x10000ED50, symSize: 0x4 }
  - { offset: 0x4E232, size: 0x8, addend: 0x0, symName: __RNvCskdKJRKLKjqM_7___rustc13___rdl_dealloc, symObjAddr: 0xD8, symBinAddr: 0x10000ED50, symSize: 0x4 }
  - { offset: 0x4E245, size: 0x8, addend: 0x0, symName: __RNvCskdKJRKLKjqM_7___rustc13___rdl_realloc, symObjAddr: 0xDC, symBinAddr: 0x10000ED54, symSize: 0xD4 }
  - { offset: 0x4E319, size: 0x8, addend: 0x0, symName: __RNvCskdKJRKLKjqM_7___rustc18___rdl_alloc_zeroed, symObjAddr: 0x28C, symBinAddr: 0x10000EF04, symSize: 0x90 }
  - { offset: 0x4E3BE, size: 0x8, addend: 0x0, symName: __RNvCskdKJRKLKjqM_7___rustc8___rg_oom, symObjAddr: 0x3D8, symBinAddr: 0x100045E10, symSize: 0x18 }
  - { offset: 0x4E3DA, size: 0x8, addend: 0x0, symName: __ZN3std5alloc24default_alloc_error_hook17hda855b09bf8ce5bfE, symObjAddr: 0x1F3C0, symBinAddr: 0x10001D414, symSize: 0x140 }
  - { offset: 0x4E611, size: 0x8, addend: 0x0, symName: __ZN3std5alloc8rust_oom17h64a98ce1b291034bE, symObjAddr: 0x1F500, symBinAddr: 0x1000466D8, symSize: 0x2C }
  - { offset: 0x4E65E, size: 0x8, addend: 0x0, symName: __ZN3std2rt15handle_rt_panic17hd7a3741be038ff7bE, symObjAddr: 0xC6A4, symBinAddr: 0x100045F4C, symSize: 0x44 }
  - { offset: 0x4E6EE, size: 0x8, addend: 0x0, symName: __ZN3std2rt19lang_start_internal17hd700ba983d3377dcE, symObjAddr: 0xC6E8, symBinAddr: 0x100016AD8, symSize: 0x6E4 }
  - { offset: 0x4F331, size: 0x8, addend: 0x0, symName: __ZN3std2io5error14repr_bitpacked11decode_repr17he0232b2b9818a582E, symObjAddr: 0x9D4C, symBinAddr: 0x100015C30, symSize: 0x60 }
  - { offset: 0x4F3B7, size: 0x8, addend: 0x0, symName: __ZN3std2io5error5Error3new17hb0366e1179bed02aE, symObjAddr: 0x9E70, symBinAddr: 0x100015C90, symSize: 0x128 }
  - { offset: 0x4F7EE, size: 0x8, addend: 0x0, symName: '__ZN3std2io5error83_$LT$impl$u20$core..fmt..Debug$u20$for$u20$std..io..error..repr_bitpacked..Repr$GT$3fmt17hc5e272b72661a34bE', symObjAddr: 0xA014, symBinAddr: 0x100015DB8, symSize: 0x294 }
  - { offset: 0x4FA46, size: 0x8, addend: 0x0, symName: '__ZN58_$LT$std..io..error..Error$u20$as$u20$core..fmt..Debug$GT$3fmt17h4bd0f28bf79564b3E', symObjAddr: 0x34100, symBinAddr: 0x10002922C, symSize: 0x4 }
  - { offset: 0x4FA60, size: 0x8, addend: 0x0, symName: '__ZN60_$LT$std..io..error..Error$u20$as$u20$core..fmt..Display$GT$3fmt17h96a3add2cd05308dE', symObjAddr: 0x419AC, symBinAddr: 0x100033AE8, symSize: 0x208 }
  - { offset: 0x4FC93, size: 0x8, addend: 0x0, symName: '__ZN62_$LT$std..io..error..ErrorKind$u20$as$u20$core..fmt..Debug$GT$3fmt17hcbf070d750c729a3E', symObjAddr: 0x445F0, symBinAddr: 0x10003420C, symSize: 0x28 }
  - { offset: 0x4FD19, size: 0x8, addend: 0x0, symName: '__ZN3std2io8buffered9bufwriter18BufWriter$LT$W$GT$14write_all_cold17h513e838fe8161279E', symObjAddr: 0xB1E8, symBinAddr: 0x100045E28, symSize: 0x124 }
  - { offset: 0x4FF6D, size: 0x8, addend: 0x0, symName: '__ZN3std2io8buffered9bufwriter18BufWriter$LT$W$GT$9flush_buf17h29164ec56610038eE', symObjAddr: 0xB30C, symBinAddr: 0x1000168F8, symSize: 0x1E0 }
  - { offset: 0x504CF, size: 0x8, addend: 0x0, symName: __ZN3std2io5Write18write_all_vectored17he688a1b06e8bbb4fE, symObjAddr: 0x9744, symBinAddr: 0x100015628, symSize: 0x1B4 }
  - { offset: 0x50729, size: 0x8, addend: 0x0, symName: __ZN3std2io5Write9write_all17hfca7eea50e527240E, symObjAddr: 0x98F8, symBinAddr: 0x1000157DC, symSize: 0xAC }
  - { offset: 0x50819, size: 0x8, addend: 0x0, symName: __ZN3std2io5Write9write_fmt17h0a4c2886d71240f6E, symObjAddr: 0x99A4, symBinAddr: 0x100015888, symSize: 0x138 }
  - { offset: 0x50A63, size: 0x8, addend: 0x0, symName: __ZN3std2io5Write9write_fmt17h93365632ab64a6f8E, symObjAddr: 0x9ADC, symBinAddr: 0x1000159C0, symSize: 0x138 }
  - { offset: 0x50CAD, size: 0x8, addend: 0x0, symName: __ZN3std2io5Write9write_fmt17hc70e63382e9f29d2E, symObjAddr: 0x9C14, symBinAddr: 0x100015AF8, symSize: 0x138 }
  - { offset: 0x50F62, size: 0x8, addend: 0x0, symName: __ZN3std2io5stdio22try_set_output_capture17h95074c90c7962b08E, symObjAddr: 0xA79C, symBinAddr: 0x10001643C, symSize: 0xEC }
  - { offset: 0x51203, size: 0x8, addend: 0x0, symName: __ZN3std2io5stdio31print_to_buffer_if_capture_used17hcb54b0daa9580ecfE, symObjAddr: 0xA95C, symBinAddr: 0x100016528, symSize: 0x20C }
  - { offset: 0x518E0, size: 0x8, addend: 0x0, symName: __ZN3std2io5stdio6Stderr4lock17h60123d24c8f9e05cE, symObjAddr: 0xADCC, symBinAddr: 0x100016734, symSize: 0xE4 }
  - { offset: 0x51BAF, size: 0x8, addend: 0x0, symName: __ZN3std2io5stdio6_print17h31727a912c7756f3E, symObjAddr: 0xAEB0, symBinAddr: 0x100016818, symSize: 0xE0 }
  - { offset: 0x51D1D, size: 0x8, addend: 0x0, symName: '__ZN61_$LT$$RF$std..io..stdio..Stdout$u20$as$u20$std..io..Write$GT$9write_fmt17h15aba39edd7cf40aE', symObjAddr: 0x42EFC, symBinAddr: 0x100033CF0, symSize: 0x1A0 }
  - { offset: 0x52111, size: 0x8, addend: 0x0, symName: '__ZN61_$LT$std..io..stdio..StdoutLock$u20$as$u20$std..io..Write$GT$9write_all17ha54dfc02195772b6E', symObjAddr: 0x439C8, symBinAddr: 0x100033E90, symSize: 0x248 }
  - { offset: 0x5286C, size: 0x8, addend: 0x0, symName: '__ZN3std2io5impls74_$LT$impl$u20$std..io..Write$u20$for$u20$alloc..vec..Vec$LT$u8$C$A$GT$$GT$14write_vectored17h98b0b37e86837edcE', symObjAddr: 0xA2A8, symBinAddr: 0x10001604C, symSize: 0x174 }
  - { offset: 0x52AB9, size: 0x8, addend: 0x0, symName: '__ZN3std2io5impls74_$LT$impl$u20$std..io..Write$u20$for$u20$alloc..vec..Vec$LT$u8$C$A$GT$$GT$17is_write_vectored17h87e7f9fb9fdbeb17E', symObjAddr: 0xA41C, symBinAddr: 0x1000161C0, symSize: 0x8 }
  - { offset: 0x52AE2, size: 0x8, addend: 0x0, symName: '__ZN3std2io5impls74_$LT$impl$u20$std..io..Write$u20$for$u20$alloc..vec..Vec$LT$u8$C$A$GT$$GT$18write_all_vectored17h61357489be1d2a24E', symObjAddr: 0xA424, symBinAddr: 0x1000161C8, symSize: 0x168 }
  - { offset: 0x52B0D, size: 0x8, addend: 0x0, symName: '__ZN3std2io5impls74_$LT$impl$u20$std..io..Write$u20$for$u20$alloc..vec..Vec$LT$u8$C$A$GT$$GT$18write_all_vectored17h61357489be1d2a24E', symObjAddr: 0xA424, symBinAddr: 0x1000161C8, symSize: 0x168 }
  - { offset: 0x52B22, size: 0x8, addend: 0x0, symName: '__ZN3std2io5impls74_$LT$impl$u20$std..io..Write$u20$for$u20$alloc..vec..Vec$LT$u8$C$A$GT$$GT$18write_all_vectored17h61357489be1d2a24E', symObjAddr: 0xA424, symBinAddr: 0x1000161C8, symSize: 0x168 }
  - { offset: 0x52B37, size: 0x8, addend: 0x0, symName: '__ZN3std2io5impls74_$LT$impl$u20$std..io..Write$u20$for$u20$alloc..vec..Vec$LT$u8$C$A$GT$$GT$18write_all_vectored17h61357489be1d2a24E', symObjAddr: 0xA424, symBinAddr: 0x1000161C8, symSize: 0x168 }
  - { offset: 0x52B4B, size: 0x8, addend: 0x0, symName: '__ZN3std2io5impls74_$LT$impl$u20$std..io..Write$u20$for$u20$alloc..vec..Vec$LT$u8$C$A$GT$$GT$18write_all_vectored17h61357489be1d2a24E', symObjAddr: 0xA424, symBinAddr: 0x1000161C8, symSize: 0x168 }
  - { offset: 0x52D64, size: 0x8, addend: 0x0, symName: '__ZN3std2io5impls74_$LT$impl$u20$std..io..Write$u20$for$u20$alloc..vec..Vec$LT$u8$C$A$GT$$GT$5flush17h7f80fd90e7fc18cdE', symObjAddr: 0xA58C, symBinAddr: 0x100016330, symSize: 0x8 }
  - { offset: 0x52D7F, size: 0x8, addend: 0x0, symName: '__ZN3std2io5impls74_$LT$impl$u20$std..io..Write$u20$for$u20$alloc..vec..Vec$LT$u8$C$A$GT$$GT$5write17h4a6ebd7f00c1e3b6E', symObjAddr: 0xA594, symBinAddr: 0x100016338, symSize: 0x84 }
  - { offset: 0x52EC4, size: 0x8, addend: 0x0, symName: '__ZN3std2io5impls74_$LT$impl$u20$std..io..Write$u20$for$u20$alloc..vec..Vec$LT$u8$C$A$GT$$GT$9write_all17h7a06a95410051fe1E', symObjAddr: 0xA618, symBinAddr: 0x1000163BC, symSize: 0x80 }
  - { offset: 0x5302B, size: 0x8, addend: 0x0, symName: __ZN3std2io19default_read_to_end16small_probe_read17hbff59304ba40a22dE, symObjAddr: 0x8DD8, symBinAddr: 0x10001553C, symSize: 0xEC }
  - { offset: 0x5335C, size: 0x8, addend: 0x0, symName: '__ZN81_$LT$std..io..default_write_fmt..Adapter$LT$T$GT$$u20$as$u20$core..fmt..Write$GT$9write_str17h12683b88d4f37dd7E', symObjAddr: 0x4A168, symBinAddr: 0x10003530C, symSize: 0x50 }
  - { offset: 0x53386, size: 0x8, addend: 0x0, symName: '__ZN81_$LT$std..io..default_write_fmt..Adapter$LT$T$GT$$u20$as$u20$core..fmt..Write$GT$9write_str17h284da73b654d1506E', symObjAddr: 0x4A1B8, symBinAddr: 0x10003535C, symSize: 0xD8 }
  - { offset: 0x53499, size: 0x8, addend: 0x0, symName: '__ZN81_$LT$std..io..default_write_fmt..Adapter$LT$T$GT$$u20$as$u20$core..fmt..Write$GT$9write_str17h2db7b0298947a58eE', symObjAddr: 0x4A290, symBinAddr: 0x100035434, symSize: 0xA0 }
  - { offset: 0x535C1, size: 0x8, addend: 0x0, symName: '__ZN81_$LT$std..io..default_write_fmt..Adapter$LT$T$GT$$u20$as$u20$core..fmt..Write$GT$9write_str17h5b7b94f2f70b6cc9E', symObjAddr: 0x4A330, symBinAddr: 0x1000354D4, symSize: 0x80 }
  - { offset: 0x53808, size: 0x8, addend: 0x0, symName: __ZN3std4path4Path13_strip_prefix17h649cdf7fe52a9ca4E, symObjAddr: 0x1C7DC, symBinAddr: 0x10001CCE4, symSize: 0x21C }
  - { offset: 0x53918, size: 0x8, addend: 0x0, symName: __ZN3std4path4Path5_join17h54f095185b763ad9E, symObjAddr: 0x1D0D4, symBinAddr: 0x10001CF00, symSize: 0x1A4 }
  - { offset: 0x53F0C, size: 0x8, addend: 0x0, symName: __ZN3std4path10Components15len_before_body17h183e6460ce02202dE, symObjAddr: 0x1B7FC, symBinAddr: 0x10001C708, symSize: 0x18C }
  - { offset: 0x53F23, size: 0x8, addend: 0x0, symName: __ZN3std4path10Components15len_before_body17h183e6460ce02202dE, symObjAddr: 0x1B7FC, symBinAddr: 0x10001C708, symSize: 0x18C }
  - { offset: 0x53F38, size: 0x8, addend: 0x0, symName: __ZN3std4path10Components15len_before_body17h183e6460ce02202dE, symObjAddr: 0x1B7FC, symBinAddr: 0x10001C708, symSize: 0x18C }
  - { offset: 0x540C6, size: 0x8, addend: 0x0, symName: __ZN3std4path10Components25parse_next_component_back17h96bead52961e5974E, symObjAddr: 0x1B988, symBinAddr: 0x10001C894, symSize: 0x12C }
  - { offset: 0x5422B, size: 0x8, addend: 0x0, symName: __ZN3std4path10Components7as_path17h8b47be53b7bb02abE, symObjAddr: 0x1BAB4, symBinAddr: 0x10001C9C0, symSize: 0x324 }
  - { offset: 0x545B0, size: 0x8, addend: 0x0, symName: '__ZN55_$LT$std..path..PathBuf$u20$as$u20$core..fmt..Debug$GT$3fmt17h1a2b17a975e5665cE', symObjAddr: 0x33618, symBinAddr: 0x100029054, symSize: 0x28 }
  - { offset: 0x5473F, size: 0x8, addend: 0x0, symName: '__ZN61_$LT$std..path..Component$u20$as$u20$core..cmp..PartialEq$GT$2eq17hcac4c67d1f006796E', symObjAddr: 0x43C18, symBinAddr: 0x1000340D8, symSize: 0x134 }
  - { offset: 0x54899, size: 0x8, addend: 0x0, symName: '__ZN80_$LT$std..path..Components$u20$as$u20$core..iter..traits..iterator..Iterator$GT$4next17hcff4524e130e7a04E', symObjAddr: 0x49B0C, symBinAddr: 0x100034FB0, symSize: 0x35C }
  - { offset: 0x54BAE, size: 0x8, addend: 0x0, symName: '__ZN95_$LT$std..path..Components$u20$as$u20$core..iter..traits..double_ended..DoubleEndedIterator$GT$9next_back17hbbb48aeb24b30ac1E', symObjAddr: 0x4BF38, symBinAddr: 0x100035778, symSize: 0x360 }
  - { offset: 0x54D7D, size: 0x8, addend: 0x0, symName: __ZN3std7process5abort17he872d13fc606be41E, symObjAddr: 0x20DA8, symBinAddr: 0x1000468A0, symSize: 0xC }
  - { offset: 0x54D9D, size: 0x8, addend: 0x0, symName: __ZN3std7process7Command6output17hf44e1086c78a62ecE, symObjAddr: 0x20EC8, symBinAddr: 0x10001D850, symSize: 0x2EC }
  - { offset: 0x55327, size: 0x8, addend: 0x0, symName: '__ZN118_$LT$std..thread..thread_name_string..ThreadNameString$u20$as$u20$core..convert..From$LT$alloc..string..String$GT$$GT$4from17h3cd36efdc78dbcc3E', symObjAddr: 0xEC0, symBinAddr: 0x10000F0BC, symSize: 0x110 }
  - { offset: 0x556DF, size: 0x8, addend: 0x0, symName: __ZN3std6thread7current12init_current17h76e9942ca4b6363dE, symObjAddr: 0x1FF38, symBinAddr: 0x100046704, symSize: 0x164 }
  - { offset: 0x559F7, size: 0x8, addend: 0x0, symName: __ZN3std6thread7current13current_os_id17h9bf74ead444ae1deE, symObjAddr: 0x2009C, symBinAddr: 0x10001D7C8, symSize: 0x88 }
  - { offset: 0x55C0A, size: 0x8, addend: 0x0, symName: __ZN3std6thread6Thread3new17hbf5aeb1736bec1e3E, symObjAddr: 0x1FB40, symBinAddr: 0x10001D670, symSize: 0x158 }
  - { offset: 0x55F39, size: 0x8, addend: 0x0, symName: __ZN3std6thread8ThreadId3new9exhausted17ha73a828480ec4fa2E, symObjAddr: 0x2026C, symBinAddr: 0x100046868, symSize: 0x38 }
  - { offset: 0x55FB9, size: 0x8, addend: 0x0, symName: __ZN3std12backtrace_rs5print17BacktraceFrameFmt21print_raw_with_column17h3c81486fb0007567E, symObjAddr: 0x1050, symBinAddr: 0x10000F1F4, symSize: 0x438 }
  - { offset: 0x561C1, size: 0x8, addend: 0x0, symName: __ZN3std12backtrace_rs9backtrace9libunwind5trace8trace_fn17h03c27b8c72497427E, symObjAddr: 0x1488, symBinAddr: 0x10000F62C, symSize: 0x48 }
  - { offset: 0x5627C, size: 0x8, addend: 0x0, symName: __ZN3std12backtrace_rs9symbolize5gimli4mmap17h8dd225413c7073a4E, symObjAddr: 0x14D0, symBinAddr: 0x10000F674, symSize: 0x1DC }
  - { offset: 0x56777, size: 0x8, addend: 0x0, symName: __ZN3std12backtrace_rs9symbolize5gimli5macho11find_header17h057a153a1489d815E, symObjAddr: 0x16AC, symBinAddr: 0x10000F850, symSize: 0x1D4 }
  - { offset: 0x56794, size: 0x8, addend: 0x0, symName: __ZN3std12backtrace_rs9symbolize5gimli5macho11find_header17h057a153a1489d815E, symObjAddr: 0x16AC, symBinAddr: 0x10000F850, symSize: 0x1D4 }
  - { offset: 0x567A8, size: 0x8, addend: 0x0, symName: __ZN3std12backtrace_rs9symbolize5gimli5macho11find_header17h057a153a1489d815E, symObjAddr: 0x16AC, symBinAddr: 0x10000F850, symSize: 0x1D4 }
  - { offset: 0x567BC, size: 0x8, addend: 0x0, symName: __ZN3std12backtrace_rs9symbolize5gimli5macho11find_header17h057a153a1489d815E, symObjAddr: 0x16AC, symBinAddr: 0x10000F850, symSize: 0x1D4 }
  - { offset: 0x567D0, size: 0x8, addend: 0x0, symName: __ZN3std12backtrace_rs9symbolize5gimli5macho11find_header17h057a153a1489d815E, symObjAddr: 0x16AC, symBinAddr: 0x10000F850, symSize: 0x1D4 }
  - { offset: 0x567E5, size: 0x8, addend: 0x0, symName: __ZN3std12backtrace_rs9symbolize5gimli5macho11find_header17h057a153a1489d815E, symObjAddr: 0x16AC, symBinAddr: 0x10000F850, symSize: 0x1D4 }
  - { offset: 0x567FA, size: 0x8, addend: 0x0, symName: __ZN3std12backtrace_rs9symbolize5gimli5macho11find_header17h057a153a1489d815E, symObjAddr: 0x16AC, symBinAddr: 0x10000F850, symSize: 0x1D4 }
  - { offset: 0x56EE7, size: 0x8, addend: 0x0, symName: __ZN3std12backtrace_rs9symbolize5gimli5macho6Object5parse17hbc26463257d20f2aE, symObjAddr: 0x1880, symBinAddr: 0x10000FA24, symSize: 0xBFC }
  - { offset: 0x58CBF, size: 0x8, addend: 0x0, symName: __ZN3std12backtrace_rs9symbolize5gimli5macho6Object7section17he22847e43a23fe6bE, symObjAddr: 0x247C, symBinAddr: 0x100010620, symSize: 0x154 }
  - { offset: 0x590D8, size: 0x8, addend: 0x0, symName: __ZN3std12backtrace_rs9symbolize5gimli7Context11find_frames17h73caac78ce26352aE, symObjAddr: 0x25D0, symBinAddr: 0x100010774, symSize: 0x394 }
  - { offset: 0x594BD, size: 0x8, addend: 0x0, symName: __ZN3std12backtrace_rs9symbolize5gimli7Context3new17h2384661d7d9b1f78E, symObjAddr: 0x2964, symBinAddr: 0x100010B08, symSize: 0x2034 }
  - { offset: 0x5D454, size: 0x8, addend: 0x0, symName: __ZN3std12backtrace_rs9symbolize5gimli7resolve17hf73b30071e9ea483E, symObjAddr: 0x4998, symBinAddr: 0x100012B3C, symSize: 0x2778 }
  - { offset: 0x62E02, size: 0x8, addend: 0x0, symName: __ZN3std12backtrace_rs9symbolize6Symbol4name17h06b8fd10d9b9a257E, symObjAddr: 0x7148, symBinAddr: 0x1000152B4, symSize: 0xE4 }
  - { offset: 0x62FB4, size: 0x8, addend: 0x0, symName: '__ZN79_$LT$std..backtrace_rs..symbolize..SymbolName$u20$as$u20$core..fmt..Display$GT$3fmt17hb783e3698fc7e9b5E', symObjAddr: 0x492D0, symBinAddr: 0x100034EAC, symSize: 0x104 }
  - { offset: 0x63184, size: 0x8, addend: 0x0, symName: __ZN3std2fs5write5inner17he8ac422c6e1bd7c5E, symObjAddr: 0x8128, symBinAddr: 0x100015398, symSize: 0x1A4 }
  - { offset: 0x634F0, size: 0x8, addend: 0x0, symName: '__ZN75_$LT$std..fs..ReadDir$u20$as$u20$core..iter..traits..iterator..Iterator$GT$4next17h1265719e5d52e8c4E', symObjAddr: 0x47B60, symBinAddr: 0x100034D20, symSize: 0x18C }
  - { offset: 0x63993, size: 0x8, addend: 0x0, symName: '__ZN64_$LT$std..ffi..os_str..Display$u20$as$u20$core..fmt..Display$GT$3fmt17h85b477a581a14f44E', symObjAddr: 0x45488, symBinAddr: 0x100034280, symSize: 0xAC }
  - { offset: 0x63A18, size: 0x8, addend: 0x0, symName: '__ZN3std4sync6poison5mutex14Mutex$LT$T$GT$4lock17haf609da69215fe08E', symObjAddr: 0x1E94C, symBinAddr: 0x10001D39C, symSize: 0x78 }
  - { offset: 0x63C77, size: 0x8, addend: 0x0, symName: '__ZN3std4sync6poison4once4Once15call_once_force28_$u7b$$u7b$closure$u7d$$u7d$17ha4ab593fcc00fd4eE', symObjAddr: 0x1E638, symBinAddr: 0x10001D0A4, symSize: 0x60 }
  - { offset: 0x63D2E, size: 0x8, addend: 0x0, symName: '__ZN3std4sync6poison4once4Once15call_once_force28_$u7b$$u7b$closure$u7d$$u7d$17hbc808b72c855c88aE', symObjAddr: 0x1E698, symBinAddr: 0x10001D104, symSize: 0x78 }
  - { offset: 0x63E8B, size: 0x8, addend: 0x0, symName: '__ZN3std4sync6poison4once4Once9call_once28_$u7b$$u7b$closure$u7d$$u7d$17hdd57cdd633d886a2E', symObjAddr: 0x1E72C, symBinAddr: 0x10001D17C, symSize: 0x220 }
  - { offset: 0x6466D, size: 0x8, addend: 0x0, symName: '__ZN3std4sync9once_lock17OnceLock$LT$T$GT$10initialize17h2b232360da4cbaedE', symObjAddr: 0x1EFF8, symBinAddr: 0x100046614, symSize: 0x68 }
  - { offset: 0x64698, size: 0x8, addend: 0x0, symName: '__ZN3std4sync9once_lock17OnceLock$LT$T$GT$10initialize17h2b232360da4cbaedE', symObjAddr: 0x1EFF8, symBinAddr: 0x100046614, symSize: 0x68 }
  - { offset: 0x646AC, size: 0x8, addend: 0x0, symName: '__ZN3std4sync9once_lock17OnceLock$LT$T$GT$10initialize17h2b232360da4cbaedE', symObjAddr: 0x1EFF8, symBinAddr: 0x100046614, symSize: 0x68 }
  - { offset: 0x646C0, size: 0x8, addend: 0x0, symName: '__ZN3std4sync9once_lock17OnceLock$LT$T$GT$10initialize17h2b232360da4cbaedE', symObjAddr: 0x1EFF8, symBinAddr: 0x100046614, symSize: 0x68 }
  - { offset: 0x646D6, size: 0x8, addend: 0x0, symName: '__ZN3std4sync9once_lock17OnceLock$LT$T$GT$10initialize17h3ac2c0cdefeecb80E', symObjAddr: 0x1F060, symBinAddr: 0x10004667C, symSize: 0x5C }
  - { offset: 0x64701, size: 0x8, addend: 0x0, symName: '__ZN3std4sync9once_lock17OnceLock$LT$T$GT$10initialize17h3ac2c0cdefeecb80E', symObjAddr: 0x1F060, symBinAddr: 0x10004667C, symSize: 0x5C }
  - { offset: 0x64715, size: 0x8, addend: 0x0, symName: '__ZN3std4sync9once_lock17OnceLock$LT$T$GT$10initialize17h3ac2c0cdefeecb80E', symObjAddr: 0x1F060, symBinAddr: 0x10004667C, symSize: 0x5C }
  - { offset: 0x64729, size: 0x8, addend: 0x0, symName: '__ZN3std4sync9once_lock17OnceLock$LT$T$GT$10initialize17h3ac2c0cdefeecb80E', symObjAddr: 0x1F060, symBinAddr: 0x10004667C, symSize: 0x5C }
  - { offset: 0x648AB, size: 0x8, addend: 0x0, symName: __ZN3std5panic19get_backtrace_style17h31f0dac9c1426532E, symObjAddr: 0x1F538, symBinAddr: 0x10001D554, symSize: 0x11C }
  - { offset: 0x648C9, size: 0x8, addend: 0x0, symName: __ZN3std5panic19get_backtrace_style17h31f0dac9c1426532E, symObjAddr: 0x1F538, symBinAddr: 0x10001D554, symSize: 0x11C }
  - { offset: 0x648DE, size: 0x8, addend: 0x0, symName: __ZN3std5panic19get_backtrace_style17h31f0dac9c1426532E, symObjAddr: 0x1F538, symBinAddr: 0x10001D554, symSize: 0x11C }
  - { offset: 0x64D45, size: 0x8, addend: 0x0, symName: __ZN3std3env11current_dir17hc37cdc7315eb81a1E, symObjAddr: 0xCE2C, symBinAddr: 0x1000171BC, symSize: 0x19C }
  - { offset: 0x6512C, size: 0x8, addend: 0x0, symName: __ZN3std3env4_var17hdd815babe2a43a98E, symObjAddr: 0xD09C, symBinAddr: 0x100017358, symSize: 0x98 }
  - { offset: 0x65228, size: 0x8, addend: 0x0, symName: __ZN3std3env7_var_os17he408374094189780E, symObjAddr: 0xD13C, symBinAddr: 0x1000173F0, symSize: 0x164 }
  - { offset: 0x654A6, size: 0x8, addend: 0x0, symName: __ZN3std3env7vars_os17h331b2bf4375dda6aE, symObjAddr: 0xD49C, symBinAddr: 0x100017554, symSize: 0x3C4 }
  - { offset: 0x66207, size: 0x8, addend: 0x0, symName: __ZN5alloc5alloc15exchange_malloc17h7a64f5364f308ae6E, symObjAddr: 0x39D7C, symBinAddr: 0x10002C4EC, symSize: 0x48 }
  - { offset: 0x6753F, size: 0x8, addend: 0x0, symName: '__ZN64_$LT$alloc..ffi..c_str..NulError$u20$as$u20$core..fmt..Debug$GT$3fmt17hb528bfe231df95daE', symObjAddr: 0x44ED8, symBinAddr: 0x100034234, symSize: 0x4C }
  - { offset: 0x67B23, size: 0x8, addend: 0x0, symName: '__ZN5alloc11collections5btree4node208Handle$LT$alloc..collections..btree..node..NodeRef$LT$alloc..collections..btree..node..marker..Mut$C$K$C$V$C$alloc..collections..btree..node..marker..Leaf$GT$$C$alloc..collections..btree..node..marker..KV$GT$5split17ha6c8a03a837e8cecE', symObjAddr: 0x371FC, symBinAddr: 0x10002A1E4, symSize: 0x140 }
  - { offset: 0x67EF6, size: 0x8, addend: 0x0, symName: '__ZN5alloc11collections5btree4node208Handle$LT$alloc..collections..btree..node..NodeRef$LT$alloc..collections..btree..node..marker..Mut$C$K$C$V$C$alloc..collections..btree..node..marker..Leaf$GT$$C$alloc..collections..btree..node..marker..KV$GT$5split17hdd415c88aa9df7f9E', symObjAddr: 0x3733C, symBinAddr: 0x10002A324, symSize: 0x198 }
  - { offset: 0x68336, size: 0x8, addend: 0x0, symName: '__ZN5alloc11collections5btree4node212Handle$LT$alloc..collections..btree..node..NodeRef$LT$alloc..collections..btree..node..marker..Mut$C$K$C$V$C$alloc..collections..btree..node..marker..Internal$GT$$C$alloc..collections..btree..node..marker..KV$GT$5split17h61b27ed46e18cc21E', symObjAddr: 0x374D4, symBinAddr: 0x10002A4BC, symSize: 0x1FC }
  - { offset: 0x688F3, size: 0x8, addend: 0x0, symName: '__ZN5alloc11collections5btree4node212Handle$LT$alloc..collections..btree..node..NodeRef$LT$alloc..collections..btree..node..marker..Mut$C$K$C$V$C$alloc..collections..btree..node..marker..Internal$GT$$C$alloc..collections..btree..node..marker..KV$GT$5split17hb227b69ac0b3e3f9E', symObjAddr: 0x376D0, symBinAddr: 0x10002A6B8, symSize: 0x274 }
  - { offset: 0x68F88, size: 0x8, addend: 0x0, symName: '__ZN5alloc11collections5btree6remove259_$LT$impl$u20$alloc..collections..btree..node..Handle$LT$alloc..collections..btree..node..NodeRef$LT$alloc..collections..btree..node..marker..Mut$C$K$C$V$C$alloc..collections..btree..node..marker..Leaf$GT$$C$alloc..collections..btree..node..marker..KV$GT$$GT$14remove_leaf_kv17h80c70ada1e450bd7E', symObjAddr: 0x38EE4, symBinAddr: 0x10002B6EC, symSize: 0x568 }
  - { offset: 0x69BD2, size: 0x8, addend: 0x0, symName: '__ZN5alloc11collections5btree6remove259_$LT$impl$u20$alloc..collections..btree..node..Handle$LT$alloc..collections..btree..node..NodeRef$LT$alloc..collections..btree..node..marker..Mut$C$K$C$V$C$alloc..collections..btree..node..marker..Leaf$GT$$C$alloc..collections..btree..node..marker..KV$GT$$GT$14remove_leaf_kv17hbb73ffc9875814dbE', symObjAddr: 0x3944C, symBinAddr: 0x10002BC54, symSize: 0x524 }
  - { offset: 0x6B895, size: 0x8, addend: 0x0, symName: '__ZN5alloc11collections5btree4node29BalancingContext$LT$K$C$V$GT$15bulk_steal_left17h2991e4cb8ce5f906E', symObjAddr: 0x37BBC, symBinAddr: 0x10002A92C, symSize: 0x1F0 }
  - { offset: 0x6BDC5, size: 0x8, addend: 0x0, symName: '__ZN5alloc11collections5btree4node29BalancingContext$LT$K$C$V$GT$15bulk_steal_left17hcb35e3ceea232fdfE', symObjAddr: 0x37DAC, symBinAddr: 0x10002AB1C, symSize: 0x280 }
  - { offset: 0x6C32D, size: 0x8, addend: 0x0, symName: '__ZN5alloc11collections5btree4node29BalancingContext$LT$K$C$V$GT$16bulk_steal_right17h43a940da68472492E', symObjAddr: 0x3802C, symBinAddr: 0x10002AD9C, symSize: 0x2C8 }
  - { offset: 0x6C94A, size: 0x8, addend: 0x0, symName: '__ZN5alloc11collections5btree4node29BalancingContext$LT$K$C$V$GT$16bulk_steal_right17hea11ac28cf98500dE', symObjAddr: 0x382F4, symBinAddr: 0x10002B064, symSize: 0x23C }
  - { offset: 0x6CF98, size: 0x8, addend: 0x0, symName: '__ZN5alloc11collections5btree4node29BalancingContext$LT$K$C$V$GT$8do_merge17h13333d6dfff3d928E', symObjAddr: 0x38530, symBinAddr: 0x10002B2A0, symSize: 0x1F4 }
  - { offset: 0x6D5AC, size: 0x8, addend: 0x0, symName: '__ZN5alloc11collections5btree4node29BalancingContext$LT$K$C$V$GT$8do_merge17hac7b6a316cf9144aE', symObjAddr: 0x38724, symBinAddr: 0x10002B494, symSize: 0x258 }
  - { offset: 0x6DE42, size: 0x8, addend: 0x0, symName: '__ZN5alloc11collections5btree3map25BTreeMap$LT$K$C$V$C$A$GT$6insert17ha4852dcd205f58ecE', symObjAddr: 0x360AC, symBinAddr: 0x100029230, symSize: 0x99C }
  - { offset: 0x6F860, size: 0x8, addend: 0x0, symName: '__ZN5alloc11collections5btree3map25IntoIter$LT$K$C$V$C$A$GT$10dying_next17h0a5ca3d1aba591fbE', symObjAddr: 0x36A48, symBinAddr: 0x100029BCC, symSize: 0x208 }
  - { offset: 0x6FC1C, size: 0x8, addend: 0x0, symName: '__ZN5alloc11collections5btree3map25IntoIter$LT$K$C$V$C$A$GT$10dying_next17h22b1c64eb370863dE', symObjAddr: 0x36C50, symBinAddr: 0x100029DD4, symSize: 0x208 }
  - { offset: 0x6FFD8, size: 0x8, addend: 0x0, symName: '__ZN5alloc11collections5btree3map25IntoIter$LT$K$C$V$C$A$GT$10dying_next17h80944ebf24a3bbadE', symObjAddr: 0x36E58, symBinAddr: 0x100029FDC, symSize: 0x208 }
  - { offset: 0x71286, size: 0x8, addend: 0x0, symName: '__ZN5alloc7raw_vec19RawVec$LT$T$C$A$GT$8grow_one17h09f72ff2edcb7145E', symObjAddr: 0x39E44, symBinAddr: 0x10002C534, symSize: 0xB4 }
  - { offset: 0x713B1, size: 0x8, addend: 0x0, symName: '__ZN5alloc7raw_vec19RawVec$LT$T$C$A$GT$8grow_one17h0a83f3c2f81107feE', symObjAddr: 0x39EF8, symBinAddr: 0x10002C5E8, symSize: 0xC0 }
  - { offset: 0x714C7, size: 0x8, addend: 0x0, symName: '__ZN5alloc7raw_vec19RawVec$LT$T$C$A$GT$8grow_one17h0b8cc8aaa4ca2627E', symObjAddr: 0x39FB8, symBinAddr: 0x10002C6A8, symSize: 0xB8 }
  - { offset: 0x715DD, size: 0x8, addend: 0x0, symName: '__ZN5alloc7raw_vec19RawVec$LT$T$C$A$GT$8grow_one17h2538c3a76f8332d4E', symObjAddr: 0x3A070, symBinAddr: 0x10002C760, symSize: 0xB4 }
  - { offset: 0x71708, size: 0x8, addend: 0x0, symName: '__ZN5alloc7raw_vec19RawVec$LT$T$C$A$GT$8grow_one17h35b443c82a84d8f5E', symObjAddr: 0x3A124, symBinAddr: 0x10002C814, symSize: 0xC0 }
  - { offset: 0x7181E, size: 0x8, addend: 0x0, symName: '__ZN5alloc7raw_vec19RawVec$LT$T$C$A$GT$8grow_one17h3f245f84b3ab39cdE', symObjAddr: 0x3A1E4, symBinAddr: 0x10002C8D4, symSize: 0xB4 }
  - { offset: 0x71949, size: 0x8, addend: 0x0, symName: '__ZN5alloc7raw_vec19RawVec$LT$T$C$A$GT$8grow_one17h6539c0c099fe1986E', symObjAddr: 0x3A358, symBinAddr: 0x10002C988, symSize: 0xB4 }
  - { offset: 0x71A74, size: 0x8, addend: 0x0, symName: '__ZN5alloc7raw_vec19RawVec$LT$T$C$A$GT$8grow_one17h94e06e2249cf7166E', symObjAddr: 0x3A40C, symBinAddr: 0x10002CA3C, symSize: 0xB8 }
  - { offset: 0x71B8A, size: 0x8, addend: 0x0, symName: '__ZN5alloc7raw_vec19RawVec$LT$T$C$A$GT$8grow_one17hae47f4ea8854854fE', symObjAddr: 0x3A4C4, symBinAddr: 0x10002CAF4, symSize: 0xC0 }
  - { offset: 0x71CA0, size: 0x8, addend: 0x0, symName: '__ZN5alloc7raw_vec19RawVec$LT$T$C$A$GT$8grow_one17hb2be22af9cda6662E', symObjAddr: 0x3A584, symBinAddr: 0x10002CBB4, symSize: 0xC0 }
  - { offset: 0x71DB6, size: 0x8, addend: 0x0, symName: '__ZN5alloc7raw_vec19RawVec$LT$T$C$A$GT$8grow_one17hbb242b5a27216b95E', symObjAddr: 0x3A644, symBinAddr: 0x10002CC74, symSize: 0xB8 }
  - { offset: 0x72180, size: 0x8, addend: 0x0, symName: __ZN5alloc7raw_vec11finish_grow17h1fe80a46fbbf8c9aE, symObjAddr: 0x39DC4, symBinAddr: 0x1000497E8, symSize: 0x80 }
  - { offset: 0x7220C, size: 0x8, addend: 0x0, symName: '__ZN5alloc7raw_vec20RawVecInner$LT$A$GT$7reserve21do_reserve_and_handle17h27d899f8eb2799c8E', symObjAddr: 0x3A6FC, symBinAddr: 0x100049868, symSize: 0xF8 }
  - { offset: 0x724C4, size: 0x8, addend: 0x0, symName: '__ZN58_$LT$alloc..string..String$u20$as$u20$core..fmt..Debug$GT$3fmt17h762f034d0b19a212E', symObjAddr: 0x33F2C, symBinAddr: 0x10002907C, symSize: 0x10 }
  - { offset: 0x7257F, size: 0x8, addend: 0x0, symName: '__ZN58_$LT$alloc..string..String$u20$as$u20$core..fmt..Write$GT$10write_char17hf5eb0556627f32e1E', symObjAddr: 0x33F3C, symBinAddr: 0x10002908C, symSize: 0x120 }
  - { offset: 0x72722, size: 0x8, addend: 0x0, symName: '__ZN58_$LT$alloc..string..String$u20$as$u20$core..fmt..Write$GT$9write_str17h4f289a0bc5411d70E', symObjAddr: 0x3405C, symBinAddr: 0x1000291AC, symSize: 0x80 }
  - { offset: 0x7287B, size: 0x8, addend: 0x0, symName: '__ZN60_$LT$alloc..string..String$u20$as$u20$core..fmt..Display$GT$3fmt17h40cb6c2d63a0400fE', symObjAddr: 0x415A0, symBinAddr: 0x100033AD8, symSize: 0x10 }
  - { offset: 0x72D18, size: 0x8, addend: 0x0, symName: '__ZN5alloc4sync16Arc$LT$T$C$A$GT$9drop_slow17h0590c51487cc0e78E', symObjAddr: 0x39970, symBinAddr: 0x10002C178, symSize: 0x78 }
  - { offset: 0x72EE6, size: 0x8, addend: 0x0, symName: '__ZN5alloc4sync16Arc$LT$T$C$A$GT$9drop_slow17h455f000bacbe8778E', symObjAddr: 0x399E8, symBinAddr: 0x10002C1F0, symSize: 0x98 }
  - { offset: 0x73088, size: 0x8, addend: 0x0, symName: '__ZN5alloc4sync16Arc$LT$T$C$A$GT$9drop_slow17h58bfec597942d7c0E', symObjAddr: 0x39A80, symBinAddr: 0x10002C288, symSize: 0xC0 }
  - { offset: 0x733B1, size: 0x8, addend: 0x0, symName: '__ZN5alloc4sync16Arc$LT$T$C$A$GT$9drop_slow17h71ce5645e9f4e2faE', symObjAddr: 0x39BD8, symBinAddr: 0x10002C348, symSize: 0xD0 }
  - { offset: 0x735CA, size: 0x8, addend: 0x0, symName: '__ZN5alloc4sync16Arc$LT$T$C$A$GT$9drop_slow17hc514d4cb9a32a567E', symObjAddr: 0x39CA8, symBinAddr: 0x10002C418, symSize: 0x34 }
  - { offset: 0x736A9, size: 0x8, addend: 0x0, symName: '__ZN5alloc4sync16Arc$LT$T$C$A$GT$9drop_slow17hed6f5b3a05cf41fbE', symObjAddr: 0x39CDC, symBinAddr: 0x10002C44C, symSize: 0xA0 }
  - { offset: 0x74196, size: 0x8, addend: 0x0, symName: __ZN6object4read7archive13ArchiveMember5parse17h0cf35c47a3262c28E, symObjAddr: 0x46924, symBinAddr: 0x100034708, symSize: 0x30C }
  - { offset: 0x74857, size: 0x8, addend: 0x0, symName: __ZN6object4read7archive23parse_bsd_extended_name17hc2fd94417d200a20E, symObjAddr: 0x46C30, symBinAddr: 0x100034A14, symSize: 0x2CC }
  - { offset: 0x751F6, size: 0x8, addend: 0x0, symName: '__ZN6memchr6memchr6memchr28_$u7b$$u7b$closure$u7d$$u7d$17h397791b73b81e986E', symObjAddr: 0x466C8, symBinAddr: 0x1000344AC, symSize: 0x25C }
  - { offset: 0x759C1, size: 0x8, addend: 0x0, symName: '__ZN9addr2line4unit16ResUnit$LT$R$GT$25find_function_or_location28_$u7b$$u7b$closure$u7d$$u7d$17h0b2560d358ac4418E', symObjAddr: 0x4D0B0, symBinAddr: 0x1000366E8, symSize: 0x30C }
  - { offset: 0x75D56, size: 0x8, addend: 0x0, symName: '__ZN9addr2line4unit16ResUnit$LT$R$GT$25find_function_or_location17hb8c2717196c051f4E', symObjAddr: 0x4CD44, symBinAddr: 0x10003637C, symSize: 0x36C }
  - { offset: 0x7627F, size: 0x8, addend: 0x0, symName: '__ZN9addr2line16Context$LT$R$GT$9find_unit17h6f93650cf3288060E', symObjAddr: 0x4C758, symBinAddr: 0x100035D90, symSize: 0x15C }
  - { offset: 0x76401, size: 0x8, addend: 0x0, symName: '__ZN9addr2line6lookup30LoopingLookup$LT$T$C$L$C$F$GT$10new_lookup17h7be4a3ff02a5568bE', symObjAddr: 0x4D67C, symBinAddr: 0x100036CB4, symSize: 0x438 }
  - { offset: 0x76964, size: 0x8, addend: 0x0, symName: __ZN9addr2line4line11render_file17h6d17362951bb3a0fE, symObjAddr: 0x4C8B4, symBinAddr: 0x100035EEC, symSize: 0x490 }
  - { offset: 0x77311, size: 0x8, addend: 0x0, symName: '__ZN9addr2line8function17Function$LT$R$GT$14parse_children17h94e2fbb278f6f4afE', symObjAddr: 0x4DE18, symBinAddr: 0x100037450, symSize: 0xF20 }
  - { offset: 0x78C0C, size: 0x8, addend: 0x0, symName: __ZN9addr2line8function10name_entry17hdcd9d55faa5b8559E, symObjAddr: 0x4DAB4, symBinAddr: 0x1000370EC, symSize: 0x364 }
  - { offset: 0x790E5, size: 0x8, addend: 0x0, symName: __ZN9addr2line8function9name_attr17h005d1ad1ee1bd9b3E, symObjAddr: 0x4ED38, symBinAddr: 0x100038370, symSize: 0x1C0 }
  - { offset: 0x792D1, size: 0x8, addend: 0x0, symName: '__ZN9addr2line5frame18FrameIter$LT$R$GT$4next17h9c99cb3977d75464E', symObjAddr: 0x4D3BC, symBinAddr: 0x1000369F4, symSize: 0x2C0 }
  - { offset: 0x79B61, size: 0x8, addend: 0x0, symName: '__ZN5gimli4read5dwarf14Dwarf$LT$R$GT$11attr_string17h61d81fbcbee62996E', symObjAddr: 0x3F804, symBinAddr: 0x100031D3C, symSize: 0x220 }
  - { offset: 0x7A2FB, size: 0x8, addend: 0x0, symName: '__ZN5gimli4read5dwarf13Unit$LT$R$GT$3new17h58a22d42e2b88249E', symObjAddr: 0x3DB64, symBinAddr: 0x10003009C, symSize: 0x1CA0 }
  - { offset: 0x7DAC6, size: 0x8, addend: 0x0, symName: '__ZN5gimli4read7aranges30ArangeHeader$LT$R$C$Offset$GT$5parse17h18ec296afb75f086E', symObjAddr: 0x40688, symBinAddr: 0x100032BC0, symSize: 0x2A8 }
  - { offset: 0x7E534, size: 0x8, addend: 0x0, symName: '__ZN5gimli4read4unit18Attribute$LT$R$GT$5value17hd84235d5f0589f1bE', symObjAddr: 0x3CD78, symBinAddr: 0x10002F2B0, symSize: 0x598 }
  - { offset: 0x7E93F, size: 0x8, addend: 0x0, symName: '__ZN90_$LT$gimli..read..unit..AttributeValue$LT$R$C$Offset$GT$$u20$as$u20$core..clone..Clone$GT$5clone17h73aa6ddc12793aa1E', symObjAddr: 0x4B650, symBinAddr: 0x1000356B0, symSize: 0x68 }
  - { offset: 0x7E99F, size: 0x8, addend: 0x0, symName: '__ZN5gimli4read4unit32AttributeValue$LT$R$C$Offset$GT$11udata_value17ha8d2cb136f47175bE', symObjAddr: 0x3D5C8, symBinAddr: 0x10002FB00, symSize: 0x84 }
  - { offset: 0x7E9FA, size: 0x8, addend: 0x0, symName: __ZN5gimli4read4unit15parse_attribute17hc1d74b8eec228250E, symObjAddr: 0x3B990, symBinAddr: 0x10002DEC8, symSize: 0xF74 }
  - { offset: 0x815A4, size: 0x8, addend: 0x0, symName: __ZN5gimli4read4unit15skip_attributes17hdc6142efc7264c05E, symObjAddr: 0x3C904, symBinAddr: 0x10002EE3C, symSize: 0x474 }
  - { offset: 0x81F8E, size: 0x8, addend: 0x0, symName: '__ZN5gimli4read4unit22EntriesCursor$LT$R$GT$10next_entry17h8f756747ff1f8396E', symObjAddr: 0x3D310, symBinAddr: 0x10002F848, symSize: 0x2B8 }
  - { offset: 0x82552, size: 0x8, addend: 0x0, symName: '__ZN5gimli4read4unit33DebugInfoUnitHeadersIter$LT$R$GT$4next17hb26e96162b5603e4E', symObjAddr: 0x3D64C, symBinAddr: 0x10002FB84, symSize: 0x518 }
  - { offset: 0x8383A, size: 0x8, addend: 0x0, symName: __ZN5gimli4read6reader6Reader11read_offset17ha6198688e6a6cc43E, symObjAddr: 0x401D4, symBinAddr: 0x10003270C, symSize: 0xB4 }
  - { offset: 0x83A59, size: 0x8, addend: 0x0, symName: __ZN5gimli4read6reader6Reader12read_sleb12817he7622149ed2ba8f3E, symObjAddr: 0x40288, symBinAddr: 0x1000327C0, symSize: 0x23C }
  - { offset: 0x83B35, size: 0x8, addend: 0x0, symName: __ZN5gimli4read6reader6Reader12read_uleb12817hd0ba7762d4f5272cE, symObjAddr: 0x404C4, symBinAddr: 0x1000329FC, symSize: 0xB8 }
  - { offset: 0x83BDC, size: 0x8, addend: 0x0, symName: __ZN5gimli4read6reader6Reader17read_sized_offset17h56144a8ee82a97f2E, symObjAddr: 0x4057C, symBinAddr: 0x100032AB4, symSize: 0x10C }
  - { offset: 0x84253, size: 0x8, addend: 0x0, symName: '__ZN5gimli4read8rnglists20RngListIter$LT$R$GT$4next17hbfe62e2e23855b41E', symObjAddr: 0x40930, symBinAddr: 0x100032E68, symSize: 0xC70 }
  - { offset: 0x86BCA, size: 0x8, addend: 0x0, symName: '__ZN5gimli4read5index18UnitIndex$LT$R$GT$5parse17hf42bddb15b37e4adE', symObjAddr: 0x3FA24, symBinAddr: 0x100031F5C, symSize: 0x7B0 }
  - { offset: 0x872AA, size: 0x8, addend: 0x0, symName: '__ZN5gimli4read4line27FileEntry$LT$R$C$Offset$GT$5parse17h809629ae1f90afdcE', symObjAddr: 0x3B774, symBinAddr: 0x10002DCAC, symSize: 0x21C }
  - { offset: 0x87512, size: 0x8, addend: 0x0, symName: __ZN5gimli4read4line13parse_file_v517h46b7dbdd20cc86bdE, symObjAddr: 0x3A7F4, symBinAddr: 0x10002CD2C, symSize: 0x2B4 }
  - { offset: 0x8769A, size: 0x8, addend: 0x0, symName: __ZN5gimli4read4line15FileEntryFormat5parse17h8d770897394a1285E, symObjAddr: 0x3AAA8, symBinAddr: 0x10002CFE0, symSize: 0x370 }
  - { offset: 0x87E92, size: 0x8, addend: 0x0, symName: __ZN5gimli4read4line15parse_attribute17h8f693dd0ab51bc26E, symObjAddr: 0x3AE18, symBinAddr: 0x10002D350, symSize: 0x874 }
  - { offset: 0x89695, size: 0x8, addend: 0x0, symName: __ZN5gimli4read4line18parse_directory_v517hb83c7405e582bcc2E, symObjAddr: 0x3B68C, symBinAddr: 0x10002DBC4, symSize: 0xE8 }
  - { offset: 0x89926, size: 0x8, addend: 0x0, symName: _OUTLINED_FUNCTION_0, symObjAddr: 0x4F37C, symBinAddr: 0x1000388A8, symSize: 0x8 }
  - { offset: 0x8993E, size: 0x8, addend: 0x0, symName: _OUTLINED_FUNCTION_1, symObjAddr: 0x4F384, symBinAddr: 0x1000388B0, symSize: 0xC }
  - { offset: 0x89956, size: 0x8, addend: 0x0, symName: _OUTLINED_FUNCTION_2, symObjAddr: 0x4F390, symBinAddr: 0x1000388BC, symSize: 0xC }
  - { offset: 0x8996E, size: 0x8, addend: 0x0, symName: _OUTLINED_FUNCTION_3, symObjAddr: 0x4F39C, symBinAddr: 0x1000388C8, symSize: 0x10 }
  - { offset: 0x89986, size: 0x8, addend: 0x0, symName: _OUTLINED_FUNCTION_4, symObjAddr: 0x4F3AC, symBinAddr: 0x1000388D8, symSize: 0x10 }
  - { offset: 0x8999E, size: 0x8, addend: 0x0, symName: _OUTLINED_FUNCTION_5, symObjAddr: 0x4F3BC, symBinAddr: 0x1000388E8, symSize: 0xC }
  - { offset: 0x899B6, size: 0x8, addend: 0x0, symName: _OUTLINED_FUNCTION_6, symObjAddr: 0x4F3C8, symBinAddr: 0x1000388F4, symSize: 0xC }
  - { offset: 0x899CE, size: 0x8, addend: 0x0, symName: _OUTLINED_FUNCTION_7, symObjAddr: 0x4F3D4, symBinAddr: 0x100038900, symSize: 0x10 }
  - { offset: 0x899E6, size: 0x8, addend: 0x0, symName: _OUTLINED_FUNCTION_8, symObjAddr: 0x4F3E4, symBinAddr: 0x100038910, symSize: 0x8 }
  - { offset: 0x899FE, size: 0x8, addend: 0x0, symName: _OUTLINED_FUNCTION_9, symObjAddr: 0x4F3EC, symBinAddr: 0x100038918, symSize: 0x24 }
  - { offset: 0x89A16, size: 0x8, addend: 0x0, symName: _OUTLINED_FUNCTION_10, symObjAddr: 0x4F410, symBinAddr: 0x10003893C, symSize: 0x8 }
  - { offset: 0x89A2E, size: 0x8, addend: 0x0, symName: _OUTLINED_FUNCTION_11, symObjAddr: 0x4F418, symBinAddr: 0x100038944, symSize: 0x8 }
  - { offset: 0x89A46, size: 0x8, addend: 0x0, symName: _OUTLINED_FUNCTION_12, symObjAddr: 0x4F420, symBinAddr: 0x10003894C, symSize: 0x24 }
  - { offset: 0x89A5E, size: 0x8, addend: 0x0, symName: _OUTLINED_FUNCTION_13, symObjAddr: 0x4F444, symBinAddr: 0x100038970, symSize: 0x20 }
  - { offset: 0x89A76, size: 0x8, addend: 0x0, symName: _OUTLINED_FUNCTION_14, symObjAddr: 0x4F464, symBinAddr: 0x100038990, symSize: 0x10 }
  - { offset: 0x89A8E, size: 0x8, addend: 0x0, symName: _OUTLINED_FUNCTION_15, symObjAddr: 0x4F474, symBinAddr: 0x1000389A0, symSize: 0x10 }
  - { offset: 0x89AA6, size: 0x8, addend: 0x0, symName: _OUTLINED_FUNCTION_16, symObjAddr: 0x4F484, symBinAddr: 0x1000389B0, symSize: 0x10 }
  - { offset: 0x89ABE, size: 0x8, addend: 0x0, symName: _OUTLINED_FUNCTION_17, symObjAddr: 0x4F494, symBinAddr: 0x1000389C0, symSize: 0x10 }
  - { offset: 0x89AD6, size: 0x8, addend: 0x0, symName: _OUTLINED_FUNCTION_18, symObjAddr: 0x4F4A4, symBinAddr: 0x1000389D0, symSize: 0x8 }
  - { offset: 0x89AEE, size: 0x8, addend: 0x0, symName: _OUTLINED_FUNCTION_19, symObjAddr: 0x4F4AC, symBinAddr: 0x1000389D8, symSize: 0x8 }
  - { offset: 0x89B06, size: 0x8, addend: 0x0, symName: _OUTLINED_FUNCTION_20, symObjAddr: 0x4F4B4, symBinAddr: 0x1000389E0, symSize: 0xC }
  - { offset: 0x89B1E, size: 0x8, addend: 0x0, symName: _OUTLINED_FUNCTION_21, symObjAddr: 0x4F4C0, symBinAddr: 0x1000389EC, symSize: 0x8 }
  - { offset: 0x89B36, size: 0x8, addend: 0x0, symName: _OUTLINED_FUNCTION_22, symObjAddr: 0x4F4C8, symBinAddr: 0x1000389F4, symSize: 0x10 }
  - { offset: 0x89B4E, size: 0x8, addend: 0x0, symName: _OUTLINED_FUNCTION_23, symObjAddr: 0x4F4D8, symBinAddr: 0x100038A04, symSize: 0x10 }
  - { offset: 0x89B66, size: 0x8, addend: 0x0, symName: _OUTLINED_FUNCTION_24, symObjAddr: 0x4F4E8, symBinAddr: 0x100038A14, symSize: 0x18 }
  - { offset: 0x89B7E, size: 0x8, addend: 0x0, symName: _OUTLINED_FUNCTION_25, symObjAddr: 0x4F500, symBinAddr: 0x100038A2C, symSize: 0xC }
  - { offset: 0x89B96, size: 0x8, addend: 0x0, symName: _OUTLINED_FUNCTION_26, symObjAddr: 0x4F50C, symBinAddr: 0x100038A38, symSize: 0x8 }
  - { offset: 0x89BAE, size: 0x8, addend: 0x0, symName: _OUTLINED_FUNCTION_27, symObjAddr: 0x4F514, symBinAddr: 0x100038A40, symSize: 0x8 }
  - { offset: 0x89BC6, size: 0x8, addend: 0x0, symName: _OUTLINED_FUNCTION_28, symObjAddr: 0x4F51C, symBinAddr: 0x100038A48, symSize: 0xC }
  - { offset: 0x89BDE, size: 0x8, addend: 0x0, symName: _OUTLINED_FUNCTION_29, symObjAddr: 0x4F528, symBinAddr: 0x100038A54, symSize: 0xC }
  - { offset: 0x89BF6, size: 0x8, addend: 0x0, symName: _OUTLINED_FUNCTION_30, symObjAddr: 0x4F534, symBinAddr: 0x100038A60, symSize: 0xC }
  - { offset: 0x89C0E, size: 0x8, addend: 0x0, symName: _OUTLINED_FUNCTION_31, symObjAddr: 0x4F540, symBinAddr: 0x100038A6C, symSize: 0xC }
  - { offset: 0x89C26, size: 0x8, addend: 0x0, symName: _OUTLINED_FUNCTION_32, symObjAddr: 0x4F54C, symBinAddr: 0x100038A78, symSize: 0x8 }
  - { offset: 0x89C3E, size: 0x8, addend: 0x0, symName: _OUTLINED_FUNCTION_33, symObjAddr: 0x4F554, symBinAddr: 0x100038A80, symSize: 0x10 }
  - { offset: 0x89C56, size: 0x8, addend: 0x0, symName: _OUTLINED_FUNCTION_34, symObjAddr: 0x4F564, symBinAddr: 0x100038A90, symSize: 0x14 }
  - { offset: 0x89C6E, size: 0x8, addend: 0x0, symName: _OUTLINED_FUNCTION_35, symObjAddr: 0x4F578, symBinAddr: 0x100038AA4, symSize: 0x14 }
  - { offset: 0x89C86, size: 0x8, addend: 0x0, symName: _OUTLINED_FUNCTION_36, symObjAddr: 0x4F58C, symBinAddr: 0x100038AB8, symSize: 0x14 }
  - { offset: 0x89CBC, size: 0x8, addend: 0x0, symName: __RNvCskdKJRKLKjqM_7___rustc18___rust_start_panic, symObjAddr: 0x0, symBinAddr: 0x100038ACC, symSize: 0xA0 }
  - { offset: 0x89D97, size: 0x8, addend: 0x0, symName: __ZN12panic_unwind3imp5panic17exception_cleanup17h4266e266b2c9487cE, symObjAddr: 0x108, symBinAddr: 0x100038BD4, symSize: 0x18 }
  - { offset: 0x89DB3, size: 0x8, addend: 0x0, symName: __RNvCskdKJRKLKjqM_7___rustc18___rust_start_panic, symObjAddr: 0x0, symBinAddr: 0x100038ACC, symSize: 0xA0 }
  - { offset: 0x89E3D, size: 0x8, addend: 0x0, symName: __RNvCskdKJRKLKjqM_7___rustc20___rust_panic_cleanup, symObjAddr: 0xA0, symBinAddr: 0x100038B6C, symSize: 0x68 }
  - { offset: 0x89F32, size: 0x8, addend: 0x0, symName: '__ZN4core3ptr49drop_in_place$LT$panic_unwind..imp..Exception$GT$17haf5bf9a577d18351E', symObjAddr: 0x120, symBinAddr: 0x100038BEC, symSize: 0x78 }
  - { offset: 0x8A039, size: 0x8, addend: 0x0, symName: '__ZN4core3ptr74drop_in_place$LT$alloc..boxed..Box$LT$panic_unwind..imp..Exception$GT$$GT$17hfb07d84a22c2fe57E', symObjAddr: 0x198, symBinAddr: 0x100038C64, symSize: 0x8C }
  - { offset: 0x8A35B, size: 0x8, addend: 0x0, symName: '__ZN69_$LT$core..alloc..layout..LayoutError$u20$as$u20$core..fmt..Debug$GT$3fmt17h64c9cb4b8dea4922E', symObjAddr: 0x4FA4, symBinAddr: 0x100040C2C, symSize: 0x14 }
  - { offset: 0x8A5E4, size: 0x8, addend: 0x0, symName: __ZN5alloc5alloc18handle_alloc_error17h26baa107ca8d7d87E, symObjAddr: 0x3110, symBinAddr: 0x100049A50, symSize: 0x18 }
  - { offset: 0x8A881, size: 0x8, addend: 0x0, symName: __ZN5alloc7raw_vec11finish_grow17hae2a77561b3eba9fE, symObjAddr: 0x4A98, symBinAddr: 0x100049A68, symSize: 0x80 }
  - { offset: 0x8A8F6, size: 0x8, addend: 0x0, symName: __ZN5alloc7raw_vec12handle_error17hda5280d2e54fe328E, symObjAddr: 0x4B18, symBinAddr: 0x100049AE8, symSize: 0x18 }
  - { offset: 0x8A935, size: 0x8, addend: 0x0, symName: __ZN5alloc7raw_vec17capacity_overflow17h17d905a29a8903c6E, symObjAddr: 0x4B30, symBinAddr: 0x100049B00, symSize: 0x34 }
  - { offset: 0x8A96E, size: 0x8, addend: 0x0, symName: '__ZN5alloc7raw_vec20RawVecInner$LT$A$GT$7reserve21do_reserve_and_handle17h11d004b711ee78ceE', symObjAddr: 0x4C04, symBinAddr: 0x100049B34, symSize: 0xAC }
  - { offset: 0x8AAFA, size: 0x8, addend: 0x0, symName: '__ZN254_$LT$alloc..boxed..convert..$LT$impl$u20$core..convert..From$LT$alloc..string..String$GT$$u20$for$u20$alloc..boxed..Box$LT$dyn$u20$core..error..Error$u2b$core..marker..Sync$u2b$core..marker..Send$GT$$GT$..from..StringError$u20$as$u20$core..fmt..Debug$GT$3fmt17h75dec14bca657cd7E', symObjAddr: 0x114, symBinAddr: 0x1000407D4, symSize: 0x10 }
  - { offset: 0x8ABCB, size: 0x8, addend: 0x0, symName: '__ZN256_$LT$alloc..boxed..convert..$LT$impl$u20$core..convert..From$LT$alloc..string..String$GT$$u20$for$u20$alloc..boxed..Box$LT$dyn$u20$core..error..Error$u2b$core..marker..Sync$u2b$core..marker..Send$GT$$GT$..from..StringError$u20$as$u20$core..fmt..Display$GT$3fmt17h47fcec3434e746beE', symObjAddr: 0x124, symBinAddr: 0x1000407E4, symSize: 0x10 }
  - { offset: 0x8ACBE, size: 0x8, addend: 0x0, symName: '__ZN100_$LT$alloc..ffi..c_str..CString$u20$as$u20$core..convert..From$LT$$RF$core..ffi..c_str..CStr$GT$$GT$4from17ha0ae31de1f056ba8E', symObjAddr: 0x94, symBinAddr: 0x100040754, symSize: 0x80 }
  - { offset: 0x8AE2E, size: 0x8, addend: 0x0, symName: __ZN5alloc3ffi5c_str7CString19_from_vec_unchecked17ha9e4236e455233d9E, symObjAddr: 0xAA0, symBinAddr: 0x1000407F4, symSize: 0x160 }
  - { offset: 0x8B158, size: 0x8, addend: 0x0, symName: __ZN5alloc3ffi5c_str7CString8from_raw17hd515aced8920cd6dE, symObjAddr: 0xCA4, symBinAddr: 0x100040954, symSize: 0x28 }
  - { offset: 0x8B191, size: 0x8, addend: 0x0, symName: '__ZN72_$LT$$RF$str$u20$as$u20$alloc..ffi..c_str..CString..new..SpecNewImpl$GT$13spec_new_impl17h45e6a9b6841b9026E', symObjAddr: 0x4FB8, symBinAddr: 0x100040C40, symSize: 0x114 }
  - { offset: 0x8B5A7, size: 0x8, addend: 0x0, symName: __ZN5alloc6string6String15from_utf8_lossy17h3827377ec6f44505E, symObjAddr: 0x40B8, symBinAddr: 0x1000409F0, symSize: 0x23C }
  - { offset: 0x8BB63, size: 0x8, addend: 0x0, symName: '__ZN98_$LT$alloc..string..String$u20$as$u20$core..convert..From$LT$alloc..borrow..Cow$LT$str$GT$$GT$$GT$4from17h5469e7f25801e42aE', symObjAddr: 0x58FC, symBinAddr: 0x100040D54, symSize: 0xB4 }
  - { offset: 0x8BD6B, size: 0x8, addend: 0x0, symName: __ZN5alloc4sync32arcinner_layout_for_value_layout17he81fe29099bd6304E, symObjAddr: 0x226C, symBinAddr: 0x10004097C, symSize: 0x74 }
  - { offset: 0x8BEC0, size: 0x8, addend: 0x0, symName: '__ZN71_$LT$core..ops..range..Range$LT$Idx$GT$$u20$as$u20$core..fmt..Debug$GT$3fmt17h9ee395a326b5a38dE', symObjAddr: 0x1D05C, symBinAddr: 0x100045B18, symSize: 0x5C }
  - { offset: 0x8C164, size: 0x8, addend: 0x0, symName: '__ZN4core4char7methods22_$LT$impl$u20$char$GT$16escape_debug_ext17h65363754973cca06E', symObjAddr: 0x15EAC, symBinAddr: 0x100044C5C, symSize: 0x284 }
  - { offset: 0x8C34E, size: 0x8, addend: 0x0, symName: __ZN4core4char7methods15encode_utf8_raw8do_panic7runtime17hf09a7bf7d34256f1E, symObjAddr: 0x15DD4, symBinAddr: 0x100049C8C, symSize: 0x6C }
  - { offset: 0x8C592, size: 0x8, addend: 0x0, symName: __ZN4core3num22from_ascii_radix_panic8do_panic7runtime17h7f9501ed7945387fE, symObjAddr: 0xD48C, symBinAddr: 0x100049BEC, symSize: 0x44 }
  - { offset: 0x8C5C5, size: 0x8, addend: 0x0, symName: __ZN4core3num22from_ascii_radix_panic17h9c5061ce301e38d1E, symObjAddr: 0xD480, symBinAddr: 0x100049BE0, symSize: 0xC }
  - { offset: 0x8C883, size: 0x8, addend: 0x0, symName: __ZN4core6option13expect_failed17ha7eb9005b8b6a5f0E, symObjAddr: 0x16714, symBinAddr: 0x100049E64, symSize: 0x48 }
  - { offset: 0x8C8CB, size: 0x8, addend: 0x0, symName: __ZN4core6option13unwrap_failed17h5390b8bf3624dae4E, symObjAddr: 0x1675C, symBinAddr: 0x100049EAC, symSize: 0x1C }
  - { offset: 0x8CDE0, size: 0x8, addend: 0x0, symName: __ZN4core5slice5index16slice_index_fail8do_panic7runtime17h264a8ffb4962c84aE, symObjAddr: 0x16438, symBinAddr: 0x100049D74, symSize: 0x50 }
  - { offset: 0x8CE11, size: 0x8, addend: 0x0, symName: __ZN4core5slice5index16slice_index_fail8do_panic7runtime17hc3cb4cb0f63d7a0dE, symObjAddr: 0x16488, symBinAddr: 0x100049DC4, symSize: 0x50 }
  - { offset: 0x8CE42, size: 0x8, addend: 0x0, symName: __ZN4core5slice5index16slice_index_fail8do_panic7runtime17hdb76a588098e04d1E, symObjAddr: 0x164D8, symBinAddr: 0x100049E14, symSize: 0x50 }
  - { offset: 0x8CE75, size: 0x8, addend: 0x0, symName: __ZN4core5slice5index16slice_index_fail17hcba6beb3c7e54df7E, symObjAddr: 0x163F4, symBinAddr: 0x100049D30, symSize: 0x44 }
  - { offset: 0x8CF2E, size: 0x8, addend: 0x0, symName: __ZN4core5slice6memchr14memchr_aligned17h0fd76980ccaa34afE, symObjAddr: 0x16528, symBinAddr: 0x100044F2C, symSize: 0xDC }
  - { offset: 0x8CF45, size: 0x8, addend: 0x0, symName: __ZN4core5slice6memchr14memchr_aligned17h0fd76980ccaa34afE, symObjAddr: 0x16528, symBinAddr: 0x100044F2C, symSize: 0xDC }
  - { offset: 0x8CF5A, size: 0x8, addend: 0x0, symName: __ZN4core5slice6memchr14memchr_aligned17h0fd76980ccaa34afE, symObjAddr: 0x16528, symBinAddr: 0x100044F2C, symSize: 0xDC }
  - { offset: 0x8CF6E, size: 0x8, addend: 0x0, symName: __ZN4core5slice6memchr14memchr_aligned17h0fd76980ccaa34afE, symObjAddr: 0x16528, symBinAddr: 0x100044F2C, symSize: 0xDC }
  - { offset: 0x8CF83, size: 0x8, addend: 0x0, symName: __ZN4core5slice6memchr14memchr_aligned17h0fd76980ccaa34afE, symObjAddr: 0x16528, symBinAddr: 0x100044F2C, symSize: 0xDC }
  - { offset: 0x8D032, size: 0x8, addend: 0x0, symName: __ZN4core5slice6memchr7memrchr17h9d6664cc82317f7aE, symObjAddr: 0x16604, symBinAddr: 0x100045008, symSize: 0x110 }
  - { offset: 0x8D1CE, size: 0x8, addend: 0x0, symName: __ZN4core5slice4sort6shared9smallsort22panic_on_ord_violation17haee08cae494f9b76E, symObjAddr: 0x162E0, symBinAddr: 0x100049CF8, symSize: 0x38 }
  - { offset: 0x8D20B, size: 0x8, addend: 0x0, symName: __ZN4core5slice4sort6stable5drift11sqrt_approx17h4d80f437b4f05e96E, symObjAddr: 0x16318, symBinAddr: 0x100044F00, symSize: 0x2C }
  - { offset: 0x8D300, size: 0x8, addend: 0x0, symName: __ZN4core3fmt9Formatter10debug_list17hbc06b89459e82ed2E, symObjAddr: 0x9CA8, symBinAddr: 0x1000427E8, symSize: 0x48 }
  - { offset: 0x8D340, size: 0x8, addend: 0x0, symName: __ZN4core3fmt9Formatter11debug_tuple17h51c84851e9ce025eE, symObjAddr: 0x9CF0, symBinAddr: 0x100042830, symSize: 0x50 }
  - { offset: 0x8D38E, size: 0x8, addend: 0x0, symName: __ZN4core3fmt9Formatter12debug_struct17hff016019e19a1e59E, symObjAddr: 0x9D40, symBinAddr: 0x100042880, symSize: 0x3C }
  - { offset: 0x8D3F7, size: 0x8, addend: 0x0, symName: __ZN4core3fmt9Formatter12pad_integral17h6b76510de31552c4E, symObjAddr: 0x9DF8, symBinAddr: 0x100042938, symSize: 0x3B4 }
  - { offset: 0x8D6F8, size: 0x8, addend: 0x0, symName: __ZN4core3fmt9Formatter25debug_tuple_field1_finish17hd754385b76890be0E, symObjAddr: 0xA668, symBinAddr: 0x100042CEC, symSize: 0x160 }
  - { offset: 0x8D8F3, size: 0x8, addend: 0x0, symName: __ZN4core3fmt9Formatter25debug_tuple_field2_finish17hd192ca962f3e76f9E, symObjAddr: 0xA7C8, symBinAddr: 0x100042E4C, symSize: 0x1D8 }
  - { offset: 0x8DBEB, size: 0x8, addend: 0x0, symName: __ZN4core3fmt9Formatter26debug_struct_field1_finish17hdf9e3e8cc9fad70bE, symObjAddr: 0xB580, symBinAddr: 0x100043024, symSize: 0xD0 }
  - { offset: 0x8DCC2, size: 0x8, addend: 0x0, symName: __ZN4core3fmt9Formatter26debug_struct_field2_finish17h3b83c18c70479e53E, symObjAddr: 0xB650, symBinAddr: 0x1000430F4, symSize: 0x104 }
  - { offset: 0x8DD99, size: 0x8, addend: 0x0, symName: __ZN4core3fmt9Formatter3pad17hff1f0d89dcf14919E, symObjAddr: 0xBC68, symBinAddr: 0x1000431F8, symSize: 0x304 }
  - { offset: 0x8E0F9, size: 0x8, addend: 0x0, symName: __ZN4core3fmt9Formatter9write_str17hc566c39ab04e0b97E, symObjAddr: 0xC018, symBinAddr: 0x1000434FC, symSize: 0x10 }
  - { offset: 0x8E169, size: 0x8, addend: 0x0, symName: __ZN4core3fmt8builders11DebugStruct5field17h207d6e7a951e3da0E, symObjAddr: 0x91AC, symBinAddr: 0x100042424, symSize: 0x1B4 }
  - { offset: 0x8E375, size: 0x8, addend: 0x0, symName: __ZN4core3fmt8builders11DebugStruct6finish17h09aadd2fc45d6189E, symObjAddr: 0x9360, symBinAddr: 0x1000425D8, symSize: 0x7C }
  - { offset: 0x8E49D, size: 0x8, addend: 0x0, symName: __ZN4core3fmt8builders10DebugTuple5field17h05b75b880ca687fcE, symObjAddr: 0x8EC8, symBinAddr: 0x100042228, symSize: 0x148 }
  - { offset: 0x8E61B, size: 0x8, addend: 0x0, symName: __ZN4core3fmt8builders10DebugTuple6finish17hbdc58b7a910cf8f5E, symObjAddr: 0x9010, symBinAddr: 0x100042370, symSize: 0xB4 }
  - { offset: 0x8E756, size: 0x8, addend: 0x0, symName: __ZN4core3fmt8builders8DebugSet5entry17h2d9f8a7b8dc85098E, symObjAddr: 0x9A00, symBinAddr: 0x100042654, symSize: 0x148 }
  - { offset: 0x8E937, size: 0x8, addend: 0x0, symName: __ZN4core3fmt8builders9DebugList6finish17h1e2c90a4f4b268bbE, symObjAddr: 0x9C5C, symBinAddr: 0x10004279C, symSize: 0x4C }
  - { offset: 0x8E9B4, size: 0x8, addend: 0x0, symName: '__ZN68_$LT$core..fmt..builders..PadAdapter$u20$as$u20$core..fmt..Write$GT$10write_char17h26ddfb0e18c0d503E', symObjAddr: 0x1BDC8, symBinAddr: 0x100045854, symSize: 0x80 }
  - { offset: 0x8E9DD, size: 0x8, addend: 0x0, symName: '__ZN68_$LT$core..fmt..builders..PadAdapter$u20$as$u20$core..fmt..Write$GT$9write_str17hc88595c259955ac6E', symObjAddr: 0x1BE48, symBinAddr: 0x1000458D4, symSize: 0x244 }
  - { offset: 0x8EC9A, size: 0x8, addend: 0x0, symName: '__ZN57_$LT$core..fmt..Formatter$u20$as$u20$core..fmt..Write$GT$10write_char17ha628134952590ac5E', symObjAddr: 0x1880C, symBinAddr: 0x1000454C4, symSize: 0x10 }
  - { offset: 0x8ECD6, size: 0x8, addend: 0x0, symName: '__ZN40_$LT$str$u20$as$u20$core..fmt..Debug$GT$3fmt17h6237d1724b23f846E', symObjAddr: 0x278, symBinAddr: 0x100040E08, symSize: 0x398 }
  - { offset: 0x8F0E2, size: 0x8, addend: 0x0, symName: '__ZN41_$LT$char$u20$as$u20$core..fmt..Debug$GT$3fmt17h59e0a889e40b0668E', symObjAddr: 0x610, symBinAddr: 0x1000411A0, symSize: 0xA8 }
  - { offset: 0x8F1EC, size: 0x8, addend: 0x0, symName: '__ZN42_$LT$$RF$T$u20$as$u20$core..fmt..Debug$GT$3fmt17h64c69660141ac234E', symObjAddr: 0x6D8, symBinAddr: 0x100041248, symSize: 0x10 }
  - { offset: 0x8F200, size: 0x8, addend: 0x0, symName: '__ZN42_$LT$$RF$T$u20$as$u20$core..fmt..Debug$GT$3fmt17h69565c29f92b8fc4E', symObjAddr: 0x6E8, symBinAddr: 0x100041258, symSize: 0x8 }
  - { offset: 0x8F214, size: 0x8, addend: 0x0, symName: '__ZN42_$LT$$RF$T$u20$as$u20$core..fmt..Debug$GT$3fmt17h94db8d2ef512e5afE', symObjAddr: 0x6F0, symBinAddr: 0x100041260, symSize: 0xC }
  - { offset: 0x8F251, size: 0x8, addend: 0x0, symName: '__ZN42_$LT$str$u20$as$u20$core..fmt..Display$GT$3fmt17h1e7192c885a6ee43E', symObjAddr: 0x868, symBinAddr: 0x10004126C, symSize: 0x14 }
  - { offset: 0x8F279, size: 0x8, addend: 0x0, symName: '__ZN43_$LT$char$u20$as$u20$core..fmt..Display$GT$3fmt17hdbc7e490592ff55fE', symObjAddr: 0x8B0, symBinAddr: 0x100041280, symSize: 0xD4 }
  - { offset: 0x8F2EF, size: 0x8, addend: 0x0, symName: '__ZN44_$LT$$RF$T$u20$as$u20$core..fmt..Display$GT$3fmt17hee11fbb5a7b19b29E', symObjAddr: 0xACC, symBinAddr: 0x100041354, symSize: 0x10 }
  - { offset: 0x8F3C3, size: 0x8, addend: 0x0, symName: '__ZN4core3fmt3num3imp51_$LT$impl$u20$core..fmt..Display$u20$for$u20$u8$GT$3fmt17h96dad03e83fb5f48E', symObjAddr: 0x2680, symBinAddr: 0x100041508, symSize: 0xB0 }
  - { offset: 0x8F4A8, size: 0x8, addend: 0x0, symName: '__ZN4core3fmt3num3imp52_$LT$impl$u20$core..fmt..Display$u20$for$u20$i32$GT$3fmt17h52781b7f8b2f4a4fE', symObjAddr: 0x2848, symBinAddr: 0x1000415B8, symSize: 0x13C }
  - { offset: 0x8F5A8, size: 0x8, addend: 0x0, symName: '__ZN4core3fmt3num3imp52_$LT$impl$u20$core..fmt..Display$u20$for$u20$u32$GT$3fmt17h5beaee6a6019d596E', symObjAddr: 0x2BC4, symBinAddr: 0x1000416F4, symSize: 0x130 }
  - { offset: 0x8F6A5, size: 0x8, addend: 0x0, symName: '__ZN4core3fmt3num3imp52_$LT$impl$u20$core..fmt..Display$u20$for$u20$u64$GT$3fmt17h14d52cab6e85bc6fE', symObjAddr: 0x2CF4, symBinAddr: 0x100041824, symSize: 0x13C }
  - { offset: 0x8F7E0, size: 0x8, addend: 0x0, symName: '__ZN4core3fmt3num52_$LT$impl$u20$core..fmt..LowerHex$u20$for$u20$u8$GT$3fmt17hb13fce475fc222b2E', symObjAddr: 0x4BF0, symBinAddr: 0x100041D04, symSize: 0x74 }
  - { offset: 0x8F852, size: 0x8, addend: 0x0, symName: '__ZN4core3fmt3num52_$LT$impl$u20$core..fmt..UpperHex$u20$for$u20$u8$GT$3fmt17hb1de02a3a7bbd3c7E', symObjAddr: 0x4CD8, symBinAddr: 0x100041D78, symSize: 0x74 }
  - { offset: 0x8F8D7, size: 0x8, addend: 0x0, symName: '__ZN4core3fmt3num53_$LT$impl$u20$core..fmt..UpperHex$u20$for$u20$u32$GT$3fmt17hb34391e4c80e6b6fE', symObjAddr: 0x52AC, symBinAddr: 0x100041F48, symSize: 0x74 }
  - { offset: 0x8F949, size: 0x8, addend: 0x0, symName: '__ZN4core3fmt3num53_$LT$impl$u20$core..fmt..LowerHex$u20$for$u20$u64$GT$3fmt17h79a829e8e24e1101E', symObjAddr: 0x5068, symBinAddr: 0x100041E60, symSize: 0x74 }
  - { offset: 0x8F9BB, size: 0x8, addend: 0x0, symName: '__ZN4core3fmt3num53_$LT$impl$u20$core..fmt..UpperHex$u20$for$u20$u64$GT$3fmt17hc53763e351945eb2E', symObjAddr: 0x5320, symBinAddr: 0x100041FBC, symSize: 0x74 }
  - { offset: 0x8FA20, size: 0x8, addend: 0x0, symName: '__ZN4core3fmt3num50_$LT$impl$u20$core..fmt..Debug$u20$for$u20$u64$GT$3fmt17hc0c6345233f6992cE', symObjAddr: 0x3E30, symBinAddr: 0x100041960, symSize: 0x1CC }
  - { offset: 0x8FB9C, size: 0x8, addend: 0x0, symName: '__ZN4core3fmt3num52_$LT$impl$u20$core..fmt..Debug$u20$for$u20$usize$GT$3fmt17hecd777b1c3510085E', symObjAddr: 0x49A4, symBinAddr: 0x100041B2C, symSize: 0x1D8 }
  - { offset: 0x8FD05, size: 0x8, addend: 0x0, symName: '__ZN4core3fmt3num53_$LT$impl$u20$core..fmt..LowerHex$u20$for$u20$i32$GT$3fmt17hdfae8c5dbc559eecE', symObjAddr: 0x4E98, symBinAddr: 0x100041DEC, symSize: 0x74 }
  - { offset: 0x8FD8C, size: 0x8, addend: 0x0, symName: '__ZN4core3fmt3num53_$LT$impl$u20$core..fmt..UpperHex$u20$for$u20$i32$GT$3fmt17h723ababa892c8d1fE', symObjAddr: 0x5150, symBinAddr: 0x100041ED4, symSize: 0x74 }
  - { offset: 0x8FF8E, size: 0x8, addend: 0x0, symName: __ZN4core3fmt17pointer_fmt_inner17h8bac0a374e702121E, symObjAddr: 0x10FC, symBinAddr: 0x100041454, symSize: 0xB4 }
  - { offset: 0x9004B, size: 0x8, addend: 0x0, symName: __ZN4core3fmt5Write9write_fmt17h335a5c637617de5aE, symObjAddr: 0x640C, symBinAddr: 0x100042030, symSize: 0x10 }
  - { offset: 0x900CA, size: 0x8, addend: 0x0, symName: __ZN4core3fmt5write17h2ddadfca81aeb692E, symObjAddr: 0x8C20, symBinAddr: 0x100042040, symSize: 0x1E8 }
  - { offset: 0x90295, size: 0x8, addend: 0x0, symName: __ZN4core3fmt9Formatter12pad_integral12write_prefix17h1291243e63835aa1E, symObjAddr: 0x9D7C, symBinAddr: 0x1000428BC, symSize: 0x7C }
  - { offset: 0x902FD, size: 0x8, addend: 0x0, symName: '__ZN59_$LT$core..fmt..Arguments$u20$as$u20$core..fmt..Display$GT$3fmt17hd8696728533e2ff8E', symObjAddr: 0x194B8, symBinAddr: 0x1000454D4, symSize: 0xC }
  - { offset: 0x90420, size: 0x8, addend: 0x0, symName: __ZN4core6result13unwrap_failed17h6d77827dc3df0d45E, symObjAddr: 0x16778, symBinAddr: 0x100049EC8, symSize: 0x5C }
  - { offset: 0x906B4, size: 0x8, addend: 0x0, symName: __ZN4core3str5count14do_count_chars17h843327bbee0854c3E, symObjAddr: 0x14570, symBinAddr: 0x100043778, symSize: 0x718 }
  - { offset: 0x90AB0, size: 0x8, addend: 0x0, symName: __ZN4core3str5count23char_count_general_case17habd9bffbcb484ba4E, symObjAddr: 0x14C88, symBinAddr: 0x100043E90, symSize: 0x2A8 }
  - { offset: 0x90B58, size: 0x8, addend: 0x0, symName: __ZN4core3str16slice_error_fail17h525eecae2eaa107fE, symObjAddr: 0x14198, symBinAddr: 0x100049C30, symSize: 0xC }
  - { offset: 0x90B72, size: 0x8, addend: 0x0, symName: __ZN4core3str19slice_error_fail_rt17hb42e3abad203a6cdE, symObjAddr: 0x141D8, symBinAddr: 0x10004350C, symSize: 0x26C }
  - { offset: 0x90CF5, size: 0x8, addend: 0x0, symName: __ZN4core3str7pattern11StrSearcher3new17h08afc4e4b23bec43E, symObjAddr: 0x14F64, symBinAddr: 0x100044138, symSize: 0x8B0 }
  - { offset: 0x90F8C, size: 0x8, addend: 0x0, symName: __ZN4core3str8converts9from_utf817h919d4dab8ff84af4E, symObjAddr: 0x15A88, symBinAddr: 0x1000449E8, symSize: 0x274 }
  - { offset: 0x90FA9, size: 0x8, addend: 0x0, symName: __ZN4core3str8converts9from_utf817h919d4dab8ff84af4E, symObjAddr: 0x15A88, symBinAddr: 0x1000449E8, symSize: 0x274 }
  - { offset: 0x91017, size: 0x8, addend: 0x0, symName: '__ZN60_$LT$core..str..lossy..Debug$u20$as$u20$core..fmt..Debug$GT$3fmt17hd86b5da5762d62d9E', symObjAddr: 0x19B58, symBinAddr: 0x1000454E0, symSize: 0x360 }
  - { offset: 0x91319, size: 0x8, addend: 0x0, symName: '__ZN87_$LT$core..str..lossy..Utf8Chunks$u20$as$u20$core..iter..traits..iterator..Iterator$GT$4next17h95aaa406218940b3E', symObjAddr: 0x1F918, symBinAddr: 0x100045B74, symSize: 0x1C0 }
  - { offset: 0x9152D, size: 0x8, addend: 0x0, symName: __ZN4core3ffi5c_str4CStr19from_bytes_with_nul17h949d50f69b18d62aE, symObjAddr: 0xF20, symBinAddr: 0x100041364, symSize: 0xF0 }
  - { offset: 0x9154B, size: 0x8, addend: 0x0, symName: __ZN4core3ffi5c_str4CStr19from_bytes_with_nul17h949d50f69b18d62aE, symObjAddr: 0xF20, symBinAddr: 0x100041364, symSize: 0xF0 }
  - { offset: 0x9166B, size: 0x8, addend: 0x0, symName: __ZN4core4cell22panic_already_borrowed8do_panic7runtime17hb049e5e6e3009115E, symObjAddr: 0x15D08, symBinAddr: 0x100049C48, symSize: 0x44 }
  - { offset: 0x9169E, size: 0x8, addend: 0x0, symName: __ZN4core4cell22panic_already_borrowed17h2b3e251322659aa8E, symObjAddr: 0x15CFC, symBinAddr: 0x100049C3C, symSize: 0xC }
  - { offset: 0x916D3, size: 0x8, addend: 0x0, symName: '__ZN65_$LT$core..cell..BorrowMutError$u20$as$u20$core..fmt..Display$GT$3fmt17h88d30539f104455aE', symObjAddr: 0x1A498, symBinAddr: 0x100045840, symSize: 0x14 }
  - { offset: 0x91723, size: 0x8, addend: 0x0, symName: __ZN4core7unicode12unicode_data15grapheme_extend11lookup_slow17h7cfd3b15da7724b7E, symObjAddr: 0x16D14, symBinAddr: 0x100045118, symSize: 0x108 }
  - { offset: 0x918F6, size: 0x8, addend: 0x0, symName: __ZN4core7unicode9printable12is_printable17h2705576d9a4eb781E, symObjAddr: 0x17234, symBinAddr: 0x100045220, symSize: 0x2A4 }
  - { offset: 0x91BE7, size: 0x8, addend: 0x0, symName: __ZN4core5alloc6layout6Layout19is_size_align_valid17he773f7fedf08cc11E, symObjAddr: 0x161BC, symBinAddr: 0x100044EE0, symSize: 0x20 }
  - { offset: 0x91C04, size: 0x8, addend: 0x0, symName: __ZN4core5alloc6layout6Layout19is_size_align_valid17he773f7fedf08cc11E, symObjAddr: 0x161BC, symBinAddr: 0x100044EE0, symSize: 0x20 }
  - { offset: 0x91C31, size: 0x8, addend: 0x0, symName: __ZN4core9panicking11panic_const23panic_const_div_by_zero17h4bab502c4a7f6f5bE, symObjAddr: 0x174D8, symBinAddr: 0x100049F24, symSize: 0x34 }
  - { offset: 0x91C60, size: 0x8, addend: 0x0, symName: __ZN4core9panicking11panic_const23panic_const_rem_by_zero17h6c478c7599da4a96E, symObjAddr: 0x17540, symBinAddr: 0x100049F58, symSize: 0x34 }
  - { offset: 0x91C90, size: 0x8, addend: 0x0, symName: __ZN4core9panicking13assert_failed17h420d4be177614dd0E, symObjAddr: 0x17950, symBinAddr: 0x100049F8C, symSize: 0x24 }
  - { offset: 0x91CAB, size: 0x8, addend: 0x0, symName: __ZN4core9panicking13assert_failed17hcd10705fda4a35e5E, symObjAddr: 0x17998, symBinAddr: 0x100049FB0, symSize: 0x24 }
  - { offset: 0x91CC6, size: 0x8, addend: 0x0, symName: __ZN4core9panicking14panic_nounwind17h50f882120c826ceeE, symObjAddr: 0x179BC, symBinAddr: 0x100049FD4, symSize: 0x3C }
  - { offset: 0x91CF5, size: 0x8, addend: 0x0, symName: __ZN4core9panicking16panic_in_cleanup17h8699c7095cf5e6c5E, symObjAddr: 0x17A5C, symBinAddr: 0x10004A010, symSize: 0x18 }
  - { offset: 0x91D10, size: 0x8, addend: 0x0, symName: __ZN4core9panicking18panic_bounds_check17h8935b4e0a545757eE, symObjAddr: 0x17A74, symBinAddr: 0x10004A028, symSize: 0x50 }
  - { offset: 0x91D56, size: 0x8, addend: 0x0, symName: __ZN4core9panicking18panic_nounwind_fmt17h3db3f511675e5bd7E, symObjAddr: 0x17AC4, symBinAddr: 0x10004A078, symSize: 0x3C }
  - { offset: 0x91D9B, size: 0x8, addend: 0x0, symName: __ZN4core9panicking19assert_failed_inner17h13db5798706a154aE, symObjAddr: 0x17B00, symBinAddr: 0x10004A0B4, symSize: 0xE4 }
  - { offset: 0x91DE3, size: 0x8, addend: 0x0, symName: __ZN4core9panicking19panic_cannot_unwind17h396781a6699a759fE, symObjAddr: 0x17BE4, symBinAddr: 0x10004A198, symSize: 0x18 }
  - { offset: 0x91DFE, size: 0x8, addend: 0x0, symName: __ZN4core9panicking26panic_nounwind_nobacktrace17h779196fb6afb7816E, symObjAddr: 0x17BFC, symBinAddr: 0x10004A1B0, symSize: 0x3C }
  - { offset: 0x91E2D, size: 0x8, addend: 0x0, symName: __ZN4core9panicking5panic17hb13a99a9a5205e75E, symObjAddr: 0x17D00, symBinAddr: 0x10004A1EC, symSize: 0x34 }
  - { offset: 0x91E5C, size: 0x8, addend: 0x0, symName: __ZN4core9panicking9panic_fmt17h96de7a67cc512650E, symObjAddr: 0x17D34, symBinAddr: 0x10004A220, symSize: 0x20 }
  - { offset: 0x91ECD, size: 0x8, addend: 0x0, symName: _OUTLINED_FUNCTION_0, symObjAddr: 0x1FB3C, symBinAddr: 0x100045D34, symSize: 0x10 }
...
