---
triple:          'arm64-apple-darwin'
binary-path:     '/Users/johnhjediny/Documents/GitHub/json-schema-x-graphql/converters/rust/target/debug/deps/libzerocopy_derive-f565908387b15a8c.dylib'
relocations:
  - { offset: 0x1E, size: 0x8, addend: 0x0, symName: __RINvMs5_Cs4oBEgEuuqV9_15zerocopy_deriveINtB6_16ImplBlockBuilderNtNtCscwCr4GBBztI_3syn6derive10DataStructE12outer_extrasINtNtCs85QQFkKrybG_4core6option6OptionNtCsfwj6t2KTYdc_11proc_macro211TokenStreamEEB6_, symObjAddr: 0x0, symBinAddr: 0xC60, symSize: 0xCC }
  - { offset: 0x40, size: 0x8, addend: 0x0, symName: ___rustc_proc_macro_decls_33369b83c7f14f31__, symObjAddr: 0x1DDC0, symBinAddr: 0x248930, symSize: 0x0 }
  - { offset: 0xB31, size: 0x8, addend: 0x0, symName: __RINvNvMs5_Cs4oBEgEuuqV9_15zerocopy_deriveINtB8_16ImplBlockBuilderpE5build8bound_ttINtNtNtNtCs85QQFkKrybG_4core4iter8adapters3map3MapINtNtNtB1r_5slice4iter4IterNtB8_10TraitBoundENCNvB8_16normalize_bounds0EEB8_, symObjAddr: 0x4C8, symBinAddr: 0x1128, symSize: 0x29C }
  - { offset: 0xC56, size: 0x8, addend: 0x0, symName: __RINvNvMs5_Cs4oBEgEuuqV9_15zerocopy_deriveINtB8_16ImplBlockBuilderpE5build8bound_ttINtNtNtNtCs85QQFkKrybG_4core4iter8adapters6copied6CopiedINtNtNtB1r_5slice4iter4IterNtB8_5TraitEEEB8_, symObjAddr: 0x764, symBinAddr: 0x13C4, symSize: 0x2A0 }
  - { offset: 0xD7F, size: 0x8, addend: 0x0, symName: __RNCINvNvMs5_Cs4oBEgEuuqV9_15zerocopy_deriveINtBa_16ImplBlockBuilderpE5build8bound_ttINtNtNtNtCs85QQFkKrybG_4core4iter8adapters3map3MapINtNtNtB1t_5slice4iter4IterNtBa_10TraitBoundENCNvBa_16normalize_bounds0EE0Ba_, symObjAddr: 0xA04, symBinAddr: 0x1664, symSize: 0x44 }
  - { offset: 0xDC8, size: 0x8, addend: 0x0, symName: __RNCINvNvMs5_Cs4oBEgEuuqV9_15zerocopy_deriveINtBa_16ImplBlockBuilderpE5build8bound_ttINtNtNtNtCs85QQFkKrybG_4core4iter8adapters6copied6CopiedINtNtNtB1t_5slice4iter4IterNtBa_5TraitEEE0Ba_, symObjAddr: 0xA48, symBinAddr: 0x16A8, symSize: 0x44 }
  - { offset: 0xE42, size: 0x8, addend: 0x0, symName: __RNCNCNCNvMs5_Cs4oBEgEuuqV9_15zerocopy_deriveINtBb_16ImplBlockBuilderNtNtCscwCr4GBBztI_3syn6derive10DataStructE5builds0_000Bb_, symObjAddr: 0xA8C, symBinAddr: 0x16EC, symSize: 0x30 }
  - { offset: 0xE80, size: 0x8, addend: 0x0, symName: __RNCNCNCNvMs5_Cs4oBEgEuuqV9_15zerocopy_deriveINtBb_16ImplBlockBuilderNtNtCscwCr4GBBztI_3syn6derive4DataE5builds0_000Bb_, symObjAddr: 0xABC, symBinAddr: 0x171C, symSize: 0x30 }
  - { offset: 0xEBE, size: 0x8, addend: 0x0, symName: __RNCNCNCNvMs5_Cs4oBEgEuuqV9_15zerocopy_deriveINtBb_16ImplBlockBuilderNtNtCscwCr4GBBztI_3syn6derive8DataEnumE5builds0_000Bb_, symObjAddr: 0xAEC, symBinAddr: 0x174C, symSize: 0x30 }
  - { offset: 0xEFC, size: 0x8, addend: 0x0, symName: __RNCNCNCNvMs5_Cs4oBEgEuuqV9_15zerocopy_deriveINtBb_16ImplBlockBuilderNtNtCscwCr4GBBztI_3syn6derive9DataUnionE5builds0_000Bb_, symObjAddr: 0xB1C, symBinAddr: 0x177C, symSize: 0x30 }
  - { offset: 0xF57, size: 0x8, addend: 0x0, symName: __RNCNCNvMs5_Cs4oBEgEuuqV9_15zerocopy_deriveINtB9_16ImplBlockBuilderNtNtCscwCr4GBBztI_3syn6derive10DataStructE5builds0_00B9_, symObjAddr: 0xC50, symBinAddr: 0x18B0, symSize: 0x1FC }
  - { offset: 0x107E, size: 0x8, addend: 0x0, symName: __RNCNCNvMs5_Cs4oBEgEuuqV9_15zerocopy_deriveINtB9_16ImplBlockBuilderNtNtCscwCr4GBBztI_3syn6derive4DataE5builds0_00B9_, symObjAddr: 0xE4C, symBinAddr: 0x1AAC, symSize: 0x1FC }
  - { offset: 0x11A5, size: 0x8, addend: 0x0, symName: __RNCNCNvMs5_Cs4oBEgEuuqV9_15zerocopy_deriveINtB9_16ImplBlockBuilderNtNtCscwCr4GBBztI_3syn6derive8DataEnumE5builds0_00B9_, symObjAddr: 0x1048, symBinAddr: 0x1CA8, symSize: 0x1FC }
  - { offset: 0x12CC, size: 0x8, addend: 0x0, symName: __RNCNCNvMs5_Cs4oBEgEuuqV9_15zerocopy_deriveINtB9_16ImplBlockBuilderNtNtCscwCr4GBBztI_3syn6derive9DataUnionE5builds0_00B9_, symObjAddr: 0x1244, symBinAddr: 0x1EA4, symSize: 0x1FC }
  - { offset: 0x1410, size: 0x8, addend: 0x0, symName: __RNCNvMs5_Cs4oBEgEuuqV9_15zerocopy_deriveINtB7_16ImplBlockBuilderNtNtCscwCr4GBBztI_3syn6derive10DataStructE5build0B7_, symObjAddr: 0x5A24, symBinAddr: 0x6684, symSize: 0x98 }
  - { offset: 0x14B3, size: 0x8, addend: 0x0, symName: __RNCNvMs5_Cs4oBEgEuuqV9_15zerocopy_deriveINtB7_16ImplBlockBuilderNtNtCscwCr4GBBztI_3syn6derive10DataStructE5builds0_0B7_, symObjAddr: 0x5ABC, symBinAddr: 0x671C, symSize: 0x5E0 }
  - { offset: 0x16FC, size: 0x8, addend: 0x0, symName: __RNCNvMs5_Cs4oBEgEuuqV9_15zerocopy_deriveINtB7_16ImplBlockBuilderNtNtCscwCr4GBBztI_3syn6derive10DataStructE5builds1_0B7_, symObjAddr: 0x609C, symBinAddr: 0x6CFC, symSize: 0x34 }
  - { offset: 0x173E, size: 0x8, addend: 0x0, symName: __RNCNvMs5_Cs4oBEgEuuqV9_15zerocopy_deriveINtB7_16ImplBlockBuilderNtNtCscwCr4GBBztI_3syn6derive10DataStructE5builds2_0B7_, symObjAddr: 0x60D0, symBinAddr: 0x6D30, symSize: 0x1E4 }
  - { offset: 0x17C4, size: 0x8, addend: 0x0, symName: __RNCNvMs5_Cs4oBEgEuuqV9_15zerocopy_deriveINtB7_16ImplBlockBuilderNtNtCscwCr4GBBztI_3syn6derive10DataStructE5builds3_0B7_, symObjAddr: 0x62B4, symBinAddr: 0x6F14, symSize: 0x230 }
  - { offset: 0x18E9, size: 0x8, addend: 0x0, symName: __RNCNvMs5_Cs4oBEgEuuqV9_15zerocopy_deriveINtB7_16ImplBlockBuilderNtNtCscwCr4GBBztI_3syn6derive10DataStructE5builds_0B7_, symObjAddr: 0x64E4, symBinAddr: 0x7144, symSize: 0xB4 }
  - { offset: 0x1932, size: 0x8, addend: 0x0, symName: __RNCNvMs5_Cs4oBEgEuuqV9_15zerocopy_deriveINtB7_16ImplBlockBuilderNtNtCscwCr4GBBztI_3syn6derive4DataE5build0B7_, symObjAddr: 0x6598, symBinAddr: 0x71F8, symSize: 0x98 }
  - { offset: 0x19D5, size: 0x8, addend: 0x0, symName: __RNCNvMs5_Cs4oBEgEuuqV9_15zerocopy_deriveINtB7_16ImplBlockBuilderNtNtCscwCr4GBBztI_3syn6derive4DataE5builds0_0B7_, symObjAddr: 0x6630, symBinAddr: 0x7290, symSize: 0x5E0 }
  - { offset: 0x1C1E, size: 0x8, addend: 0x0, symName: __RNCNvMs5_Cs4oBEgEuuqV9_15zerocopy_deriveINtB7_16ImplBlockBuilderNtNtCscwCr4GBBztI_3syn6derive4DataE5builds1_0B7_, symObjAddr: 0x6C10, symBinAddr: 0x7870, symSize: 0x34 }
  - { offset: 0x1C60, size: 0x8, addend: 0x0, symName: __RNCNvMs5_Cs4oBEgEuuqV9_15zerocopy_deriveINtB7_16ImplBlockBuilderNtNtCscwCr4GBBztI_3syn6derive4DataE5builds2_0B7_, symObjAddr: 0x6C44, symBinAddr: 0x78A4, symSize: 0x1E4 }
  - { offset: 0x1CE6, size: 0x8, addend: 0x0, symName: __RNCNvMs5_Cs4oBEgEuuqV9_15zerocopy_deriveINtB7_16ImplBlockBuilderNtNtCscwCr4GBBztI_3syn6derive4DataE5builds3_0B7_, symObjAddr: 0x6E28, symBinAddr: 0x7A88, symSize: 0x230 }
  - { offset: 0x1E0B, size: 0x8, addend: 0x0, symName: __RNCNvMs5_Cs4oBEgEuuqV9_15zerocopy_deriveINtB7_16ImplBlockBuilderNtNtCscwCr4GBBztI_3syn6derive4DataE5builds_0B7_, symObjAddr: 0x7058, symBinAddr: 0x7CB8, symSize: 0xB4 }
  - { offset: 0x1E54, size: 0x8, addend: 0x0, symName: __RNCNvMs5_Cs4oBEgEuuqV9_15zerocopy_deriveINtB7_16ImplBlockBuilderNtNtCscwCr4GBBztI_3syn6derive8DataEnumE5build0B7_, symObjAddr: 0x710C, symBinAddr: 0x7D6C, symSize: 0x98 }
  - { offset: 0x1EF7, size: 0x8, addend: 0x0, symName: __RNCNvMs5_Cs4oBEgEuuqV9_15zerocopy_deriveINtB7_16ImplBlockBuilderNtNtCscwCr4GBBztI_3syn6derive8DataEnumE5builds0_0B7_, symObjAddr: 0x71A4, symBinAddr: 0x7E04, symSize: 0x5E0 }
  - { offset: 0x2140, size: 0x8, addend: 0x0, symName: __RNCNvMs5_Cs4oBEgEuuqV9_15zerocopy_deriveINtB7_16ImplBlockBuilderNtNtCscwCr4GBBztI_3syn6derive8DataEnumE5builds1_0B7_, symObjAddr: 0x7784, symBinAddr: 0x83E4, symSize: 0x34 }
  - { offset: 0x2182, size: 0x8, addend: 0x0, symName: __RNCNvMs5_Cs4oBEgEuuqV9_15zerocopy_deriveINtB7_16ImplBlockBuilderNtNtCscwCr4GBBztI_3syn6derive8DataEnumE5builds2_0B7_, symObjAddr: 0x77B8, symBinAddr: 0x8418, symSize: 0x1E4 }
  - { offset: 0x2208, size: 0x8, addend: 0x0, symName: __RNCNvMs5_Cs4oBEgEuuqV9_15zerocopy_deriveINtB7_16ImplBlockBuilderNtNtCscwCr4GBBztI_3syn6derive8DataEnumE5builds3_0B7_, symObjAddr: 0x799C, symBinAddr: 0x85FC, symSize: 0x230 }
  - { offset: 0x232D, size: 0x8, addend: 0x0, symName: __RNCNvMs5_Cs4oBEgEuuqV9_15zerocopy_deriveINtB7_16ImplBlockBuilderNtNtCscwCr4GBBztI_3syn6derive8DataEnumE5builds_0B7_, symObjAddr: 0x7BCC, symBinAddr: 0x882C, symSize: 0xB4 }
  - { offset: 0x2376, size: 0x8, addend: 0x0, symName: __RNCNvMs5_Cs4oBEgEuuqV9_15zerocopy_deriveINtB7_16ImplBlockBuilderNtNtCscwCr4GBBztI_3syn6derive9DataUnionE5build0B7_, symObjAddr: 0x7C80, symBinAddr: 0x88E0, symSize: 0x98 }
  - { offset: 0x2419, size: 0x8, addend: 0x0, symName: __RNCNvMs5_Cs4oBEgEuuqV9_15zerocopy_deriveINtB7_16ImplBlockBuilderNtNtCscwCr4GBBztI_3syn6derive9DataUnionE5builds0_0B7_, symObjAddr: 0x7D18, symBinAddr: 0x8978, symSize: 0x5E0 }
  - { offset: 0x2662, size: 0x8, addend: 0x0, symName: __RNCNvMs5_Cs4oBEgEuuqV9_15zerocopy_deriveINtB7_16ImplBlockBuilderNtNtCscwCr4GBBztI_3syn6derive9DataUnionE5builds1_0B7_, symObjAddr: 0x82F8, symBinAddr: 0x8F58, symSize: 0x34 }
  - { offset: 0x26A4, size: 0x8, addend: 0x0, symName: __RNCNvMs5_Cs4oBEgEuuqV9_15zerocopy_deriveINtB7_16ImplBlockBuilderNtNtCscwCr4GBBztI_3syn6derive9DataUnionE5builds2_0B7_, symObjAddr: 0x832C, symBinAddr: 0x8F8C, symSize: 0x1E4 }
  - { offset: 0x272A, size: 0x8, addend: 0x0, symName: __RNCNvMs5_Cs4oBEgEuuqV9_15zerocopy_deriveINtB7_16ImplBlockBuilderNtNtCscwCr4GBBztI_3syn6derive9DataUnionE5builds3_0B7_, symObjAddr: 0x8510, symBinAddr: 0x9170, symSize: 0x230 }
  - { offset: 0x284F, size: 0x8, addend: 0x0, symName: __RNCNvMs5_Cs4oBEgEuuqV9_15zerocopy_deriveINtB7_16ImplBlockBuilderNtNtCscwCr4GBBztI_3syn6derive9DataUnionE5builds_0B7_, symObjAddr: 0x8740, symBinAddr: 0x93A0, symSize: 0xB4 }
  - { offset: 0x28F8, size: 0x8, addend: 0x0, symName: __RNCNCNvCs4oBEgEuuqV9_15zerocopy_derive22extract_zerocopy_crate00B5_, symObjAddr: 0xB4C, symBinAddr: 0x17AC, symSize: 0x34 }
  - { offset: 0x2936, size: 0x8, addend: 0x0, symName: __RNCNvCs4oBEgEuuqV9_15zerocopy_derive22extract_zerocopy_crate0B3_, symObjAddr: 0x15E4, symBinAddr: 0x2244, symSize: 0x5E8 }
  - { offset: 0x29FD, size: 0x8, addend: 0x0, symName: __RNCNCNvCs4oBEgEuuqV9_15zerocopy_derive27derive_try_from_bytes_union00B5_, symObjAddr: 0xB80, symBinAddr: 0x17E0, symSize: 0x38 }
  - { offset: 0x2A32, size: 0x8, addend: 0x0, symName: __RNCNCNvCs4oBEgEuuqV9_15zerocopy_derive27derive_try_from_bytes_union0s_0B5_, symObjAddr: 0xBB8, symBinAddr: 0x1818, symSize: 0x30 }
  - { offset: 0x2A76, size: 0x8, addend: 0x0, symName: __RNCNvCs4oBEgEuuqV9_15zerocopy_derive27derive_try_from_bytes_union0B3_, symObjAddr: 0x3660, symBinAddr: 0x42C0, symSize: 0x11F0 }
  - { offset: 0x2DBE, size: 0x8, addend: 0x0, symName: __RNCNCNvCs4oBEgEuuqV9_15zerocopy_derive28derive_try_from_bytes_struct00B5_, symObjAddr: 0xBE8, symBinAddr: 0x1848, symSize: 0x38 }
  - { offset: 0x2DF3, size: 0x8, addend: 0x0, symName: __RNCNCNvCs4oBEgEuuqV9_15zerocopy_derive28derive_try_from_bytes_struct0s_0B5_, symObjAddr: 0xC20, symBinAddr: 0x1880, symSize: 0x30 }
  - { offset: 0x2E37, size: 0x8, addend: 0x0, symName: __RNCNvCs4oBEgEuuqV9_15zerocopy_derive28derive_try_from_bytes_struct0B3_, symObjAddr: 0x4850, symBinAddr: 0x54B0, symSize: 0x11D4 }
  - { offset: 0x317A, size: 0x8, addend: 0x0, symName: __RNCNvCs4oBEgEuuqV9_15zerocopy_derive15derive_eq_inner0B3_, symObjAddr: 0x1440, symBinAddr: 0x20A0, symSize: 0x14 }
  - { offset: 0x31C0, size: 0x8, addend: 0x0, symName: __RNCNvCs4oBEgEuuqV9_15zerocopy_derive16normalize_bounds0B3_, symObjAddr: 0x1454, symBinAddr: 0x20B4, symSize: 0x84 }
  - { offset: 0x3236, size: 0x8, addend: 0x0, symName: __RNCNvCs4oBEgEuuqV9_15zerocopy_derive17derive_hash_inner0B3_, symObjAddr: 0x14D8, symBinAddr: 0x2138, symSize: 0x14 }
  - { offset: 0x327C, size: 0x8, addend: 0x0, symName: __RNCNvCs4oBEgEuuqV9_15zerocopy_derive22derive_from_zeros_enum0B3_, symObjAddr: 0x14EC, symBinAddr: 0x214C, symSize: 0xF8 }
  - { offset: 0x32EE, size: 0x8, addend: 0x0, symName: __RNCNvCs4oBEgEuuqV9_15zerocopy_derive24derive_into_bytes_struct0B3_, symObjAddr: 0x1BCC, symBinAddr: 0x282C, symSize: 0x68 }
  - { offset: 0x3346, size: 0x8, addend: 0x0, symName: __RNCNvCs4oBEgEuuqV9_15zerocopy_derive25derive_known_layout_inner0B3_, symObjAddr: 0x1C34, symBinAddr: 0x2894, symSize: 0x30 }
  - { offset: 0x3378, size: 0x8, addend: 0x0, symName: __RNCNvCs4oBEgEuuqV9_15zerocopy_derive25derive_known_layout_inners0_0B3_, symObjAddr: 0x1C64, symBinAddr: 0x28C4, symSize: 0x104 }
  - { offset: 0x33BB, size: 0x8, addend: 0x0, symName: __RNCNvCs4oBEgEuuqV9_15zerocopy_derive25derive_known_layout_inners1_0B3_, symObjAddr: 0x1D68, symBinAddr: 0x29C8, symSize: 0x1AC }
  - { offset: 0x343E, size: 0x8, addend: 0x0, symName: __RNCNvCs4oBEgEuuqV9_15zerocopy_derive25derive_known_layout_inners2_0B3_, symObjAddr: 0x1F14, symBinAddr: 0x2B74, symSize: 0x104 }
  - { offset: 0x3481, size: 0x8, addend: 0x0, symName: __RNCNvCs4oBEgEuuqV9_15zerocopy_derive25derive_known_layout_inners3_0B3_, symObjAddr: 0x2018, symBinAddr: 0x2C78, symSize: 0xD64 }
  - { offset: 0x35DB, size: 0x8, addend: 0x0, symName: __RNCNvCs4oBEgEuuqV9_15zerocopy_derive25derive_known_layout_inners4_0B3_, symObjAddr: 0x2D7C, symBinAddr: 0x39DC, symSize: 0xFC }
  - { offset: 0x3658, size: 0x8, addend: 0x0, symName: __RNCNvCs4oBEgEuuqV9_15zerocopy_derive25derive_known_layout_inners5_0B3_, symObjAddr: 0x2E78, symBinAddr: 0x3AD8, symSize: 0x58 }
  - { offset: 0x36CA, size: 0x8, addend: 0x0, symName: __RNCNvCs4oBEgEuuqV9_15zerocopy_derive25derive_known_layout_inners6_0B3_, symObjAddr: 0x2ED0, symBinAddr: 0x3B30, symSize: 0x1C8 }
  - { offset: 0x3769, size: 0x8, addend: 0x0, symName: __RNCNvCs4oBEgEuuqV9_15zerocopy_derive25derive_known_layout_inners7_0B3_, symObjAddr: 0x3098, symBinAddr: 0x3CF8, symSize: 0x2B4 }
  - { offset: 0x3847, size: 0x8, addend: 0x0, symName: __RNCNvCs4oBEgEuuqV9_15zerocopy_derive25derive_known_layout_inners8_0B3_, symObjAddr: 0x334C, symBinAddr: 0x3FAC, symSize: 0x58 }
  - { offset: 0x38B9, size: 0x8, addend: 0x0, symName: __RNCNvCs4oBEgEuuqV9_15zerocopy_derive25derive_known_layout_inners_0B3_, symObjAddr: 0x33A4, symBinAddr: 0x4004, symSize: 0x1B0 }
  - { offset: 0x39C8, size: 0x8, addend: 0x0, symName: __RNCNvCs4oBEgEuuqV9_15zerocopy_derive26derive_try_from_bytes_enum0B3_, symObjAddr: 0x3554, symBinAddr: 0x41B4, symSize: 0x10C }
  - { offset: 0x3A08, size: 0x8, addend: 0x0, symName: __RNvCs4oBEgEuuqV9_15zerocopy_derive11derive_hash, symObjAddr: 0x87F4, symBinAddr: 0x9454, symSize: 0x2B0 }
  - { offset: 0x3AC8, size: 0x8, addend: 0x0, symName: __RNvCs4oBEgEuuqV9_15zerocopy_derive14derive_no_cell, symObjAddr: 0x8AA4, symBinAddr: 0x9704, symSize: 0x2B0 }
  - { offset: 0x3B88, size: 0x8, addend: 0x0, symName: __RNvCs4oBEgEuuqV9_15zerocopy_derive15derive_as_bytes, symObjAddr: 0x8D54, symBinAddr: 0x99B4, symSize: 0x30 }
  - { offset: 0x3BB4, size: 0x8, addend: 0x0, symName: __RNvCs4oBEgEuuqV9_15zerocopy_derive15derive_eq_inner, symObjAddr: 0x8D84, symBinAddr: 0x99E4, symSize: 0xC90 }
  - { offset: 0x3D9E, size: 0x8, addend: 0x0, symName: __RNvCs4oBEgEuuqV9_15zerocopy_derive15derive_split_at, symObjAddr: 0x9A14, symBinAddr: 0xA674, symSize: 0x2B0 }
  - { offset: 0x3E5E, size: 0x8, addend: 0x0, symName: __RNvCs4oBEgEuuqV9_15zerocopy_derive16derive_unaligned, symObjAddr: 0x9CC4, symBinAddr: 0xA924, symSize: 0x2B0 }
  - { offset: 0x3F1E, size: 0x8, addend: 0x0, symName: __RNvCs4oBEgEuuqV9_15zerocopy_derive16normalize_bounds, symObjAddr: 0x9F74, symBinAddr: 0xABD4, symSize: 0x5C }
  - { offset: 0x3F5B, size: 0x8, addend: 0x0, symName: __RNvCs4oBEgEuuqV9_15zerocopy_derive17derive_from_bytes, symObjAddr: 0x9FD0, symBinAddr: 0xAC30, symSize: 0x2B0 }
  - { offset: 0x401B, size: 0x8, addend: 0x0, symName: __RNvCs4oBEgEuuqV9_15zerocopy_derive17derive_from_zeros, symObjAddr: 0xA280, symBinAddr: 0xAEE0, symSize: 0x2B0 }
  - { offset: 0x40DB, size: 0x8, addend: 0x0, symName: __RNvCs4oBEgEuuqV9_15zerocopy_derive17derive_hash_inner, symObjAddr: 0xA530, symBinAddr: 0xB190, symSize: 0xF1C }
  - { offset: 0x42DC, size: 0x8, addend: 0x0, symName: __RNvCs4oBEgEuuqV9_15zerocopy_derive17derive_into_bytes, symObjAddr: 0xB44C, symBinAddr: 0xC0AC, symSize: 0x2B0 }
  - { offset: 0x439C, size: 0x8, addend: 0x0, symName: __RNvCs4oBEgEuuqV9_15zerocopy_derive17find_zero_variant, symObjAddr: 0xB6FC, symBinAddr: 0xC35C, symSize: 0x700 }
  - { offset: 0x44A6, size: 0x8, addend: 0x0, symName: __RNvCs4oBEgEuuqV9_15zerocopy_derive18derive_from_zeroes, symObjAddr: 0xBDFC, symBinAddr: 0xCA5C, symSize: 0x30 }
  - { offset: 0x44D2, size: 0x8, addend: 0x0, symName: __RNvCs4oBEgEuuqV9_15zerocopy_derive19derive_known_layout, symObjAddr: 0xBE2C, symBinAddr: 0xCA8C, symSize: 0x2B0 }
  - { offset: 0x4592, size: 0x8, addend: 0x0, symName: __RNvCs4oBEgEuuqV9_15zerocopy_derive19enum_size_from_repr, symObjAddr: 0xC0DC, symBinAddr: 0xCD3C, symSize: 0x1C4 }
  - { offset: 0x461A, size: 0x8, addend: 0x0, symName: __RNvCs4oBEgEuuqV9_15zerocopy_derive20derive_no_cell_inner, symObjAddr: 0xC2A0, symBinAddr: 0xCF00, symSize: 0x1AC }
  - { offset: 0x46BD, size: 0x8, addend: 0x0, symName: __RNvCs4oBEgEuuqV9_15zerocopy_derive21derive_split_at_inner, symObjAddr: 0xC44C, symBinAddr: 0xD0AC, symSize: 0x558 }
  - { offset: 0x47BC, size: 0x8, addend: 0x0, symName: __RNvCs4oBEgEuuqV9_15zerocopy_derive21derive_try_from_bytes, symObjAddr: 0xC9A4, symBinAddr: 0xD604, symSize: 0x2B0 }
  - { offset: 0x487C, size: 0x8, addend: 0x0, symName: __RNvCs4oBEgEuuqV9_15zerocopy_derive21derive_unaligned_enum, symObjAddr: 0xCC54, symBinAddr: 0xD8B4, symSize: 0x23C }
  - { offset: 0x493E, size: 0x8, addend: 0x0, symName: __RNvCs4oBEgEuuqV9_15zerocopy_derive22derive_from_bytes_enum, symObjAddr: 0xCE90, symBinAddr: 0xDAF0, symSize: 0x2D8 }
  - { offset: 0x4A74, size: 0x8, addend: 0x0, symName: __RNvCs4oBEgEuuqV9_15zerocopy_derive22derive_from_zeros_enum, symObjAddr: 0xD168, symBinAddr: 0xDDC8, symSize: 0x390 }
  - { offset: 0x4B6A, size: 0x8, addend: 0x0, symName: __RNvCs4oBEgEuuqV9_15zerocopy_derive22derive_into_bytes_enum, symObjAddr: 0xD4F8, symBinAddr: 0xE158, symSize: 0x250 }
  - { offset: 0x4C24, size: 0x8, addend: 0x0, symName: __RNvCs4oBEgEuuqV9_15zerocopy_derive22derive_unaligned_inner, symObjAddr: 0xD748, symBinAddr: 0xE3A8, symSize: 0x100 }
  - { offset: 0x4CC2, size: 0x8, addend: 0x0, symName: __RNvCs4oBEgEuuqV9_15zerocopy_derive22derive_unaligned_union, symObjAddr: 0xD848, symBinAddr: 0xE4A8, symSize: 0x290 }
  - { offset: 0x4DA1, size: 0x8, addend: 0x0, symName: __RNvCs4oBEgEuuqV9_15zerocopy_derive22extract_zerocopy_crate, symObjAddr: 0xDAD8, symBinAddr: 0xE738, symSize: 0x2C8 }
  - { offset: 0x4E58, size: 0x8, addend: 0x0, symName: __RNvCs4oBEgEuuqV9_15zerocopy_derive23derive_from_bytes_inner, symObjAddr: 0xDDA0, symBinAddr: 0xEA00, symSize: 0x310 }
  - { offset: 0x4F91, size: 0x8, addend: 0x0, symName: __RNvCs4oBEgEuuqV9_15zerocopy_derive23derive_from_bytes_union, symObjAddr: 0xE0B0, symBinAddr: 0xED10, symSize: 0x8C }
  - { offset: 0x4FF3, size: 0x8, addend: 0x0, symName: __RNvCs4oBEgEuuqV9_15zerocopy_derive23derive_from_zeros_inner, symObjAddr: 0xE13C, symBinAddr: 0xED9C, symSize: 0x310 }
  - { offset: 0x512C, size: 0x8, addend: 0x0, symName: __RNvCs4oBEgEuuqV9_15zerocopy_derive23derive_from_zeros_union, symObjAddr: 0xE44C, symBinAddr: 0xF0AC, symSize: 0x8C }
  - { offset: 0x518E, size: 0x8, addend: 0x0, symName: __RNvCs4oBEgEuuqV9_15zerocopy_derive23derive_into_bytes_inner, symObjAddr: 0xE4D8, symBinAddr: 0xF138, symSize: 0x100 }
  - { offset: 0x522C, size: 0x8, addend: 0x0, symName: __RNvCs4oBEgEuuqV9_15zerocopy_derive23derive_into_bytes_union, symObjAddr: 0xE5D8, symBinAddr: 0xF238, symSize: 0x750 }
  - { offset: 0x53B6, size: 0x8, addend: 0x0, symName: __RNvCs4oBEgEuuqV9_15zerocopy_derive23derive_unaligned_struct, symObjAddr: 0xED28, symBinAddr: 0xF988, symSize: 0x290 }
  - { offset: 0x5495, size: 0x8, addend: 0x0, symName: __RNvCs4oBEgEuuqV9_15zerocopy_derive24derive_from_bytes_struct, symObjAddr: 0xEFB8, symBinAddr: 0xFC18, symSize: 0x88 }
  - { offset: 0x54E2, size: 0x8, addend: 0x0, symName: __RNvCs4oBEgEuuqV9_15zerocopy_derive24derive_from_zeros_struct, symObjAddr: 0xF040, symBinAddr: 0xFCA0, symSize: 0x88 }
  - { offset: 0x552F, size: 0x8, addend: 0x0, symName: __RNvCs4oBEgEuuqV9_15zerocopy_derive24derive_into_bytes_struct, symObjAddr: 0xF0C8, symBinAddr: 0xFD28, symSize: 0x5D8 }
  - { offset: 0x5686, size: 0x8, addend: 0x0, symName: __RNvCs4oBEgEuuqV9_15zerocopy_derive25derive_known_layout_inner, symObjAddr: 0xF6A0, symBinAddr: 0x10300, symSize: 0x3400 }
  - { offset: 0x60F6, size: 0x8, addend: 0x0, symName: __RNvCs4oBEgEuuqV9_15zerocopy_derive26derive_try_from_bytes_enum, symObjAddr: 0x12AA0, symBinAddr: 0x13700, symSize: 0x360 }
  - { offset: 0x624C, size: 0x8, addend: 0x0, symName: __RNvCs4oBEgEuuqV9_15zerocopy_derive27derive_try_from_bytes_inner, symObjAddr: 0x12E00, symBinAddr: 0x13A60, symSize: 0x124 }
  - { offset: 0x62EA, size: 0x8, addend: 0x0, symName: __RNvCs4oBEgEuuqV9_15zerocopy_derive27derive_try_from_bytes_union, symObjAddr: 0x12F24, symBinAddr: 0x13B84, symSize: 0x18C }
  - { offset: 0x6372, size: 0x8, addend: 0x0, symName: __RNvCs4oBEgEuuqV9_15zerocopy_derive28derive_try_from_bytes_struct, symObjAddr: 0x130B0, symBinAddr: 0x13D10, symSize: 0x164 }
  - { offset: 0x63E7, size: 0x8, addend: 0x0, symName: __RNvCs4oBEgEuuqV9_15zerocopy_derive28try_gen_trivial_is_bit_valid, symObjAddr: 0x13214, symBinAddr: 0x13E74, symSize: 0x830 }
  - { offset: 0x648F, size: 0x8, addend: 0x0, symName: __RNvCs4oBEgEuuqV9_15zerocopy_derive34gen_trivial_is_bit_valid_unchecked, symObjAddr: 0x13A44, symBinAddr: 0x146A4, symSize: 0x428 }
  - { offset: 0x6500, size: 0x8, addend: 0x0, symName: __RNvCs4oBEgEuuqV9_15zerocopy_derive9derive_eq, symObjAddr: 0x13E6C, symBinAddr: 0x14ACC, symSize: 0x2B0 }
  - { offset: 0x66B9, size: 0x8, addend: 0x0, symName: __RNvXs1_Cs4oBEgEuuqV9_15zerocopy_deriveNtB5_5TraitNtNtCshi3DZH3dfhk_5quote9to_tokens8ToTokens9to_tokens, symObjAddr: 0x19C10, symBinAddr: 0x1A870, symSize: 0x294 }
  - { offset: 0x6734, size: 0x8, addend: 0x0, symName: __RNvXsc_Cs4oBEgEuuqV9_15zerocopy_deriveNtB5_5TraitNtNtCs85QQFkKrybG_4core3cmp9PartialEq2eqB5_, symObjAddr: 0x1A050, symBinAddr: 0x1ACB0, symSize: 0x34 }
  - { offset: 0x67B3, size: 0x8, addend: 0x0, symName: __RNvXsk_Cs4oBEgEuuqV9_15zerocopy_deriveNtB5_10SelfBoundsNtNtCs85QQFkKrybG_4core3cmp9PartialEq2eqB5_, symObjAddr: 0x1A084, symBinAddr: 0x1ACE4, symSize: 0xCC }
  - { offset: 0x9AD2, size: 0x8, addend: 0x0, symName: __RNvMNtCs85QQFkKrybG_4core5sliceSNtCs4oBEgEuuqV9_15zerocopy_derive10TraitBound4iterBw_, symObjAddr: 0x1411C, symBinAddr: 0x14D7C, symSize: 0x28 }
  - { offset: 0x9B09, size: 0x8, addend: 0x0, symName: __RNvMNtCs85QQFkKrybG_4core5sliceSNtCs4oBEgEuuqV9_15zerocopy_derive5Trait4iterBw_, symObjAddr: 0x14144, symBinAddr: 0x14DA4, symSize: 0x28 }
  - { offset: 0x9B4B, size: 0x8, addend: 0x0, symName: __RNvXNtNtCs85QQFkKrybG_4core5slice3cmpSNtCs4oBEgEuuqV9_15zerocopy_derive5TraitNtNtB6_3cmp9PartialEq2eqBC_, symObjAddr: 0x19BDC, symBinAddr: 0x1A83C, symSize: 0x34 }
  - { offset: 0x9B9D, size: 0x8, addend: 0x0, symName: __RNvXs2_NtNtCs85QQFkKrybG_4core5slice3cmpSNtCs4oBEgEuuqV9_15zerocopy_derive5TraitINtB5_14SlicePartialEqBD_E5equalBF_, symObjAddr: 0x19EB8, symBinAddr: 0x1AB18, symSize: 0x120 }
  - { offset: 0x9D8B, size: 0x8, addend: 0x0, symName: __RNvXs1_NtCs85QQFkKrybG_4core7convertNtCs4oBEgEuuqV9_15zerocopy_derive12PaddingCheckINtB5_4IntoINtNtB7_6option6OptionBy_EE4intoBA_, symObjAddr: 0x19EA4, symBinAddr: 0x1AB04, symSize: 0x14 }
  - { offset: 0x9DE7, size: 0x8, addend: 0x0, symName: __RNvXs7_NtNtCs85QQFkKrybG_4core3cmp5implsRRSNtCs4oBEgEuuqV9_15zerocopy_derive5TraitNtB7_9PartialEq2eqBH_, symObjAddr: 0x19FD8, symBinAddr: 0x1AC38, symSize: 0x34 }
  - { offset: 0x9E36, size: 0x8, addend: 0x0, symName: __RNvXs7_NtNtCs85QQFkKrybG_4core3cmp5implsRSNtCs4oBEgEuuqV9_15zerocopy_derive5TraitNtB7_9PartialEq2eqBG_, symObjAddr: 0x1A00C, symBinAddr: 0x1AC6C, symSize: 0x44 }
  - { offset: 0x9E8C, size: 0x8, addend: 0x0, symName: __RNvYNtCs4oBEgEuuqV9_15zerocopy_derive5TraitNtNtCs85QQFkKrybG_4core3cmp9PartialEq2neB4_, symObjAddr: 0x1A150, symBinAddr: 0x1ADB0, symSize: 0x30 }
  - { offset: 0x117A3, size: 0x8, addend: 0x0, symName: __RINvMs5_Cs4oBEgEuuqV9_15zerocopy_deriveINtB6_16ImplBlockBuilderNtNtCscwCr4GBBztI_3syn6derive10DataStructE12outer_extrasINtNtCs85QQFkKrybG_4core6option6OptionNtCsfwj6t2KTYdc_11proc_macro211TokenStreamEEB6_, symObjAddr: 0x0, symBinAddr: 0xC60, symSize: 0xCC }
  - { offset: 0x117E9, size: 0x8, addend: 0x0, symName: __RINvMs5_Cs4oBEgEuuqV9_15zerocopy_deriveINtB6_16ImplBlockBuilderNtNtCscwCr4GBBztI_3syn6derive10DataStructE13padding_checkINtNtCs85QQFkKrybG_4core6option6OptionNtB6_12PaddingCheckEEB6_, symObjAddr: 0xCC, symBinAddr: 0xD2C, symSize: 0xCC }
  - { offset: 0x1183C, size: 0x8, addend: 0x0, symName: __RINvMs5_Cs4oBEgEuuqV9_15zerocopy_deriveINtB6_16ImplBlockBuilderNtNtCscwCr4GBBztI_3syn6derive8DataEnumE12outer_extrasINtNtCs85QQFkKrybG_4core6option6OptionNtCsfwj6t2KTYdc_11proc_macro211TokenStreamEEB6_, symObjAddr: 0x198, symBinAddr: 0xDF8, symSize: 0xCC }
  - { offset: 0x11882, size: 0x8, addend: 0x0, symName: __RINvMs5_Cs4oBEgEuuqV9_15zerocopy_deriveINtB6_16ImplBlockBuilderNtNtCscwCr4GBBztI_3syn6derive8DataEnumE13padding_checkNtB6_12PaddingCheckEB6_, symObjAddr: 0x264, symBinAddr: 0xEC4, symSize: 0xCC }
  - { offset: 0x118D5, size: 0x8, addend: 0x0, symName: __RINvMs5_Cs4oBEgEuuqV9_15zerocopy_deriveINtB6_16ImplBlockBuilderNtNtCscwCr4GBBztI_3syn6derive9DataUnionE12outer_extrasINtNtCs85QQFkKrybG_4core6option6OptionNtCsfwj6t2KTYdc_11proc_macro211TokenStreamEEB6_, symObjAddr: 0x330, symBinAddr: 0xF90, symSize: 0xCC }
  - { offset: 0x1191B, size: 0x8, addend: 0x0, symName: __RINvMs5_Cs4oBEgEuuqV9_15zerocopy_deriveINtB6_16ImplBlockBuilderNtNtCscwCr4GBBztI_3syn6derive9DataUnionE13padding_checkNtB6_12PaddingCheckEB6_, symObjAddr: 0x3FC, symBinAddr: 0x105C, symSize: 0xCC }
  - { offset: 0x119DE, size: 0x8, addend: 0x0, symName: __RNvMs0_Cs4oBEgEuuqV9_15zerocopy_deriveNtB5_12PaddingCheck23validator_macro_context, symObjAddr: 0x1416C, symBinAddr: 0x14DCC, symSize: 0x8C }
  - { offset: 0x11A3D, size: 0x8, addend: 0x0, symName: __RNvMs0_Cs4oBEgEuuqV9_15zerocopy_deriveNtB5_12PaddingCheck32validator_trait_and_macro_idents, symObjAddr: 0x141F8, symBinAddr: 0x14E58, symSize: 0x244 }
  - { offset: 0x11AD1, size: 0x8, addend: 0x0, symName: __RNvMs2_Cs4oBEgEuuqV9_15zerocopy_deriveNtB5_5Trait10crate_path, symObjAddr: 0x1443C, symBinAddr: 0x1509C, symSize: 0x200 }
  - { offset: 0x11B30, size: 0x8, addend: 0x0, symName: __RNvMs5_Cs4oBEgEuuqV9_15zerocopy_deriveINtB5_16ImplBlockBuilderNtNtCscwCr4GBBztI_3syn6derive10DataStructE12inner_extrasB5_, symObjAddr: 0x1463C, symBinAddr: 0x1529C, symSize: 0xA4 }
  - { offset: 0x11B6D, size: 0x8, addend: 0x0, symName: __RNvMs5_Cs4oBEgEuuqV9_15zerocopy_deriveINtB5_16ImplBlockBuilderNtNtCscwCr4GBBztI_3syn6derive10DataStructE22self_type_trait_boundsB5_, symObjAddr: 0x146E0, symBinAddr: 0x15340, symSize: 0x60 }
  - { offset: 0x11BA9, size: 0x8, addend: 0x0, symName: __RNvMs5_Cs4oBEgEuuqV9_15zerocopy_deriveINtB5_16ImplBlockBuilderNtNtCscwCr4GBBztI_3syn6derive10DataStructE3newB5_, symObjAddr: 0x14740, symBinAddr: 0x153A0, symSize: 0xA8 }
  - { offset: 0x11C15, size: 0x8, addend: 0x0, symName: __RNvMs5_Cs4oBEgEuuqV9_15zerocopy_deriveINtB5_16ImplBlockBuilderNtNtCscwCr4GBBztI_3syn6derive10DataStructE5buildB5_, symObjAddr: 0x147E8, symBinAddr: 0x15448, symSize: 0x13C4 }
  - { offset: 0x120AB, size: 0x8, addend: 0x0, symName: __RNvMs5_Cs4oBEgEuuqV9_15zerocopy_deriveINtB5_16ImplBlockBuilderNtNtCscwCr4GBBztI_3syn6derive4DataE12inner_extrasB5_, symObjAddr: 0x15BAC, symBinAddr: 0x1680C, symSize: 0xA4 }
  - { offset: 0x120E8, size: 0x8, addend: 0x0, symName: __RNvMs5_Cs4oBEgEuuqV9_15zerocopy_deriveINtB5_16ImplBlockBuilderNtNtCscwCr4GBBztI_3syn6derive4DataE3newB5_, symObjAddr: 0x15C50, symBinAddr: 0x168B0, symSize: 0xA8 }
  - { offset: 0x12154, size: 0x8, addend: 0x0, symName: __RNvMs5_Cs4oBEgEuuqV9_15zerocopy_deriveINtB5_16ImplBlockBuilderNtNtCscwCr4GBBztI_3syn6derive4DataE5buildB5_, symObjAddr: 0x15CF8, symBinAddr: 0x16958, symSize: 0x13C4 }
  - { offset: 0x125DD, size: 0x8, addend: 0x0, symName: __RNvMs5_Cs4oBEgEuuqV9_15zerocopy_deriveINtB5_16ImplBlockBuilderNtNtCscwCr4GBBztI_3syn6derive8DataEnumE12inner_extrasB5_, symObjAddr: 0x170BC, symBinAddr: 0x17D1C, symSize: 0xA4 }
  - { offset: 0x1261A, size: 0x8, addend: 0x0, symName: __RNvMs5_Cs4oBEgEuuqV9_15zerocopy_deriveINtB5_16ImplBlockBuilderNtNtCscwCr4GBBztI_3syn6derive8DataEnumE22self_type_trait_boundsB5_, symObjAddr: 0x17160, symBinAddr: 0x17DC0, symSize: 0x60 }
  - { offset: 0x12656, size: 0x8, addend: 0x0, symName: __RNvMs5_Cs4oBEgEuuqV9_15zerocopy_deriveINtB5_16ImplBlockBuilderNtNtCscwCr4GBBztI_3syn6derive8DataEnumE3newB5_, symObjAddr: 0x171C0, symBinAddr: 0x17E20, symSize: 0xA8 }
  - { offset: 0x126C2, size: 0x8, addend: 0x0, symName: __RNvMs5_Cs4oBEgEuuqV9_15zerocopy_deriveINtB5_16ImplBlockBuilderNtNtCscwCr4GBBztI_3syn6derive8DataEnumE5buildB5_, symObjAddr: 0x17268, symBinAddr: 0x17EC8, symSize: 0x13C4 }
  - { offset: 0x12B4B, size: 0x8, addend: 0x0, symName: __RNvMs5_Cs4oBEgEuuqV9_15zerocopy_deriveINtB5_16ImplBlockBuilderNtNtCscwCr4GBBztI_3syn6derive9DataUnionE12inner_extrasB5_, symObjAddr: 0x1862C, symBinAddr: 0x1928C, symSize: 0xA4 }
  - { offset: 0x12B88, size: 0x8, addend: 0x0, symName: __RNvMs5_Cs4oBEgEuuqV9_15zerocopy_deriveINtB5_16ImplBlockBuilderNtNtCscwCr4GBBztI_3syn6derive9DataUnionE22self_type_trait_boundsB5_, symObjAddr: 0x186D0, symBinAddr: 0x19330, symSize: 0x60 }
  - { offset: 0x12BC4, size: 0x8, addend: 0x0, symName: __RNvMs5_Cs4oBEgEuuqV9_15zerocopy_deriveINtB5_16ImplBlockBuilderNtNtCscwCr4GBBztI_3syn6derive9DataUnionE3newB5_, symObjAddr: 0x18730, symBinAddr: 0x19390, symSize: 0xA8 }
  - { offset: 0x12C30, size: 0x8, addend: 0x0, symName: __RNvMs5_Cs4oBEgEuuqV9_15zerocopy_deriveINtB5_16ImplBlockBuilderNtNtCscwCr4GBBztI_3syn6derive9DataUnionE5buildB5_, symObjAddr: 0x187D8, symBinAddr: 0x19438, symSize: 0x13C4 }
  - { offset: 0x130C8, size: 0x8, addend: 0x0, symName: __RNvXNtCshi3DZH3dfhk_5quote9to_tokensRNtCs4oBEgEuuqV9_15zerocopy_derive5TraitNtB2_8ToTokens9to_tokensBB_, symObjAddr: 0x19B9C, symBinAddr: 0x1A7FC, symSize: 0x40 }
  - { offset: 0x1385B, size: 0x8, addend: 0x0, symName: __RINvNtCs4oBEgEuuqV9_15zerocopy_derive4repr18try_from_raw_reprsNtB2_20UnsupportedReprErrorINtB2_12CompoundReprNtB2_13PrimitiveReprEINtNtNtCs85QQFkKrybG_4core5slice4iter4IterINtNtB2_4util7SpannedNtB2_7RawReprEEEB4_, symObjAddr: 0x0, symBinAddr: 0x1ADE0, symSize: 0x80 }
  - { offset: 0x138C6, size: 0x8, addend: 0x0, symName: __RINvNtCs4oBEgEuuqV9_15zerocopy_derive4repr18try_from_raw_reprsNtB2_20UnsupportedReprErrorINtB2_12CompoundReprNtB2_13PrimitiveReprEINtNtNtCs85QQFkKrybG_4core5slice4iter4IterINtNtB2_4util7SpannedNtB2_7RawReprEEEB4_, symObjAddr: 0x0, symBinAddr: 0x1ADE0, symSize: 0x80 }
  - { offset: 0x1390F, size: 0x8, addend: 0x0, symName: __RINvNtCs4oBEgEuuqV9_15zerocopy_derive4repr18try_from_raw_reprsNtB2_20UnsupportedReprErrorINtB2_12CompoundReprNtNtCs85QQFkKrybG_4core7convert10InfallibleEINtNtNtB1N_5slice4iter4IterINtNtB2_4util7SpannedNtB2_7RawReprEEEB4_, symObjAddr: 0x80, symBinAddr: 0x1AE60, symSize: 0x80 }
  - { offset: 0x13958, size: 0x8, addend: 0x0, symName: __RINvNtCs4oBEgEuuqV9_15zerocopy_derive4repr18try_from_raw_reprsNtB2_20UnsupportedReprErrorINtB2_9AlignReprINtNtNtCs85QQFkKrybG_4core3num7nonzero7NonZeromEEINtNtNtB1M_5slice4iter4IterINtNtB2_4util7SpannedNtB2_7RawReprEEEB4_, symObjAddr: 0x100, symBinAddr: 0x1AEE0, symSize: 0x80 }
  - { offset: 0x139A1, size: 0x8, addend: 0x0, symName: __RINvNtCs4oBEgEuuqV9_15zerocopy_derive4repr18try_from_raw_reprsNtB2_20UnsupportedReprErrorINtB2_9AlignReprNtNtCs85QQFkKrybG_4core7convert10InfallibleEINtNtNtB1J_5slice4iter4IterINtNtB2_4util7SpannedNtB2_7RawReprEEEB4_, symObjAddr: 0x180, symBinAddr: 0x1AF60, symSize: 0x7C }
  - { offset: 0x139F4, size: 0x8, addend: 0x0, symName: __RINvXs1_NtNtCs4oBEgEuuqV9_15zerocopy_derive4repr4utilNtB8_13PrimitiveReprINtB6_4WithBP_E11try_with_orNtB8_20UnsupportedReprErrorNCNvXs5_B8_INtB8_12CompoundReprBP_EINtNtCs85QQFkKrybG_4core7convert7TryFromNtB8_7RawReprE8try_from0EBa_, symObjAddr: 0x1FC, symBinAddr: 0x1AFDC, symSize: 0x58 }
  - { offset: 0x13A4C, size: 0x8, addend: 0x0, symName: __RINvXs1_NtNtCs4oBEgEuuqV9_15zerocopy_derive4repr4utilNtB8_13PrimitiveReprINtB6_4WithBP_E4withReNCNvMB8_INtB8_4ReprBP_NtNtCs85QQFkKrybG_4core7convert10InfallibleE14repr_type_name0EBa_, symObjAddr: 0x254, symBinAddr: 0x1B034, symSize: 0x30 }
  - { offset: 0x13AA4, size: 0x8, addend: 0x0, symName: __RINvXs1_NtNtCs4oBEgEuuqV9_15zerocopy_derive4repr4utilNtB8_13PrimitiveReprINtB6_4WithBP_E4withuNCNvXs2_B8_INtB6_7SpannedINtB8_12CompoundReprBP_EENtNtCshi3DZH3dfhk_5quote9to_tokens8ToTokens9to_tokens0EBa_, symObjAddr: 0x284, symBinAddr: 0x1B064, symSize: 0x50 }
  - { offset: 0x13C79, size: 0x8, addend: 0x0, symName: __RNCINvNtCs4oBEgEuuqV9_15zerocopy_derive4repr18try_from_raw_reprsNtB4_20UnsupportedReprErrorINtB4_12CompoundReprNtB4_13PrimitiveReprEINtNtNtCs85QQFkKrybG_4core5slice4iter4IterINtNtB4_4util7SpannedNtB4_7RawReprEEE0B6_, symObjAddr: 0x1760, symBinAddr: 0x1C540, symSize: 0x320 }
  - { offset: 0x13D73, size: 0x8, addend: 0x0, symName: __RNCINvNtCs4oBEgEuuqV9_15zerocopy_derive4repr18try_from_raw_reprsNtB4_20UnsupportedReprErrorINtB4_12CompoundReprNtNtCs85QQFkKrybG_4core7convert10InfallibleEINtNtNtB1P_5slice4iter4IterINtNtB4_4util7SpannedNtB4_7RawReprEEE0B6_, symObjAddr: 0x1A80, symBinAddr: 0x1C860, symSize: 0x334 }
  - { offset: 0x13E6D, size: 0x8, addend: 0x0, symName: __RNCINvNtCs4oBEgEuuqV9_15zerocopy_derive4repr18try_from_raw_reprsNtB4_20UnsupportedReprErrorINtB4_9AlignReprINtNtNtCs85QQFkKrybG_4core3num7nonzero7NonZeromEEINtNtNtB1O_5slice4iter4IterINtNtB4_4util7SpannedNtB4_7RawReprEEE0B6_, symObjAddr: 0x1DB4, symBinAddr: 0x1CB94, symSize: 0x364 }
  - { offset: 0x13F69, size: 0x8, addend: 0x0, symName: __RNCINvNtCs4oBEgEuuqV9_15zerocopy_derive4repr18try_from_raw_reprsNtB4_20UnsupportedReprErrorINtB4_9AlignReprNtNtCs85QQFkKrybG_4core7convert10InfallibleEINtNtNtB1L_5slice4iter4IterINtNtB4_4util7SpannedNtB4_7RawReprEEE0B6_, symObjAddr: 0x2118, symBinAddr: 0x1CEF8, symSize: 0x324 }
  - { offset: 0x1408F, size: 0x8, addend: 0x0, symName: __RNCNCNvMsc_NtCs4oBEgEuuqV9_15zerocopy_derive4reprNtB9_7RawRepr9from_meta00Bb_, symObjAddr: 0x243C, symBinAddr: 0x1D21C, symSize: 0x6C }
  - { offset: 0x140C8, size: 0x8, addend: 0x0, symName: __RNCNCNvMsc_NtCs4oBEgEuuqV9_15zerocopy_derive4reprNtB9_7RawRepr9from_meta0s0_0Bb_, symObjAddr: 0x24A8, symBinAddr: 0x1D288, symSize: 0x84 }
  - { offset: 0x1413D, size: 0x8, addend: 0x0, symName: __RNCNCNvMsc_NtCs4oBEgEuuqV9_15zerocopy_derive4reprNtB9_7RawRepr9from_meta0s_0Bb_, symObjAddr: 0x252C, symBinAddr: 0x1D30C, symSize: 0x1C }
  - { offset: 0x14185, size: 0x8, addend: 0x0, symName: __RNCNvMsc_NtCs4oBEgEuuqV9_15zerocopy_derive4reprNtB7_7RawRepr9from_meta0B9_, symObjAddr: 0x2A08, symBinAddr: 0x1D7E8, symSize: 0x64 }
  - { offset: 0x141CB, size: 0x8, addend: 0x0, symName: __RNCNvMsc_NtCs4oBEgEuuqV9_15zerocopy_derive4reprNtB7_7RawRepr10from_attrs0B9_, symObjAddr: 0x2984, symBinAddr: 0x1D764, symSize: 0x4C }
  - { offset: 0x1420A, size: 0x8, addend: 0x0, symName: __RNCNvMsc_NtCs4oBEgEuuqV9_15zerocopy_derive4reprNtB7_7RawRepr10from_attrss_0B9_, symObjAddr: 0x29D0, symBinAddr: 0x1D7B0, symSize: 0x38 }
  - { offset: 0x14261, size: 0x8, addend: 0x0, symName: __RNCNvMNtCs4oBEgEuuqV9_15zerocopy_derive4reprINtB4_4ReprNtB4_13PrimitiveReprNtNtCs85QQFkKrybG_4core7convert10InfallibleE14repr_type_name0B6_, symObjAddr: 0x2548, symBinAddr: 0x1D328, symSize: 0x250 }
  - { offset: 0x142B6, size: 0x8, addend: 0x0, symName: __RNCNvMNtCs4oBEgEuuqV9_15zerocopy_derive4reprINtB4_4ReprNtB4_13PrimitiveReprNtNtCs85QQFkKrybG_4core7convert10InfallibleE32unaligned_validate_no_align_gt_10B6_, symObjAddr: 0x2798, symBinAddr: 0x1D578, symSize: 0x40 }
  - { offset: 0x142FE, size: 0x8, addend: 0x0, symName: __RNCNvMNtCs4oBEgEuuqV9_15zerocopy_derive4reprINtB4_4ReprNtNtCs85QQFkKrybG_4core7convert10InfallibleINtNtNtBV_3num7nonzero7NonZeromEE32unaligned_validate_no_align_gt_10B6_, symObjAddr: 0x2814, symBinAddr: 0x1D5F4, symSize: 0x40 }
  - { offset: 0x1435A, size: 0x8, addend: 0x0, symName: __RNCNvMNtCs4oBEgEuuqV9_15zerocopy_derive4reprINtB4_4ReprNtNtCs85QQFkKrybG_4core7convert10InfallibleINtNtNtBV_3num7nonzero7NonZeromEE13is_align_gt_10B6_, symObjAddr: 0x27D8, symBinAddr: 0x1D5B8, symSize: 0x3C }
  - { offset: 0x143B5, size: 0x8, addend: 0x0, symName: __RNCNvMs_NtCs4oBEgEuuqV9_15zerocopy_derive4reprINtB6_4ReprNtNtCs85QQFkKrybG_4core7convert10InfallibleINtNtNtBX_3num7nonzero7NonZeromEE11is_packed_10B8_, symObjAddr: 0x2854, symBinAddr: 0x1D634, symSize: 0x40 }
  - { offset: 0x14407, size: 0x8, addend: 0x0, symName: __RNCNvMsa_NtCs4oBEgEuuqV9_15zerocopy_derive4reprINtB7_4ReprNtB7_13PrimitiveReprNtNtCs85QQFkKrybG_4core7convert10InfallibleE16from_attrs_inner0B9_, symObjAddr: 0x2894, symBinAddr: 0x1D674, symSize: 0x78 }
  - { offset: 0x14474, size: 0x8, addend: 0x0, symName: __RNCNvMsa_NtCs4oBEgEuuqV9_15zerocopy_derive4reprINtB7_4ReprNtNtCs85QQFkKrybG_4core7convert10InfallibleINtNtNtBY_3num7nonzero7NonZeromEE16from_attrs_inner0B9_, symObjAddr: 0x290C, symBinAddr: 0x1D6EC, symSize: 0x78 }
  - { offset: 0x144FB, size: 0x8, addend: 0x0, symName: __RNCNvXs2_NtCs4oBEgEuuqV9_15zerocopy_derive4reprINtNtB7_4util7SpannedINtB7_12CompoundReprNtB7_13PrimitiveReprEENtNtCshi3DZH3dfhk_5quote9to_tokens8ToTokens9to_tokens0B9_, symObjAddr: 0x2A6C, symBinAddr: 0x1D84C, symSize: 0x68 }
  - { offset: 0x14578, size: 0x8, addend: 0x0, symName: __RNCNvXs4_NtCs4oBEgEuuqV9_15zerocopy_derive4reprINtNtB7_4util7SpannedINtB7_9AlignReprINtNtNtCs85QQFkKrybG_4core3num7nonzero7NonZeromEEENtNtCshi3DZH3dfhk_5quote9to_tokens8ToTokens9to_tokens0B9_, symObjAddr: 0x2AD4, symBinAddr: 0x1D8B4, symSize: 0x4C }
  - { offset: 0x145BE, size: 0x8, addend: 0x0, symName: __RNCNvXs4_NtCs4oBEgEuuqV9_15zerocopy_derive4reprINtNtB7_4util7SpannedINtB7_9AlignReprINtNtNtCs85QQFkKrybG_4core3num7nonzero7NonZeromEEENtNtCshi3DZH3dfhk_5quote9to_tokens8ToTokens9to_tokenss_0B9_, symObjAddr: 0x2B20, symBinAddr: 0x1D900, symSize: 0x294 }
  - { offset: 0x1470A, size: 0x8, addend: 0x0, symName: __RNCNvXs5_NtCs4oBEgEuuqV9_15zerocopy_derive4reprINtB7_12CompoundReprNtB7_13PrimitiveReprEINtNtCs85QQFkKrybG_4core7convert7TryFromNtB7_7RawReprE8try_from0B9_, symObjAddr: 0x2DB4, symBinAddr: 0x1DB94, symSize: 0x1D8 }
  - { offset: 0x14757, size: 0x8, addend: 0x0, symName: __RNvXs5_NtCs4oBEgEuuqV9_15zerocopy_derive4reprINtB5_12CompoundReprNtB5_13PrimitiveReprEINtNtCs85QQFkKrybG_4core7convert7TryFromNtB5_7RawReprE8try_fromB7_, symObjAddr: 0x6730, symBinAddr: 0x214EC, symSize: 0x128 }
  - { offset: 0x147AC, size: 0x8, addend: 0x0, symName: __RNvXs5_NtCs4oBEgEuuqV9_15zerocopy_derive4reprINtB5_12CompoundReprNtNtCs85QQFkKrybG_4core7convert10InfallibleEINtB13_7TryFromNtB5_7RawReprE8try_fromB7_, symObjAddr: 0x6858, symBinAddr: 0x21614, symSize: 0x124 }
  - { offset: 0x1480C, size: 0x8, addend: 0x0, symName: __RNCNvXs6_NtCs4oBEgEuuqV9_15zerocopy_derive4reprINtB7_9AlignReprINtNtNtCs85QQFkKrybG_4core3num7nonzero7NonZeromEEINtNtB16_7convert7TryFromNtB7_7RawReprE8try_from0B9_, symObjAddr: 0x2F8C, symBinAddr: 0x1DD6C, symSize: 0xE4 }
  - { offset: 0x14882, size: 0x8, addend: 0x0, symName: __RNvXs6_NtCs4oBEgEuuqV9_15zerocopy_derive4reprINtB5_9AlignReprINtNtNtCs85QQFkKrybG_4core3num7nonzero7NonZeromEEINtNtB14_7convert7TryFromNtB5_7RawReprE8try_fromB7_, symObjAddr: 0x69DC, symBinAddr: 0x21798, symSize: 0xD0 }
  - { offset: 0x148D7, size: 0x8, addend: 0x0, symName: __RNvXs6_NtCs4oBEgEuuqV9_15zerocopy_derive4reprINtB5_9AlignReprNtNtCs85QQFkKrybG_4core7convert10InfallibleEINtBZ_7TryFromNtB5_7RawReprE8try_fromB7_, symObjAddr: 0x6AAC, symBinAddr: 0x21868, symSize: 0xCC }
  - { offset: 0x14937, size: 0x8, addend: 0x0, symName: __RNcNtINtNtCs4oBEgEuuqV9_15zerocopy_derive4repr12CompoundReprNtB6_13PrimitiveReprE9Primitive0B8_, symObjAddr: 0x3070, symBinAddr: 0x1DE50, symSize: 0x10 }
  - { offset: 0x14974, size: 0x8, addend: 0x0, symName: __RNcNtINtNtCs4oBEgEuuqV9_15zerocopy_derive4repr16FromRawReprErrorNtB6_20UnsupportedReprErrorE3Err0B8_, symObjAddr: 0x3094, symBinAddr: 0x1DE60, symSize: 0x14 }
  - { offset: 0x149B3, size: 0x8, addend: 0x0, symName: __RNcNtINtNtCs4oBEgEuuqV9_15zerocopy_derive4repr9AlignReprINtNtNtCs85QQFkKrybG_4core3num7nonzero7NonZeromEEs_6Packed0B8_, symObjAddr: 0x30A8, symBinAddr: 0x1DE74, symSize: 0x18 }
  - { offset: 0x15240, size: 0x8, addend: 0x0, symName: __RNvXs1_NtCs4oBEgEuuqV9_15zerocopy_derive4reprINtB5_4ReprNtNtCs85QQFkKrybG_4core7convert10InfallibleINtNtNtBW_3num7nonzero7NonZeromEENtNtCshi3DZH3dfhk_5quote9to_tokens8ToTokens9to_tokensB7_, symObjAddr: 0x5CF4, symBinAddr: 0x20AB0, symSize: 0x290 }
  - { offset: 0x15380, size: 0x8, addend: 0x0, symName: __RNvXs7_NtCs4oBEgEuuqV9_15zerocopy_derive4reprNtB5_14FromAttrsErrorINtNtCs85QQFkKrybG_4core7convert4FromINtB5_17FromRawReprsErrorNtB5_20UnsupportedReprErrorEE4from, symObjAddr: 0x6B78, symBinAddr: 0x21934, symSize: 0x20 }
  - { offset: 0x153B4, size: 0x8, addend: 0x0, symName: __RNvXs8_NtCs4oBEgEuuqV9_15zerocopy_derive4reprNtB5_14FromAttrsErrorINtNtCs85QQFkKrybG_4core7convert4FromNtB5_21UnrecognizedReprErrorE4from, symObjAddr: 0x6B98, symBinAddr: 0x21954, symSize: 0x20 }
  - { offset: 0x15FC5, size: 0x8, addend: 0x0, symName: __RINvXs2E_NtNtCs85QQFkKrybG_4core5slice4iterINtB7_4IterINtNtNtCs4oBEgEuuqV9_15zerocopy_derive4repr4util7SpannedNtBV_7RawReprEENtNtNtNtBb_4iter6traits8iterator8Iterator8find_mapRNtCsfwj6t2KTYdc_11proc_macro24SpanQNCNvMsa_BV_INtBV_4ReprNtBV_13PrimitiveReprNtNtBb_7convert10InfallibleE16from_attrs_inner0EBX_, symObjAddr: 0x2D4, symBinAddr: 0x1B0B4, symSize: 0xC4 }
  - { offset: 0x16049, size: 0x8, addend: 0x0, symName: __RINvXs2E_NtNtCs85QQFkKrybG_4core5slice4iterINtB7_4IterINtNtNtCs4oBEgEuuqV9_15zerocopy_derive4repr4util7SpannedNtBV_7RawReprEENtNtNtNtBb_4iter6traits8iterator8Iterator8find_mapRNtCsfwj6t2KTYdc_11proc_macro24SpanQNCNvMsa_BV_INtBV_4ReprNtNtBb_7convert10InfallibleINtNtNtBb_3num7nonzero7NonZeromEE16from_attrs_inner0EBX_, symObjAddr: 0x398, symBinAddr: 0x1B178, symSize: 0xC4 }
  - { offset: 0x160CD, size: 0x8, addend: 0x0, symName: __RINvXs2E_NtNtCs85QQFkKrybG_4core5slice4iterINtB7_4IterTRNtNtCscwCr4GBBztI_3syn11restriction10VisibilityNtCsfwj6t2KTYdc_11proc_macro211TokenStreamRNtNtBW_2ty4TypeEENtNtNtNtBb_4iter6traits8iterator8Iterator4folduNCINvNtNtB2H_8adapters3map8map_foldRBQ_NtB1F_5IdentuNCNvCs4oBEgEuuqV9_15zerocopy_derive25derive_known_layout_inners5_0NCINvNvB2B_8for_each4callB3Z_NCINvMsi_NtCsdFlNUEO95cG_5alloc3vecINtB5S_3VecB3Z_E14extend_trustedINtB3r_3MapBF_B4c_EE0E0E0EB4g_, symObjAddr: 0x45C, symBinAddr: 0x1B23C, symSize: 0x1C0 }
  - { offset: 0x16222, size: 0x8, addend: 0x0, symName: __RINvXs2E_NtNtCs85QQFkKrybG_4core5slice4iterINtB7_4IterTRNtNtCscwCr4GBBztI_3syn11restriction10VisibilityNtCsfwj6t2KTYdc_11proc_macro211TokenStreamRNtNtBW_2ty4TypeEENtNtNtNtBb_4iter6traits8iterator8Iterator4folduNCINvNtNtB2H_8adapters3map8map_foldRBQ_NtNtBW_8generics14WherePredicateuNCNvMs5_Cs4oBEgEuuqV9_15zerocopy_deriveINtB4E_16ImplBlockBuilderNtNtBW_6derive10DataStructE5build0NCINvNvB2B_8for_each4callB3Z_NCINvMsi_NtCsdFlNUEO95cG_5alloc3vecINtB6I_3VecB3Z_E14extend_trustedINtB3r_3MapBF_B4w_EE0E0E0EB4E_, symObjAddr: 0x61C, symBinAddr: 0x1B3FC, symSize: 0x1C0 }
  - { offset: 0x16377, size: 0x8, addend: 0x0, symName: __RINvXs2E_NtNtCs85QQFkKrybG_4core5slice4iterINtB7_4IterTRNtNtCscwCr4GBBztI_3syn11restriction10VisibilityNtCsfwj6t2KTYdc_11proc_macro211TokenStreamRNtNtBW_2ty4TypeEENtNtNtNtBb_4iter6traits8iterator8Iterator4folduNCINvNtNtB2H_8adapters3map8map_foldRBQ_NtNtBW_8generics14WherePredicateuNCNvMs5_Cs4oBEgEuuqV9_15zerocopy_deriveINtB4E_16ImplBlockBuilderNtNtBW_6derive4DataE5build0NCINvNvB2B_8for_each4callB3Z_NCINvMsi_NtCsdFlNUEO95cG_5alloc3vecINtB6B_3VecB3Z_E14extend_trustedINtB3r_3MapBF_B4w_EE0E0E0EB4E_, symObjAddr: 0x7DC, symBinAddr: 0x1B5BC, symSize: 0x1C0 }
  - { offset: 0x164CC, size: 0x8, addend: 0x0, symName: __RINvXs2E_NtNtCs85QQFkKrybG_4core5slice4iterINtB7_4IterTRNtNtCscwCr4GBBztI_3syn11restriction10VisibilityNtCsfwj6t2KTYdc_11proc_macro211TokenStreamRNtNtBW_2ty4TypeEENtNtNtNtBb_4iter6traits8iterator8Iterator4folduNCINvNtNtB2H_8adapters3map8map_foldRBQ_NtNtBW_8generics14WherePredicateuNCNvMs5_Cs4oBEgEuuqV9_15zerocopy_deriveINtB4E_16ImplBlockBuilderNtNtBW_6derive8DataEnumE5build0NCINvNvB2B_8for_each4callB3Z_NCINvMsi_NtCsdFlNUEO95cG_5alloc3vecINtB6F_3VecB3Z_E14extend_trustedINtB3r_3MapBF_B4w_EE0E0E0EB4E_, symObjAddr: 0x99C, symBinAddr: 0x1B77C, symSize: 0x1C0 }
  - { offset: 0x16621, size: 0x8, addend: 0x0, symName: __RINvXs2E_NtNtCs85QQFkKrybG_4core5slice4iterINtB7_4IterTRNtNtCscwCr4GBBztI_3syn11restriction10VisibilityNtCsfwj6t2KTYdc_11proc_macro211TokenStreamRNtNtBW_2ty4TypeEENtNtNtNtBb_4iter6traits8iterator8Iterator4folduNCINvNtNtB2H_8adapters3map8map_foldRBQ_NtNtBW_8generics14WherePredicateuNCNvMs5_Cs4oBEgEuuqV9_15zerocopy_deriveINtB4E_16ImplBlockBuilderNtNtBW_6derive9DataUnionE5build0NCINvNvB2B_8for_each4callB3Z_NCINvMsi_NtCsdFlNUEO95cG_5alloc3vecINtB6G_3VecB3Z_E14extend_trustedINtB3r_3MapBF_B4w_EE0E0E0EB4E_, symObjAddr: 0xB5C, symBinAddr: 0x1B93C, symSize: 0x1C0 }
  - { offset: 0x16776, size: 0x8, addend: 0x0, symName: __RNvXs2E_NtNtCs85QQFkKrybG_4core5slice4iterINtB6_4IterINtNtCsdFlNUEO95cG_5alloc3vec3VecTRNtNtCscwCr4GBBztI_3syn11restriction10VisibilityNtCsfwj6t2KTYdc_11proc_macro211TokenStreamRNtNtB1s_2ty4TypeEEENtNtNtNtBa_4iter6traits8iterator8Iterator4nextCs4oBEgEuuqV9_15zerocopy_derive, symObjAddr: 0x6020, symBinAddr: 0x20DDC, symSize: 0xA8 }
  - { offset: 0x168B0, size: 0x8, addend: 0x0, symName: __RNvXs2E_NtNtCs85QQFkKrybG_4core5slice4iterINtB6_4IterINtNtNtCs4oBEgEuuqV9_15zerocopy_derive4repr4util7SpannedNtBU_7RawReprEENtNtNtNtBa_4iter6traits8iterator8Iterator4nextBW_, symObjAddr: 0x60C8, symBinAddr: 0x20E84, symSize: 0xA8 }
  - { offset: 0x169EA, size: 0x8, addend: 0x0, symName: __RNvXs2E_NtNtCs85QQFkKrybG_4core5slice4iterINtB6_4IterNtCs4oBEgEuuqV9_15zerocopy_derive10TraitBoundENtNtNtNtBa_4iter6traits8iterator8Iterator4nextBR_, symObjAddr: 0x6170, symBinAddr: 0x20F2C, symSize: 0xA8 }
  - { offset: 0x16B24, size: 0x8, addend: 0x0, symName: __RNvXs2E_NtNtCs85QQFkKrybG_4core5slice4iterINtB6_4IterNtCs4oBEgEuuqV9_15zerocopy_derive5TraitENtNtNtNtBa_4iter6traits8iterator8Iterator4nextBR_, symObjAddr: 0x6218, symBinAddr: 0x20FD4, symSize: 0xA8 }
  - { offset: 0x16C5E, size: 0x8, addend: 0x0, symName: __RNvXs2E_NtNtCs85QQFkKrybG_4core5slice4iterINtB6_4IterNtCsfwj6t2KTYdc_11proc_macro25IdentENtNtNtNtBa_4iter6traits8iterator8Iterator24___iterator_get_uncheckedCs4oBEgEuuqV9_15zerocopy_derive, symObjAddr: 0x62C0, symBinAddr: 0x2107C, symSize: 0x28 }
  - { offset: 0x16CB9, size: 0x8, addend: 0x0, symName: __RNvXs2E_NtNtCs85QQFkKrybG_4core5slice4iterINtB6_4IterNtCsfwj6t2KTYdc_11proc_macro25IdentENtNtNtNtBa_4iter6traits8iterator8Iterator9size_hintCs4oBEgEuuqV9_15zerocopy_derive, symObjAddr: 0x62E8, symBinAddr: 0x210A4, symSize: 0x60 }
  - { offset: 0x16D28, size: 0x8, addend: 0x0, symName: __RNvXs2E_NtNtCs85QQFkKrybG_4core5slice4iterINtB6_4IterNtNtCscwCr4GBBztI_3syn8generics14WherePredicateENtNtNtNtBa_4iter6traits8iterator8Iterator4nextCs4oBEgEuuqV9_15zerocopy_derive, symObjAddr: 0x6348, symBinAddr: 0x21104, symSize: 0xA8 }
  - { offset: 0x16E62, size: 0x8, addend: 0x0, symName: __RNvXs2E_NtNtCs85QQFkKrybG_4core5slice4iterINtB6_4IterTRNtNtCscwCr4GBBztI_3syn11restriction10VisibilityNtCsfwj6t2KTYdc_11proc_macro211TokenStreamRNtNtBV_2ty4TypeEENtNtNtNtBa_4iter6traits8iterator8Iterator24___iterator_get_uncheckedCs4oBEgEuuqV9_15zerocopy_derive, symObjAddr: 0x63F0, symBinAddr: 0x211AC, symSize: 0x28 }
  - { offset: 0x16EBD, size: 0x8, addend: 0x0, symName: __RNvXs2E_NtNtCs85QQFkKrybG_4core5slice4iterINtB6_4IterTRNtNtCscwCr4GBBztI_3syn11restriction10VisibilityNtCsfwj6t2KTYdc_11proc_macro211TokenStreamRNtNtBV_2ty4TypeEENtNtNtNtBa_4iter6traits8iterator8Iterator4nextCs4oBEgEuuqV9_15zerocopy_derive, symObjAddr: 0x6418, symBinAddr: 0x211D4, symSize: 0xA8 }
  - { offset: 0x16FF7, size: 0x8, addend: 0x0, symName: __RNvXs2E_NtNtCs85QQFkKrybG_4core5slice4iterINtB6_4IterTRNtNtCscwCr4GBBztI_3syn11restriction10VisibilityNtCsfwj6t2KTYdc_11proc_macro211TokenStreamRNtNtBV_2ty4TypeEENtNtNtNtBa_4iter6traits8iterator8Iterator9size_hintCs4oBEgEuuqV9_15zerocopy_derive, symObjAddr: 0x64C0, symBinAddr: 0x2127C, symSize: 0x60 }
  - { offset: 0x1732F, size: 0x8, addend: 0x0, symName: __RNvXs2F_NtNtCs85QQFkKrybG_4core5slice4iterINtB6_4IterTNtNtCscwCr4GBBztI_3syn4data7VariantNtNtBU_5token5CommaEENtNtNtNtBa_4iter6traits12double_ended19DoubleEndedIterator9next_backCs4oBEgEuuqV9_15zerocopy_derive, symObjAddr: 0x6520, symBinAddr: 0x212DC, symSize: 0x108 }
  - { offset: 0x1748F, size: 0x8, addend: 0x0, symName: __RNvXs2F_NtNtCs85QQFkKrybG_4core5slice4iterINtB6_4IterTNtNtCscwCr4GBBztI_3syn8generics14WherePredicateNtNtBU_5token5CommaEENtNtNtNtBa_4iter6traits12double_ended19DoubleEndedIterator9next_backCs4oBEgEuuqV9_15zerocopy_derive, symObjAddr: 0x6628, symBinAddr: 0x213E4, symSize: 0x108 }
  - { offset: 0x1766C, size: 0x8, addend: 0x0, symName: __RNvXs5_NtNtCs85QQFkKrybG_4core5slice4iterINtB5_4IterTNtNtCscwCr4GBBztI_3syn4data7VariantNtNtBT_5token5CommaEENtNtB9_5clone5Clone5cloneCs4oBEgEuuqV9_15zerocopy_derive, symObjAddr: 0x697C, symBinAddr: 0x21738, symSize: 0x20 }
  - { offset: 0x176A1, size: 0x8, addend: 0x0, symName: __RNvXs5_NtNtCs85QQFkKrybG_4core5slice4iterINtB5_4IterTNtNtCscwCr4GBBztI_3syn8generics14WherePredicateNtNtBT_5token5CommaEENtNtB9_5clone5Clone5cloneCs4oBEgEuuqV9_15zerocopy_derive, symObjAddr: 0x699C, symBinAddr: 0x21758, symSize: 0x20 }
  - { offset: 0x176D6, size: 0x8, addend: 0x0, symName: __RNvXs5_NtNtCs85QQFkKrybG_4core5slice4iterINtB5_4IterTRNtNtCscwCr4GBBztI_3syn11restriction10VisibilityNtCsfwj6t2KTYdc_11proc_macro211TokenStreamRNtNtBU_2ty4TypeEENtNtB9_5clone5Clone5cloneCs4oBEgEuuqV9_15zerocopy_derive, symObjAddr: 0x69BC, symBinAddr: 0x21778, symSize: 0x20 }
  - { offset: 0x1AE56, size: 0x8, addend: 0x0, symName: __RINvYINtNtNtCs85QQFkKrybG_4core5slice4iter4IterINtNtCsdFlNUEO95cG_5alloc3vec3VecTRNtNtCscwCr4GBBztI_3syn11restriction10VisibilityNtCsfwj6t2KTYdc_11proc_macro211TokenStreamRNtNtB1m_2ty4TypeEEENtNtNtNtBa_4iter6traits8iterator8Iterator3mapB23_NCNCNvMs5_Cs4oBEgEuuqV9_15zerocopy_deriveINtB40_16ImplBlockBuilderNtNtB1m_6derive10DataStructE5builds0_00EB40_, symObjAddr: 0xD1C, symBinAddr: 0x1BAFC, symSize: 0x1C }
  - { offset: 0x1AEAE, size: 0x8, addend: 0x0, symName: __RINvYINtNtNtCs85QQFkKrybG_4core5slice4iter4IterINtNtCsdFlNUEO95cG_5alloc3vec3VecTRNtNtCscwCr4GBBztI_3syn11restriction10VisibilityNtCsfwj6t2KTYdc_11proc_macro211TokenStreamRNtNtB1m_2ty4TypeEEENtNtNtNtBa_4iter6traits8iterator8Iterator3mapB23_NCNCNvMs5_Cs4oBEgEuuqV9_15zerocopy_deriveINtB40_16ImplBlockBuilderNtNtB1m_6derive4DataE5builds0_00EB40_, symObjAddr: 0xD38, symBinAddr: 0x1BB18, symSize: 0x1C }
  - { offset: 0x1AF06, size: 0x8, addend: 0x0, symName: __RINvYINtNtNtCs85QQFkKrybG_4core5slice4iter4IterINtNtCsdFlNUEO95cG_5alloc3vec3VecTRNtNtCscwCr4GBBztI_3syn11restriction10VisibilityNtCsfwj6t2KTYdc_11proc_macro211TokenStreamRNtNtB1m_2ty4TypeEEENtNtNtNtBa_4iter6traits8iterator8Iterator3mapB23_NCNCNvMs5_Cs4oBEgEuuqV9_15zerocopy_deriveINtB40_16ImplBlockBuilderNtNtB1m_6derive8DataEnumE5builds0_00EB40_, symObjAddr: 0xD54, symBinAddr: 0x1BB34, symSize: 0x1C }
  - { offset: 0x1AF5E, size: 0x8, addend: 0x0, symName: __RINvYINtNtNtCs85QQFkKrybG_4core5slice4iter4IterINtNtCsdFlNUEO95cG_5alloc3vec3VecTRNtNtCscwCr4GBBztI_3syn11restriction10VisibilityNtCsfwj6t2KTYdc_11proc_macro211TokenStreamRNtNtB1m_2ty4TypeEEENtNtNtNtBa_4iter6traits8iterator8Iterator3mapB23_NCNCNvMs5_Cs4oBEgEuuqV9_15zerocopy_deriveINtB40_16ImplBlockBuilderNtNtB1m_6derive9DataUnionE5builds0_00EB40_, symObjAddr: 0xD70, symBinAddr: 0x1BB50, symSize: 0x1C }
  - { offset: 0x1AFB6, size: 0x8, addend: 0x0, symName: __RINvYINtNtNtCs85QQFkKrybG_4core5slice4iter4IterINtNtNtCs4oBEgEuuqV9_15zerocopy_derive4repr4util7SpannedNtBO_7RawReprEENtNtNtNtBa_4iter6traits8iterator8Iterator10filter_mapRNtCsfwj6t2KTYdc_11proc_macro24SpanNCNvMsa_BO_INtBO_4ReprNtBO_13PrimitiveReprNtNtBa_7convert10InfallibleE16from_attrs_inner0EBQ_, symObjAddr: 0xD8C, symBinAddr: 0x1BB6C, symSize: 0x1C }
  - { offset: 0x1B00E, size: 0x8, addend: 0x0, symName: __RINvYINtNtNtCs85QQFkKrybG_4core5slice4iter4IterINtNtNtCs4oBEgEuuqV9_15zerocopy_derive4repr4util7SpannedNtBO_7RawReprEENtNtNtNtBa_4iter6traits8iterator8Iterator10filter_mapRNtCsfwj6t2KTYdc_11proc_macro24SpanNCNvMsa_BO_INtBO_4ReprNtNtBa_7convert10InfallibleINtNtNtBa_3num7nonzero7NonZeromEE16from_attrs_inner0EBQ_, symObjAddr: 0xDA8, symBinAddr: 0x1BB88, symSize: 0x1C }
  - { offset: 0x1B066, size: 0x8, addend: 0x0, symName: __RINvYINtNtNtCs85QQFkKrybG_4core5slice4iter4IterINtNtNtCs4oBEgEuuqV9_15zerocopy_derive4repr4util7SpannedNtBO_7RawReprEENtNtNtNtBa_4iter6traits8iterator8Iterator8try_foldINtNtBa_6option6OptionIBK_INtBO_12CompoundReprNtBO_13PrimitiveReprEEENCINvBO_18try_from_raw_reprsNtBO_20UnsupportedReprErrorB36_B3_E0INtNtBa_6result6ResultB2G_IBK_INtBO_17FromRawReprsErrorB4f_EEEEBQ_, symObjAddr: 0xDC4, symBinAddr: 0x1BBA4, symSize: 0x18C }
  - { offset: 0x1B120, size: 0x8, addend: 0x0, symName: __RINvYINtNtNtCs85QQFkKrybG_4core5slice4iter4IterINtNtNtCs4oBEgEuuqV9_15zerocopy_derive4repr4util7SpannedNtBO_7RawReprEENtNtNtNtBa_4iter6traits8iterator8Iterator8try_foldINtNtBa_6option6OptionIBK_INtBO_12CompoundReprNtNtBa_7convert10InfallibleEEENCINvBO_18try_from_raw_reprsNtBO_20UnsupportedReprErrorB36_B3_E0INtNtBa_6result6ResultB2G_IBK_INtBO_17FromRawReprsErrorB4m_EEEEBQ_, symObjAddr: 0xF50, symBinAddr: 0x1BD30, symSize: 0x18C }
  - { offset: 0x1B1DA, size: 0x8, addend: 0x0, symName: __RINvYINtNtNtCs85QQFkKrybG_4core5slice4iter4IterINtNtNtCs4oBEgEuuqV9_15zerocopy_derive4repr4util7SpannedNtBO_7RawReprEENtNtNtNtBa_4iter6traits8iterator8Iterator8try_foldINtNtBa_6option6OptionIBK_INtBO_9AlignReprINtNtNtBa_3num7nonzero7NonZeromEEEENCINvBO_18try_from_raw_reprsNtBO_20UnsupportedReprErrorB36_B3_E0INtNtBa_6result6ResultB2G_IBK_INtBO_17FromRawReprsErrorB4n_EEEEBQ_, symObjAddr: 0x10DC, symBinAddr: 0x1BEBC, symSize: 0x1C8 }
  - { offset: 0x1B296, size: 0x8, addend: 0x0, symName: __RINvYINtNtNtCs85QQFkKrybG_4core5slice4iter4IterINtNtNtCs4oBEgEuuqV9_15zerocopy_derive4repr4util7SpannedNtBO_7RawReprEENtNtNtNtBa_4iter6traits8iterator8Iterator8try_foldINtNtBa_6option6OptionIBK_INtBO_9AlignReprNtNtBa_7convert10InfallibleEEENCINvBO_18try_from_raw_reprsNtBO_20UnsupportedReprErrorB36_B3_E0INtNtBa_6result6ResultB2G_IBK_INtBO_17FromRawReprsErrorB4i_EEEEBQ_, symObjAddr: 0x12A4, symBinAddr: 0x1C084, symSize: 0x18C }
  - { offset: 0x1B350, size: 0x8, addend: 0x0, symName: __RINvYINtNtNtCs85QQFkKrybG_4core5slice4iter4IterNtCs4oBEgEuuqV9_15zerocopy_derive10TraitBoundENtNtNtNtBa_4iter6traits8iterator8Iterator3mapNtBL_5TraitNCNvBL_16normalize_bounds0EBL_, symObjAddr: 0x1430, symBinAddr: 0x1C210, symSize: 0x2C }
  - { offset: 0x1B3BD, size: 0x8, addend: 0x0, symName: __RINvYINtNtNtCs85QQFkKrybG_4core5slice4iter4IterNtCs4oBEgEuuqV9_15zerocopy_derive5TraitENtNtNtNtBa_4iter6traits8iterator8Iterator6copiedBJ_EBL_, symObjAddr: 0x145C, symBinAddr: 0x1C23C, symSize: 0x1C }
  - { offset: 0x1B3FD, size: 0x8, addend: 0x0, symName: __RINvYINtNtNtCs85QQFkKrybG_4core5slice4iter4IterNtCsfwj6t2KTYdc_11proc_macro25IdentENtNtNtNtBa_4iter6traits8iterator8Iterator3zipRINtNtCsdFlNUEO95cG_5alloc3vec3VecTRNtNtCscwCr4GBBztI_3syn11restriction10VisibilityNtBL_11TokenStreamRNtNtB2G_2ty4TypeEEECs4oBEgEuuqV9_15zerocopy_derive, symObjAddr: 0x1478, symBinAddr: 0x1C258, symSize: 0xBC }
  - { offset: 0x1B472, size: 0x8, addend: 0x0, symName: __RINvYINtNtNtCs85QQFkKrybG_4core5slice4iter4IterTRNtNtCscwCr4GBBztI_3syn11restriction10VisibilityNtCsfwj6t2KTYdc_11proc_macro211TokenStreamRNtNtBP_2ty4TypeEENtNtNtNtBa_4iter6traits8iterator8Iterator3mapNtB1y_5IdentNCNvCs4oBEgEuuqV9_15zerocopy_derive25derive_known_layout_inners5_0EB3t_, symObjAddr: 0x1534, symBinAddr: 0x1C314, symSize: 0x30 }
  - { offset: 0x1B4DF, size: 0x8, addend: 0x0, symName: __RINvYINtNtNtCs85QQFkKrybG_4core5slice4iter4IterTRNtNtCscwCr4GBBztI_3syn11restriction10VisibilityNtCsfwj6t2KTYdc_11proc_macro211TokenStreamRNtNtBP_2ty4TypeEENtNtNtNtBa_4iter6traits8iterator8Iterator3mapNtB1y_5IdentNCNvCs4oBEgEuuqV9_15zerocopy_derive25derive_known_layout_inners8_0EB3t_, symObjAddr: 0x1564, symBinAddr: 0x1C344, symSize: 0x30 }
  - { offset: 0x1B54C, size: 0x8, addend: 0x0, symName: __RINvYINtNtNtCs85QQFkKrybG_4core5slice4iter4IterTRNtNtCscwCr4GBBztI_3syn11restriction10VisibilityNtCsfwj6t2KTYdc_11proc_macro211TokenStreamRNtNtBP_2ty4TypeEENtNtNtNtBa_4iter6traits8iterator8Iterator3mapNtNtBP_8generics14WherePredicateNCNvMs5_Cs4oBEgEuuqV9_15zerocopy_deriveINtB3R_16ImplBlockBuilderNtNtBP_6derive10DataStructE5build0EB3R_, symObjAddr: 0x1594, symBinAddr: 0x1C374, symSize: 0x34 }
  - { offset: 0x1B5B9, size: 0x8, addend: 0x0, symName: __RINvYINtNtNtCs85QQFkKrybG_4core5slice4iter4IterTRNtNtCscwCr4GBBztI_3syn11restriction10VisibilityNtCsfwj6t2KTYdc_11proc_macro211TokenStreamRNtNtBP_2ty4TypeEENtNtNtNtBa_4iter6traits8iterator8Iterator3mapNtNtBP_8generics14WherePredicateNCNvMs5_Cs4oBEgEuuqV9_15zerocopy_deriveINtB3R_16ImplBlockBuilderNtNtBP_6derive4DataE5build0EB3R_, symObjAddr: 0x15C8, symBinAddr: 0x1C3A8, symSize: 0x34 }
  - { offset: 0x1B626, size: 0x8, addend: 0x0, symName: __RINvYINtNtNtCs85QQFkKrybG_4core5slice4iter4IterTRNtNtCscwCr4GBBztI_3syn11restriction10VisibilityNtCsfwj6t2KTYdc_11proc_macro211TokenStreamRNtNtBP_2ty4TypeEENtNtNtNtBa_4iter6traits8iterator8Iterator3mapNtNtBP_8generics14WherePredicateNCNvMs5_Cs4oBEgEuuqV9_15zerocopy_deriveINtB3R_16ImplBlockBuilderNtNtBP_6derive8DataEnumE5build0EB3R_, symObjAddr: 0x15FC, symBinAddr: 0x1C3DC, symSize: 0x34 }
  - { offset: 0x1B693, size: 0x8, addend: 0x0, symName: __RINvYINtNtNtCs85QQFkKrybG_4core5slice4iter4IterTRNtNtCscwCr4GBBztI_3syn11restriction10VisibilityNtCsfwj6t2KTYdc_11proc_macro211TokenStreamRNtNtBP_2ty4TypeEENtNtNtNtBa_4iter6traits8iterator8Iterator3mapNtNtBP_8generics14WherePredicateNCNvMs5_Cs4oBEgEuuqV9_15zerocopy_deriveINtB3R_16ImplBlockBuilderNtNtBP_6derive9DataUnionE5build0EB3R_, symObjAddr: 0x1630, symBinAddr: 0x1C410, symSize: 0x34 }
  - { offset: 0x1B700, size: 0x8, addend: 0x0, symName: __RINvYINtNtNtCs85QQFkKrybG_4core5slice4iter4IterTRNtNtCscwCr4GBBztI_3syn11restriction10VisibilityNtCsfwj6t2KTYdc_11proc_macro211TokenStreamRNtNtBP_2ty4TypeEENtNtNtNtBa_4iter6traits8iterator8Iterator3mapRB1w_NCNCNvCs4oBEgEuuqV9_15zerocopy_derive27derive_try_from_bytes_union00EB3o_, symObjAddr: 0x1664, symBinAddr: 0x1C444, symSize: 0x1C }
  - { offset: 0x1B758, size: 0x8, addend: 0x0, symName: __RINvYINtNtNtCs85QQFkKrybG_4core5slice4iter4IterTRNtNtCscwCr4GBBztI_3syn11restriction10VisibilityNtCsfwj6t2KTYdc_11proc_macro211TokenStreamRNtNtBP_2ty4TypeEENtNtNtNtBa_4iter6traits8iterator8Iterator3mapRB1w_NCNCNvCs4oBEgEuuqV9_15zerocopy_derive28derive_try_from_bytes_struct00EB3o_, symObjAddr: 0x1680, symBinAddr: 0x1C460, symSize: 0x1C }
  - { offset: 0x1B7B0, size: 0x8, addend: 0x0, symName: __RINvYINtNtNtCs85QQFkKrybG_4core5slice4iter4IterTRNtNtCscwCr4GBBztI_3syn11restriction10VisibilityNtCsfwj6t2KTYdc_11proc_macro211TokenStreamRNtNtBP_2ty4TypeEENtNtNtNtBa_4iter6traits8iterator8Iterator3mapRB2c_NCNCNCNvMs5_Cs4oBEgEuuqV9_15zerocopy_deriveINtB3u_16ImplBlockBuilderNtNtBP_6derive10DataStructE5builds0_000EB3u_, symObjAddr: 0x169C, symBinAddr: 0x1C47C, symSize: 0x1C }
  - { offset: 0x1B808, size: 0x8, addend: 0x0, symName: __RINvYINtNtNtCs85QQFkKrybG_4core5slice4iter4IterTRNtNtCscwCr4GBBztI_3syn11restriction10VisibilityNtCsfwj6t2KTYdc_11proc_macro211TokenStreamRNtNtBP_2ty4TypeEENtNtNtNtBa_4iter6traits8iterator8Iterator3mapRB2c_NCNCNCNvMs5_Cs4oBEgEuuqV9_15zerocopy_deriveINtB3u_16ImplBlockBuilderNtNtBP_6derive4DataE5builds0_000EB3u_, symObjAddr: 0x16B8, symBinAddr: 0x1C498, symSize: 0x1C }
  - { offset: 0x1B860, size: 0x8, addend: 0x0, symName: __RINvYINtNtNtCs85QQFkKrybG_4core5slice4iter4IterTRNtNtCscwCr4GBBztI_3syn11restriction10VisibilityNtCsfwj6t2KTYdc_11proc_macro211TokenStreamRNtNtBP_2ty4TypeEENtNtNtNtBa_4iter6traits8iterator8Iterator3mapRB2c_NCNCNCNvMs5_Cs4oBEgEuuqV9_15zerocopy_deriveINtB3u_16ImplBlockBuilderNtNtBP_6derive8DataEnumE5builds0_000EB3u_, symObjAddr: 0x16D4, symBinAddr: 0x1C4B4, symSize: 0x1C }
  - { offset: 0x1B8B8, size: 0x8, addend: 0x0, symName: __RINvYINtNtNtCs85QQFkKrybG_4core5slice4iter4IterTRNtNtCscwCr4GBBztI_3syn11restriction10VisibilityNtCsfwj6t2KTYdc_11proc_macro211TokenStreamRNtNtBP_2ty4TypeEENtNtNtNtBa_4iter6traits8iterator8Iterator3mapRB2c_NCNCNCNvMs5_Cs4oBEgEuuqV9_15zerocopy_deriveINtB3u_16ImplBlockBuilderNtNtBP_6derive9DataUnionE5builds0_000EB3u_, symObjAddr: 0x16F0, symBinAddr: 0x1C4D0, symSize: 0x1C }
  - { offset: 0x1B910, size: 0x8, addend: 0x0, symName: __RINvYINtNtNtCs85QQFkKrybG_4core5slice4iter4IterTRNtNtCscwCr4GBBztI_3syn11restriction10VisibilityNtCsfwj6t2KTYdc_11proc_macro211TokenStreamRNtNtBP_2ty4TypeEENtNtNtNtBa_4iter6traits8iterator8Iterator3mapRB2c_NCNCNvCs4oBEgEuuqV9_15zerocopy_derive27derive_try_from_bytes_union0s_0EB3o_, symObjAddr: 0x170C, symBinAddr: 0x1C4EC, symSize: 0x1C }
  - { offset: 0x1B968, size: 0x8, addend: 0x0, symName: __RINvYINtNtNtCs85QQFkKrybG_4core5slice4iter4IterTRNtNtCscwCr4GBBztI_3syn11restriction10VisibilityNtCsfwj6t2KTYdc_11proc_macro211TokenStreamRNtNtBP_2ty4TypeEENtNtNtNtBa_4iter6traits8iterator8Iterator3mapRB2c_NCNCNvCs4oBEgEuuqV9_15zerocopy_derive28derive_try_from_bytes_struct0s_0EB3o_, symObjAddr: 0x1728, symBinAddr: 0x1C508, symSize: 0x1C }
  - { offset: 0x1B9C0, size: 0x8, addend: 0x0, symName: __RINvYINtNtNtCs85QQFkKrybG_4core5slice4iter4IterTRNtNtCscwCr4GBBztI_3syn11restriction10VisibilityNtCsfwj6t2KTYdc_11proc_macro211TokenStreamRNtNtBP_2ty4TypeEENtNtNtNtBa_4iter6traits8iterator8Iterator3mapRB2c_NCNvCs4oBEgEuuqV9_15zerocopy_derive25derive_known_layout_inner0EB3m_, symObjAddr: 0x1744, symBinAddr: 0x1C524, symSize: 0x1C }
  - { offset: 0x1BA8F, size: 0x8, addend: 0x0, symName: __RNvXNtNtNtCs85QQFkKrybG_4core4iter6traits7collectINtNtNtB8_5slice4iter4IterINtNtNtCs4oBEgEuuqV9_15zerocopy_derive4repr4util7SpannedNtB1g_7RawReprEENtB2_12IntoIterator9into_iterB1i_, symObjAddr: 0x5CBC, symBinAddr: 0x20A78, symSize: 0x1C }
  - { offset: 0x1BAC6, size: 0x8, addend: 0x0, symName: __RNvXNtNtNtCs85QQFkKrybG_4core4iter6traits7collectINtNtNtB8_5slice4iter4IterNtNtCscwCr4GBBztI_3syn8generics14WherePredicateENtB2_12IntoIterator9into_iterCs4oBEgEuuqV9_15zerocopy_derive, symObjAddr: 0x5CD8, symBinAddr: 0x20A94, symSize: 0x1C }
  - { offset: 0x1C158, size: 0x8, addend: 0x0, symName: __RNvYINtNtNtCs85QQFkKrybG_4core5slice4iter4IterNtCsfwj6t2KTYdc_11proc_macro25IdentENtNtNtNtB9_4iter8adapters3zip27TrustedRandomAccessNoCoerce4sizeCs4oBEgEuuqV9_15zerocopy_derive, symObjAddr: 0x6BB8, symBinAddr: 0x21974, symSize: 0x2C }
  - { offset: 0x1C18F, size: 0x8, addend: 0x0, symName: __RNvYINtNtNtCs85QQFkKrybG_4core5slice4iter4IterTRNtNtCscwCr4GBBztI_3syn11restriction10VisibilityNtCsfwj6t2KTYdc_11proc_macro211TokenStreamRNtNtBO_2ty4TypeEENtNtNtNtB9_4iter8adapters3zip27TrustedRandomAccessNoCoerce4sizeCs4oBEgEuuqV9_15zerocopy_derive, symObjAddr: 0x6BE4, symBinAddr: 0x219A0, symSize: 0x2C }
  - { offset: 0x1C2B3, size: 0x8, addend: 0x0, symName: __RNvXs1_NtCs85QQFkKrybG_4core7convertINtNtCs4oBEgEuuqV9_15zerocopy_derive4repr17FromRawReprsErrorNtBB_20UnsupportedReprErrorEINtB5_4IntoNtBB_14FromAttrsErrorE4intoBD_, symObjAddr: 0x5F84, symBinAddr: 0x20D40, symSize: 0x20 }
  - { offset: 0x1C2F3, size: 0x8, addend: 0x0, symName: __RNvXs1_NtCs85QQFkKrybG_4core7convertNtNtCs4oBEgEuuqV9_15zerocopy_derive4repr21UnrecognizedReprErrorINtB5_4IntoNtBA_14FromAttrsErrorE4intoBC_, symObjAddr: 0x5FA4, symBinAddr: 0x20D60, symSize: 0x1C }
  - { offset: 0x1CEAB, size: 0x8, addend: 0x0, symName: __RNvXs1_NtNtNtCs85QQFkKrybG_4core3ops8function5implsQNCNvMsa_NtCs4oBEgEuuqV9_15zerocopy_derive4reprINtBW_4ReprNtBW_13PrimitiveReprNtNtBb_7convert10InfallibleE16from_attrs_inner0INtB7_5FnMutTRINtNtBW_4util7SpannedNtBW_7RawReprEEE8call_mutBY_, symObjAddr: 0x5FC0, symBinAddr: 0x20D7C, symSize: 0x30 }
  - { offset: 0x1CEFA, size: 0x8, addend: 0x0, symName: __RNvXs1_NtNtNtCs85QQFkKrybG_4core3ops8function5implsQNCNvMsa_NtCs4oBEgEuuqV9_15zerocopy_derive4reprINtBW_4ReprNtNtBb_7convert10InfallibleINtNtNtBb_3num7nonzero7NonZeromEE16from_attrs_inner0INtB7_5FnMutTRINtNtBW_4util7SpannedNtBW_7RawReprEEE8call_mutBY_, symObjAddr: 0x5FF0, symBinAddr: 0x20DAC, symSize: 0x30 }
  - { offset: 0x234C2, size: 0x8, addend: 0x0, symName: __RNvMNtCs4oBEgEuuqV9_15zerocopy_derive4reprINtB2_4ReprNtB2_13PrimitiveReprNtNtCs85QQFkKrybG_4core7convert10InfallibleE12is_primitiveB4_, symObjAddr: 0x30D0, symBinAddr: 0x1DE8C, symSize: 0xB8 }
  - { offset: 0x23513, size: 0x8, addend: 0x0, symName: __RNvMNtCs4oBEgEuuqV9_15zerocopy_derive4reprINtB2_4ReprNtB2_13PrimitiveReprNtNtCs85QQFkKrybG_4core7convert10InfallibleE14repr_type_nameB4_, symObjAddr: 0x3188, symBinAddr: 0x1DF44, symSize: 0x168 }
  - { offset: 0x235BE, size: 0x8, addend: 0x0, symName: __RNvMNtCs4oBEgEuuqV9_15zerocopy_derive4reprINtB2_4ReprNtB2_13PrimitiveReprNtNtCs85QQFkKrybG_4core7convert10InfallibleE32unaligned_validate_no_align_gt_1B4_, symObjAddr: 0x32F0, symBinAddr: 0x1E0AC, symSize: 0xBC }
  - { offset: 0x2360F, size: 0x8, addend: 0x0, symName: __RNvMNtCs4oBEgEuuqV9_15zerocopy_derive4reprINtB2_4ReprNtB2_13PrimitiveReprNtNtCs85QQFkKrybG_4core7convert10InfallibleE4is_cB4_, symObjAddr: 0x33AC, symBinAddr: 0x1E168, symSize: 0xB4 }
  - { offset: 0x23660, size: 0x8, addend: 0x0, symName: __RNvMNtCs4oBEgEuuqV9_15zerocopy_derive4reprINtB2_4ReprNtB2_13PrimitiveReprNtNtCs85QQFkKrybG_4core7convert10InfallibleE9get_alignB4_, symObjAddr: 0x3460, symBinAddr: 0x1E21C, symSize: 0xC8 }
  - { offset: 0x236D2, size: 0x8, addend: 0x0, symName: __RNvMNtCs4oBEgEuuqV9_15zerocopy_derive4reprINtB2_4ReprNtNtCs85QQFkKrybG_4core7convert10InfallibleINtNtNtBT_3num7nonzero7NonZeromEE10get_packedB4_, symObjAddr: 0x3528, symBinAddr: 0x1E2E4, symSize: 0xB8 }
  - { offset: 0x2371B, size: 0x8, addend: 0x0, symName: __RNvMNtCs4oBEgEuuqV9_15zerocopy_derive4reprINtB2_4ReprNtNtCs85QQFkKrybG_4core7convert10InfallibleINtNtNtBT_3num7nonzero7NonZeromEE13is_align_gt_1B4_, symObjAddr: 0x35E0, symBinAddr: 0x1E39C, symSize: 0x44 }
  - { offset: 0x2374F, size: 0x8, addend: 0x0, symName: __RNvMNtCs4oBEgEuuqV9_15zerocopy_derive4reprINtB2_4ReprNtNtCs85QQFkKrybG_4core7convert10InfallibleINtNtNtBT_3num7nonzero7NonZeromEE14is_transparentB4_, symObjAddr: 0x3624, symBinAddr: 0x1E3E0, symSize: 0x68 }
  - { offset: 0x23783, size: 0x8, addend: 0x0, symName: __RNvMNtCs4oBEgEuuqV9_15zerocopy_derive4reprINtB2_4ReprNtNtCs85QQFkKrybG_4core7convert10InfallibleINtNtNtBT_3num7nonzero7NonZeromEE32unaligned_validate_no_align_gt_1B4_, symObjAddr: 0x368C, symBinAddr: 0x1E448, symSize: 0xBC }
  - { offset: 0x237D4, size: 0x8, addend: 0x0, symName: __RNvMNtCs4oBEgEuuqV9_15zerocopy_derive4reprINtB2_4ReprNtNtCs85QQFkKrybG_4core7convert10InfallibleINtNtNtBT_3num7nonzero7NonZeromEE4is_cB4_, symObjAddr: 0x3748, symBinAddr: 0x1E504, symSize: 0x98 }
  - { offset: 0x23825, size: 0x8, addend: 0x0, symName: __RNvMNtCs4oBEgEuuqV9_15zerocopy_derive4reprINtB2_4ReprNtNtCs85QQFkKrybG_4core7convert10InfallibleINtNtNtBT_3num7nonzero7NonZeromEE9get_alignB4_, symObjAddr: 0x37E0, symBinAddr: 0x1E59C, symSize: 0xDC }
  - { offset: 0x2388A, size: 0x8, addend: 0x0, symName: __RNvMs0_NtCs4oBEgEuuqV9_15zerocopy_derive4reprINtB5_4ReprNtB5_13PrimitiveReprNtNtCs85QQFkKrybG_4core7convert10InfallibleE13get_primitiveB7_, symObjAddr: 0x38BC, symBinAddr: 0x1E678, symSize: 0xBC }
  - { offset: 0x238D9, size: 0x8, addend: 0x0, symName: __RNvMs0_NtCs4oBEgEuuqV9_15zerocopy_derive4reprINtB5_4ReprNtB5_13PrimitiveReprNtNtCs85QQFkKrybG_4core7convert10InfallibleE5is_i8B7_, symObjAddr: 0x3978, symBinAddr: 0x1E734, symSize: 0x90 }
  - { offset: 0x23904, size: 0x8, addend: 0x0, symName: __RNvMs0_NtCs4oBEgEuuqV9_15zerocopy_derive4reprINtB5_4ReprNtB5_13PrimitiveReprNtNtCs85QQFkKrybG_4core7convert10InfallibleE5is_u8B7_, symObjAddr: 0x3A08, symBinAddr: 0x1E7C4, symSize: 0x8C }
  - { offset: 0x239F8, size: 0x8, addend: 0x0, symName: __RNvMs4_NtNtCs85QQFkKrybG_4core5slice4iterINtB5_4IterINtNtCsdFlNUEO95cG_5alloc3vec3VecTRNtNtCscwCr4GBBztI_3syn11restriction10VisibilityNtCsfwj6t2KTYdc_11proc_macro211TokenStreamRNtNtB1r_2ty4TypeEEE3newCs4oBEgEuuqV9_15zerocopy_derive, symObjAddr: 0x3A94, symBinAddr: 0x1E850, symSize: 0x58 }
  - { offset: 0x23BC2, size: 0x8, addend: 0x0, symName: __RNvMs4_NtNtCs85QQFkKrybG_4core5slice4iterINtB5_4IterINtNtNtCs4oBEgEuuqV9_15zerocopy_derive4repr4util7SpannedNtBT_7RawReprEE3newBV_, symObjAddr: 0x3AEC, symBinAddr: 0x1E8A8, symSize: 0x58 }
  - { offset: 0x23D4B, size: 0x8, addend: 0x0, symName: __RNvMs4_NtNtCs85QQFkKrybG_4core5slice4iterINtB5_4IterNtCs4oBEgEuuqV9_15zerocopy_derive10TraitBoundE3newBQ_, symObjAddr: 0x3B44, symBinAddr: 0x1E900, symSize: 0x50 }
  - { offset: 0x23F08, size: 0x8, addend: 0x0, symName: __RNvMs4_NtNtCs85QQFkKrybG_4core5slice4iterINtB5_4IterNtCs4oBEgEuuqV9_15zerocopy_derive5TraitE3newBQ_, symObjAddr: 0x3B94, symBinAddr: 0x1E950, symSize: 0x50 }
  - { offset: 0x240B8, size: 0x8, addend: 0x0, symName: __RNvMs4_NtNtCs85QQFkKrybG_4core5slice4iterINtB5_4IterNtCsfwj6t2KTYdc_11proc_macro25IdentE3newCs4oBEgEuuqV9_15zerocopy_derive, symObjAddr: 0x3BE4, symBinAddr: 0x1E9A0, symSize: 0x58 }
  - { offset: 0x24282, size: 0x8, addend: 0x0, symName: __RNvMs4_NtNtCs85QQFkKrybG_4core5slice4iterINtB5_4IterNtNtCscwCr4GBBztI_3syn8generics14WherePredicateE3newCs4oBEgEuuqV9_15zerocopy_derive, symObjAddr: 0x3C3C, symBinAddr: 0x1E9F8, symSize: 0x58 }
  - { offset: 0x24425, size: 0x8, addend: 0x0, symName: __RNvMs4_NtNtCs85QQFkKrybG_4core5slice4iterINtB5_4IterTRNtNtCscwCr4GBBztI_3syn11restriction10VisibilityNtCsfwj6t2KTYdc_11proc_macro211TokenStreamRNtNtBU_2ty4TypeEE3newCs4oBEgEuuqV9_15zerocopy_derive, symObjAddr: 0x3C94, symBinAddr: 0x1EA50, symSize: 0x58 }
  - { offset: 0x24526, size: 0x8, addend: 0x0, symName: __RNvMs_NtCs4oBEgEuuqV9_15zerocopy_derive4reprINtB4_4ReprNtNtCs85QQFkKrybG_4core7convert10InfallibleINtNtNtBV_3num7nonzero7NonZeromEE11is_packed_1B6_, symObjAddr: 0x3CEC, symBinAddr: 0x1EAA8, symSize: 0x44 }
  - { offset: 0x24578, size: 0x8, addend: 0x0, symName: __RNvMsa_NtCs4oBEgEuuqV9_15zerocopy_derive4reprINtB5_4ReprNtB5_13PrimitiveReprNtNtCs85QQFkKrybG_4core7convert10InfallibleE16from_attrs_innerB7_, symObjAddr: 0x3D30, symBinAddr: 0x1EAEC, symSize: 0x6E0 }
  - { offset: 0x24740, size: 0x8, addend: 0x0, symName: __RNvMsa_NtCs4oBEgEuuqV9_15zerocopy_derive4reprINtB5_4ReprNtNtCs85QQFkKrybG_4core7convert10InfallibleINtNtNtBW_3num7nonzero7NonZeromEE16from_attrs_innerB7_, symObjAddr: 0x4410, symBinAddr: 0x1F1CC, symSize: 0x718 }
  - { offset: 0x24908, size: 0x8, addend: 0x0, symName: __RNvMsb_NtCs4oBEgEuuqV9_15zerocopy_derive4reprINtB5_4ReprNtB5_13PrimitiveReprNtNtCs85QQFkKrybG_4core7convert10InfallibleE10from_attrsB7_, symObjAddr: 0x4B28, symBinAddr: 0x1F8E4, symSize: 0x50 }
  - { offset: 0x2493D, size: 0x8, addend: 0x0, symName: __RNvMsb_NtCs4oBEgEuuqV9_15zerocopy_derive4reprINtB5_4ReprNtNtCs85QQFkKrybG_4core7convert10InfallibleINtNtNtBW_3num7nonzero7NonZeromEE10from_attrsB7_, symObjAddr: 0x4B78, symBinAddr: 0x1F934, symSize: 0x50 }
  - { offset: 0x24972, size: 0x8, addend: 0x0, symName: __RNvMsc_NtCs4oBEgEuuqV9_15zerocopy_derive4reprNtB5_7RawRepr10from_attrs, symObjAddr: 0x4BC8, symBinAddr: 0x1F984, symSize: 0x5E0 }
  - { offset: 0x24A9E, size: 0x8, addend: 0x0, symName: __RNvMsc_NtCs4oBEgEuuqV9_15zerocopy_derive4reprNtB5_7RawRepr9from_meta, symObjAddr: 0x51A8, symBinAddr: 0x1FF64, symSize: 0xB14 }
  - { offset: 0x252EB, size: 0x8, addend: 0x0, symName: __RINvMNtCsdFlNUEO95cG_5alloc5sliceSINtNtB5_3vec3VecTRNtNtCscwCr4GBBztI_3syn11restriction10VisibilityNtCsfwj6t2KTYdc_11proc_macro211TokenStreamRNtNtBS_2ty4TypeEE8into_vecNtNtB5_5alloc6GlobalECs4oBEgEuuqV9_15zerocopy_derive, symObjAddr: 0x0, symBinAddr: 0x219CC, symSize: 0x4C }
  - { offset: 0x29C0E, size: 0x8, addend: 0x0, symName: __RNvMNtCs85QQFkKrybG_4core5sliceSINtNtCsdFlNUEO95cG_5alloc3vec3VecTRNtNtCscwCr4GBBztI_3syn11restriction10VisibilityNtCsfwj6t2KTYdc_11proc_macro211TokenStreamRNtNtB17_2ty4TypeEE4iterCs4oBEgEuuqV9_15zerocopy_derive, symObjAddr: 0x187C, symBinAddr: 0x23248, symSize: 0x28 }
  - { offset: 0x2B651, size: 0x8, addend: 0x0, symName: __RINvXsd_NtCsdFlNUEO95cG_5alloc3vecINtB6_3VecIBx_TRNtNtCscwCr4GBBztI_3syn11restriction10VisibilityNtCsfwj6t2KTYdc_11proc_macro211TokenStreamRNtNtBQ_2ty4TypeEEEINtNtNtNtCs85QQFkKrybG_4core4iter6traits7collect12FromIteratorBG_E9from_iterINtNtNtB2D_8adapters3map3MapINtNtBQ_10punctuated4IterNtNtBQ_4data7VariantENCNvXs0_NtCs4oBEgEuuqV9_15zerocopy_derive3extNtNtBQ_6derive8DataEnumNtB54_7DataExt8variants0EEB56_, symObjAddr: 0x1444, symBinAddr: 0x22E10, symSize: 0x40 }
  - { offset: 0x2B691, size: 0x8, addend: 0x0, symName: __RINvXsd_NtCsdFlNUEO95cG_5alloc3vecINtB6_3VecNtCsfwj6t2KTYdc_11proc_macro25IdentEINtNtNtNtCs85QQFkKrybG_4core4iter6traits7collect12FromIteratorBG_E9from_iterINtNtNtB1n_8adapters3map3MapINtNtNtB1p_5slice4iter4IterTRNtNtCscwCr4GBBztI_3syn11restriction10VisibilityNtBI_11TokenStreamRNtNtB3t_2ty4TypeEENCNvCs4oBEgEuuqV9_15zerocopy_derive25derive_known_layout_inners5_0EEB4P_, symObjAddr: 0x1484, symBinAddr: 0x22E50, symSize: 0x3C }
  - { offset: 0x2B6D2, size: 0x8, addend: 0x0, symName: __RINvXsd_NtCsdFlNUEO95cG_5alloc3vecINtB6_3VecNtNtCscwCr4GBBztI_3syn8generics14WherePredicateEINtNtNtNtCs85QQFkKrybG_4core4iter6traits7collect12FromIteratorBG_E9from_iterINtNtNtB1z_8adapters3map3MapINtNtBK_10punctuated4IterNtNtBK_4data5FieldENCNvCs4oBEgEuuqV9_15zerocopy_derive22derive_from_zeros_enum0EEB3U_, symObjAddr: 0x14C0, symBinAddr: 0x22E8C, symSize: 0x3C }
  - { offset: 0x2B713, size: 0x8, addend: 0x0, symName: __RINvXsd_NtCsdFlNUEO95cG_5alloc3vecINtB6_3VecNtNtCscwCr4GBBztI_3syn8generics14WherePredicateEINtNtNtNtCs85QQFkKrybG_4core4iter6traits7collect12FromIteratorBG_E9from_iterINtNtNtB1z_8adapters3map3MapINtNtNtB1B_5slice4iter4IterTRNtNtBK_11restriction10VisibilityNtCsfwj6t2KTYdc_11proc_macro211TokenStreamRNtNtBK_2ty4TypeEENCNvMs5_Cs4oBEgEuuqV9_15zerocopy_deriveINtB5d_16ImplBlockBuilderNtNtBK_6derive10DataStructE5build0EEB5d_, symObjAddr: 0x14FC, symBinAddr: 0x22EC8, symSize: 0x3C }
  - { offset: 0x2B754, size: 0x8, addend: 0x0, symName: __RINvXsd_NtCsdFlNUEO95cG_5alloc3vecINtB6_3VecNtNtCscwCr4GBBztI_3syn8generics14WherePredicateEINtNtNtNtCs85QQFkKrybG_4core4iter6traits7collect12FromIteratorBG_E9from_iterINtNtNtB1z_8adapters3map3MapINtNtNtB1B_5slice4iter4IterTRNtNtBK_11restriction10VisibilityNtCsfwj6t2KTYdc_11proc_macro211TokenStreamRNtNtBK_2ty4TypeEENCNvMs5_Cs4oBEgEuuqV9_15zerocopy_deriveINtB5d_16ImplBlockBuilderNtNtBK_6derive4DataE5build0EEB5d_, symObjAddr: 0x1538, symBinAddr: 0x22F04, symSize: 0x3C }
  - { offset: 0x2B795, size: 0x8, addend: 0x0, symName: __RINvXsd_NtCsdFlNUEO95cG_5alloc3vecINtB6_3VecNtNtCscwCr4GBBztI_3syn8generics14WherePredicateEINtNtNtNtCs85QQFkKrybG_4core4iter6traits7collect12FromIteratorBG_E9from_iterINtNtNtB1z_8adapters3map3MapINtNtNtB1B_5slice4iter4IterTRNtNtBK_11restriction10VisibilityNtCsfwj6t2KTYdc_11proc_macro211TokenStreamRNtNtBK_2ty4TypeEENCNvMs5_Cs4oBEgEuuqV9_15zerocopy_deriveINtB5d_16ImplBlockBuilderNtNtBK_6derive8DataEnumE5build0EEB5d_, symObjAddr: 0x1574, symBinAddr: 0x22F40, symSize: 0x3C }
  - { offset: 0x2B7D6, size: 0x8, addend: 0x0, symName: __RINvXsd_NtCsdFlNUEO95cG_5alloc3vecINtB6_3VecNtNtCscwCr4GBBztI_3syn8generics14WherePredicateEINtNtNtNtCs85QQFkKrybG_4core4iter6traits7collect12FromIteratorBG_E9from_iterINtNtNtB1z_8adapters3map3MapINtNtNtB1B_5slice4iter4IterTRNtNtBK_11restriction10VisibilityNtCsfwj6t2KTYdc_11proc_macro211TokenStreamRNtNtBK_2ty4TypeEENCNvMs5_Cs4oBEgEuuqV9_15zerocopy_deriveINtB5d_16ImplBlockBuilderNtNtBK_6derive9DataUnionE5build0EEB5d_, symObjAddr: 0x15B0, symBinAddr: 0x22F7C, symSize: 0x3C }
  - { offset: 0x2B817, size: 0x8, addend: 0x0, symName: __RINvXsd_NtCsdFlNUEO95cG_5alloc3vecINtB6_3VecTRNtNtCscwCr4GBBztI_3syn11restriction10VisibilityNtCsfwj6t2KTYdc_11proc_macro211TokenStreamRNtNtBM_2ty4TypeEEINtNtNtNtCs85QQFkKrybG_4core4iter6traits7collect12FromIteratorBG_E9from_iterINtNtNtB2y_8adapters3map3MapINtNtB3K_9enumerate9EnumerateINtNtB3K_7flatten7FlatMapINtNtBM_10punctuated4IterNtNtBM_4data7VariantERNtB5q_6FieldsNCNvXs0_NtCs4oBEgEuuqV9_15zerocopy_derive3extNtNtBM_6derive8DataEnumNtB65_7DataExt6fields0EENCINvB65_10map_fieldsB4A_E0EEB67_, symObjAddr: 0x15EC, symBinAddr: 0x22FB8, symSize: 0x3C }
  - { offset: 0x2B858, size: 0x8, addend: 0x0, symName: __RINvXsd_NtCsdFlNUEO95cG_5alloc3vecINtB6_3VecTRNtNtCscwCr4GBBztI_3syn11restriction10VisibilityNtCsfwj6t2KTYdc_11proc_macro211TokenStreamRNtNtBM_2ty4TypeEEINtNtNtNtCs85QQFkKrybG_4core4iter6traits7collect12FromIteratorBG_E9from_iterINtNtNtB2y_8adapters3map3MapINtNtB3K_9enumerate9EnumerateINtNtBM_10punctuated4IterNtNtBM_4data5FieldEENCINvNtCs4oBEgEuuqV9_15zerocopy_derive3ext10map_fieldsRINtB4D_10PunctuatedB4Z_NtNtBM_5token5CommaEE0EEB5q_, symObjAddr: 0x1628, symBinAddr: 0x22FF4, symSize: 0x3C }
  - { offset: 0x2B899, size: 0x8, addend: 0x0, symName: __RINvXsd_NtCsdFlNUEO95cG_5alloc3vecINtB6_3VecTRNtNtCscwCr4GBBztI_3syn11restriction10VisibilityNtCsfwj6t2KTYdc_11proc_macro211TokenStreamRNtNtBM_2ty4TypeEEINtNtNtNtCs85QQFkKrybG_4core4iter6traits7collect12FromIteratorBG_E9from_iterINtNtNtB2y_8adapters3map3MapINtNtB3K_9enumerate9EnumerateINtNtBM_10punctuated4IterNtNtBM_4data5FieldEENCINvNtCs4oBEgEuuqV9_15zerocopy_derive3ext10map_fieldsRNtB51_6FieldsE0EEB5q_, symObjAddr: 0x1664, symBinAddr: 0x23030, symSize: 0x3C }
  - { offset: 0x2B8E0, size: 0x8, addend: 0x0, symName: __RINvXsh_NtCsdFlNUEO95cG_5alloc3vecINtB6_3VecNtCsfwj6t2KTYdc_11proc_macro29TokenTreeEINtNtNtNtCs85QQFkKrybG_4core4iter6traits7collect6ExtendBG_E6extendINtNtNtB1r_8adapters7flatten7FlattenINtNtB2t_3map3MapIB2Z_INtNtNtB1t_5array4iter8IntoIterNtBI_11TokenStreamKj2_ENCINvXs7_BI_B3P_INtB1n_12FromIteratorB3P_E9from_iterB3k_E0ENCINvXs6_NtBI_3impNtB5i_11TokenStreamIB4t_B5r_E9from_iterB3f_Es_0EEECs4oBEgEuuqV9_15zerocopy_derive, symObjAddr: 0x16A0, symBinAddr: 0x2306C, symSize: 0x48 }
  - { offset: 0x2B940, size: 0x8, addend: 0x0, symName: __RNCINvMsi_NtCsdFlNUEO95cG_5alloc3vecINtB8_3VecNtCsfwj6t2KTYdc_11proc_macro25IdentE14extend_trustedINtNtNtNtCs85QQFkKrybG_4core4iter8adapters3map3MapINtNtNtB1H_5slice4iter4IterTRNtNtCscwCr4GBBztI_3syn11restriction10VisibilityNtBK_11TokenStreamRNtNtB2T_2ty4TypeEENCNvCs4oBEgEuuqV9_15zerocopy_derive25derive_known_layout_inners5_0EE0B4f_, symObjAddr: 0x16E8, symBinAddr: 0x230B4, symSize: 0x44 }
  - { offset: 0x2B9ED, size: 0x8, addend: 0x0, symName: __RNCINvMsi_NtCsdFlNUEO95cG_5alloc3vecINtB8_3VecNtNtCscwCr4GBBztI_3syn8generics14WherePredicateE14extend_trustedINtNtNtNtCs85QQFkKrybG_4core4iter8adapters3map3MapINtNtNtB1T_5slice4iter4IterTRNtNtBM_11restriction10VisibilityNtCsfwj6t2KTYdc_11proc_macro211TokenStreamRNtNtBM_2ty4TypeEENCNvMs5_Cs4oBEgEuuqV9_15zerocopy_deriveINtB4D_16ImplBlockBuilderNtNtBM_6derive10DataStructE5build0EE0B4D_, symObjAddr: 0x172C, symBinAddr: 0x230F8, symSize: 0x54 }
  - { offset: 0x2BAAB, size: 0x8, addend: 0x0, symName: __RNCINvMsi_NtCsdFlNUEO95cG_5alloc3vecINtB8_3VecNtNtCscwCr4GBBztI_3syn8generics14WherePredicateE14extend_trustedINtNtNtNtCs85QQFkKrybG_4core4iter8adapters3map3MapINtNtNtB1T_5slice4iter4IterTRNtNtBM_11restriction10VisibilityNtCsfwj6t2KTYdc_11proc_macro211TokenStreamRNtNtBM_2ty4TypeEENCNvMs5_Cs4oBEgEuuqV9_15zerocopy_deriveINtB4D_16ImplBlockBuilderNtNtBM_6derive4DataE5build0EE0B4D_, symObjAddr: 0x1780, symBinAddr: 0x2314C, symSize: 0x54 }
  - { offset: 0x2BB69, size: 0x8, addend: 0x0, symName: __RNCINvMsi_NtCsdFlNUEO95cG_5alloc3vecINtB8_3VecNtNtCscwCr4GBBztI_3syn8generics14WherePredicateE14extend_trustedINtNtNtNtCs85QQFkKrybG_4core4iter8adapters3map3MapINtNtNtB1T_5slice4iter4IterTRNtNtBM_11restriction10VisibilityNtCsfwj6t2KTYdc_11proc_macro211TokenStreamRNtNtBM_2ty4TypeEENCNvMs5_Cs4oBEgEuuqV9_15zerocopy_deriveINtB4D_16ImplBlockBuilderNtNtBM_6derive8DataEnumE5build0EE0B4D_, symObjAddr: 0x17D4, symBinAddr: 0x231A0, symSize: 0x54 }
  - { offset: 0x2BC27, size: 0x8, addend: 0x0, symName: __RNCINvMsi_NtCsdFlNUEO95cG_5alloc3vecINtB8_3VecNtNtCscwCr4GBBztI_3syn8generics14WherePredicateE14extend_trustedINtNtNtNtCs85QQFkKrybG_4core4iter8adapters3map3MapINtNtNtB1T_5slice4iter4IterTRNtNtBM_11restriction10VisibilityNtCsfwj6t2KTYdc_11proc_macro211TokenStreamRNtNtBM_2ty4TypeEENCNvMs5_Cs4oBEgEuuqV9_15zerocopy_deriveINtB4D_16ImplBlockBuilderNtNtBM_6derive9DataUnionE5build0EE0B4D_, symObjAddr: 0x1828, symBinAddr: 0x231F4, symSize: 0x54 }
  - { offset: 0x2C185, size: 0x8, addend: 0x0, symName: __RNvNvMs_NtCsdFlNUEO95cG_5alloc3vecINtB6_3VecppE17from_raw_parts_in18precondition_checkCs4oBEgEuuqV9_15zerocopy_derive, symObjAddr: 0x2558, symBinAddr: 0x23F24, symSize: 0xAC }
  - { offset: 0x2C1F3, size: 0x8, addend: 0x0, symName: __RNvNvMs_NtCsdFlNUEO95cG_5alloc3vecINtB6_3VecppE7set_len18precondition_checkCs4oBEgEuuqV9_15zerocopy_derive, symObjAddr: 0x2604, symBinAddr: 0x23FD0, symSize: 0xAC }
  - { offset: 0x2C267, size: 0x8, addend: 0x0, symName: __RNvXNtNtCsdFlNUEO95cG_5alloc3vec11spec_extendINtB4_3VecIBI_TRNtNtCscwCr4GBBztI_3syn11restriction10VisibilityNtCsfwj6t2KTYdc_11proc_macro211TokenStreamRNtNtB11_2ty4TypeEEEINtB2_10SpecExtendBR_INtNtNtNtCs85QQFkKrybG_4core4iter8adapters3map3MapINtNtB11_10punctuated4IterNtNtB11_4data7VariantENCNvXs0_NtCs4oBEgEuuqV9_15zerocopy_derive3extNtNtB11_6derive8DataEnumNtB4L_7DataExt8variants0EE11spec_extendB4N_, symObjAddr: 0x26B0, symBinAddr: 0x2407C, symSize: 0x34 }
  - { offset: 0x2C2B8, size: 0x8, addend: 0x0, symName: __RNvXNtNtCsdFlNUEO95cG_5alloc3vec11spec_extendINtB4_3VecNtCsfwj6t2KTYdc_11proc_macro29TokenTreeEINtB2_10SpecExtendBR_INtNtNtNtCs85QQFkKrybG_4core4iter8adapters7flatten7FlattenINtNtB1V_3map3MapIB2N_INtNtNtB1Z_5array4iter8IntoIterNtBT_11TokenStreamKj2_ENCINvXs7_BT_B3D_INtNtNtB1X_6traits7collect12FromIteratorB3D_E9from_iterB38_E0ENCINvXs6_NtBT_3impNtB5p_11TokenStreamIB4h_B5y_E9from_iterB33_Es_0EEE11spec_extendCs4oBEgEuuqV9_15zerocopy_derive, symObjAddr: 0x26E4, symBinAddr: 0x240B0, symSize: 0x24 }
  - { offset: 0x2C30A, size: 0x8, addend: 0x0, symName: __RNvXNtNtCsdFlNUEO95cG_5alloc3vec11spec_extendINtB4_3VecNtNtCscwCr4GBBztI_3syn8generics14WherePredicateEINtB2_10SpecExtendBR_INtNtNtNtCs85QQFkKrybG_4core4iter8adapters3map3MapINtNtBV_10punctuated4IterNtNtBV_4data5FieldENCNvCs4oBEgEuuqV9_15zerocopy_derive22derive_from_zeros_enum0EE11spec_extendB3y_, symObjAddr: 0x2708, symBinAddr: 0x240D4, symSize: 0x24 }
  - { offset: 0x2C35C, size: 0x8, addend: 0x0, symName: __RNvXNtNtCsdFlNUEO95cG_5alloc3vec11spec_extendINtB4_3VecTRNtNtCscwCr4GBBztI_3syn11restriction10VisibilityNtCsfwj6t2KTYdc_11proc_macro211TokenStreamRNtNtBX_2ty4TypeEEINtB2_10SpecExtendBR_INtNtNtNtCs85QQFkKrybG_4core4iter8adapters3map3MapINtNtB32_9enumerate9EnumerateINtNtB32_7flatten7FlatMapINtNtBX_10punctuated4IterNtNtBX_4data7VariantERNtB54_6FieldsNCNvXs0_NtCs4oBEgEuuqV9_15zerocopy_derive3extNtNtBX_6derive8DataEnumNtB5J_7DataExt6fields0EENCINvB5J_10map_fieldsB4e_E0EE11spec_extendB5L_, symObjAddr: 0x272C, symBinAddr: 0x240F8, symSize: 0x24 }
  - { offset: 0x2C3AE, size: 0x8, addend: 0x0, symName: __RNvXNtNtCsdFlNUEO95cG_5alloc3vec11spec_extendINtB4_3VecTRNtNtCscwCr4GBBztI_3syn11restriction10VisibilityNtCsfwj6t2KTYdc_11proc_macro211TokenStreamRNtNtBX_2ty4TypeEEINtB2_10SpecExtendBR_INtNtNtNtCs85QQFkKrybG_4core4iter8adapters3map3MapINtNtB32_9enumerate9EnumerateINtNtBX_10punctuated4IterNtNtBX_4data5FieldEENCINvNtCs4oBEgEuuqV9_15zerocopy_derive3ext10map_fieldsRINtB4h_10PunctuatedB4D_NtNtBX_5token5CommaEE0EE11spec_extendB54_, symObjAddr: 0x2750, symBinAddr: 0x2411C, symSize: 0x24 }
  - { offset: 0x2C400, size: 0x8, addend: 0x0, symName: __RNvXNtNtCsdFlNUEO95cG_5alloc3vec11spec_extendINtB4_3VecTRNtNtCscwCr4GBBztI_3syn11restriction10VisibilityNtCsfwj6t2KTYdc_11proc_macro211TokenStreamRNtNtBX_2ty4TypeEEINtB2_10SpecExtendBR_INtNtNtNtCs85QQFkKrybG_4core4iter8adapters3map3MapINtNtB32_9enumerate9EnumerateINtNtBX_10punctuated4IterNtNtBX_4data5FieldEENCINvNtCs4oBEgEuuqV9_15zerocopy_derive3ext10map_fieldsRNtB4F_6FieldsE0EE11spec_extendB54_, symObjAddr: 0x2774, symBinAddr: 0x24140, symSize: 0x24 }
  - { offset: 0x2C458, size: 0x8, addend: 0x0, symName: __RNvXs_NtNtCsdFlNUEO95cG_5alloc3vec11spec_extendINtB6_3VecNtCsfwj6t2KTYdc_11proc_macro25IdentEINtB4_10SpecExtendBT_INtNtNtNtCs85QQFkKrybG_4core4iter8adapters3map3MapINtNtNtB1X_5slice4iter4IterTRNtNtCscwCr4GBBztI_3syn11restriction10VisibilityNtBV_11TokenStreamRNtNtB39_2ty4TypeEENCNvCs4oBEgEuuqV9_15zerocopy_derive25derive_known_layout_inners5_0EE11spec_extendB4v_, symObjAddr: 0x35C8, symBinAddr: 0x24F94, symSize: 0x24 }
  - { offset: 0x2C4AA, size: 0x8, addend: 0x0, symName: __RNvXs_NtNtCsdFlNUEO95cG_5alloc3vec11spec_extendINtB6_3VecNtNtCscwCr4GBBztI_3syn8generics14WherePredicateEINtB4_10SpecExtendBT_INtNtNtNtCs85QQFkKrybG_4core4iter8adapters3map3MapINtNtNtB29_5slice4iter4IterTRNtNtBX_11restriction10VisibilityNtCsfwj6t2KTYdc_11proc_macro211TokenStreamRNtNtBX_2ty4TypeEENCNvMs5_Cs4oBEgEuuqV9_15zerocopy_deriveINtB4T_16ImplBlockBuilderNtNtBX_6derive10DataStructE5build0EE11spec_extendB4T_, symObjAddr: 0x35EC, symBinAddr: 0x24FB8, symSize: 0x24 }
  - { offset: 0x2C4FC, size: 0x8, addend: 0x0, symName: __RNvXs_NtNtCsdFlNUEO95cG_5alloc3vec11spec_extendINtB6_3VecNtNtCscwCr4GBBztI_3syn8generics14WherePredicateEINtB4_10SpecExtendBT_INtNtNtNtCs85QQFkKrybG_4core4iter8adapters3map3MapINtNtNtB29_5slice4iter4IterTRNtNtBX_11restriction10VisibilityNtCsfwj6t2KTYdc_11proc_macro211TokenStreamRNtNtBX_2ty4TypeEENCNvMs5_Cs4oBEgEuuqV9_15zerocopy_deriveINtB4T_16ImplBlockBuilderNtNtBX_6derive4DataE5build0EE11spec_extendB4T_, symObjAddr: 0x3610, symBinAddr: 0x24FDC, symSize: 0x24 }
  - { offset: 0x2C54E, size: 0x8, addend: 0x0, symName: __RNvXs_NtNtCsdFlNUEO95cG_5alloc3vec11spec_extendINtB6_3VecNtNtCscwCr4GBBztI_3syn8generics14WherePredicateEINtB4_10SpecExtendBT_INtNtNtNtCs85QQFkKrybG_4core4iter8adapters3map3MapINtNtNtB29_5slice4iter4IterTRNtNtBX_11restriction10VisibilityNtCsfwj6t2KTYdc_11proc_macro211TokenStreamRNtNtBX_2ty4TypeEENCNvMs5_Cs4oBEgEuuqV9_15zerocopy_deriveINtB4T_16ImplBlockBuilderNtNtBX_6derive8DataEnumE5build0EE11spec_extendB4T_, symObjAddr: 0x3634, symBinAddr: 0x25000, symSize: 0x24 }
  - { offset: 0x2C5A0, size: 0x8, addend: 0x0, symName: __RNvXs_NtNtCsdFlNUEO95cG_5alloc3vec11spec_extendINtB6_3VecNtNtCscwCr4GBBztI_3syn8generics14WherePredicateEINtB4_10SpecExtendBT_INtNtNtNtCs85QQFkKrybG_4core4iter8adapters3map3MapINtNtNtB29_5slice4iter4IterTRNtNtBX_11restriction10VisibilityNtCsfwj6t2KTYdc_11proc_macro211TokenStreamRNtNtBX_2ty4TypeEENCNvMs5_Cs4oBEgEuuqV9_15zerocopy_deriveINtB4T_16ImplBlockBuilderNtNtBX_6derive9DataUnionE5build0EE11spec_extendB4T_, symObjAddr: 0x3658, symBinAddr: 0x25024, symSize: 0x24 }
  - { offset: 0x2C5FE, size: 0x8, addend: 0x0, symName: __RNvXNtNtCsdFlNUEO95cG_5alloc3vec14spec_from_iterINtB4_3VecIBL_TRNtNtCscwCr4GBBztI_3syn11restriction10VisibilityNtCsfwj6t2KTYdc_11proc_macro211TokenStreamRNtNtB14_2ty4TypeEEEINtB2_12SpecFromIterBU_INtNtNtNtCs85QQFkKrybG_4core4iter8adapters3map3MapINtNtB14_10punctuated4IterNtNtB14_4data7VariantENCNvXs0_NtCs4oBEgEuuqV9_15zerocopy_derive3extNtNtB14_6derive8DataEnumNtB4Q_7DataExt8variants0EE9from_iterB4S_, symObjAddr: 0x2798, symBinAddr: 0x24164, symSize: 0x2C }
  - { offset: 0x2C63C, size: 0x8, addend: 0x0, symName: __RNvXNtNtCsdFlNUEO95cG_5alloc3vec14spec_from_iterINtB4_3VecNtCsfwj6t2KTYdc_11proc_macro25IdentEINtB2_12SpecFromIterBU_INtNtNtNtCs85QQFkKrybG_4core4iter8adapters3map3MapINtNtNtB20_5slice4iter4IterTRNtNtCscwCr4GBBztI_3syn11restriction10VisibilityNtBW_11TokenStreamRNtNtB3c_2ty4TypeEENCNvCs4oBEgEuuqV9_15zerocopy_derive25derive_known_layout_inners5_0EE9from_iterB4y_, symObjAddr: 0x27C4, symBinAddr: 0x24190, symSize: 0x14 }
  - { offset: 0x2C67B, size: 0x8, addend: 0x0, symName: __RNvXNtNtCsdFlNUEO95cG_5alloc3vec14spec_from_iterINtB4_3VecNtNtCscwCr4GBBztI_3syn8generics14WherePredicateEINtB2_12SpecFromIterBU_INtNtNtNtCs85QQFkKrybG_4core4iter8adapters3map3MapINtNtBY_10punctuated4IterNtNtBY_4data5FieldENCNvCs4oBEgEuuqV9_15zerocopy_derive22derive_from_zeros_enum0EE9from_iterB3D_, symObjAddr: 0x27D8, symBinAddr: 0x241A4, symSize: 0x14 }
  - { offset: 0x2C6BA, size: 0x8, addend: 0x0, symName: __RNvXNtNtCsdFlNUEO95cG_5alloc3vec14spec_from_iterINtB4_3VecNtNtCscwCr4GBBztI_3syn8generics14WherePredicateEINtB2_12SpecFromIterBU_INtNtNtNtCs85QQFkKrybG_4core4iter8adapters3map3MapINtNtNtB2c_5slice4iter4IterTRNtNtBY_11restriction10VisibilityNtCsfwj6t2KTYdc_11proc_macro211TokenStreamRNtNtBY_2ty4TypeEENCNvMs5_Cs4oBEgEuuqV9_15zerocopy_deriveINtB4W_16ImplBlockBuilderNtNtBY_6derive10DataStructE5build0EE9from_iterB4W_, symObjAddr: 0x27EC, symBinAddr: 0x241B8, symSize: 0x14 }
  - { offset: 0x2C6F9, size: 0x8, addend: 0x0, symName: __RNvXNtNtCsdFlNUEO95cG_5alloc3vec14spec_from_iterINtB4_3VecNtNtCscwCr4GBBztI_3syn8generics14WherePredicateEINtB2_12SpecFromIterBU_INtNtNtNtCs85QQFkKrybG_4core4iter8adapters3map3MapINtNtNtB2c_5slice4iter4IterTRNtNtBY_11restriction10VisibilityNtCsfwj6t2KTYdc_11proc_macro211TokenStreamRNtNtBY_2ty4TypeEENCNvMs5_Cs4oBEgEuuqV9_15zerocopy_deriveINtB4W_16ImplBlockBuilderNtNtBY_6derive4DataE5build0EE9from_iterB4W_, symObjAddr: 0x2800, symBinAddr: 0x241CC, symSize: 0x14 }
  - { offset: 0x2C738, size: 0x8, addend: 0x0, symName: __RNvXNtNtCsdFlNUEO95cG_5alloc3vec14spec_from_iterINtB4_3VecNtNtCscwCr4GBBztI_3syn8generics14WherePredicateEINtB2_12SpecFromIterBU_INtNtNtNtCs85QQFkKrybG_4core4iter8adapters3map3MapINtNtNtB2c_5slice4iter4IterTRNtNtBY_11restriction10VisibilityNtCsfwj6t2KTYdc_11proc_macro211TokenStreamRNtNtBY_2ty4TypeEENCNvMs5_Cs4oBEgEuuqV9_15zerocopy_deriveINtB4W_16ImplBlockBuilderNtNtBY_6derive8DataEnumE5build0EE9from_iterB4W_, symObjAddr: 0x2814, symBinAddr: 0x241E0, symSize: 0x14 }
  - { offset: 0x2C777, size: 0x8, addend: 0x0, symName: __RNvXNtNtCsdFlNUEO95cG_5alloc3vec14spec_from_iterINtB4_3VecNtNtCscwCr4GBBztI_3syn8generics14WherePredicateEINtB2_12SpecFromIterBU_INtNtNtNtCs85QQFkKrybG_4core4iter8adapters3map3MapINtNtNtB2c_5slice4iter4IterTRNtNtBY_11restriction10VisibilityNtCsfwj6t2KTYdc_11proc_macro211TokenStreamRNtNtBY_2ty4TypeEENCNvMs5_Cs4oBEgEuuqV9_15zerocopy_deriveINtB4W_16ImplBlockBuilderNtNtBY_6derive9DataUnionE5build0EE9from_iterB4W_, symObjAddr: 0x2828, symBinAddr: 0x241F4, symSize: 0x14 }
  - { offset: 0x2C7B6, size: 0x8, addend: 0x0, symName: __RNvXNtNtCsdFlNUEO95cG_5alloc3vec14spec_from_iterINtB4_3VecTRNtNtCscwCr4GBBztI_3syn11restriction10VisibilityNtCsfwj6t2KTYdc_11proc_macro211TokenStreamRNtNtB10_2ty4TypeEEINtB2_12SpecFromIterBU_INtNtNtNtCs85QQFkKrybG_4core4iter8adapters3map3MapINtNtB38_9enumerate9EnumerateINtNtB10_10punctuated4IterNtNtB10_4data5FieldEENCINvNtCs4oBEgEuuqV9_15zerocopy_derive3ext10map_fieldsRINtB4n_10PunctuatedB4K_NtNtB10_5token5CommaEE0EE9from_iterB5c_, symObjAddr: 0x283C, symBinAddr: 0x24208, symSize: 0x14 }
  - { offset: 0x2C7F5, size: 0x8, addend: 0x0, symName: __RNvXNtNtCsdFlNUEO95cG_5alloc3vec14spec_from_iterINtB4_3VecTRNtNtCscwCr4GBBztI_3syn11restriction10VisibilityNtCsfwj6t2KTYdc_11proc_macro211TokenStreamRNtNtB10_2ty4TypeEEINtB2_12SpecFromIterBU_INtNtNtNtCs85QQFkKrybG_4core4iter8adapters3map3MapINtNtB38_9enumerate9EnumerateINtNtB10_10punctuated4IterNtNtB10_4data5FieldEENCINvNtCs4oBEgEuuqV9_15zerocopy_derive3ext10map_fieldsRNtB4M_6FieldsE0EE9from_iterB5c_, symObjAddr: 0x2850, symBinAddr: 0x2421C, symSize: 0x14 }
  - { offset: 0x2C834, size: 0x8, addend: 0x0, symName: __RNvXNtNtCsdFlNUEO95cG_5alloc3vec14spec_from_iterINtB4_3VecTRNtNtCscwCr4GBBztI_3syn11restriction10VisibilityNtCsfwj6t2KTYdc_11proc_macro211TokenStreamRNtNtB10_2ty4TypeEEINtB2_12SpecFromIterBU_INtNtNtNtCs85QQFkKrybG_4core4iter8adapters3map3MapINtNtB38_9enumerate9EnumerateINtNtB38_7flatten7FlatMapINtNtB10_10punctuated4IterNtNtB10_4data7VariantERNtB5b_6FieldsNCNvXs0_NtCs4oBEgEuuqV9_15zerocopy_derive3extNtNtB10_6derive8DataEnumNtB5R_7DataExt6fields0EENCINvB5R_10map_fieldsB4k_E0EE9from_iterB5T_, symObjAddr: 0x2864, symBinAddr: 0x24230, symSize: 0x14 }
  - { offset: 0x2C87F, size: 0x8, addend: 0x0, symName: __RNvXNtNtCsdFlNUEO95cG_5alloc3vec21spec_from_iter_nestedINtB4_3VecIBS_TRNtNtCscwCr4GBBztI_3syn11restriction10VisibilityNtCsfwj6t2KTYdc_11proc_macro211TokenStreamRNtNtB1b_2ty4TypeEEEINtB2_18SpecFromIterNestedB11_INtNtNtNtCs85QQFkKrybG_4core4iter8adapters3map3MapINtNtB1b_10punctuated4IterNtNtB1b_4data7VariantENCNvXs0_NtCs4oBEgEuuqV9_15zerocopy_derive3extNtNtB1b_6derive8DataEnumNtB54_7DataExt8variants0EE9from_iterB56_, symObjAddr: 0x2878, symBinAddr: 0x24244, symSize: 0x270 }
  - { offset: 0x2CB38, size: 0x8, addend: 0x0, symName: __RNvXNtNtCsdFlNUEO95cG_5alloc3vec21spec_from_iter_nestedINtB4_3VecNtNtCscwCr4GBBztI_3syn8generics14WherePredicateEINtB2_18SpecFromIterNestedB11_INtNtNtNtCs85QQFkKrybG_4core4iter8adapters3map3MapINtNtB15_10punctuated4IterNtNtB15_4data5FieldENCNvCs4oBEgEuuqV9_15zerocopy_derive22derive_from_zeros_enum0EE9from_iterB3T_, symObjAddr: 0x2AE8, symBinAddr: 0x244B4, symSize: 0x288 }
  - { offset: 0x2CDF2, size: 0x8, addend: 0x0, symName: __RNvXNtNtCsdFlNUEO95cG_5alloc3vec21spec_from_iter_nestedINtB4_3VecTRNtNtCscwCr4GBBztI_3syn11restriction10VisibilityNtCsfwj6t2KTYdc_11proc_macro211TokenStreamRNtNtB17_2ty4TypeEEINtB2_18SpecFromIterNestedB11_INtNtNtNtCs85QQFkKrybG_4core4iter8adapters3map3MapINtNtB3m_9enumerate9EnumerateINtNtB17_10punctuated4IterNtNtB17_4data5FieldEENCINvNtCs4oBEgEuuqV9_15zerocopy_derive3ext10map_fieldsRINtB4B_10PunctuatedB4Y_NtNtB17_5token5CommaEE0EE9from_iterB5q_, symObjAddr: 0x2D70, symBinAddr: 0x2473C, symSize: 0x288 }
  - { offset: 0x2D0AC, size: 0x8, addend: 0x0, symName: __RNvXNtNtCsdFlNUEO95cG_5alloc3vec21spec_from_iter_nestedINtB4_3VecTRNtNtCscwCr4GBBztI_3syn11restriction10VisibilityNtCsfwj6t2KTYdc_11proc_macro211TokenStreamRNtNtB17_2ty4TypeEEINtB2_18SpecFromIterNestedB11_INtNtNtNtCs85QQFkKrybG_4core4iter8adapters3map3MapINtNtB3m_9enumerate9EnumerateINtNtB17_10punctuated4IterNtNtB17_4data5FieldEENCINvNtCs4oBEgEuuqV9_15zerocopy_derive3ext10map_fieldsRNtB50_6FieldsE0EE9from_iterB5q_, symObjAddr: 0x2FF8, symBinAddr: 0x249C4, symSize: 0x288 }
  - { offset: 0x2D366, size: 0x8, addend: 0x0, symName: __RNvXNtNtCsdFlNUEO95cG_5alloc3vec21spec_from_iter_nestedINtB4_3VecTRNtNtCscwCr4GBBztI_3syn11restriction10VisibilityNtCsfwj6t2KTYdc_11proc_macro211TokenStreamRNtNtB17_2ty4TypeEEINtB2_18SpecFromIterNestedB11_INtNtNtNtCs85QQFkKrybG_4core4iter8adapters3map3MapINtNtB3m_9enumerate9EnumerateINtNtB3m_7flatten7FlatMapINtNtB17_10punctuated4IterNtNtB17_4data7VariantERNtB5p_6FieldsNCNvXs0_NtCs4oBEgEuuqV9_15zerocopy_derive3extNtNtB17_6derive8DataEnumNtB65_7DataExt6fields0EENCINvB65_10map_fieldsB4y_E0EE9from_iterB67_, symObjAddr: 0x3280, symBinAddr: 0x24C4C, symSize: 0x294 }
  - { offset: 0x2D626, size: 0x8, addend: 0x0, symName: __RNvXs_NtNtCsdFlNUEO95cG_5alloc3vec21spec_from_iter_nestedINtB6_3VecNtCsfwj6t2KTYdc_11proc_macro25IdentEINtB4_18SpecFromIterNestedB13_INtNtNtNtCs85QQFkKrybG_4core4iter8adapters3map3MapINtNtNtB2g_5slice4iter4IterTRNtNtCscwCr4GBBztI_3syn11restriction10VisibilityNtB15_11TokenStreamRNtNtB3s_2ty4TypeEENCNvCs4oBEgEuuqV9_15zerocopy_derive25derive_known_layout_inners5_0EE9from_iterB4P_, symObjAddr: 0x367C, symBinAddr: 0x25048, symSize: 0x168 }
  - { offset: 0x2D6FD, size: 0x8, addend: 0x0, symName: __RNvXs_NtNtCsdFlNUEO95cG_5alloc3vec21spec_from_iter_nestedINtB6_3VecNtNtCscwCr4GBBztI_3syn8generics14WherePredicateEINtB4_18SpecFromIterNestedB13_INtNtNtNtCs85QQFkKrybG_4core4iter8adapters3map3MapINtNtNtB2s_5slice4iter4IterTRNtNtB17_11restriction10VisibilityNtCsfwj6t2KTYdc_11proc_macro211TokenStreamRNtNtB17_2ty4TypeEENCNvMs5_Cs4oBEgEuuqV9_15zerocopy_deriveINtB5e_16ImplBlockBuilderNtNtB17_6derive10DataStructE5build0EE9from_iterB5e_, symObjAddr: 0x37E4, symBinAddr: 0x251B0, symSize: 0x17C }
  - { offset: 0x2D7D5, size: 0x8, addend: 0x0, symName: __RNvXs_NtNtCsdFlNUEO95cG_5alloc3vec21spec_from_iter_nestedINtB6_3VecNtNtCscwCr4GBBztI_3syn8generics14WherePredicateEINtB4_18SpecFromIterNestedB13_INtNtNtNtCs85QQFkKrybG_4core4iter8adapters3map3MapINtNtNtB2s_5slice4iter4IterTRNtNtB17_11restriction10VisibilityNtCsfwj6t2KTYdc_11proc_macro211TokenStreamRNtNtB17_2ty4TypeEENCNvMs5_Cs4oBEgEuuqV9_15zerocopy_deriveINtB5e_16ImplBlockBuilderNtNtB17_6derive4DataE5build0EE9from_iterB5e_, symObjAddr: 0x3960, symBinAddr: 0x2532C, symSize: 0x17C }
  - { offset: 0x2D8AD, size: 0x8, addend: 0x0, symName: __RNvXs_NtNtCsdFlNUEO95cG_5alloc3vec21spec_from_iter_nestedINtB6_3VecNtNtCscwCr4GBBztI_3syn8generics14WherePredicateEINtB4_18SpecFromIterNestedB13_INtNtNtNtCs85QQFkKrybG_4core4iter8adapters3map3MapINtNtNtB2s_5slice4iter4IterTRNtNtB17_11restriction10VisibilityNtCsfwj6t2KTYdc_11proc_macro211TokenStreamRNtNtB17_2ty4TypeEENCNvMs5_Cs4oBEgEuuqV9_15zerocopy_deriveINtB5e_16ImplBlockBuilderNtNtB17_6derive8DataEnumE5build0EE9from_iterB5e_, symObjAddr: 0x3ADC, symBinAddr: 0x254A8, symSize: 0x17C }
  - { offset: 0x2D985, size: 0x8, addend: 0x0, symName: __RNvXs_NtNtCsdFlNUEO95cG_5alloc3vec21spec_from_iter_nestedINtB6_3VecNtNtCscwCr4GBBztI_3syn8generics14WherePredicateEINtB4_18SpecFromIterNestedB13_INtNtNtNtCs85QQFkKrybG_4core4iter8adapters3map3MapINtNtNtB2s_5slice4iter4IterTRNtNtB17_11restriction10VisibilityNtCsfwj6t2KTYdc_11proc_macro211TokenStreamRNtNtB17_2ty4TypeEENCNvMs5_Cs4oBEgEuuqV9_15zerocopy_deriveINtB5e_16ImplBlockBuilderNtNtB17_6derive9DataUnionE5build0EE9from_iterB5e_, symObjAddr: 0x3C58, symBinAddr: 0x25624, symSize: 0x17C }
  - { offset: 0x2DA64, size: 0x8, addend: 0x0, symName: __RNvXs6_NtCsdFlNUEO95cG_5alloc3vecINtB5_3VecIBw_TRNtNtCscwCr4GBBztI_3syn11restriction10VisibilityNtCsfwj6t2KTYdc_11proc_macro211TokenStreamRNtNtBP_2ty4TypeEEENtNtNtCs85QQFkKrybG_4core3ops5deref5Deref5derefCs4oBEgEuuqV9_15zerocopy_derive, symObjAddr: 0x3514, symBinAddr: 0x24EE0, symSize: 0x24 }
  - { offset: 0x2DAA4, size: 0x8, addend: 0x0, symName: __RNvXs6_NtCsdFlNUEO95cG_5alloc3vecINtB5_3VecINtNtNtCs4oBEgEuuqV9_15zerocopy_derive4repr4util7SpannedNtBK_7RawReprEENtNtNtCs85QQFkKrybG_4core3ops5deref5Deref5derefBM_, symObjAddr: 0x3538, symBinAddr: 0x24F04, symSize: 0x24 }
  - { offset: 0x2DAE4, size: 0x8, addend: 0x0, symName: __RNvXs6_NtCsdFlNUEO95cG_5alloc3vecINtB5_3VecNtCsfwj6t2KTYdc_11proc_macro25IdentENtNtNtCs85QQFkKrybG_4core3ops5deref5Deref5derefCs4oBEgEuuqV9_15zerocopy_derive, symObjAddr: 0x355C, symBinAddr: 0x24F28, symSize: 0x24 }
  - { offset: 0x2DB24, size: 0x8, addend: 0x0, symName: __RNvXs6_NtCsdFlNUEO95cG_5alloc3vecINtB5_3VecNtNtCscwCr4GBBztI_3syn8generics14WherePredicateENtNtNtCs85QQFkKrybG_4core3ops5deref5Deref5derefCs4oBEgEuuqV9_15zerocopy_derive, symObjAddr: 0x3580, symBinAddr: 0x24F4C, symSize: 0x24 }
  - { offset: 0x2DB64, size: 0x8, addend: 0x0, symName: __RNvXs6_NtCsdFlNUEO95cG_5alloc3vecINtB5_3VecTRNtNtCscwCr4GBBztI_3syn11restriction10VisibilityNtCsfwj6t2KTYdc_11proc_macro211TokenStreamRNtNtBL_2ty4TypeEENtNtNtCs85QQFkKrybG_4core3ops5deref5Deref5derefCs4oBEgEuuqV9_15zerocopy_derive, symObjAddr: 0x35A4, symBinAddr: 0x24F70, symSize: 0x24 }
  - { offset: 0x2DC0A, size: 0x8, addend: 0x0, symName: __RNvXsb_NtCsdFlNUEO95cG_5alloc3vecINtB5_3VecTRNtNtCscwCr4GBBztI_3syn11restriction10VisibilityNtCsfwj6t2KTYdc_11proc_macro211TokenStreamRNtNtBL_2ty4TypeEEINtNtNtCs85QQFkKrybG_4core3ops5index5IndexNtNtB2v_5range9RangeFullE5indexCs4oBEgEuuqV9_15zerocopy_derive, symObjAddr: 0x3DD4, symBinAddr: 0x257A0, symSize: 0x80 }
  - { offset: 0x2DD92, size: 0x8, addend: 0x0, symName: __RNvXse_NtCsdFlNUEO95cG_5alloc3vecINtB5_3VecNtNtCscwCr4GBBztI_3syn4attr4MetaENtNtNtNtCs85QQFkKrybG_4core4iter6traits7collect12IntoIterator9into_iterCs4oBEgEuuqV9_15zerocopy_derive, symObjAddr: 0x3E54, symBinAddr: 0x25820, symSize: 0xE4 }
  - { offset: 0x2E024, size: 0x8, addend: 0x0, symName: __RNvXse_NtCsdFlNUEO95cG_5alloc3vecINtB5_3VecNtNtCscwCr4GBBztI_3syn8generics12GenericParamENtNtNtNtCs85QQFkKrybG_4core4iter6traits7collect12IntoIterator9into_iterCs4oBEgEuuqV9_15zerocopy_derive, symObjAddr: 0x3F38, symBinAddr: 0x25904, symSize: 0xE4 }
  - { offset: 0x2E2B6, size: 0x8, addend: 0x0, symName: __RNvXse_NtCsdFlNUEO95cG_5alloc3vecINtB5_3VecTNtNtCscwCr4GBBztI_3syn4attr4MetaNtNtBK_5token5CommaEENtNtNtNtCs85QQFkKrybG_4core4iter6traits7collect12IntoIterator9into_iterCs4oBEgEuuqV9_15zerocopy_derive, symObjAddr: 0x401C, symBinAddr: 0x259E8, symSize: 0xE4 }
  - { offset: 0x2E548, size: 0x8, addend: 0x0, symName: __RNvXse_NtCsdFlNUEO95cG_5alloc3vecINtB5_3VecTNtNtCscwCr4GBBztI_3syn8generics12GenericParamNtNtBK_5token5CommaEENtNtNtNtCs85QQFkKrybG_4core4iter6traits7collect12IntoIterator9into_iterCs4oBEgEuuqV9_15zerocopy_derive, symObjAddr: 0x4100, symBinAddr: 0x25ACC, symSize: 0xE4 }
  - { offset: 0x2E7E0, size: 0x8, addend: 0x0, symName: __RNvXsf_NtCsdFlNUEO95cG_5alloc3vecRINtB5_3VecTRNtNtCscwCr4GBBztI_3syn11restriction10VisibilityNtCsfwj6t2KTYdc_11proc_macro211TokenStreamRNtNtBM_2ty4TypeEENtNtNtNtCs85QQFkKrybG_4core4iter6traits7collect12IntoIterator9into_iterCs4oBEgEuuqV9_15zerocopy_derive, symObjAddr: 0x41E4, symBinAddr: 0x25BB0, symSize: 0xA4 }
  - { offset: 0x2EA13, size: 0x8, addend: 0x0, symName: __RNvXsn_NtCsdFlNUEO95cG_5alloc3vecINtB5_3VecIBw_TRNtNtCscwCr4GBBztI_3syn11restriction10VisibilityNtCsfwj6t2KTYdc_11proc_macro211TokenStreamRNtNtBP_2ty4TypeEEENtNtNtCs85QQFkKrybG_4core3ops4drop4Drop4dropCs4oBEgEuuqV9_15zerocopy_derive, symObjAddr: 0x4288, symBinAddr: 0x25C54, symSize: 0x38 }
  - { offset: 0x2EAC3, size: 0x8, addend: 0x0, symName: __RNvXsn_NtCsdFlNUEO95cG_5alloc3vecINtB5_3VecINtNtNtCs4oBEgEuuqV9_15zerocopy_derive4repr4util7SpannedNtBK_7RawReprEENtNtNtCs85QQFkKrybG_4core3ops4drop4Drop4dropBM_, symObjAddr: 0x42C0, symBinAddr: 0x25C8C, symSize: 0x24 }
  - { offset: 0x2EB73, size: 0x8, addend: 0x0, symName: __RNvXsn_NtCsdFlNUEO95cG_5alloc3vecINtB5_3VecNtCsfwj6t2KTYdc_11proc_macro25IdentENtNtNtCs85QQFkKrybG_4core3ops4drop4Drop4dropCs4oBEgEuuqV9_15zerocopy_derive, symObjAddr: 0x42E4, symBinAddr: 0x25CB0, symSize: 0x38 }
  - { offset: 0x2EC23, size: 0x8, addend: 0x0, symName: __RNvXsn_NtCsdFlNUEO95cG_5alloc3vecINtB5_3VecNtNtCscwCr4GBBztI_3syn4attr4MetaENtNtNtCs85QQFkKrybG_4core3ops4drop4Drop4dropCs4oBEgEuuqV9_15zerocopy_derive, symObjAddr: 0x431C, symBinAddr: 0x25CE8, symSize: 0x38 }
  - { offset: 0x2ECD3, size: 0x8, addend: 0x0, symName: __RNvXsn_NtCsdFlNUEO95cG_5alloc3vecINtB5_3VecNtNtCscwCr4GBBztI_3syn8generics12GenericParamENtNtNtCs85QQFkKrybG_4core3ops4drop4Drop4dropCs4oBEgEuuqV9_15zerocopy_derive, symObjAddr: 0x4354, symBinAddr: 0x25D20, symSize: 0x38 }
  - { offset: 0x2ED83, size: 0x8, addend: 0x0, symName: __RNvXsn_NtCsdFlNUEO95cG_5alloc3vecINtB5_3VecNtNtCscwCr4GBBztI_3syn8generics14WherePredicateENtNtNtCs85QQFkKrybG_4core3ops4drop4Drop4dropCs4oBEgEuuqV9_15zerocopy_derive, symObjAddr: 0x438C, symBinAddr: 0x25D58, symSize: 0x38 }
  - { offset: 0x2EE33, size: 0x8, addend: 0x0, symName: __RNvXsn_NtCsdFlNUEO95cG_5alloc3vecINtB5_3VecTNtNtCscwCr4GBBztI_3syn4attr4MetaNtNtBK_5token5CommaEENtNtNtCs85QQFkKrybG_4core3ops4drop4Drop4dropCs4oBEgEuuqV9_15zerocopy_derive, symObjAddr: 0x43C4, symBinAddr: 0x25D90, symSize: 0x38 }
  - { offset: 0x2EEE3, size: 0x8, addend: 0x0, symName: __RNvXsn_NtCsdFlNUEO95cG_5alloc3vecINtB5_3VecTRNtNtCscwCr4GBBztI_3syn11restriction10VisibilityNtCsfwj6t2KTYdc_11proc_macro211TokenStreamRNtNtBL_2ty4TypeEENtNtNtCs85QQFkKrybG_4core3ops4drop4Drop4dropCs4oBEgEuuqV9_15zerocopy_derive, symObjAddr: 0x43FC, symBinAddr: 0x25DC8, symSize: 0x38 }
  - { offset: 0x301D0, size: 0x8, addend: 0x0, symName: __RINvMNtCsdFlNUEO95cG_5alloc5sliceSINtNtB5_3vec3VecTRNtNtCscwCr4GBBztI_3syn11restriction10VisibilityNtCsfwj6t2KTYdc_11proc_macro211TokenStreamRNtNtBS_2ty4TypeEE8into_vecNtNtB5_5alloc6GlobalECs4oBEgEuuqV9_15zerocopy_derive, symObjAddr: 0x0, symBinAddr: 0x219CC, symSize: 0x4C }
  - { offset: 0x35740, size: 0x8, addend: 0x0, symName: __RINvMsi_NtCsdFlNUEO95cG_5alloc3vecINtB6_3VecIBx_TRNtNtCscwCr4GBBztI_3syn11restriction10VisibilityNtCsfwj6t2KTYdc_11proc_macro211TokenStreamRNtNtBQ_2ty4TypeEEE16extend_desugaredINtNtNtNtCs85QQFkKrybG_4core4iter8adapters3map3MapINtNtBQ_10punctuated4IterNtNtBQ_4data7VariantENCNvXs0_NtCs4oBEgEuuqV9_15zerocopy_derive3extNtNtBQ_6derive8DataEnumNtB4u_7DataExt8variants0EEB4w_, symObjAddr: 0x4C, symBinAddr: 0x21A18, symSize: 0x200 }
  - { offset: 0x35C6F, size: 0x8, addend: 0x0, symName: __RINvMsi_NtCsdFlNUEO95cG_5alloc3vecINtB6_3VecNtCsfwj6t2KTYdc_11proc_macro25IdentE14extend_trustedINtNtNtNtCs85QQFkKrybG_4core4iter8adapters3map3MapINtNtNtB1F_5slice4iter4IterTRNtNtCscwCr4GBBztI_3syn11restriction10VisibilityNtBI_11TokenStreamRNtNtB2R_2ty4TypeEENCNvCs4oBEgEuuqV9_15zerocopy_derive25derive_known_layout_inners5_0EEB4d_, symObjAddr: 0x24C, symBinAddr: 0x21C18, symSize: 0x178 }
  - { offset: 0x3600A, size: 0x8, addend: 0x0, symName: __RINvMsi_NtCsdFlNUEO95cG_5alloc3vecINtB6_3VecNtCsfwj6t2KTYdc_11proc_macro29TokenTreeE16extend_desugaredINtNtNtNtCs85QQFkKrybG_4core4iter8adapters7flatten7FlattenINtNtB1H_3map3MapIB2z_INtNtNtB1L_5array4iter8IntoIterNtBI_11TokenStreamKj2_ENCINvXs7_BI_B3p_INtNtNtB1J_6traits7collect12FromIteratorB3p_E9from_iterB2U_E0ENCINvXs6_NtBI_3impNtB5b_11TokenStreamIB43_B5k_E9from_iterB2P_Es_0EEECs4oBEgEuuqV9_15zerocopy_derive, symObjAddr: 0x3C4, symBinAddr: 0x21D90, symSize: 0x1F0 }
  - { offset: 0x363FE, size: 0x8, addend: 0x0, symName: __RINvMsi_NtCsdFlNUEO95cG_5alloc3vecINtB6_3VecNtNtCscwCr4GBBztI_3syn8generics14WherePredicateE14extend_trustedINtNtNtNtCs85QQFkKrybG_4core4iter8adapters3map3MapINtNtNtB1R_5slice4iter4IterTRNtNtBK_11restriction10VisibilityNtCsfwj6t2KTYdc_11proc_macro211TokenStreamRNtNtBK_2ty4TypeEENCNvMs5_Cs4oBEgEuuqV9_15zerocopy_deriveINtB4B_16ImplBlockBuilderNtNtBK_6derive10DataStructE5build0EEB4B_, symObjAddr: 0x5B4, symBinAddr: 0x21F80, symSize: 0x190 }
  - { offset: 0x366B4, size: 0x8, addend: 0x0, symName: __RINvMsi_NtCsdFlNUEO95cG_5alloc3vecINtB6_3VecNtNtCscwCr4GBBztI_3syn8generics14WherePredicateE14extend_trustedINtNtNtNtCs85QQFkKrybG_4core4iter8adapters3map3MapINtNtNtB1R_5slice4iter4IterTRNtNtBK_11restriction10VisibilityNtCsfwj6t2KTYdc_11proc_macro211TokenStreamRNtNtBK_2ty4TypeEENCNvMs5_Cs4oBEgEuuqV9_15zerocopy_deriveINtB4B_16ImplBlockBuilderNtNtBK_6derive4DataE5build0EEB4B_, symObjAddr: 0x744, symBinAddr: 0x22110, symSize: 0x190 }
  - { offset: 0x3696A, size: 0x8, addend: 0x0, symName: __RINvMsi_NtCsdFlNUEO95cG_5alloc3vecINtB6_3VecNtNtCscwCr4GBBztI_3syn8generics14WherePredicateE14extend_trustedINtNtNtNtCs85QQFkKrybG_4core4iter8adapters3map3MapINtNtNtB1R_5slice4iter4IterTRNtNtBK_11restriction10VisibilityNtCsfwj6t2KTYdc_11proc_macro211TokenStreamRNtNtBK_2ty4TypeEENCNvMs5_Cs4oBEgEuuqV9_15zerocopy_deriveINtB4B_16ImplBlockBuilderNtNtBK_6derive8DataEnumE5build0EEB4B_, symObjAddr: 0x8D4, symBinAddr: 0x222A0, symSize: 0x190 }
  - { offset: 0x36C20, size: 0x8, addend: 0x0, symName: __RINvMsi_NtCsdFlNUEO95cG_5alloc3vecINtB6_3VecNtNtCscwCr4GBBztI_3syn8generics14WherePredicateE14extend_trustedINtNtNtNtCs85QQFkKrybG_4core4iter8adapters3map3MapINtNtNtB1R_5slice4iter4IterTRNtNtBK_11restriction10VisibilityNtCsfwj6t2KTYdc_11proc_macro211TokenStreamRNtNtBK_2ty4TypeEENCNvMs5_Cs4oBEgEuuqV9_15zerocopy_deriveINtB4B_16ImplBlockBuilderNtNtBK_6derive9DataUnionE5build0EEB4B_, symObjAddr: 0xA64, symBinAddr: 0x22430, symSize: 0x190 }
  - { offset: 0x36FB5, size: 0x8, addend: 0x0, symName: __RINvMsi_NtCsdFlNUEO95cG_5alloc3vecINtB6_3VecNtNtCscwCr4GBBztI_3syn8generics14WherePredicateE16extend_desugaredINtNtNtNtCs85QQFkKrybG_4core4iter8adapters3map3MapINtNtBK_10punctuated4IterNtNtBK_4data5FieldENCNvCs4oBEgEuuqV9_15zerocopy_derive22derive_from_zeros_enum0EEB3k_, symObjAddr: 0xBF4, symBinAddr: 0x225C0, symSize: 0x214 }
  - { offset: 0x3740C, size: 0x8, addend: 0x0, symName: __RINvMsi_NtCsdFlNUEO95cG_5alloc3vecINtB6_3VecTRNtNtCscwCr4GBBztI_3syn11restriction10VisibilityNtCsfwj6t2KTYdc_11proc_macro211TokenStreamRNtNtBM_2ty4TypeEE16extend_desugaredINtNtNtNtCs85QQFkKrybG_4core4iter8adapters3map3MapINtNtB2O_9enumerate9EnumerateINtNtB2O_7flatten7FlatMapINtNtBM_10punctuated4IterNtNtBM_4data7VariantERNtB4Q_6FieldsNCNvXs0_NtCs4oBEgEuuqV9_15zerocopy_derive3extNtNtBM_6derive8DataEnumNtB5v_7DataExt6fields0EENCINvB5v_10map_fieldsB40_E0EEB5x_, symObjAddr: 0xE08, symBinAddr: 0x227D4, symSize: 0x214 }
  - { offset: 0x37822, size: 0x8, addend: 0x0, symName: __RINvMsi_NtCsdFlNUEO95cG_5alloc3vecINtB6_3VecTRNtNtCscwCr4GBBztI_3syn11restriction10VisibilityNtCsfwj6t2KTYdc_11proc_macro211TokenStreamRNtNtBM_2ty4TypeEE16extend_desugaredINtNtNtNtCs85QQFkKrybG_4core4iter8adapters3map3MapINtNtB2O_9enumerate9EnumerateINtNtBM_10punctuated4IterNtNtBM_4data5FieldEENCINvNtCs4oBEgEuuqV9_15zerocopy_derive3ext10map_fieldsRINtB43_10PunctuatedB4p_NtNtBM_5token5CommaEE0EEB4Q_, symObjAddr: 0x101C, symBinAddr: 0x229E8, symSize: 0x214 }
  - { offset: 0x37C38, size: 0x8, addend: 0x0, symName: __RINvMsi_NtCsdFlNUEO95cG_5alloc3vecINtB6_3VecTRNtNtCscwCr4GBBztI_3syn11restriction10VisibilityNtCsfwj6t2KTYdc_11proc_macro211TokenStreamRNtNtBM_2ty4TypeEE16extend_desugaredINtNtNtNtCs85QQFkKrybG_4core4iter8adapters3map3MapINtNtB2O_9enumerate9EnumerateINtNtBM_10punctuated4IterNtNtBM_4data5FieldEENCINvNtCs4oBEgEuuqV9_15zerocopy_derive3ext10map_fieldsRNtB4r_6FieldsE0EEB4Q_, symObjAddr: 0x1230, symBinAddr: 0x22BFC, symSize: 0x214 }
  - { offset: 0x37F4A, size: 0x8, addend: 0x0, symName: __RNvMNtCsdFlNUEO95cG_5alloc3vecINtB2_3VecINtNtNtCs4oBEgEuuqV9_15zerocopy_derive4repr4util7SpannedNtBH_7RawReprEE3newBJ_, symObjAddr: 0x18A4, symBinAddr: 0x23270, symSize: 0x14 }
  - { offset: 0x37FC9, size: 0x8, addend: 0x0, symName: __RNvMNtCsdFlNUEO95cG_5alloc3vecINtB2_3VecNtNtCscwCr4GBBztI_3syn4attr4MetaE13with_capacityCs4oBEgEuuqV9_15zerocopy_derive, symObjAddr: 0x18B8, symBinAddr: 0x23284, symSize: 0x48 }
  - { offset: 0x380A3, size: 0x8, addend: 0x0, symName: __RNvMNtCsdFlNUEO95cG_5alloc3vecINtB2_3VecNtNtCscwCr4GBBztI_3syn8generics12GenericParamE13with_capacityCs4oBEgEuuqV9_15zerocopy_derive, symObjAddr: 0x1900, symBinAddr: 0x232CC, symSize: 0x48 }
  - { offset: 0x3811B, size: 0x8, addend: 0x0, symName: __RNvMNtCsdFlNUEO95cG_5alloc3vecINtB2_3VecNtNtCscwCr4GBBztI_3syn8generics14WherePredicateE3newCs4oBEgEuuqV9_15zerocopy_derive, symObjAddr: 0x1948, symBinAddr: 0x23314, symSize: 0x14 }
  - { offset: 0x38156, size: 0x8, addend: 0x0, symName: __RNvMNtCsdFlNUEO95cG_5alloc3vecINtB2_3VecTNtNtCscwCr4GBBztI_3syn4attr4MetaNtNtBH_5token5CommaEE3newCs4oBEgEuuqV9_15zerocopy_derive, symObjAddr: 0x195C, symBinAddr: 0x23328, symSize: 0x14 }
  - { offset: 0x38254, size: 0x8, addend: 0x0, symName: __RNvMs_NtCsdFlNUEO95cG_5alloc3vecINtB4_3VecIBv_TRNtNtCscwCr4GBBztI_3syn11restriction10VisibilityNtCsfwj6t2KTYdc_11proc_macro211TokenStreamRNtNtBO_2ty4TypeEEE17from_raw_parts_inCs4oBEgEuuqV9_15zerocopy_derive, symObjAddr: 0x1970, symBinAddr: 0x2333C, symSize: 0xA8 }
  - { offset: 0x3850A, size: 0x8, addend: 0x0, symName: __RNvMs_NtCsdFlNUEO95cG_5alloc3vecINtB4_3VecIBv_TRNtNtCscwCr4GBBztI_3syn11restriction10VisibilityNtCsfwj6t2KTYdc_11proc_macro211TokenStreamRNtNtBO_2ty4TypeEEE7reserveCs4oBEgEuuqV9_15zerocopy_derive, symObjAddr: 0x1A18, symBinAddr: 0x233E4, symSize: 0xC8 }
  - { offset: 0x386FF, size: 0x8, addend: 0x0, symName: __RNvMs_NtCsdFlNUEO95cG_5alloc3vecINtB4_3VecIBv_TRNtNtCscwCr4GBBztI_3syn11restriction10VisibilityNtCsfwj6t2KTYdc_11proc_macro211TokenStreamRNtNtBO_2ty4TypeEEE8as_sliceCs4oBEgEuuqV9_15zerocopy_derive, symObjAddr: 0x1AE0, symBinAddr: 0x234AC, symSize: 0x6C }
  - { offset: 0x387C6, size: 0x8, addend: 0x0, symName: __RNvMs_NtCsdFlNUEO95cG_5alloc3vecINtB4_3VecINtNtNtCs4oBEgEuuqV9_15zerocopy_derive4repr4util7SpannedNtBJ_7RawReprEE4pushBL_, symObjAddr: 0x1B4C, symBinAddr: 0x23518, symSize: 0x24 }
  - { offset: 0x388D6, size: 0x8, addend: 0x0, symName: __RNvMs_NtCsdFlNUEO95cG_5alloc3vecINtB4_3VecINtNtNtCs4oBEgEuuqV9_15zerocopy_derive4repr4util7SpannedNtBJ_7RawReprEE8as_sliceBL_, symObjAddr: 0x1B70, symBinAddr: 0x2353C, symSize: 0x6C }
  - { offset: 0x38A7C, size: 0x8, addend: 0x0, symName: __RNvMs_NtCsdFlNUEO95cG_5alloc3vecINtB4_3VecINtNtNtCs4oBEgEuuqV9_15zerocopy_derive4repr4util7SpannedNtBJ_7RawReprEE8push_mutBL_, symObjAddr: 0x1BDC, symBinAddr: 0x235A8, symSize: 0xF8 }
  - { offset: 0x38D46, size: 0x8, addend: 0x0, symName: __RNvMs_NtCsdFlNUEO95cG_5alloc3vecINtB4_3VecNtCsfwj6t2KTYdc_11proc_macro25IdentE7reserveCs4oBEgEuuqV9_15zerocopy_derive, symObjAddr: 0x1CD4, symBinAddr: 0x236A0, symSize: 0xC8 }
  - { offset: 0x38F51, size: 0x8, addend: 0x0, symName: __RNvMs_NtCsdFlNUEO95cG_5alloc3vecINtB4_3VecNtCsfwj6t2KTYdc_11proc_macro25IdentE8as_sliceCs4oBEgEuuqV9_15zerocopy_derive, symObjAddr: 0x1D9C, symBinAddr: 0x23768, symSize: 0x6C }
  - { offset: 0x39018, size: 0x8, addend: 0x0, symName: __RNvMs_NtCsdFlNUEO95cG_5alloc3vecINtB4_3VecNtNtCscwCr4GBBztI_3syn4attr4MetaE4pushCs4oBEgEuuqV9_15zerocopy_derive, symObjAddr: 0x1E08, symBinAddr: 0x237D4, symSize: 0x24 }
  - { offset: 0x39170, size: 0x8, addend: 0x0, symName: __RNvMs_NtCsdFlNUEO95cG_5alloc3vecINtB4_3VecNtNtCscwCr4GBBztI_3syn4attr4MetaE8push_mutCs4oBEgEuuqV9_15zerocopy_derive, symObjAddr: 0x1E2C, symBinAddr: 0x237F8, symSize: 0x124 }
  - { offset: 0x39334, size: 0x8, addend: 0x0, symName: __RNvMs_NtCsdFlNUEO95cG_5alloc3vecINtB4_3VecNtNtCscwCr4GBBztI_3syn8generics12GenericParamE4pushCs4oBEgEuuqV9_15zerocopy_derive, symObjAddr: 0x1F50, symBinAddr: 0x2391C, symSize: 0x24 }
  - { offset: 0x3948C, size: 0x8, addend: 0x0, symName: __RNvMs_NtCsdFlNUEO95cG_5alloc3vecINtB4_3VecNtNtCscwCr4GBBztI_3syn8generics12GenericParamE8push_mutCs4oBEgEuuqV9_15zerocopy_derive, symObjAddr: 0x1F74, symBinAddr: 0x23940, symSize: 0x124 }
  - { offset: 0x39717, size: 0x8, addend: 0x0, symName: __RNvMs_NtCsdFlNUEO95cG_5alloc3vecINtB4_3VecNtNtCscwCr4GBBztI_3syn8generics14WherePredicateE17from_raw_parts_inCs4oBEgEuuqV9_15zerocopy_derive, symObjAddr: 0x2098, symBinAddr: 0x23A64, symSize: 0xA8 }
  - { offset: 0x399B3, size: 0x8, addend: 0x0, symName: __RNvMs_NtCsdFlNUEO95cG_5alloc3vecINtB4_3VecNtNtCscwCr4GBBztI_3syn8generics14WherePredicateE7reserveCs4oBEgEuuqV9_15zerocopy_derive, symObjAddr: 0x2140, symBinAddr: 0x23B0C, symSize: 0xC8 }
  - { offset: 0x39BB1, size: 0x8, addend: 0x0, symName: __RNvMs_NtCsdFlNUEO95cG_5alloc3vecINtB4_3VecNtNtCscwCr4GBBztI_3syn8generics14WherePredicateE8as_sliceCs4oBEgEuuqV9_15zerocopy_derive, symObjAddr: 0x2208, symBinAddr: 0x23BD4, symSize: 0x6C }
  - { offset: 0x39C78, size: 0x8, addend: 0x0, symName: __RNvMs_NtCsdFlNUEO95cG_5alloc3vecINtB4_3VecTNtNtCscwCr4GBBztI_3syn4attr4MetaNtNtBJ_5token5CommaEE3lenCs4oBEgEuuqV9_15zerocopy_derive, symObjAddr: 0x2274, symBinAddr: 0x23C40, symSize: 0x18 }
  - { offset: 0x39CBA, size: 0x8, addend: 0x0, symName: __RNvMs_NtCsdFlNUEO95cG_5alloc3vecINtB4_3VecTNtNtCscwCr4GBBztI_3syn4attr4MetaNtNtBJ_5token5CommaEE4pushCs4oBEgEuuqV9_15zerocopy_derive, symObjAddr: 0x228C, symBinAddr: 0x23C58, symSize: 0x24 }
  - { offset: 0x39E12, size: 0x8, addend: 0x0, symName: __RNvMs_NtCsdFlNUEO95cG_5alloc3vecINtB4_3VecTNtNtCscwCr4GBBztI_3syn4attr4MetaNtNtBJ_5token5CommaEE8push_mutCs4oBEgEuuqV9_15zerocopy_derive, symObjAddr: 0x22B0, symBinAddr: 0x23C7C, symSize: 0x124 }
  - { offset: 0x39FD6, size: 0x8, addend: 0x0, symName: __RNvMs_NtCsdFlNUEO95cG_5alloc3vecINtB4_3VecTNtNtCscwCr4GBBztI_3syn4data7VariantNtNtBJ_5token5CommaEE3lenCs4oBEgEuuqV9_15zerocopy_derive, symObjAddr: 0x23D4, symBinAddr: 0x23DA0, symSize: 0x18 }
  - { offset: 0x3A00B, size: 0x8, addend: 0x0, symName: __RNvMs_NtCsdFlNUEO95cG_5alloc3vecINtB4_3VecTRNtNtCscwCr4GBBztI_3syn11restriction10VisibilityNtCsfwj6t2KTYdc_11proc_macro211TokenStreamRNtNtBK_2ty4TypeEE3lenCs4oBEgEuuqV9_15zerocopy_derive, symObjAddr: 0x23EC, symBinAddr: 0x23DB8, symSize: 0x18 }
  - { offset: 0x3A156, size: 0x8, addend: 0x0, symName: __RNvMs_NtCsdFlNUEO95cG_5alloc3vecINtB4_3VecTRNtNtCscwCr4GBBztI_3syn11restriction10VisibilityNtCsfwj6t2KTYdc_11proc_macro211TokenStreamRNtNtBK_2ty4TypeEE7reserveCs4oBEgEuuqV9_15zerocopy_derive, symObjAddr: 0x2404, symBinAddr: 0x23DD0, symSize: 0xC8 }
  - { offset: 0x3A354, size: 0x8, addend: 0x0, symName: __RNvMs_NtCsdFlNUEO95cG_5alloc3vecINtB4_3VecTRNtNtCscwCr4GBBztI_3syn11restriction10VisibilityNtCsfwj6t2KTYdc_11proc_macro211TokenStreamRNtNtBK_2ty4TypeEE8as_sliceCs4oBEgEuuqV9_15zerocopy_derive, symObjAddr: 0x24CC, symBinAddr: 0x23E98, symSize: 0x6C }
  - { offset: 0x3A433, size: 0x8, addend: 0x0, symName: __RNvMs_NtCsdFlNUEO95cG_5alloc3vecINtB4_3VecTRNtNtCscwCr4GBBztI_3syn11restriction10VisibilityNtCsfwj6t2KTYdc_11proc_macro211TokenStreamRNtNtBK_2ty4TypeEE8is_emptyCs4oBEgEuuqV9_15zerocopy_derive, symObjAddr: 0x2538, symBinAddr: 0x23F04, symSize: 0x20 }
  - { offset: 0x3BB7B, size: 0x8, addend: 0x0, symName: __RINvMNtCscwCr4GBBztI_3syn3litNtB3_6LitStr10parse_withNvYNtNtB5_4path4PathNtNtB5_5parse5Parse5parseECs4oBEgEuuqV9_15zerocopy_derive, symObjAddr: 0x0, symBinAddr: 0x25E00, symSize: 0x420 }
  - { offset: 0x3BF8C, size: 0x8, addend: 0x0, symName: __RINvNvNtNtCs9bTl5rSDVcL_10proc_macro6bridge14selfless_reify31reify_to_extern_c_fn_hrt_bridge7wrapperNtNtB6_6buffer6BufferNCINvMs6_NtB6_6clientINtB24_6ClientNtB8_11TokenStreamB2u_E7expand1NvCs4oBEgEuuqV9_15zerocopy_derive11derive_hashE0EB31_, symObjAddr: 0xF70, symBinAddr: 0x26D70, symSize: 0x6C }
  - { offset: 0x3C023, size: 0x8, addend: 0x0, symName: __RINvNvNtNtCs9bTl5rSDVcL_10proc_macro6bridge14selfless_reify31reify_to_extern_c_fn_hrt_bridge7wrapperNtNtB6_6buffer6BufferNCINvMs6_NtB6_6clientINtB24_6ClientNtB8_11TokenStreamB2u_E7expand1NvCs4oBEgEuuqV9_15zerocopy_derive14derive_no_cellE0EB31_, symObjAddr: 0xFDC, symBinAddr: 0x26DDC, symSize: 0x6C }
  - { offset: 0x3C0BA, size: 0x8, addend: 0x0, symName: __RINvNvNtNtCs9bTl5rSDVcL_10proc_macro6bridge14selfless_reify31reify_to_extern_c_fn_hrt_bridge7wrapperNtNtB6_6buffer6BufferNCINvMs6_NtB6_6clientINtB24_6ClientNtB8_11TokenStreamB2u_E7expand1NvCs4oBEgEuuqV9_15zerocopy_derive15derive_as_bytesE0EB31_, symObjAddr: 0x1048, symBinAddr: 0x26E48, symSize: 0x6C }
  - { offset: 0x3C151, size: 0x8, addend: 0x0, symName: __RINvNvNtNtCs9bTl5rSDVcL_10proc_macro6bridge14selfless_reify31reify_to_extern_c_fn_hrt_bridge7wrapperNtNtB6_6buffer6BufferNCINvMs6_NtB6_6clientINtB24_6ClientNtB8_11TokenStreamB2u_E7expand1NvCs4oBEgEuuqV9_15zerocopy_derive15derive_split_atE0EB31_, symObjAddr: 0x10B4, symBinAddr: 0x26EB4, symSize: 0x6C }
  - { offset: 0x3C1E8, size: 0x8, addend: 0x0, symName: __RINvNvNtNtCs9bTl5rSDVcL_10proc_macro6bridge14selfless_reify31reify_to_extern_c_fn_hrt_bridge7wrapperNtNtB6_6buffer6BufferNCINvMs6_NtB6_6clientINtB24_6ClientNtB8_11TokenStreamB2u_E7expand1NvCs4oBEgEuuqV9_15zerocopy_derive16derive_unalignedE0EB31_, symObjAddr: 0x1120, symBinAddr: 0x26F20, symSize: 0x6C }
  - { offset: 0x3C27F, size: 0x8, addend: 0x0, symName: __RINvNvNtNtCs9bTl5rSDVcL_10proc_macro6bridge14selfless_reify31reify_to_extern_c_fn_hrt_bridge7wrapperNtNtB6_6buffer6BufferNCINvMs6_NtB6_6clientINtB24_6ClientNtB8_11TokenStreamB2u_E7expand1NvCs4oBEgEuuqV9_15zerocopy_derive17derive_from_bytesE0EB31_, symObjAddr: 0x118C, symBinAddr: 0x26F8C, symSize: 0x6C }
  - { offset: 0x3C316, size: 0x8, addend: 0x0, symName: __RINvNvNtNtCs9bTl5rSDVcL_10proc_macro6bridge14selfless_reify31reify_to_extern_c_fn_hrt_bridge7wrapperNtNtB6_6buffer6BufferNCINvMs6_NtB6_6clientINtB24_6ClientNtB8_11TokenStreamB2u_E7expand1NvCs4oBEgEuuqV9_15zerocopy_derive17derive_from_zerosE0EB31_, symObjAddr: 0x11F8, symBinAddr: 0x26FF8, symSize: 0x6C }
  - { offset: 0x3C3AD, size: 0x8, addend: 0x0, symName: __RINvNvNtNtCs9bTl5rSDVcL_10proc_macro6bridge14selfless_reify31reify_to_extern_c_fn_hrt_bridge7wrapperNtNtB6_6buffer6BufferNCINvMs6_NtB6_6clientINtB24_6ClientNtB8_11TokenStreamB2u_E7expand1NvCs4oBEgEuuqV9_15zerocopy_derive17derive_into_bytesE0EB31_, symObjAddr: 0x1264, symBinAddr: 0x27064, symSize: 0x6C }
  - { offset: 0x3C444, size: 0x8, addend: 0x0, symName: __RINvNvNtNtCs9bTl5rSDVcL_10proc_macro6bridge14selfless_reify31reify_to_extern_c_fn_hrt_bridge7wrapperNtNtB6_6buffer6BufferNCINvMs6_NtB6_6clientINtB24_6ClientNtB8_11TokenStreamB2u_E7expand1NvCs4oBEgEuuqV9_15zerocopy_derive18derive_from_zeroesE0EB31_, symObjAddr: 0x12D0, symBinAddr: 0x270D0, symSize: 0x6C }
  - { offset: 0x3C4DB, size: 0x8, addend: 0x0, symName: __RINvNvNtNtCs9bTl5rSDVcL_10proc_macro6bridge14selfless_reify31reify_to_extern_c_fn_hrt_bridge7wrapperNtNtB6_6buffer6BufferNCINvMs6_NtB6_6clientINtB24_6ClientNtB8_11TokenStreamB2u_E7expand1NvCs4oBEgEuuqV9_15zerocopy_derive19derive_known_layoutE0EB31_, symObjAddr: 0x133C, symBinAddr: 0x2713C, symSize: 0x6C }
  - { offset: 0x3C572, size: 0x8, addend: 0x0, symName: __RINvNvNtNtCs9bTl5rSDVcL_10proc_macro6bridge14selfless_reify31reify_to_extern_c_fn_hrt_bridge7wrapperNtNtB6_6buffer6BufferNCINvMs6_NtB6_6clientINtB24_6ClientNtB8_11TokenStreamB2u_E7expand1NvCs4oBEgEuuqV9_15zerocopy_derive21derive_try_from_bytesE0EB31_, symObjAddr: 0x13A8, symBinAddr: 0x271A8, symSize: 0x6C }
  - { offset: 0x3C609, size: 0x8, addend: 0x0, symName: __RINvNvNtNtCs9bTl5rSDVcL_10proc_macro6bridge14selfless_reify31reify_to_extern_c_fn_hrt_bridge7wrapperNtNtB6_6buffer6BufferNCINvMs6_NtB6_6clientINtB24_6ClientNtB8_11TokenStreamB2u_E7expand1NvCs4oBEgEuuqV9_15zerocopy_derive9derive_eqE0EB31_, symObjAddr: 0x1414, symBinAddr: 0x27214, symSize: 0x6C }
  - { offset: 0x3CB25, size: 0x8, addend: 0x0, symName: __RINvXs6_NtCsfwj6t2KTYdc_11proc_macro23impNtB6_11TokenStreamINtNtNtNtCs85QQFkKrybG_4core4iter6traits7collect12FromIteratorBD_E9from_iterINtNtNtB12_8adapters3map3MapINtNtNtB14_5array4iter8IntoIterNtB8_11TokenStreamKj2_ENCINvXs7_B8_B36_IBW_B36_E9from_iterB2B_E0EECs4oBEgEuuqV9_15zerocopy_derive, symObjAddr: 0x16E4, symBinAddr: 0x274E4, symSize: 0x270 }
  - { offset: 0x3CBAF, size: 0x8, addend: 0x0, symName: __RNCINvXs6_NtCsfwj6t2KTYdc_11proc_macro23impNtB8_11TokenStreamINtNtNtNtCs85QQFkKrybG_4core4iter6traits7collect12FromIteratorBF_E9from_iterINtNtNtB14_8adapters3map3MapINtNtNtB16_5array4iter8IntoIterNtBa_11TokenStreamKj2_ENCINvXs7_Ba_B38_IBY_B38_E9from_iterB2D_E0EE0Cs4oBEgEuuqV9_15zerocopy_derive, symObjAddr: 0x253C, symBinAddr: 0x2833C, symSize: 0x10C }
  - { offset: 0x3CC0C, size: 0x8, addend: 0x0, symName: __RNCINvXs6_NtCsfwj6t2KTYdc_11proc_macro23impNtB8_11TokenStreamINtNtNtNtCs85QQFkKrybG_4core4iter6traits7collect12FromIteratorBF_E9from_iterINtNtNtB14_8adapters3map3MapINtNtNtB16_5array4iter8IntoIterNtBa_11TokenStreamKj2_ENCINvXs7_Ba_B38_IBY_B38_E9from_iterB2D_E0EEs_0Cs4oBEgEuuqV9_15zerocopy_derive, symObjAddr: 0x2648, symBinAddr: 0x28448, symSize: 0xF8 }
  - { offset: 0x3CC53, size: 0x8, addend: 0x0, symName: __RNvXsA_NtCsfwj6t2KTYdc_11proc_macro23impNtB5_19DeferredTokenStreamNtNtCs85QQFkKrybG_4core5clone5Clone5cloneCs4oBEgEuuqV9_15zerocopy_derive, symObjAddr: 0x5398, symBinAddr: 0x2B190, symSize: 0x90 }
  - { offset: 0x3CC85, size: 0x8, addend: 0x0, symName: __RNvXsz_NtCsfwj6t2KTYdc_11proc_macro23impNtB5_11TokenStreamNtNtCs85QQFkKrybG_4core5clone5Clone5cloneCs4oBEgEuuqV9_15zerocopy_derive, symObjAddr: 0x54A0, symBinAddr: 0x2B298, symSize: 0x98 }
  - { offset: 0x3D24D, size: 0x8, addend: 0x0, symName: __RNCNvXs1_NtNtNtCswz7ZwgBZOU_3std2io5error14repr_bitpackedNtB7_4ReprNtNtNtCs85QQFkKrybG_4core3ops4drop4Drop4drop0Cs4oBEgEuuqV9_15zerocopy_derive, symObjAddr: 0x2740, symBinAddr: 0x28540, symSize: 0x3C }
  - { offset: 0x3D302, size: 0x8, addend: 0x0, symName: __RNvXs1_NtNtNtCswz7ZwgBZOU_3std2io5error14repr_bitpackedNtB5_4ReprNtNtNtCs85QQFkKrybG_4core3ops4drop4Drop4dropCs4oBEgEuuqV9_15zerocopy_derive, symObjAddr: 0x4A48, symBinAddr: 0x2A840, symSize: 0x38 }
  - { offset: 0x3D32B, size: 0x8, addend: 0x0, symName: __RINvNtNtNtCswz7ZwgBZOU_3std2io5error14repr_bitpacked11decode_reprINtNtCsdFlNUEO95cG_5alloc5boxed3BoxNtB4_6CustomENCNvXs1_B2_NtB2_4ReprNtNtNtCs85QQFkKrybG_4core3ops4drop4Drop4drop0ECs4oBEgEuuqV9_15zerocopy_derive, symObjAddr: 0xD94, symBinAddr: 0x26B94, symSize: 0x1DC }
  - { offset: 0x3D587, size: 0x8, addend: 0x0, symName: __RNvNtNtNtCswz7ZwgBZOU_3std2io5error14repr_bitpacked14kind_from_primCs4oBEgEuuqV9_15zerocopy_derive, symObjAddr: 0x2850, symBinAddr: 0x28650, symSize: 0x608 }
  - { offset: 0x3E21C, size: 0x8, addend: 0x0, symName: __RNvXs9_NtCs4oBEgEuuqV9_15zerocopy_derive4reprNtNtCscwCr4GBBztI_3syn5error5ErrorINtNtCs85QQFkKrybG_4core7convert4FromINtNtB5_4util7SpannedNtB5_14FromAttrsErrorEE4from, symObjAddr: 0x52AC, symBinAddr: 0x2B0A4, symSize: 0xEC }
  - { offset: 0x436F0, size: 0x8, addend: 0x0, symName: __RINvXs0_NtNtNtCs85QQFkKrybG_4core4iter8adapters3mapINtB6_3MapIBO_INtNtNtBc_5array4iter8IntoIterNtCsfwj6t2KTYdc_11proc_macro211TokenStreamKj2_ENCINvXs7_B1x_B1v_INtNtNtBa_6traits7collect12FromIteratorB1v_E9from_iterB11_E0ENCINvXs6_NtB1x_3impNtB3F_11TokenStreamIB2y_B3P_E9from_iterBX_E0ENtNtB2C_8iterator8Iterator4folduNCINvNvB4y_8for_each4callNtCs9bTl5rSDVcL_10proc_macro11TokenStreamNCINvXsj_B5v_B5t_INtB2A_6ExtendB5t_E6extendBN_E0E0ECs4oBEgEuuqV9_15zerocopy_derive, symObjAddr: 0x1480, symBinAddr: 0x27280, symSize: 0x4C }
  - { offset: 0x43762, size: 0x8, addend: 0x0, symName: __RINvXs0_NtNtNtCs85QQFkKrybG_4core4iter8adapters3mapINtB6_3MapINtNtNtBc_5array4iter8IntoIterNtCsfwj6t2KTYdc_11proc_macro211TokenStreamKj2_ENCINvXs7_B1t_B1r_INtNtNtBa_6traits7collect12FromIteratorB1r_E9from_iterBX_E0ENtNtB2y_8iterator8Iterator4folduNCINvB6_8map_foldNtNtB1t_3imp11TokenStreamNtCs9bTl5rSDVcL_10proc_macro11TokenStreamuNCINvXs6_B4g_B4e_IB2u_B4e_E9from_iterBN_E0NCINvNvB3r_8for_each4callB4D_NCINvXsj_B4F_B4D_INtB2w_6ExtendB4D_E6extendIBO_BN_B5j_EE0E0E0ECs4oBEgEuuqV9_15zerocopy_derive, symObjAddr: 0x14CC, symBinAddr: 0x272CC, symSize: 0x4C }
  - { offset: 0x437D4, size: 0x8, addend: 0x0, symName: __RINvXs0_NtNtNtCs85QQFkKrybG_4core4iter8adapters3mapINtB6_3MapINtNtNtBc_5slice4iter4IterTRNtNtCscwCr4GBBztI_3syn11restriction10VisibilityNtCsfwj6t2KTYdc_11proc_macro211TokenStreamRNtNtB1t_2ty4TypeEENCNvCs4oBEgEuuqV9_15zerocopy_derive25derive_known_layout_inners5_0ENtNtNtBa_6traits8iterator8Iterator4folduNCINvNvB4e_8for_each4callNtB2c_5IdentNCINvMsi_NtCsdFlNUEO95cG_5alloc3vecINtB5C_3VecB5h_E14extend_trustedBN_E0E0EB3d_, symObjAddr: 0x1518, symBinAddr: 0x27318, symSize: 0x4C }
  - { offset: 0x4386D, size: 0x8, addend: 0x0, symName: __RINvXs0_NtNtNtCs85QQFkKrybG_4core4iter8adapters3mapINtB6_3MapINtNtNtBc_5slice4iter4IterTRNtNtCscwCr4GBBztI_3syn11restriction10VisibilityNtCsfwj6t2KTYdc_11proc_macro211TokenStreamRNtNtB1t_2ty4TypeEENCNvMs5_Cs4oBEgEuuqV9_15zerocopy_deriveINtB3h_16ImplBlockBuilderNtNtB1t_6derive10DataStructE5build0ENtNtNtBa_6traits8iterator8Iterator4folduNCINvNvB4L_8for_each4callNtNtB1t_8generics14WherePredicateNCINvMsi_NtCsdFlNUEO95cG_5alloc3vecINtB6u_3VecB5O_E14extend_trustedBN_E0E0EB3h_, symObjAddr: 0x1564, symBinAddr: 0x27364, symSize: 0x60 }
  - { offset: 0x43906, size: 0x8, addend: 0x0, symName: __RINvXs0_NtNtNtCs85QQFkKrybG_4core4iter8adapters3mapINtB6_3MapINtNtNtBc_5slice4iter4IterTRNtNtCscwCr4GBBztI_3syn11restriction10VisibilityNtCsfwj6t2KTYdc_11proc_macro211TokenStreamRNtNtB1t_2ty4TypeEENCNvMs5_Cs4oBEgEuuqV9_15zerocopy_deriveINtB3h_16ImplBlockBuilderNtNtB1t_6derive4DataE5build0ENtNtNtBa_6traits8iterator8Iterator4folduNCINvNvB4E_8for_each4callNtNtB1t_8generics14WherePredicateNCINvMsi_NtCsdFlNUEO95cG_5alloc3vecINtB6n_3VecB5H_E14extend_trustedBN_E0E0EB3h_, symObjAddr: 0x15C4, symBinAddr: 0x273C4, symSize: 0x60 }
  - { offset: 0x4399F, size: 0x8, addend: 0x0, symName: __RINvXs0_NtNtNtCs85QQFkKrybG_4core4iter8adapters3mapINtB6_3MapINtNtNtBc_5slice4iter4IterTRNtNtCscwCr4GBBztI_3syn11restriction10VisibilityNtCsfwj6t2KTYdc_11proc_macro211TokenStreamRNtNtB1t_2ty4TypeEENCNvMs5_Cs4oBEgEuuqV9_15zerocopy_deriveINtB3h_16ImplBlockBuilderNtNtB1t_6derive8DataEnumE5build0ENtNtNtBa_6traits8iterator8Iterator4folduNCINvNvB4I_8for_each4callNtNtB1t_8generics14WherePredicateNCINvMsi_NtCsdFlNUEO95cG_5alloc3vecINtB6r_3VecB5L_E14extend_trustedBN_E0E0EB3h_, symObjAddr: 0x1624, symBinAddr: 0x27424, symSize: 0x60 }
  - { offset: 0x43A38, size: 0x8, addend: 0x0, symName: __RINvXs0_NtNtNtCs85QQFkKrybG_4core4iter8adapters3mapINtB6_3MapINtNtNtBc_5slice4iter4IterTRNtNtCscwCr4GBBztI_3syn11restriction10VisibilityNtCsfwj6t2KTYdc_11proc_macro211TokenStreamRNtNtB1t_2ty4TypeEENCNvMs5_Cs4oBEgEuuqV9_15zerocopy_deriveINtB3h_16ImplBlockBuilderNtNtB1t_6derive9DataUnionE5build0ENtNtNtBa_6traits8iterator8Iterator4folduNCINvNvB4J_8for_each4callNtNtB1t_8generics14WherePredicateNCINvMsi_NtCsdFlNUEO95cG_5alloc3vecINtB6s_3VecB5M_E14extend_trustedBN_E0E0EB3h_, symObjAddr: 0x1684, symBinAddr: 0x27484, symSize: 0x60 }
  - { offset: 0x43AD1, size: 0x8, addend: 0x0, symName: __RNvXs0_NtNtNtCs85QQFkKrybG_4core4iter8adapters3mapINtB5_3MapIBN_INtNtNtBb_5array4iter8IntoIterNtCsfwj6t2KTYdc_11proc_macro211TokenStreamKj2_ENCINvXs7_B1w_B1u_INtNtNtB9_6traits7collect12FromIteratorB1u_E9from_iterB10_E0ENCINvXs6_NtB1w_3impNtB3E_11TokenStreamIB2x_B3O_E9from_iterBW_E0ENtNtB2B_8iterator8Iterator9size_hintCs4oBEgEuuqV9_15zerocopy_derive, symObjAddr: 0x31D0, symBinAddr: 0x28FC8, symSize: 0x24 }
  - { offset: 0x43B18, size: 0x8, addend: 0x0, symName: __RNvXs0_NtNtNtCs85QQFkKrybG_4core4iter8adapters3mapINtB5_3MapIBN_INtNtNtBb_5array4iter8IntoIterNtCsfwj6t2KTYdc_11proc_macro211TokenStreamKj2_ENCINvXs7_B1w_B1u_INtNtNtB9_6traits7collect12FromIteratorB1u_E9from_iterB10_E0ENCINvXs6_NtB1w_3impNtB3E_11TokenStreamIB2x_B3O_E9from_iterBW_Es_0ENtNtB2B_8iterator8Iterator4nextCs4oBEgEuuqV9_15zerocopy_derive, symObjAddr: 0x31F4, symBinAddr: 0x28FEC, symSize: 0x90 }
  - { offset: 0x43BB4, size: 0x8, addend: 0x0, symName: __RNvXs0_NtNtNtCs85QQFkKrybG_4core4iter8adapters3mapINtB5_3MapIBN_INtNtNtBb_5array4iter8IntoIterNtCsfwj6t2KTYdc_11proc_macro211TokenStreamKj2_ENCINvXs7_B1w_B1u_INtNtNtB9_6traits7collect12FromIteratorB1u_E9from_iterB10_E0ENCINvXs6_NtB1w_3impNtB3E_11TokenStreamIB2x_B3O_E9from_iterBW_Es_0ENtNtB2B_8iterator8Iterator9size_hintCs4oBEgEuuqV9_15zerocopy_derive, symObjAddr: 0x3284, symBinAddr: 0x2907C, symSize: 0x24 }
  - { offset: 0x43BFB, size: 0x8, addend: 0x0, symName: __RNvXs0_NtNtNtCs85QQFkKrybG_4core4iter8adapters3mapINtB5_3MapIBN_INtNtNtBb_5slice4iter4IterNtCs4oBEgEuuqV9_15zerocopy_derive10TraitBoundENCNvB1s_16normalize_bounds0ENCINvNvMs5_B1s_INtB1s_16ImplBlockBuilderpE5build8bound_ttBW_E0ENtNtNtB9_6traits8iterator8Iterator4nextB1s_, symObjAddr: 0x32A8, symBinAddr: 0x290A0, symSize: 0x94 }
  - { offset: 0x43CA7, size: 0x8, addend: 0x0, symName: __RNvXs0_NtNtNtCs85QQFkKrybG_4core4iter8adapters3mapINtB5_3MapINtNtB7_3zip3ZipINtNtNtBb_5slice4iter4IterNtCsfwj6t2KTYdc_11proc_macro25IdentEIB1d_TRNtNtCscwCr4GBBztI_3syn11restriction10VisibilityNtB1E_11TokenStreamRNtNtB2n_2ty4TypeEEENCNvCs4oBEgEuuqV9_15zerocopy_derive25derive_known_layout_inners6_0ENtNtNtB9_6traits8iterator8Iterator4nextB3L_, symObjAddr: 0x333C, symBinAddr: 0x29134, symSize: 0xA4 }
  - { offset: 0x43D43, size: 0x8, addend: 0x0, symName: __RNvXs0_NtNtNtCs85QQFkKrybG_4core4iter8adapters3mapINtB5_3MapINtNtB7_3zip3ZipINtNtNtBb_5slice4iter4IterNtCsfwj6t2KTYdc_11proc_macro25IdentEIB1d_TRNtNtCscwCr4GBBztI_3syn11restriction10VisibilityNtB1E_11TokenStreamRNtNtB2n_2ty4TypeEEENCNvCs4oBEgEuuqV9_15zerocopy_derive25derive_known_layout_inners7_0ENtNtNtB9_6traits8iterator8Iterator4nextB3L_, symObjAddr: 0x33E0, symBinAddr: 0x291D8, symSize: 0xA4 }
  - { offset: 0x43DDF, size: 0x8, addend: 0x0, symName: __RNvXs0_NtNtNtCs85QQFkKrybG_4core4iter8adapters3mapINtB5_3MapINtNtB7_6copied6CopiedINtNtNtBb_5slice4iter4IterNtCs4oBEgEuuqV9_15zerocopy_derive5TraitEENCINvNvMs5_B1K_INtB1K_16ImplBlockBuilderpE5build8bound_ttBW_E0ENtNtNtB9_6traits8iterator8Iterator4nextB1K_, symObjAddr: 0x3484, symBinAddr: 0x2927C, symSize: 0x98 }
  - { offset: 0x43E7B, size: 0x8, addend: 0x0, symName: __RNvXs0_NtNtNtCs85QQFkKrybG_4core4iter8adapters3mapINtB5_3MapINtNtB7_9enumerate9EnumerateINtNtB7_7flatten7FlatMapINtNtCscwCr4GBBztI_3syn10punctuated4IterNtNtB1R_4data7VariantERNtB2s_6FieldsNCNvXs0_NtCs4oBEgEuuqV9_15zerocopy_derive3extNtNtB1R_6derive8DataEnumNtB38_7DataExt6fields0EENCINvB38_10map_fieldsB1o_E0ENtNtNtB9_6traits8iterator8Iterator4nextB3a_, symObjAddr: 0x351C, symBinAddr: 0x29314, symSize: 0xA8 }
  - { offset: 0x43F17, size: 0x8, addend: 0x0, symName: __RNvXs0_NtNtNtCs85QQFkKrybG_4core4iter8adapters3mapINtB5_3MapINtNtB7_9enumerate9EnumerateINtNtB7_7flatten7FlatMapINtNtCscwCr4GBBztI_3syn10punctuated4IterNtNtB1R_4data7VariantERNtB2s_6FieldsNCNvXs0_NtCs4oBEgEuuqV9_15zerocopy_derive3extNtNtB1R_6derive8DataEnumNtB38_7DataExt6fields0EENCINvB38_10map_fieldsB1o_E0ENtNtNtB9_6traits8iterator8Iterator9size_hintB3a_, symObjAddr: 0x35C4, symBinAddr: 0x293BC, symSize: 0x24 }
  - { offset: 0x43F5E, size: 0x8, addend: 0x0, symName: __RNvXs0_NtNtNtCs85QQFkKrybG_4core4iter8adapters3mapINtB5_3MapINtNtB7_9enumerate9EnumerateINtNtCscwCr4GBBztI_3syn10punctuated4IterNtNtB1t_4data5FieldEENCINvNtCs4oBEgEuuqV9_15zerocopy_derive3ext10map_fieldsRINtB1r_10PunctuatedB22_NtNtB1t_5token5CommaEE0ENtNtNtB9_6traits8iterator8Iterator4nextB2u_, symObjAddr: 0x35E8, symBinAddr: 0x293E0, symSize: 0xA8 }
  - { offset: 0x43FFA, size: 0x8, addend: 0x0, symName: __RNvXs0_NtNtNtCs85QQFkKrybG_4core4iter8adapters3mapINtB5_3MapINtNtB7_9enumerate9EnumerateINtNtCscwCr4GBBztI_3syn10punctuated4IterNtNtB1t_4data5FieldEENCINvNtCs4oBEgEuuqV9_15zerocopy_derive3ext10map_fieldsRINtB1r_10PunctuatedB22_NtNtB1t_5token5CommaEE0ENtNtNtB9_6traits8iterator8Iterator9size_hintB2u_, symObjAddr: 0x3690, symBinAddr: 0x29488, symSize: 0x24 }
  - { offset: 0x44041, size: 0x8, addend: 0x0, symName: __RNvXs0_NtNtNtCs85QQFkKrybG_4core4iter8adapters3mapINtB5_3MapINtNtB7_9enumerate9EnumerateINtNtCscwCr4GBBztI_3syn10punctuated4IterNtNtB1t_4data5FieldEENCINvNtCs4oBEgEuuqV9_15zerocopy_derive3ext10map_fieldsRNtB24_6FieldsE0ENtNtNtB9_6traits8iterator8Iterator4nextB2u_, symObjAddr: 0x36B4, symBinAddr: 0x294AC, symSize: 0xA8 }
  - { offset: 0x440DD, size: 0x8, addend: 0x0, symName: __RNvXs0_NtNtNtCs85QQFkKrybG_4core4iter8adapters3mapINtB5_3MapINtNtB7_9enumerate9EnumerateINtNtCscwCr4GBBztI_3syn10punctuated4IterNtNtB1t_4data5FieldEENCINvNtCs4oBEgEuuqV9_15zerocopy_derive3ext10map_fieldsRNtB24_6FieldsE0ENtNtNtB9_6traits8iterator8Iterator9size_hintB2u_, symObjAddr: 0x375C, symBinAddr: 0x29554, symSize: 0x24 }
  - { offset: 0x44124, size: 0x8, addend: 0x0, symName: __RNvXs0_NtNtNtCs85QQFkKrybG_4core4iter8adapters3mapINtB5_3MapINtNtCscwCr4GBBztI_3syn10punctuated4IterNtNtB11_4data5FieldENCNCNvNtCs4oBEgEuuqV9_15zerocopy_derive4enum24generate_variant_structs00ENtNtNtB9_6traits8iterator8Iterator4nextB22_, symObjAddr: 0x3780, symBinAddr: 0x29578, symSize: 0x78 }
  - { offset: 0x441C0, size: 0x8, addend: 0x0, symName: __RNvXs0_NtNtNtCs85QQFkKrybG_4core4iter8adapters3mapINtB5_3MapINtNtCscwCr4GBBztI_3syn10punctuated4IterNtNtB11_4data5FieldENCNvCs4oBEgEuuqV9_15zerocopy_derive22derive_from_zeros_enum0ENtNtNtB9_6traits8iterator8Iterator4nextB1Y_, symObjAddr: 0x37F8, symBinAddr: 0x295F0, symSize: 0xA0 }
  - { offset: 0x4425C, size: 0x8, addend: 0x0, symName: __RNvXs0_NtNtNtCs85QQFkKrybG_4core4iter8adapters3mapINtB5_3MapINtNtCscwCr4GBBztI_3syn10punctuated4IterNtNtB11_4data5FieldENCNvCs4oBEgEuuqV9_15zerocopy_derive22derive_from_zeros_enum0ENtNtNtB9_6traits8iterator8Iterator9size_hintB1Y_, symObjAddr: 0x3898, symBinAddr: 0x29690, symSize: 0x24 }
  - { offset: 0x442A3, size: 0x8, addend: 0x0, symName: __RNvXs0_NtNtNtCs85QQFkKrybG_4core4iter8adapters3mapINtB5_3MapINtNtCscwCr4GBBztI_3syn10punctuated4IterNtNtB11_4data7VariantENCNvNtCs4oBEgEuuqV9_15zerocopy_derive4enum17generate_tag_enum0ENtNtNtB9_6traits8iterator8Iterator4nextB22_, symObjAddr: 0x38BC, symBinAddr: 0x296B4, symSize: 0x94 }
  - { offset: 0x4433F, size: 0x8, addend: 0x0, symName: __RNvXs0_NtNtNtCs85QQFkKrybG_4core4iter8adapters3mapINtB5_3MapINtNtCscwCr4GBBztI_3syn10punctuated4IterNtNtB11_4data7VariantENCNvNtCs4oBEgEuuqV9_15zerocopy_derive4enum19derive_is_bit_valid0ENtNtNtB9_6traits8iterator8Iterator4nextB22_, symObjAddr: 0x3950, symBinAddr: 0x29748, symSize: 0x94 }
  - { offset: 0x443DB, size: 0x8, addend: 0x0, symName: __RNvXs0_NtNtNtCs85QQFkKrybG_4core4iter8adapters3mapINtB5_3MapINtNtCscwCr4GBBztI_3syn10punctuated4IterNtNtB11_4data7VariantENCNvNtCs4oBEgEuuqV9_15zerocopy_derive4enum19generate_tag_consts0ENtNtNtB9_6traits8iterator8Iterator4nextB22_, symObjAddr: 0x39E4, symBinAddr: 0x297DC, symSize: 0x94 }
  - { offset: 0x44477, size: 0x8, addend: 0x0, symName: __RNvXs0_NtNtNtCs85QQFkKrybG_4core4iter8adapters3mapINtB5_3MapINtNtCscwCr4GBBztI_3syn10punctuated4IterNtNtB11_4data7VariantENCNvXs0_NtCs4oBEgEuuqV9_15zerocopy_derive3extNtNtB11_6derive8DataEnumNtB24_7DataExt6fields0ENtNtNtB9_6traits8iterator8Iterator4nextB26_, symObjAddr: 0x3A78, symBinAddr: 0x29870, symSize: 0x78 }
  - { offset: 0x44513, size: 0x8, addend: 0x0, symName: __RNvXs0_NtNtNtCs85QQFkKrybG_4core4iter8adapters3mapINtB5_3MapINtNtCscwCr4GBBztI_3syn10punctuated4IterNtNtB11_4data7VariantENCNvXs0_NtCs4oBEgEuuqV9_15zerocopy_derive3extNtNtB11_6derive8DataEnumNtB24_7DataExt6fields0ENtNtNtB9_6traits8iterator8Iterator9size_hintB26_, symObjAddr: 0x3AF0, symBinAddr: 0x298E8, symSize: 0x24 }
  - { offset: 0x4455A, size: 0x8, addend: 0x0, symName: __RNvXs0_NtNtNtCs85QQFkKrybG_4core4iter8adapters3mapINtB5_3MapINtNtCscwCr4GBBztI_3syn10punctuated4IterNtNtB11_4data7VariantENCNvXs0_NtCs4oBEgEuuqV9_15zerocopy_derive3extNtNtB11_6derive8DataEnumNtB24_7DataExt8variants0ENtNtNtB9_6traits8iterator8Iterator4nextB26_, symObjAddr: 0x3B14, symBinAddr: 0x2990C, symSize: 0x94 }
  - { offset: 0x445F6, size: 0x8, addend: 0x0, symName: __RNvXs0_NtNtNtCs85QQFkKrybG_4core4iter8adapters3mapINtB5_3MapINtNtCscwCr4GBBztI_3syn10punctuated4IterNtNtB11_4data7VariantENCNvXs0_NtCs4oBEgEuuqV9_15zerocopy_derive3extNtNtB11_6derive8DataEnumNtB24_7DataExt8variants0ENtNtNtB9_6traits8iterator8Iterator9size_hintB26_, symObjAddr: 0x3BA8, symBinAddr: 0x299A0, symSize: 0x24 }
  - { offset: 0x4463D, size: 0x8, addend: 0x0, symName: __RNvXs0_NtNtNtCs85QQFkKrybG_4core4iter8adapters3mapINtB5_3MapINtNtCscwCr4GBBztI_3syn10punctuated4IterNtNtB11_8generics12GenericParamENCNvMs5_Cs4oBEgEuuqV9_15zerocopy_deriveINtB2e_16ImplBlockBuilderNtNtB11_6derive10DataStructE5builds3_0ENtNtNtB9_6traits8iterator8Iterator4nextB2e_, symObjAddr: 0x3BCC, symBinAddr: 0x299C4, symSize: 0x94 }
  - { offset: 0x446D9, size: 0x8, addend: 0x0, symName: __RNvXs0_NtNtNtCs85QQFkKrybG_4core4iter8adapters3mapINtB5_3MapINtNtCscwCr4GBBztI_3syn10punctuated4IterNtNtB11_8generics12GenericParamENCNvMs5_Cs4oBEgEuuqV9_15zerocopy_deriveINtB2e_16ImplBlockBuilderNtNtB11_6derive4DataE5builds3_0ENtNtNtB9_6traits8iterator8Iterator4nextB2e_, symObjAddr: 0x3C60, symBinAddr: 0x29A58, symSize: 0x94 }
  - { offset: 0x44775, size: 0x8, addend: 0x0, symName: __RNvXs0_NtNtNtCs85QQFkKrybG_4core4iter8adapters3mapINtB5_3MapINtNtCscwCr4GBBztI_3syn10punctuated4IterNtNtB11_8generics12GenericParamENCNvMs5_Cs4oBEgEuuqV9_15zerocopy_deriveINtB2e_16ImplBlockBuilderNtNtB11_6derive8DataEnumE5builds3_0ENtNtNtB9_6traits8iterator8Iterator4nextB2e_, symObjAddr: 0x3CF4, symBinAddr: 0x29AEC, symSize: 0x94 }
  - { offset: 0x44811, size: 0x8, addend: 0x0, symName: __RNvXs0_NtNtNtCs85QQFkKrybG_4core4iter8adapters3mapINtB5_3MapINtNtCscwCr4GBBztI_3syn10punctuated4IterNtNtB11_8generics12GenericParamENCNvMs5_Cs4oBEgEuuqV9_15zerocopy_deriveINtB2e_16ImplBlockBuilderNtNtB11_6derive9DataUnionE5builds3_0ENtNtNtB9_6traits8iterator8Iterator4nextB2e_, symObjAddr: 0x3D88, symBinAddr: 0x29B80, symSize: 0x94 }
  - { offset: 0x448AD, size: 0x8, addend: 0x0, symName: __RNvXs0_NtNtNtCs85QQFkKrybG_4core4iter8adapters3mapINtB5_3MapINtNtCscwCr4GBBztI_3syn10punctuated8IntoIterNtNtB11_8generics12GenericParamENCNvMs5_Cs4oBEgEuuqV9_15zerocopy_deriveINtB2i_16ImplBlockBuilderNtNtB11_6derive10DataStructE5builds2_0ENtNtNtB9_6traits8iterator8Iterator4nextB2i_, symObjAddr: 0x3E1C, symBinAddr: 0x29C14, symSize: 0xC4 }
  - { offset: 0x4494B, size: 0x8, addend: 0x0, symName: __RNvXs0_NtNtNtCs85QQFkKrybG_4core4iter8adapters3mapINtB5_3MapINtNtCscwCr4GBBztI_3syn10punctuated8IntoIterNtNtB11_8generics12GenericParamENCNvMs5_Cs4oBEgEuuqV9_15zerocopy_deriveINtB2i_16ImplBlockBuilderNtNtB11_6derive4DataE5builds2_0ENtNtNtB9_6traits8iterator8Iterator4nextB2i_, symObjAddr: 0x3EE0, symBinAddr: 0x29CD8, symSize: 0xC4 }
  - { offset: 0x449E9, size: 0x8, addend: 0x0, symName: __RNvXs0_NtNtNtCs85QQFkKrybG_4core4iter8adapters3mapINtB5_3MapINtNtCscwCr4GBBztI_3syn10punctuated8IntoIterNtNtB11_8generics12GenericParamENCNvMs5_Cs4oBEgEuuqV9_15zerocopy_deriveINtB2i_16ImplBlockBuilderNtNtB11_6derive8DataEnumE5builds2_0ENtNtNtB9_6traits8iterator8Iterator4nextB2i_, symObjAddr: 0x3FA4, symBinAddr: 0x29D9C, symSize: 0xC4 }
  - { offset: 0x44A87, size: 0x8, addend: 0x0, symName: __RNvXs0_NtNtNtCs85QQFkKrybG_4core4iter8adapters3mapINtB5_3MapINtNtCscwCr4GBBztI_3syn10punctuated8IntoIterNtNtB11_8generics12GenericParamENCNvMs5_Cs4oBEgEuuqV9_15zerocopy_deriveINtB2i_16ImplBlockBuilderNtNtB11_6derive9DataUnionE5builds2_0ENtNtNtB9_6traits8iterator8Iterator4nextB2i_, symObjAddr: 0x4068, symBinAddr: 0x29E60, symSize: 0xC4 }
  - { offset: 0x44B25, size: 0x8, addend: 0x0, symName: __RNvXs0_NtNtNtCs85QQFkKrybG_4core4iter8adapters3mapINtB5_3MapINtNtNtBb_5array4iter8IntoIterNtCsfwj6t2KTYdc_11proc_macro211TokenStreamKj2_ENCINvXs7_B1s_B1q_INtNtNtB9_6traits7collect12FromIteratorB1q_E9from_iterBW_E0ENtNtB2x_8iterator8Iterator4nextCs4oBEgEuuqV9_15zerocopy_derive, symObjAddr: 0x412C, symBinAddr: 0x29F24, symSize: 0xAC }
  - { offset: 0x44BC1, size: 0x8, addend: 0x0, symName: __RNvXs0_NtNtNtCs85QQFkKrybG_4core4iter8adapters3mapINtB5_3MapINtNtNtBb_5array4iter8IntoIterNtCsfwj6t2KTYdc_11proc_macro211TokenStreamKj2_ENCINvXs7_B1s_B1q_INtNtNtB9_6traits7collect12FromIteratorB1q_E9from_iterBW_E0ENtNtB2x_8iterator8Iterator9size_hintCs4oBEgEuuqV9_15zerocopy_derive, symObjAddr: 0x41D8, symBinAddr: 0x29FD0, symSize: 0x24 }
  - { offset: 0x44C08, size: 0x8, addend: 0x0, symName: __RNvXs0_NtNtNtCs85QQFkKrybG_4core4iter8adapters3mapINtB5_3MapINtNtNtBb_5slice4iter4IterINtNtCsdFlNUEO95cG_5alloc3vec3VecTRNtNtCscwCr4GBBztI_3syn11restriction10VisibilityNtCsfwj6t2KTYdc_11proc_macro211TokenStreamRNtNtB1Z_2ty4TypeEEENCNCNvMs5_Cs4oBEgEuuqV9_15zerocopy_deriveINtB3Q_16ImplBlockBuilderNtNtB1Z_6derive10DataStructE5builds0_00ENtNtNtB9_6traits8iterator8Iterator4nextB3Q_, symObjAddr: 0x41FC, symBinAddr: 0x29FF4, symSize: 0x94 }
  - { offset: 0x44CA4, size: 0x8, addend: 0x0, symName: __RNvXs0_NtNtNtCs85QQFkKrybG_4core4iter8adapters3mapINtB5_3MapINtNtNtBb_5slice4iter4IterINtNtCsdFlNUEO95cG_5alloc3vec3VecTRNtNtCscwCr4GBBztI_3syn11restriction10VisibilityNtCsfwj6t2KTYdc_11proc_macro211TokenStreamRNtNtB1Z_2ty4TypeEEENCNCNvMs5_Cs4oBEgEuuqV9_15zerocopy_deriveINtB3Q_16ImplBlockBuilderNtNtB1Z_6derive4DataE5builds0_00ENtNtNtB9_6traits8iterator8Iterator4nextB3Q_, symObjAddr: 0x4290, symBinAddr: 0x2A088, symSize: 0x94 }
  - { offset: 0x44D40, size: 0x8, addend: 0x0, symName: __RNvXs0_NtNtNtCs85QQFkKrybG_4core4iter8adapters3mapINtB5_3MapINtNtNtBb_5slice4iter4IterINtNtCsdFlNUEO95cG_5alloc3vec3VecTRNtNtCscwCr4GBBztI_3syn11restriction10VisibilityNtCsfwj6t2KTYdc_11proc_macro211TokenStreamRNtNtB1Z_2ty4TypeEEENCNCNvMs5_Cs4oBEgEuuqV9_15zerocopy_deriveINtB3Q_16ImplBlockBuilderNtNtB1Z_6derive8DataEnumE5builds0_00ENtNtNtB9_6traits8iterator8Iterator4nextB3Q_, symObjAddr: 0x4324, symBinAddr: 0x2A11C, symSize: 0x94 }
  - { offset: 0x44DDC, size: 0x8, addend: 0x0, symName: __RNvXs0_NtNtNtCs85QQFkKrybG_4core4iter8adapters3mapINtB5_3MapINtNtNtBb_5slice4iter4IterINtNtCsdFlNUEO95cG_5alloc3vec3VecTRNtNtCscwCr4GBBztI_3syn11restriction10VisibilityNtCsfwj6t2KTYdc_11proc_macro211TokenStreamRNtNtB1Z_2ty4TypeEEENCNCNvMs5_Cs4oBEgEuuqV9_15zerocopy_deriveINtB3Q_16ImplBlockBuilderNtNtB1Z_6derive9DataUnionE5builds0_00ENtNtNtB9_6traits8iterator8Iterator4nextB3Q_, symObjAddr: 0x43B8, symBinAddr: 0x2A1B0, symSize: 0x94 }
  - { offset: 0x44E78, size: 0x8, addend: 0x0, symName: __RNvXs0_NtNtNtCs85QQFkKrybG_4core4iter8adapters3mapINtB5_3MapINtNtNtBb_5slice4iter4IterNtCs4oBEgEuuqV9_15zerocopy_derive10TraitBoundENCNvB1o_16normalize_bounds0ENtNtNtB9_6traits8iterator8Iterator4nextB1o_, symObjAddr: 0x444C, symBinAddr: 0x2A244, symSize: 0x7C }
  - { offset: 0x44F14, size: 0x8, addend: 0x0, symName: __RNvXs0_NtNtNtCs85QQFkKrybG_4core4iter8adapters3mapINtB5_3MapINtNtNtBb_5slice4iter4IterTRNtNtCscwCr4GBBztI_3syn11restriction10VisibilityNtCsfwj6t2KTYdc_11proc_macro211TokenStreamRNtNtB1s_2ty4TypeEENCNCNCNvMs5_Cs4oBEgEuuqV9_15zerocopy_deriveINtB3k_16ImplBlockBuilderNtNtB1s_6derive10DataStructE5builds0_000ENtNtNtB9_6traits8iterator8Iterator4nextB3k_, symObjAddr: 0x44C8, symBinAddr: 0x2A2C0, symSize: 0x78 }
  - { offset: 0x44FB0, size: 0x8, addend: 0x0, symName: __RNvXs0_NtNtNtCs85QQFkKrybG_4core4iter8adapters3mapINtB5_3MapINtNtNtBb_5slice4iter4IterTRNtNtCscwCr4GBBztI_3syn11restriction10VisibilityNtCsfwj6t2KTYdc_11proc_macro211TokenStreamRNtNtB1s_2ty4TypeEENCNCNCNvMs5_Cs4oBEgEuuqV9_15zerocopy_deriveINtB3k_16ImplBlockBuilderNtNtB1s_6derive4DataE5builds0_000ENtNtNtB9_6traits8iterator8Iterator4nextB3k_, symObjAddr: 0x4540, symBinAddr: 0x2A338, symSize: 0x78 }
  - { offset: 0x4504C, size: 0x8, addend: 0x0, symName: __RNvXs0_NtNtNtCs85QQFkKrybG_4core4iter8adapters3mapINtB5_3MapINtNtNtBb_5slice4iter4IterTRNtNtCscwCr4GBBztI_3syn11restriction10VisibilityNtCsfwj6t2KTYdc_11proc_macro211TokenStreamRNtNtB1s_2ty4TypeEENCNCNCNvMs5_Cs4oBEgEuuqV9_15zerocopy_deriveINtB3k_16ImplBlockBuilderNtNtB1s_6derive8DataEnumE5builds0_000ENtNtNtB9_6traits8iterator8Iterator4nextB3k_, symObjAddr: 0x45B8, symBinAddr: 0x2A3B0, symSize: 0x78 }
  - { offset: 0x450E8, size: 0x8, addend: 0x0, symName: __RNvXs0_NtNtNtCs85QQFkKrybG_4core4iter8adapters3mapINtB5_3MapINtNtNtBb_5slice4iter4IterTRNtNtCscwCr4GBBztI_3syn11restriction10VisibilityNtCsfwj6t2KTYdc_11proc_macro211TokenStreamRNtNtB1s_2ty4TypeEENCNCNCNvMs5_Cs4oBEgEuuqV9_15zerocopy_deriveINtB3k_16ImplBlockBuilderNtNtB1s_6derive9DataUnionE5builds0_000ENtNtNtB9_6traits8iterator8Iterator4nextB3k_, symObjAddr: 0x4630, symBinAddr: 0x2A428, symSize: 0x78 }
  - { offset: 0x45184, size: 0x8, addend: 0x0, symName: __RNvXs0_NtNtNtCs85QQFkKrybG_4core4iter8adapters3mapINtB5_3MapINtNtNtBb_5slice4iter4IterTRNtNtCscwCr4GBBztI_3syn11restriction10VisibilityNtCsfwj6t2KTYdc_11proc_macro211TokenStreamRNtNtB1s_2ty4TypeEENCNCNvCs4oBEgEuuqV9_15zerocopy_derive27derive_try_from_bytes_union00ENtNtNtB9_6traits8iterator8Iterator4nextB3e_, symObjAddr: 0x46A8, symBinAddr: 0x2A4A0, symSize: 0x78 }
  - { offset: 0x45220, size: 0x8, addend: 0x0, symName: __RNvXs0_NtNtNtCs85QQFkKrybG_4core4iter8adapters3mapINtB5_3MapINtNtNtBb_5slice4iter4IterTRNtNtCscwCr4GBBztI_3syn11restriction10VisibilityNtCsfwj6t2KTYdc_11proc_macro211TokenStreamRNtNtB1s_2ty4TypeEENCNCNvCs4oBEgEuuqV9_15zerocopy_derive27derive_try_from_bytes_union0s_0ENtNtNtB9_6traits8iterator8Iterator4nextB3e_, symObjAddr: 0x4720, symBinAddr: 0x2A518, symSize: 0x78 }
  - { offset: 0x452BC, size: 0x8, addend: 0x0, symName: __RNvXs0_NtNtNtCs85QQFkKrybG_4core4iter8adapters3mapINtB5_3MapINtNtNtBb_5slice4iter4IterTRNtNtCscwCr4GBBztI_3syn11restriction10VisibilityNtCsfwj6t2KTYdc_11proc_macro211TokenStreamRNtNtB1s_2ty4TypeEENCNCNvCs4oBEgEuuqV9_15zerocopy_derive28derive_try_from_bytes_struct00ENtNtNtB9_6traits8iterator8Iterator4nextB3e_, symObjAddr: 0x4798, symBinAddr: 0x2A590, symSize: 0x78 }
  - { offset: 0x45358, size: 0x8, addend: 0x0, symName: __RNvXs0_NtNtNtCs85QQFkKrybG_4core4iter8adapters3mapINtB5_3MapINtNtNtBb_5slice4iter4IterTRNtNtCscwCr4GBBztI_3syn11restriction10VisibilityNtCsfwj6t2KTYdc_11proc_macro211TokenStreamRNtNtB1s_2ty4TypeEENCNCNvCs4oBEgEuuqV9_15zerocopy_derive28derive_try_from_bytes_struct0s_0ENtNtNtB9_6traits8iterator8Iterator4nextB3e_, symObjAddr: 0x4810, symBinAddr: 0x2A608, symSize: 0x78 }
  - { offset: 0x453F4, size: 0x8, addend: 0x0, symName: __RNvXs0_NtNtNtCs85QQFkKrybG_4core4iter8adapters3mapINtB5_3MapINtNtNtBb_5slice4iter4IterTRNtNtCscwCr4GBBztI_3syn11restriction10VisibilityNtCsfwj6t2KTYdc_11proc_macro211TokenStreamRNtNtB1s_2ty4TypeEENCNvCs4oBEgEuuqV9_15zerocopy_derive25derive_known_layout_inner0ENtNtNtB9_6traits8iterator8Iterator4nextB3c_, symObjAddr: 0x4888, symBinAddr: 0x2A680, symSize: 0x78 }
  - { offset: 0x45490, size: 0x8, addend: 0x0, symName: __RNvXs0_NtNtNtCs85QQFkKrybG_4core4iter8adapters3mapINtB5_3MapINtNtNtBb_5slice4iter4IterTRNtNtCscwCr4GBBztI_3syn11restriction10VisibilityNtCsfwj6t2KTYdc_11proc_macro211TokenStreamRNtNtB1s_2ty4TypeEENCNvCs4oBEgEuuqV9_15zerocopy_derive25derive_known_layout_inners5_0ENtNtNtB9_6traits8iterator8Iterator9size_hintB3c_, symObjAddr: 0x4900, symBinAddr: 0x2A6F8, symSize: 0x24 }
  - { offset: 0x454D7, size: 0x8, addend: 0x0, symName: __RNvXs0_NtNtNtCs85QQFkKrybG_4core4iter8adapters3mapINtB5_3MapINtNtNtBb_5slice4iter4IterTRNtNtCscwCr4GBBztI_3syn11restriction10VisibilityNtCsfwj6t2KTYdc_11proc_macro211TokenStreamRNtNtB1s_2ty4TypeEENCNvCs4oBEgEuuqV9_15zerocopy_derive25derive_known_layout_inners8_0ENtNtNtB9_6traits8iterator8Iterator4nextB3c_, symObjAddr: 0x4924, symBinAddr: 0x2A71C, symSize: 0x94 }
  - { offset: 0x45573, size: 0x8, addend: 0x0, symName: __RNvXs0_NtNtNtCs85QQFkKrybG_4core4iter8adapters3mapINtB5_3MapINtNtNtBb_5slice4iter4IterTRNtNtCscwCr4GBBztI_3syn11restriction10VisibilityNtCsfwj6t2KTYdc_11proc_macro211TokenStreamRNtNtB1s_2ty4TypeEENCNvMs5_Cs4oBEgEuuqV9_15zerocopy_deriveINtB3g_16ImplBlockBuilderNtNtB1s_6derive10DataStructE5build0ENtNtNtB9_6traits8iterator8Iterator9size_hintB3g_, symObjAddr: 0x49B8, symBinAddr: 0x2A7B0, symSize: 0x24 }
  - { offset: 0x455BA, size: 0x8, addend: 0x0, symName: __RNvXs0_NtNtNtCs85QQFkKrybG_4core4iter8adapters3mapINtB5_3MapINtNtNtBb_5slice4iter4IterTRNtNtCscwCr4GBBztI_3syn11restriction10VisibilityNtCsfwj6t2KTYdc_11proc_macro211TokenStreamRNtNtB1s_2ty4TypeEENCNvMs5_Cs4oBEgEuuqV9_15zerocopy_deriveINtB3g_16ImplBlockBuilderNtNtB1s_6derive4DataE5build0ENtNtNtB9_6traits8iterator8Iterator9size_hintB3g_, symObjAddr: 0x49DC, symBinAddr: 0x2A7D4, symSize: 0x24 }
  - { offset: 0x45601, size: 0x8, addend: 0x0, symName: __RNvXs0_NtNtNtCs85QQFkKrybG_4core4iter8adapters3mapINtB5_3MapINtNtNtBb_5slice4iter4IterTRNtNtCscwCr4GBBztI_3syn11restriction10VisibilityNtCsfwj6t2KTYdc_11proc_macro211TokenStreamRNtNtB1s_2ty4TypeEENCNvMs5_Cs4oBEgEuuqV9_15zerocopy_deriveINtB3g_16ImplBlockBuilderNtNtB1s_6derive8DataEnumE5build0ENtNtNtB9_6traits8iterator8Iterator9size_hintB3g_, symObjAddr: 0x4A00, symBinAddr: 0x2A7F8, symSize: 0x24 }
  - { offset: 0x45648, size: 0x8, addend: 0x0, symName: __RNvXs0_NtNtNtCs85QQFkKrybG_4core4iter8adapters3mapINtB5_3MapINtNtNtBb_5slice4iter4IterTRNtNtCscwCr4GBBztI_3syn11restriction10VisibilityNtCsfwj6t2KTYdc_11proc_macro211TokenStreamRNtNtB1s_2ty4TypeEENCNvMs5_Cs4oBEgEuuqV9_15zerocopy_deriveINtB3g_16ImplBlockBuilderNtNtB1s_6derive9DataUnionE5build0ENtNtNtB9_6traits8iterator8Iterator9size_hintB3g_, symObjAddr: 0x4A24, symBinAddr: 0x2A81C, symSize: 0x24 }
  - { offset: 0x4577F, size: 0x8, addend: 0x0, symName: __RNCINvNtNtNtCs85QQFkKrybG_4core4iter8adapters3map8map_foldNtCsfwj6t2KTYdc_11proc_macro211TokenStreamNtNtBW_3imp11TokenStreamuNCINvXs7_BW_BU_INtNtNtB8_6traits7collect12FromIteratorBU_E9from_iterINtNtNtBa_5array4iter8IntoIterBU_Kj2_EE0NCIB2_B1A_NtCs9bTl5rSDVcL_10proc_macro11TokenStreamuNCINvXs6_B1C_B1A_IB2f_B1A_E9from_iterINtB4_3MapB35_B1Z_EE0NCINvNvNtNtB2j_8iterator8Iterator8for_each4callB3T_NCINvXsj_B3V_B3T_INtB2h_6ExtendB3T_E6extendIB5b_B5a_B4z_EE0E0E0E0Cs4oBEgEuuqV9_15zerocopy_derive, symObjAddr: 0x2118, symBinAddr: 0x27F18, symSize: 0x9C }
  - { offset: 0x45805, size: 0x8, addend: 0x0, symName: __RNCINvNtNtNtCs85QQFkKrybG_4core4iter8adapters3map8map_foldNtNtCsfwj6t2KTYdc_11proc_macro23imp11TokenStreamNtCs9bTl5rSDVcL_10proc_macro11TokenStreamuNCINvXs6_BW_BU_INtNtNtB8_6traits7collect12FromIteratorBU_E9from_iterINtB4_3MapINtNtNtBa_5array4iter8IntoIterNtBY_11TokenStreamKj2_ENCINvXs7_BY_B46_IB2C_B46_E9from_iterB3C_E0EE0NCINvNvNtNtB2G_8iterator8Iterator8for_each4callB1G_NCINvXsj_B1I_B1G_INtB2E_6ExtendB1G_E6extendIB3t_B3s_B2m_EE0E0E0Cs4oBEgEuuqV9_15zerocopy_derive, symObjAddr: 0x21B4, symBinAddr: 0x27FB4, symSize: 0x8C }
  - { offset: 0x4588B, size: 0x8, addend: 0x0, symName: __RNCINvNtNtNtCs85QQFkKrybG_4core4iter8adapters3map8map_foldRTRNtNtCscwCr4GBBztI_3syn11restriction10VisibilityNtCsfwj6t2KTYdc_11proc_macro211TokenStreamRNtNtB11_2ty4TypeENtB1K_5IdentuNCNvCs4oBEgEuuqV9_15zerocopy_derive25derive_known_layout_inners5_0NCINvNvNtNtNtB8_6traits8iterator8Iterator8for_each4callB2G_NCINvMsi_NtCsdFlNUEO95cG_5alloc3vecINtB53_3VecB2G_E14extend_trustedINtB4_3MapINtNtNtBa_5slice4iter4IterBV_EB2T_EE0E0E0B2X_, symObjAddr: 0x2240, symBinAddr: 0x28040, symSize: 0x8C }
  - { offset: 0x45910, size: 0x8, addend: 0x0, symName: __RNCINvNtNtNtCs85QQFkKrybG_4core4iter8adapters3map8map_foldRTRNtNtCscwCr4GBBztI_3syn11restriction10VisibilityNtCsfwj6t2KTYdc_11proc_macro211TokenStreamRNtNtB11_2ty4TypeENtNtB11_8generics14WherePredicateuNCNvMs5_Cs4oBEgEuuqV9_15zerocopy_deriveINtB3m_16ImplBlockBuilderNtNtB11_6derive10DataStructE5build0NCINvNvNtNtNtB8_6traits8iterator8Iterator8for_each4callB2G_NCINvMsi_NtCsdFlNUEO95cG_5alloc3vecINtB5V_3VecB2G_E14extend_trustedINtB4_3MapINtNtNtBa_5slice4iter4IterBV_EB3e_EE0E0E0B3m_, symObjAddr: 0x22CC, symBinAddr: 0x280CC, symSize: 0x9C }
  - { offset: 0x45995, size: 0x8, addend: 0x0, symName: __RNCINvNtNtNtCs85QQFkKrybG_4core4iter8adapters3map8map_foldRTRNtNtCscwCr4GBBztI_3syn11restriction10VisibilityNtCsfwj6t2KTYdc_11proc_macro211TokenStreamRNtNtB11_2ty4TypeENtNtB11_8generics14WherePredicateuNCNvMs5_Cs4oBEgEuuqV9_15zerocopy_deriveINtB3m_16ImplBlockBuilderNtNtB11_6derive4DataE5build0NCINvNvNtNtNtB8_6traits8iterator8Iterator8for_each4callB2G_NCINvMsi_NtCsdFlNUEO95cG_5alloc3vecINtB5O_3VecB2G_E14extend_trustedINtB4_3MapINtNtNtBa_5slice4iter4IterBV_EB3e_EE0E0E0B3m_, symObjAddr: 0x2368, symBinAddr: 0x28168, symSize: 0x9C }
  - { offset: 0x45A1A, size: 0x8, addend: 0x0, symName: __RNCINvNtNtNtCs85QQFkKrybG_4core4iter8adapters3map8map_foldRTRNtNtCscwCr4GBBztI_3syn11restriction10VisibilityNtCsfwj6t2KTYdc_11proc_macro211TokenStreamRNtNtB11_2ty4TypeENtNtB11_8generics14WherePredicateuNCNvMs5_Cs4oBEgEuuqV9_15zerocopy_deriveINtB3m_16ImplBlockBuilderNtNtB11_6derive8DataEnumE5build0NCINvNvNtNtNtB8_6traits8iterator8Iterator8for_each4callB2G_NCINvMsi_NtCsdFlNUEO95cG_5alloc3vecINtB5S_3VecB2G_E14extend_trustedINtB4_3MapINtNtNtBa_5slice4iter4IterBV_EB3e_EE0E0E0B3m_, symObjAddr: 0x2404, symBinAddr: 0x28204, symSize: 0x9C }
  - { offset: 0x45A9F, size: 0x8, addend: 0x0, symName: __RNCINvNtNtNtCs85QQFkKrybG_4core4iter8adapters3map8map_foldRTRNtNtCscwCr4GBBztI_3syn11restriction10VisibilityNtCsfwj6t2KTYdc_11proc_macro211TokenStreamRNtNtB11_2ty4TypeENtNtB11_8generics14WherePredicateuNCNvMs5_Cs4oBEgEuuqV9_15zerocopy_deriveINtB3m_16ImplBlockBuilderNtNtB11_6derive9DataUnionE5build0NCINvNvNtNtNtB8_6traits8iterator8Iterator8for_each4callB2G_NCINvMsi_NtCsdFlNUEO95cG_5alloc3vecINtB5T_3VecB2G_E14extend_trustedINtB4_3MapINtNtNtBa_5slice4iter4IterBV_EB3e_EE0E0E0B3m_, symObjAddr: 0x24A0, symBinAddr: 0x282A0, symSize: 0x9C }
  - { offset: 0x45E39, size: 0x8, addend: 0x0, symName: __RNvXsb_NtNtNtCs85QQFkKrybG_4core4iter8adapters3mapINtB5_3MapINtNtNtBb_5slice4iter4IterTRNtNtCscwCr4GBBztI_3syn11restriction10VisibilityNtCsfwj6t2KTYdc_11proc_macro211TokenStreamRNtNtB1s_2ty4TypeEENCNvCs4oBEgEuuqV9_15zerocopy_derive25derive_known_layout_inner0ENtNtBb_5clone5Clone5cloneB3c_, symObjAddr: 0x5440, symBinAddr: 0x2B238, symSize: 0x60 }
  - { offset: 0x46A36, size: 0x8, addend: 0x0, symName: __RINvYINtNtNtNtCs85QQFkKrybG_4core4iter8adapters3map3MapIB4_INtNtNtBc_5array4iter8IntoIterNtCsfwj6t2KTYdc_11proc_macro211TokenStreamKj2_ENCINvXs7_B1r_B1p_INtNtNtBa_6traits7collect12FromIteratorB1p_E9from_iterBV_E0ENCINvXs6_NtB1r_3impNtB3y_11TokenStreamIB2s_B3I_E9from_iterBR_E0ENtNtB2w_8iterator8Iterator8for_eachNCINvXsj_Cs9bTl5rSDVcL_10proc_macroNtB59_11TokenStreamINtB2u_6ExtendB5z_E6extendB3_E0ECs4oBEgEuuqV9_15zerocopy_derive, symObjAddr: 0x1954, symBinAddr: 0x27754, symSize: 0x24 }
  - { offset: 0x46A82, size: 0x8, addend: 0x0, symName: __RINvYINtNtNtNtCs85QQFkKrybG_4core4iter8adapters3map3MapINtNtB8_9enumerate9EnumerateINtNtB8_7flatten7FlatMapINtNtCscwCr4GBBztI_3syn10punctuated4IterNtNtB1M_4data7VariantERNtB2n_6FieldsNCNvXs0_NtCs4oBEgEuuqV9_15zerocopy_derive3extNtNtB1M_6derive8DataEnumNtB33_7DataExt6fields0EENCINvB33_10map_fieldsB1j_E0ENtNtNtBa_6traits8iterator8Iterator7collectINtNtCsdFlNUEO95cG_5alloc3vec3VecTRNtNtB1M_11restriction10VisibilityNtCsfwj6t2KTYdc_11proc_macro211TokenStreamRNtNtB1M_2ty4TypeEEEB35_, symObjAddr: 0x1978, symBinAddr: 0x27778, symSize: 0x74 }
  - { offset: 0x46B18, size: 0x8, addend: 0x0, symName: __RINvYINtNtNtNtCs85QQFkKrybG_4core4iter8adapters3map3MapINtNtB8_9enumerate9EnumerateINtNtCscwCr4GBBztI_3syn10punctuated4IterNtNtB1o_4data5FieldEENCINvNtCs4oBEgEuuqV9_15zerocopy_derive3ext10map_fieldsRINtB1m_10PunctuatedB1X_NtNtB1o_5token5CommaEE0ENtNtNtBa_6traits8iterator8Iterator7collectINtNtCsdFlNUEO95cG_5alloc3vec3VecTRNtNtB1o_11restriction10VisibilityNtCsfwj6t2KTYdc_11proc_macro211TokenStreamRNtNtB1o_2ty4TypeEEEB2p_, symObjAddr: 0x19EC, symBinAddr: 0x277EC, symSize: 0x68 }
  - { offset: 0x46BAE, size: 0x8, addend: 0x0, symName: __RINvYINtNtNtNtCs85QQFkKrybG_4core4iter8adapters3map3MapINtNtB8_9enumerate9EnumerateINtNtCscwCr4GBBztI_3syn10punctuated4IterNtNtB1o_4data5FieldEENCINvNtCs4oBEgEuuqV9_15zerocopy_derive3ext10map_fieldsRNtB1Z_6FieldsE0ENtNtNtBa_6traits8iterator8Iterator7collectINtNtCsdFlNUEO95cG_5alloc3vec3VecTRNtNtB1o_11restriction10VisibilityNtCsfwj6t2KTYdc_11proc_macro211TokenStreamRNtNtB1o_2ty4TypeEEEB2p_, symObjAddr: 0x1A54, symBinAddr: 0x27854, symSize: 0x68 }
  - { offset: 0x46C44, size: 0x8, addend: 0x0, symName: __RINvYINtNtNtNtCs85QQFkKrybG_4core4iter8adapters3map3MapINtNtCscwCr4GBBztI_3syn10punctuated4IterNtNtBW_4data5FieldENCNvCs4oBEgEuuqV9_15zerocopy_derive22derive_from_zeros_enum0ENtNtNtBa_6traits8iterator8Iterator7collectINtNtCsdFlNUEO95cG_5alloc3vec3VecNtNtBW_8generics14WherePredicateEEB1S_, symObjAddr: 0x1ABC, symBinAddr: 0x278BC, symSize: 0x68 }
  - { offset: 0x46CDA, size: 0x8, addend: 0x0, symName: __RINvYINtNtNtNtCs85QQFkKrybG_4core4iter8adapters3map3MapINtNtCscwCr4GBBztI_3syn10punctuated4IterNtNtBW_4data7VariantENCNvXs0_NtCs4oBEgEuuqV9_15zerocopy_derive3extNtNtBW_6derive8DataEnumNtB1Y_7DataExt8variants0ENtNtNtBa_6traits8iterator8Iterator7collectINtNtCsdFlNUEO95cG_5alloc3vec3VecIB42_TRNtNtBW_11restriction10VisibilityNtCsfwj6t2KTYdc_11proc_macro211TokenStreamRNtNtBW_2ty4TypeEEEEB20_, symObjAddr: 0x1B24, symBinAddr: 0x27924, symSize: 0x60 }
  - { offset: 0x46D6F, size: 0x8, addend: 0x0, symName: __RINvYINtNtNtNtCs85QQFkKrybG_4core4iter8adapters3map3MapINtNtNtBc_5array4iter8IntoIterNtCsfwj6t2KTYdc_11proc_macro211TokenStreamKj2_ENCINvXs7_B1n_B1l_INtNtNtBa_6traits7collect12FromIteratorB1l_E9from_iterBR_E0ENtNtB2s_8iterator8Iterator3mapNtCs9bTl5rSDVcL_10proc_macro11TokenStreamNCINvXs6_NtB1n_3impNtB4D_11TokenStreamIB2o_B4N_E9from_iterB3_E0ECs4oBEgEuuqV9_15zerocopy_derive, symObjAddr: 0x1B84, symBinAddr: 0x27984, symSize: 0x30 }
  - { offset: 0x46DDD, size: 0x8, addend: 0x0, symName: __RINvYINtNtNtNtCs85QQFkKrybG_4core4iter8adapters3map3MapINtNtNtBc_5array4iter8IntoIterNtCsfwj6t2KTYdc_11proc_macro211TokenStreamKj2_ENCINvXs7_B1n_B1l_INtNtNtBa_6traits7collect12FromIteratorB1l_E9from_iterBR_E0ENtNtB2s_8iterator8Iterator3mapNtNtB1n_8fallback11TokenStreamNCINvXs6_NtB1n_3impNtB4s_11TokenStreamIB2o_B4C_E9from_iterB3_Es_0ECs4oBEgEuuqV9_15zerocopy_derive, symObjAddr: 0x1BB4, symBinAddr: 0x279B4, symSize: 0x30 }
  - { offset: 0x46E4B, size: 0x8, addend: 0x0, symName: __RINvYINtNtNtNtCs85QQFkKrybG_4core4iter8adapters3map3MapINtNtNtBc_5array4iter8IntoIterNtCsfwj6t2KTYdc_11proc_macro211TokenStreamKj2_ENCINvXs7_B1n_B1l_INtNtNtBa_6traits7collect12FromIteratorB1l_E9from_iterBR_E0ENtNtB2s_8iterator8Iterator7collectNtNtB1n_3imp11TokenStreamECs4oBEgEuuqV9_15zerocopy_derive, symObjAddr: 0x1BE4, symBinAddr: 0x279E4, symSize: 0x6C }
  - { offset: 0x46EE1, size: 0x8, addend: 0x0, symName: __RINvYINtNtNtNtCs85QQFkKrybG_4core4iter8adapters3map3MapINtNtNtBc_5slice4iter4IterNtCs4oBEgEuuqV9_15zerocopy_derive10TraitBoundENCNvB1j_16normalize_bounds0ENtNtNtBa_6traits8iterator8Iterator3mapNtNtCscwCr4GBBztI_3syn4path4PathNCINvNvMs5_B1j_INtB1j_16ImplBlockBuilderpE5build8bound_ttB3_E0EB1j_, symObjAddr: 0x1C50, symBinAddr: 0x27A50, symSize: 0x28 }
  - { offset: 0x46F4E, size: 0x8, addend: 0x0, symName: __RINvYINtNtNtNtCs85QQFkKrybG_4core4iter8adapters3map3MapINtNtNtBc_5slice4iter4IterTRNtNtCscwCr4GBBztI_3syn11restriction10VisibilityNtCsfwj6t2KTYdc_11proc_macro211TokenStreamRNtNtB1n_2ty4TypeEENCNvCs4oBEgEuuqV9_15zerocopy_derive25derive_known_layout_inners5_0ENtNtNtBa_6traits8iterator8Iterator7collectINtNtCsdFlNUEO95cG_5alloc3vec3VecNtB26_5IdentEEB37_, symObjAddr: 0x1C78, symBinAddr: 0x27A78, symSize: 0x68 }
  - { offset: 0x46FE4, size: 0x8, addend: 0x0, symName: __RINvYINtNtNtNtCs85QQFkKrybG_4core4iter8adapters3map3MapINtNtNtBc_5slice4iter4IterTRNtNtCscwCr4GBBztI_3syn11restriction10VisibilityNtCsfwj6t2KTYdc_11proc_macro211TokenStreamRNtNtB1n_2ty4TypeEENCNvCs4oBEgEuuqV9_15zerocopy_derive25derive_known_layout_inners5_0ENtNtNtBa_6traits8iterator8Iterator8for_eachNCINvMsi_NtCsdFlNUEO95cG_5alloc3vecINtB4Y_3VecNtB26_5IdentE14extend_trustedB3_E0EB37_, symObjAddr: 0x1CE0, symBinAddr: 0x27AE0, symSize: 0x34 }
  - { offset: 0x47050, size: 0x8, addend: 0x0, symName: __RINvYINtNtNtNtCs85QQFkKrybG_4core4iter8adapters3map3MapINtNtNtBc_5slice4iter4IterTRNtNtCscwCr4GBBztI_3syn11restriction10VisibilityNtCsfwj6t2KTYdc_11proc_macro211TokenStreamRNtNtB1n_2ty4TypeEENCNvMs5_Cs4oBEgEuuqV9_15zerocopy_deriveINtB3b_16ImplBlockBuilderNtNtB1n_6derive10DataStructE5build0ENtNtNtBa_6traits8iterator8Iterator7collectINtNtCsdFlNUEO95cG_5alloc3vec3VecNtNtB1n_8generics14WherePredicateEEB3b_, symObjAddr: 0x1D14, symBinAddr: 0x27B14, symSize: 0x74 }
  - { offset: 0x470E6, size: 0x8, addend: 0x0, symName: __RINvYINtNtNtNtCs85QQFkKrybG_4core4iter8adapters3map3MapINtNtNtBc_5slice4iter4IterTRNtNtCscwCr4GBBztI_3syn11restriction10VisibilityNtCsfwj6t2KTYdc_11proc_macro211TokenStreamRNtNtB1n_2ty4TypeEENCNvMs5_Cs4oBEgEuuqV9_15zerocopy_deriveINtB3b_16ImplBlockBuilderNtNtB1n_6derive10DataStructE5build0ENtNtNtBa_6traits8iterator8Iterator8for_eachNCINvMsi_NtCsdFlNUEO95cG_5alloc3vecINtB5v_3VecNtNtB1n_8generics14WherePredicateE14extend_trustedB3_E0EB3b_, symObjAddr: 0x1D88, symBinAddr: 0x27B88, symSize: 0x34 }
  - { offset: 0x47152, size: 0x8, addend: 0x0, symName: __RINvYINtNtNtNtCs85QQFkKrybG_4core4iter8adapters3map3MapINtNtNtBc_5slice4iter4IterTRNtNtCscwCr4GBBztI_3syn11restriction10VisibilityNtCsfwj6t2KTYdc_11proc_macro211TokenStreamRNtNtB1n_2ty4TypeEENCNvMs5_Cs4oBEgEuuqV9_15zerocopy_deriveINtB3b_16ImplBlockBuilderNtNtB1n_6derive4DataE5build0ENtNtNtBa_6traits8iterator8Iterator7collectINtNtCsdFlNUEO95cG_5alloc3vec3VecNtNtB1n_8generics14WherePredicateEEB3b_, symObjAddr: 0x1DBC, symBinAddr: 0x27BBC, symSize: 0x74 }
  - { offset: 0x471E8, size: 0x8, addend: 0x0, symName: __RINvYINtNtNtNtCs85QQFkKrybG_4core4iter8adapters3map3MapINtNtNtBc_5slice4iter4IterTRNtNtCscwCr4GBBztI_3syn11restriction10VisibilityNtCsfwj6t2KTYdc_11proc_macro211TokenStreamRNtNtB1n_2ty4TypeEENCNvMs5_Cs4oBEgEuuqV9_15zerocopy_deriveINtB3b_16ImplBlockBuilderNtNtB1n_6derive4DataE5build0ENtNtNtBa_6traits8iterator8Iterator8for_eachNCINvMsi_NtCsdFlNUEO95cG_5alloc3vecINtB5o_3VecNtNtB1n_8generics14WherePredicateE14extend_trustedB3_E0EB3b_, symObjAddr: 0x1E30, symBinAddr: 0x27C30, symSize: 0x34 }
  - { offset: 0x47254, size: 0x8, addend: 0x0, symName: __RINvYINtNtNtNtCs85QQFkKrybG_4core4iter8adapters3map3MapINtNtNtBc_5slice4iter4IterTRNtNtCscwCr4GBBztI_3syn11restriction10VisibilityNtCsfwj6t2KTYdc_11proc_macro211TokenStreamRNtNtB1n_2ty4TypeEENCNvMs5_Cs4oBEgEuuqV9_15zerocopy_deriveINtB3b_16ImplBlockBuilderNtNtB1n_6derive8DataEnumE5build0ENtNtNtBa_6traits8iterator8Iterator7collectINtNtCsdFlNUEO95cG_5alloc3vec3VecNtNtB1n_8generics14WherePredicateEEB3b_, symObjAddr: 0x1E64, symBinAddr: 0x27C64, symSize: 0x74 }
  - { offset: 0x472EA, size: 0x8, addend: 0x0, symName: __RINvYINtNtNtNtCs85QQFkKrybG_4core4iter8adapters3map3MapINtNtNtBc_5slice4iter4IterTRNtNtCscwCr4GBBztI_3syn11restriction10VisibilityNtCsfwj6t2KTYdc_11proc_macro211TokenStreamRNtNtB1n_2ty4TypeEENCNvMs5_Cs4oBEgEuuqV9_15zerocopy_deriveINtB3b_16ImplBlockBuilderNtNtB1n_6derive8DataEnumE5build0ENtNtNtBa_6traits8iterator8Iterator8for_eachNCINvMsi_NtCsdFlNUEO95cG_5alloc3vecINtB5s_3VecNtNtB1n_8generics14WherePredicateE14extend_trustedB3_E0EB3b_, symObjAddr: 0x1ED8, symBinAddr: 0x27CD8, symSize: 0x34 }
  - { offset: 0x47356, size: 0x8, addend: 0x0, symName: __RINvYINtNtNtNtCs85QQFkKrybG_4core4iter8adapters3map3MapINtNtNtBc_5slice4iter4IterTRNtNtCscwCr4GBBztI_3syn11restriction10VisibilityNtCsfwj6t2KTYdc_11proc_macro211TokenStreamRNtNtB1n_2ty4TypeEENCNvMs5_Cs4oBEgEuuqV9_15zerocopy_deriveINtB3b_16ImplBlockBuilderNtNtB1n_6derive9DataUnionE5build0ENtNtNtBa_6traits8iterator8Iterator7collectINtNtCsdFlNUEO95cG_5alloc3vec3VecNtNtB1n_8generics14WherePredicateEEB3b_, symObjAddr: 0x1F0C, symBinAddr: 0x27D0C, symSize: 0x74 }
  - { offset: 0x473EC, size: 0x8, addend: 0x0, symName: __RINvYINtNtNtNtCs85QQFkKrybG_4core4iter8adapters3map3MapINtNtNtBc_5slice4iter4IterTRNtNtCscwCr4GBBztI_3syn11restriction10VisibilityNtCsfwj6t2KTYdc_11proc_macro211TokenStreamRNtNtB1n_2ty4TypeEENCNvMs5_Cs4oBEgEuuqV9_15zerocopy_deriveINtB3b_16ImplBlockBuilderNtNtB1n_6derive9DataUnionE5build0ENtNtNtBa_6traits8iterator8Iterator8for_eachNCINvMsi_NtCsdFlNUEO95cG_5alloc3vecINtB5t_3VecNtNtB1n_8generics14WherePredicateE14extend_trustedB3_E0EB3b_, symObjAddr: 0x1F80, symBinAddr: 0x27D80, symSize: 0x34 }
  - { offset: 0x47458, size: 0x8, addend: 0x0, symName: __RNvYINtNtNtNtCs85QQFkKrybG_4core4iter8adapters3map3MapIB3_INtNtNtBb_5array4iter8IntoIterNtCsfwj6t2KTYdc_11proc_macro211TokenStreamKj2_ENCINvXs7_B1q_B1o_INtNtNtB9_6traits7collect12FromIteratorB1o_E9from_iterBU_E0ENCINvXs6_NtB1q_3impNtB3x_11TokenStreamIB2r_B3H_E9from_iterBQ_Es_0ENtNtB2v_8iterator8Iterator4fuseCs4oBEgEuuqV9_15zerocopy_derive, symObjAddr: 0x5538, symBinAddr: 0x2B330, symSize: 0x54 }
  - { offset: 0x474A5, size: 0x8, addend: 0x0, symName: __RNvYINtNtNtNtCs85QQFkKrybG_4core4iter8adapters3map3MapIB3_INtNtNtBb_5array4iter8IntoIterNtCsfwj6t2KTYdc_11proc_macro211TokenStreamKj2_ENCINvXs7_B1q_B1o_INtNtNtB9_6traits7collect12FromIteratorB1o_E9from_iterBU_E0ENCINvXs6_NtB1q_3impNtB3x_11TokenStreamIB2r_B3H_E9from_iterBQ_Es_0ENtNtB2v_8iterator8Iterator7flattenCs4oBEgEuuqV9_15zerocopy_derive, symObjAddr: 0x558C, symBinAddr: 0x2B384, symSize: 0x80 }
  - { offset: 0x47526, size: 0x8, addend: 0x0, symName: __RNvXNtNtNtCs85QQFkKrybG_4core4iter6traits7collectINtNtNtB6_8adapters3map3MapIBM_INtNtNtB8_5array4iter8IntoIterNtCsfwj6t2KTYdc_11proc_macro211TokenStreamKj2_ENCINvXs7_B1M_B1K_INtB2_12FromIteratorB1K_E9from_iterB1g_E0ENCINvXs6_NtB1M_3impNtB3B_11TokenStreamIB2N_B3L_E9from_iterB1c_E0ENtB2_12IntoIterator9into_iterCs4oBEgEuuqV9_15zerocopy_derive, symObjAddr: 0x2F88, symBinAddr: 0x28D88, symSize: 0x30 }
  - { offset: 0x4755E, size: 0x8, addend: 0x0, symName: __RNvXNtNtNtCs85QQFkKrybG_4core4iter6traits7collectINtNtNtB6_8adapters3map3MapIBM_INtNtNtB8_5array4iter8IntoIterNtCsfwj6t2KTYdc_11proc_macro211TokenStreamKj2_ENCINvXs7_B1M_B1K_INtB2_12FromIteratorB1K_E9from_iterB1g_E0ENCINvXs6_NtB1M_3impNtB3B_11TokenStreamIB2N_B3L_E9from_iterB1c_Es_0ENtB2_12IntoIterator9into_iterCs4oBEgEuuqV9_15zerocopy_derive, symObjAddr: 0x2FB8, symBinAddr: 0x28DB8, symSize: 0x30 }
  - { offset: 0x47596, size: 0x8, addend: 0x0, symName: __RNvXNtNtNtCs85QQFkKrybG_4core4iter6traits7collectINtNtNtB6_8adapters3map3MapINtNtBQ_9enumerate9EnumerateINtNtBQ_7flatten7FlatMapINtNtCscwCr4GBBztI_3syn10punctuated4IterNtNtB27_4data7VariantERNtB2I_6FieldsNCNvXs0_NtCs4oBEgEuuqV9_15zerocopy_derive3extNtNtB27_6derive8DataEnumNtB3o_7DataExt6fields0EENCINvB3o_10map_fieldsB1E_E0ENtB2_12IntoIterator9into_iterB3q_, symObjAddr: 0x2FE8, symBinAddr: 0x28DE8, symSize: 0x30 }
  - { offset: 0x475CE, size: 0x8, addend: 0x0, symName: __RNvXNtNtNtCs85QQFkKrybG_4core4iter6traits7collectINtNtNtB6_8adapters3map3MapINtNtBQ_9enumerate9EnumerateINtNtCscwCr4GBBztI_3syn10punctuated4IterNtNtB1J_4data5FieldEENCINvNtCs4oBEgEuuqV9_15zerocopy_derive3ext10map_fieldsRINtB1H_10PunctuatedB2i_NtNtB1J_5token5CommaEE0ENtB2_12IntoIterator9into_iterB2K_, symObjAddr: 0x3018, symBinAddr: 0x28E18, symSize: 0x18 }
  - { offset: 0x47605, size: 0x8, addend: 0x0, symName: __RNvXNtNtNtCs85QQFkKrybG_4core4iter6traits7collectINtNtNtB6_8adapters3map3MapINtNtBQ_9enumerate9EnumerateINtNtCscwCr4GBBztI_3syn10punctuated4IterNtNtB1J_4data5FieldEENCINvNtCs4oBEgEuuqV9_15zerocopy_derive3ext10map_fieldsRNtB2k_6FieldsE0ENtB2_12IntoIterator9into_iterB2K_, symObjAddr: 0x3030, symBinAddr: 0x28E30, symSize: 0x18 }
  - { offset: 0x4763C, size: 0x8, addend: 0x0, symName: __RNvXNtNtNtCs85QQFkKrybG_4core4iter6traits7collectINtNtNtB6_8adapters3map3MapINtNtCscwCr4GBBztI_3syn10punctuated4IterNtNtB1h_4data5FieldENCNvCs4oBEgEuuqV9_15zerocopy_derive22derive_from_zeros_enum0ENtB2_12IntoIterator9into_iterB2e_, symObjAddr: 0x3048, symBinAddr: 0x28E48, symSize: 0x18 }
  - { offset: 0x47673, size: 0x8, addend: 0x0, symName: __RNvXNtNtNtCs85QQFkKrybG_4core4iter6traits7collectINtNtNtB6_8adapters3map3MapINtNtCscwCr4GBBztI_3syn10punctuated4IterNtNtB1h_4data7VariantENCNvXs0_NtCs4oBEgEuuqV9_15zerocopy_derive3extNtNtB1h_6derive8DataEnumNtB2k_7DataExt8variants0ENtB2_12IntoIterator9into_iterB2m_, symObjAddr: 0x3060, symBinAddr: 0x28E60, symSize: 0x1C }
  - { offset: 0x476AA, size: 0x8, addend: 0x0, symName: __RNvXNtNtNtCs85QQFkKrybG_4core4iter6traits7collectINtNtNtB6_8adapters3map3MapINtNtNtB8_5array4iter8IntoIterNtCsfwj6t2KTYdc_11proc_macro211TokenStreamKj2_ENCINvXs7_B1I_B1G_INtB2_12FromIteratorB1G_E9from_iterB1c_E0ENtB2_12IntoIterator9into_iterCs4oBEgEuuqV9_15zerocopy_derive, symObjAddr: 0x307C, symBinAddr: 0x28E7C, symSize: 0x30 }
  - { offset: 0x476E2, size: 0x8, addend: 0x0, symName: __RNvXNtNtNtCs85QQFkKrybG_4core4iter6traits7collectINtNtNtB6_8adapters3map3MapINtNtNtB8_5slice4iter4IterTRNtNtCscwCr4GBBztI_3syn11restriction10VisibilityNtCsfwj6t2KTYdc_11proc_macro211TokenStreamRNtNtB1I_2ty4TypeEENCNvCs4oBEgEuuqV9_15zerocopy_derive25derive_known_layout_inners5_0ENtB2_12IntoIterator9into_iterB3s_, symObjAddr: 0x30AC, symBinAddr: 0x28EAC, symSize: 0x18 }
  - { offset: 0x47719, size: 0x8, addend: 0x0, symName: __RNvXNtNtNtCs85QQFkKrybG_4core4iter6traits7collectINtNtNtB6_8adapters3map3MapINtNtNtB8_5slice4iter4IterTRNtNtCscwCr4GBBztI_3syn11restriction10VisibilityNtCsfwj6t2KTYdc_11proc_macro211TokenStreamRNtNtB1I_2ty4TypeEENCNvMs5_Cs4oBEgEuuqV9_15zerocopy_deriveINtB3w_16ImplBlockBuilderNtNtB1I_6derive10DataStructE5build0ENtB2_12IntoIterator9into_iterB3w_, symObjAddr: 0x30C4, symBinAddr: 0x28EC4, symSize: 0x30 }
  - { offset: 0x47751, size: 0x8, addend: 0x0, symName: __RNvXNtNtNtCs85QQFkKrybG_4core4iter6traits7collectINtNtNtB6_8adapters3map3MapINtNtNtB8_5slice4iter4IterTRNtNtCscwCr4GBBztI_3syn11restriction10VisibilityNtCsfwj6t2KTYdc_11proc_macro211TokenStreamRNtNtB1I_2ty4TypeEENCNvMs5_Cs4oBEgEuuqV9_15zerocopy_deriveINtB3w_16ImplBlockBuilderNtNtB1I_6derive4DataE5build0ENtB2_12IntoIterator9into_iterB3w_, symObjAddr: 0x30F4, symBinAddr: 0x28EF4, symSize: 0x30 }
  - { offset: 0x47789, size: 0x8, addend: 0x0, symName: __RNvXNtNtNtCs85QQFkKrybG_4core4iter6traits7collectINtNtNtB6_8adapters3map3MapINtNtNtB8_5slice4iter4IterTRNtNtCscwCr4GBBztI_3syn11restriction10VisibilityNtCsfwj6t2KTYdc_11proc_macro211TokenStreamRNtNtB1I_2ty4TypeEENCNvMs5_Cs4oBEgEuuqV9_15zerocopy_deriveINtB3w_16ImplBlockBuilderNtNtB1I_6derive8DataEnumE5build0ENtB2_12IntoIterator9into_iterB3w_, symObjAddr: 0x3124, symBinAddr: 0x28F24, symSize: 0x30 }
  - { offset: 0x477C1, size: 0x8, addend: 0x0, symName: __RNvXNtNtNtCs85QQFkKrybG_4core4iter6traits7collectINtNtNtB6_8adapters3map3MapINtNtNtB8_5slice4iter4IterTRNtNtCscwCr4GBBztI_3syn11restriction10VisibilityNtCsfwj6t2KTYdc_11proc_macro211TokenStreamRNtNtB1I_2ty4TypeEENCNvMs5_Cs4oBEgEuuqV9_15zerocopy_deriveINtB3w_16ImplBlockBuilderNtNtB1I_6derive9DataUnionE5build0ENtB2_12IntoIterator9into_iterB3w_, symObjAddr: 0x3154, symBinAddr: 0x28F54, symSize: 0x30 }
  - { offset: 0x47892, size: 0x8, addend: 0x0, symName: __RNCINvMNtNtCs85QQFkKrybG_4core3ops9try_traitINtB5_17NeverShortCircuituE10wrap_mut_2uNtCsfwj6t2KTYdc_11proc_macro211TokenStreamNCINvNtNtNtB9_4iter8adapters3map8map_foldB1k_NtNtB1m_3imp11TokenStreamuNCINvXs7_B1m_B1k_INtNtNtB29_6traits7collect12FromIteratorB1k_E9from_iterINtNtNtB9_5array4iter8IntoIterB1k_Kj2_EE0NCIB23_B2J_NtCs9bTl5rSDVcL_10proc_macro11TokenStreamuNCINvXs6_B2L_B2J_IB3r_B2J_E9from_iterINtB25_3MapB4j_B39_EE0NCINvNvNtNtB3v_8iterator8Iterator8for_each4callB59_NCINvXsj_B5b_B59_INtB3t_6ExtendB59_E6extendIB6r_B6q_B5P_EE0E0E0E0E0Cs4oBEgEuuqV9_15zerocopy_derive, symObjAddr: 0x1FB4, symBinAddr: 0x27DB4, symSize: 0x3C }
  - { offset: 0x47908, size: 0x8, addend: 0x0, symName: __RNvXs_NtNtCs85QQFkKrybG_4core3ops9try_traitINtB4_17NeverShortCircuituENtB4_3Try11from_outputCs4oBEgEuuqV9_15zerocopy_derive, symObjAddr: 0x5428, symBinAddr: 0x2B220, symSize: 0xC }
  - { offset: 0x4793B, size: 0x8, addend: 0x0, symName: __RNvXs_NtNtCs85QQFkKrybG_4core3ops9try_traitINtB4_17NeverShortCircuituENtB4_3Try6branchCs4oBEgEuuqV9_15zerocopy_derive, symObjAddr: 0x5434, symBinAddr: 0x2B22C, symSize: 0xC }
  - { offset: 0x483F3, size: 0x8, addend: 0x0, symName: __RNvNvMNtNtCs85QQFkKrybG_4core5alloc6layoutNtB4_6Layout25from_size_align_unchecked18precondition_checkCs4oBEgEuuqV9_15zerocopy_derive, symObjAddr: 0x2E58, symBinAddr: 0x28C58, symSize: 0xBC }
  - { offset: 0x4979B, size: 0x8, addend: 0x0, symName: __RNvXs6_NtCsdFlNUEO95cG_5alloc5boxedINtB5_3BoxAINtNtB7_3vec3VecTRNtNtCscwCr4GBBztI_3syn11restriction10VisibilityNtCsfwj6t2KTYdc_11proc_macro211TokenStreamRNtNtB14_2ty4TypeEEj1_ENtNtNtCs85QQFkKrybG_4core3ops4drop4Drop4dropCs4oBEgEuuqV9_15zerocopy_derive, symObjAddr: 0x4A80, symBinAddr: 0x2A878, symSize: 0xB8 }
  - { offset: 0x498D6, size: 0x8, addend: 0x0, symName: __RNvXs6_NtCsdFlNUEO95cG_5alloc5boxedINtB5_3BoxANtNtCscwCr4GBBztI_3syn8generics14WherePredicatej1_ENtNtNtCs85QQFkKrybG_4core3ops4drop4Drop4dropCs4oBEgEuuqV9_15zerocopy_derive, symObjAddr: 0x4B38, symBinAddr: 0x2A930, symSize: 0xB8 }
  - { offset: 0x49A11, size: 0x8, addend: 0x0, symName: __RNvXs6_NtCsdFlNUEO95cG_5alloc5boxedINtB5_3BoxDNtNtCs85QQFkKrybG_4core5error5ErrorNtNtBM_6marker4SyncNtB1j_4SendEL_ENtNtNtBM_3ops4drop4Drop4dropCs4oBEgEuuqV9_15zerocopy_derive, symObjAddr: 0x4BF0, symBinAddr: 0x2A9E8, symSize: 0xCC }
  - { offset: 0x49B4C, size: 0x8, addend: 0x0, symName: __RNvXs6_NtCsdFlNUEO95cG_5alloc5boxedINtB5_3BoxINtNtCscwCr4GBBztI_3syn5drops6NoDropDINtNtBM_10punctuated9IterTraitNtNtBM_4data5FieldEp4ItemRB1M_EL_EENtNtNtCs85QQFkKrybG_4core3ops4drop4Drop4dropCs4oBEgEuuqV9_15zerocopy_derive, symObjAddr: 0x4CBC, symBinAddr: 0x2AAB4, symSize: 0x120 }
  - { offset: 0x49C87, size: 0x8, addend: 0x0, symName: __RNvXs6_NtCsdFlNUEO95cG_5alloc5boxedINtB5_3BoxINtNtCscwCr4GBBztI_3syn5drops6NoDropDINtNtBM_10punctuated9IterTraitNtNtBM_4data7VariantEp4ItemRB1M_EL_EENtNtNtCs85QQFkKrybG_4core3ops4drop4Drop4dropCs4oBEgEuuqV9_15zerocopy_derive, symObjAddr: 0x4DDC, symBinAddr: 0x2ABD4, symSize: 0x120 }
  - { offset: 0x49DC2, size: 0x8, addend: 0x0, symName: __RNvXs6_NtCsdFlNUEO95cG_5alloc5boxedINtB5_3BoxINtNtCscwCr4GBBztI_3syn5drops6NoDropDINtNtBM_10punctuated9IterTraitNtNtBM_8generics12GenericParamEp4ItemRB1M_EL_EENtNtNtCs85QQFkKrybG_4core3ops4drop4Drop4dropCs4oBEgEuuqV9_15zerocopy_derive, symObjAddr: 0x4EFC, symBinAddr: 0x2ACF4, symSize: 0x120 }
  - { offset: 0x49EFD, size: 0x8, addend: 0x0, symName: __RNvXs6_NtCsdFlNUEO95cG_5alloc5boxedINtB5_3BoxINtNtCscwCr4GBBztI_3syn5drops6NoDropDINtNtBM_10punctuated9IterTraitNtNtBM_8generics14WherePredicateEp4ItemRB1M_EL_EENtNtNtCs85QQFkKrybG_4core3ops4drop4Drop4dropCs4oBEgEuuqV9_15zerocopy_derive, symObjAddr: 0x501C, symBinAddr: 0x2AE14, symSize: 0x120 }
  - { offset: 0x4A038, size: 0x8, addend: 0x0, symName: __RNvXs6_NtCsdFlNUEO95cG_5alloc5boxedINtB5_3BoxNtNtCscwCr4GBBztI_3syn4attr4MetaENtNtNtCs85QQFkKrybG_4core3ops4drop4Drop4dropCs4oBEgEuuqV9_15zerocopy_derive, symObjAddr: 0x513C, symBinAddr: 0x2AF34, symSize: 0xB8 }
  - { offset: 0x4A173, size: 0x8, addend: 0x0, symName: __RNvXs6_NtCsdFlNUEO95cG_5alloc5boxedINtB5_3BoxNtNtNtCswz7ZwgBZOU_3std2io5error6CustomENtNtNtCs85QQFkKrybG_4core3ops4drop4Drop4dropCs4oBEgEuuqV9_15zerocopy_derive, symObjAddr: 0x51F4, symBinAddr: 0x2AFEC, symSize: 0xB8 }
  - { offset: 0x4A2B5, size: 0x8, addend: 0x0, symName: __RNvNtCsdFlNUEO95cG_5alloc3fmt6formatCs4oBEgEuuqV9_15zerocopy_derive, symObjAddr: 0x277C, symBinAddr: 0x2857C, symSize: 0xD4 }
  - { offset: 0x4A674, size: 0x8, addend: 0x0, symName: __RNCINvMs3_NtCscwCr4GBBztI_3syn3litNtB8_6LitInt12base10_parseINtNtNtCs85QQFkKrybG_4core3num7nonzero7NonZeromEE0Cs4oBEgEuuqV9_15zerocopy_derive, symObjAddr: 0x1FF0, symBinAddr: 0x27DF0, symSize: 0x94 }
  - { offset: 0x4A6BC, size: 0x8, addend: 0x0, symName: __RNCINvMs3_NtCscwCr4GBBztI_3syn3litNtB8_6LitInt12base10_parseoE0Cs4oBEgEuuqV9_15zerocopy_derive, symObjAddr: 0x2084, symBinAddr: 0x27E84, symSize: 0x94 }
  - { offset: 0x4F658, size: 0x8, addend: 0x0, symName: __RNvXNtCscwCr4GBBztI_3syn7spannedNtNtB4_4attr4MetaNtB2_7Spanned4spanCs4oBEgEuuqV9_15zerocopy_derive, symObjAddr: 0x2F14, symBinAddr: 0x28D14, symSize: 0x34 }
  - { offset: 0x4FCA1, size: 0x8, addend: 0x0, symName: __RINvMNtCscwCr4GBBztI_3syn3litNtB3_6LitStr10parse_withNvYNtNtB5_4path4PathNtNtB5_5parse5Parse5parseECs4oBEgEuuqV9_15zerocopy_derive, symObjAddr: 0x0, symBinAddr: 0x25E00, symSize: 0x420 }
  - { offset: 0x4FDDC, size: 0x8, addend: 0x0, symName: __RINvMNtCscwCr4GBBztI_3syn3litNtB3_6LitStr5parseNtNtB5_4path4PathECs4oBEgEuuqV9_15zerocopy_derive, symObjAddr: 0x420, symBinAddr: 0x26220, symSize: 0x34 }
  - { offset: 0x4FEA2, size: 0x8, addend: 0x0, symName: __RINvMNtCscwCr4GBBztI_3syn4attrNtB3_9Attribute15parse_args_withNCINvNtB5_4meta6parserNCNvCs4oBEgEuuqV9_15zerocopy_derive22extract_zerocopy_crate0E0EB1o_, symObjAddr: 0x454, symBinAddr: 0x26254, symSize: 0x384 }
  - { offset: 0x4FFF2, size: 0x8, addend: 0x0, symName: __RINvMNtCscwCr4GBBztI_3syn4attrNtB3_9Attribute17parse_nested_metaNCNvCs4oBEgEuuqV9_15zerocopy_derive22extract_zerocopy_crate0EB14_, symObjAddr: 0x7D8, symBinAddr: 0x265D8, symSize: 0x58 }
  - { offset: 0x5003A, size: 0x8, addend: 0x0, symName: __RINvMNtCscwCr4GBBztI_3syn5errorNtB3_5Error11new_spannedRNtNtB5_6derive11DeriveInputNtNtCsdFlNUEO95cG_5alloc6string6StringECs4oBEgEuuqV9_15zerocopy_derive, symObjAddr: 0x830, symBinAddr: 0x26630, symSize: 0xD4 }
  - { offset: 0x5007D, size: 0x8, addend: 0x0, symName: __RINvMNtCscwCr4GBBztI_3syn5errorNtB3_5Error11new_spannedRNtNtB5_6derive11DeriveInputReECs4oBEgEuuqV9_15zerocopy_derive, symObjAddr: 0x904, symBinAddr: 0x26704, symSize: 0xC4 }
  - { offset: 0x500CC, size: 0x8, addend: 0x0, symName: __RINvMs0_NtCscwCr4GBBztI_3syn4attrNtB6_8MetaList10parse_argsNtNtB8_3lit6LitIntECs4oBEgEuuqV9_15zerocopy_derive, symObjAddr: 0x9C8, symBinAddr: 0x267C8, symSize: 0x34 }
  - { offset: 0x500F8, size: 0x8, addend: 0x0, symName: __RINvMs0_NtCscwCr4GBBztI_3syn4attrNtB6_8MetaList15parse_args_withNCINvNtB8_4meta6parserNCNvCs4oBEgEuuqV9_15zerocopy_derive22extract_zerocopy_crate0E0EB1q_, symObjAddr: 0x9FC, symBinAddr: 0x267FC, symSize: 0xFC }
  - { offset: 0x5018C, size: 0x8, addend: 0x0, symName: __RINvMs0_NtCscwCr4GBBztI_3syn4attrNtB6_8MetaList15parse_args_withNvMNtB8_10punctuatedINtB13_10PunctuatedNtB6_4MetaNtNtB8_5token5CommaE16parse_terminatedECs4oBEgEuuqV9_15zerocopy_derive, symObjAddr: 0xAF8, symBinAddr: 0x268F8, symSize: 0xF0 }
  - { offset: 0x501F5, size: 0x8, addend: 0x0, symName: __RINvMs0_NtCscwCr4GBBztI_3syn4attrNtB6_8MetaList15parse_args_withNvYNtNtB8_3lit6LitIntNtNtB8_5parse5Parse5parseECs4oBEgEuuqV9_15zerocopy_derive, symObjAddr: 0xBE8, symBinAddr: 0x269E8, symSize: 0xF0 }
  - { offset: 0x50253, size: 0x8, addend: 0x0, symName: __RINvMs3_NtCscwCr4GBBztI_3syn3litNtB6_6LitInt12base10_parseINtNtNtCs85QQFkKrybG_4core3num7nonzero7NonZeromEECs4oBEgEuuqV9_15zerocopy_derive, symObjAddr: 0xCD8, symBinAddr: 0x26AD8, symSize: 0x64 }
  - { offset: 0x50286, size: 0x8, addend: 0x0, symName: __RINvMs3_NtCscwCr4GBBztI_3syn3litNtB6_6LitInt12base10_parseoECs4oBEgEuuqV9_15zerocopy_derive, symObjAddr: 0xD3C, symBinAddr: 0x26B3C, symSize: 0x58 }
  - { offset: 0x50AC7, size: 0x8, addend: 0x0, symName: __RNvXNtCshi3DZH3dfhk_5quote9to_tokensRNtNtCscwCr4GBBztI_3syn4attr4MetaNtB2_8ToTokens9to_tokensCs4oBEgEuuqV9_15zerocopy_derive, symObjAddr: 0x2F48, symBinAddr: 0x28D48, symSize: 0x40 }
  - { offset: 0x50B0C, size: 0x8, addend: 0x0, symName: __RNvYRNtNtCscwCr4GBBztI_3syn4attr4MetaNtNtCshi3DZH3dfhk_5quote9to_tokens8ToTokens15to_token_streamCs4oBEgEuuqV9_15zerocopy_derive, symObjAddr: 0x5B40, symBinAddr: 0x2B938, symSize: 0x8C }
  - { offset: 0x50B56, size: 0x8, addend: 0x0, symName: __RNvYRNtNtCscwCr4GBBztI_3syn4attr4MetaNtNtCshi3DZH3dfhk_5quote9to_tokens8ToTokens17into_token_streamCs4oBEgEuuqV9_15zerocopy_derive, symObjAddr: 0x5BCC, symBinAddr: 0x2B9C4, symSize: 0x54 }
  - { offset: 0x50B97, size: 0x8, addend: 0x0, symName: __RNvXs0_NtCshi3DZH3dfhk_5quote7spannedNtNtCscwCr4GBBztI_3syn4attr4MetaNtB5_7Spanned6___spanCs4oBEgEuuqV9_15zerocopy_derive, symObjAddr: 0x3184, symBinAddr: 0x28F84, symSize: 0x44 }
  - { offset: 0x50BDD, size: 0x8, addend: 0x0, symName: __RNvYINtNtNtNtCs85QQFkKrybG_4core4iter8adapters3map3MapIB3_INtNtNtBb_5slice4iter4IterNtCs4oBEgEuuqV9_15zerocopy_derive10TraitBoundENCNvB1m_16normalize_bounds0ENCINvNvMs5_B1m_INtB1m_16ImplBlockBuilderpE5build8bound_ttBQ_E0ENtNtNtCshi3DZH3dfhk_5quote9___private3ext14RepIteratorExt15quote_into_iterB1m_, symObjAddr: 0x560C, symBinAddr: 0x2B404, symSize: 0x24 }
  - { offset: 0x50C12, size: 0x8, addend: 0x0, symName: __RNvYINtNtNtNtCs85QQFkKrybG_4core4iter8adapters3map3MapINtNtB7_3zip3ZipINtNtNtBb_5slice4iter4IterNtCsfwj6t2KTYdc_11proc_macro25IdentEIB17_TRNtNtCscwCr4GBBztI_3syn11restriction10VisibilityNtB1y_11TokenStreamRNtNtB2h_2ty4TypeEEENCNvCs4oBEgEuuqV9_15zerocopy_derive25derive_known_layout_inners6_0ENtNtNtCshi3DZH3dfhk_5quote9___private3ext14RepIteratorExt15quote_into_iterB3F_, symObjAddr: 0x5630, symBinAddr: 0x2B428, symSize: 0x40 }
  - { offset: 0x50C48, size: 0x8, addend: 0x0, symName: __RNvYINtNtNtNtCs85QQFkKrybG_4core4iter8adapters3map3MapINtNtB7_3zip3ZipINtNtNtBb_5slice4iter4IterNtCsfwj6t2KTYdc_11proc_macro25IdentEIB17_TRNtNtCscwCr4GBBztI_3syn11restriction10VisibilityNtB1y_11TokenStreamRNtNtB2h_2ty4TypeEEENCNvCs4oBEgEuuqV9_15zerocopy_derive25derive_known_layout_inners7_0ENtNtNtCshi3DZH3dfhk_5quote9___private3ext14RepIteratorExt15quote_into_iterB3F_, symObjAddr: 0x5670, symBinAddr: 0x2B468, symSize: 0x40 }
  - { offset: 0x50C7E, size: 0x8, addend: 0x0, symName: __RNvYINtNtNtNtCs85QQFkKrybG_4core4iter8adapters3map3MapINtNtB7_6copied6CopiedINtNtNtBb_5slice4iter4IterNtCs4oBEgEuuqV9_15zerocopy_derive5TraitEENCINvNvMs5_B1E_INtB1E_16ImplBlockBuilderpE5build8bound_ttBQ_E0ENtNtNtCshi3DZH3dfhk_5quote9___private3ext14RepIteratorExt15quote_into_iterB1E_, symObjAddr: 0x56B0, symBinAddr: 0x2B4A8, symSize: 0x28 }
  - { offset: 0x50CB3, size: 0x8, addend: 0x0, symName: __RNvYINtNtNtNtCs85QQFkKrybG_4core4iter8adapters3map3MapINtNtCscwCr4GBBztI_3syn10punctuated4IterNtNtBV_4data5FieldENCNCNvNtCs4oBEgEuuqV9_15zerocopy_derive4enum24generate_variant_structs00ENtNtNtCshi3DZH3dfhk_5quote9___private3ext14RepIteratorExt15quote_into_iterB1V_, symObjAddr: 0x56D8, symBinAddr: 0x2B4D0, symSize: 0x2C }
  - { offset: 0x50CE8, size: 0x8, addend: 0x0, symName: __RNvYINtNtNtNtCs85QQFkKrybG_4core4iter8adapters3map3MapINtNtCscwCr4GBBztI_3syn10punctuated4IterNtNtBV_4data7VariantENCNvNtCs4oBEgEuuqV9_15zerocopy_derive4enum17generate_tag_enum0ENtNtNtCshi3DZH3dfhk_5quote9___private3ext14RepIteratorExt15quote_into_iterB1V_, symObjAddr: 0x5704, symBinAddr: 0x2B4FC, symSize: 0x2C }
  - { offset: 0x50D1D, size: 0x8, addend: 0x0, symName: __RNvYINtNtNtNtCs85QQFkKrybG_4core4iter8adapters3map3MapINtNtCscwCr4GBBztI_3syn10punctuated4IterNtNtBV_4data7VariantENCNvNtCs4oBEgEuuqV9_15zerocopy_derive4enum19derive_is_bit_valid0ENtNtNtCshi3DZH3dfhk_5quote9___private3ext14RepIteratorExt15quote_into_iterB1V_, symObjAddr: 0x5730, symBinAddr: 0x2B528, symSize: 0x40 }
  - { offset: 0x50D53, size: 0x8, addend: 0x0, symName: __RNvYINtNtNtNtCs85QQFkKrybG_4core4iter8adapters3map3MapINtNtCscwCr4GBBztI_3syn10punctuated4IterNtNtBV_4data7VariantENCNvNtCs4oBEgEuuqV9_15zerocopy_derive4enum19generate_tag_consts0ENtNtNtCshi3DZH3dfhk_5quote9___private3ext14RepIteratorExt15quote_into_iterB1V_, symObjAddr: 0x5770, symBinAddr: 0x2B568, symSize: 0x2C }
  - { offset: 0x50D88, size: 0x8, addend: 0x0, symName: __RNvYINtNtNtNtCs85QQFkKrybG_4core4iter8adapters3map3MapINtNtCscwCr4GBBztI_3syn10punctuated4IterNtNtBV_8generics12GenericParamENCNvMs5_Cs4oBEgEuuqV9_15zerocopy_deriveINtB27_16ImplBlockBuilderNtNtBV_6derive10DataStructE5builds3_0ENtNtNtCshi3DZH3dfhk_5quote9___private3ext14RepIteratorExt15quote_into_iterB27_, symObjAddr: 0x579C, symBinAddr: 0x2B594, symSize: 0x2C }
  - { offset: 0x50DBD, size: 0x8, addend: 0x0, symName: __RNvYINtNtNtNtCs85QQFkKrybG_4core4iter8adapters3map3MapINtNtCscwCr4GBBztI_3syn10punctuated4IterNtNtBV_8generics12GenericParamENCNvMs5_Cs4oBEgEuuqV9_15zerocopy_deriveINtB27_16ImplBlockBuilderNtNtBV_6derive4DataE5builds3_0ENtNtNtCshi3DZH3dfhk_5quote9___private3ext14RepIteratorExt15quote_into_iterB27_, symObjAddr: 0x57C8, symBinAddr: 0x2B5C0, symSize: 0x2C }
  - { offset: 0x50DF2, size: 0x8, addend: 0x0, symName: __RNvYINtNtNtNtCs85QQFkKrybG_4core4iter8adapters3map3MapINtNtCscwCr4GBBztI_3syn10punctuated4IterNtNtBV_8generics12GenericParamENCNvMs5_Cs4oBEgEuuqV9_15zerocopy_deriveINtB27_16ImplBlockBuilderNtNtBV_6derive8DataEnumE5builds3_0ENtNtNtCshi3DZH3dfhk_5quote9___private3ext14RepIteratorExt15quote_into_iterB27_, symObjAddr: 0x57F4, symBinAddr: 0x2B5EC, symSize: 0x2C }
  - { offset: 0x50E27, size: 0x8, addend: 0x0, symName: __RNvYINtNtNtNtCs85QQFkKrybG_4core4iter8adapters3map3MapINtNtCscwCr4GBBztI_3syn10punctuated4IterNtNtBV_8generics12GenericParamENCNvMs5_Cs4oBEgEuuqV9_15zerocopy_deriveINtB27_16ImplBlockBuilderNtNtBV_6derive9DataUnionE5builds3_0ENtNtNtCshi3DZH3dfhk_5quote9___private3ext14RepIteratorExt15quote_into_iterB27_, symObjAddr: 0x5820, symBinAddr: 0x2B618, symSize: 0x2C }
  - { offset: 0x50E5C, size: 0x8, addend: 0x0, symName: __RNvYINtNtNtNtCs85QQFkKrybG_4core4iter8adapters3map3MapINtNtCscwCr4GBBztI_3syn10punctuated8IntoIterNtNtBV_8generics12GenericParamENCNvMs5_Cs4oBEgEuuqV9_15zerocopy_deriveINtB2b_16ImplBlockBuilderNtNtBV_6derive10DataStructE5builds2_0ENtNtNtCshi3DZH3dfhk_5quote9___private3ext14RepIteratorExt15quote_into_iterB2b_, symObjAddr: 0x584C, symBinAddr: 0x2B644, symSize: 0x24 }
  - { offset: 0x50E91, size: 0x8, addend: 0x0, symName: __RNvYINtNtNtNtCs85QQFkKrybG_4core4iter8adapters3map3MapINtNtCscwCr4GBBztI_3syn10punctuated8IntoIterNtNtBV_8generics12GenericParamENCNvMs5_Cs4oBEgEuuqV9_15zerocopy_deriveINtB2b_16ImplBlockBuilderNtNtBV_6derive4DataE5builds2_0ENtNtNtCshi3DZH3dfhk_5quote9___private3ext14RepIteratorExt15quote_into_iterB2b_, symObjAddr: 0x5870, symBinAddr: 0x2B668, symSize: 0x24 }
  - { offset: 0x50EC6, size: 0x8, addend: 0x0, symName: __RNvYINtNtNtNtCs85QQFkKrybG_4core4iter8adapters3map3MapINtNtCscwCr4GBBztI_3syn10punctuated8IntoIterNtNtBV_8generics12GenericParamENCNvMs5_Cs4oBEgEuuqV9_15zerocopy_deriveINtB2b_16ImplBlockBuilderNtNtBV_6derive8DataEnumE5builds2_0ENtNtNtCshi3DZH3dfhk_5quote9___private3ext14RepIteratorExt15quote_into_iterB2b_, symObjAddr: 0x5894, symBinAddr: 0x2B68C, symSize: 0x24 }
  - { offset: 0x50EFB, size: 0x8, addend: 0x0, symName: __RNvYINtNtNtNtCs85QQFkKrybG_4core4iter8adapters3map3MapINtNtCscwCr4GBBztI_3syn10punctuated8IntoIterNtNtBV_8generics12GenericParamENCNvMs5_Cs4oBEgEuuqV9_15zerocopy_deriveINtB2b_16ImplBlockBuilderNtNtBV_6derive9DataUnionE5builds2_0ENtNtNtCshi3DZH3dfhk_5quote9___private3ext14RepIteratorExt15quote_into_iterB2b_, symObjAddr: 0x58B8, symBinAddr: 0x2B6B0, symSize: 0x24 }
  - { offset: 0x50F30, size: 0x8, addend: 0x0, symName: __RNvYINtNtNtNtCs85QQFkKrybG_4core4iter8adapters3map3MapINtNtNtBb_5slice4iter4IterINtNtCsdFlNUEO95cG_5alloc3vec3VecTRNtNtCscwCr4GBBztI_3syn11restriction10VisibilityNtCsfwj6t2KTYdc_11proc_macro211TokenStreamRNtNtB1T_2ty4TypeEEENCNCNvMs5_Cs4oBEgEuuqV9_15zerocopy_deriveINtB3K_16ImplBlockBuilderNtNtB1T_6derive10DataStructE5builds0_00ENtNtNtCshi3DZH3dfhk_5quote9___private3ext14RepIteratorExt15quote_into_iterB3K_, symObjAddr: 0x58DC, symBinAddr: 0x2B6D4, symSize: 0x2C }
  - { offset: 0x50F65, size: 0x8, addend: 0x0, symName: __RNvYINtNtNtNtCs85QQFkKrybG_4core4iter8adapters3map3MapINtNtNtBb_5slice4iter4IterINtNtCsdFlNUEO95cG_5alloc3vec3VecTRNtNtCscwCr4GBBztI_3syn11restriction10VisibilityNtCsfwj6t2KTYdc_11proc_macro211TokenStreamRNtNtB1T_2ty4TypeEEENCNCNvMs5_Cs4oBEgEuuqV9_15zerocopy_deriveINtB3K_16ImplBlockBuilderNtNtB1T_6derive4DataE5builds0_00ENtNtNtCshi3DZH3dfhk_5quote9___private3ext14RepIteratorExt15quote_into_iterB3K_, symObjAddr: 0x5908, symBinAddr: 0x2B700, symSize: 0x2C }
  - { offset: 0x50F9A, size: 0x8, addend: 0x0, symName: __RNvYINtNtNtNtCs85QQFkKrybG_4core4iter8adapters3map3MapINtNtNtBb_5slice4iter4IterINtNtCsdFlNUEO95cG_5alloc3vec3VecTRNtNtCscwCr4GBBztI_3syn11restriction10VisibilityNtCsfwj6t2KTYdc_11proc_macro211TokenStreamRNtNtB1T_2ty4TypeEEENCNCNvMs5_Cs4oBEgEuuqV9_15zerocopy_deriveINtB3K_16ImplBlockBuilderNtNtB1T_6derive8DataEnumE5builds0_00ENtNtNtCshi3DZH3dfhk_5quote9___private3ext14RepIteratorExt15quote_into_iterB3K_, symObjAddr: 0x5934, symBinAddr: 0x2B72C, symSize: 0x2C }
  - { offset: 0x50FCF, size: 0x8, addend: 0x0, symName: __RNvYINtNtNtNtCs85QQFkKrybG_4core4iter8adapters3map3MapINtNtNtBb_5slice4iter4IterINtNtCsdFlNUEO95cG_5alloc3vec3VecTRNtNtCscwCr4GBBztI_3syn11restriction10VisibilityNtCsfwj6t2KTYdc_11proc_macro211TokenStreamRNtNtB1T_2ty4TypeEEENCNCNvMs5_Cs4oBEgEuuqV9_15zerocopy_deriveINtB3K_16ImplBlockBuilderNtNtB1T_6derive9DataUnionE5builds0_00ENtNtNtCshi3DZH3dfhk_5quote9___private3ext14RepIteratorExt15quote_into_iterB3K_, symObjAddr: 0x5960, symBinAddr: 0x2B758, symSize: 0x2C }
  - { offset: 0x51004, size: 0x8, addend: 0x0, symName: __RNvYINtNtNtNtCs85QQFkKrybG_4core4iter8adapters3map3MapINtNtNtBb_5slice4iter4IterTRNtNtCscwCr4GBBztI_3syn11restriction10VisibilityNtCsfwj6t2KTYdc_11proc_macro211TokenStreamRNtNtB1m_2ty4TypeEENCNCNCNvMs5_Cs4oBEgEuuqV9_15zerocopy_deriveINtB3e_16ImplBlockBuilderNtNtB1m_6derive10DataStructE5builds0_000ENtNtNtCshi3DZH3dfhk_5quote9___private3ext14RepIteratorExt15quote_into_iterB3e_, symObjAddr: 0x598C, symBinAddr: 0x2B784, symSize: 0x2C }
  - { offset: 0x51039, size: 0x8, addend: 0x0, symName: __RNvYINtNtNtNtCs85QQFkKrybG_4core4iter8adapters3map3MapINtNtNtBb_5slice4iter4IterTRNtNtCscwCr4GBBztI_3syn11restriction10VisibilityNtCsfwj6t2KTYdc_11proc_macro211TokenStreamRNtNtB1m_2ty4TypeEENCNCNCNvMs5_Cs4oBEgEuuqV9_15zerocopy_deriveINtB3e_16ImplBlockBuilderNtNtB1m_6derive4DataE5builds0_000ENtNtNtCshi3DZH3dfhk_5quote9___private3ext14RepIteratorExt15quote_into_iterB3e_, symObjAddr: 0x59B8, symBinAddr: 0x2B7B0, symSize: 0x2C }
  - { offset: 0x5106E, size: 0x8, addend: 0x0, symName: __RNvYINtNtNtNtCs85QQFkKrybG_4core4iter8adapters3map3MapINtNtNtBb_5slice4iter4IterTRNtNtCscwCr4GBBztI_3syn11restriction10VisibilityNtCsfwj6t2KTYdc_11proc_macro211TokenStreamRNtNtB1m_2ty4TypeEENCNCNCNvMs5_Cs4oBEgEuuqV9_15zerocopy_deriveINtB3e_16ImplBlockBuilderNtNtB1m_6derive8DataEnumE5builds0_000ENtNtNtCshi3DZH3dfhk_5quote9___private3ext14RepIteratorExt15quote_into_iterB3e_, symObjAddr: 0x59E4, symBinAddr: 0x2B7DC, symSize: 0x2C }
  - { offset: 0x510A3, size: 0x8, addend: 0x0, symName: __RNvYINtNtNtNtCs85QQFkKrybG_4core4iter8adapters3map3MapINtNtNtBb_5slice4iter4IterTRNtNtCscwCr4GBBztI_3syn11restriction10VisibilityNtCsfwj6t2KTYdc_11proc_macro211TokenStreamRNtNtB1m_2ty4TypeEENCNCNCNvMs5_Cs4oBEgEuuqV9_15zerocopy_deriveINtB3e_16ImplBlockBuilderNtNtB1m_6derive9DataUnionE5builds0_000ENtNtNtCshi3DZH3dfhk_5quote9___private3ext14RepIteratorExt15quote_into_iterB3e_, symObjAddr: 0x5A10, symBinAddr: 0x2B808, symSize: 0x2C }
  - { offset: 0x510D8, size: 0x8, addend: 0x0, symName: __RNvYINtNtNtNtCs85QQFkKrybG_4core4iter8adapters3map3MapINtNtNtBb_5slice4iter4IterTRNtNtCscwCr4GBBztI_3syn11restriction10VisibilityNtCsfwj6t2KTYdc_11proc_macro211TokenStreamRNtNtB1m_2ty4TypeEENCNCNvCs4oBEgEuuqV9_15zerocopy_derive27derive_try_from_bytes_union00ENtNtNtCshi3DZH3dfhk_5quote9___private3ext14RepIteratorExt15quote_into_iterB38_, symObjAddr: 0x5A3C, symBinAddr: 0x2B834, symSize: 0x2C }
  - { offset: 0x5110D, size: 0x8, addend: 0x0, symName: __RNvYINtNtNtNtCs85QQFkKrybG_4core4iter8adapters3map3MapINtNtNtBb_5slice4iter4IterTRNtNtCscwCr4GBBztI_3syn11restriction10VisibilityNtCsfwj6t2KTYdc_11proc_macro211TokenStreamRNtNtB1m_2ty4TypeEENCNCNvCs4oBEgEuuqV9_15zerocopy_derive27derive_try_from_bytes_union0s_0ENtNtNtCshi3DZH3dfhk_5quote9___private3ext14RepIteratorExt15quote_into_iterB38_, symObjAddr: 0x5A68, symBinAddr: 0x2B860, symSize: 0x2C }
  - { offset: 0x51142, size: 0x8, addend: 0x0, symName: __RNvYINtNtNtNtCs85QQFkKrybG_4core4iter8adapters3map3MapINtNtNtBb_5slice4iter4IterTRNtNtCscwCr4GBBztI_3syn11restriction10VisibilityNtCsfwj6t2KTYdc_11proc_macro211TokenStreamRNtNtB1m_2ty4TypeEENCNCNvCs4oBEgEuuqV9_15zerocopy_derive28derive_try_from_bytes_struct00ENtNtNtCshi3DZH3dfhk_5quote9___private3ext14RepIteratorExt15quote_into_iterB38_, symObjAddr: 0x5A94, symBinAddr: 0x2B88C, symSize: 0x2C }
  - { offset: 0x51177, size: 0x8, addend: 0x0, symName: __RNvYINtNtNtNtCs85QQFkKrybG_4core4iter8adapters3map3MapINtNtNtBb_5slice4iter4IterTRNtNtCscwCr4GBBztI_3syn11restriction10VisibilityNtCsfwj6t2KTYdc_11proc_macro211TokenStreamRNtNtB1m_2ty4TypeEENCNCNvCs4oBEgEuuqV9_15zerocopy_derive28derive_try_from_bytes_struct0s_0ENtNtNtCshi3DZH3dfhk_5quote9___private3ext14RepIteratorExt15quote_into_iterB38_, symObjAddr: 0x5AC0, symBinAddr: 0x2B8B8, symSize: 0x2C }
  - { offset: 0x511AC, size: 0x8, addend: 0x0, symName: __RNvYINtNtNtNtCs85QQFkKrybG_4core4iter8adapters3map3MapINtNtNtBb_5slice4iter4IterTRNtNtCscwCr4GBBztI_3syn11restriction10VisibilityNtCsfwj6t2KTYdc_11proc_macro211TokenStreamRNtNtB1m_2ty4TypeEENCNvCs4oBEgEuuqV9_15zerocopy_derive25derive_known_layout_inner0ENtNtNtCshi3DZH3dfhk_5quote9___private3ext14RepIteratorExt15quote_into_iterB36_, symObjAddr: 0x5AEC, symBinAddr: 0x2B8E4, symSize: 0x2C }
  - { offset: 0x511E1, size: 0x8, addend: 0x0, symName: __RNvYINtNtNtNtCs85QQFkKrybG_4core4iter8adapters3map3MapINtNtNtBb_5slice4iter4IterTRNtNtCscwCr4GBBztI_3syn11restriction10VisibilityNtCsfwj6t2KTYdc_11proc_macro211TokenStreamRNtNtB1m_2ty4TypeEENCNvCs4oBEgEuuqV9_15zerocopy_derive25derive_known_layout_inners8_0ENtNtNtCshi3DZH3dfhk_5quote9___private3ext14RepIteratorExt15quote_into_iterB36_, symObjAddr: 0x5B18, symBinAddr: 0x2B910, symSize: 0x28 }
  - { offset: 0x530D4, size: 0x8, addend: 0x0, symName: __RINvNtNtCs9bTl5rSDVcL_10proc_macro6bridge6client10run_clientNtB2_11TokenStreamINtNtCs85QQFkKrybG_4core6option6OptionBW_ENCNCINvMs6_B2_INtB2_6ClientNtB6_11TokenStreamB2l_E7expand1NvCs4oBEgEuuqV9_15zerocopy_derive11derive_hashE00EB2S_, symObjAddr: 0x0, symBinAddr: 0x2BA18, symSize: 0x21C }
  - { offset: 0x54C86, size: 0x8, addend: 0x0, symName: __RNCINvNtNtCs9bTl5rSDVcL_10proc_macro6bridge6client10run_clientNtB4_11TokenStreamINtNtCs85QQFkKrybG_4core6option6OptionBY_ENCNCINvMs6_B4_INtB4_6ClientNtB8_11TokenStreamB2n_E7expand1NvCs4oBEgEuuqV9_15zerocopy_derive11derive_hashE00E0B2U_, symObjAddr: 0x1B90, symBinAddr: 0x2D5A8, symSize: 0x318 }
  - { offset: 0x54EAB, size: 0x8, addend: 0x0, symName: __RNCINvNtNtCs9bTl5rSDVcL_10proc_macro6bridge6client10run_clientNtB4_11TokenStreamINtNtCs85QQFkKrybG_4core6option6OptionBY_ENCNCINvMs6_B4_INtB4_6ClientNtB8_11TokenStreamB2n_E7expand1NvCs4oBEgEuuqV9_15zerocopy_derive14derive_no_cellE00E0B2U_, symObjAddr: 0x1EA8, symBinAddr: 0x2D8C0, symSize: 0x318 }
  - { offset: 0x550D0, size: 0x8, addend: 0x0, symName: __RNCINvNtNtCs9bTl5rSDVcL_10proc_macro6bridge6client10run_clientNtB4_11TokenStreamINtNtCs85QQFkKrybG_4core6option6OptionBY_ENCNCINvMs6_B4_INtB4_6ClientNtB8_11TokenStreamB2n_E7expand1NvCs4oBEgEuuqV9_15zerocopy_derive15derive_as_bytesE00E0B2U_, symObjAddr: 0x21C0, symBinAddr: 0x2DBD8, symSize: 0x318 }
  - { offset: 0x552F5, size: 0x8, addend: 0x0, symName: __RNCINvNtNtCs9bTl5rSDVcL_10proc_macro6bridge6client10run_clientNtB4_11TokenStreamINtNtCs85QQFkKrybG_4core6option6OptionBY_ENCNCINvMs6_B4_INtB4_6ClientNtB8_11TokenStreamB2n_E7expand1NvCs4oBEgEuuqV9_15zerocopy_derive15derive_split_atE00E0B2U_, symObjAddr: 0x24D8, symBinAddr: 0x2DEF0, symSize: 0x318 }
  - { offset: 0x5551A, size: 0x8, addend: 0x0, symName: __RNCINvNtNtCs9bTl5rSDVcL_10proc_macro6bridge6client10run_clientNtB4_11TokenStreamINtNtCs85QQFkKrybG_4core6option6OptionBY_ENCNCINvMs6_B4_INtB4_6ClientNtB8_11TokenStreamB2n_E7expand1NvCs4oBEgEuuqV9_15zerocopy_derive16derive_unalignedE00E0B2U_, symObjAddr: 0x27F0, symBinAddr: 0x2E208, symSize: 0x318 }
  - { offset: 0x5573F, size: 0x8, addend: 0x0, symName: __RNCINvNtNtCs9bTl5rSDVcL_10proc_macro6bridge6client10run_clientNtB4_11TokenStreamINtNtCs85QQFkKrybG_4core6option6OptionBY_ENCNCINvMs6_B4_INtB4_6ClientNtB8_11TokenStreamB2n_E7expand1NvCs4oBEgEuuqV9_15zerocopy_derive17derive_from_bytesE00E0B2U_, symObjAddr: 0x2B08, symBinAddr: 0x2E520, symSize: 0x318 }
  - { offset: 0x55964, size: 0x8, addend: 0x0, symName: __RNCINvNtNtCs9bTl5rSDVcL_10proc_macro6bridge6client10run_clientNtB4_11TokenStreamINtNtCs85QQFkKrybG_4core6option6OptionBY_ENCNCINvMs6_B4_INtB4_6ClientNtB8_11TokenStreamB2n_E7expand1NvCs4oBEgEuuqV9_15zerocopy_derive17derive_from_zerosE00E0B2U_, symObjAddr: 0x2E20, symBinAddr: 0x2E838, symSize: 0x318 }
  - { offset: 0x55B89, size: 0x8, addend: 0x0, symName: __RNCINvNtNtCs9bTl5rSDVcL_10proc_macro6bridge6client10run_clientNtB4_11TokenStreamINtNtCs85QQFkKrybG_4core6option6OptionBY_ENCNCINvMs6_B4_INtB4_6ClientNtB8_11TokenStreamB2n_E7expand1NvCs4oBEgEuuqV9_15zerocopy_derive17derive_into_bytesE00E0B2U_, symObjAddr: 0x3138, symBinAddr: 0x2EB50, symSize: 0x318 }
  - { offset: 0x55DAE, size: 0x8, addend: 0x0, symName: __RNCINvNtNtCs9bTl5rSDVcL_10proc_macro6bridge6client10run_clientNtB4_11TokenStreamINtNtCs85QQFkKrybG_4core6option6OptionBY_ENCNCINvMs6_B4_INtB4_6ClientNtB8_11TokenStreamB2n_E7expand1NvCs4oBEgEuuqV9_15zerocopy_derive18derive_from_zeroesE00E0B2U_, symObjAddr: 0x3450, symBinAddr: 0x2EE68, symSize: 0x318 }
  - { offset: 0x55FD3, size: 0x8, addend: 0x0, symName: __RNCINvNtNtCs9bTl5rSDVcL_10proc_macro6bridge6client10run_clientNtB4_11TokenStreamINtNtCs85QQFkKrybG_4core6option6OptionBY_ENCNCINvMs6_B4_INtB4_6ClientNtB8_11TokenStreamB2n_E7expand1NvCs4oBEgEuuqV9_15zerocopy_derive19derive_known_layoutE00E0B2U_, symObjAddr: 0x3768, symBinAddr: 0x2F180, symSize: 0x318 }
  - { offset: 0x561F8, size: 0x8, addend: 0x0, symName: __RNCINvNtNtCs9bTl5rSDVcL_10proc_macro6bridge6client10run_clientNtB4_11TokenStreamINtNtCs85QQFkKrybG_4core6option6OptionBY_ENCNCINvMs6_B4_INtB4_6ClientNtB8_11TokenStreamB2n_E7expand1NvCs4oBEgEuuqV9_15zerocopy_derive21derive_try_from_bytesE00E0B2U_, symObjAddr: 0x3A80, symBinAddr: 0x2F498, symSize: 0x318 }
  - { offset: 0x5641D, size: 0x8, addend: 0x0, symName: __RNCINvNtNtCs9bTl5rSDVcL_10proc_macro6bridge6client10run_clientNtB4_11TokenStreamINtNtCs85QQFkKrybG_4core6option6OptionBY_ENCNCINvMs6_B4_INtB4_6ClientNtB8_11TokenStreamB2n_E7expand1NvCs4oBEgEuuqV9_15zerocopy_derive9derive_eqE00E0B2U_, symObjAddr: 0x3D98, symBinAddr: 0x2F7B0, symSize: 0x318 }
  - { offset: 0x56647, size: 0x8, addend: 0x0, symName: __RNCNCINvNtNtCs9bTl5rSDVcL_10proc_macro6bridge6client10run_clientNtB6_11TokenStreamINtNtCs85QQFkKrybG_4core6option6OptionB10_ENCNCINvMs6_B6_INtB6_6ClientNtBa_11TokenStreamB2q_E7expand1NvCs4oBEgEuuqV9_15zerocopy_derive11derive_hashE00E00B2X_, symObjAddr: 0x4290, symBinAddr: 0x2FCA8, symSize: 0x28 }
  - { offset: 0x566A1, size: 0x8, addend: 0x0, symName: __RNCNCINvNtNtCs9bTl5rSDVcL_10proc_macro6bridge6client10run_clientNtB6_11TokenStreamINtNtCs85QQFkKrybG_4core6option6OptionB10_ENCNCINvMs6_B6_INtB6_6ClientNtBa_11TokenStreamB2q_E7expand1NvCs4oBEgEuuqV9_15zerocopy_derive14derive_no_cellE00E00B2X_, symObjAddr: 0x42B8, symBinAddr: 0x2FCD0, symSize: 0x28 }
  - { offset: 0x566FB, size: 0x8, addend: 0x0, symName: __RNCNCINvNtNtCs9bTl5rSDVcL_10proc_macro6bridge6client10run_clientNtB6_11TokenStreamINtNtCs85QQFkKrybG_4core6option6OptionB10_ENCNCINvMs6_B6_INtB6_6ClientNtBa_11TokenStreamB2q_E7expand1NvCs4oBEgEuuqV9_15zerocopy_derive15derive_as_bytesE00E00B2X_, symObjAddr: 0x42E0, symBinAddr: 0x2FCF8, symSize: 0x28 }
  - { offset: 0x56755, size: 0x8, addend: 0x0, symName: __RNCNCINvNtNtCs9bTl5rSDVcL_10proc_macro6bridge6client10run_clientNtB6_11TokenStreamINtNtCs85QQFkKrybG_4core6option6OptionB10_ENCNCINvMs6_B6_INtB6_6ClientNtBa_11TokenStreamB2q_E7expand1NvCs4oBEgEuuqV9_15zerocopy_derive15derive_split_atE00E00B2X_, symObjAddr: 0x4308, symBinAddr: 0x2FD20, symSize: 0x28 }
  - { offset: 0x567AF, size: 0x8, addend: 0x0, symName: __RNCNCINvNtNtCs9bTl5rSDVcL_10proc_macro6bridge6client10run_clientNtB6_11TokenStreamINtNtCs85QQFkKrybG_4core6option6OptionB10_ENCNCINvMs6_B6_INtB6_6ClientNtBa_11TokenStreamB2q_E7expand1NvCs4oBEgEuuqV9_15zerocopy_derive16derive_unalignedE00E00B2X_, symObjAddr: 0x4330, symBinAddr: 0x2FD48, symSize: 0x28 }
  - { offset: 0x56809, size: 0x8, addend: 0x0, symName: __RNCNCINvNtNtCs9bTl5rSDVcL_10proc_macro6bridge6client10run_clientNtB6_11TokenStreamINtNtCs85QQFkKrybG_4core6option6OptionB10_ENCNCINvMs6_B6_INtB6_6ClientNtBa_11TokenStreamB2q_E7expand1NvCs4oBEgEuuqV9_15zerocopy_derive17derive_from_bytesE00E00B2X_, symObjAddr: 0x4358, symBinAddr: 0x2FD70, symSize: 0x28 }
  - { offset: 0x56863, size: 0x8, addend: 0x0, symName: __RNCNCINvNtNtCs9bTl5rSDVcL_10proc_macro6bridge6client10run_clientNtB6_11TokenStreamINtNtCs85QQFkKrybG_4core6option6OptionB10_ENCNCINvMs6_B6_INtB6_6ClientNtBa_11TokenStreamB2q_E7expand1NvCs4oBEgEuuqV9_15zerocopy_derive17derive_from_zerosE00E00B2X_, symObjAddr: 0x4380, symBinAddr: 0x2FD98, symSize: 0x28 }
  - { offset: 0x568BD, size: 0x8, addend: 0x0, symName: __RNCNCINvNtNtCs9bTl5rSDVcL_10proc_macro6bridge6client10run_clientNtB6_11TokenStreamINtNtCs85QQFkKrybG_4core6option6OptionB10_ENCNCINvMs6_B6_INtB6_6ClientNtBa_11TokenStreamB2q_E7expand1NvCs4oBEgEuuqV9_15zerocopy_derive17derive_into_bytesE00E00B2X_, symObjAddr: 0x43A8, symBinAddr: 0x2FDC0, symSize: 0x28 }
  - { offset: 0x56917, size: 0x8, addend: 0x0, symName: __RNCNCINvNtNtCs9bTl5rSDVcL_10proc_macro6bridge6client10run_clientNtB6_11TokenStreamINtNtCs85QQFkKrybG_4core6option6OptionB10_ENCNCINvMs6_B6_INtB6_6ClientNtBa_11TokenStreamB2q_E7expand1NvCs4oBEgEuuqV9_15zerocopy_derive18derive_from_zeroesE00E00B2X_, symObjAddr: 0x43D0, symBinAddr: 0x2FDE8, symSize: 0x28 }
  - { offset: 0x56971, size: 0x8, addend: 0x0, symName: __RNCNCINvNtNtCs9bTl5rSDVcL_10proc_macro6bridge6client10run_clientNtB6_11TokenStreamINtNtCs85QQFkKrybG_4core6option6OptionB10_ENCNCINvMs6_B6_INtB6_6ClientNtBa_11TokenStreamB2q_E7expand1NvCs4oBEgEuuqV9_15zerocopy_derive19derive_known_layoutE00E00B2X_, symObjAddr: 0x43F8, symBinAddr: 0x2FE10, symSize: 0x28 }
  - { offset: 0x569CB, size: 0x8, addend: 0x0, symName: __RNCNCINvNtNtCs9bTl5rSDVcL_10proc_macro6bridge6client10run_clientNtB6_11TokenStreamINtNtCs85QQFkKrybG_4core6option6OptionB10_ENCNCINvMs6_B6_INtB6_6ClientNtBa_11TokenStreamB2q_E7expand1NvCs4oBEgEuuqV9_15zerocopy_derive21derive_try_from_bytesE00E00B2X_, symObjAddr: 0x4420, symBinAddr: 0x2FE38, symSize: 0x28 }
  - { offset: 0x56A25, size: 0x8, addend: 0x0, symName: __RNCNCINvNtNtCs9bTl5rSDVcL_10proc_macro6bridge6client10run_clientNtB6_11TokenStreamINtNtCs85QQFkKrybG_4core6option6OptionB10_ENCNCINvMs6_B6_INtB6_6ClientNtBa_11TokenStreamB2q_E7expand1NvCs4oBEgEuuqV9_15zerocopy_derive9derive_eqE00E00B2X_, symObjAddr: 0x4448, symBinAddr: 0x2FE60, symSize: 0x28 }
  - { offset: 0x56B74, size: 0x8, addend: 0x0, symName: __RNCNCINvMs6_NtNtCs9bTl5rSDVcL_10proc_macro6bridge6clientINtBa_6ClientNtBe_11TokenStreamB15_E7expand1NvCs4oBEgEuuqV9_15zerocopy_derive11derive_hashE00B1C_, symObjAddr: 0x40B0, symBinAddr: 0x2FAC8, symSize: 0x28 }
  - { offset: 0x56BBC, size: 0x8, addend: 0x0, symName: __RNCNCINvMs6_NtNtCs9bTl5rSDVcL_10proc_macro6bridge6clientINtBa_6ClientNtBe_11TokenStreamB15_E7expand1NvCs4oBEgEuuqV9_15zerocopy_derive14derive_no_cellE00B1C_, symObjAddr: 0x40D8, symBinAddr: 0x2FAF0, symSize: 0x28 }
  - { offset: 0x56C04, size: 0x8, addend: 0x0, symName: __RNCNCINvMs6_NtNtCs9bTl5rSDVcL_10proc_macro6bridge6clientINtBa_6ClientNtBe_11TokenStreamB15_E7expand1NvCs4oBEgEuuqV9_15zerocopy_derive15derive_as_bytesE00B1C_, symObjAddr: 0x4100, symBinAddr: 0x2FB18, symSize: 0x28 }
  - { offset: 0x56C4C, size: 0x8, addend: 0x0, symName: __RNCNCINvMs6_NtNtCs9bTl5rSDVcL_10proc_macro6bridge6clientINtBa_6ClientNtBe_11TokenStreamB15_E7expand1NvCs4oBEgEuuqV9_15zerocopy_derive15derive_split_atE00B1C_, symObjAddr: 0x4128, symBinAddr: 0x2FB40, symSize: 0x28 }
  - { offset: 0x56C94, size: 0x8, addend: 0x0, symName: __RNCNCINvMs6_NtNtCs9bTl5rSDVcL_10proc_macro6bridge6clientINtBa_6ClientNtBe_11TokenStreamB15_E7expand1NvCs4oBEgEuuqV9_15zerocopy_derive16derive_unalignedE00B1C_, symObjAddr: 0x4150, symBinAddr: 0x2FB68, symSize: 0x28 }
  - { offset: 0x56CDC, size: 0x8, addend: 0x0, symName: __RNCNCINvMs6_NtNtCs9bTl5rSDVcL_10proc_macro6bridge6clientINtBa_6ClientNtBe_11TokenStreamB15_E7expand1NvCs4oBEgEuuqV9_15zerocopy_derive17derive_from_bytesE00B1C_, symObjAddr: 0x4178, symBinAddr: 0x2FB90, symSize: 0x28 }
  - { offset: 0x56D24, size: 0x8, addend: 0x0, symName: __RNCNCINvMs6_NtNtCs9bTl5rSDVcL_10proc_macro6bridge6clientINtBa_6ClientNtBe_11TokenStreamB15_E7expand1NvCs4oBEgEuuqV9_15zerocopy_derive17derive_from_zerosE00B1C_, symObjAddr: 0x41A0, symBinAddr: 0x2FBB8, symSize: 0x28 }
  - { offset: 0x56D6C, size: 0x8, addend: 0x0, symName: __RNCNCINvMs6_NtNtCs9bTl5rSDVcL_10proc_macro6bridge6clientINtBa_6ClientNtBe_11TokenStreamB15_E7expand1NvCs4oBEgEuuqV9_15zerocopy_derive17derive_into_bytesE00B1C_, symObjAddr: 0x41C8, symBinAddr: 0x2FBE0, symSize: 0x28 }
  - { offset: 0x56DB4, size: 0x8, addend: 0x0, symName: __RNCNCINvMs6_NtNtCs9bTl5rSDVcL_10proc_macro6bridge6clientINtBa_6ClientNtBe_11TokenStreamB15_E7expand1NvCs4oBEgEuuqV9_15zerocopy_derive18derive_from_zeroesE00B1C_, symObjAddr: 0x41F0, symBinAddr: 0x2FC08, symSize: 0x28 }
  - { offset: 0x56DFC, size: 0x8, addend: 0x0, symName: __RNCNCINvMs6_NtNtCs9bTl5rSDVcL_10proc_macro6bridge6clientINtBa_6ClientNtBe_11TokenStreamB15_E7expand1NvCs4oBEgEuuqV9_15zerocopy_derive19derive_known_layoutE00B1C_, symObjAddr: 0x4218, symBinAddr: 0x2FC30, symSize: 0x28 }
  - { offset: 0x56E44, size: 0x8, addend: 0x0, symName: __RNCNCINvMs6_NtNtCs9bTl5rSDVcL_10proc_macro6bridge6clientINtBa_6ClientNtBe_11TokenStreamB15_E7expand1NvCs4oBEgEuuqV9_15zerocopy_derive21derive_try_from_bytesE00B1C_, symObjAddr: 0x4240, symBinAddr: 0x2FC58, symSize: 0x28 }
  - { offset: 0x56E8C, size: 0x8, addend: 0x0, symName: __RNCNCINvMs6_NtNtCs9bTl5rSDVcL_10proc_macro6bridge6clientINtBa_6ClientNtBe_11TokenStreamB15_E7expand1NvCs4oBEgEuuqV9_15zerocopy_derive9derive_eqE00B1C_, symObjAddr: 0x4268, symBinAddr: 0x2FC80, symSize: 0x28 }
  - { offset: 0x56ED5, size: 0x8, addend: 0x0, symName: __RNCINvMs6_NtNtCs9bTl5rSDVcL_10proc_macro6bridge6clientINtB8_6ClientNtBc_11TokenStreamB13_E7expand1NvCs4oBEgEuuqV9_15zerocopy_derive11derive_hashE0B1A_, symObjAddr: 0x1950, symBinAddr: 0x2D368, symSize: 0x30 }
  - { offset: 0x56F1E, size: 0x8, addend: 0x0, symName: __RNCINvMs6_NtNtCs9bTl5rSDVcL_10proc_macro6bridge6clientINtB8_6ClientNtBc_11TokenStreamB13_E7expand1NvCs4oBEgEuuqV9_15zerocopy_derive14derive_no_cellE0B1A_, symObjAddr: 0x1980, symBinAddr: 0x2D398, symSize: 0x30 }
  - { offset: 0x56F67, size: 0x8, addend: 0x0, symName: __RNCINvMs6_NtNtCs9bTl5rSDVcL_10proc_macro6bridge6clientINtB8_6ClientNtBc_11TokenStreamB13_E7expand1NvCs4oBEgEuuqV9_15zerocopy_derive15derive_as_bytesE0B1A_, symObjAddr: 0x19B0, symBinAddr: 0x2D3C8, symSize: 0x30 }
  - { offset: 0x56FB0, size: 0x8, addend: 0x0, symName: __RNCINvMs6_NtNtCs9bTl5rSDVcL_10proc_macro6bridge6clientINtB8_6ClientNtBc_11TokenStreamB13_E7expand1NvCs4oBEgEuuqV9_15zerocopy_derive15derive_split_atE0B1A_, symObjAddr: 0x19E0, symBinAddr: 0x2D3F8, symSize: 0x30 }
  - { offset: 0x56FF9, size: 0x8, addend: 0x0, symName: __RNCINvMs6_NtNtCs9bTl5rSDVcL_10proc_macro6bridge6clientINtB8_6ClientNtBc_11TokenStreamB13_E7expand1NvCs4oBEgEuuqV9_15zerocopy_derive16derive_unalignedE0B1A_, symObjAddr: 0x1A10, symBinAddr: 0x2D428, symSize: 0x30 }
  - { offset: 0x57042, size: 0x8, addend: 0x0, symName: __RNCINvMs6_NtNtCs9bTl5rSDVcL_10proc_macro6bridge6clientINtB8_6ClientNtBc_11TokenStreamB13_E7expand1NvCs4oBEgEuuqV9_15zerocopy_derive17derive_from_bytesE0B1A_, symObjAddr: 0x1A40, symBinAddr: 0x2D458, symSize: 0x30 }
  - { offset: 0x5708B, size: 0x8, addend: 0x0, symName: __RNCINvMs6_NtNtCs9bTl5rSDVcL_10proc_macro6bridge6clientINtB8_6ClientNtBc_11TokenStreamB13_E7expand1NvCs4oBEgEuuqV9_15zerocopy_derive17derive_from_zerosE0B1A_, symObjAddr: 0x1A70, symBinAddr: 0x2D488, symSize: 0x30 }
  - { offset: 0x570D4, size: 0x8, addend: 0x0, symName: __RNCINvMs6_NtNtCs9bTl5rSDVcL_10proc_macro6bridge6clientINtB8_6ClientNtBc_11TokenStreamB13_E7expand1NvCs4oBEgEuuqV9_15zerocopy_derive17derive_into_bytesE0B1A_, symObjAddr: 0x1AA0, symBinAddr: 0x2D4B8, symSize: 0x30 }
  - { offset: 0x5711D, size: 0x8, addend: 0x0, symName: __RNCINvMs6_NtNtCs9bTl5rSDVcL_10proc_macro6bridge6clientINtB8_6ClientNtBc_11TokenStreamB13_E7expand1NvCs4oBEgEuuqV9_15zerocopy_derive18derive_from_zeroesE0B1A_, symObjAddr: 0x1AD0, symBinAddr: 0x2D4E8, symSize: 0x30 }
  - { offset: 0x57166, size: 0x8, addend: 0x0, symName: __RNCINvMs6_NtNtCs9bTl5rSDVcL_10proc_macro6bridge6clientINtB8_6ClientNtBc_11TokenStreamB13_E7expand1NvCs4oBEgEuuqV9_15zerocopy_derive19derive_known_layoutE0B1A_, symObjAddr: 0x1B00, symBinAddr: 0x2D518, symSize: 0x30 }
  - { offset: 0x571AF, size: 0x8, addend: 0x0, symName: __RNCINvMs6_NtNtCs9bTl5rSDVcL_10proc_macro6bridge6clientINtB8_6ClientNtBc_11TokenStreamB13_E7expand1NvCs4oBEgEuuqV9_15zerocopy_derive21derive_try_from_bytesE0B1A_, symObjAddr: 0x1B30, symBinAddr: 0x2D548, symSize: 0x30 }
  - { offset: 0x571F8, size: 0x8, addend: 0x0, symName: __RNCINvMs6_NtNtCs9bTl5rSDVcL_10proc_macro6bridge6clientINtB8_6ClientNtBc_11TokenStreamB13_E7expand1NvCs4oBEgEuuqV9_15zerocopy_derive9derive_eqE0B1A_, symObjAddr: 0x1B60, symBinAddr: 0x2D578, symSize: 0x30 }
  - { offset: 0x57264, size: 0x8, addend: 0x0, symName: __RINvNtNtCs9bTl5rSDVcL_10proc_macro6bridge6client10run_clientNtB2_11TokenStreamINtNtCs85QQFkKrybG_4core6option6OptionBW_ENCNCINvMs6_B2_INtB2_6ClientNtB6_11TokenStreamB2l_E7expand1NvCs4oBEgEuuqV9_15zerocopy_derive11derive_hashE00EB2S_, symObjAddr: 0x0, symBinAddr: 0x2BA18, symSize: 0x21C }
  - { offset: 0x5744D, size: 0x8, addend: 0x0, symName: __RINvNtNtCs9bTl5rSDVcL_10proc_macro6bridge6client10run_clientNtB2_11TokenStreamINtNtCs85QQFkKrybG_4core6option6OptionBW_ENCNCINvMs6_B2_INtB2_6ClientNtB6_11TokenStreamB2l_E7expand1NvCs4oBEgEuuqV9_15zerocopy_derive14derive_no_cellE00EB2S_, symObjAddr: 0x21C, symBinAddr: 0x2BC34, symSize: 0x21C }
  - { offset: 0x57636, size: 0x8, addend: 0x0, symName: __RINvNtNtCs9bTl5rSDVcL_10proc_macro6bridge6client10run_clientNtB2_11TokenStreamINtNtCs85QQFkKrybG_4core6option6OptionBW_ENCNCINvMs6_B2_INtB2_6ClientNtB6_11TokenStreamB2l_E7expand1NvCs4oBEgEuuqV9_15zerocopy_derive15derive_as_bytesE00EB2S_, symObjAddr: 0x438, symBinAddr: 0x2BE50, symSize: 0x21C }
  - { offset: 0x5781F, size: 0x8, addend: 0x0, symName: __RINvNtNtCs9bTl5rSDVcL_10proc_macro6bridge6client10run_clientNtB2_11TokenStreamINtNtCs85QQFkKrybG_4core6option6OptionBW_ENCNCINvMs6_B2_INtB2_6ClientNtB6_11TokenStreamB2l_E7expand1NvCs4oBEgEuuqV9_15zerocopy_derive15derive_split_atE00EB2S_, symObjAddr: 0x654, symBinAddr: 0x2C06C, symSize: 0x21C }
  - { offset: 0x57A08, size: 0x8, addend: 0x0, symName: __RINvNtNtCs9bTl5rSDVcL_10proc_macro6bridge6client10run_clientNtB2_11TokenStreamINtNtCs85QQFkKrybG_4core6option6OptionBW_ENCNCINvMs6_B2_INtB2_6ClientNtB6_11TokenStreamB2l_E7expand1NvCs4oBEgEuuqV9_15zerocopy_derive16derive_unalignedE00EB2S_, symObjAddr: 0x870, symBinAddr: 0x2C288, symSize: 0x21C }
  - { offset: 0x57BF1, size: 0x8, addend: 0x0, symName: __RINvNtNtCs9bTl5rSDVcL_10proc_macro6bridge6client10run_clientNtB2_11TokenStreamINtNtCs85QQFkKrybG_4core6option6OptionBW_ENCNCINvMs6_B2_INtB2_6ClientNtB6_11TokenStreamB2l_E7expand1NvCs4oBEgEuuqV9_15zerocopy_derive17derive_from_bytesE00EB2S_, symObjAddr: 0xA8C, symBinAddr: 0x2C4A4, symSize: 0x21C }
  - { offset: 0x57DDA, size: 0x8, addend: 0x0, symName: __RINvNtNtCs9bTl5rSDVcL_10proc_macro6bridge6client10run_clientNtB2_11TokenStreamINtNtCs85QQFkKrybG_4core6option6OptionBW_ENCNCINvMs6_B2_INtB2_6ClientNtB6_11TokenStreamB2l_E7expand1NvCs4oBEgEuuqV9_15zerocopy_derive17derive_from_zerosE00EB2S_, symObjAddr: 0xCA8, symBinAddr: 0x2C6C0, symSize: 0x21C }
  - { offset: 0x57FC3, size: 0x8, addend: 0x0, symName: __RINvNtNtCs9bTl5rSDVcL_10proc_macro6bridge6client10run_clientNtB2_11TokenStreamINtNtCs85QQFkKrybG_4core6option6OptionBW_ENCNCINvMs6_B2_INtB2_6ClientNtB6_11TokenStreamB2l_E7expand1NvCs4oBEgEuuqV9_15zerocopy_derive17derive_into_bytesE00EB2S_, symObjAddr: 0xEC4, symBinAddr: 0x2C8DC, symSize: 0x21C }
  - { offset: 0x581AC, size: 0x8, addend: 0x0, symName: __RINvNtNtCs9bTl5rSDVcL_10proc_macro6bridge6client10run_clientNtB2_11TokenStreamINtNtCs85QQFkKrybG_4core6option6OptionBW_ENCNCINvMs6_B2_INtB2_6ClientNtB6_11TokenStreamB2l_E7expand1NvCs4oBEgEuuqV9_15zerocopy_derive18derive_from_zeroesE00EB2S_, symObjAddr: 0x10E0, symBinAddr: 0x2CAF8, symSize: 0x21C }
  - { offset: 0x58395, size: 0x8, addend: 0x0, symName: __RINvNtNtCs9bTl5rSDVcL_10proc_macro6bridge6client10run_clientNtB2_11TokenStreamINtNtCs85QQFkKrybG_4core6option6OptionBW_ENCNCINvMs6_B2_INtB2_6ClientNtB6_11TokenStreamB2l_E7expand1NvCs4oBEgEuuqV9_15zerocopy_derive19derive_known_layoutE00EB2S_, symObjAddr: 0x12FC, symBinAddr: 0x2CD14, symSize: 0x21C }
  - { offset: 0x5857E, size: 0x8, addend: 0x0, symName: __RINvNtNtCs9bTl5rSDVcL_10proc_macro6bridge6client10run_clientNtB2_11TokenStreamINtNtCs85QQFkKrybG_4core6option6OptionBW_ENCNCINvMs6_B2_INtB2_6ClientNtB6_11TokenStreamB2l_E7expand1NvCs4oBEgEuuqV9_15zerocopy_derive21derive_try_from_bytesE00EB2S_, symObjAddr: 0x1518, symBinAddr: 0x2CF30, symSize: 0x21C }
  - { offset: 0x58767, size: 0x8, addend: 0x0, symName: __RINvNtNtCs9bTl5rSDVcL_10proc_macro6bridge6client10run_clientNtB2_11TokenStreamINtNtCs85QQFkKrybG_4core6option6OptionBW_ENCNCINvMs6_B2_INtB2_6ClientNtB6_11TokenStreamB2l_E7expand1NvCs4oBEgEuuqV9_15zerocopy_derive9derive_eqE00EB2S_, symObjAddr: 0x1734, symBinAddr: 0x2D14C, symSize: 0x21C }
  - { offset: 0x589A3, size: 0x8, addend: 0x0, symName: __RNvXsf_NtNtCs9bTl5rSDVcL_10proc_macro6bridge6clientNtB5_11TokenStreamINtNtB7_3rpc6EncodeuE6encodeCs4oBEgEuuqV9_15zerocopy_derive, symObjAddr: 0x4470, symBinAddr: 0x2FE88, symSize: 0x50 }
  - { offset: 0x58AB4, size: 0x8, addend: 0x0, symName: __RNvXsi_NtNtCs9bTl5rSDVcL_10proc_macro6bridge6clientNtB5_11TokenStreamINtNtB7_3rpc9DecodeMutuE6decodeCs4oBEgEuuqV9_15zerocopy_derive, symObjAddr: 0x44C0, symBinAddr: 0x2FED8, symSize: 0x2C }
  - { offset: 0x58AFD, size: 0x8, addend: 0x0, symName: __RNvXsk_NtNtCs9bTl5rSDVcL_10proc_macro6bridge6clientNtB5_4SpanINtNtB7_3rpc9DecodeMutuE6decodeCs4oBEgEuuqV9_15zerocopy_derive, symObjAddr: 0x44EC, symBinAddr: 0x2FF04, symSize: 0x2C }
  - { offset: 0x5AB13, size: 0x8, addend: 0x0, symName: __RINvMNtCs85QQFkKrybG_4core6resultINtB3_6ResultINtNtB5_6option6OptionINtNtNtCs4oBEgEuuqV9_15zerocopy_derive4repr4util7SpannedINtB19_12CompoundReprNtB19_13PrimitiveReprEEEIB15_INtB19_17FromRawReprsErrorNtB19_20UnsupportedReprErrorEEE7map_errIB15_NtB19_14FromAttrsErrorEINvMB17_B3P_4fromB2M_EEB1b_, symObjAddr: 0x0, symBinAddr: 0x2FF84, symSize: 0x9C }
  - { offset: 0x5AF78, size: 0x8, addend: 0x0, symName: __RINvNtCscwCr4GBBztI_3syn5parse12parse_scopedNCINvNtB4_4meta6parserNCNvCs4oBEgEuuqV9_15zerocopy_derive22extract_zerocopy_crate0E0EB16_, symObjAddr: 0x3B94, symBinAddr: 0x33AD0, symSize: 0x38 }
  - { offset: 0x5AFCE, size: 0x8, addend: 0x0, symName: __RINvNtCscwCr4GBBztI_3syn5parse12parse_scopedNvMNtB4_10punctuatedINtBJ_10PunctuatedNtNtB4_4attr4MetaNtNtB4_5token5CommaE16parse_terminatedECs4oBEgEuuqV9_15zerocopy_derive, symObjAddr: 0x3BCC, symBinAddr: 0x33B08, symSize: 0x30 }
  - { offset: 0x5B024, size: 0x8, addend: 0x0, symName: __RINvNtCscwCr4GBBztI_3syn5parse12parse_scopedNvYNtNtB4_3lit6LitIntNtB2_5Parse5parseECs4oBEgEuuqV9_15zerocopy_derive, symObjAddr: 0x3BFC, symBinAddr: 0x33B38, symSize: 0x30 }
  - { offset: 0x5B07A, size: 0x8, addend: 0x0, symName: __RINvNtCscwCr4GBBztI_3syn5parse12parse_scopedNvYNtNtB4_4path4PathNtB2_5Parse5parseECs4oBEgEuuqV9_15zerocopy_derive, symObjAddr: 0x3C2C, symBinAddr: 0x33B68, symSize: 0x30 }
  - { offset: 0x5B0D5, size: 0x8, addend: 0x0, symName: __RNvXsh_NtCscwCr4GBBztI_3syn5parseNCINvNtB7_4meta6parserNCNvCs4oBEgEuuqV9_15zerocopy_derive22extract_zerocopy_crate0E0NtB5_6Parser14___parse_scopedBV_, symObjAddr: 0x5CC4, symBinAddr: 0x35C00, symSize: 0x354 }
  - { offset: 0x5B222, size: 0x8, addend: 0x0, symName: __RNvXsh_NtCscwCr4GBBztI_3syn5parseNvYNtNtB7_3lit6LitIntNtB5_5Parse5parseNtB5_6Parser14___parse_scopedCs4oBEgEuuqV9_15zerocopy_derive, symObjAddr: 0x6018, symBinAddr: 0x35F54, symSize: 0x388 }
  - { offset: 0x5B36E, size: 0x8, addend: 0x0, symName: __RNvXsh_NtCscwCr4GBBztI_3syn5parseNvYNtNtB7_4path4PathNtB5_5Parse5parseNtB5_6Parser14___parse_scopedCs4oBEgEuuqV9_15zerocopy_derive, symObjAddr: 0x63A0, symBinAddr: 0x362DC, symSize: 0x3BC }
  - { offset: 0x5B4BB, size: 0x8, addend: 0x0, symName: __RNvXsh_NtCscwCr4GBBztI_3syn5parseNvYNtNtB7_6derive11DeriveInputNtB5_5Parse5parseNtB5_6Parser6parse2Cs4oBEgEuuqV9_15zerocopy_derive, symObjAddr: 0x675C, symBinAddr: 0x36698, symSize: 0x354 }
  - { offset: 0x5B5D1, size: 0x8, addend: 0x0, symName: __RNvYNvYNtNtCscwCr4GBBztI_3syn6derive11DeriveInputNtNtB9_5parse5Parse5parseNtBN_6Parser5parseCs4oBEgEuuqV9_15zerocopy_derive, symObjAddr: 0x7D60, symBinAddr: 0x37C64, symSize: 0x88 }
  - { offset: 0x602F3, size: 0x8, addend: 0x0, symName: __RINvNtCscwCr4GBBztI_3syn4meta17parse_nested_metaNCNvCs4oBEgEuuqV9_15zerocopy_derive22extract_zerocopy_crate0EBO_, symObjAddr: 0x37F0, symBinAddr: 0x3372C, symSize: 0x380 }
  - { offset: 0x603B5, size: 0x8, addend: 0x0, symName: __RINvNtCscwCr4GBBztI_3syn4meta6parserNCNvCs4oBEgEuuqV9_15zerocopy_derive22extract_zerocopy_crate0EBC_, symObjAddr: 0x3B70, symBinAddr: 0x33AAC, symSize: 0x24 }
  - { offset: 0x603EF, size: 0x8, addend: 0x0, symName: __RNCINvNtCscwCr4GBBztI_3syn4meta6parserNCNvCs4oBEgEuuqV9_15zerocopy_derive22extract_zerocopy_crate0E0BE_, symObjAddr: 0x3FC4, symBinAddr: 0x33F00, symSize: 0xE0 }
  - { offset: 0x60473, size: 0x8, addend: 0x0, symName: __RNvXNtCscwCr4GBBztI_3syn11parse_quoteNtNtB4_8generics14WherePredicateNtB2_10ParseQuote5parseCs4oBEgEuuqV9_15zerocopy_derive, symObjAddr: 0x50C0, symBinAddr: 0x34FFC, symSize: 0x34 }
  - { offset: 0x604B4, size: 0x8, addend: 0x0, symName: __RNvXNtCscwCr4GBBztI_3syn7spannedNtCsfwj6t2KTYdc_11proc_macro211TokenStreamNtB2_7Spanned4spanCs4oBEgEuuqV9_15zerocopy_derive, symObjAddr: 0x50F4, symBinAddr: 0x35030, symSize: 0x34 }
  - { offset: 0x619FA, size: 0x8, addend: 0x0, symName: __RNvXs1_NtCsdFlNUEO95cG_5alloc7raw_vecINtB5_6RawVecINtNtB7_3vec3VecTRNtNtCscwCr4GBBztI_3syn11restriction10VisibilityNtCsfwj6t2KTYdc_11proc_macro211TokenStreamRNtNtB18_2ty4TypeEEENtNtNtCs85QQFkKrybG_4core3ops4drop4Drop4dropCs4oBEgEuuqV9_15zerocopy_derive, symObjAddr: 0x5400, symBinAddr: 0x3533C, symSize: 0x34 }
  - { offset: 0x61A36, size: 0x8, addend: 0x0, symName: __RNvXs1_NtCsdFlNUEO95cG_5alloc7raw_vecINtB5_6RawVecINtNtNtCs4oBEgEuuqV9_15zerocopy_derive4repr4util7SpannedNtBR_7RawReprEENtNtNtCs85QQFkKrybG_4core3ops4drop4Drop4dropBT_, symObjAddr: 0x5434, symBinAddr: 0x35370, symSize: 0x34 }
  - { offset: 0x61A72, size: 0x8, addend: 0x0, symName: __RNvXs1_NtCsdFlNUEO95cG_5alloc7raw_vecINtB5_6RawVecNtCsfwj6t2KTYdc_11proc_macro25IdentENtNtNtCs85QQFkKrybG_4core3ops4drop4Drop4dropCs4oBEgEuuqV9_15zerocopy_derive, symObjAddr: 0x5468, symBinAddr: 0x353A4, symSize: 0x34 }
  - { offset: 0x61AAE, size: 0x8, addend: 0x0, symName: __RNvXs1_NtCsdFlNUEO95cG_5alloc7raw_vecINtB5_6RawVecNtNtCscwCr4GBBztI_3syn4attr4MetaENtNtNtCs85QQFkKrybG_4core3ops4drop4Drop4dropCs4oBEgEuuqV9_15zerocopy_derive, symObjAddr: 0x549C, symBinAddr: 0x353D8, symSize: 0x34 }
  - { offset: 0x61AEA, size: 0x8, addend: 0x0, symName: __RNvXs1_NtCsdFlNUEO95cG_5alloc7raw_vecINtB5_6RawVecNtNtCscwCr4GBBztI_3syn8generics12GenericParamENtNtNtCs85QQFkKrybG_4core3ops4drop4Drop4dropCs4oBEgEuuqV9_15zerocopy_derive, symObjAddr: 0x54D0, symBinAddr: 0x3540C, symSize: 0x34 }
  - { offset: 0x61B26, size: 0x8, addend: 0x0, symName: __RNvXs1_NtCsdFlNUEO95cG_5alloc7raw_vecINtB5_6RawVecNtNtCscwCr4GBBztI_3syn8generics14WherePredicateENtNtNtCs85QQFkKrybG_4core3ops4drop4Drop4dropCs4oBEgEuuqV9_15zerocopy_derive, symObjAddr: 0x5504, symBinAddr: 0x35440, symSize: 0x34 }
  - { offset: 0x61B62, size: 0x8, addend: 0x0, symName: __RNvXs1_NtCsdFlNUEO95cG_5alloc7raw_vecINtB5_6RawVecTNtNtCscwCr4GBBztI_3syn4attr4MetaNtNtBR_5token5CommaEENtNtNtCs85QQFkKrybG_4core3ops4drop4Drop4dropCs4oBEgEuuqV9_15zerocopy_derive, symObjAddr: 0x5538, symBinAddr: 0x35474, symSize: 0x34 }
  - { offset: 0x61B9E, size: 0x8, addend: 0x0, symName: __RNvXs1_NtCsdFlNUEO95cG_5alloc7raw_vecINtB5_6RawVecTRNtNtCscwCr4GBBztI_3syn11restriction10VisibilityNtCsfwj6t2KTYdc_11proc_macro211TokenStreamRNtNtBS_2ty4TypeEENtNtNtCs85QQFkKrybG_4core3ops4drop4Drop4dropCs4oBEgEuuqV9_15zerocopy_derive, symObjAddr: 0x556C, symBinAddr: 0x354A8, symSize: 0x34 }
  - { offset: 0x61D22, size: 0x8, addend: 0x0, symName: __RINvMNtCsdFlNUEO95cG_5alloc5sliceSNtNtCscwCr4GBBztI_3syn8generics14WherePredicate8into_vecNtNtB5_5alloc6GlobalECs4oBEgEuuqV9_15zerocopy_derive, symObjAddr: 0x1018, symBinAddr: 0x30F9C, symSize: 0x4C }
  - { offset: 0x621F1, size: 0x8, addend: 0x0, symName: __RINvXsb_NtCsfwj6t2KTYdc_11proc_macro28fallbackNtB6_11TokenStreamINtNtNtNtCs85QQFkKrybG_4core4iter6traits7collect6ExtendBI_E6extendINtNtNtB17_8adapters3map3MapIB25_INtNtNtB19_5array4iter8IntoIterNtB8_11TokenStreamKj2_ENCINvXs7_B8_B36_INtB13_12FromIteratorB36_E9from_iterB2B_E0ENCINvXs6_NtB8_3impNtB4z_11TokenStreamIB3K_B4I_E9from_iterB2w_Es_0EECs4oBEgEuuqV9_15zerocopy_derive, symObjAddr: 0x3E3C, symBinAddr: 0x33D78, symSize: 0xDC }
  - { offset: 0x6223A, size: 0x8, addend: 0x0, symName: __RNvXss_NtCsfwj6t2KTYdc_11proc_macro28fallbackNtB5_11TokenStreamNtNtCs85QQFkKrybG_4core5clone5Clone5cloneCs4oBEgEuuqV9_15zerocopy_derive, symObjAddr: 0x7620, symBinAddr: 0x3755C, symSize: 0x24 }
  - { offset: 0x624FC, size: 0x8, addend: 0x0, symName: __RINvXs7_Csfwj6t2KTYdc_11proc_macro2NtB6_11TokenStreamINtNtNtNtCs85QQFkKrybG_4core4iter6traits7collect12FromIteratorBx_E9from_iterINtNtNtBY_5array4iter8IntoIterBx_Kj2_EECs4oBEgEuuqV9_15zerocopy_derive, symObjAddr: 0x3DD8, symBinAddr: 0x33D14, symSize: 0x64 }
  - { offset: 0x62539, size: 0x8, addend: 0x0, symName: __RNCINvXs7_Csfwj6t2KTYdc_11proc_macro2NtB8_11TokenStreamINtNtNtNtCs85QQFkKrybG_4core4iter6traits7collect12FromIteratorBz_E9from_iterINtNtNtB10_5array4iter8IntoIterBz_Kj2_EE0Cs4oBEgEuuqV9_15zerocopy_derive, symObjAddr: 0x40A4, symBinAddr: 0x33FE0, symSize: 0x20 }
  - { offset: 0x62589, size: 0x8, addend: 0x0, symName: __RNvXsG_Csfwj6t2KTYdc_11proc_macro2NtB5_11TokenStreamNtNtCs85QQFkKrybG_4core5clone5Clone5cloneCs4oBEgEuuqV9_15zerocopy_derive, symObjAddr: 0x5890, symBinAddr: 0x357CC, symSize: 0x78 }
  - { offset: 0x62CEC, size: 0x8, addend: 0x0, symName: __RNvXsV_NtCs9bTl5rSDVcL_10proc_macro6bridgeINtNtCs85QQFkKrybG_4core6result6ResultINtNtBJ_6option6OptionNtNtB5_6client11TokenStreamEuEINtNtB5_3rpc6EncodeuE6encodeCs4oBEgEuuqV9_15zerocopy_derive, symObjAddr: 0x5908, symBinAddr: 0x35844, symSize: 0x110 }
  - { offset: 0x62DB0, size: 0x8, addend: 0x0, symName: __RNvXsV_NtCs9bTl5rSDVcL_10proc_macro6bridgeINtNtCs85QQFkKrybG_4core6result6ResultuNtNtB5_3rpc12PanicMessageEINtB1j_6EncodeuE6encodeCs4oBEgEuuqV9_15zerocopy_derive, symObjAddr: 0x5A18, symBinAddr: 0x35954, symSize: 0x12C }
  - { offset: 0x632C2, size: 0x8, addend: 0x0, symName: __RNvNvMs9_NtCs85QQFkKrybG_4core3numj13unchecked_add18precondition_checkCs4oBEgEuuqV9_15zerocopy_derive, symObjAddr: 0x4F14, symBinAddr: 0x34E50, symSize: 0xB0 }
  - { offset: 0x634ED, size: 0x8, addend: 0x0, symName: __RNvMsE_NtCs85QQFkKrybG_4core3numo16from_ascii_radixCs4oBEgEuuqV9_15zerocopy_derive, symObjAddr: 0x473C, symBinAddr: 0x34678, symSize: 0x674 }
  - { offset: 0x6378A, size: 0x8, addend: 0x0, symName: __RNvNvMs3_NtCs85QQFkKrybG_4core3numi13unchecked_neg18precondition_checkCs4oBEgEuuqV9_15zerocopy_derive, symObjAddr: 0x4E5C, symBinAddr: 0x34D98, symSize: 0xB8 }
  - { offset: 0x63827, size: 0x8, addend: 0x0, symName: __RNvXsD_NtCs85QQFkKrybG_4core3numoNtNtNtB7_3str6traits7FromStr8from_strCs4oBEgEuuqV9_15zerocopy_derive, symObjAddr: 0x5860, symBinAddr: 0x3579C, symSize: 0x30 }
  - { offset: 0x6416A, size: 0x8, addend: 0x0, symName: __RNvNvMNtNtCs85QQFkKrybG_4core3ptr9const_ptrPp20offset_from_unsigned18precondition_checkCs4oBEgEuuqV9_15zerocopy_derive, symObjAddr: 0x4DB0, symBinAddr: 0x34CEC, symSize: 0xAC }
  - { offset: 0x64227, size: 0x8, addend: 0x0, symName: __RINvNtCs85QQFkKrybG_4core3ptr13drop_in_placeINtCs4oBEgEuuqV9_15zerocopy_derive16ImplBlockBuilderNtNtCscwCr4GBBztI_3syn6derive10DataStructEEBJ_, symObjAddr: 0x11E4, symBinAddr: 0x31120, symSize: 0xBC }
  - { offset: 0x64256, size: 0x8, addend: 0x0, symName: __RINvNtCs85QQFkKrybG_4core3ptr13drop_in_placeINtCs4oBEgEuuqV9_15zerocopy_derive16ImplBlockBuilderNtNtCscwCr4GBBztI_3syn6derive4DataEEBJ_, symObjAddr: 0x12A0, symBinAddr: 0x311DC, symSize: 0xBC }
  - { offset: 0x64285, size: 0x8, addend: 0x0, symName: __RINvNtCs85QQFkKrybG_4core3ptr13drop_in_placeINtCs4oBEgEuuqV9_15zerocopy_derive16ImplBlockBuilderNtNtCscwCr4GBBztI_3syn6derive8DataEnumEEBJ_, symObjAddr: 0x135C, symBinAddr: 0x31298, symSize: 0xBC }
  - { offset: 0x642B4, size: 0x8, addend: 0x0, symName: __RINvNtCs85QQFkKrybG_4core3ptr13drop_in_placeINtCs4oBEgEuuqV9_15zerocopy_derive16ImplBlockBuilderNtNtCscwCr4GBBztI_3syn6derive9DataUnionEEBJ_, symObjAddr: 0x1418, symBinAddr: 0x31354, symSize: 0xBC }
  - { offset: 0x642E3, size: 0x8, addend: 0x0, symName: __RINvNtCs85QQFkKrybG_4core3ptr13drop_in_placeINtNtB4_4cell10UnsafeCellNtNtNtCs9bTl5rSDVcL_10proc_macro6bridge6client6BridgeEECs4oBEgEuuqV9_15zerocopy_derive, symObjAddr: 0x14D4, symBinAddr: 0x31410, symSize: 0x24 }
  - { offset: 0x64312, size: 0x8, addend: 0x0, symName: __RINvNtCs85QQFkKrybG_4core3ptr13drop_in_placeINtNtB4_4cell7RefCellNtNtNtCs9bTl5rSDVcL_10proc_macro6bridge6client6BridgeEECs4oBEgEuuqV9_15zerocopy_derive, symObjAddr: 0x14F8, symBinAddr: 0x31434, symSize: 0x24 }
  - { offset: 0x64341, size: 0x8, addend: 0x0, symName: __RINvNtCs85QQFkKrybG_4core3ptr13drop_in_placeINtNtB4_6option4ItemINtNtCscwCr4GBBztI_3syn10punctuated4IterNtNtB15_8generics14WherePredicateEEECs4oBEgEuuqV9_15zerocopy_derive, symObjAddr: 0x151C, symBinAddr: 0x31458, symSize: 0x24 }
  - { offset: 0x64370, size: 0x8, addend: 0x0, symName: __RINvNtCs85QQFkKrybG_4core3ptr13drop_in_placeINtNtB4_6option6OptionINtBJ_8IntoIterINtNtCscwCr4GBBztI_3syn10punctuated4IterNtNtB1m_8generics14WherePredicateEEEECs4oBEgEuuqV9_15zerocopy_derive, symObjAddr: 0x1540, symBinAddr: 0x3147C, symSize: 0x40 }
  - { offset: 0x6439F, size: 0x8, addend: 0x0, symName: __RINvNtCs85QQFkKrybG_4core3ptr13drop_in_placeINtNtB4_6option6OptionINtNtCscwCr4GBBztI_3syn10punctuated4IterNtNtB17_4data5FieldEEECs4oBEgEuuqV9_15zerocopy_derive, symObjAddr: 0x1580, symBinAddr: 0x314BC, symSize: 0x44 }
  - { offset: 0x643CE, size: 0x8, addend: 0x0, symName: __RINvNtCs85QQFkKrybG_4core3ptr13drop_in_placeINtNtB4_6option6OptionINtNtCscwCr4GBBztI_3syn10punctuated4IterNtNtB17_8generics14WherePredicateEEECs4oBEgEuuqV9_15zerocopy_derive, symObjAddr: 0x15C4, symBinAddr: 0x31500, symSize: 0x44 }
  - { offset: 0x643FD, size: 0x8, addend: 0x0, symName: __RINvNtCs85QQFkKrybG_4core3ptr13drop_in_placeINtNtB4_6option6OptionINtNtCsdFlNUEO95cG_5alloc5boxed3BoxNtNtCscwCr4GBBztI_3syn4attr4MetaEEECs4oBEgEuuqV9_15zerocopy_derive, symObjAddr: 0x1608, symBinAddr: 0x31544, symSize: 0x44 }
  - { offset: 0x6442C, size: 0x8, addend: 0x0, symName: __RINvNtCs85QQFkKrybG_4core3ptr13drop_in_placeINtNtB4_6option6OptionINtNtNtNtB4_4iter8adapters3map3MapIB13_INtNtNtB4_5array4iter8IntoIterNtCsfwj6t2KTYdc_11proc_macro211TokenStreamKj2_ENCINvXs7_B2b_B29_INtNtNtB19_6traits7collect12FromIteratorB29_E9from_iterB1F_E0ENCINvXs6_NtB2b_3impNtB4k_11TokenStreamIB3c_B4u_E9from_iterB1A_Es_0EEECs4oBEgEuuqV9_15zerocopy_derive, symObjAddr: 0x164C, symBinAddr: 0x31588, symSize: 0x40 }
  - { offset: 0x6445B, size: 0x8, addend: 0x0, symName: __RINvNtCs85QQFkKrybG_4core3ptr13drop_in_placeINtNtB4_6option6OptionINtNtNtNtB4_4iter8adapters3map3MapINtNtCscwCr4GBBztI_3syn10punctuated4IterNtNtB1F_4data7VariantENCNvXs0_NtCs4oBEgEuuqV9_15zerocopy_derive3extNtNtB1F_6derive8DataEnumNtB2I_7DataExt6fields0EEEB2K_, symObjAddr: 0x168C, symBinAddr: 0x315C8, symSize: 0x44 }
  - { offset: 0x6448A, size: 0x8, addend: 0x0, symName: __RINvNtCs85QQFkKrybG_4core3ptr13drop_in_placeINtNtB4_6option6OptionINtNtNtNtB4_4iter8adapters5chain5ChainIB13_INtNtB17_7flatten7FlattenINtBJ_8IntoIterINtNtCscwCr4GBBztI_3syn10punctuated4IterNtNtB2s_8generics14WherePredicateEEEINtNtNtB4_5slice4iter4IterB31_EEINtBJ_4IterB31_EEEECs4oBEgEuuqV9_15zerocopy_derive, symObjAddr: 0x16D0, symBinAddr: 0x3160C, symSize: 0x44 }
  - { offset: 0x644B9, size: 0x8, addend: 0x0, symName: __RINvNtCs85QQFkKrybG_4core3ptr13drop_in_placeINtNtB4_6option6OptionINtNtNtNtB4_4iter8adapters5chain5ChainINtNtB17_7flatten7FlattenINtBJ_8IntoIterINtNtCscwCr4GBBztI_3syn10punctuated4IterNtNtB2n_8generics14WherePredicateEEEINtNtNtB4_5slice4iter4IterB2W_EEEECs4oBEgEuuqV9_15zerocopy_derive, symObjAddr: 0x1714, symBinAddr: 0x31650, symSize: 0x44 }
  - { offset: 0x644E8, size: 0x8, addend: 0x0, symName: __RINvNtCs85QQFkKrybG_4core3ptr13drop_in_placeINtNtB4_6option6OptionINtNtNtNtB4_4iter8adapters7flatten7FlattenINtBJ_8IntoIterINtNtCscwCr4GBBztI_3syn10punctuated4IterNtNtB22_8generics14WherePredicateEEEEECs4oBEgEuuqV9_15zerocopy_derive, symObjAddr: 0x1758, symBinAddr: 0x31694, symSize: 0x44 }
  - { offset: 0x64517, size: 0x8, addend: 0x0, symName: __RINvNtCs85QQFkKrybG_4core3ptr13drop_in_placeINtNtB4_6option6OptionNtCs4oBEgEuuqV9_15zerocopy_derive12PaddingCheckEEB14_, symObjAddr: 0x179C, symBinAddr: 0x316D8, symSize: 0x4C }
  - { offset: 0x64546, size: 0x8, addend: 0x0, symName: __RINvNtCs85QQFkKrybG_4core3ptr13drop_in_placeINtNtB4_6option6OptionNtNtCscwCr4GBBztI_3syn8generics14WherePredicateEECs4oBEgEuuqV9_15zerocopy_derive, symObjAddr: 0x17E8, symBinAddr: 0x31724, symSize: 0x44 }
  - { offset: 0x64575, size: 0x8, addend: 0x0, symName: __RINvNtCs85QQFkKrybG_4core3ptr13drop_in_placeINtNtB4_6option8IntoIterINtNtCscwCr4GBBztI_3syn10punctuated4IterNtNtB19_8generics14WherePredicateEEECs4oBEgEuuqV9_15zerocopy_derive, symObjAddr: 0x182C, symBinAddr: 0x31768, symSize: 0x24 }
  - { offset: 0x645A4, size: 0x8, addend: 0x0, symName: __RINvNtCs85QQFkKrybG_4core3ptr13drop_in_placeINtNtB4_6result6ResultINtNtCscwCr4GBBztI_3syn10punctuated10PunctuatedNtNtB17_4attr4MetaNtNtB17_5token5CommaENtNtB17_5error5ErrorEECs4oBEgEuuqV9_15zerocopy_derive, symObjAddr: 0x1850, symBinAddr: 0x3178C, symSize: 0x5C }
  - { offset: 0x645D3, size: 0x8, addend: 0x0, symName: __RINvNtCs85QQFkKrybG_4core3ptr13drop_in_placeINtNtB4_6result6ResultNtNtCscwCr4GBBztI_3syn4expr4ExprNtNtB16_5error5ErrorEECs4oBEgEuuqV9_15zerocopy_derive, symObjAddr: 0x18AC, symBinAddr: 0x317E8, symSize: 0x58 }
  - { offset: 0x64602, size: 0x8, addend: 0x0, symName: __RINvNtCs85QQFkKrybG_4core3ptr13drop_in_placeINtNtB4_6result6ResultbNtNtCscwCr4GBBztI_3syn5error5ErrorEECs4oBEgEuuqV9_15zerocopy_derive, symObjAddr: 0x1904, symBinAddr: 0x31840, symSize: 0x48 }
  - { offset: 0x64631, size: 0x8, addend: 0x0, symName: __RINvNtCs85QQFkKrybG_4core3ptr13drop_in_placeINtNtB4_6result6ResultoNtNtCscwCr4GBBztI_3syn5error5ErrorEECs4oBEgEuuqV9_15zerocopy_derive, symObjAddr: 0x194C, symBinAddr: 0x31888, symSize: 0x40 }
  - { offset: 0x64660, size: 0x8, addend: 0x0, symName: __RINvNtCs85QQFkKrybG_4core3ptr13drop_in_placeINtNtCscwCr4GBBztI_3syn10punctuated10PunctuatedNtNtBL_4attr4MetaNtNtBL_5token5CommaEECs4oBEgEuuqV9_15zerocopy_derive, symObjAddr: 0x198C, symBinAddr: 0x318C8, symSize: 0x60 }
  - { offset: 0x6468F, size: 0x8, addend: 0x0, symName: __RINvNtCs85QQFkKrybG_4core3ptr13drop_in_placeINtNtCscwCr4GBBztI_3syn10punctuated4IterNtNtBL_4data5FieldEECs4oBEgEuuqV9_15zerocopy_derive, symObjAddr: 0x19EC, symBinAddr: 0x31928, symSize: 0x24 }
  - { offset: 0x646BE, size: 0x8, addend: 0x0, symName: __RINvNtCs85QQFkKrybG_4core3ptr13drop_in_placeINtNtCscwCr4GBBztI_3syn10punctuated4IterNtNtBL_4data7VariantEECs4oBEgEuuqV9_15zerocopy_derive, symObjAddr: 0x1A10, symBinAddr: 0x3194C, symSize: 0x24 }
  - { offset: 0x646ED, size: 0x8, addend: 0x0, symName: __RINvNtCs85QQFkKrybG_4core3ptr13drop_in_placeINtNtCscwCr4GBBztI_3syn10punctuated4IterNtNtBL_8generics12GenericParamEECs4oBEgEuuqV9_15zerocopy_derive, symObjAddr: 0x1A34, symBinAddr: 0x31970, symSize: 0x24 }
  - { offset: 0x6471C, size: 0x8, addend: 0x0, symName: __RINvNtCs85QQFkKrybG_4core3ptr13drop_in_placeINtNtCscwCr4GBBztI_3syn10punctuated4IterNtNtBL_8generics14WherePredicateEECs4oBEgEuuqV9_15zerocopy_derive, symObjAddr: 0x1A58, symBinAddr: 0x31994, symSize: 0x24 }
  - { offset: 0x6474B, size: 0x8, addend: 0x0, symName: __RINvNtCs85QQFkKrybG_4core3ptr13drop_in_placeINtNtCscwCr4GBBztI_3syn10punctuated8IntoIterNtNtBL_4attr4MetaEECs4oBEgEuuqV9_15zerocopy_derive, symObjAddr: 0x1A7C, symBinAddr: 0x319B8, symSize: 0x24 }
  - { offset: 0x6477A, size: 0x8, addend: 0x0, symName: __RINvNtCs85QQFkKrybG_4core3ptr13drop_in_placeINtNtCscwCr4GBBztI_3syn10punctuated8IntoIterNtNtBL_8generics12GenericParamEECs4oBEgEuuqV9_15zerocopy_derive, symObjAddr: 0x1AA0, symBinAddr: 0x319DC, symSize: 0x24 }
  - { offset: 0x647A9, size: 0x8, addend: 0x0, symName: __RINvNtCs85QQFkKrybG_4core3ptr13drop_in_placeINtNtCsdFlNUEO95cG_5alloc3vec3VecIBH_TRNtNtCscwCr4GBBztI_3syn11restriction10VisibilityNtCsfwj6t2KTYdc_11proc_macro211TokenStreamRNtNtB1n_2ty4TypeEEEECs4oBEgEuuqV9_15zerocopy_derive, symObjAddr: 0x1AC4, symBinAddr: 0x31A00, symSize: 0x5C }
  - { offset: 0x647D8, size: 0x8, addend: 0x0, symName: __RINvNtCs85QQFkKrybG_4core3ptr13drop_in_placeINtNtCsdFlNUEO95cG_5alloc3vec3VecINtNtNtCs4oBEgEuuqV9_15zerocopy_derive4repr4util7SpannedNtB1i_7RawReprEEEB1k_, symObjAddr: 0x1B20, symBinAddr: 0x31A5C, symSize: 0x5C }
  - { offset: 0x64807, size: 0x8, addend: 0x0, symName: __RINvNtCs85QQFkKrybG_4core3ptr13drop_in_placeINtNtCsdFlNUEO95cG_5alloc3vec3VecNtCsfwj6t2KTYdc_11proc_macro25IdentEECs4oBEgEuuqV9_15zerocopy_derive, symObjAddr: 0x1B7C, symBinAddr: 0x31AB8, symSize: 0x5C }
  - { offset: 0x64836, size: 0x8, addend: 0x0, symName: __RINvNtCs85QQFkKrybG_4core3ptr13drop_in_placeINtNtCsdFlNUEO95cG_5alloc3vec3VecNtNtCscwCr4GBBztI_3syn4attr4MetaEECs4oBEgEuuqV9_15zerocopy_derive, symObjAddr: 0x1BD8, symBinAddr: 0x31B14, symSize: 0x5C }
  - { offset: 0x64865, size: 0x8, addend: 0x0, symName: __RINvNtCs85QQFkKrybG_4core3ptr13drop_in_placeINtNtCsdFlNUEO95cG_5alloc3vec3VecNtNtCscwCr4GBBztI_3syn8generics12GenericParamEECs4oBEgEuuqV9_15zerocopy_derive, symObjAddr: 0x1C34, symBinAddr: 0x31B70, symSize: 0x5C }
  - { offset: 0x64894, size: 0x8, addend: 0x0, symName: __RINvNtCs85QQFkKrybG_4core3ptr13drop_in_placeINtNtCsdFlNUEO95cG_5alloc3vec3VecNtNtCscwCr4GBBztI_3syn8generics14WherePredicateEECs4oBEgEuuqV9_15zerocopy_derive, symObjAddr: 0x1C90, symBinAddr: 0x31BCC, symSize: 0x5C }
  - { offset: 0x648C3, size: 0x8, addend: 0x0, symName: __RINvNtCs85QQFkKrybG_4core3ptr13drop_in_placeINtNtCsdFlNUEO95cG_5alloc3vec3VecTNtNtCscwCr4GBBztI_3syn4attr4MetaNtNtB1i_5token5CommaEEECs4oBEgEuuqV9_15zerocopy_derive, symObjAddr: 0x1CEC, symBinAddr: 0x31C28, symSize: 0x5C }
  - { offset: 0x648F2, size: 0x8, addend: 0x0, symName: __RINvNtCs85QQFkKrybG_4core3ptr13drop_in_placeINtNtCsdFlNUEO95cG_5alloc3vec3VecTRNtNtCscwCr4GBBztI_3syn11restriction10VisibilityNtCsfwj6t2KTYdc_11proc_macro211TokenStreamRNtNtB1j_2ty4TypeEEECs4oBEgEuuqV9_15zerocopy_derive, symObjAddr: 0x1D48, symBinAddr: 0x31C84, symSize: 0x5C }
  - { offset: 0x64921, size: 0x8, addend: 0x0, symName: __RINvNtCs85QQFkKrybG_4core3ptr13drop_in_placeINtNtCsdFlNUEO95cG_5alloc5boxed3BoxDNtNtB4_5error5ErrorNtNtB4_6marker4SyncNtB1B_4SendEL_EECs4oBEgEuuqV9_15zerocopy_derive, symObjAddr: 0x1DA4, symBinAddr: 0x31CE0, symSize: 0x80 }
  - { offset: 0x64950, size: 0x8, addend: 0x0, symName: __RINvNtCs85QQFkKrybG_4core3ptr13drop_in_placeINtNtCsdFlNUEO95cG_5alloc5boxed3BoxINtNtCscwCr4GBBztI_3syn5drops6NoDropDINtNtB1k_10punctuated9IterTraitNtNtB1k_4data5FieldEp4ItemRB2l_EL_EEECs4oBEgEuuqV9_15zerocopy_derive, symObjAddr: 0x1E24, symBinAddr: 0x31D60, symSize: 0x2C }
  - { offset: 0x6497F, size: 0x8, addend: 0x0, symName: __RINvNtCs85QQFkKrybG_4core3ptr13drop_in_placeINtNtCsdFlNUEO95cG_5alloc5boxed3BoxINtNtCscwCr4GBBztI_3syn5drops6NoDropDINtNtB1k_10punctuated9IterTraitNtNtB1k_4data7VariantEp4ItemRB2l_EL_EEECs4oBEgEuuqV9_15zerocopy_derive, symObjAddr: 0x1E50, symBinAddr: 0x31D8C, symSize: 0x2C }
  - { offset: 0x649AE, size: 0x8, addend: 0x0, symName: __RINvNtCs85QQFkKrybG_4core3ptr13drop_in_placeINtNtCsdFlNUEO95cG_5alloc5boxed3BoxINtNtCscwCr4GBBztI_3syn5drops6NoDropDINtNtB1k_10punctuated9IterTraitNtNtB1k_8generics12GenericParamEp4ItemRB2l_EL_EEECs4oBEgEuuqV9_15zerocopy_derive, symObjAddr: 0x1E7C, symBinAddr: 0x31DB8, symSize: 0x2C }
  - { offset: 0x649DD, size: 0x8, addend: 0x0, symName: __RINvNtCs85QQFkKrybG_4core3ptr13drop_in_placeINtNtCsdFlNUEO95cG_5alloc5boxed3BoxINtNtCscwCr4GBBztI_3syn5drops6NoDropDINtNtB1k_10punctuated9IterTraitNtNtB1k_8generics14WherePredicateEp4ItemRB2l_EL_EEECs4oBEgEuuqV9_15zerocopy_derive, symObjAddr: 0x1EA8, symBinAddr: 0x31DE4, symSize: 0x2C }
  - { offset: 0x64A0C, size: 0x8, addend: 0x0, symName: __RINvNtCs85QQFkKrybG_4core3ptr13drop_in_placeINtNtCsdFlNUEO95cG_5alloc5boxed3BoxNtNtCscwCr4GBBztI_3syn4attr4MetaEECs4oBEgEuuqV9_15zerocopy_derive, symObjAddr: 0x1ED4, symBinAddr: 0x31E10, symSize: 0x60 }
  - { offset: 0x64A3B, size: 0x8, addend: 0x0, symName: __RINvNtCs85QQFkKrybG_4core3ptr13drop_in_placeINtNtCsdFlNUEO95cG_5alloc5boxed3BoxNtNtNtCswz7ZwgBZOU_3std2io5error6CustomEECs4oBEgEuuqV9_15zerocopy_derive, symObjAddr: 0x1F34, symBinAddr: 0x31E70, symSize: 0x60 }
  - { offset: 0x64A6A, size: 0x8, addend: 0x0, symName: __RINvNtCs85QQFkKrybG_4core3ptr13drop_in_placeINtNtCsdFlNUEO95cG_5alloc7raw_vec6RawVecINtNtBL_3vec3VecTRNtNtCscwCr4GBBztI_3syn11restriction10VisibilityNtCsfwj6t2KTYdc_11proc_macro211TokenStreamRNtNtB1G_2ty4TypeEEEECs4oBEgEuuqV9_15zerocopy_derive, symObjAddr: 0x1F94, symBinAddr: 0x31ED0, symSize: 0x24 }
  - { offset: 0x64A99, size: 0x8, addend: 0x0, symName: __RINvNtCs85QQFkKrybG_4core3ptr13drop_in_placeINtNtCsdFlNUEO95cG_5alloc7raw_vec6RawVecINtNtNtCs4oBEgEuuqV9_15zerocopy_derive4repr4util7SpannedNtB1p_7RawReprEEEB1r_, symObjAddr: 0x1FB8, symBinAddr: 0x31EF4, symSize: 0x24 }
  - { offset: 0x64AC8, size: 0x8, addend: 0x0, symName: __RINvNtCs85QQFkKrybG_4core3ptr13drop_in_placeINtNtCsdFlNUEO95cG_5alloc7raw_vec6RawVecNtCsfwj6t2KTYdc_11proc_macro25IdentEECs4oBEgEuuqV9_15zerocopy_derive, symObjAddr: 0x1FDC, symBinAddr: 0x31F18, symSize: 0x24 }
  - { offset: 0x64AF7, size: 0x8, addend: 0x0, symName: __RINvNtCs85QQFkKrybG_4core3ptr13drop_in_placeINtNtCsdFlNUEO95cG_5alloc7raw_vec6RawVecNtNtCscwCr4GBBztI_3syn4attr4MetaEECs4oBEgEuuqV9_15zerocopy_derive, symObjAddr: 0x2000, symBinAddr: 0x31F3C, symSize: 0x24 }
  - { offset: 0x64B26, size: 0x8, addend: 0x0, symName: __RINvNtCs85QQFkKrybG_4core3ptr13drop_in_placeINtNtCsdFlNUEO95cG_5alloc7raw_vec6RawVecNtNtCscwCr4GBBztI_3syn8generics12GenericParamEECs4oBEgEuuqV9_15zerocopy_derive, symObjAddr: 0x2024, symBinAddr: 0x31F60, symSize: 0x24 }
  - { offset: 0x64B55, size: 0x8, addend: 0x0, symName: __RINvNtCs85QQFkKrybG_4core3ptr13drop_in_placeINtNtCsdFlNUEO95cG_5alloc7raw_vec6RawVecNtNtCscwCr4GBBztI_3syn8generics14WherePredicateEECs4oBEgEuuqV9_15zerocopy_derive, symObjAddr: 0x2048, symBinAddr: 0x31F84, symSize: 0x24 }
  - { offset: 0x64B84, size: 0x8, addend: 0x0, symName: __RINvNtCs85QQFkKrybG_4core3ptr13drop_in_placeINtNtCsdFlNUEO95cG_5alloc7raw_vec6RawVecTNtNtCscwCr4GBBztI_3syn4attr4MetaNtNtB1p_5token5CommaEEECs4oBEgEuuqV9_15zerocopy_derive, symObjAddr: 0x206C, symBinAddr: 0x31FA8, symSize: 0x24 }
  - { offset: 0x64BB3, size: 0x8, addend: 0x0, symName: __RINvNtCs85QQFkKrybG_4core3ptr13drop_in_placeINtNtCsdFlNUEO95cG_5alloc7raw_vec6RawVecTRNtNtCscwCr4GBBztI_3syn11restriction10VisibilityNtCsfwj6t2KTYdc_11proc_macro211TokenStreamRNtNtB1q_2ty4TypeEEECs4oBEgEuuqV9_15zerocopy_derive, symObjAddr: 0x2090, symBinAddr: 0x31FCC, symSize: 0x24 }
  - { offset: 0x64BE2, size: 0x8, addend: 0x0, symName: __RINvNtCs85QQFkKrybG_4core3ptr13drop_in_placeINtNtCshi3DZH3dfhk_5quote9___private9RepInterpNtCsfwj6t2KTYdc_11proc_macro211TokenStreamEECs4oBEgEuuqV9_15zerocopy_derive, symObjAddr: 0x20B4, symBinAddr: 0x31FF0, symSize: 0x24 }
  - { offset: 0x64C11, size: 0x8, addend: 0x0, symName: __RINvNtCs85QQFkKrybG_4core3ptr13drop_in_placeINtNtCshi3DZH3dfhk_5quote9___private9RepInterpNtCsfwj6t2KTYdc_11proc_macro25IdentEECs4oBEgEuuqV9_15zerocopy_derive, symObjAddr: 0x20D8, symBinAddr: 0x32014, symSize: 0x24 }
  - { offset: 0x64C40, size: 0x8, addend: 0x0, symName: __RINvNtCs85QQFkKrybG_4core3ptr13drop_in_placeINtNtCshi3DZH3dfhk_5quote9___private9RepInterpNtNtCscwCr4GBBztI_3syn4path4PathEECs4oBEgEuuqV9_15zerocopy_derive, symObjAddr: 0x20FC, symBinAddr: 0x32038, symSize: 0x24 }
  - { offset: 0x64C6F, size: 0x8, addend: 0x0, symName: __RINvNtCs85QQFkKrybG_4core3ptr13drop_in_placeINtNtNtB4_3ops12control_flow11ControlFlowNtCsfwj6t2KTYdc_11proc_macro211TokenStreamEECs4oBEgEuuqV9_15zerocopy_derive, symObjAddr: 0x2120, symBinAddr: 0x3205C, symSize: 0x48 }
  - { offset: 0x64C9E, size: 0x8, addend: 0x0, symName: __RINvNtCs85QQFkKrybG_4core3ptr13drop_in_placeINtNtNtB4_5array4iter8IntoIterNtCsfwj6t2KTYdc_11proc_macro211TokenStreamKj2_EECs4oBEgEuuqV9_15zerocopy_derive, symObjAddr: 0x2168, symBinAddr: 0x320A4, symSize: 0x5C }
  - { offset: 0x64CCD, size: 0x8, addend: 0x0, symName: __RINvNtCs85QQFkKrybG_4core3ptr13drop_in_placeINtNtNtCsdFlNUEO95cG_5alloc3vec9into_iter8IntoIterNtNtCscwCr4GBBztI_3syn4attr4MetaEECs4oBEgEuuqV9_15zerocopy_derive, symObjAddr: 0x21C4, symBinAddr: 0x32100, symSize: 0x24 }
  - { offset: 0x64CFC, size: 0x8, addend: 0x0, symName: __RINvNtCs85QQFkKrybG_4core3ptr13drop_in_placeINtNtNtCsdFlNUEO95cG_5alloc3vec9into_iter8IntoIterNtNtCscwCr4GBBztI_3syn8generics12GenericParamEECs4oBEgEuuqV9_15zerocopy_derive, symObjAddr: 0x21E8, symBinAddr: 0x32124, symSize: 0x24 }
  - { offset: 0x64D2B, size: 0x8, addend: 0x0, symName: __RINvNtCs85QQFkKrybG_4core3ptr13drop_in_placeINtNtNtCsdFlNUEO95cG_5alloc3vec9into_iter8IntoIterTNtNtCscwCr4GBBztI_3syn4attr4MetaNtNtB1z_5token5CommaEEECs4oBEgEuuqV9_15zerocopy_derive, symObjAddr: 0x220C, symBinAddr: 0x32148, symSize: 0x24 }
  - { offset: 0x64D5A, size: 0x8, addend: 0x0, symName: __RINvNtCs85QQFkKrybG_4core3ptr13drop_in_placeINtNtNtCsdFlNUEO95cG_5alloc3vec9into_iter8IntoIterTNtNtCscwCr4GBBztI_3syn8generics12GenericParamNtNtB1z_5token5CommaEEECs4oBEgEuuqV9_15zerocopy_derive, symObjAddr: 0x2230, symBinAddr: 0x3216C, symSize: 0x24 }
  - { offset: 0x64D89, size: 0x8, addend: 0x0, symName: __RINvNtCs85QQFkKrybG_4core3ptr13drop_in_placeINtNtNtCswz7ZwgBZOU_3std2io5error9ErrorDataINtNtCsdFlNUEO95cG_5alloc5boxed3BoxNtBJ_6CustomEEECs4oBEgEuuqV9_15zerocopy_derive, symObjAddr: 0x2254, symBinAddr: 0x32190, symSize: 0x48 }
  - { offset: 0x64DB8, size: 0x8, addend: 0x0, symName: __RINvNtCs85QQFkKrybG_4core3ptr13drop_in_placeINtNtNtNtB4_4iter8adapters10filter_map9FilterMapINtNtCscwCr4GBBztI_3syn10punctuated4IterNtNtB1x_4data7VariantENCNvNtCs4oBEgEuuqV9_15zerocopy_derive4enum23generate_variants_union0EEB2y_, symObjAddr: 0x229C, symBinAddr: 0x321D8, symSize: 0x24 }
  - { offset: 0x64DE7, size: 0x8, addend: 0x0, symName: __RINvNtCs85QQFkKrybG_4core3ptr13drop_in_placeINtNtNtNtB4_4iter8adapters10filter_map9FilterMapINtNtCscwCr4GBBztI_3syn10punctuated4IterNtNtB1x_4data7VariantENCNvNtCs4oBEgEuuqV9_15zerocopy_derive4enum24generate_variant_structs0EEB2y_, symObjAddr: 0x22C0, symBinAddr: 0x321FC, symSize: 0x24 }
  - { offset: 0x64E16, size: 0x8, addend: 0x0, symName: __RINvNtCs85QQFkKrybG_4core3ptr13drop_in_placeINtNtNtNtB4_4iter8adapters3map3MapIBH_INtNtNtB4_5array4iter8IntoIterNtCsfwj6t2KTYdc_11proc_macro211TokenStreamKj2_ENCINvXs7_B1O_B1M_INtNtNtBN_6traits7collect12FromIteratorB1M_E9from_iterB1i_E0ENCINvXs6_NtB1O_3impNtB3W_11TokenStreamIB2P_B46_E9from_iterB1e_E0EECs4oBEgEuuqV9_15zerocopy_derive, symObjAddr: 0x22E4, symBinAddr: 0x32220, symSize: 0x24 }
  - { offset: 0x64E45, size: 0x8, addend: 0x0, symName: __RINvNtCs85QQFkKrybG_4core3ptr13drop_in_placeINtNtNtNtB4_4iter8adapters3map3MapIBH_INtNtNtB4_5array4iter8IntoIterNtCsfwj6t2KTYdc_11proc_macro211TokenStreamKj2_ENCINvXs7_B1O_B1M_INtNtNtBN_6traits7collect12FromIteratorB1M_E9from_iterB1i_E0ENCINvXs6_NtB1O_3impNtB3W_11TokenStreamIB2P_B46_E9from_iterB1e_Es_0EECs4oBEgEuuqV9_15zerocopy_derive, symObjAddr: 0x2308, symBinAddr: 0x32244, symSize: 0x24 }
  - { offset: 0x64E74, size: 0x8, addend: 0x0, symName: __RINvNtCs85QQFkKrybG_4core3ptr13drop_in_placeINtNtNtNtB4_4iter8adapters3map3MapINtNtBL_9enumerate9EnumerateINtNtBL_7flatten7FlatMapINtNtCscwCr4GBBztI_3syn10punctuated4IterNtNtB29_4data7VariantERNtB2K_6FieldsNCNvXs0_NtCs4oBEgEuuqV9_15zerocopy_derive3extNtNtB29_6derive8DataEnumNtB3q_7DataExt6fields0EENCINvB3q_10map_fieldsB1G_E0EEB3s_, symObjAddr: 0x232C, symBinAddr: 0x32268, symSize: 0x24 }
  - { offset: 0x64EA3, size: 0x8, addend: 0x0, symName: __RINvNtCs85QQFkKrybG_4core3ptr13drop_in_placeINtNtNtNtB4_4iter8adapters3map3MapINtNtBL_9enumerate9EnumerateINtNtCscwCr4GBBztI_3syn10punctuated4IterNtNtB1L_4data5FieldEENCINvNtCs4oBEgEuuqV9_15zerocopy_derive3ext10map_fieldsRINtB1J_10PunctuatedB2k_NtNtB1L_5token5CommaEE0EEB2M_, symObjAddr: 0x2350, symBinAddr: 0x3228C, symSize: 0x24 }
  - { offset: 0x64ED2, size: 0x8, addend: 0x0, symName: __RINvNtCs85QQFkKrybG_4core3ptr13drop_in_placeINtNtNtNtB4_4iter8adapters3map3MapINtNtBL_9enumerate9EnumerateINtNtCscwCr4GBBztI_3syn10punctuated4IterNtNtB1L_4data5FieldEENCINvNtCs4oBEgEuuqV9_15zerocopy_derive3ext10map_fieldsRNtB2m_6FieldsE0EEB2M_, symObjAddr: 0x2374, symBinAddr: 0x322B0, symSize: 0x24 }
  - { offset: 0x64F01, size: 0x8, addend: 0x0, symName: __RINvNtCs85QQFkKrybG_4core3ptr13drop_in_placeINtNtNtNtB4_4iter8adapters3map3MapINtNtCscwCr4GBBztI_3syn10punctuated4IterNtNtB1j_4data5FieldENCNCNvNtCs4oBEgEuuqV9_15zerocopy_derive4enum24generate_variant_structs00EEB2k_, symObjAddr: 0x2398, symBinAddr: 0x322D4, symSize: 0x24 }
  - { offset: 0x64F30, size: 0x8, addend: 0x0, symName: __RINvNtCs85QQFkKrybG_4core3ptr13drop_in_placeINtNtNtNtB4_4iter8adapters3map3MapINtNtCscwCr4GBBztI_3syn10punctuated4IterNtNtB1j_4data5FieldENCNvCs4oBEgEuuqV9_15zerocopy_derive22derive_from_zeros_enum0EEB2g_, symObjAddr: 0x23BC, symBinAddr: 0x322F8, symSize: 0x24 }
  - { offset: 0x64F5F, size: 0x8, addend: 0x0, symName: __RINvNtCs85QQFkKrybG_4core3ptr13drop_in_placeINtNtNtNtB4_4iter8adapters3map3MapINtNtCscwCr4GBBztI_3syn10punctuated4IterNtNtB1j_4data7VariantENCNvNtCs4oBEgEuuqV9_15zerocopy_derive4enum17generate_tag_enum0EEB2k_, symObjAddr: 0x23E0, symBinAddr: 0x3231C, symSize: 0x24 }
  - { offset: 0x64F8E, size: 0x8, addend: 0x0, symName: __RINvNtCs85QQFkKrybG_4core3ptr13drop_in_placeINtNtNtNtB4_4iter8adapters3map3MapINtNtCscwCr4GBBztI_3syn10punctuated4IterNtNtB1j_4data7VariantENCNvNtCs4oBEgEuuqV9_15zerocopy_derive4enum19derive_is_bit_valid0EEB2k_, symObjAddr: 0x2404, symBinAddr: 0x32340, symSize: 0x24 }
  - { offset: 0x64FBD, size: 0x8, addend: 0x0, symName: __RINvNtCs85QQFkKrybG_4core3ptr13drop_in_placeINtNtNtNtB4_4iter8adapters3map3MapINtNtCscwCr4GBBztI_3syn10punctuated4IterNtNtB1j_4data7VariantENCNvNtCs4oBEgEuuqV9_15zerocopy_derive4enum19generate_tag_consts0EEB2k_, symObjAddr: 0x2428, symBinAddr: 0x32364, symSize: 0x24 }
  - { offset: 0x64FEC, size: 0x8, addend: 0x0, symName: __RINvNtCs85QQFkKrybG_4core3ptr13drop_in_placeINtNtNtNtB4_4iter8adapters3map3MapINtNtCscwCr4GBBztI_3syn10punctuated4IterNtNtB1j_4data7VariantENCNvXs0_NtCs4oBEgEuuqV9_15zerocopy_derive3extNtNtB1j_6derive8DataEnumNtB2m_7DataExt6fields0EEB2o_, symObjAddr: 0x244C, symBinAddr: 0x32388, symSize: 0x24 }
  - { offset: 0x6501B, size: 0x8, addend: 0x0, symName: __RINvNtCs85QQFkKrybG_4core3ptr13drop_in_placeINtNtNtNtB4_4iter8adapters3map3MapINtNtCscwCr4GBBztI_3syn10punctuated4IterNtNtB1j_4data7VariantENCNvXs0_NtCs4oBEgEuuqV9_15zerocopy_derive3extNtNtB1j_6derive8DataEnumNtB2m_7DataExt8variants0EEB2o_, symObjAddr: 0x2470, symBinAddr: 0x323AC, symSize: 0x24 }
  - { offset: 0x6504A, size: 0x8, addend: 0x0, symName: __RINvNtCs85QQFkKrybG_4core3ptr13drop_in_placeINtNtNtNtB4_4iter8adapters3map3MapINtNtCscwCr4GBBztI_3syn10punctuated4IterNtNtB1j_8generics12GenericParamENCNvMs5_Cs4oBEgEuuqV9_15zerocopy_deriveINtB2w_16ImplBlockBuilderNtNtB1j_6derive10DataStructE5builds3_0EEB2w_, symObjAddr: 0x2494, symBinAddr: 0x323D0, symSize: 0x24 }
  - { offset: 0x65079, size: 0x8, addend: 0x0, symName: __RINvNtCs85QQFkKrybG_4core3ptr13drop_in_placeINtNtNtNtB4_4iter8adapters3map3MapINtNtCscwCr4GBBztI_3syn10punctuated4IterNtNtB1j_8generics12GenericParamENCNvMs5_Cs4oBEgEuuqV9_15zerocopy_deriveINtB2w_16ImplBlockBuilderNtNtB1j_6derive4DataE5builds3_0EEB2w_, symObjAddr: 0x24B8, symBinAddr: 0x323F4, symSize: 0x24 }
  - { offset: 0x650A8, size: 0x8, addend: 0x0, symName: __RINvNtCs85QQFkKrybG_4core3ptr13drop_in_placeINtNtNtNtB4_4iter8adapters3map3MapINtNtCscwCr4GBBztI_3syn10punctuated4IterNtNtB1j_8generics12GenericParamENCNvMs5_Cs4oBEgEuuqV9_15zerocopy_deriveINtB2w_16ImplBlockBuilderNtNtB1j_6derive8DataEnumE5builds3_0EEB2w_, symObjAddr: 0x24DC, symBinAddr: 0x32418, symSize: 0x24 }
  - { offset: 0x650D7, size: 0x8, addend: 0x0, symName: __RINvNtCs85QQFkKrybG_4core3ptr13drop_in_placeINtNtNtNtB4_4iter8adapters3map3MapINtNtCscwCr4GBBztI_3syn10punctuated4IterNtNtB1j_8generics12GenericParamENCNvMs5_Cs4oBEgEuuqV9_15zerocopy_deriveINtB2w_16ImplBlockBuilderNtNtB1j_6derive9DataUnionE5builds3_0EEB2w_, symObjAddr: 0x2500, symBinAddr: 0x3243C, symSize: 0x24 }
  - { offset: 0x65106, size: 0x8, addend: 0x0, symName: __RINvNtCs85QQFkKrybG_4core3ptr13drop_in_placeINtNtNtNtB4_4iter8adapters3map3MapINtNtCscwCr4GBBztI_3syn10punctuated8IntoIterNtNtB1j_8generics12GenericParamENCNvMs5_Cs4oBEgEuuqV9_15zerocopy_deriveINtB2A_16ImplBlockBuilderNtNtB1j_6derive10DataStructE5builds2_0EEB2A_, symObjAddr: 0x2524, symBinAddr: 0x32460, symSize: 0x24 }
  - { offset: 0x65135, size: 0x8, addend: 0x0, symName: __RINvNtCs85QQFkKrybG_4core3ptr13drop_in_placeINtNtNtNtB4_4iter8adapters3map3MapINtNtCscwCr4GBBztI_3syn10punctuated8IntoIterNtNtB1j_8generics12GenericParamENCNvMs5_Cs4oBEgEuuqV9_15zerocopy_deriveINtB2A_16ImplBlockBuilderNtNtB1j_6derive4DataE5builds2_0EEB2A_, symObjAddr: 0x2548, symBinAddr: 0x32484, symSize: 0x24 }
  - { offset: 0x65164, size: 0x8, addend: 0x0, symName: __RINvNtCs85QQFkKrybG_4core3ptr13drop_in_placeINtNtNtNtB4_4iter8adapters3map3MapINtNtCscwCr4GBBztI_3syn10punctuated8IntoIterNtNtB1j_8generics12GenericParamENCNvMs5_Cs4oBEgEuuqV9_15zerocopy_deriveINtB2A_16ImplBlockBuilderNtNtB1j_6derive8DataEnumE5builds2_0EEB2A_, symObjAddr: 0x256C, symBinAddr: 0x324A8, symSize: 0x24 }
  - { offset: 0x65193, size: 0x8, addend: 0x0, symName: __RINvNtCs85QQFkKrybG_4core3ptr13drop_in_placeINtNtNtNtB4_4iter8adapters3map3MapINtNtCscwCr4GBBztI_3syn10punctuated8IntoIterNtNtB1j_8generics12GenericParamENCNvMs5_Cs4oBEgEuuqV9_15zerocopy_deriveINtB2A_16ImplBlockBuilderNtNtB1j_6derive9DataUnionE5builds2_0EEB2A_, symObjAddr: 0x2590, symBinAddr: 0x324CC, symSize: 0x24 }
  - { offset: 0x651C2, size: 0x8, addend: 0x0, symName: __RINvNtCs85QQFkKrybG_4core3ptr13drop_in_placeINtNtNtNtB4_4iter8adapters3map3MapINtNtNtB4_5array4iter8IntoIterNtCsfwj6t2KTYdc_11proc_macro211TokenStreamKj2_ENCINvXs7_B1K_B1I_INtNtNtBN_6traits7collect12FromIteratorB1I_E9from_iterB1e_E0EECs4oBEgEuuqV9_15zerocopy_derive, symObjAddr: 0x25B4, symBinAddr: 0x324F0, symSize: 0x24 }
  - { offset: 0x651F1, size: 0x8, addend: 0x0, symName: __RINvNtCs85QQFkKrybG_4core3ptr13drop_in_placeINtNtNtNtB4_4iter8adapters4fuse4FuseINtNtB4_6option8IntoIterINtNtCscwCr4GBBztI_3syn10punctuated4IterNtNtB1J_8generics14WherePredicateEEEECs4oBEgEuuqV9_15zerocopy_derive, symObjAddr: 0x25D8, symBinAddr: 0x32514, symSize: 0x24 }
  - { offset: 0x65220, size: 0x8, addend: 0x0, symName: __RINvNtCs85QQFkKrybG_4core3ptr13drop_in_placeINtNtNtNtB4_4iter8adapters4fuse4FuseINtNtBL_3map3MapIB1h_INtNtNtB4_5array4iter8IntoIterNtCsfwj6t2KTYdc_11proc_macro211TokenStreamKj2_ENCINvXs7_B27_B25_INtNtNtBN_6traits7collect12FromIteratorB25_E9from_iterB1B_E0ENCINvXs6_NtB27_3impNtB4f_11TokenStreamIB38_B4p_E9from_iterB1w_Es_0EEECs4oBEgEuuqV9_15zerocopy_derive, symObjAddr: 0x25FC, symBinAddr: 0x32538, symSize: 0x24 }
  - { offset: 0x6524F, size: 0x8, addend: 0x0, symName: __RINvNtCs85QQFkKrybG_4core3ptr13drop_in_placeINtNtNtNtB4_4iter8adapters4fuse4FuseINtNtBL_3map3MapINtNtCscwCr4GBBztI_3syn10punctuated4IterNtNtB1B_4data7VariantENCNvXs0_NtCs4oBEgEuuqV9_15zerocopy_derive3extNtNtB1B_6derive8DataEnumNtB2E_7DataExt6fields0EEEB2G_, symObjAddr: 0x2620, symBinAddr: 0x3255C, symSize: 0x24 }
  - { offset: 0x6527E, size: 0x8, addend: 0x0, symName: __RINvNtCs85QQFkKrybG_4core3ptr13drop_in_placeINtNtNtNtB4_4iter8adapters5chain5ChainIBH_IBH_INtNtBL_7flatten7FlattenINtNtB4_6option8IntoIterINtNtCscwCr4GBBztI_3syn10punctuated4IterNtNtB2h_8generics14WherePredicateEEEINtNtNtB4_5slice4iter4IterB2Q_EEINtB1R_4IterB2Q_EEB3W_EECs4oBEgEuuqV9_15zerocopy_derive, symObjAddr: 0x2644, symBinAddr: 0x32580, symSize: 0x24 }
  - { offset: 0x652AD, size: 0x8, addend: 0x0, symName: __RINvNtCs85QQFkKrybG_4core3ptr13drop_in_placeINtNtNtNtB4_4iter8adapters5chain5ChainIBH_INtNtBL_7flatten7FlattenINtNtB4_6option8IntoIterINtNtCscwCr4GBBztI_3syn10punctuated4IterNtNtB2d_8generics14WherePredicateEEEINtNtNtB4_5slice4iter4IterB2M_EEINtB1N_4IterB2M_EEECs4oBEgEuuqV9_15zerocopy_derive, symObjAddr: 0x2668, symBinAddr: 0x325A4, symSize: 0x24 }
  - { offset: 0x652DC, size: 0x8, addend: 0x0, symName: __RINvNtCs85QQFkKrybG_4core3ptr13drop_in_placeINtNtNtNtB4_4iter8adapters5chain5ChainINtNtBL_7flatten7FlattenINtNtB4_6option8IntoIterINtNtCscwCr4GBBztI_3syn10punctuated4IterNtNtB29_8generics14WherePredicateEEEINtNtNtB4_5slice4iter4IterB2I_EEECs4oBEgEuuqV9_15zerocopy_derive, symObjAddr: 0x268C, symBinAddr: 0x325C8, symSize: 0x24 }
  - { offset: 0x6530B, size: 0x8, addend: 0x0, symName: __RINvNtCs85QQFkKrybG_4core3ptr13drop_in_placeINtNtNtNtB4_4iter8adapters7flatten13FlattenCompatINtNtB4_6option8IntoIterINtNtCscwCr4GBBztI_3syn10punctuated4IterNtNtB1W_8generics14WherePredicateEEB1R_EECs4oBEgEuuqV9_15zerocopy_derive, symObjAddr: 0x26B0, symBinAddr: 0x325EC, symSize: 0x90 }
  - { offset: 0x6533A, size: 0x8, addend: 0x0, symName: __RINvNtCs85QQFkKrybG_4core3ptr13drop_in_placeINtNtNtNtB4_4iter8adapters7flatten13FlattenCompatINtNtBL_3map3MapIB1u_INtNtNtB4_5array4iter8IntoIterNtCsfwj6t2KTYdc_11proc_macro211TokenStreamKj2_ENCINvXs7_B2k_B2i_INtNtNtBN_6traits7collect12FromIteratorB2i_E9from_iterB1O_E0ENCINvXs6_NtB2k_3impNtB4s_11TokenStreamIB3l_B4C_E9from_iterB1J_Es_0EINtNtB2k_5rcvec13RcVecIntoIterNtB2k_9TokenTreeEEECs4oBEgEuuqV9_15zerocopy_derive, symObjAddr: 0x2740, symBinAddr: 0x3267C, symSize: 0x90 }
  - { offset: 0x65369, size: 0x8, addend: 0x0, symName: __RINvNtCs85QQFkKrybG_4core3ptr13drop_in_placeINtNtNtNtB4_4iter8adapters7flatten13FlattenCompatINtNtBL_3map3MapINtNtCscwCr4GBBztI_3syn10punctuated4IterNtNtB1O_4data7VariantENCNvXs0_NtCs4oBEgEuuqV9_15zerocopy_derive3extNtNtB1O_6derive8DataEnumNtB2R_7DataExt6fields0EIB1K_NtB2p_5FieldEEEB2T_, symObjAddr: 0x27D0, symBinAddr: 0x3270C, symSize: 0x90 }
  - { offset: 0x65398, size: 0x8, addend: 0x0, symName: __RINvNtCs85QQFkKrybG_4core3ptr13drop_in_placeINtNtNtNtB4_4iter8adapters7flatten7FlatMapINtNtCscwCr4GBBztI_3syn10punctuated4IterNtNtB1r_4data7VariantERNtB22_6FieldsNCNvXs0_NtCs4oBEgEuuqV9_15zerocopy_derive3extNtNtB1r_6derive8DataEnumNtB2I_7DataExt6fields0EEB2K_, symObjAddr: 0x2860, symBinAddr: 0x3279C, symSize: 0x24 }
  - { offset: 0x653C7, size: 0x8, addend: 0x0, symName: __RINvNtCs85QQFkKrybG_4core3ptr13drop_in_placeINtNtNtNtB4_4iter8adapters7flatten7FlattenINtNtB4_6option8IntoIterINtNtCscwCr4GBBztI_3syn10punctuated4IterNtNtB1P_8generics14WherePredicateEEEECs4oBEgEuuqV9_15zerocopy_derive, symObjAddr: 0x2884, symBinAddr: 0x327C0, symSize: 0x24 }
  - { offset: 0x653F6, size: 0x8, addend: 0x0, symName: __RINvNtCs85QQFkKrybG_4core3ptr13drop_in_placeINtNtNtNtB4_4iter8adapters7flatten7FlattenINtNtBL_3map3MapIB1n_INtNtNtB4_5array4iter8IntoIterNtCsfwj6t2KTYdc_11proc_macro211TokenStreamKj2_ENCINvXs7_B2d_B2b_INtNtNtBN_6traits7collect12FromIteratorB2b_E9from_iterB1H_E0ENCINvXs6_NtB2d_3impNtB4l_11TokenStreamIB3e_B4v_E9from_iterB1C_Es_0EEECs4oBEgEuuqV9_15zerocopy_derive, symObjAddr: 0x28A8, symBinAddr: 0x327E4, symSize: 0x24 }
  - { offset: 0x65425, size: 0x8, addend: 0x0, symName: __RINvNtCs85QQFkKrybG_4core3ptr13drop_in_placeINtNtNtNtB4_4iter8adapters9enumerate9EnumerateINtNtBL_7flatten7FlatMapINtNtCscwCr4GBBztI_3syn10punctuated4IterNtNtB1T_4data7VariantERNtB2u_6FieldsNCNvXs0_NtCs4oBEgEuuqV9_15zerocopy_derive3extNtNtB1T_6derive8DataEnumNtB3a_7DataExt6fields0EEEB3c_, symObjAddr: 0x28CC, symBinAddr: 0x32808, symSize: 0x24 }
  - { offset: 0x65454, size: 0x8, addend: 0x0, symName: __RINvNtCs85QQFkKrybG_4core3ptr13drop_in_placeINtNtNtNtB4_4iter8adapters9enumerate9EnumerateINtNtCscwCr4GBBztI_3syn10punctuated4IterNtNtB1v_4data5FieldEEECs4oBEgEuuqV9_15zerocopy_derive, symObjAddr: 0x28F0, symBinAddr: 0x3282C, symSize: 0x24 }
  - { offset: 0x65483, size: 0x8, addend: 0x0, symName: __RINvNtCs85QQFkKrybG_4core3ptr13drop_in_placeINtNtNtNtB4_4iter8adapters9enumerate9EnumerateINtNtCscwCr4GBBztI_3syn10punctuated4IterNtNtB1v_4data7VariantEEECs4oBEgEuuqV9_15zerocopy_derive, symObjAddr: 0x2914, symBinAddr: 0x32850, symSize: 0x24 }
  - { offset: 0x654B2, size: 0x8, addend: 0x0, symName: __RINvNtCs85QQFkKrybG_4core3ptr13drop_in_placeINtNtNtNtB4_5array4iter10iter_inner15PolymorphicIterAINtNtNtB4_3mem12maybe_uninit11MaybeUninitNtCsfwj6t2KTYdc_11proc_macro211TokenStreamEj2_EECs4oBEgEuuqV9_15zerocopy_derive, symObjAddr: 0x2938, symBinAddr: 0x32874, symSize: 0x24 }
  - { offset: 0x654E1, size: 0x8, addend: 0x0, symName: __RINvNtCs85QQFkKrybG_4core3ptr13drop_in_placeINtNvXsd_NtNtCsdFlNUEO95cG_5alloc3vec9into_iterINtBP_8IntoIterppENtNtNtB4_3ops4drop4Drop4drop9DropGuardNtNtCscwCr4GBBztI_3syn4attr4MetaNtNtBT_5alloc6GlobalEECs4oBEgEuuqV9_15zerocopy_derive, symObjAddr: 0x295C, symBinAddr: 0x32898, symSize: 0x24 }
  - { offset: 0x65510, size: 0x8, addend: 0x0, symName: __RINvNtCs85QQFkKrybG_4core3ptr13drop_in_placeINtNvXsd_NtNtCsdFlNUEO95cG_5alloc3vec9into_iterINtBP_8IntoIterppENtNtNtB4_3ops4drop4Drop4drop9DropGuardNtNtCscwCr4GBBztI_3syn8generics12GenericParamNtNtBT_5alloc6GlobalEECs4oBEgEuuqV9_15zerocopy_derive, symObjAddr: 0x2980, symBinAddr: 0x328BC, symSize: 0x24 }
  - { offset: 0x6553F, size: 0x8, addend: 0x0, symName: __RINvNtCs85QQFkKrybG_4core3ptr13drop_in_placeINtNvXsd_NtNtCsdFlNUEO95cG_5alloc3vec9into_iterINtBP_8IntoIterppENtNtNtB4_3ops4drop4Drop4drop9DropGuardTNtNtCscwCr4GBBztI_3syn4attr4MetaNtNtB2q_5token5CommaENtNtBT_5alloc6GlobalEECs4oBEgEuuqV9_15zerocopy_derive, symObjAddr: 0x29A4, symBinAddr: 0x328E0, symSize: 0x24 }
  - { offset: 0x6556E, size: 0x8, addend: 0x0, symName: __RINvNtCs85QQFkKrybG_4core3ptr13drop_in_placeINtNvXsd_NtNtCsdFlNUEO95cG_5alloc3vec9into_iterINtBP_8IntoIterppENtNtNtB4_3ops4drop4Drop4drop9DropGuardTNtNtCscwCr4GBBztI_3syn8generics12GenericParamNtNtB2q_5token5CommaENtNtBT_5alloc6GlobalEECs4oBEgEuuqV9_15zerocopy_derive, symObjAddr: 0x29C8, symBinAddr: 0x32904, symSize: 0x24 }
  - { offset: 0x6559D, size: 0x8, addend: 0x0, symName: __RINvNtCs85QQFkKrybG_4core3ptr13drop_in_placeNCINvMsi_NtCsdFlNUEO95cG_5alloc3vecINtBP_3VecNtCsfwj6t2KTYdc_11proc_macro25IdentE14extend_trustedINtNtNtNtB4_4iter8adapters3map3MapINtNtNtB4_5slice4iter4IterTRNtNtCscwCr4GBBztI_3syn11restriction10VisibilityNtB1r_11TokenStreamRNtNtB3j_2ty4TypeEENCNvCs4oBEgEuuqV9_15zerocopy_derive25derive_known_layout_inners5_0EE0EB4G_, symObjAddr: 0x29EC, symBinAddr: 0x32928, symSize: 0x24 }
  - { offset: 0x655CC, size: 0x8, addend: 0x0, symName: __RINvNtCs85QQFkKrybG_4core3ptr13drop_in_placeNCINvMsi_NtCsdFlNUEO95cG_5alloc3vecINtBP_3VecNtNtCscwCr4GBBztI_3syn8generics14WherePredicateE14extend_trustedINtNtNtNtB4_4iter8adapters3map3MapINtNtNtB4_5slice4iter4IterTRNtNtB1t_11restriction10VisibilityNtCsfwj6t2KTYdc_11proc_macro211TokenStreamRNtNtB1t_2ty4TypeEENCNvMs5_Cs4oBEgEuuqV9_15zerocopy_deriveINtB55_16ImplBlockBuilderNtNtB1t_6derive10DataStructE5build0EE0EB55_, symObjAddr: 0x2A10, symBinAddr: 0x3294C, symSize: 0x24 }
  - { offset: 0x655FB, size: 0x8, addend: 0x0, symName: __RINvNtCs85QQFkKrybG_4core3ptr13drop_in_placeNCINvMsi_NtCsdFlNUEO95cG_5alloc3vecINtBP_3VecNtNtCscwCr4GBBztI_3syn8generics14WherePredicateE14extend_trustedINtNtNtNtB4_4iter8adapters3map3MapINtNtNtB4_5slice4iter4IterTRNtNtB1t_11restriction10VisibilityNtCsfwj6t2KTYdc_11proc_macro211TokenStreamRNtNtB1t_2ty4TypeEENCNvMs5_Cs4oBEgEuuqV9_15zerocopy_deriveINtB55_16ImplBlockBuilderNtNtB1t_6derive4DataE5build0EE0EB55_, symObjAddr: 0x2A34, symBinAddr: 0x32970, symSize: 0x24 }
  - { offset: 0x6562A, size: 0x8, addend: 0x0, symName: __RINvNtCs85QQFkKrybG_4core3ptr13drop_in_placeNCINvMsi_NtCsdFlNUEO95cG_5alloc3vecINtBP_3VecNtNtCscwCr4GBBztI_3syn8generics14WherePredicateE14extend_trustedINtNtNtNtB4_4iter8adapters3map3MapINtNtNtB4_5slice4iter4IterTRNtNtB1t_11restriction10VisibilityNtCsfwj6t2KTYdc_11proc_macro211TokenStreamRNtNtB1t_2ty4TypeEENCNvMs5_Cs4oBEgEuuqV9_15zerocopy_deriveINtB55_16ImplBlockBuilderNtNtB1t_6derive8DataEnumE5build0EE0EB55_, symObjAddr: 0x2A58, symBinAddr: 0x32994, symSize: 0x24 }
  - { offset: 0x65659, size: 0x8, addend: 0x0, symName: __RINvNtCs85QQFkKrybG_4core3ptr13drop_in_placeNCINvMsi_NtCsdFlNUEO95cG_5alloc3vecINtBP_3VecNtNtCscwCr4GBBztI_3syn8generics14WherePredicateE14extend_trustedINtNtNtNtB4_4iter8adapters3map3MapINtNtNtB4_5slice4iter4IterTRNtNtB1t_11restriction10VisibilityNtCsfwj6t2KTYdc_11proc_macro211TokenStreamRNtNtB1t_2ty4TypeEENCNvMs5_Cs4oBEgEuuqV9_15zerocopy_deriveINtB55_16ImplBlockBuilderNtNtB1t_6derive9DataUnionE5build0EE0EB55_, symObjAddr: 0x2A7C, symBinAddr: 0x329B8, symSize: 0x24 }
  - { offset: 0x65688, size: 0x8, addend: 0x0, symName: __RINvNtCs85QQFkKrybG_4core3ptr13drop_in_placeNCINvNtNtNtB4_4iter8adapters3map8map_foldRTRNtNtCscwCr4GBBztI_3syn11restriction10VisibilityNtCsfwj6t2KTYdc_11proc_macro211TokenStreamRNtNtB1s_2ty4TypeENtB2b_5IdentuNCNvCs4oBEgEuuqV9_15zerocopy_derive25derive_known_layout_inners5_0NCINvNvNtNtNtBP_6traits8iterator8Iterator8for_each4callB37_NCINvMsi_NtCsdFlNUEO95cG_5alloc3vecINtB5u_3VecB37_E14extend_trustedINtBL_3MapINtNtNtB4_5slice4iter4IterB1m_EB3k_EE0E0E0EB3o_, symObjAddr: 0x2AA0, symBinAddr: 0x329DC, symSize: 0x24 }
  - { offset: 0x656B7, size: 0x8, addend: 0x0, symName: __RINvNtCs85QQFkKrybG_4core3ptr13drop_in_placeNCINvNtNtNtB4_4iter8adapters3map8map_foldRTRNtNtCscwCr4GBBztI_3syn11restriction10VisibilityNtCsfwj6t2KTYdc_11proc_macro211TokenStreamRNtNtB1s_2ty4TypeENtNtB1s_8generics14WherePredicateuNCNvMs5_Cs4oBEgEuuqV9_15zerocopy_deriveINtB3N_16ImplBlockBuilderNtNtB1s_6derive10DataStructE5build0NCINvNvNtNtNtBP_6traits8iterator8Iterator8for_each4callB37_NCINvMsi_NtCsdFlNUEO95cG_5alloc3vecINtB6m_3VecB37_E14extend_trustedINtBL_3MapINtNtNtB4_5slice4iter4IterB1m_EB3F_EE0E0E0EB3N_, symObjAddr: 0x2AC4, symBinAddr: 0x32A00, symSize: 0x24 }
  - { offset: 0x656E6, size: 0x8, addend: 0x0, symName: __RINvNtCs85QQFkKrybG_4core3ptr13drop_in_placeNCINvNtNtNtB4_4iter8adapters3map8map_foldRTRNtNtCscwCr4GBBztI_3syn11restriction10VisibilityNtCsfwj6t2KTYdc_11proc_macro211TokenStreamRNtNtB1s_2ty4TypeENtNtB1s_8generics14WherePredicateuNCNvMs5_Cs4oBEgEuuqV9_15zerocopy_deriveINtB3N_16ImplBlockBuilderNtNtB1s_6derive4DataE5build0NCINvNvNtNtNtBP_6traits8iterator8Iterator8for_each4callB37_NCINvMsi_NtCsdFlNUEO95cG_5alloc3vecINtB6f_3VecB37_E14extend_trustedINtBL_3MapINtNtNtB4_5slice4iter4IterB1m_EB3F_EE0E0E0EB3N_, symObjAddr: 0x2AE8, symBinAddr: 0x32A24, symSize: 0x24 }
  - { offset: 0x65715, size: 0x8, addend: 0x0, symName: __RINvNtCs85QQFkKrybG_4core3ptr13drop_in_placeNCINvNtNtNtB4_4iter8adapters3map8map_foldRTRNtNtCscwCr4GBBztI_3syn11restriction10VisibilityNtCsfwj6t2KTYdc_11proc_macro211TokenStreamRNtNtB1s_2ty4TypeENtNtB1s_8generics14WherePredicateuNCNvMs5_Cs4oBEgEuuqV9_15zerocopy_deriveINtB3N_16ImplBlockBuilderNtNtB1s_6derive8DataEnumE5build0NCINvNvNtNtNtBP_6traits8iterator8Iterator8for_each4callB37_NCINvMsi_NtCsdFlNUEO95cG_5alloc3vecINtB6j_3VecB37_E14extend_trustedINtBL_3MapINtNtNtB4_5slice4iter4IterB1m_EB3F_EE0E0E0EB3N_, symObjAddr: 0x2B0C, symBinAddr: 0x32A48, symSize: 0x24 }
  - { offset: 0x65744, size: 0x8, addend: 0x0, symName: __RINvNtCs85QQFkKrybG_4core3ptr13drop_in_placeNCINvNtNtNtB4_4iter8adapters3map8map_foldRTRNtNtCscwCr4GBBztI_3syn11restriction10VisibilityNtCsfwj6t2KTYdc_11proc_macro211TokenStreamRNtNtB1s_2ty4TypeENtNtB1s_8generics14WherePredicateuNCNvMs5_Cs4oBEgEuuqV9_15zerocopy_deriveINtB3N_16ImplBlockBuilderNtNtB1s_6derive9DataUnionE5build0NCINvNvNtNtNtBP_6traits8iterator8Iterator8for_each4callB37_NCINvMsi_NtCsdFlNUEO95cG_5alloc3vecINtB6k_3VecB37_E14extend_trustedINtBL_3MapINtNtNtB4_5slice4iter4IterB1m_EB3F_EE0E0E0EB3N_, symObjAddr: 0x2B30, symBinAddr: 0x32A6C, symSize: 0x24 }
  - { offset: 0x65773, size: 0x8, addend: 0x0, symName: __RINvNtCs85QQFkKrybG_4core3ptr13drop_in_placeNCINvNvNtNtNtNtB4_4iter6traits8iterator8Iterator8for_each4callNtCsfwj6t2KTYdc_11proc_macro25IdentNCINvMsi_NtCsdFlNUEO95cG_5alloc3vecINtB2o_3VecB1G_E14extend_trustedINtNtNtBT_8adapters3map3MapINtNtNtB4_5slice4iter4IterTRNtNtCscwCr4GBBztI_3syn11restriction10VisibilityNtB1I_11TokenStreamRNtNtB4h_2ty4TypeEENCNvCs4oBEgEuuqV9_15zerocopy_derive25derive_known_layout_inners5_0EE0E0EB5E_, symObjAddr: 0x2B54, symBinAddr: 0x32A90, symSize: 0x24 }
  - { offset: 0x657A2, size: 0x8, addend: 0x0, symName: __RINvNtCs85QQFkKrybG_4core3ptr13drop_in_placeNCINvNvNtNtNtNtB4_4iter6traits8iterator8Iterator8for_each4callNtNtCscwCr4GBBztI_3syn8generics14WherePredicateNCINvMsi_NtCsdFlNUEO95cG_5alloc3vecINtB2A_3VecB1G_E14extend_trustedINtNtNtBT_8adapters3map3MapINtNtNtB4_5slice4iter4IterTRNtNtB1K_11restriction10VisibilityNtCsfwj6t2KTYdc_11proc_macro211TokenStreamRNtNtB1K_2ty4TypeEENCNvMs5_Cs4oBEgEuuqV9_15zerocopy_deriveINtB63_16ImplBlockBuilderNtNtB1K_6derive10DataStructE5build0EE0E0EB63_, symObjAddr: 0x2B78, symBinAddr: 0x32AB4, symSize: 0x24 }
  - { offset: 0x657D1, size: 0x8, addend: 0x0, symName: __RINvNtCs85QQFkKrybG_4core3ptr13drop_in_placeNCINvNvNtNtNtNtB4_4iter6traits8iterator8Iterator8for_each4callNtNtCscwCr4GBBztI_3syn8generics14WherePredicateNCINvMsi_NtCsdFlNUEO95cG_5alloc3vecINtB2A_3VecB1G_E14extend_trustedINtNtNtBT_8adapters3map3MapINtNtNtB4_5slice4iter4IterTRNtNtB1K_11restriction10VisibilityNtCsfwj6t2KTYdc_11proc_macro211TokenStreamRNtNtB1K_2ty4TypeEENCNvMs5_Cs4oBEgEuuqV9_15zerocopy_deriveINtB63_16ImplBlockBuilderNtNtB1K_6derive4DataE5build0EE0E0EB63_, symObjAddr: 0x2B9C, symBinAddr: 0x32AD8, symSize: 0x24 }
  - { offset: 0x65800, size: 0x8, addend: 0x0, symName: __RINvNtCs85QQFkKrybG_4core3ptr13drop_in_placeNCINvNvNtNtNtNtB4_4iter6traits8iterator8Iterator8for_each4callNtNtCscwCr4GBBztI_3syn8generics14WherePredicateNCINvMsi_NtCsdFlNUEO95cG_5alloc3vecINtB2A_3VecB1G_E14extend_trustedINtNtNtBT_8adapters3map3MapINtNtNtB4_5slice4iter4IterTRNtNtB1K_11restriction10VisibilityNtCsfwj6t2KTYdc_11proc_macro211TokenStreamRNtNtB1K_2ty4TypeEENCNvMs5_Cs4oBEgEuuqV9_15zerocopy_deriveINtB63_16ImplBlockBuilderNtNtB1K_6derive8DataEnumE5build0EE0E0EB63_, symObjAddr: 0x2BC0, symBinAddr: 0x32AFC, symSize: 0x24 }
  - { offset: 0x6582F, size: 0x8, addend: 0x0, symName: __RINvNtCs85QQFkKrybG_4core3ptr13drop_in_placeNCINvNvNtNtNtNtB4_4iter6traits8iterator8Iterator8for_each4callNtNtCscwCr4GBBztI_3syn8generics14WherePredicateNCINvMsi_NtCsdFlNUEO95cG_5alloc3vecINtB2A_3VecB1G_E14extend_trustedINtNtNtBT_8adapters3map3MapINtNtNtB4_5slice4iter4IterTRNtNtB1K_11restriction10VisibilityNtCsfwj6t2KTYdc_11proc_macro211TokenStreamRNtNtB1K_2ty4TypeEENCNvMs5_Cs4oBEgEuuqV9_15zerocopy_deriveINtB63_16ImplBlockBuilderNtNtB1K_6derive9DataUnionE5build0EE0E0EB63_, symObjAddr: 0x2BE4, symBinAddr: 0x32B20, symSize: 0x24 }
  - { offset: 0x6585E, size: 0x8, addend: 0x0, symName: __RINvNtCs85QQFkKrybG_4core3ptr13drop_in_placeNCNCINvNtNtCs9bTl5rSDVcL_10proc_macro6bridge6client10run_clientNtBN_11TokenStreamINtNtB4_6option6OptionB1H_ENCNCINvMs6_BN_INtBN_6ClientNtBR_11TokenStreamB2R_E7expand1NvCs4oBEgEuuqV9_15zerocopy_derive11derive_hashE00E00EB3o_, symObjAddr: 0x2C08, symBinAddr: 0x32B44, symSize: 0x24 }
  - { offset: 0x6588D, size: 0x8, addend: 0x0, symName: __RINvNtCs85QQFkKrybG_4core3ptr13drop_in_placeNCNCINvNtNtCs9bTl5rSDVcL_10proc_macro6bridge6client10run_clientNtBN_11TokenStreamINtNtB4_6option6OptionB1H_ENCNCINvMs6_BN_INtBN_6ClientNtBR_11TokenStreamB2R_E7expand1NvCs4oBEgEuuqV9_15zerocopy_derive14derive_no_cellE00E00EB3o_, symObjAddr: 0x2C2C, symBinAddr: 0x32B68, symSize: 0x24 }
  - { offset: 0x658BC, size: 0x8, addend: 0x0, symName: __RINvNtCs85QQFkKrybG_4core3ptr13drop_in_placeNCNCINvNtNtCs9bTl5rSDVcL_10proc_macro6bridge6client10run_clientNtBN_11TokenStreamINtNtB4_6option6OptionB1H_ENCNCINvMs6_BN_INtBN_6ClientNtBR_11TokenStreamB2R_E7expand1NvCs4oBEgEuuqV9_15zerocopy_derive15derive_as_bytesE00E00EB3o_, symObjAddr: 0x2C50, symBinAddr: 0x32B8C, symSize: 0x24 }
  - { offset: 0x658EB, size: 0x8, addend: 0x0, symName: __RINvNtCs85QQFkKrybG_4core3ptr13drop_in_placeNCNCINvNtNtCs9bTl5rSDVcL_10proc_macro6bridge6client10run_clientNtBN_11TokenStreamINtNtB4_6option6OptionB1H_ENCNCINvMs6_BN_INtBN_6ClientNtBR_11TokenStreamB2R_E7expand1NvCs4oBEgEuuqV9_15zerocopy_derive15derive_split_atE00E00EB3o_, symObjAddr: 0x2C74, symBinAddr: 0x32BB0, symSize: 0x24 }
  - { offset: 0x6591A, size: 0x8, addend: 0x0, symName: __RINvNtCs85QQFkKrybG_4core3ptr13drop_in_placeNCNCINvNtNtCs9bTl5rSDVcL_10proc_macro6bridge6client10run_clientNtBN_11TokenStreamINtNtB4_6option6OptionB1H_ENCNCINvMs6_BN_INtBN_6ClientNtBR_11TokenStreamB2R_E7expand1NvCs4oBEgEuuqV9_15zerocopy_derive16derive_unalignedE00E00EB3o_, symObjAddr: 0x2C98, symBinAddr: 0x32BD4, symSize: 0x24 }
  - { offset: 0x65949, size: 0x8, addend: 0x0, symName: __RINvNtCs85QQFkKrybG_4core3ptr13drop_in_placeNCNCINvNtNtCs9bTl5rSDVcL_10proc_macro6bridge6client10run_clientNtBN_11TokenStreamINtNtB4_6option6OptionB1H_ENCNCINvMs6_BN_INtBN_6ClientNtBR_11TokenStreamB2R_E7expand1NvCs4oBEgEuuqV9_15zerocopy_derive17derive_from_bytesE00E00EB3o_, symObjAddr: 0x2CBC, symBinAddr: 0x32BF8, symSize: 0x24 }
  - { offset: 0x65978, size: 0x8, addend: 0x0, symName: __RINvNtCs85QQFkKrybG_4core3ptr13drop_in_placeNCNCINvNtNtCs9bTl5rSDVcL_10proc_macro6bridge6client10run_clientNtBN_11TokenStreamINtNtB4_6option6OptionB1H_ENCNCINvMs6_BN_INtBN_6ClientNtBR_11TokenStreamB2R_E7expand1NvCs4oBEgEuuqV9_15zerocopy_derive17derive_from_zerosE00E00EB3o_, symObjAddr: 0x2CE0, symBinAddr: 0x32C1C, symSize: 0x24 }
  - { offset: 0x659A7, size: 0x8, addend: 0x0, symName: __RINvNtCs85QQFkKrybG_4core3ptr13drop_in_placeNCNCINvNtNtCs9bTl5rSDVcL_10proc_macro6bridge6client10run_clientNtBN_11TokenStreamINtNtB4_6option6OptionB1H_ENCNCINvMs6_BN_INtBN_6ClientNtBR_11TokenStreamB2R_E7expand1NvCs4oBEgEuuqV9_15zerocopy_derive17derive_into_bytesE00E00EB3o_, symObjAddr: 0x2D04, symBinAddr: 0x32C40, symSize: 0x24 }
  - { offset: 0x659D6, size: 0x8, addend: 0x0, symName: __RINvNtCs85QQFkKrybG_4core3ptr13drop_in_placeNCNCINvNtNtCs9bTl5rSDVcL_10proc_macro6bridge6client10run_clientNtBN_11TokenStreamINtNtB4_6option6OptionB1H_ENCNCINvMs6_BN_INtBN_6ClientNtBR_11TokenStreamB2R_E7expand1NvCs4oBEgEuuqV9_15zerocopy_derive18derive_from_zeroesE00E00EB3o_, symObjAddr: 0x2D28, symBinAddr: 0x32C64, symSize: 0x24 }
  - { offset: 0x65A05, size: 0x8, addend: 0x0, symName: __RINvNtCs85QQFkKrybG_4core3ptr13drop_in_placeNCNCINvNtNtCs9bTl5rSDVcL_10proc_macro6bridge6client10run_clientNtBN_11TokenStreamINtNtB4_6option6OptionB1H_ENCNCINvMs6_BN_INtBN_6ClientNtBR_11TokenStreamB2R_E7expand1NvCs4oBEgEuuqV9_15zerocopy_derive19derive_known_layoutE00E00EB3o_, symObjAddr: 0x2D4C, symBinAddr: 0x32C88, symSize: 0x24 }
  - { offset: 0x65A34, size: 0x8, addend: 0x0, symName: __RINvNtCs85QQFkKrybG_4core3ptr13drop_in_placeNCNCINvNtNtCs9bTl5rSDVcL_10proc_macro6bridge6client10run_clientNtBN_11TokenStreamINtNtB4_6option6OptionB1H_ENCNCINvMs6_BN_INtBN_6ClientNtBR_11TokenStreamB2R_E7expand1NvCs4oBEgEuuqV9_15zerocopy_derive21derive_try_from_bytesE00E00EB3o_, symObjAddr: 0x2D70, symBinAddr: 0x32CAC, symSize: 0x24 }
  - { offset: 0x65A63, size: 0x8, addend: 0x0, symName: __RINvNtCs85QQFkKrybG_4core3ptr13drop_in_placeNCNCINvNtNtCs9bTl5rSDVcL_10proc_macro6bridge6client10run_clientNtBN_11TokenStreamINtNtB4_6option6OptionB1H_ENCNCINvMs6_BN_INtBN_6ClientNtBR_11TokenStreamB2R_E7expand1NvCs4oBEgEuuqV9_15zerocopy_derive9derive_eqE00E00EB3o_, symObjAddr: 0x2D94, symBinAddr: 0x32CD0, symSize: 0x24 }
  - { offset: 0x65A92, size: 0x8, addend: 0x0, symName: __RINvNtCs85QQFkKrybG_4core3ptr13drop_in_placeNtCs4oBEgEuuqV9_15zerocopy_derive11FieldBoundsEBI_, symObjAddr: 0x2DB8, symBinAddr: 0x32CF4, symSize: 0x5C }
  - { offset: 0x65AC1, size: 0x8, addend: 0x0, symName: __RINvNtCs85QQFkKrybG_4core3ptr13drop_in_placeNtCs4oBEgEuuqV9_15zerocopy_derive12PaddingCheckEBI_, symObjAddr: 0x2E14, symBinAddr: 0x32D50, symSize: 0x5C }
  - { offset: 0x65AF0, size: 0x8, addend: 0x0, symName: __RINvNtCs85QQFkKrybG_4core3ptr13drop_in_placeNtNtCscwCr4GBBztI_3syn4meta15ParseNestedMetaECs4oBEgEuuqV9_15zerocopy_derive, symObjAddr: 0x2E70, symBinAddr: 0x32DAC, symSize: 0x24 }
  - { offset: 0x65B1F, size: 0x8, addend: 0x0, symName: __RINvNtCs85QQFkKrybG_4core3ptr13drop_in_placeNtNtCscwCr4GBBztI_3syn6derive10DataStructECs4oBEgEuuqV9_15zerocopy_derive, symObjAddr: 0x2E94, symBinAddr: 0x32DD0, symSize: 0x24 }
  - { offset: 0x65B4E, size: 0x8, addend: 0x0, symName: __RINvNtCs85QQFkKrybG_4core3ptr13drop_in_placeNtNtCscwCr4GBBztI_3syn6derive11DeriveInputECs4oBEgEuuqV9_15zerocopy_derive, symObjAddr: 0x2EB8, symBinAddr: 0x32DF4, symSize: 0xEC }
  - { offset: 0x65B7D, size: 0x8, addend: 0x0, symName: __RINvNtCs85QQFkKrybG_4core3ptr13drop_in_placeNtNtCscwCr4GBBztI_3syn6derive4DataECs4oBEgEuuqV9_15zerocopy_derive, symObjAddr: 0x2FA4, symBinAddr: 0x32EE0, symSize: 0x80 }
  - { offset: 0x65BAC, size: 0x8, addend: 0x0, symName: __RINvNtCs85QQFkKrybG_4core3ptr13drop_in_placeNtNtCscwCr4GBBztI_3syn6derive8DataEnumECs4oBEgEuuqV9_15zerocopy_derive, symObjAddr: 0x3024, symBinAddr: 0x32F60, symSize: 0x24 }
  - { offset: 0x65BDB, size: 0x8, addend: 0x0, symName: __RINvNtCs85QQFkKrybG_4core3ptr13drop_in_placeNtNtCscwCr4GBBztI_3syn6derive9DataUnionECs4oBEgEuuqV9_15zerocopy_derive, symObjAddr: 0x3048, symBinAddr: 0x32F84, symSize: 0x24 }
  - { offset: 0x65C0A, size: 0x8, addend: 0x0, symName: __RINvNtCs85QQFkKrybG_4core3ptr13drop_in_placeNtNtNtCs9bTl5rSDVcL_10proc_macro6bridge3rpc12PanicMessageECs4oBEgEuuqV9_15zerocopy_derive, symObjAddr: 0x306C, symBinAddr: 0x32FA8, symSize: 0x54 }
  - { offset: 0x65C39, size: 0x8, addend: 0x0, symName: __RINvNtCs85QQFkKrybG_4core3ptr13drop_in_placeNtNtNtCs9bTl5rSDVcL_10proc_macro6bridge6buffer6BufferECs4oBEgEuuqV9_15zerocopy_derive, symObjAddr: 0x30C0, symBinAddr: 0x32FFC, symSize: 0x24 }
  - { offset: 0x65C68, size: 0x8, addend: 0x0, symName: __RINvNtCs85QQFkKrybG_4core3ptr13drop_in_placeNtNtNtCs9bTl5rSDVcL_10proc_macro6bridge6client6BridgeECs4oBEgEuuqV9_15zerocopy_derive, symObjAddr: 0x30E4, symBinAddr: 0x33020, symSize: 0x24 }
  - { offset: 0x65C97, size: 0x8, addend: 0x0, symName: __RINvNtCs85QQFkKrybG_4core3ptr13drop_in_placeNtNtNtCswz7ZwgBZOU_3std2io5error5ErrorECs4oBEgEuuqV9_15zerocopy_derive, symObjAddr: 0x3108, symBinAddr: 0x33044, symSize: 0x24 }
  - { offset: 0x65CC6, size: 0x8, addend: 0x0, symName: __RINvNtCs85QQFkKrybG_4core3ptr13drop_in_placeNtNtNtCswz7ZwgBZOU_3std2io5error6CustomECs4oBEgEuuqV9_15zerocopy_derive, symObjAddr: 0x312C, symBinAddr: 0x33068, symSize: 0x24 }
  - { offset: 0x65CF5, size: 0x8, addend: 0x0, symName: __RINvNtCs85QQFkKrybG_4core3ptr13drop_in_placeNtNtNtNtCswz7ZwgBZOU_3std2io5error14repr_bitpacked4ReprECs4oBEgEuuqV9_15zerocopy_derive, symObjAddr: 0x3150, symBinAddr: 0x3308C, symSize: 0x24 }
  - { offset: 0x65D24, size: 0x8, addend: 0x0, symName: __RINvNtCs85QQFkKrybG_4core3ptr13drop_in_placeNtNvNtNtNtCs9bTl5rSDVcL_10proc_macro6bridge6client5state3set13RestoreOnDropECs4oBEgEuuqV9_15zerocopy_derive, symObjAddr: 0x3174, symBinAddr: 0x330B0, symSize: 0x24 }
  - { offset: 0x65D53, size: 0x8, addend: 0x0, symName: __RINvNtCs85QQFkKrybG_4core3ptr13drop_in_placeSINtNtCsdFlNUEO95cG_5alloc3vec3VecTRNtNtCscwCr4GBBztI_3syn11restriction10VisibilityNtCsfwj6t2KTYdc_11proc_macro211TokenStreamRNtNtB1k_2ty4TypeEEECs4oBEgEuuqV9_15zerocopy_derive, symObjAddr: 0x3198, symBinAddr: 0x330D4, symSize: 0xC4 }
  - { offset: 0x65D82, size: 0x8, addend: 0x0, symName: __RINvNtCs85QQFkKrybG_4core3ptr13drop_in_placeSNtCsfwj6t2KTYdc_11proc_macro211TokenStreamECs4oBEgEuuqV9_15zerocopy_derive, symObjAddr: 0x325C, symBinAddr: 0x33198, symSize: 0xB4 }
  - { offset: 0x65DB1, size: 0x8, addend: 0x0, symName: __RINvNtCs85QQFkKrybG_4core3ptr13drop_in_placeSNtCsfwj6t2KTYdc_11proc_macro25IdentECs4oBEgEuuqV9_15zerocopy_derive, symObjAddr: 0x3310, symBinAddr: 0x3324C, symSize: 0xC4 }
  - { offset: 0x65DE0, size: 0x8, addend: 0x0, symName: __RINvNtCs85QQFkKrybG_4core3ptr13drop_in_placeSNtNtCscwCr4GBBztI_3syn4attr4MetaECs4oBEgEuuqV9_15zerocopy_derive, symObjAddr: 0x33D4, symBinAddr: 0x33310, symSize: 0xC4 }
  - { offset: 0x65E0F, size: 0x8, addend: 0x0, symName: __RINvNtCs85QQFkKrybG_4core3ptr13drop_in_placeSNtNtCscwCr4GBBztI_3syn8generics12GenericParamECs4oBEgEuuqV9_15zerocopy_derive, symObjAddr: 0x3498, symBinAddr: 0x333D4, symSize: 0xC4 }
  - { offset: 0x65E3E, size: 0x8, addend: 0x0, symName: __RINvNtCs85QQFkKrybG_4core3ptr13drop_in_placeSNtNtCscwCr4GBBztI_3syn8generics14WherePredicateECs4oBEgEuuqV9_15zerocopy_derive, symObjAddr: 0x355C, symBinAddr: 0x33498, symSize: 0xC4 }
  - { offset: 0x65E6D, size: 0x8, addend: 0x0, symName: __RINvNtCs85QQFkKrybG_4core3ptr13drop_in_placeSTNtNtCscwCr4GBBztI_3syn4attr4MetaNtNtBM_5token5CommaEECs4oBEgEuuqV9_15zerocopy_derive, symObjAddr: 0x3620, symBinAddr: 0x3355C, symSize: 0xC4 }
  - { offset: 0x65E9C, size: 0x8, addend: 0x0, symName: __RINvNtCs85QQFkKrybG_4core3ptr13drop_in_placeSTRNtNtCscwCr4GBBztI_3syn11restriction10VisibilityNtCsfwj6t2KTYdc_11proc_macro211TokenStreamRNtNtBN_2ty4TypeEECs4oBEgEuuqV9_15zerocopy_derive, symObjAddr: 0x36E4, symBinAddr: 0x33620, symSize: 0xC4 }
  - { offset: 0x65ECB, size: 0x8, addend: 0x0, symName: __RINvNtCs85QQFkKrybG_4core3ptr13drop_in_placeTNtNtCscwCr4GBBztI_3syn4attr4MetaNtNtBL_5token5CommaEECs4oBEgEuuqV9_15zerocopy_derive, symObjAddr: 0x37A8, symBinAddr: 0x336E4, symSize: 0x24 }
  - { offset: 0x65EFA, size: 0x8, addend: 0x0, symName: __RINvNtCs85QQFkKrybG_4core3ptr13drop_in_placeTRNtNtCscwCr4GBBztI_3syn11restriction10VisibilityNtCsfwj6t2KTYdc_11proc_macro211TokenStreamRNtNtBM_2ty4TypeEECs4oBEgEuuqV9_15zerocopy_derive, symObjAddr: 0x37CC, symBinAddr: 0x33708, symSize: 0x24 }
  - { offset: 0x68192, size: 0x8, addend: 0x0, symName: __RNvXsq_NtCs85QQFkKrybG_4core6resultINtB5_6ResultINtNtB7_6option6OptionINtNtNtCs4oBEgEuuqV9_15zerocopy_derive4repr4util7SpannedINtB1b_12CompoundReprNtB1b_13PrimitiveReprEEEIB17_INtB1b_17FromRawReprsErrorNtB1b_20UnsupportedReprErrorEEEINtNtNtB7_3ops9try_trait12FromResidualIBy_NtNtB7_7convert10InfallibleB2J_EE13from_residualB1d_, symObjAddr: 0x73C8, symBinAddr: 0x37304, symSize: 0x38 }
  - { offset: 0x681F9, size: 0x8, addend: 0x0, symName: __RNvXsq_NtCs85QQFkKrybG_4core6resultINtB5_6ResultINtNtB7_6option6OptionINtNtNtCs4oBEgEuuqV9_15zerocopy_derive4repr4util7SpannedINtB1b_12CompoundReprNtNtB7_7convert10InfallibleEEEIB17_INtB1b_17FromRawReprsErrorNtB1b_20UnsupportedReprErrorEEEINtNtNtB7_3ops9try_trait12FromResidualIBy_B2l_B2P_EE13from_residualB1d_, symObjAddr: 0x7400, symBinAddr: 0x3733C, symSize: 0x38 }
  - { offset: 0x68260, size: 0x8, addend: 0x0, symName: __RNvXsq_NtCs85QQFkKrybG_4core6resultINtB5_6ResultINtNtB7_6option6OptionINtNtNtCs4oBEgEuuqV9_15zerocopy_derive4repr4util7SpannedINtB1b_9AlignReprINtNtNtB7_3num7nonzero7NonZeromEEEEIB17_INtB1b_17FromRawReprsErrorNtB1b_20UnsupportedReprErrorEEEINtNtNtB7_3ops9try_trait12FromResidualIBy_NtNtB7_7convert10InfallibleB2Q_EE13from_residualB1d_, symObjAddr: 0x7438, symBinAddr: 0x37374, symSize: 0x38 }
  - { offset: 0x682C7, size: 0x8, addend: 0x0, symName: __RNvXsq_NtCs85QQFkKrybG_4core6resultINtB5_6ResultINtNtB7_6option6OptionINtNtNtCs4oBEgEuuqV9_15zerocopy_derive4repr4util7SpannedINtB1b_9AlignReprNtNtB7_7convert10InfallibleEEEIB17_INtB1b_17FromRawReprsErrorNtB1b_20UnsupportedReprErrorEEEINtNtNtB7_3ops9try_trait12FromResidualIBy_B2h_B2L_EE13from_residualB1d_, symObjAddr: 0x7470, symBinAddr: 0x373AC, symSize: 0x38 }
  - { offset: 0x6832E, size: 0x8, addend: 0x0, symName: __RNvXsq_NtCs85QQFkKrybG_4core6resultINtB5_6ResultINtNtCs4oBEgEuuqV9_15zerocopy_derive4repr4ReprNtBN_13PrimitiveReprNtNtB7_7convert10InfallibleEINtNtBN_4util7SpannedNtBN_14FromAttrsErrorEEINtNtNtB7_3ops9try_trait12FromResidualIBy_B1O_B2g_EE13from_residualBP_, symObjAddr: 0x74A8, symBinAddr: 0x373E4, symSize: 0x38 }
  - { offset: 0x68395, size: 0x8, addend: 0x0, symName: __RNvXsq_NtCs85QQFkKrybG_4core6resultINtB5_6ResultINtNtCs4oBEgEuuqV9_15zerocopy_derive4repr4ReprNtNtB7_7convert10InfallibleINtNtNtB7_3num7nonzero7NonZeromEEINtNtBN_4util7SpannedNtBN_14FromAttrsErrorEEINtNtNtB7_3ops9try_trait12FromResidualIBy_B1u_B2s_EE13from_residualBP_, symObjAddr: 0x74E0, symBinAddr: 0x3741C, symSize: 0x38 }
  - { offset: 0x683FC, size: 0x8, addend: 0x0, symName: __RNvXsq_NtCs85QQFkKrybG_4core6resultINtB5_6ResultINtNtCscwCr4GBBztI_3syn10punctuated10PunctuatedNtNtBP_4attr4MetaNtNtBP_5token5CommaENtNtBP_5error5ErrorEINtNtNtB7_3ops9try_trait12FromResidualIBy_NtNtB7_7convert10InfallibleB26_EE13from_residualCs4oBEgEuuqV9_15zerocopy_derive, symObjAddr: 0x7518, symBinAddr: 0x37454, symSize: 0x48 }
  - { offset: 0x68481, size: 0x8, addend: 0x0, symName: __RNvXsq_NtCs85QQFkKrybG_4core6resultINtB5_6ResultINtNtCsdFlNUEO95cG_5alloc3vec3VecINtNtNtCs4oBEgEuuqV9_15zerocopy_derive4repr4util7SpannedNtB1m_7RawReprEEIB1i_NtB1m_21UnrecognizedReprErrorEEINtNtNtB7_3ops9try_trait12FromResidualIBy_NtNtB7_7convert10InfallibleB2r_EE13from_residualB1o_, symObjAddr: 0x7560, symBinAddr: 0x3749C, symSize: 0x28 }
  - { offset: 0x684E8, size: 0x8, addend: 0x0, symName: __RNvXsq_NtCs85QQFkKrybG_4core6resultINtB5_6ResultNtNtCs4oBEgEuuqV9_15zerocopy_derive4repr7RawReprNtBM_21UnrecognizedReprErrorEINtNtNtB7_3ops9try_trait12FromResidualIBy_NtNtB7_7convert10InfallibleB1w_EE13from_residualBO_, symObjAddr: 0x7588, symBinAddr: 0x374C4, symSize: 0x10 }
  - { offset: 0x68531, size: 0x8, addend: 0x0, symName: __RNvXsq_NtCs85QQFkKrybG_4core6resultINtB5_6ResultNtNtCscwCr4GBBztI_3syn3lit6LitIntNtNtBO_5error5ErrorEINtNtNtB7_3ops9try_trait12FromResidualIBy_NtNtB7_7convert10InfallibleB1h_EE13from_residualCs4oBEgEuuqV9_15zerocopy_derive, symObjAddr: 0x7598, symBinAddr: 0x374D4, symSize: 0x40 }
  - { offset: 0x685B6, size: 0x8, addend: 0x0, symName: __RNvXsq_NtCs85QQFkKrybG_4core6resultINtB5_6ResultNtNtCscwCr4GBBztI_3syn4path4PathNtNtBO_5error5ErrorEINtNtNtB7_3ops9try_trait12FromResidualIBy_NtNtB7_7convert10InfallibleNtCsfwj6t2KTYdc_11proc_macro28LexErrorEE13from_residualCs4oBEgEuuqV9_15zerocopy_derive, symObjAddr: 0x75D8, symBinAddr: 0x37514, symSize: 0x48 }
  - { offset: 0x68764, size: 0x8, addend: 0x0, symName: __RNvXsp_NtCs85QQFkKrybG_4core6resultINtB5_6ResultINtNtB7_6option6OptionINtNtNtCs4oBEgEuuqV9_15zerocopy_derive4repr4util7SpannedINtB1b_12CompoundReprNtB1b_13PrimitiveReprEEEIB17_INtB1b_17FromRawReprsErrorNtB1b_20UnsupportedReprErrorEEENtNtNtB7_3ops9try_trait3Try11from_outputB1d_, symObjAddr: 0x6AB0, symBinAddr: 0x369EC, symSize: 0x20 }
  - { offset: 0x687A4, size: 0x8, addend: 0x0, symName: __RNvXsp_NtCs85QQFkKrybG_4core6resultINtB5_6ResultINtNtB7_6option6OptionINtNtNtCs4oBEgEuuqV9_15zerocopy_derive4repr4util7SpannedINtB1b_12CompoundReprNtB1b_13PrimitiveReprEEEIB17_INtB1b_17FromRawReprsErrorNtB1b_20UnsupportedReprErrorEEENtNtNtB7_3ops9try_trait3Try6branchB1d_, symObjAddr: 0x6AD0, symBinAddr: 0x36A0C, symSize: 0x84 }
  - { offset: 0x68821, size: 0x8, addend: 0x0, symName: __RNvXsp_NtCs85QQFkKrybG_4core6resultINtB5_6ResultINtNtB7_6option6OptionINtNtNtCs4oBEgEuuqV9_15zerocopy_derive4repr4util7SpannedINtB1b_12CompoundReprNtB1b_13PrimitiveReprEEEIB17_NtB1b_14FromAttrsErrorEENtNtNtB7_3ops9try_trait3Try6branchB1d_, symObjAddr: 0x6B54, symBinAddr: 0x36A90, symSize: 0x7C }
  - { offset: 0x6889E, size: 0x8, addend: 0x0, symName: __RNvXsp_NtCs85QQFkKrybG_4core6resultINtB5_6ResultINtNtB7_6option6OptionINtNtNtCs4oBEgEuuqV9_15zerocopy_derive4repr4util7SpannedINtB1b_12CompoundReprNtNtB7_7convert10InfallibleEEEIB17_INtB1b_17FromRawReprsErrorNtB1b_20UnsupportedReprErrorEEENtNtNtB7_3ops9try_trait3Try11from_outputB1d_, symObjAddr: 0x6BD0, symBinAddr: 0x36B0C, symSize: 0x20 }
  - { offset: 0x688DE, size: 0x8, addend: 0x0, symName: __RNvXsp_NtCs85QQFkKrybG_4core6resultINtB5_6ResultINtNtB7_6option6OptionINtNtNtCs4oBEgEuuqV9_15zerocopy_derive4repr4util7SpannedINtB1b_12CompoundReprNtNtB7_7convert10InfallibleEEEIB17_INtB1b_17FromRawReprsErrorNtB1b_20UnsupportedReprErrorEEENtNtNtB7_3ops9try_trait3Try6branchB1d_, symObjAddr: 0x6BF0, symBinAddr: 0x36B2C, symSize: 0x84 }
  - { offset: 0x6895B, size: 0x8, addend: 0x0, symName: __RNvXsp_NtCs85QQFkKrybG_4core6resultINtB5_6ResultINtNtB7_6option6OptionINtNtNtCs4oBEgEuuqV9_15zerocopy_derive4repr4util7SpannedINtB1b_12CompoundReprNtNtB7_7convert10InfallibleEEEIB17_NtB1b_14FromAttrsErrorEENtNtNtB7_3ops9try_trait3Try6branchB1d_, symObjAddr: 0x6C74, symBinAddr: 0x36BB0, symSize: 0x7C }
  - { offset: 0x689D8, size: 0x8, addend: 0x0, symName: __RNvXsp_NtCs85QQFkKrybG_4core6resultINtB5_6ResultINtNtB7_6option6OptionINtNtNtCs4oBEgEuuqV9_15zerocopy_derive4repr4util7SpannedINtB1b_9AlignReprINtNtNtB7_3num7nonzero7NonZeromEEEEIB17_INtB1b_17FromRawReprsErrorNtB1b_20UnsupportedReprErrorEEENtNtNtB7_3ops9try_trait3Try11from_outputB1d_, symObjAddr: 0x6CF0, symBinAddr: 0x36C2C, symSize: 0x18 }
  - { offset: 0x68A18, size: 0x8, addend: 0x0, symName: __RNvXsp_NtCs85QQFkKrybG_4core6resultINtB5_6ResultINtNtB7_6option6OptionINtNtNtCs4oBEgEuuqV9_15zerocopy_derive4repr4util7SpannedINtB1b_9AlignReprINtNtNtB7_3num7nonzero7NonZeromEEEEIB17_INtB1b_17FromRawReprsErrorNtB1b_20UnsupportedReprErrorEEENtNtNtB7_3ops9try_trait3Try6branchB1d_, symObjAddr: 0x6D08, symBinAddr: 0x36C44, symSize: 0x90 }
  - { offset: 0x68A95, size: 0x8, addend: 0x0, symName: __RNvXsp_NtCs85QQFkKrybG_4core6resultINtB5_6ResultINtNtB7_6option6OptionINtNtNtCs4oBEgEuuqV9_15zerocopy_derive4repr4util7SpannedINtB1b_9AlignReprINtNtNtB7_3num7nonzero7NonZeromEEEEIB17_NtB1b_14FromAttrsErrorEENtNtNtB7_3ops9try_trait3Try6branchB1d_, symObjAddr: 0x6D98, symBinAddr: 0x36CD4, symSize: 0x84 }
  - { offset: 0x68B12, size: 0x8, addend: 0x0, symName: __RNvXsp_NtCs85QQFkKrybG_4core6resultINtB5_6ResultINtNtB7_6option6OptionINtNtNtCs4oBEgEuuqV9_15zerocopy_derive4repr4util7SpannedINtB1b_9AlignReprNtNtB7_7convert10InfallibleEEEIB17_INtB1b_17FromRawReprsErrorNtB1b_20UnsupportedReprErrorEEENtNtNtB7_3ops9try_trait3Try11from_outputB1d_, symObjAddr: 0x6E1C, symBinAddr: 0x36D58, symSize: 0x20 }
  - { offset: 0x68B52, size: 0x8, addend: 0x0, symName: __RNvXsp_NtCs85QQFkKrybG_4core6resultINtB5_6ResultINtNtB7_6option6OptionINtNtNtCs4oBEgEuuqV9_15zerocopy_derive4repr4util7SpannedINtB1b_9AlignReprNtNtB7_7convert10InfallibleEEEIB17_INtB1b_17FromRawReprsErrorNtB1b_20UnsupportedReprErrorEEENtNtNtB7_3ops9try_trait3Try6branchB1d_, symObjAddr: 0x6E3C, symBinAddr: 0x36D78, symSize: 0x84 }
  - { offset: 0x68BCF, size: 0x8, addend: 0x0, symName: __RNvXsp_NtCs85QQFkKrybG_4core6resultINtB5_6ResultINtNtB7_6option6OptionINtNtNtCs4oBEgEuuqV9_15zerocopy_derive4repr4util7SpannedINtB1b_9AlignReprNtNtB7_7convert10InfallibleEEEIB17_NtB1b_14FromAttrsErrorEENtNtNtB7_3ops9try_trait3Try6branchB1d_, symObjAddr: 0x6EC0, symBinAddr: 0x36DFC, symSize: 0x7C }
  - { offset: 0x68C4C, size: 0x8, addend: 0x0, symName: __RNvXsp_NtCs85QQFkKrybG_4core6resultINtB5_6ResultINtNtCs4oBEgEuuqV9_15zerocopy_derive4repr4ReprNtBN_13PrimitiveReprNtNtB7_7convert10InfallibleENtNtCscwCr4GBBztI_3syn5error5ErrorENtNtNtB7_3ops9try_trait3Try6branchBP_, symObjAddr: 0x6F3C, symBinAddr: 0x36E78, symSize: 0x8C }
  - { offset: 0x68CC9, size: 0x8, addend: 0x0, symName: __RNvXsp_NtCs85QQFkKrybG_4core6resultINtB5_6ResultINtNtCs4oBEgEuuqV9_15zerocopy_derive4repr4ReprNtNtB7_7convert10InfallibleINtNtNtB7_3num7nonzero7NonZeromEENtNtCscwCr4GBBztI_3syn5error5ErrorENtNtNtB7_3ops9try_trait3Try6branchBP_, symObjAddr: 0x6FC8, symBinAddr: 0x36F04, symSize: 0x9C }
  - { offset: 0x68D46, size: 0x8, addend: 0x0, symName: __RNvXsp_NtCs85QQFkKrybG_4core6resultINtB5_6ResultINtNtCscwCr4GBBztI_3syn10punctuated10PunctuatedNtNtBP_4attr4MetaNtNtBP_5token5CommaENtNtBP_5error5ErrorENtNtNtB7_3ops9try_trait3Try6branchCs4oBEgEuuqV9_15zerocopy_derive, symObjAddr: 0x7064, symBinAddr: 0x36FA0, symSize: 0xA0 }
  - { offset: 0x68DC3, size: 0x8, addend: 0x0, symName: __RNvXsp_NtCs85QQFkKrybG_4core6resultINtB5_6ResultINtNtCsdFlNUEO95cG_5alloc3vec3VecINtNtNtCs4oBEgEuuqV9_15zerocopy_derive4repr4util7SpannedNtB1m_7RawReprEEIB1i_NtB1m_14FromAttrsErrorEENtNtNtB7_3ops9try_trait3Try6branchB1o_, symObjAddr: 0x7104, symBinAddr: 0x37040, symSize: 0x88 }
  - { offset: 0x68E40, size: 0x8, addend: 0x0, symName: __RNvXsp_NtCs85QQFkKrybG_4core6resultINtB5_6ResultINtNtNtB7_3num7nonzero7NonZeromENtNtCs4oBEgEuuqV9_15zerocopy_derive4repr21UnrecognizedReprErrorENtNtNtB7_3ops9try_trait3Try6branchB1k_, symObjAddr: 0x718C, symBinAddr: 0x370C8, symSize: 0x44 }
  - { offset: 0x68EBC, size: 0x8, addend: 0x0, symName: __RNvXsp_NtCs85QQFkKrybG_4core6resultINtB5_6ResultINtNtNtCs4oBEgEuuqV9_15zerocopy_derive4repr4util7SpannedNtBP_7RawReprEIBL_NtBP_21UnrecognizedReprErrorEENtNtNtB7_3ops9try_trait3Try6branchBR_, symObjAddr: 0x71D0, symBinAddr: 0x3710C, symSize: 0x78 }
  - { offset: 0x68F39, size: 0x8, addend: 0x0, symName: __RNvXsp_NtCs85QQFkKrybG_4core6resultINtB5_6ResultNtNtCscwCr4GBBztI_3syn6derive11DeriveInputNtNtBO_5error5ErrorENtNtNtB7_3ops9try_trait3Try6branchCs4oBEgEuuqV9_15zerocopy_derive, symObjAddr: 0x7248, symBinAddr: 0x37184, symSize: 0xB4 }
  - { offset: 0x68FB7, size: 0x8, addend: 0x0, symName: __RNvXsp_NtCs85QQFkKrybG_4core6resultINtB5_6ResultRNtCsfwj6t2KTYdc_11proc_macro25IdentNtNtCs4oBEgEuuqV9_15zerocopy_derive4repr21UnrecognizedReprErrorENtNtNtB7_3ops9try_trait3Try6branchB1o_, symObjAddr: 0x72FC, symBinAddr: 0x37238, symSize: 0x44 }
  - { offset: 0x69033, size: 0x8, addend: 0x0, symName: __RNvXsp_NtCs85QQFkKrybG_4core6resultINtB5_6ResultjNtNtCscwCr4GBBztI_3syn5error5ErrorENtNtNtB7_3ops9try_trait3Try6branchCs4oBEgEuuqV9_15zerocopy_derive, symObjAddr: 0x7340, symBinAddr: 0x3727C, symSize: 0x88 }
  - { offset: 0x6C213, size: 0x8, addend: 0x0, symName: __RNvXs1_NtCs85QQFkKrybG_4core7convertNtCsfwj6t2KTYdc_11proc_macro211TokenStreamINtB5_4IntoNtCs9bTl5rSDVcL_10proc_macro11TokenStreamE4intoCs4oBEgEuuqV9_15zerocopy_derive, symObjAddr: 0x53EC, symBinAddr: 0x35328, symSize: 0x14 }
  - { offset: 0x6C311, size: 0x8, addend: 0x0, symName: __RNvXNtNtCs85QQFkKrybG_4core3ops12control_flowINtB2_11ControlFlowNtCsfwj6t2KTYdc_11proc_macro211TokenStreamENtNtB4_9try_trait3Try11from_outputCs4oBEgEuuqV9_15zerocopy_derive, symObjAddr: 0x5268, symBinAddr: 0x351A4, symSize: 0x18 }
  - { offset: 0x6C34F, size: 0x8, addend: 0x0, symName: __RNvXNtNtCs85QQFkKrybG_4core3ops12control_flowINtB2_11ControlFlowNtCsfwj6t2KTYdc_11proc_macro211TokenStreamENtNtB4_9try_trait3Try6branchCs4oBEgEuuqV9_15zerocopy_derive, symObjAddr: 0x5280, symBinAddr: 0x351BC, symSize: 0x78 }
  - { offset: 0x6C3CF, size: 0x8, addend: 0x0, symName: __RNvXs_NtNtCs85QQFkKrybG_4core3ops12control_flowINtB4_11ControlFlowNtCsfwj6t2KTYdc_11proc_macro211TokenStreamEINtNtB6_9try_trait12FromResidualIBK_B12_NtNtB8_7convert10InfallibleEE13from_residualCs4oBEgEuuqV9_15zerocopy_derive, symObjAddr: 0x5C28, symBinAddr: 0x35B64, symSize: 0x2C }
  - { offset: 0x6CEE1, size: 0x8, addend: 0x0, symName: __RNvYINvMNtNtCs4oBEgEuuqV9_15zerocopy_derive4repr4utilINtB6_7SpannedNtB8_14FromAttrsErrorE4fromINtB8_17FromRawReprsErrorNtB8_20UnsupportedReprErrorEEINtNtNtCs85QQFkKrybG_4core3ops8function6FnOnceTIBQ_B1u_EEE9call_onceBa_, symObjAddr: 0x76C8, symBinAddr: 0x37604, symSize: 0x30 }
  - { offset: 0x6CF25, size: 0x8, addend: 0x0, symName: __RNvYINvMNtNtCs4oBEgEuuqV9_15zerocopy_derive4repr4utilINtB6_7SpannedNtB8_14FromAttrsErrorE4fromNtB8_21UnrecognizedReprErrorEINtNtNtCs85QQFkKrybG_4core3ops8function6FnOnceTIBQ_B1u_EEE9call_onceBa_, symObjAddr: 0x76F8, symBinAddr: 0x37634, symSize: 0x24 }
  - { offset: 0x6CF69, size: 0x8, addend: 0x0, symName: __RNvYNCNkNvNtNtNtCs9bTl5rSDVcL_10proc_macro6bridge6client5state12BRIDGE_STATE0s_0INtNtNtCs85QQFkKrybG_4core3ops8function6FnOnceTINtNtB1n_6option6OptionQIB22_INtNtB1n_4cell4CellPuEEEEE9call_onceCs4oBEgEuuqV9_15zerocopy_derive, symObjAddr: 0x771C, symBinAddr: 0x37658, symSize: 0x4C }
  - { offset: 0x6CFAD, size: 0x8, addend: 0x0, symName: __RNvYNcNtINtNtCs4oBEgEuuqV9_15zerocopy_derive4repr12CompoundReprNtB9_13PrimitiveReprE9Primitive0INtNtNtCs85QQFkKrybG_4core3ops8function6FnOnceTBZ_EE9call_onceBb_, symObjAddr: 0x7778, symBinAddr: 0x376B4, symSize: 0x24 }
  - { offset: 0x6CFF1, size: 0x8, addend: 0x0, symName: __RNvYNcNtINtNtCs4oBEgEuuqV9_15zerocopy_derive4repr16FromRawReprErrorNtB9_20UnsupportedReprErrorE3Err0INtNtNtCs85QQFkKrybG_4core3ops8function6FnOnceTB13_EE9call_onceBb_, symObjAddr: 0x77B8, symBinAddr: 0x376D8, symSize: 0x1C }
  - { offset: 0x6D035, size: 0x8, addend: 0x0, symName: __RNvYNcNtINtNtCs4oBEgEuuqV9_15zerocopy_derive4repr9AlignReprINtNtNtCs85QQFkKrybG_4core3num7nonzero7NonZeromEEs_6Packed0INtNtNtB12_3ops8function6FnOnceTBV_EE9call_onceBb_, symObjAddr: 0x77D4, symBinAddr: 0x376F4, symSize: 0x24 }
  - { offset: 0x6D079, size: 0x8, addend: 0x0, symName: __RNvYNvMNtCscwCr4GBBztI_3syn10punctuatedINtB5_10PunctuatedNtNtB7_4attr4MetaNtNtB7_5token5CommaE16parse_terminatedINtNtNtCs85QQFkKrybG_4core3ops8function6FnOnceTRNtNtB7_5parse11ParseBufferEE9call_onceCs4oBEgEuuqV9_15zerocopy_derive, symObjAddr: 0x7B10, symBinAddr: 0x37A14, symSize: 0x24 }
  - { offset: 0x6D0BD, size: 0x8, addend: 0x0, symName: __RNvYNvYINtNtCscwCr4GBBztI_3syn10punctuated4IterNtNtBa_4data5FieldENtNtNtNtCs85QQFkKrybG_4core4iter6traits8iterator8Iterator4nextINtNtNtB1a_3ops8function6FnOnceTQB5_EE9call_onceCs4oBEgEuuqV9_15zerocopy_derive, symObjAddr: 0x7B34, symBinAddr: 0x37A38, symSize: 0x24 }
  - { offset: 0x6D101, size: 0x8, addend: 0x0, symName: __RNvYNvYINtNtCscwCr4GBBztI_3syn10punctuated4IterNtNtBa_4data5FieldENtNtNtNtCs85QQFkKrybG_4core4iter6traits8iterator8Iterator9size_hintINtNtNtB1a_3ops8function6FnOnceTRB5_EE9call_onceCs4oBEgEuuqV9_15zerocopy_derive, symObjAddr: 0x7B58, symBinAddr: 0x37A5C, symSize: 0x24 }
  - { offset: 0x6D145, size: 0x8, addend: 0x0, symName: __RNvYNvYINtNtCscwCr4GBBztI_3syn10punctuated4IterNtNtBa_8generics14WherePredicateENtNtNtNtCs85QQFkKrybG_4core4iter6traits8iterator8Iterator4nextINtNtNtB1o_3ops8function6FnOnceTQB5_EE9call_onceCs4oBEgEuuqV9_15zerocopy_derive, symObjAddr: 0x7B7C, symBinAddr: 0x37A80, symSize: 0x24 }
  - { offset: 0x6D189, size: 0x8, addend: 0x0, symName: __RNvYNvYINtNtNtCs4oBEgEuuqV9_15zerocopy_derive4repr4util7SpannedNtBa_14FromAttrsErrorEINtNtCs85QQFkKrybG_4core7convert4IntoNtNtCscwCr4GBBztI_3syn5error5ErrorE4intoINtNtNtB1q_3ops8function6FnOnceTB5_EE9call_onceBc_, symObjAddr: 0x7BA0, symBinAddr: 0x37AA4, symSize: 0x34 }
  - { offset: 0x6D1CD, size: 0x8, addend: 0x0, symName: __RNvYNvYINtNtNtNtCs85QQFkKrybG_4core4iter8adapters3map3MapINtNtCscwCr4GBBztI_3syn10punctuated4IterNtNtBY_4data7VariantENCNvXs0_NtCs4oBEgEuuqV9_15zerocopy_derive3extNtNtBY_6derive8DataEnumNtB20_7DataExt6fields0ENtNtNtBc_6traits8iterator8Iterator4nextINtNtNtBe_3ops8function6FnOnceTQB5_EE9call_onceB22_, symObjAddr: 0x7BD4, symBinAddr: 0x37AD8, symSize: 0x24 }
  - { offset: 0x6D211, size: 0x8, addend: 0x0, symName: __RNvYNvYINtNtNtNtCs85QQFkKrybG_4core4iter8adapters5chain5ChainIB6_INtNtBa_7flatten7FlattenINtNtBe_6option8IntoIterINtNtCscwCr4GBBztI_3syn10punctuated4IterNtNtB1S_8generics14WherePredicateEEEINtNtNtBe_5slice4iter4IterB2r_EEINtB1s_4IterB2r_EENtNtNtBc_6traits8iterator8Iterator4nextINtNtNtBe_3ops8function6FnOnceTQB5_EE9call_onceCs4oBEgEuuqV9_15zerocopy_derive, symObjAddr: 0x7BF8, symBinAddr: 0x37AFC, symSize: 0x24 }
  - { offset: 0x6D255, size: 0x8, addend: 0x0, symName: __RNvYNvYINtNtNtNtCs85QQFkKrybG_4core4iter8adapters5chain5ChainINtNtBa_7flatten7FlattenINtNtBe_6option8IntoIterINtNtCscwCr4GBBztI_3syn10punctuated4IterNtNtB1O_8generics14WherePredicateEEEINtNtNtBe_5slice4iter4IterB2n_EENtNtNtBc_6traits8iterator8Iterator4nextINtNtNtBe_3ops8function6FnOnceTQB5_EE9call_onceCs4oBEgEuuqV9_15zerocopy_derive, symObjAddr: 0x7C1C, symBinAddr: 0x37B20, symSize: 0x24 }
  - { offset: 0x6D299, size: 0x8, addend: 0x0, symName: __RNvYNvYINtNtNtNtCs85QQFkKrybG_4core4iter8adapters7flatten7FlattenINtNtBe_6option8IntoIterINtNtCscwCr4GBBztI_3syn10punctuated4IterNtNtB1u_8generics14WherePredicateEEENtNtNtBc_6traits8iterator8Iterator4nextINtNtNtBe_3ops8function6FnOnceTQB5_EE9call_onceCs4oBEgEuuqV9_15zerocopy_derive, symObjAddr: 0x7C40, symBinAddr: 0x37B44, symSize: 0x24 }
  - { offset: 0x6D2DD, size: 0x8, addend: 0x0, symName: __RNvYNvYNtCsfwj6t2KTYdc_11proc_macro25IdentNtNtCshi3DZH3dfhk_5quote9to_tokens8ToTokens15to_token_streamINtNtNtCs85QQFkKrybG_4core3ops8function6FnOnceTRB5_EE9call_onceCs4oBEgEuuqV9_15zerocopy_derive, symObjAddr: 0x7C64, symBinAddr: 0x37B68, symSize: 0x24 }
  - { offset: 0x6D321, size: 0x8, addend: 0x0, symName: __RNvYNvYNtNtCscwCr4GBBztI_3syn2ty4TypeNtNtB9_11parse_quote10ParseQuote5parseINtNtNtCs85QQFkKrybG_4core3ops8function6FnOnceTRNtNtB9_5parse11ParseBufferEE9call_onceCs4oBEgEuuqV9_15zerocopy_derive, symObjAddr: 0x7C88, symBinAddr: 0x37B8C, symSize: 0x24 }
  - { offset: 0x6D365, size: 0x8, addend: 0x0, symName: __RNvYNvYNtNtCscwCr4GBBztI_3syn3lit6LitIntNtNtB9_5parse5Parse5parseINtNtNtCs85QQFkKrybG_4core3ops8function6FnOnceTRNtBE_11ParseBufferEE9call_onceCs4oBEgEuuqV9_15zerocopy_derive, symObjAddr: 0x7CAC, symBinAddr: 0x37BB0, symSize: 0x24 }
  - { offset: 0x6D3A9, size: 0x8, addend: 0x0, symName: __RNvYNvYNtNtCscwCr4GBBztI_3syn4path4PathNtNtB9_11parse_quote10ParseQuote5parseINtNtNtCs85QQFkKrybG_4core3ops8function6FnOnceTRNtNtB9_5parse11ParseBufferEE9call_onceCs4oBEgEuuqV9_15zerocopy_derive, symObjAddr: 0x7CD0, symBinAddr: 0x37BD4, symSize: 0x24 }
  - { offset: 0x6D3ED, size: 0x8, addend: 0x0, symName: __RNvYNvYNtNtCscwCr4GBBztI_3syn4path4PathNtNtB9_5parse5Parse5parseINtNtNtCs85QQFkKrybG_4core3ops8function6FnOnceTRNtBD_11ParseBufferEE9call_onceCs4oBEgEuuqV9_15zerocopy_derive, symObjAddr: 0x7CF4, symBinAddr: 0x37BF8, symSize: 0x24 }
  - { offset: 0x6D431, size: 0x8, addend: 0x0, symName: __RNvYNvYNtNtCscwCr4GBBztI_3syn6derive11DeriveInputNtNtB9_11parse_quote10ParseQuote5parseINtNtNtCs85QQFkKrybG_4core3ops8function6FnOnceTRNtNtB9_5parse11ParseBufferEE9call_onceCs4oBEgEuuqV9_15zerocopy_derive, symObjAddr: 0x7D18, symBinAddr: 0x37C1C, symSize: 0x24 }
  - { offset: 0x6D475, size: 0x8, addend: 0x0, symName: __RNvYNvYNtNtCscwCr4GBBztI_3syn6derive11DeriveInputNtNtB9_5parse5Parse5parseINtNtNtCs85QQFkKrybG_4core3ops8function6FnOnceTRNtBN_11ParseBufferEE9call_onceCs4oBEgEuuqV9_15zerocopy_derive, symObjAddr: 0x7D3C, symBinAddr: 0x37C40, symSize: 0x24 }
  - { offset: 0x6D4B9, size: 0x8, addend: 0x0, symName: __RNvYNvYNtNtCscwCr4GBBztI_3syn8generics14WherePredicateNtNtB9_11parse_quote10ParseQuote5parseINtNtNtCs85QQFkKrybG_4core3ops8function6FnOnceTRNtNtB9_5parse11ParseBufferEE9call_onceCs4oBEgEuuqV9_15zerocopy_derive, symObjAddr: 0x7DE8, symBinAddr: 0x37CEC, symSize: 0x24 }
  - { offset: 0x6D503, size: 0x8, addend: 0x0, symName: __RNvYNvCs4oBEgEuuqV9_15zerocopy_derive11derive_hashINtNtNtCs85QQFkKrybG_4core3ops8function2FnTNtCs9bTl5rSDVcL_10proc_macro11TokenStreamEE4callB4_, symObjAddr: 0x7930, symBinAddr: 0x37834, symSize: 0x28 }
  - { offset: 0x6D547, size: 0x8, addend: 0x0, symName: __RNvYNvCs4oBEgEuuqV9_15zerocopy_derive14derive_no_cellINtNtNtCs85QQFkKrybG_4core3ops8function2FnTNtCs9bTl5rSDVcL_10proc_macro11TokenStreamEE4callB4_, symObjAddr: 0x7958, symBinAddr: 0x3785C, symSize: 0x28 }
  - { offset: 0x6D58B, size: 0x8, addend: 0x0, symName: __RNvYNvCs4oBEgEuuqV9_15zerocopy_derive15derive_as_bytesINtNtNtCs85QQFkKrybG_4core3ops8function2FnTNtCs9bTl5rSDVcL_10proc_macro11TokenStreamEE4callB4_, symObjAddr: 0x7980, symBinAddr: 0x37884, symSize: 0x28 }
  - { offset: 0x6D5CF, size: 0x8, addend: 0x0, symName: __RNvYNvCs4oBEgEuuqV9_15zerocopy_derive15derive_split_atINtNtNtCs85QQFkKrybG_4core3ops8function2FnTNtCs9bTl5rSDVcL_10proc_macro11TokenStreamEE4callB4_, symObjAddr: 0x79A8, symBinAddr: 0x378AC, symSize: 0x28 }
  - { offset: 0x6D613, size: 0x8, addend: 0x0, symName: __RNvYNvCs4oBEgEuuqV9_15zerocopy_derive16derive_unalignedINtNtNtCs85QQFkKrybG_4core3ops8function2FnTNtCs9bTl5rSDVcL_10proc_macro11TokenStreamEE4callB4_, symObjAddr: 0x79D0, symBinAddr: 0x378D4, symSize: 0x28 }
  - { offset: 0x6D657, size: 0x8, addend: 0x0, symName: __RNvYNvCs4oBEgEuuqV9_15zerocopy_derive17derive_from_bytesINtNtNtCs85QQFkKrybG_4core3ops8function2FnTNtCs9bTl5rSDVcL_10proc_macro11TokenStreamEE4callB4_, symObjAddr: 0x79F8, symBinAddr: 0x378FC, symSize: 0x28 }
  - { offset: 0x6D69B, size: 0x8, addend: 0x0, symName: __RNvYNvCs4oBEgEuuqV9_15zerocopy_derive17derive_from_zerosINtNtNtCs85QQFkKrybG_4core3ops8function2FnTNtCs9bTl5rSDVcL_10proc_macro11TokenStreamEE4callB4_, symObjAddr: 0x7A20, symBinAddr: 0x37924, symSize: 0x28 }
  - { offset: 0x6D6DF, size: 0x8, addend: 0x0, symName: __RNvYNvCs4oBEgEuuqV9_15zerocopy_derive17derive_into_bytesINtNtNtCs85QQFkKrybG_4core3ops8function2FnTNtCs9bTl5rSDVcL_10proc_macro11TokenStreamEE4callB4_, symObjAddr: 0x7A48, symBinAddr: 0x3794C, symSize: 0x28 }
  - { offset: 0x6D723, size: 0x8, addend: 0x0, symName: __RNvYNvCs4oBEgEuuqV9_15zerocopy_derive18derive_from_zeroesINtNtNtCs85QQFkKrybG_4core3ops8function2FnTNtCs9bTl5rSDVcL_10proc_macro11TokenStreamEE4callB4_, symObjAddr: 0x7A70, symBinAddr: 0x37974, symSize: 0x28 }
  - { offset: 0x6D767, size: 0x8, addend: 0x0, symName: __RNvYNvCs4oBEgEuuqV9_15zerocopy_derive19derive_known_layoutINtNtNtCs85QQFkKrybG_4core3ops8function2FnTNtCs9bTl5rSDVcL_10proc_macro11TokenStreamEE4callB4_, symObjAddr: 0x7A98, symBinAddr: 0x3799C, symSize: 0x28 }
  - { offset: 0x6D7AB, size: 0x8, addend: 0x0, symName: __RNvYNvCs4oBEgEuuqV9_15zerocopy_derive21derive_try_from_bytesINtNtNtCs85QQFkKrybG_4core3ops8function2FnTNtCs9bTl5rSDVcL_10proc_macro11TokenStreamEE4callB4_, symObjAddr: 0x7AC0, symBinAddr: 0x379C4, symSize: 0x28 }
  - { offset: 0x6D7EF, size: 0x8, addend: 0x0, symName: __RNvYNvCs4oBEgEuuqV9_15zerocopy_derive9derive_eqINtNtNtCs85QQFkKrybG_4core3ops8function2FnTNtCs9bTl5rSDVcL_10proc_macro11TokenStreamEE4callB4_, symObjAddr: 0x7AE8, symBinAddr: 0x379EC, symSize: 0x28 }
  - { offset: 0x6D92B, size: 0x8, addend: 0x0, symName: __RNvMNtCs85QQFkKrybG_4core5sliceSNtCsfwj6t2KTYdc_11proc_macro25Ident4iterCs4oBEgEuuqV9_15zerocopy_derive, symObjAddr: 0x40EC, symBinAddr: 0x34028, symSize: 0x28 }
  - { offset: 0x6D962, size: 0x8, addend: 0x0, symName: __RNvMNtCs85QQFkKrybG_4core5sliceSNtNtCscwCr4GBBztI_3syn8generics14WherePredicate4iterCs4oBEgEuuqV9_15zerocopy_derive, symObjAddr: 0x4114, symBinAddr: 0x34050, symSize: 0x28 }
  - { offset: 0x6DC28, size: 0x8, addend: 0x0, symName: __RNCINvMs6_NtNtNtCs85QQFkKrybG_4core5array4iter10iter_innerINtB8_15PolymorphicIterSINtNtNtBe_3mem12maybe_uninit11MaybeUninitNtCsfwj6t2KTYdc_11proc_macro211TokenStreamEE8try_folduNCINvMNtNtBe_3ops9try_traitINtB2V_17NeverShortCircuituE10wrap_mut_2uB1X_NCINvNtNtNtBe_4iter8adapters3map8map_foldB1X_NtNtB1Z_3imp11TokenStreamuNCINvXs7_B1Z_B1X_INtNtNtB48_6traits7collect12FromIteratorB1X_E9from_iterINtBa_8IntoIterB1X_Kj2_EE0NCIB42_B4I_NtCs9bTl5rSDVcL_10proc_macro11TokenStreamuNCINvXs6_B4K_B4I_IB5q_B4I_E9from_iterINtB44_3MapB6i_B58_EE0NCINvNvNtNtB5u_8iterator8Iterator8for_each4callB6T_NCINvXsj_B6V_B6T_INtB5s_6ExtendB6T_E6extendIB8b_B8a_B7z_EE0E0E0E0E0B3g_E0Cs4oBEgEuuqV9_15zerocopy_derive, symObjAddr: 0x3F18, symBinAddr: 0x33E54, symSize: 0xAC }
  - { offset: 0x6DE1C, size: 0x8, addend: 0x0, symName: __RNvXs1_NtNtNtCs85QQFkKrybG_4core5array4iter10iter_innerINtB5_15PolymorphicIterAINtNtNtBb_3mem12maybe_uninit11MaybeUninitNtCsfwj6t2KTYdc_11proc_macro211TokenStreamEj2_ENtNtNtBb_3ops4drop4Drop4dropCs4oBEgEuuqV9_15zerocopy_derive, symObjAddr: 0x55A0, symBinAddr: 0x354DC, symSize: 0x38 }
  - { offset: 0x6DEBE, size: 0x8, addend: 0x0, symName: __RNvXs_NtNtCs85QQFkKrybG_4core5array4iterANtCsfwj6t2KTYdc_11proc_macro211TokenStreamj2_NtNtNtNtB8_4iter6traits7collect12IntoIterator9into_iterCs4oBEgEuuqV9_15zerocopy_derive, symObjAddr: 0x5C54, symBinAddr: 0x35B90, symSize: 0x70 }
  - { offset: 0x6E02B, size: 0x8, addend: 0x0, symName: __RNvXs0_NtNtNtCs85QQFkKrybG_4core4iter8adapters10filter_mapINtB5_9FilterMapINtNtCscwCr4GBBztI_3syn10punctuated4IterNtNtB1f_4data7VariantENCNvNtCs4oBEgEuuqV9_15zerocopy_derive4enum23generate_variants_union0ENtNtNtB9_6traits8iterator8Iterator4nextB2g_, symObjAddr: 0x533C, symBinAddr: 0x35278, symSize: 0x2C }
  - { offset: 0x6E072, size: 0x8, addend: 0x0, symName: __RNvXs0_NtNtNtCs85QQFkKrybG_4core4iter8adapters10filter_mapINtB5_9FilterMapINtNtCscwCr4GBBztI_3syn10punctuated4IterNtNtB1f_4data7VariantENCNvNtCs4oBEgEuuqV9_15zerocopy_derive4enum24generate_variant_structs0ENtNtNtB9_6traits8iterator8Iterator4nextB2g_, symObjAddr: 0x5368, symBinAddr: 0x352A4, symSize: 0x2C }
  - { offset: 0x6E0B9, size: 0x8, addend: 0x0, symName: __RNvXs0_NtNtNtCs85QQFkKrybG_4core4iter8adapters10filter_mapINtB5_9FilterMapINtNtNtBb_5slice4iter4IterINtNtNtCs4oBEgEuuqV9_15zerocopy_derive4repr4util7SpannedNtB1F_7RawReprEENCNvMsa_B1F_INtB1F_4ReprNtB1F_13PrimitiveReprNtNtBb_7convert10InfallibleE16from_attrs_inner0ENtNtNtB9_6traits8iterator8Iterator4nextB1H_, symObjAddr: 0x5394, symBinAddr: 0x352D0, symSize: 0x2C }
  - { offset: 0x6E100, size: 0x8, addend: 0x0, symName: __RNvXs0_NtNtNtCs85QQFkKrybG_4core4iter8adapters10filter_mapINtB5_9FilterMapINtNtNtBb_5slice4iter4IterINtNtNtCs4oBEgEuuqV9_15zerocopy_derive4repr4util7SpannedNtB1F_7RawReprEENCNvMsa_B1F_INtB1F_4ReprNtNtBb_7convert10InfallibleINtNtNtBb_3num7nonzero7NonZeromEE16from_attrs_inner0ENtNtNtB9_6traits8iterator8Iterator4nextB1H_, symObjAddr: 0x53C0, symBinAddr: 0x352FC, symSize: 0x2C }
  - { offset: 0x6EC11, size: 0x8, addend: 0x0, symName: __RNvXs1b_NtCs85QQFkKrybG_4core3fmtRNtCsfwj6t2KTYdc_11proc_macro211TokenStreamNtB6_7Display3fmtCs4oBEgEuuqV9_15zerocopy_derive, symObjAddr: 0x55D8, symBinAddr: 0x35514, symSize: 0x30 }
  - { offset: 0x6EC63, size: 0x8, addend: 0x0, symName: __RNvNvNtCs85QQFkKrybG_4core9ub_checks23maybe_is_nonoverlapping7runtimeCs4oBEgEuuqV9_15zerocopy_derive, symObjAddr: 0x4FC4, symBinAddr: 0x34F00, symSize: 0xD8 }
  - { offset: 0x6EE1A, size: 0x8, addend: 0x0, symName: __RNvYNCNvCs4oBEgEuuqV9_15zerocopy_derive25derive_known_layout_inner0NtNtCs85QQFkKrybG_4core5clone5Clone5cloneB6_, symObjAddr: 0x7768, symBinAddr: 0x376A4, symSize: 0x10 }
  - { offset: 0x6EF2F, size: 0x8, addend: 0x0, symName: __RNCNvMs3_NtNtCswz7ZwgBZOU_3std6thread5localINtB7_8LocalKeyINtNtCs85QQFkKrybG_4core4cell4CellPuEE7replace0Cs4oBEgEuuqV9_15zerocopy_derive, symObjAddr: 0x40C4, symBinAddr: 0x34000, symSize: 0x28 }
  - { offset: 0x6FBD3, size: 0x8, addend: 0x0, symName: __RNvXCs4oBEgEuuqV9_15zerocopy_deriveNtCsfwj6t2KTYdc_11proc_macro211TokenStreamNtB2_15IntoTokenStream7into_ts, symObjAddr: 0x509C, symBinAddr: 0x34FD8, symSize: 0x24 }
  - { offset: 0x6FC05, size: 0x8, addend: 0x0, symName: __RNvXs_Cs4oBEgEuuqV9_15zerocopy_deriveINtNtCs85QQFkKrybG_4core6result6ResultNtCsfwj6t2KTYdc_11proc_macro211TokenStreamNtNtCscwCr4GBBztI_3syn5error5ErrorENtB4_15IntoTokenStream7into_ts, symObjAddr: 0x5B44, symBinAddr: 0x35A80, symSize: 0xE4 }
  - { offset: 0x7026E, size: 0x8, addend: 0x0, symName: __RINvMNtCs85QQFkKrybG_4core6resultINtB3_6ResultINtNtB5_6option6OptionINtNtNtCs4oBEgEuuqV9_15zerocopy_derive4repr4util7SpannedINtB19_12CompoundReprNtB19_13PrimitiveReprEEEIB15_INtB19_17FromRawReprsErrorNtB19_20UnsupportedReprErrorEEE7map_errIB15_NtB19_14FromAttrsErrorEINvMB17_B3P_4fromB2M_EEB1b_, symObjAddr: 0x0, symBinAddr: 0x2FF84, symSize: 0x9C }
  - { offset: 0x70301, size: 0x8, addend: 0x0, symName: __RINvMNtCs85QQFkKrybG_4core6resultINtB3_6ResultINtNtB5_6option6OptionINtNtNtCs4oBEgEuuqV9_15zerocopy_derive4repr4util7SpannedINtB19_12CompoundReprNtNtB5_7convert10InfallibleEEEIB15_INtB19_17FromRawReprsErrorNtB19_20UnsupportedReprErrorEEE7map_errIB15_NtB19_14FromAttrsErrorEINvMB17_B3V_4fromB2S_EEB1b_, symObjAddr: 0x9C, symBinAddr: 0x30020, symSize: 0x9C }
  - { offset: 0x70394, size: 0x8, addend: 0x0, symName: __RINvMNtCs85QQFkKrybG_4core6resultINtB3_6ResultINtNtB5_6option6OptionINtNtNtCs4oBEgEuuqV9_15zerocopy_derive4repr4util7SpannedINtB19_9AlignReprINtNtNtB5_3num7nonzero7NonZeromEEEEIB15_INtB19_17FromRawReprsErrorNtB19_20UnsupportedReprErrorEEE7map_errIB15_NtB19_14FromAttrsErrorEINvMB17_B3W_4fromB2T_EEB1b_, symObjAddr: 0x138, symBinAddr: 0x300BC, symSize: 0xA0 }
  - { offset: 0x70427, size: 0x8, addend: 0x0, symName: __RINvMNtCs85QQFkKrybG_4core6resultINtB3_6ResultINtNtB5_6option6OptionINtNtNtCs4oBEgEuuqV9_15zerocopy_derive4repr4util7SpannedINtB19_9AlignReprNtNtB5_7convert10InfallibleEEEIB15_INtB19_17FromRawReprsErrorNtB19_20UnsupportedReprErrorEEE7map_errIB15_NtB19_14FromAttrsErrorEINvMB17_B3R_4fromB2O_EEB1b_, symObjAddr: 0x1D8, symBinAddr: 0x3015C, symSize: 0x9C }
  - { offset: 0x704C7, size: 0x8, addend: 0x0, symName: __RINvMNtCs85QQFkKrybG_4core6resultINtB3_6ResultINtNtCs4oBEgEuuqV9_15zerocopy_derive4repr12CompoundReprNtBL_13PrimitiveReprEINtBL_16FromRawReprErrorNtBL_20UnsupportedReprErrorEE3mapINtNtBL_4util7SpannedBI_ENCINvMB2U_B2R_8try_fromB2k_NtBL_7RawReprE0EBN_, symObjAddr: 0x274, symBinAddr: 0x301F8, symSize: 0x78 }
  - { offset: 0x70571, size: 0x8, addend: 0x0, symName: __RINvMNtCs85QQFkKrybG_4core6resultINtB3_6ResultINtNtCs4oBEgEuuqV9_15zerocopy_derive4repr12CompoundReprNtBL_13PrimitiveReprENtBL_20UnsupportedReprErrorE7map_errINtBL_16FromRawReprErrorB1W_ENcNtB2w_3Err0EBN_, symObjAddr: 0x2EC, symBinAddr: 0x30270, symSize: 0x68 }
  - { offset: 0x70603, size: 0x8, addend: 0x0, symName: __RINvMNtCs85QQFkKrybG_4core6resultINtB3_6ResultINtNtCs4oBEgEuuqV9_15zerocopy_derive4repr12CompoundReprNtNtB5_7convert10InfallibleEINtBL_16FromRawReprErrorNtBL_20UnsupportedReprErrorEE3mapINtNtBL_4util7SpannedBI_ENCINvMB31_B2Y_8try_fromB2r_NtBL_7RawReprE0EBN_, symObjAddr: 0x354, symBinAddr: 0x302D8, symSize: 0x90 }
  - { offset: 0x70695, size: 0x8, addend: 0x0, symName: __RINvMNtCs85QQFkKrybG_4core6resultINtB3_6ResultINtNtCs4oBEgEuuqV9_15zerocopy_derive4repr12CompoundReprNtNtB5_7convert10InfallibleENtBL_20UnsupportedReprErrorE7map_errINtBL_16FromRawReprErrorB23_ENcNtB2D_3Err0EBN_, symObjAddr: 0x3E4, symBinAddr: 0x30368, symSize: 0x74 }
  - { offset: 0x7073F, size: 0x8, addend: 0x0, symName: __RINvMNtCs85QQFkKrybG_4core6resultINtB3_6ResultINtNtCs4oBEgEuuqV9_15zerocopy_derive4repr4ReprNtBL_13PrimitiveReprNtNtB5_7convert10InfallibleEINtNtBL_4util7SpannedNtBL_14FromAttrsErrorEE7map_errNtNtCscwCr4GBBztI_3syn5error5ErrorNvYB2e_INtB1O_4IntoB34_E4intoEBN_, symObjAddr: 0x458, symBinAddr: 0x303DC, symSize: 0x90 }
  - { offset: 0x707D2, size: 0x8, addend: 0x0, symName: __RINvMNtCs85QQFkKrybG_4core6resultINtB3_6ResultINtNtCs4oBEgEuuqV9_15zerocopy_derive4repr4ReprNtNtB5_7convert10InfallibleINtNtNtB5_3num7nonzero7NonZeromEEINtNtBL_4util7SpannedNtBL_14FromAttrsErrorEE7map_errNtNtCscwCr4GBBztI_3syn5error5ErrorNvYB2q_INtB1u_4IntoB3g_E4intoEBN_, symObjAddr: 0x4E8, symBinAddr: 0x3046C, symSize: 0xA4 }
  - { offset: 0x70865, size: 0x8, addend: 0x0, symName: __RINvMNtCs85QQFkKrybG_4core6resultINtB3_6ResultINtNtCs4oBEgEuuqV9_15zerocopy_derive4repr9AlignReprINtNtNtB5_3num7nonzero7NonZeromEEINtBL_16FromRawReprErrorNtBL_20UnsupportedReprErrorEE3mapINtNtBL_4util7SpannedBI_ENCINvMB32_B2Z_8try_fromB2s_NtBL_7RawReprE0EBN_, symObjAddr: 0x58C, symBinAddr: 0x30510, symSize: 0xA4 }
  - { offset: 0x708F7, size: 0x8, addend: 0x0, symName: __RINvMNtCs85QQFkKrybG_4core6resultINtB3_6ResultINtNtCs4oBEgEuuqV9_15zerocopy_derive4repr9AlignReprINtNtNtB5_3num7nonzero7NonZeromEENtBL_20UnsupportedReprErrorE7map_errINtBL_16FromRawReprErrorB24_ENcNtB2E_3Err0EBN_, symObjAddr: 0x630, symBinAddr: 0x305B4, symSize: 0x6C }
  - { offset: 0x70989, size: 0x8, addend: 0x0, symName: __RINvMNtCs85QQFkKrybG_4core6resultINtB3_6ResultINtNtCs4oBEgEuuqV9_15zerocopy_derive4repr9AlignReprNtNtB5_7convert10InfallibleEINtBL_16FromRawReprErrorNtBL_20UnsupportedReprErrorEE3mapINtNtBL_4util7SpannedBI_ENCINvMB2X_B2U_8try_fromB2n_NtBL_7RawReprE0EBN_, symObjAddr: 0x69C, symBinAddr: 0x30620, symSize: 0x78 }
  - { offset: 0x70A1B, size: 0x8, addend: 0x0, symName: __RINvMNtCs85QQFkKrybG_4core6resultINtB3_6ResultINtNtCs4oBEgEuuqV9_15zerocopy_derive4repr9AlignReprNtNtB5_7convert10InfallibleENtBL_20UnsupportedReprErrorE7map_errINtBL_16FromRawReprErrorB1Z_ENcNtB2z_3Err0EBN_, symObjAddr: 0x714, symBinAddr: 0x30698, symSize: 0x60 }
  - { offset: 0x70AC5, size: 0x8, addend: 0x0, symName: __RINvMNtCs85QQFkKrybG_4core6resultINtB3_6ResultINtNtCsdFlNUEO95cG_5alloc3vec3VecINtNtNtCs4oBEgEuuqV9_15zerocopy_derive4repr4util7SpannedNtB1k_7RawReprEEIB1g_NtB1k_21UnrecognizedReprErrorEE7map_errIB1g_NtB1k_14FromAttrsErrorEINvMB1i_B37_4fromB2u_EEB1m_, symObjAddr: 0x774, symBinAddr: 0x306F8, symSize: 0x90 }
  - { offset: 0x70B99, size: 0x8, addend: 0x0, symName: __RINvMNtCs85QQFkKrybG_4core6resultINtB3_6ResultINtNtNtB5_3num7nonzero7NonZeromENtNtBN_5error13ParseIntErrorE7map_errNtNtCscwCr4GBBztI_3syn5error5ErrorNCINvMs3_NtB1T_3litNtB2w_6LitInt12base10_parseBI_E0ECs4oBEgEuuqV9_15zerocopy_derive, symObjAddr: 0x804, symBinAddr: 0x30788, symSize: 0x84 }
  - { offset: 0x70C43, size: 0x8, addend: 0x0, symName: __RINvMNtCs85QQFkKrybG_4core6resultINtB3_6ResultINtNtNtB5_3num7nonzero7NonZeromENtNtCs4oBEgEuuqV9_15zerocopy_derive4repr20UnsupportedReprErrorE3mapINtB1g_9AlignReprBI_ENcNtB2j_s_6Packed0EB1i_, symObjAddr: 0x888, symBinAddr: 0x3080C, symSize: 0x60 }
  - { offset: 0x70CD5, size: 0x8, addend: 0x0, symName: __RINvMNtCs85QQFkKrybG_4core6resultINtB3_6ResultINtNtNtB5_3num7nonzero7NonZeromENtNtCs4oBEgEuuqV9_15zerocopy_derive4repr21UnrecognizedReprErrorE8and_thenBI_NCNCNvMsc_B1g_NtB1g_7RawRepr9from_meta0s0_0EB1i_, symObjAddr: 0x8E8, symBinAddr: 0x3086C, symSize: 0x54 }
  - { offset: 0x70D67, size: 0x8, addend: 0x0, symName: __RINvMNtCs85QQFkKrybG_4core6resultINtB3_6ResultINtNtNtB5_3num7nonzero7NonZeromENtNtCscwCr4GBBztI_3syn5error5ErrorE7map_errNtNtCs4oBEgEuuqV9_15zerocopy_derive4repr21UnrecognizedReprErrorNCNCNvMsc_B1X_NtB1X_7RawRepr9from_meta0s_0EB1Z_, symObjAddr: 0x93C, symBinAddr: 0x308C0, symSize: 0x80 }
  - { offset: 0x70DFA, size: 0x8, addend: 0x0, symName: __RINvMNtCs85QQFkKrybG_4core6resultINtB3_6ResultINtNtNtCs4oBEgEuuqV9_15zerocopy_derive4repr4util7SpannedINtBN_12CompoundReprNtBN_13PrimitiveReprEEINtBN_16FromRawReprErrorNtBN_20UnsupportedReprErrorEE7map_errIB2j_IBJ_B2G_EENCINvMBL_BI_8try_fromB2G_NtBN_7RawReprEs_0EBP_, symObjAddr: 0x9BC, symBinAddr: 0x30940, symSize: 0xA4 }
  - { offset: 0x70E8C, size: 0x8, addend: 0x0, symName: __RINvMNtCs85QQFkKrybG_4core6resultINtB3_6ResultINtNtNtCs4oBEgEuuqV9_15zerocopy_derive4repr4util7SpannedINtBN_12CompoundReprNtNtB5_7convert10InfallibleEEINtBN_16FromRawReprErrorNtBN_20UnsupportedReprErrorEE7map_errIB2q_IBJ_B2N_EENCINvMBL_BI_8try_fromB2N_NtBN_7RawReprEs_0EBP_, symObjAddr: 0xA60, symBinAddr: 0x309E4, symSize: 0xB0 }
  - { offset: 0x70F1E, size: 0x8, addend: 0x0, symName: __RINvMNtCs85QQFkKrybG_4core6resultINtB3_6ResultINtNtNtCs4oBEgEuuqV9_15zerocopy_derive4repr4util7SpannedINtBN_9AlignReprINtNtNtB5_3num7nonzero7NonZeromEEEINtBN_16FromRawReprErrorNtBN_20UnsupportedReprErrorEE7map_errIB2r_IBJ_B2O_EENCINvMBL_BI_8try_fromB2O_NtBN_7RawReprEs_0EBP_, symObjAddr: 0xB10, symBinAddr: 0x30A94, symSize: 0xA4 }
  - { offset: 0x70FB1, size: 0x8, addend: 0x0, symName: __RINvMNtCs85QQFkKrybG_4core6resultINtB3_6ResultINtNtNtCs4oBEgEuuqV9_15zerocopy_derive4repr4util7SpannedINtBN_9AlignReprNtNtB5_7convert10InfallibleEEINtBN_16FromRawReprErrorNtBN_20UnsupportedReprErrorEE7map_errIB2m_IBJ_B2J_EENCINvMBL_BI_8try_fromB2J_NtBN_7RawReprEs_0EBP_, symObjAddr: 0xBB4, symBinAddr: 0x30B38, symSize: 0xA4 }
  - { offset: 0x71043, size: 0x8, addend: 0x0, symName: __RINvMNtCs85QQFkKrybG_4core6resultINtB3_6ResultINtNtNtCs4oBEgEuuqV9_15zerocopy_derive4repr4util7SpannedNtBN_7RawReprENtBN_21UnrecognizedReprErrorE7map_errIBJ_B1Q_ENCNvMsc_BN_B1C_10from_attrss_0EBP_, symObjAddr: 0xC58, symBinAddr: 0x30BDC, symSize: 0x88 }
  - { offset: 0x710EE, size: 0x8, addend: 0x0, symName: __RINvMNtCs85QQFkKrybG_4core6resultINtB3_6ResultNtNtB5_7convert10InfallibleNtNtCs4oBEgEuuqV9_15zerocopy_derive4repr20UnsupportedReprErrorE3mapINtB1b_12CompoundReprBI_ENcNtB2e_9Primitive0EB1d_, symObjAddr: 0xCE0, symBinAddr: 0x30C64, symSize: 0x20 }
  - { offset: 0x7117A, size: 0x8, addend: 0x0, symName: __RINvMNtCs85QQFkKrybG_4core6resultINtB3_6ResultNtNtB5_7convert10InfallibleNtNtCs4oBEgEuuqV9_15zerocopy_derive4repr20UnsupportedReprErrorE3mapINtB1b_9AlignReprBI_ENcNtB2e_s_6Packed0EB1d_, symObjAddr: 0xD00, symBinAddr: 0x30C84, symSize: 0x1C }
  - { offset: 0x71206, size: 0x8, addend: 0x0, symName: __RINvMNtCs85QQFkKrybG_4core6resultINtB3_6ResultNtNtCs4oBEgEuuqV9_15zerocopy_derive4repr13PrimitiveReprNtBK_20UnsupportedReprErrorE3mapINtBK_12CompoundReprBI_ENcNtB27_9Primitive0EBM_, symObjAddr: 0xD1C, symBinAddr: 0x30CA0, symSize: 0x58 }
  - { offset: 0x71298, size: 0x8, addend: 0x0, symName: __RINvMNtCs85QQFkKrybG_4core6resultINtB3_6ResultNtNtCs4oBEgEuuqV9_15zerocopy_derive4repr7RawReprNtBK_21UnrecognizedReprErrorE3mapINtNtBK_4util7SpannedBI_ENCNvMsc_BK_BI_10from_attrs0EBM_, symObjAddr: 0xD74, symBinAddr: 0x30CF8, symSize: 0x88 }
  - { offset: 0x7132A, size: 0x8, addend: 0x0, symName: __RINvMNtCs85QQFkKrybG_4core6resultINtB3_6ResultNtNtCscwCr4GBBztI_3syn3lit6LitIntNtNtBM_5error5ErrorE8and_thenINtNtNtB5_3num7nonzero7NonZeromENCNCNvMsc_NtCs4oBEgEuuqV9_15zerocopy_derive4reprNtB2o_7RawRepr9from_meta00EB2q_, symObjAddr: 0xDFC, symBinAddr: 0x30D80, symSize: 0x7C }
  - { offset: 0x718CF, size: 0x8, addend: 0x0, symName: __RINvMNtCs85QQFkKrybG_4core6resultINtB3_6ResultRNtNtCscwCr4GBBztI_3syn5parse11ParseBufferNtNtBN_5error5ErrorE8and_thenNtNtBN_4expr4ExprNCNCNvCs4oBEgEuuqV9_15zerocopy_derive22extract_zerocopy_crate00EB2e_, symObjAddr: 0xE78, symBinAddr: 0x30DFC, symSize: 0x84 }
  - { offset: 0x7196F, size: 0x8, addend: 0x0, symName: __RINvMNtCs85QQFkKrybG_4core6resultINtB3_6ResultjNtNtCscwCr4GBBztI_3syn5error5ErrorE3mapbNCNvCs4oBEgEuuqV9_15zerocopy_derive26derive_try_from_bytes_enum0EB1r_, symObjAddr: 0xEFC, symBinAddr: 0x30E80, symSize: 0x94 }
  - { offset: 0x71A09, size: 0x8, addend: 0x0, symName: __RINvMNtCs85QQFkKrybG_4core6resultINtB3_6ResultoNtNtNtB5_3num5error13ParseIntErrorE7map_errNtNtCscwCr4GBBztI_3syn5error5ErrorNCINvMs3_NtB1u_3litNtB27_6LitInt12base10_parseoE0ECs4oBEgEuuqV9_15zerocopy_derive, symObjAddr: 0xF90, symBinAddr: 0x30F14, symSize: 0x88 }
  - { offset: 0x71B3E, size: 0x8, addend: 0x0, symName: __RINvMs2_NtNtCswz7ZwgBZOU_3std6thread5localINtB6_8LocalKeyINtNtCs85QQFkKrybG_4core4cell4CellPuEE4withNCNvMs3_B6_BE_7replace0B1r_ECs4oBEgEuuqV9_15zerocopy_derive, symObjAddr: 0x1064, symBinAddr: 0x30FE8, symSize: 0x54 }
  - { offset: 0x71BF7, size: 0x8, addend: 0x0, symName: __RINvMs2_NtNtCswz7ZwgBZOU_3std6thread5localINtB6_8LocalKeyINtNtCs85QQFkKrybG_4core4cell4CellPuEE8try_withNCNvMs3_B6_BE_7replace0B1r_ECs4oBEgEuuqV9_15zerocopy_derive, symObjAddr: 0x10B8, symBinAddr: 0x3103C, symSize: 0xE4 }
  - { offset: 0x71D42, size: 0x8, addend: 0x0, symName: __RINvNtCshi3DZH3dfhk_5quote9___private8get_spanNtCsfwj6t2KTYdc_11proc_macro24SpanECs4oBEgEuuqV9_15zerocopy_derive, symObjAddr: 0x3C5C, symBinAddr: 0x33B98, symSize: 0x20 }
  - { offset: 0x71DB8, size: 0x8, addend: 0x0, symName: __RNvXs5_NtCshi3DZH3dfhk_5quote9___privateINtB5_9RepInterpNtCsfwj6t2KTYdc_11proc_macro211TokenStreamENtNtB7_9to_tokens8ToTokens9to_tokensCs4oBEgEuuqV9_15zerocopy_derive, symObjAddr: 0x5608, symBinAddr: 0x35544, symSize: 0x3C }
  - { offset: 0x71DF7, size: 0x8, addend: 0x0, symName: __RNvXs5_NtCshi3DZH3dfhk_5quote9___privateINtB5_9RepInterpNtCsfwj6t2KTYdc_11proc_macro25IdentENtNtB7_9to_tokens8ToTokens9to_tokensCs4oBEgEuuqV9_15zerocopy_derive, symObjAddr: 0x5644, symBinAddr: 0x35580, symSize: 0x3C }
  - { offset: 0x71E36, size: 0x8, addend: 0x0, symName: __RNvXs5_NtCshi3DZH3dfhk_5quote9___privateINtB5_9RepInterpNtNtCscwCr4GBBztI_3syn4path4PathENtNtB7_9to_tokens8ToTokens9to_tokensCs4oBEgEuuqV9_15zerocopy_derive, symObjAddr: 0x5680, symBinAddr: 0x355BC, symSize: 0x3C }
  - { offset: 0x71E75, size: 0x8, addend: 0x0, symName: __RNvXs5_NtCshi3DZH3dfhk_5quote9___privateINtB5_9RepInterpRNtCsfwj6t2KTYdc_11proc_macro211TokenStreamENtNtB7_9to_tokens8ToTokens9to_tokensCs4oBEgEuuqV9_15zerocopy_derive, symObjAddr: 0x56BC, symBinAddr: 0x355F8, symSize: 0x3C }
  - { offset: 0x71EB4, size: 0x8, addend: 0x0, symName: __RNvXs5_NtCshi3DZH3dfhk_5quote9___privateINtB5_9RepInterpRNtCsfwj6t2KTYdc_11proc_macro25IdentENtNtB7_9to_tokens8ToTokens9to_tokensCs4oBEgEuuqV9_15zerocopy_derive, symObjAddr: 0x56F8, symBinAddr: 0x35634, symSize: 0x3C }
  - { offset: 0x71EF3, size: 0x8, addend: 0x0, symName: __RNvXs5_NtCshi3DZH3dfhk_5quote9___privateINtB5_9RepInterpRNtNtCscwCr4GBBztI_3syn2ty4TypeENtNtB7_9to_tokens8ToTokens9to_tokensCs4oBEgEuuqV9_15zerocopy_derive, symObjAddr: 0x5734, symBinAddr: 0x35670, symSize: 0x3C }
  - { offset: 0x71F32, size: 0x8, addend: 0x0, symName: __RNvXs5_NtCshi3DZH3dfhk_5quote9___privateINtB5_9RepInterpRNtNtCscwCr4GBBztI_3syn4path4PathENtNtB7_9to_tokens8ToTokens9to_tokensCs4oBEgEuuqV9_15zerocopy_derive, symObjAddr: 0x5770, symBinAddr: 0x356AC, symSize: 0x3C }
  - { offset: 0x71F71, size: 0x8, addend: 0x0, symName: __RNvXs5_NtCshi3DZH3dfhk_5quote9___privateINtB5_9RepInterpRNtNtCscwCr4GBBztI_3syn8generics12TypeGenericsENtNtB7_9to_tokens8ToTokens9to_tokensCs4oBEgEuuqV9_15zerocopy_derive, symObjAddr: 0x57AC, symBinAddr: 0x356E8, symSize: 0x3C }
  - { offset: 0x71FB0, size: 0x8, addend: 0x0, symName: __RNvXs5_NtCshi3DZH3dfhk_5quote9___privateINtB5_9RepInterpRNtNtCscwCr4GBBztI_3syn8generics14WherePredicateENtNtB7_9to_tokens8ToTokens9to_tokensCs4oBEgEuuqV9_15zerocopy_derive, symObjAddr: 0x57E8, symBinAddr: 0x35724, symSize: 0x3C }
  - { offset: 0x71FEF, size: 0x8, addend: 0x0, symName: __RNvXs5_NtCshi3DZH3dfhk_5quote9___privateINtB5_9RepInterpRRNtNtCscwCr4GBBztI_3syn2ty4TypeENtNtB7_9to_tokens8ToTokens9to_tokensCs4oBEgEuuqV9_15zerocopy_derive, symObjAddr: 0x5824, symBinAddr: 0x35760, symSize: 0x3C }
  - { offset: 0x72034, size: 0x8, addend: 0x0, symName: __RNvYINtNtCshi3DZH3dfhk_5quote9___private11HasIteratorKb1_EINtB5_16CheckHasIteratorKBQ_E5checkCs4oBEgEuuqV9_15zerocopy_derive, symObjAddr: 0x7644, symBinAddr: 0x37580, symSize: 0x1C }
  - { offset: 0x72070, size: 0x8, addend: 0x0, symName: __RNvYINtNtNtNtCs85QQFkKrybG_4core4iter8adapters10filter_map9FilterMapINtNtCscwCr4GBBztI_3syn10punctuated4IterNtNtB19_4data7VariantENCNvNtCs4oBEgEuuqV9_15zerocopy_derive4enum23generate_variants_union0ENtNtNtCshi3DZH3dfhk_5quote9___private3ext14RepIteratorExt15quote_into_iterB2a_, symObjAddr: 0x7660, symBinAddr: 0x3759C, symSize: 0x28 }
  - { offset: 0x720A5, size: 0x8, addend: 0x0, symName: __RNvYINtNtNtNtCs85QQFkKrybG_4core4iter8adapters10filter_map9FilterMapINtNtCscwCr4GBBztI_3syn10punctuated4IterNtNtB19_4data7VariantENCNvNtCs4oBEgEuuqV9_15zerocopy_derive4enum24generate_variant_structs0ENtNtNtCshi3DZH3dfhk_5quote9___private3ext14RepIteratorExt15quote_into_iterB2a_, symObjAddr: 0x7688, symBinAddr: 0x375C4, symSize: 0x40 }
  - { offset: 0x720E1, size: 0x8, addend: 0x0, symName: __RNvYNtCsfwj6t2KTYdc_11proc_macro25IdentNtNtNtCshi3DZH3dfhk_5quote9___private3ext14RepToTokensExt15quote_into_iterCs4oBEgEuuqV9_15zerocopy_derive, symObjAddr: 0x78A0, symBinAddr: 0x377A4, symSize: 0x24 }
  - { offset: 0x72116, size: 0x8, addend: 0x0, symName: __RNvYNtCsfwj6t2KTYdc_11proc_macro25IdentNtNtNtCshi3DZH3dfhk_5quote9___private3ext14RepToTokensExt4nextCs4oBEgEuuqV9_15zerocopy_derive, symObjAddr: 0x78C4, symBinAddr: 0x377C8, symSize: 0x24 }
  - { offset: 0x7214B, size: 0x8, addend: 0x0, symName: __RNvYNtNtCscwCr4GBBztI_3syn8generics12TypeGenericsNtNtNtCshi3DZH3dfhk_5quote9___private3ext14RepToTokensExt15quote_into_iterCs4oBEgEuuqV9_15zerocopy_derive, symObjAddr: 0x78E8, symBinAddr: 0x377EC, symSize: 0x24 }
  - { offset: 0x72180, size: 0x8, addend: 0x0, symName: __RNvYNtNtCscwCr4GBBztI_3syn8generics12TypeGenericsNtNtNtCshi3DZH3dfhk_5quote9___private3ext14RepToTokensExt4nextCs4oBEgEuuqV9_15zerocopy_derive, symObjAddr: 0x790C, symBinAddr: 0x37810, symSize: 0x24 }
  - { offset: 0x72345, size: 0x8, addend: 0x0, symName: __RINvNvXNtCshi3DZH3dfhk_5quote3extNtCsfwj6t2KTYdc_11proc_macro211TokenStreamNtB5_14TokenStreamExt10append_all13do_append_allNtNtBx_12token_stream8IntoIterECs4oBEgEuuqV9_15zerocopy_derive, symObjAddr: 0x3C7C, symBinAddr: 0x33BB8, symSize: 0x10C }
  - { offset: 0x723B8, size: 0x8, addend: 0x0, symName: __RINvXNtCshi3DZH3dfhk_5quote3extNtCsfwj6t2KTYdc_11proc_macro211TokenStreamNtB3_14TokenStreamExt10append_allBt_ECs4oBEgEuuqV9_15zerocopy_derive, symObjAddr: 0x3D88, symBinAddr: 0x33CC4, symSize: 0x50 }
  - { offset: 0x72404, size: 0x8, addend: 0x0, symName: __RNvXNtCshi3DZH3dfhk_5quote9to_tokensRNtCsfwj6t2KTYdc_11proc_macro211TokenStreamNtB2_8ToTokens9to_tokensCs4oBEgEuuqV9_15zerocopy_derive, symObjAddr: 0x5128, symBinAddr: 0x35064, symSize: 0x40 }
  - { offset: 0x72443, size: 0x8, addend: 0x0, symName: __RNvXNtCshi3DZH3dfhk_5quote9to_tokensRNtCsfwj6t2KTYdc_11proc_macro25IdentNtB2_8ToTokens9to_tokensCs4oBEgEuuqV9_15zerocopy_derive, symObjAddr: 0x5168, symBinAddr: 0x350A4, symSize: 0x40 }
  - { offset: 0x72482, size: 0x8, addend: 0x0, symName: __RNvXNtCshi3DZH3dfhk_5quote9to_tokensRNtNtCscwCr4GBBztI_3syn8generics11WhereClauseNtB2_8ToTokens9to_tokensCs4oBEgEuuqV9_15zerocopy_derive, symObjAddr: 0x51A8, symBinAddr: 0x350E4, symSize: 0x40 }
  - { offset: 0x724C1, size: 0x8, addend: 0x0, symName: __RNvXNtCshi3DZH3dfhk_5quote9to_tokensRNtNtCscwCr4GBBztI_3syn8generics12TypeGenericsNtB2_8ToTokens9to_tokensCs4oBEgEuuqV9_15zerocopy_derive, symObjAddr: 0x51E8, symBinAddr: 0x35124, symSize: 0x40 }
  - { offset: 0x72500, size: 0x8, addend: 0x0, symName: __RNvXNtCshi3DZH3dfhk_5quote9to_tokensRNtNtCscwCr4GBBztI_3syn8generics8GenericsNtB2_8ToTokens9to_tokensCs4oBEgEuuqV9_15zerocopy_derive, symObjAddr: 0x5228, symBinAddr: 0x35164, symSize: 0x40 }
  - { offset: 0x72545, size: 0x8, addend: 0x0, symName: __RNvYNtCsfwj6t2KTYdc_11proc_macro25IdentNtNtCshi3DZH3dfhk_5quote9to_tokens8ToTokens15to_token_streamCs4oBEgEuuqV9_15zerocopy_derive, symObjAddr: 0x7814, symBinAddr: 0x37718, symSize: 0x8C }
  - { offset: 0x7258F, size: 0x8, addend: 0x0, symName: __RNvYRNtCsfwj6t2KTYdc_11proc_macro211TokenStreamNtNtCshi3DZH3dfhk_5quote9to_tokens8ToTokens15to_token_streamCs4oBEgEuuqV9_15zerocopy_derive, symObjAddr: 0x7E0C, symBinAddr: 0x37D10, symSize: 0x8C }
  - { offset: 0x725D9, size: 0x8, addend: 0x0, symName: __RNvYRNtCsfwj6t2KTYdc_11proc_macro211TokenStreamNtNtCshi3DZH3dfhk_5quote9to_tokens8ToTokens17into_token_streamCs4oBEgEuuqV9_15zerocopy_derive, symObjAddr: 0x7E98, symBinAddr: 0x37D9C, symSize: 0x54 }
  - { offset: 0x7261A, size: 0x8, addend: 0x0, symName: __RNvXs0_NtCshi3DZH3dfhk_5quote7spannedNtCsfwj6t2KTYdc_11proc_macro211TokenStreamNtB5_7Spanned6___spanCs4oBEgEuuqV9_15zerocopy_derive, symObjAddr: 0x52F8, symBinAddr: 0x35234, symSize: 0x44 }
  - { offset: 0x7273D, size: 0x8, addend: 0x0, symName: __RNvMNtCs85QQFkKrybG_4core6resultINtB2_6ResultNtCsfwj6t2KTYdc_11proc_macro211TokenStreamNtNtCscwCr4GBBztI_3syn5error5ErrorE6expectCs4oBEgEuuqV9_15zerocopy_derive, symObjAddr: 0x413C, symBinAddr: 0x34078, symSize: 0xC8 }
  - { offset: 0x727A0, size: 0x8, addend: 0x0, symName: __RNvMNtCs85QQFkKrybG_4core6resultINtB2_6ResultbNtNtCscwCr4GBBztI_3syn5error5ErrorE9unwrap_orCs4oBEgEuuqV9_15zerocopy_derive, symObjAddr: 0x4204, symBinAddr: 0x34140, symSize: 0x98 }
  - { offset: 0x72803, size: 0x8, addend: 0x0, symName: __RNvMNtCs85QQFkKrybG_4core6resultINtB2_6ResultoNtNtCscwCr4GBBztI_3syn5error5ErrorE2okCs4oBEgEuuqV9_15zerocopy_derive, symObjAddr: 0x429C, symBinAddr: 0x341D8, symSize: 0x90 }
  - { offset: 0x728A9, size: 0x8, addend: 0x0, symName: __RNvMs0_NtCsdFlNUEO95cG_5alloc7raw_vecINtB5_6RawVecINtNtNtCs4oBEgEuuqV9_15zerocopy_derive4repr4util7SpannedNtBR_7RawReprEE8grow_oneBT_, symObjAddr: 0x432C, symBinAddr: 0x34268, symSize: 0x90 }
  - { offset: 0x7295B, size: 0x8, addend: 0x0, symName: __RNvMs0_NtCsdFlNUEO95cG_5alloc7raw_vecINtB5_6RawVecNtNtCscwCr4GBBztI_3syn4attr4MetaE8grow_oneCs4oBEgEuuqV9_15zerocopy_derive, symObjAddr: 0x43BC, symBinAddr: 0x342F8, symSize: 0x90 }
  - { offset: 0x72A0D, size: 0x8, addend: 0x0, symName: __RNvMs0_NtCsdFlNUEO95cG_5alloc7raw_vecINtB5_6RawVecNtNtCscwCr4GBBztI_3syn8generics12GenericParamE8grow_oneCs4oBEgEuuqV9_15zerocopy_derive, symObjAddr: 0x444C, symBinAddr: 0x34388, symSize: 0x90 }
  - { offset: 0x72ADD, size: 0x8, addend: 0x0, symName: __RNvMs0_NtCsdFlNUEO95cG_5alloc7raw_vecINtB5_6RawVecTNtNtCscwCr4GBBztI_3syn4attr4MetaNtNtBR_5token5CommaEE8grow_oneCs4oBEgEuuqV9_15zerocopy_derive, symObjAddr: 0x44DC, symBinAddr: 0x34418, symSize: 0x90 }
  - { offset: 0x72B57, size: 0x8, addend: 0x0, symName: __RNvMs3_NtCshi3DZH3dfhk_5quote9___privateINtB5_9RepInterpRNtNtCscwCr4GBBztI_3syn4path4PathE4nextCs4oBEgEuuqV9_15zerocopy_derive, symObjAddr: 0x456C, symBinAddr: 0x344A8, symSize: 0x24 }
  - { offset: 0x72CA2, size: 0x8, addend: 0x0, symName: __RNvMs6_NtNtNtCs85QQFkKrybG_4core5array4iter10iter_innerINtB5_15PolymorphicIterSINtNtNtBb_3mem12maybe_uninit11MaybeUninitNtCsfwj6t2KTYdc_11proc_macro211TokenStreamEE4nextCs4oBEgEuuqV9_15zerocopy_derive, symObjAddr: 0x4590, symBinAddr: 0x344CC, symSize: 0x1AC }
  - { offset: 0x74371, size: 0x8, addend: 0x0, symName: __RINvCscwCr4GBBztI_3syn5parseNtNtB2_6derive11DeriveInputECs4oBEgEuuqV9_15zerocopy_derive, symObjAddr: 0x0, symBinAddr: 0x37DF0, symSize: 0x30 }
  - { offset: 0x74B5C, size: 0x8, addend: 0x0, symName: __RNvXs5_NtNtCs9bTl5rSDVcL_10proc_macro6bridge6bufferNtB5_6BufferNtNtNtCs85QQFkKrybG_4core3ops4drop4Drop4dropCs4oBEgEuuqV9_15zerocopy_derive, symObjAddr: 0x4DF0, symBinAddr: 0x3CBE0, symSize: 0x8C }
  - { offset: 0x7575F, size: 0x8, addend: 0x0, symName: __RNCINvMNtNtCs4oBEgEuuqV9_15zerocopy_derive4repr4utilINtB5_7SpannedINtB7_12CompoundReprNtB7_13PrimitiveReprEE8try_fromNtB7_20UnsupportedReprErrorNtB7_7RawReprE0B9_, symObjAddr: 0x7A4, symBinAddr: 0x38594, symSize: 0x2C }
  - { offset: 0x757B9, size: 0x8, addend: 0x0, symName: __RNCINvMNtNtCs4oBEgEuuqV9_15zerocopy_derive4repr4utilINtB5_7SpannedINtB7_12CompoundReprNtB7_13PrimitiveReprEE8try_fromNtB7_20UnsupportedReprErrorNtB7_7RawReprEs_0B9_, symObjAddr: 0x7D0, symBinAddr: 0x385C0, symSize: 0x80 }
  - { offset: 0x75831, size: 0x8, addend: 0x0, symName: __RNCINvMNtNtCs4oBEgEuuqV9_15zerocopy_derive4repr4utilINtB5_7SpannedINtB7_12CompoundReprNtNtCs85QQFkKrybG_4core7convert10InfallibleEE8try_fromNtB7_20UnsupportedReprErrorNtB7_7RawReprE0B9_, symObjAddr: 0x850, symBinAddr: 0x38640, symSize: 0x2C }
  - { offset: 0x7588B, size: 0x8, addend: 0x0, symName: __RNCINvMNtNtCs4oBEgEuuqV9_15zerocopy_derive4repr4utilINtB5_7SpannedINtB7_12CompoundReprNtNtCs85QQFkKrybG_4core7convert10InfallibleEE8try_fromNtB7_20UnsupportedReprErrorNtB7_7RawReprEs_0B9_, symObjAddr: 0x87C, symBinAddr: 0x3866C, symSize: 0x80 }
  - { offset: 0x75903, size: 0x8, addend: 0x0, symName: __RNCINvMNtNtCs4oBEgEuuqV9_15zerocopy_derive4repr4utilINtB5_7SpannedINtB7_9AlignReprINtNtNtCs85QQFkKrybG_4core3num7nonzero7NonZeromEEE8try_fromNtB7_20UnsupportedReprErrorNtB7_7RawReprE0B9_, symObjAddr: 0x8FC, symBinAddr: 0x386EC, symSize: 0x40 }
  - { offset: 0x7595D, size: 0x8, addend: 0x0, symName: __RNCINvMNtNtCs4oBEgEuuqV9_15zerocopy_derive4repr4utilINtB5_7SpannedINtB7_9AlignReprINtNtNtCs85QQFkKrybG_4core3num7nonzero7NonZeromEEE8try_fromNtB7_20UnsupportedReprErrorNtB7_7RawReprEs_0B9_, symObjAddr: 0x93C, symBinAddr: 0x3872C, symSize: 0x80 }
  - { offset: 0x759D5, size: 0x8, addend: 0x0, symName: __RNCINvMNtNtCs4oBEgEuuqV9_15zerocopy_derive4repr4utilINtB5_7SpannedINtB7_9AlignReprNtNtCs85QQFkKrybG_4core7convert10InfallibleEE8try_fromNtB7_20UnsupportedReprErrorNtB7_7RawReprE0B9_, symObjAddr: 0x9BC, symBinAddr: 0x387AC, symSize: 0x34 }
  - { offset: 0x75A2F, size: 0x8, addend: 0x0, symName: __RNCINvMNtNtCs4oBEgEuuqV9_15zerocopy_derive4repr4utilINtB5_7SpannedINtB7_9AlignReprNtNtCs85QQFkKrybG_4core7convert10InfallibleEE8try_fromNtB7_20UnsupportedReprErrorNtB7_7RawReprEs_0B9_, symObjAddr: 0x9F0, symBinAddr: 0x387E0, symSize: 0x80 }
  - { offset: 0x75FFB, size: 0x8, addend: 0x0, symName: __RNvXs2_NtCs4oBEgEuuqV9_15zerocopy_derive4reprINtNtB5_4util7SpannedINtB5_12CompoundReprNtB5_13PrimitiveReprEENtNtCshi3DZH3dfhk_5quote9to_tokens8ToTokens9to_tokensB7_, symObjAddr: 0x28CC, symBinAddr: 0x3A6BC, symSize: 0x41C }
  - { offset: 0x76183, size: 0x8, addend: 0x0, symName: __RNvXs2_NtCs4oBEgEuuqV9_15zerocopy_derive4reprINtNtB5_4util7SpannedINtB5_12CompoundReprNtNtCs85QQFkKrybG_4core7convert10InfallibleEENtNtCshi3DZH3dfhk_5quote9to_tokens8ToTokens9to_tokensB7_, symObjAddr: 0x2CE8, symBinAddr: 0x3AAD8, symSize: 0x404 }
  - { offset: 0x76311, size: 0x8, addend: 0x0, symName: __RNvXs3_NtCs4oBEgEuuqV9_15zerocopy_derive4reprINtNtB5_4util7SpannedNtB5_13PrimitiveReprENtNtCshi3DZH3dfhk_5quote9to_tokens8ToTokens9to_tokens, symObjAddr: 0x30EC, symBinAddr: 0x3AEDC, symSize: 0x1508 }
  - { offset: 0x76A93, size: 0x8, addend: 0x0, symName: __RNvXs4_NtCs4oBEgEuuqV9_15zerocopy_derive4reprINtNtB5_4util7SpannedINtB5_9AlignReprINtNtNtCs85QQFkKrybG_4core3num7nonzero7NonZeromEEENtNtCshi3DZH3dfhk_5quote9to_tokens8ToTokens9to_tokensB7_, symObjAddr: 0x4AF4, symBinAddr: 0x3C8E4, symSize: 0x2FC }
  - { offset: 0x76C6F, size: 0x8, addend: 0x0, symName: __RNvXNtCs4oBEgEuuqV9_15zerocopy_derive3extNtNtCscwCr4GBBztI_3syn6derive4DataNtB2_7DataExt3tag, symObjAddr: 0x1F18, symBinAddr: 0x39D08, symSize: 0xE4 }
  - { offset: 0x76CEA, size: 0x8, addend: 0x0, symName: __RNvXNtCs4oBEgEuuqV9_15zerocopy_derive3extNtNtCscwCr4GBBztI_3syn6derive4DataNtB2_7DataExt6fields, symObjAddr: 0x1FFC, symBinAddr: 0x39DEC, symSize: 0xE4 }
  - { offset: 0x76D65, size: 0x8, addend: 0x0, symName: __RNvXNtCs4oBEgEuuqV9_15zerocopy_derive3extNtNtCscwCr4GBBztI_3syn6derive4DataNtB2_7DataExt8variants, symObjAddr: 0x20E0, symBinAddr: 0x39ED0, symSize: 0xE4 }
  - { offset: 0x76DE6, size: 0x8, addend: 0x0, symName: __RNvXs0_NtCs4oBEgEuuqV9_15zerocopy_derive3extNtNtCscwCr4GBBztI_3syn6derive8DataEnumNtB5_7DataExt3tag, symObjAddr: 0x25D0, symBinAddr: 0x3A3C0, symSize: 0x6C }
  - { offset: 0x76E12, size: 0x8, addend: 0x0, symName: __RNvXs0_NtCs4oBEgEuuqV9_15zerocopy_derive3extNtNtCscwCr4GBBztI_3syn6derive8DataEnumNtB5_7DataExt6fields, symObjAddr: 0x263C, symBinAddr: 0x3A42C, symSize: 0x50 }
  - { offset: 0x76E3E, size: 0x8, addend: 0x0, symName: __RNvXs0_NtCs4oBEgEuuqV9_15zerocopy_derive3extNtNtCscwCr4GBBztI_3syn6derive8DataEnumNtB5_7DataExt8variants, symObjAddr: 0x268C, symBinAddr: 0x3A47C, symSize: 0x44 }
  - { offset: 0x76E70, size: 0x8, addend: 0x0, symName: __RNvXs1_NtCs4oBEgEuuqV9_15zerocopy_derive3extNtNtCscwCr4GBBztI_3syn6derive9DataUnionNtB5_7DataExt3tag, symObjAddr: 0x2748, symBinAddr: 0x3A538, symSize: 0x2C }
  - { offset: 0x76E9C, size: 0x8, addend: 0x0, symName: __RNvXs1_NtCs4oBEgEuuqV9_15zerocopy_derive3extNtNtCscwCr4GBBztI_3syn6derive9DataUnionNtB5_7DataExt6fields, symObjAddr: 0x2774, symBinAddr: 0x3A564, symSize: 0x34 }
  - { offset: 0x76EC8, size: 0x8, addend: 0x0, symName: __RNvXs1_NtCs4oBEgEuuqV9_15zerocopy_derive3extNtNtCscwCr4GBBztI_3syn6derive9DataUnionNtB5_7DataExt8variants, symObjAddr: 0x27A8, symBinAddr: 0x3A598, symSize: 0x100 }
  - { offset: 0x76EFA, size: 0x8, addend: 0x0, symName: __RNvXs_NtCs4oBEgEuuqV9_15zerocopy_derive3extNtNtCscwCr4GBBztI_3syn6derive10DataStructNtB4_7DataExt3tag, symObjAddr: 0x4E7C, symBinAddr: 0x3CC6C, symSize: 0x2C }
  - { offset: 0x76F26, size: 0x8, addend: 0x0, symName: __RNvXs_NtCs4oBEgEuuqV9_15zerocopy_derive3extNtNtCscwCr4GBBztI_3syn6derive10DataStructNtB4_7DataExt6fields, symObjAddr: 0x4EA8, symBinAddr: 0x3CC98, symSize: 0x34 }
  - { offset: 0x76F52, size: 0x8, addend: 0x0, symName: __RNvXs_NtCs4oBEgEuuqV9_15zerocopy_derive3extNtNtCscwCr4GBBztI_3syn6derive10DataStructNtB4_7DataExt8variants, symObjAddr: 0x4EDC, symBinAddr: 0x3CCCC, symSize: 0x100 }
  - { offset: 0x77471, size: 0x8, addend: 0x0, symName: __RNvNvMs1_NtNtCs85QQFkKrybG_4core3ptr8non_nullINtB7_7NonNullpE13new_unchecked18precondition_checkCs4oBEgEuuqV9_15zerocopy_derive, symObjAddr: 0x17D8, symBinAddr: 0x395C8, symSize: 0xA4 }
  - { offset: 0x77F3A, size: 0x8, addend: 0x0, symName: __RNvNvNtCs85QQFkKrybG_4core3ptr19copy_nonoverlapping18precondition_checkCs4oBEgEuuqV9_15zerocopy_derive, symObjAddr: 0x187C, symBinAddr: 0x3966C, symSize: 0x36C }
  - { offset: 0x78D4C, size: 0x8, addend: 0x0, symName: __RNvXs1_NtCs85QQFkKrybG_4core7convertINtNtNtCs4oBEgEuuqV9_15zerocopy_derive4repr4util7SpannedNtBD_14FromAttrsErrorEINtB5_4IntoNtNtCscwCr4GBBztI_3syn5error5ErrorE4intoBF_, symObjAddr: 0x28A8, symBinAddr: 0x3A698, symSize: 0x24 }
  - { offset: 0x7B10A, size: 0x8, addend: 0x0, symName: __RNvXsn_NtNtNtCs85QQFkKrybG_4core4iter8adapters7flattenRNtNtCscwCr4GBBztI_3syn4data6FieldsNtB5_21ConstSizeIntoIterator4sizeCs4oBEgEuuqV9_15zerocopy_derive, symObjAddr: 0x5518, symBinAddr: 0x3D308, symSize: 0x18 }
  - { offset: 0x7B220, size: 0x8, addend: 0x0, symName: __RNCINvNvNtNtNtNtCs85QQFkKrybG_4core4iter6traits8iterator8Iterator8find_map5checkRNtNtCscwCr4GBBztI_3syn4data7VariantNtCsfwj6t2KTYdc_11proc_macro211TokenStreamQNCNvNtCs4oBEgEuuqV9_15zerocopy_derive4enum23generate_variants_union0E0B2D_, symObjAddr: 0xA70, symBinAddr: 0x38860, symSize: 0x84 }
  - { offset: 0x7B2A3, size: 0x8, addend: 0x0, symName: __RNCINvNvNtNtNtNtCs85QQFkKrybG_4core4iter6traits8iterator8Iterator8find_map5checkRNtNtCscwCr4GBBztI_3syn4data7VariantNtCsfwj6t2KTYdc_11proc_macro211TokenStreamQNCNvNtCs4oBEgEuuqV9_15zerocopy_derive4enum24generate_variant_structs0E0B2D_, symObjAddr: 0xAF4, symBinAddr: 0x388E4, symSize: 0x84 }
  - { offset: 0x7B332, size: 0x8, addend: 0x0, symName: __RNCINvNvNtNtNtNtCs85QQFkKrybG_4core4iter6traits8iterator8Iterator8for_each4callNtCs9bTl5rSDVcL_10proc_macro11TokenStreamNCINvXsj_B1h_B1f_INtNtBa_7collect6ExtendB1f_E6extendINtNtNtBc_8adapters3map3MapIB2L_INtNtNtBe_5array4iter8IntoIterNtCsfwj6t2KTYdc_11proc_macro211TokenStreamKj2_ENCINvXs7_B3M_B3K_INtB2e_12FromIteratorB3K_E9from_iterB3g_E0ENCINvXs6_NtB3M_3impNtB5C_11TokenStreamIB4N_B5M_E9from_iterB3b_E0EE0E0Cs4oBEgEuuqV9_15zerocopy_derive, symObjAddr: 0xB78, symBinAddr: 0x38968, symSize: 0x28 }
  - { offset: 0x7B38A, size: 0x8, addend: 0x0, symName: __RNCINvNvNtNtNtNtCs85QQFkKrybG_4core4iter6traits8iterator8Iterator8for_each4callNtCsfwj6t2KTYdc_11proc_macro25IdentNCINvMsi_NtCsdFlNUEO95cG_5alloc3vecINtB1X_3VecB1f_E14extend_trustedINtNtNtBc_8adapters3map3MapINtNtNtBe_5slice4iter4IterTRNtNtCscwCr4GBBztI_3syn11restriction10VisibilityNtB1h_11TokenStreamRNtNtB3Q_2ty4TypeEENCNvCs4oBEgEuuqV9_15zerocopy_derive25derive_known_layout_inners5_0EE0E0B5d_, symObjAddr: 0xBA0, symBinAddr: 0x38990, symSize: 0x3C }
  - { offset: 0x7B3E3, size: 0x8, addend: 0x0, symName: __RNCINvNvNtNtNtNtCs85QQFkKrybG_4core4iter6traits8iterator8Iterator8for_each4callNtNtCscwCr4GBBztI_3syn8generics14WherePredicateNCINvMsi_NtCsdFlNUEO95cG_5alloc3vecINtB29_3VecB1f_E14extend_trustedINtNtNtBc_8adapters3map3MapINtNtNtBe_5slice4iter4IterTRNtNtB1j_11restriction10VisibilityNtCsfwj6t2KTYdc_11proc_macro211TokenStreamRNtNtB1j_2ty4TypeEENCNvMs5_Cs4oBEgEuuqV9_15zerocopy_deriveINtB5C_16ImplBlockBuilderNtNtB1j_6derive10DataStructE5build0EE0E0B5C_, symObjAddr: 0xBDC, symBinAddr: 0x389CC, symSize: 0x48 }
  - { offset: 0x7B43C, size: 0x8, addend: 0x0, symName: __RNCINvNvNtNtNtNtCs85QQFkKrybG_4core4iter6traits8iterator8Iterator8for_each4callNtNtCscwCr4GBBztI_3syn8generics14WherePredicateNCINvMsi_NtCsdFlNUEO95cG_5alloc3vecINtB29_3VecB1f_E14extend_trustedINtNtNtBc_8adapters3map3MapINtNtNtBe_5slice4iter4IterTRNtNtB1j_11restriction10VisibilityNtCsfwj6t2KTYdc_11proc_macro211TokenStreamRNtNtB1j_2ty4TypeEENCNvMs5_Cs4oBEgEuuqV9_15zerocopy_deriveINtB5C_16ImplBlockBuilderNtNtB1j_6derive4DataE5build0EE0E0B5C_, symObjAddr: 0xC24, symBinAddr: 0x38A14, symSize: 0x48 }
  - { offset: 0x7B495, size: 0x8, addend: 0x0, symName: __RNCINvNvNtNtNtNtCs85QQFkKrybG_4core4iter6traits8iterator8Iterator8for_each4callNtNtCscwCr4GBBztI_3syn8generics14WherePredicateNCINvMsi_NtCsdFlNUEO95cG_5alloc3vecINtB29_3VecB1f_E14extend_trustedINtNtNtBc_8adapters3map3MapINtNtNtBe_5slice4iter4IterTRNtNtB1j_11restriction10VisibilityNtCsfwj6t2KTYdc_11proc_macro211TokenStreamRNtNtB1j_2ty4TypeEENCNvMs5_Cs4oBEgEuuqV9_15zerocopy_deriveINtB5C_16ImplBlockBuilderNtNtB1j_6derive8DataEnumE5build0EE0E0B5C_, symObjAddr: 0xC6C, symBinAddr: 0x38A5C, symSize: 0x48 }
  - { offset: 0x7B4EE, size: 0x8, addend: 0x0, symName: __RNCINvNvNtNtNtNtCs85QQFkKrybG_4core4iter6traits8iterator8Iterator8for_each4callNtNtCscwCr4GBBztI_3syn8generics14WherePredicateNCINvMsi_NtCsdFlNUEO95cG_5alloc3vecINtB29_3VecB1f_E14extend_trustedINtNtNtBc_8adapters3map3MapINtNtNtBe_5slice4iter4IterTRNtNtB1j_11restriction10VisibilityNtCsfwj6t2KTYdc_11proc_macro211TokenStreamRNtNtB1j_2ty4TypeEENCNvMs5_Cs4oBEgEuuqV9_15zerocopy_deriveINtB5C_16ImplBlockBuilderNtNtB1j_6derive9DataUnionE5build0EE0E0B5C_, symObjAddr: 0xCB4, symBinAddr: 0x38AA4, symSize: 0x48 }
  - { offset: 0x7B56B, size: 0x8, addend: 0x0, symName: __RNCNvXs_NvNtNtNtNtCs85QQFkKrybG_4core4iter6traits8iterator8Iterator10advance_byINtNtCscwCr4GBBztI_3syn10punctuated11PrivateIterNtNtB1k_4data7VariantNtNtB1k_5token5CommaENtB6_13SpecAdvanceBy15spec_advance_by0Cs4oBEgEuuqV9_15zerocopy_derive, symObjAddr: 0xCFC, symBinAddr: 0x38AEC, symSize: 0x20 }
  - { offset: 0x7B5B8, size: 0x8, addend: 0x0, symName: __RNCNvXs_NvNtNtNtNtCs85QQFkKrybG_4core4iter6traits8iterator8Iterator10advance_byINtNtCscwCr4GBBztI_3syn10punctuated11PrivateIterNtNtB1k_8generics14WherePredicateNtNtB1k_5token5CommaENtB6_13SpecAdvanceBy15spec_advance_by0Cs4oBEgEuuqV9_15zerocopy_derive, symObjAddr: 0xD1C, symBinAddr: 0x38B0C, symSize: 0x20 }
  - { offset: 0x7B605, size: 0x8, addend: 0x0, symName: __RNCNvXs_NvNtNtNtNtCs85QQFkKrybG_4core4iter6traits8iterator8Iterator10advance_byINtNtCscwCr4GBBztI_3syn10punctuated4IterNtNtB1k_4data7VariantENtB6_13SpecAdvanceBy15spec_advance_by0Cs4oBEgEuuqV9_15zerocopy_derive, symObjAddr: 0xD3C, symBinAddr: 0x38B2C, symSize: 0x20 }
  - { offset: 0x7B710, size: 0x8, addend: 0x0, symName: __RNvYINtNtNtCsdFlNUEO95cG_5alloc3vec9into_iter8IntoIterNtNtCscwCr4GBBztI_3syn4attr4MetaENtNtNtNtCs85QQFkKrybG_4core4iter6traits10exact_size17ExactSizeIterator3lenCs4oBEgEuuqV9_15zerocopy_derive, symObjAddr: 0x5530, symBinAddr: 0x3D320, symSize: 0xC4 }
  - { offset: 0x7B80F, size: 0x8, addend: 0x0, symName: __RNvYINtNtNtCsdFlNUEO95cG_5alloc3vec9into_iter8IntoIterNtNtCscwCr4GBBztI_3syn8generics12GenericParamENtNtNtNtCs85QQFkKrybG_4core4iter6traits10exact_size17ExactSizeIterator3lenCs4oBEgEuuqV9_15zerocopy_derive, symObjAddr: 0x55F4, symBinAddr: 0x3D3E4, symSize: 0xC4 }
  - { offset: 0x7B90E, size: 0x8, addend: 0x0, symName: __RNvYINtNtNtCsdFlNUEO95cG_5alloc3vec9into_iter8IntoIterTNtNtCscwCr4GBBztI_3syn4attr4MetaNtNtBV_5token5CommaEENtNtNtNtCs85QQFkKrybG_4core4iter6traits10exact_size17ExactSizeIterator3lenCs4oBEgEuuqV9_15zerocopy_derive, symObjAddr: 0x56B8, symBinAddr: 0x3D4A8, symSize: 0xC4 }
  - { offset: 0x7BA0D, size: 0x8, addend: 0x0, symName: __RNvYINtNtNtCsdFlNUEO95cG_5alloc3vec9into_iter8IntoIterTNtNtCscwCr4GBBztI_3syn8generics12GenericParamNtNtBV_5token5CommaEENtNtNtNtCs85QQFkKrybG_4core4iter6traits10exact_size17ExactSizeIterator3lenCs4oBEgEuuqV9_15zerocopy_derive, symObjAddr: 0x577C, symBinAddr: 0x3D56C, symSize: 0xC4 }
  - { offset: 0x7BF56, size: 0x8, addend: 0x0, symName: __RINvXs_NtNtCs85QQFkKrybG_4core3ops11index_rangeNtB5_10IndexRangeNtNtNtNtB9_4iter6traits8iterator8Iterator8try_folduNCINvMs6_NtNtNtB9_5array4iter10iter_innerINtB1Y_15PolymorphicIterSINtNtNtB9_3mem12maybe_uninit11MaybeUninitNtCsfwj6t2KTYdc_11proc_macro211TokenStreamEE8try_folduNCINvMNtB7_9try_traitINtB4w_17NeverShortCircuituE10wrap_mut_2uB3y_NCINvNtNtB16_8adapters3map8map_foldB3y_NtNtB3A_3imp11TokenStreamuNCINvXs7_B3A_B3y_INtNtB14_7collect12FromIteratorB3y_E9from_iterINtB20_8IntoIterB3y_Kj2_EE0NCIB5x_B67_NtCs9bTl5rSDVcL_10proc_macro11TokenStreamuNCINvXs6_B69_B67_IB6P_B67_E9from_iterINtB5z_3MapB7y_B6x_EE0NCINvNvB10_8for_each4callB8a_NCINvXsj_B8c_B8a_INtB6R_6ExtendB8a_E6extendIB9s_B9r_B8Q_EE0E0E0E0E0B4L_E0B4L_ECs4oBEgEuuqV9_15zerocopy_derive, symObjAddr: 0x668, symBinAddr: 0x38458, symSize: 0x13C }
  - { offset: 0x7C17B, size: 0x8, addend: 0x0, symName: __RNvMNtCs85QQFkKrybG_4core5sliceSINtNtNtCs4oBEgEuuqV9_15zerocopy_derive4repr4util7SpannedNtBz_7RawReprE4iterBB_, symObjAddr: 0xD5C, symBinAddr: 0x38B4C, symSize: 0x28 }
  - { offset: 0x7C1B2, size: 0x8, addend: 0x0, symName: __RNvMNtCs85QQFkKrybG_4core5sliceSTRNtNtCscwCr4GBBztI_3syn11restriction10VisibilityNtCsfwj6t2KTYdc_11proc_macro211TokenStreamRNtNtBA_2ty4TypeE10split_lastCs4oBEgEuuqV9_15zerocopy_derive, symObjAddr: 0xD84, symBinAddr: 0x38B74, symSize: 0x84 }
  - { offset: 0x7C20D, size: 0x8, addend: 0x0, symName: __RNvMNtCs85QQFkKrybG_4core5sliceSTRNtNtCscwCr4GBBztI_3syn11restriction10VisibilityNtCsfwj6t2KTYdc_11proc_macro211TokenStreamRNtNtBA_2ty4TypeE4iterCs4oBEgEuuqV9_15zerocopy_derive, symObjAddr: 0xE08, symBinAddr: 0x38BF8, symSize: 0x28 }
  - { offset: 0x7C244, size: 0x8, addend: 0x0, symName: __RNvMNtCs85QQFkKrybG_4core5sliceSTRNtNtCscwCr4GBBztI_3syn11restriction10VisibilityNtCsfwj6t2KTYdc_11proc_macro211TokenStreamRNtNtBA_2ty4TypeE4lastCs4oBEgEuuqV9_15zerocopy_derive, symObjAddr: 0xE30, symBinAddr: 0x38C20, symSize: 0x58 }
  - { offset: 0x7C3A1, size: 0x8, addend: 0x0, symName: __RNvNvNtNtCs85QQFkKrybG_4core5slice3raw14from_raw_parts18precondition_checkCs4oBEgEuuqV9_15zerocopy_derive, symObjAddr: 0x1BE8, symBinAddr: 0x399D8, symSize: 0x1D8 }
  - { offset: 0x7C54A, size: 0x8, addend: 0x0, symName: __RNvNvXs0_NtNtCs85QQFkKrybG_4core5slice5indexjINtB7_10SliceIndexSpE13get_unchecked18precondition_checkCs4oBEgEuuqV9_15zerocopy_derive, symObjAddr: 0x1DC0, symBinAddr: 0x39BB0, symSize: 0xAC }
  - { offset: 0x7C5BE, size: 0x8, addend: 0x0, symName: __RNvNvXs1_NtNtCs85QQFkKrybG_4core5slice5indexNtNtNtBb_3ops11index_range10IndexRangeINtB7_10SliceIndexSpE17get_unchecked_mut18precondition_checkCs4oBEgEuuqV9_15zerocopy_derive, symObjAddr: 0x1E6C, symBinAddr: 0x39C5C, symSize: 0xAC }
  - { offset: 0x7C848, size: 0x8, addend: 0x0, symName: __RNvMNtNtCs85QQFkKrybG_4core4char7methodsc8to_digitCs4oBEgEuuqV9_15zerocopy_derive, symObjAddr: 0x1090, symBinAddr: 0x38E80, symSize: 0x14C }
  - { offset: 0x7CA8C, size: 0x8, addend: 0x0, symName: __RNvXsn_NtNtCs85QQFkKrybG_4core5panic11unwind_safeINtB5_16AssertUnwindSafeNCINvNtNtCs9bTl5rSDVcL_10proc_macro6bridge6client10run_clientNtB1e_11TokenStreamINtNtB9_6option6OptionB28_ENCNCINvMs6_B1e_INtB1e_6ClientNtB1i_11TokenStreamB3l_E7expand1NvCs4oBEgEuuqV9_15zerocopy_derive11derive_hashE00E0EINtNtNtB9_3ops8function6FnOnceuE9call_onceB3T_, symObjAddr: 0x5278, symBinAddr: 0x3D068, symSize: 0x38 }
  - { offset: 0x7CAE4, size: 0x8, addend: 0x0, symName: __RNvXsn_NtNtCs85QQFkKrybG_4core5panic11unwind_safeINtB5_16AssertUnwindSafeNCINvNtNtCs9bTl5rSDVcL_10proc_macro6bridge6client10run_clientNtB1e_11TokenStreamINtNtB9_6option6OptionB28_ENCNCINvMs6_B1e_INtB1e_6ClientNtB1i_11TokenStreamB3l_E7expand1NvCs4oBEgEuuqV9_15zerocopy_derive14derive_no_cellE00E0EINtNtNtB9_3ops8function6FnOnceuE9call_onceB3T_, symObjAddr: 0x52B0, symBinAddr: 0x3D0A0, symSize: 0x38 }
  - { offset: 0x7CB3C, size: 0x8, addend: 0x0, symName: __RNvXsn_NtNtCs85QQFkKrybG_4core5panic11unwind_safeINtB5_16AssertUnwindSafeNCINvNtNtCs9bTl5rSDVcL_10proc_macro6bridge6client10run_clientNtB1e_11TokenStreamINtNtB9_6option6OptionB28_ENCNCINvMs6_B1e_INtB1e_6ClientNtB1i_11TokenStreamB3l_E7expand1NvCs4oBEgEuuqV9_15zerocopy_derive15derive_as_bytesE00E0EINtNtNtB9_3ops8function6FnOnceuE9call_onceB3T_, symObjAddr: 0x52E8, symBinAddr: 0x3D0D8, symSize: 0x38 }
  - { offset: 0x7CB94, size: 0x8, addend: 0x0, symName: __RNvXsn_NtNtCs85QQFkKrybG_4core5panic11unwind_safeINtB5_16AssertUnwindSafeNCINvNtNtCs9bTl5rSDVcL_10proc_macro6bridge6client10run_clientNtB1e_11TokenStreamINtNtB9_6option6OptionB28_ENCNCINvMs6_B1e_INtB1e_6ClientNtB1i_11TokenStreamB3l_E7expand1NvCs4oBEgEuuqV9_15zerocopy_derive15derive_split_atE00E0EINtNtNtB9_3ops8function6FnOnceuE9call_onceB3T_, symObjAddr: 0x5320, symBinAddr: 0x3D110, symSize: 0x38 }
  - { offset: 0x7CBEC, size: 0x8, addend: 0x0, symName: __RNvXsn_NtNtCs85QQFkKrybG_4core5panic11unwind_safeINtB5_16AssertUnwindSafeNCINvNtNtCs9bTl5rSDVcL_10proc_macro6bridge6client10run_clientNtB1e_11TokenStreamINtNtB9_6option6OptionB28_ENCNCINvMs6_B1e_INtB1e_6ClientNtB1i_11TokenStreamB3l_E7expand1NvCs4oBEgEuuqV9_15zerocopy_derive16derive_unalignedE00E0EINtNtNtB9_3ops8function6FnOnceuE9call_onceB3T_, symObjAddr: 0x5358, symBinAddr: 0x3D148, symSize: 0x38 }
  - { offset: 0x7CC44, size: 0x8, addend: 0x0, symName: __RNvXsn_NtNtCs85QQFkKrybG_4core5panic11unwind_safeINtB5_16AssertUnwindSafeNCINvNtNtCs9bTl5rSDVcL_10proc_macro6bridge6client10run_clientNtB1e_11TokenStreamINtNtB9_6option6OptionB28_ENCNCINvMs6_B1e_INtB1e_6ClientNtB1i_11TokenStreamB3l_E7expand1NvCs4oBEgEuuqV9_15zerocopy_derive17derive_from_bytesE00E0EINtNtNtB9_3ops8function6FnOnceuE9call_onceB3T_, symObjAddr: 0x5390, symBinAddr: 0x3D180, symSize: 0x38 }
  - { offset: 0x7CC9C, size: 0x8, addend: 0x0, symName: __RNvXsn_NtNtCs85QQFkKrybG_4core5panic11unwind_safeINtB5_16AssertUnwindSafeNCINvNtNtCs9bTl5rSDVcL_10proc_macro6bridge6client10run_clientNtB1e_11TokenStreamINtNtB9_6option6OptionB28_ENCNCINvMs6_B1e_INtB1e_6ClientNtB1i_11TokenStreamB3l_E7expand1NvCs4oBEgEuuqV9_15zerocopy_derive17derive_from_zerosE00E0EINtNtNtB9_3ops8function6FnOnceuE9call_onceB3T_, symObjAddr: 0x53C8, symBinAddr: 0x3D1B8, symSize: 0x38 }
  - { offset: 0x7CCF4, size: 0x8, addend: 0x0, symName: __RNvXsn_NtNtCs85QQFkKrybG_4core5panic11unwind_safeINtB5_16AssertUnwindSafeNCINvNtNtCs9bTl5rSDVcL_10proc_macro6bridge6client10run_clientNtB1e_11TokenStreamINtNtB9_6option6OptionB28_ENCNCINvMs6_B1e_INtB1e_6ClientNtB1i_11TokenStreamB3l_E7expand1NvCs4oBEgEuuqV9_15zerocopy_derive17derive_into_bytesE00E0EINtNtNtB9_3ops8function6FnOnceuE9call_onceB3T_, symObjAddr: 0x5400, symBinAddr: 0x3D1F0, symSize: 0x38 }
  - { offset: 0x7CD4C, size: 0x8, addend: 0x0, symName: __RNvXsn_NtNtCs85QQFkKrybG_4core5panic11unwind_safeINtB5_16AssertUnwindSafeNCINvNtNtCs9bTl5rSDVcL_10proc_macro6bridge6client10run_clientNtB1e_11TokenStreamINtNtB9_6option6OptionB28_ENCNCINvMs6_B1e_INtB1e_6ClientNtB1i_11TokenStreamB3l_E7expand1NvCs4oBEgEuuqV9_15zerocopy_derive18derive_from_zeroesE00E0EINtNtNtB9_3ops8function6FnOnceuE9call_onceB3T_, symObjAddr: 0x5438, symBinAddr: 0x3D228, symSize: 0x38 }
  - { offset: 0x7CDA4, size: 0x8, addend: 0x0, symName: __RNvXsn_NtNtCs85QQFkKrybG_4core5panic11unwind_safeINtB5_16AssertUnwindSafeNCINvNtNtCs9bTl5rSDVcL_10proc_macro6bridge6client10run_clientNtB1e_11TokenStreamINtNtB9_6option6OptionB28_ENCNCINvMs6_B1e_INtB1e_6ClientNtB1i_11TokenStreamB3l_E7expand1NvCs4oBEgEuuqV9_15zerocopy_derive19derive_known_layoutE00E0EINtNtNtB9_3ops8function6FnOnceuE9call_onceB3T_, symObjAddr: 0x5470, symBinAddr: 0x3D260, symSize: 0x38 }
  - { offset: 0x7CDFC, size: 0x8, addend: 0x0, symName: __RNvXsn_NtNtCs85QQFkKrybG_4core5panic11unwind_safeINtB5_16AssertUnwindSafeNCINvNtNtCs9bTl5rSDVcL_10proc_macro6bridge6client10run_clientNtB1e_11TokenStreamINtNtB9_6option6OptionB28_ENCNCINvMs6_B1e_INtB1e_6ClientNtB1i_11TokenStreamB3l_E7expand1NvCs4oBEgEuuqV9_15zerocopy_derive21derive_try_from_bytesE00E0EINtNtNtB9_3ops8function6FnOnceuE9call_onceB3T_, symObjAddr: 0x54A8, symBinAddr: 0x3D298, symSize: 0x38 }
  - { offset: 0x7CE54, size: 0x8, addend: 0x0, symName: __RNvXsn_NtNtCs85QQFkKrybG_4core5panic11unwind_safeINtB5_16AssertUnwindSafeNCINvNtNtCs9bTl5rSDVcL_10proc_macro6bridge6client10run_clientNtB1e_11TokenStreamINtNtB9_6option6OptionB28_ENCNCINvMs6_B1e_INtB1e_6ClientNtB1i_11TokenStreamB3l_E7expand1NvCs4oBEgEuuqV9_15zerocopy_derive9derive_eqE00E0EINtNtNtB9_3ops8function6FnOnceuE9call_onceB3T_, symObjAddr: 0x54E0, symBinAddr: 0x3D2D0, symSize: 0x38 }
  - { offset: 0x7D0DE, size: 0x8, addend: 0x0, symName: __RINvCscwCr4GBBztI_3syn5parseNtNtB2_6derive11DeriveInputECs4oBEgEuuqV9_15zerocopy_derive, symObjAddr: 0x0, symBinAddr: 0x37DF0, symSize: 0x30 }
  - { offset: 0x81E5E, size: 0x8, addend: 0x0, symName: __RNvXs0_NtCscwCr4GBBztI_3syn5dropsINtB5_6NoDropDINtNtB7_10punctuated9IterTraitNtNtB7_4data7VariantEp4ItemRB1d_EL_ENtNtNtCs85QQFkKrybG_4core3ops5deref8DerefMut9deref_mutCs4oBEgEuuqV9_15zerocopy_derive, symObjAddr: 0x26D0, symBinAddr: 0x3A4C0, symSize: 0x3C }
  - { offset: 0x81E93, size: 0x8, addend: 0x0, symName: __RNvXs0_NtCscwCr4GBBztI_3syn5dropsINtB5_6NoDropDINtNtB7_10punctuated9IterTraitNtNtB7_8generics14WherePredicateEp4ItemRB1d_EL_ENtNtNtCs85QQFkKrybG_4core3ops5deref8DerefMut9deref_mutCs4oBEgEuuqV9_15zerocopy_derive, symObjAddr: 0x270C, symBinAddr: 0x3A4FC, symSize: 0x3C }
  - { offset: 0x81ECE, size: 0x8, addend: 0x0, symName: __RNvXs_NtCscwCr4GBBztI_3syn5dropsINtB4_6NoDropDINtNtB6_10punctuated9IterTraitNtNtB6_4data7VariantEp4ItemRB1c_EL_ENtNtNtCs85QQFkKrybG_4core3ops5deref5Deref5derefCs4oBEgEuuqV9_15zerocopy_derive, symObjAddr: 0x4FDC, symBinAddr: 0x3CDCC, symSize: 0x3C }
  - { offset: 0x81F4B, size: 0x8, addend: 0x0, symName: __RNvXNtCscwCr4GBBztI_3syn11parse_quoteNtNtB4_2ty4TypeNtB2_10ParseQuote5parseCs4oBEgEuuqV9_15zerocopy_derive, symObjAddr: 0x21C4, symBinAddr: 0x39FB4, symSize: 0x34 }
  - { offset: 0x81F80, size: 0x8, addend: 0x0, symName: __RNvXNtCscwCr4GBBztI_3syn11parse_quoteNtNtB4_4path4PathNtB2_10ParseQuote5parseCs4oBEgEuuqV9_15zerocopy_derive, symObjAddr: 0x21F8, symBinAddr: 0x39FE8, symSize: 0x34 }
  - { offset: 0x81FB5, size: 0x8, addend: 0x0, symName: __RNvXNtCscwCr4GBBztI_3syn11parse_quoteNtNtB4_6derive11DeriveInputNtB2_10ParseQuote5parseCs4oBEgEuuqV9_15zerocopy_derive, symObjAddr: 0x222C, symBinAddr: 0x3A01C, symSize: 0x34 }
  - { offset: 0x82632, size: 0x8, addend: 0x0, symName: __RNvXNvXsd_NtNtCsdFlNUEO95cG_5alloc3vec9into_iterINtB8_8IntoIterppENtNtNtCs85QQFkKrybG_4core3ops4drop4Drop4dropINtB2_9DropGuardNtNtCscwCr4GBBztI_3syn4attr4MetaNtNtBc_5alloc6GlobalEB12_4dropCs4oBEgEuuqV9_15zerocopy_derive, symObjAddr: 0x23E0, symBinAddr: 0x3A1D0, symSize: 0x7C }
  - { offset: 0x82747, size: 0x8, addend: 0x0, symName: __RNvXNvXsd_NtNtCsdFlNUEO95cG_5alloc3vec9into_iterINtB8_8IntoIterppENtNtNtCs85QQFkKrybG_4core3ops4drop4Drop4dropINtB2_9DropGuardNtNtCscwCr4GBBztI_3syn8generics12GenericParamNtNtBc_5alloc6GlobalEB12_4dropCs4oBEgEuuqV9_15zerocopy_derive, symObjAddr: 0x245C, symBinAddr: 0x3A24C, symSize: 0x7C }
  - { offset: 0x8285C, size: 0x8, addend: 0x0, symName: __RNvXNvXsd_NtNtCsdFlNUEO95cG_5alloc3vec9into_iterINtB8_8IntoIterppENtNtNtCs85QQFkKrybG_4core3ops4drop4Drop4dropINtB2_9DropGuardTNtNtCscwCr4GBBztI_3syn4attr4MetaNtNtB25_5token5CommaENtNtBc_5alloc6GlobalEB12_4dropCs4oBEgEuuqV9_15zerocopy_derive, symObjAddr: 0x24D8, symBinAddr: 0x3A2C8, symSize: 0x7C }
  - { offset: 0x82971, size: 0x8, addend: 0x0, symName: __RNvXNvXsd_NtNtCsdFlNUEO95cG_5alloc3vec9into_iterINtB8_8IntoIterppENtNtNtCs85QQFkKrybG_4core3ops4drop4Drop4dropINtB2_9DropGuardTNtNtCscwCr4GBBztI_3syn8generics12GenericParamNtNtB25_5token5CommaENtNtBc_5alloc6GlobalEB12_4dropCs4oBEgEuuqV9_15zerocopy_derive, symObjAddr: 0x2554, symBinAddr: 0x3A344, symSize: 0x7C }
  - { offset: 0x82B24, size: 0x8, addend: 0x0, symName: __RNvXsd_NtNtCsdFlNUEO95cG_5alloc3vec9into_iterINtB5_8IntoIterNtNtCscwCr4GBBztI_3syn4attr4MetaENtNtNtCs85QQFkKrybG_4core3ops4drop4Drop4dropCs4oBEgEuuqV9_15zerocopy_derive, symObjAddr: 0x5018, symBinAddr: 0x3CE08, symSize: 0x98 }
  - { offset: 0x82BBE, size: 0x8, addend: 0x0, symName: __RNvXsd_NtNtCsdFlNUEO95cG_5alloc3vec9into_iterINtB5_8IntoIterNtNtCscwCr4GBBztI_3syn8generics12GenericParamENtNtNtCs85QQFkKrybG_4core3ops4drop4Drop4dropCs4oBEgEuuqV9_15zerocopy_derive, symObjAddr: 0x50B0, symBinAddr: 0x3CEA0, symSize: 0x98 }
  - { offset: 0x82C58, size: 0x8, addend: 0x0, symName: __RNvXsd_NtNtCsdFlNUEO95cG_5alloc3vec9into_iterINtB5_8IntoIterTNtNtCscwCr4GBBztI_3syn4attr4MetaNtNtB11_5token5CommaEENtNtNtCs85QQFkKrybG_4core3ops4drop4Drop4dropCs4oBEgEuuqV9_15zerocopy_derive, symObjAddr: 0x5148, symBinAddr: 0x3CF38, symSize: 0x98 }
  - { offset: 0x82CF2, size: 0x8, addend: 0x0, symName: __RNvXsd_NtNtCsdFlNUEO95cG_5alloc3vec9into_iterINtB5_8IntoIterTNtNtCscwCr4GBBztI_3syn8generics12GenericParamNtNtB11_5token5CommaEENtNtNtCs85QQFkKrybG_4core3ops4drop4Drop4dropCs4oBEgEuuqV9_15zerocopy_derive, symObjAddr: 0x51E0, symBinAddr: 0x3CFD0, symSize: 0x98 }
  - { offset: 0x82D92, size: 0x8, addend: 0x0, symName: __RNvXs3_NtNtCsdFlNUEO95cG_5alloc3vec9into_iterINtB5_8IntoIterNtNtCscwCr4GBBztI_3syn4attr4MetaENtNtNtNtCs85QQFkKrybG_4core4iter6traits8iterator8Iterator4nextCs4oBEgEuuqV9_15zerocopy_derive, symObjAddr: 0x45F4, symBinAddr: 0x3C3E4, symSize: 0xE4 }
  - { offset: 0x82F06, size: 0x8, addend: 0x0, symName: __RNvXs3_NtNtCsdFlNUEO95cG_5alloc3vec9into_iterINtB5_8IntoIterNtNtCscwCr4GBBztI_3syn4attr4MetaENtNtNtNtCs85QQFkKrybG_4core4iter6traits8iterator8Iterator9size_hintCs4oBEgEuuqV9_15zerocopy_derive, symObjAddr: 0x46D8, symBinAddr: 0x3C4C8, symSize: 0x5C }
  - { offset: 0x82F61, size: 0x8, addend: 0x0, symName: __RNvXs3_NtNtCsdFlNUEO95cG_5alloc3vec9into_iterINtB5_8IntoIterNtNtCscwCr4GBBztI_3syn8generics12GenericParamENtNtNtNtCs85QQFkKrybG_4core4iter6traits8iterator8Iterator4nextCs4oBEgEuuqV9_15zerocopy_derive, symObjAddr: 0x4734, symBinAddr: 0x3C524, symSize: 0xE4 }
  - { offset: 0x830D5, size: 0x8, addend: 0x0, symName: __RNvXs3_NtNtCsdFlNUEO95cG_5alloc3vec9into_iterINtB5_8IntoIterNtNtCscwCr4GBBztI_3syn8generics12GenericParamENtNtNtNtCs85QQFkKrybG_4core4iter6traits8iterator8Iterator9size_hintCs4oBEgEuuqV9_15zerocopy_derive, symObjAddr: 0x4818, symBinAddr: 0x3C608, symSize: 0x5C }
  - { offset: 0x83130, size: 0x8, addend: 0x0, symName: __RNvXs3_NtNtCsdFlNUEO95cG_5alloc3vec9into_iterINtB5_8IntoIterTNtNtCscwCr4GBBztI_3syn4attr4MetaNtNtB11_5token5CommaEENtNtNtNtCs85QQFkKrybG_4core4iter6traits8iterator8Iterator4nextCs4oBEgEuuqV9_15zerocopy_derive, symObjAddr: 0x4874, symBinAddr: 0x3C664, symSize: 0xE4 }
  - { offset: 0x832A4, size: 0x8, addend: 0x0, symName: __RNvXs3_NtNtCsdFlNUEO95cG_5alloc3vec9into_iterINtB5_8IntoIterTNtNtCscwCr4GBBztI_3syn4attr4MetaNtNtB11_5token5CommaEENtNtNtNtCs85QQFkKrybG_4core4iter6traits8iterator8Iterator9size_hintCs4oBEgEuuqV9_15zerocopy_derive, symObjAddr: 0x4958, symBinAddr: 0x3C748, symSize: 0x5C }
  - { offset: 0x832FF, size: 0x8, addend: 0x0, symName: __RNvXs3_NtNtCsdFlNUEO95cG_5alloc3vec9into_iterINtB5_8IntoIterTNtNtCscwCr4GBBztI_3syn8generics12GenericParamNtNtB11_5token5CommaEENtNtNtNtCs85QQFkKrybG_4core4iter6traits8iterator8Iterator4nextCs4oBEgEuuqV9_15zerocopy_derive, symObjAddr: 0x49B4, symBinAddr: 0x3C7A4, symSize: 0xE4 }
  - { offset: 0x83473, size: 0x8, addend: 0x0, symName: __RNvXs3_NtNtCsdFlNUEO95cG_5alloc3vec9into_iterINtB5_8IntoIterTNtNtCscwCr4GBBztI_3syn8generics12GenericParamNtNtB11_5token5CommaEENtNtNtNtCs85QQFkKrybG_4core4iter6traits8iterator8Iterator9size_hintCs4oBEgEuuqV9_15zerocopy_derive, symObjAddr: 0x4A98, symBinAddr: 0x3C888, symSize: 0x5C }
  - { offset: 0x8464A, size: 0x8, addend: 0x0, symName: __RINvMNtNtCs4oBEgEuuqV9_15zerocopy_derive4repr4utilINtB3_7SpannedINtB5_12CompoundReprNtB5_13PrimitiveReprEE8try_fromNtB5_20UnsupportedReprErrorNtB5_7RawReprEB7_, symObjAddr: 0x30, symBinAddr: 0x37E20, symSize: 0x84 }
  - { offset: 0x846AF, size: 0x8, addend: 0x0, symName: __RINvMNtNtCs4oBEgEuuqV9_15zerocopy_derive4repr4utilINtB3_7SpannedINtB5_12CompoundReprNtNtCs85QQFkKrybG_4core7convert10InfallibleEE8try_fromNtB5_20UnsupportedReprErrorNtB5_7RawReprEB7_, symObjAddr: 0xB4, symBinAddr: 0x37EA4, symSize: 0x84 }
  - { offset: 0x84714, size: 0x8, addend: 0x0, symName: __RINvMNtNtCs4oBEgEuuqV9_15zerocopy_derive4repr4utilINtB3_7SpannedINtB5_9AlignReprINtNtNtCs85QQFkKrybG_4core3num7nonzero7NonZeromEEE8try_fromNtB5_20UnsupportedReprErrorNtB5_7RawReprEB7_, symObjAddr: 0x138, symBinAddr: 0x37F28, symSize: 0x8C }
  - { offset: 0x84779, size: 0x8, addend: 0x0, symName: __RINvMNtNtCs4oBEgEuuqV9_15zerocopy_derive4repr4utilINtB3_7SpannedINtB5_9AlignReprNtNtCs85QQFkKrybG_4core7convert10InfallibleEE8try_fromNtB5_20UnsupportedReprErrorNtB5_7RawReprEB7_, symObjAddr: 0x1C4, symBinAddr: 0x37FB4, symSize: 0x98 }
  - { offset: 0x847DE, size: 0x8, addend: 0x0, symName: __RINvMNtNtCs4oBEgEuuqV9_15zerocopy_derive4repr4utilINtB3_7SpannedNtB5_14FromAttrsErrorE4fromINtB5_17FromRawReprsErrorNtB5_20UnsupportedReprErrorEEB7_, symObjAddr: 0x25C, symBinAddr: 0x3804C, symSize: 0x58 }
  - { offset: 0x84839, size: 0x8, addend: 0x0, symName: __RINvMNtNtCs4oBEgEuuqV9_15zerocopy_derive4repr4utilINtB3_7SpannedNtB5_14FromAttrsErrorE4fromNtB5_21UnrecognizedReprErrorEB7_, symObjAddr: 0x2B4, symBinAddr: 0x380A4, symSize: 0x48 }
  - { offset: 0x8491E, size: 0x8, addend: 0x0, symName: __RINvMs0_NtCsfwj6t2KTYdc_11proc_macro25rcvecINtB6_8RcVecMutNtB8_9TokenTreeE6extendINtNtNtNtCs85QQFkKrybG_4core4iter8adapters7flatten7FlattenINtNtB1m_3map3MapIB2e_INtNtNtB1q_5array4iter8IntoIterNtB8_11TokenStreamKj2_ENCINvXs7_B8_B34_INtNtNtB1o_6traits7collect12FromIteratorB34_E9from_iterB2z_E0ENCINvXs6_NtB8_3impNtB4Q_11TokenStreamIB3I_B4Z_E9from_iterB2u_Es_0EEECs4oBEgEuuqV9_15zerocopy_derive, symObjAddr: 0x2FC, symBinAddr: 0x380EC, symSize: 0x40 }
  - { offset: 0x849F6, size: 0x8, addend: 0x0, symName: __RINvMs3_NtNtCs9bTl5rSDVcL_10proc_macro6bridge6bufferNtB6_6Buffer17extend_from_arrayKj4_ECs4oBEgEuuqV9_15zerocopy_derive, symObjAddr: 0x33C, symBinAddr: 0x3812C, symSize: 0x16C }
  - { offset: 0x84B7E, size: 0x8, addend: 0x0, symName: __RINvMs3_NtNtCs9bTl5rSDVcL_10proc_macro6bridge6bufferNtB6_6Buffer17extend_from_arrayKj8_ECs4oBEgEuuqV9_15zerocopy_derive, symObjAddr: 0x4A8, symBinAddr: 0x38298, symSize: 0x16C }
  - { offset: 0x84E34, size: 0x8, addend: 0x0, symName: __RINvMs_NtNtCs85QQFkKrybG_4core3fmt2rtNtB7_9Arguments6new_v1Kj3_Kj2_ECs4oBEgEuuqV9_15zerocopy_derive, symObjAddr: 0x614, symBinAddr: 0x38404, symSize: 0x54 }
  - { offset: 0x853B4, size: 0x8, addend: 0x0, symName: __RNvMNtCscwCr4GBBztI_3syn5dropsINtB2_6NoDropINtNtB4_10punctuated11PrivateIterNtNtB4_4data7VariantNtNtB4_5token5CommaEE3newCs4oBEgEuuqV9_15zerocopy_derive, symObjAddr: 0xE88, symBinAddr: 0x38C78, symSize: 0x40 }
  - { offset: 0x8543E, size: 0x8, addend: 0x0, symName: __RNvMNtCscwCr4GBBztI_3syn5dropsINtB2_6NoDropINtNtB4_10punctuated11PrivateIterNtNtB4_8generics14WherePredicateNtNtB4_5token5CommaEE3newCs4oBEgEuuqV9_15zerocopy_derive, symObjAddr: 0xEC8, symBinAddr: 0x38CB8, symSize: 0x40 }
  - { offset: 0x85486, size: 0x8, addend: 0x0, symName: __RNvMNtNtCs4oBEgEuuqV9_15zerocopy_derive4repr4utilINtB2_7SpannedINtB4_12CompoundReprNtB4_13PrimitiveReprEE3newB6_, symObjAddr: 0xF08, symBinAddr: 0x38CF8, symSize: 0x30 }
  - { offset: 0x854C1, size: 0x8, addend: 0x0, symName: __RNvMNtNtCs4oBEgEuuqV9_15zerocopy_derive4repr4utilINtB2_7SpannedINtB4_12CompoundReprNtNtCs85QQFkKrybG_4core7convert10InfallibleEE3newB6_, symObjAddr: 0xF38, symBinAddr: 0x38D28, symSize: 0x30 }
  - { offset: 0x854FC, size: 0x8, addend: 0x0, symName: __RNvMNtNtCs4oBEgEuuqV9_15zerocopy_derive4repr4utilINtB2_7SpannedINtB4_17FromRawReprsErrorNtB4_20UnsupportedReprErrorEE3newB6_, symObjAddr: 0xF68, symBinAddr: 0x38D58, symSize: 0x30 }
  - { offset: 0x85537, size: 0x8, addend: 0x0, symName: __RNvMNtNtCs4oBEgEuuqV9_15zerocopy_derive4repr4utilINtB2_7SpannedINtNtNtCs85QQFkKrybG_4core3num7nonzero7NonZeromEE3newB6_, symObjAddr: 0xF98, symBinAddr: 0x38D88, symSize: 0x24 }
  - { offset: 0x85572, size: 0x8, addend: 0x0, symName: __RNvMNtNtCs4oBEgEuuqV9_15zerocopy_derive4repr4utilINtB2_7SpannedNtB4_13PrimitiveReprE3newB6_, symObjAddr: 0xFBC, symBinAddr: 0x38DAC, symSize: 0x30 }
  - { offset: 0x855AD, size: 0x8, addend: 0x0, symName: __RNvMNtNtCs4oBEgEuuqV9_15zerocopy_derive4repr4utilINtB2_7SpannedNtB4_14FromAttrsErrorE3newB6_, symObjAddr: 0xFEC, symBinAddr: 0x38DDC, symSize: 0x30 }
  - { offset: 0x855E8, size: 0x8, addend: 0x0, symName: __RNvMNtNtCs4oBEgEuuqV9_15zerocopy_derive4repr4utilINtB2_7SpannedNtB4_20UnsupportedReprErrorE3newB6_, symObjAddr: 0x101C, symBinAddr: 0x38E0C, symSize: 0x20 }
  - { offset: 0x85623, size: 0x8, addend: 0x0, symName: __RNvMNtNtCs4oBEgEuuqV9_15zerocopy_derive4repr4utilINtB2_7SpannedNtB4_21UnrecognizedReprErrorE3newB6_, symObjAddr: 0x103C, symBinAddr: 0x38E2C, symSize: 0x20 }
  - { offset: 0x8565E, size: 0x8, addend: 0x0, symName: __RNvMNtNtCs4oBEgEuuqV9_15zerocopy_derive4repr4utilINtB2_7SpannedNtB4_7RawReprE3newB6_, symObjAddr: 0x105C, symBinAddr: 0x38E4C, symSize: 0x34 }
  - { offset: 0x856FC, size: 0x8, addend: 0x0, symName: __RNvMs1_NtNtCs85QQFkKrybG_4core3ptr8non_nullINtB5_7NonNullNtCsfwj6t2KTYdc_11proc_macro25IdentE20offset_from_unsignedCs4oBEgEuuqV9_15zerocopy_derive, symObjAddr: 0x11DC, symBinAddr: 0x38FCC, symSize: 0x7C }
  - { offset: 0x85806, size: 0x8, addend: 0x0, symName: __RNvMs1_NtNtCs85QQFkKrybG_4core3ptr8non_nullINtB5_7NonNullNtNtCscwCr4GBBztI_3syn4attr4MetaE20offset_from_unsignedCs4oBEgEuuqV9_15zerocopy_derive, symObjAddr: 0x1258, symBinAddr: 0x39048, symSize: 0x7C }
  - { offset: 0x85910, size: 0x8, addend: 0x0, symName: __RNvMs1_NtNtCs85QQFkKrybG_4core3ptr8non_nullINtB5_7NonNullNtNtCscwCr4GBBztI_3syn8generics12GenericParamE20offset_from_unsignedCs4oBEgEuuqV9_15zerocopy_derive, symObjAddr: 0x12D4, symBinAddr: 0x390C4, symSize: 0x7C }
  - { offset: 0x85A38, size: 0x8, addend: 0x0, symName: __RNvMs1_NtNtCs85QQFkKrybG_4core3ptr8non_nullINtB5_7NonNullTNtNtCscwCr4GBBztI_3syn4attr4MetaNtNtBY_5token5CommaEE20offset_from_unsignedCs4oBEgEuuqV9_15zerocopy_derive, symObjAddr: 0x1350, symBinAddr: 0x39140, symSize: 0x7C }
  - { offset: 0x85B35, size: 0x8, addend: 0x0, symName: __RNvMs1_NtNtCs85QQFkKrybG_4core3ptr8non_nullINtB5_7NonNullTNtNtCscwCr4GBBztI_3syn4data7VariantNtNtBY_5token5CommaEE20offset_from_unsignedCs4oBEgEuuqV9_15zerocopy_derive, symObjAddr: 0x13CC, symBinAddr: 0x391BC, symSize: 0x7C }
  - { offset: 0x85C32, size: 0x8, addend: 0x0, symName: __RNvMs1_NtNtCs85QQFkKrybG_4core3ptr8non_nullINtB5_7NonNullTNtNtCscwCr4GBBztI_3syn8generics14WherePredicateNtNtBY_5token5CommaEE20offset_from_unsignedCs4oBEgEuuqV9_15zerocopy_derive, symObjAddr: 0x1448, symBinAddr: 0x39238, symSize: 0x7C }
  - { offset: 0x85D7F, size: 0x8, addend: 0x0, symName: __RNvMs1_NtNtCs85QQFkKrybG_4core3ptr8non_nullINtB5_7NonNullTRNtNtCscwCr4GBBztI_3syn11restriction10VisibilityNtCsfwj6t2KTYdc_11proc_macro211TokenStreamRNtNtBZ_2ty4TypeEE20offset_from_unsignedCs4oBEgEuuqV9_15zerocopy_derive, symObjAddr: 0x14C4, symBinAddr: 0x392B4, symSize: 0x7C }
  - { offset: 0x85E65, size: 0x8, addend: 0x0, symName: __RNvMs3_NtNtCs9bTl5rSDVcL_10proc_macro6bridge6bufferNtB5_6Buffer17extend_from_sliceCs4oBEgEuuqV9_15zerocopy_derive, symObjAddr: 0x1540, symBinAddr: 0x39330, symSize: 0x164 }
  - { offset: 0x85FE3, size: 0x8, addend: 0x0, symName: __RNvMs3_NtNtCs9bTl5rSDVcL_10proc_macro6bridge6bufferNtB5_6Buffer4pushCs4oBEgEuuqV9_15zerocopy_derive, symObjAddr: 0x16A4, symBinAddr: 0x39494, symSize: 0x134 }
  - { offset: 0x8612B, size: 0x8, addend: 0x0, symName: __RNvXNtCshi3DZH3dfhk_5quote9to_tokensRINtNtNtCs4oBEgEuuqV9_15zerocopy_derive4repr4util7SpannedINtBE_12CompoundReprNtBE_13PrimitiveReprEENtB2_8ToTokens9to_tokensBG_, symObjAddr: 0x2260, symBinAddr: 0x3A050, symSize: 0x40 }
  - { offset: 0x8616A, size: 0x8, addend: 0x0, symName: __RNvXNtCshi3DZH3dfhk_5quote9to_tokensRNtNtCscwCr4GBBztI_3syn11restriction10VisibilityNtB2_8ToTokens9to_tokensCs4oBEgEuuqV9_15zerocopy_derive, symObjAddr: 0x22A0, symBinAddr: 0x3A090, symSize: 0x40 }
  - { offset: 0x861A9, size: 0x8, addend: 0x0, symName: __RNvXNtCshi3DZH3dfhk_5quote9to_tokensRNtNtCscwCr4GBBztI_3syn4path4PathNtB2_8ToTokens9to_tokensCs4oBEgEuuqV9_15zerocopy_derive, symObjAddr: 0x22E0, symBinAddr: 0x3A0D0, symSize: 0x40 }
  - { offset: 0x861E8, size: 0x8, addend: 0x0, symName: __RNvXNtCshi3DZH3dfhk_5quote9to_tokensRNtNtCscwCr4GBBztI_3syn6derive11DeriveInputNtB2_8ToTokens9to_tokensCs4oBEgEuuqV9_15zerocopy_derive, symObjAddr: 0x2320, symBinAddr: 0x3A110, symSize: 0x40 }
  - { offset: 0x86227, size: 0x8, addend: 0x0, symName: __RNvXNtCshi3DZH3dfhk_5quote9to_tokensRRNtNtCscwCr4GBBztI_3syn11restriction10VisibilityNtB2_8ToTokens9to_tokensCs4oBEgEuuqV9_15zerocopy_derive, symObjAddr: 0x2360, symBinAddr: 0x3A150, symSize: 0x40 }
  - { offset: 0x86266, size: 0x8, addend: 0x0, symName: __RNvXNtCshi3DZH3dfhk_5quote9to_tokensRRNtNtCscwCr4GBBztI_3syn2ty4TypeNtB2_8ToTokens9to_tokensCs4oBEgEuuqV9_15zerocopy_derive, symObjAddr: 0x23A0, symBinAddr: 0x3A190, symSize: 0x40 }
  - { offset: 0x862AB, size: 0x8, addend: 0x0, symName: __RNvYNtNtCscwCr4GBBztI_3syn4path4PathNtNtCshi3DZH3dfhk_5quote9to_tokens8ToTokens15to_token_streamCs4oBEgEuuqV9_15zerocopy_derive, symObjAddr: 0x5840, symBinAddr: 0x3D630, symSize: 0x8C }
  - { offset: 0x862F5, size: 0x8, addend: 0x0, symName: __RNvYNtNtCscwCr4GBBztI_3syn4path4PathNtNtCshi3DZH3dfhk_5quote9to_tokens8ToTokens17into_token_streamCs4oBEgEuuqV9_15zerocopy_derive, symObjAddr: 0x58CC, symBinAddr: 0x3D6BC, symSize: 0x64 }
  - { offset: 0x8632B, size: 0x8, addend: 0x0, symName: __RNvYRNtNtCscwCr4GBBztI_3syn6derive11DeriveInputNtNtCshi3DZH3dfhk_5quote9to_tokens8ToTokens15to_token_streamCs4oBEgEuuqV9_15zerocopy_derive, symObjAddr: 0x5978, symBinAddr: 0x3D768, symSize: 0x8C }
  - { offset: 0x86375, size: 0x8, addend: 0x0, symName: __RNvYRNtNtCscwCr4GBBztI_3syn6derive11DeriveInputNtNtCshi3DZH3dfhk_5quote9to_tokens8ToTokens17into_token_streamCs4oBEgEuuqV9_15zerocopy_derive, symObjAddr: 0x5A04, symBinAddr: 0x3D7F4, symSize: 0x54 }
  - { offset: 0x863BB, size: 0x8, addend: 0x0, symName: __RNvYNtNtCscwCr4GBBztI_3syn4path4PathNtNtNtCshi3DZH3dfhk_5quote9___private3ext14RepToTokensExt15quote_into_iterCs4oBEgEuuqV9_15zerocopy_derive, symObjAddr: 0x5930, symBinAddr: 0x3D720, symSize: 0x24 }
  - { offset: 0x863F0, size: 0x8, addend: 0x0, symName: __RNvYNtNtCscwCr4GBBztI_3syn4path4PathNtNtNtCshi3DZH3dfhk_5quote9___private3ext14RepToTokensExt4nextCs4oBEgEuuqV9_15zerocopy_derive, symObjAddr: 0x5954, symBinAddr: 0x3D744, symSize: 0x24 }
  - { offset: 0x86FAE, size: 0x8, addend: 0x0, symName: __RINvMNtCs85QQFkKrybG_4core4boolb9then_someNtCs4oBEgEuuqV9_15zerocopy_derive12PaddingCheckEBG_, symObjAddr: 0x0, symBinAddr: 0x3D848, symSize: 0x74 }
  - { offset: 0x872A0, size: 0x8, addend: 0x0, symName: __RINvNvNtCswz7ZwgBZOU_3std9panicking12catch_unwind7do_callINtNtNtCs85QQFkKrybG_4core5panic11unwind_safe16AssertUnwindSafeNCINvNtNtCs9bTl5rSDVcL_10proc_macro6bridge6client10run_clientNtB1Z_11TokenStreamINtNtB10_6option6OptionB2T_ENCNCINvMs6_B1Z_INtB1Z_6ClientNtB23_11TokenStreamB47_E7expand1NvCs4oBEgEuuqV9_15zerocopy_derive11derive_hashE00E0EuEB4F_, symObjAddr: 0x15F0, symBinAddr: 0x3EE38, symSize: 0x50 }
  - { offset: 0x87368, size: 0x8, addend: 0x0, symName: __RINvNvNtCswz7ZwgBZOU_3std9panicking12catch_unwind7do_callINtNtNtCs85QQFkKrybG_4core5panic11unwind_safe16AssertUnwindSafeNCINvNtNtCs9bTl5rSDVcL_10proc_macro6bridge6client10run_clientNtB1Z_11TokenStreamINtNtB10_6option6OptionB2T_ENCNCINvMs6_B1Z_INtB1Z_6ClientNtB23_11TokenStreamB47_E7expand1NvCs4oBEgEuuqV9_15zerocopy_derive14derive_no_cellE00E0EuEB4F_, symObjAddr: 0x1640, symBinAddr: 0x3EE88, symSize: 0x50 }
  - { offset: 0x87430, size: 0x8, addend: 0x0, symName: __RINvNvNtCswz7ZwgBZOU_3std9panicking12catch_unwind7do_callINtNtNtCs85QQFkKrybG_4core5panic11unwind_safe16AssertUnwindSafeNCINvNtNtCs9bTl5rSDVcL_10proc_macro6bridge6client10run_clientNtB1Z_11TokenStreamINtNtB10_6option6OptionB2T_ENCNCINvMs6_B1Z_INtB1Z_6ClientNtB23_11TokenStreamB47_E7expand1NvCs4oBEgEuuqV9_15zerocopy_derive15derive_as_bytesE00E0EuEB4F_, symObjAddr: 0x1690, symBinAddr: 0x3EED8, symSize: 0x50 }
  - { offset: 0x874F8, size: 0x8, addend: 0x0, symName: __RINvNvNtCswz7ZwgBZOU_3std9panicking12catch_unwind7do_callINtNtNtCs85QQFkKrybG_4core5panic11unwind_safe16AssertUnwindSafeNCINvNtNtCs9bTl5rSDVcL_10proc_macro6bridge6client10run_clientNtB1Z_11TokenStreamINtNtB10_6option6OptionB2T_ENCNCINvMs6_B1Z_INtB1Z_6ClientNtB23_11TokenStreamB47_E7expand1NvCs4oBEgEuuqV9_15zerocopy_derive15derive_split_atE00E0EuEB4F_, symObjAddr: 0x16E0, symBinAddr: 0x3EF28, symSize: 0x50 }
  - { offset: 0x875C0, size: 0x8, addend: 0x0, symName: __RINvNvNtCswz7ZwgBZOU_3std9panicking12catch_unwind7do_callINtNtNtCs85QQFkKrybG_4core5panic11unwind_safe16AssertUnwindSafeNCINvNtNtCs9bTl5rSDVcL_10proc_macro6bridge6client10run_clientNtB1Z_11TokenStreamINtNtB10_6option6OptionB2T_ENCNCINvMs6_B1Z_INtB1Z_6ClientNtB23_11TokenStreamB47_E7expand1NvCs4oBEgEuuqV9_15zerocopy_derive16derive_unalignedE00E0EuEB4F_, symObjAddr: 0x1730, symBinAddr: 0x3EF78, symSize: 0x50 }
  - { offset: 0x87688, size: 0x8, addend: 0x0, symName: __RINvNvNtCswz7ZwgBZOU_3std9panicking12catch_unwind7do_callINtNtNtCs85QQFkKrybG_4core5panic11unwind_safe16AssertUnwindSafeNCINvNtNtCs9bTl5rSDVcL_10proc_macro6bridge6client10run_clientNtB1Z_11TokenStreamINtNtB10_6option6OptionB2T_ENCNCINvMs6_B1Z_INtB1Z_6ClientNtB23_11TokenStreamB47_E7expand1NvCs4oBEgEuuqV9_15zerocopy_derive17derive_from_bytesE00E0EuEB4F_, symObjAddr: 0x1780, symBinAddr: 0x3EFC8, symSize: 0x50 }
  - { offset: 0x87750, size: 0x8, addend: 0x0, symName: __RINvNvNtCswz7ZwgBZOU_3std9panicking12catch_unwind7do_callINtNtNtCs85QQFkKrybG_4core5panic11unwind_safe16AssertUnwindSafeNCINvNtNtCs9bTl5rSDVcL_10proc_macro6bridge6client10run_clientNtB1Z_11TokenStreamINtNtB10_6option6OptionB2T_ENCNCINvMs6_B1Z_INtB1Z_6ClientNtB23_11TokenStreamB47_E7expand1NvCs4oBEgEuuqV9_15zerocopy_derive17derive_from_zerosE00E0EuEB4F_, symObjAddr: 0x17D0, symBinAddr: 0x3F018, symSize: 0x50 }
  - { offset: 0x87818, size: 0x8, addend: 0x0, symName: __RINvNvNtCswz7ZwgBZOU_3std9panicking12catch_unwind7do_callINtNtNtCs85QQFkKrybG_4core5panic11unwind_safe16AssertUnwindSafeNCINvNtNtCs9bTl5rSDVcL_10proc_macro6bridge6client10run_clientNtB1Z_11TokenStreamINtNtB10_6option6OptionB2T_ENCNCINvMs6_B1Z_INtB1Z_6ClientNtB23_11TokenStreamB47_E7expand1NvCs4oBEgEuuqV9_15zerocopy_derive17derive_into_bytesE00E0EuEB4F_, symObjAddr: 0x1820, symBinAddr: 0x3F068, symSize: 0x50 }
  - { offset: 0x878E0, size: 0x8, addend: 0x0, symName: __RINvNvNtCswz7ZwgBZOU_3std9panicking12catch_unwind7do_callINtNtNtCs85QQFkKrybG_4core5panic11unwind_safe16AssertUnwindSafeNCINvNtNtCs9bTl5rSDVcL_10proc_macro6bridge6client10run_clientNtB1Z_11TokenStreamINtNtB10_6option6OptionB2T_ENCNCINvMs6_B1Z_INtB1Z_6ClientNtB23_11TokenStreamB47_E7expand1NvCs4oBEgEuuqV9_15zerocopy_derive18derive_from_zeroesE00E0EuEB4F_, symObjAddr: 0x1870, symBinAddr: 0x3F0B8, symSize: 0x50 }
  - { offset: 0x879A8, size: 0x8, addend: 0x0, symName: __RINvNvNtCswz7ZwgBZOU_3std9panicking12catch_unwind7do_callINtNtNtCs85QQFkKrybG_4core5panic11unwind_safe16AssertUnwindSafeNCINvNtNtCs9bTl5rSDVcL_10proc_macro6bridge6client10run_clientNtB1Z_11TokenStreamINtNtB10_6option6OptionB2T_ENCNCINvMs6_B1Z_INtB1Z_6ClientNtB23_11TokenStreamB47_E7expand1NvCs4oBEgEuuqV9_15zerocopy_derive19derive_known_layoutE00E0EuEB4F_, symObjAddr: 0x18C0, symBinAddr: 0x3F108, symSize: 0x50 }
  - { offset: 0x87A70, size: 0x8, addend: 0x0, symName: __RINvNvNtCswz7ZwgBZOU_3std9panicking12catch_unwind7do_callINtNtNtCs85QQFkKrybG_4core5panic11unwind_safe16AssertUnwindSafeNCINvNtNtCs9bTl5rSDVcL_10proc_macro6bridge6client10run_clientNtB1Z_11TokenStreamINtNtB10_6option6OptionB2T_ENCNCINvMs6_B1Z_INtB1Z_6ClientNtB23_11TokenStreamB47_E7expand1NvCs4oBEgEuuqV9_15zerocopy_derive21derive_try_from_bytesE00E0EuEB4F_, symObjAddr: 0x1910, symBinAddr: 0x3F158, symSize: 0x50 }
  - { offset: 0x87B38, size: 0x8, addend: 0x0, symName: __RINvNvNtCswz7ZwgBZOU_3std9panicking12catch_unwind7do_callINtNtNtCs85QQFkKrybG_4core5panic11unwind_safe16AssertUnwindSafeNCINvNtNtCs9bTl5rSDVcL_10proc_macro6bridge6client10run_clientNtB1Z_11TokenStreamINtNtB10_6option6OptionB2T_ENCNCINvMs6_B1Z_INtB1Z_6ClientNtB23_11TokenStreamB47_E7expand1NvCs4oBEgEuuqV9_15zerocopy_derive9derive_eqE00E0EuEB4F_, symObjAddr: 0x1960, symBinAddr: 0x3F1A8, symSize: 0x50 }
  - { offset: 0x87C00, size: 0x8, addend: 0x0, symName: __RINvNvNtCswz7ZwgBZOU_3std9panicking12catch_unwind8do_catchINtNtNtCs85QQFkKrybG_4core5panic11unwind_safe16AssertUnwindSafeNCINvNtNtCs9bTl5rSDVcL_10proc_macro6bridge6client10run_clientNtB20_11TokenStreamINtNtB11_6option6OptionB2U_ENCNCINvMs6_B20_INtB20_6ClientNtB24_11TokenStreamB48_E7expand1NvCs4oBEgEuuqV9_15zerocopy_derive11derive_hashE00E0EuEB4G_, symObjAddr: 0x19B0, symBinAddr: 0x3F1F8, symSize: 0x70 }
  - { offset: 0x87C95, size: 0x8, addend: 0x0, symName: __RINvNvNtCswz7ZwgBZOU_3std9panicking12catch_unwind8do_catchINtNtNtCs85QQFkKrybG_4core5panic11unwind_safe16AssertUnwindSafeNCINvNtNtCs9bTl5rSDVcL_10proc_macro6bridge6client10run_clientNtB20_11TokenStreamINtNtB11_6option6OptionB2U_ENCNCINvMs6_B20_INtB20_6ClientNtB24_11TokenStreamB48_E7expand1NvCs4oBEgEuuqV9_15zerocopy_derive14derive_no_cellE00E0EuEB4G_, symObjAddr: 0x1A20, symBinAddr: 0x3F268, symSize: 0x70 }
  - { offset: 0x87D2A, size: 0x8, addend: 0x0, symName: __RINvNvNtCswz7ZwgBZOU_3std9panicking12catch_unwind8do_catchINtNtNtCs85QQFkKrybG_4core5panic11unwind_safe16AssertUnwindSafeNCINvNtNtCs9bTl5rSDVcL_10proc_macro6bridge6client10run_clientNtB20_11TokenStreamINtNtB11_6option6OptionB2U_ENCNCINvMs6_B20_INtB20_6ClientNtB24_11TokenStreamB48_E7expand1NvCs4oBEgEuuqV9_15zerocopy_derive15derive_as_bytesE00E0EuEB4G_, symObjAddr: 0x1A90, symBinAddr: 0x3F2D8, symSize: 0x70 }
  - { offset: 0x87DBF, size: 0x8, addend: 0x0, symName: __RINvNvNtCswz7ZwgBZOU_3std9panicking12catch_unwind8do_catchINtNtNtCs85QQFkKrybG_4core5panic11unwind_safe16AssertUnwindSafeNCINvNtNtCs9bTl5rSDVcL_10proc_macro6bridge6client10run_clientNtB20_11TokenStreamINtNtB11_6option6OptionB2U_ENCNCINvMs6_B20_INtB20_6ClientNtB24_11TokenStreamB48_E7expand1NvCs4oBEgEuuqV9_15zerocopy_derive15derive_split_atE00E0EuEB4G_, symObjAddr: 0x1B00, symBinAddr: 0x3F348, symSize: 0x70 }
  - { offset: 0x87E54, size: 0x8, addend: 0x0, symName: __RINvNvNtCswz7ZwgBZOU_3std9panicking12catch_unwind8do_catchINtNtNtCs85QQFkKrybG_4core5panic11unwind_safe16AssertUnwindSafeNCINvNtNtCs9bTl5rSDVcL_10proc_macro6bridge6client10run_clientNtB20_11TokenStreamINtNtB11_6option6OptionB2U_ENCNCINvMs6_B20_INtB20_6ClientNtB24_11TokenStreamB48_E7expand1NvCs4oBEgEuuqV9_15zerocopy_derive16derive_unalignedE00E0EuEB4G_, symObjAddr: 0x1B70, symBinAddr: 0x3F3B8, symSize: 0x70 }
  - { offset: 0x87EE9, size: 0x8, addend: 0x0, symName: __RINvNvNtCswz7ZwgBZOU_3std9panicking12catch_unwind8do_catchINtNtNtCs85QQFkKrybG_4core5panic11unwind_safe16AssertUnwindSafeNCINvNtNtCs9bTl5rSDVcL_10proc_macro6bridge6client10run_clientNtB20_11TokenStreamINtNtB11_6option6OptionB2U_ENCNCINvMs6_B20_INtB20_6ClientNtB24_11TokenStreamB48_E7expand1NvCs4oBEgEuuqV9_15zerocopy_derive17derive_from_bytesE00E0EuEB4G_, symObjAddr: 0x1BE0, symBinAddr: 0x3F428, symSize: 0x70 }
  - { offset: 0x87F7E, size: 0x8, addend: 0x0, symName: __RINvNvNtCswz7ZwgBZOU_3std9panicking12catch_unwind8do_catchINtNtNtCs85QQFkKrybG_4core5panic11unwind_safe16AssertUnwindSafeNCINvNtNtCs9bTl5rSDVcL_10proc_macro6bridge6client10run_clientNtB20_11TokenStreamINtNtB11_6option6OptionB2U_ENCNCINvMs6_B20_INtB20_6ClientNtB24_11TokenStreamB48_E7expand1NvCs4oBEgEuuqV9_15zerocopy_derive17derive_from_zerosE00E0EuEB4G_, symObjAddr: 0x1C50, symBinAddr: 0x3F498, symSize: 0x70 }
  - { offset: 0x88013, size: 0x8, addend: 0x0, symName: __RINvNvNtCswz7ZwgBZOU_3std9panicking12catch_unwind8do_catchINtNtNtCs85QQFkKrybG_4core5panic11unwind_safe16AssertUnwindSafeNCINvNtNtCs9bTl5rSDVcL_10proc_macro6bridge6client10run_clientNtB20_11TokenStreamINtNtB11_6option6OptionB2U_ENCNCINvMs6_B20_INtB20_6ClientNtB24_11TokenStreamB48_E7expand1NvCs4oBEgEuuqV9_15zerocopy_derive17derive_into_bytesE00E0EuEB4G_, symObjAddr: 0x1CC0, symBinAddr: 0x3F508, symSize: 0x70 }
  - { offset: 0x880A8, size: 0x8, addend: 0x0, symName: __RINvNvNtCswz7ZwgBZOU_3std9panicking12catch_unwind8do_catchINtNtNtCs85QQFkKrybG_4core5panic11unwind_safe16AssertUnwindSafeNCINvNtNtCs9bTl5rSDVcL_10proc_macro6bridge6client10run_clientNtB20_11TokenStreamINtNtB11_6option6OptionB2U_ENCNCINvMs6_B20_INtB20_6ClientNtB24_11TokenStreamB48_E7expand1NvCs4oBEgEuuqV9_15zerocopy_derive18derive_from_zeroesE00E0EuEB4G_, symObjAddr: 0x1D30, symBinAddr: 0x3F578, symSize: 0x70 }
  - { offset: 0x8813D, size: 0x8, addend: 0x0, symName: __RINvNvNtCswz7ZwgBZOU_3std9panicking12catch_unwind8do_catchINtNtNtCs85QQFkKrybG_4core5panic11unwind_safe16AssertUnwindSafeNCINvNtNtCs9bTl5rSDVcL_10proc_macro6bridge6client10run_clientNtB20_11TokenStreamINtNtB11_6option6OptionB2U_ENCNCINvMs6_B20_INtB20_6ClientNtB24_11TokenStreamB48_E7expand1NvCs4oBEgEuuqV9_15zerocopy_derive19derive_known_layoutE00E0EuEB4G_, symObjAddr: 0x1DA0, symBinAddr: 0x3F5E8, symSize: 0x70 }
  - { offset: 0x881D2, size: 0x8, addend: 0x0, symName: __RINvNvNtCswz7ZwgBZOU_3std9panicking12catch_unwind8do_catchINtNtNtCs85QQFkKrybG_4core5panic11unwind_safe16AssertUnwindSafeNCINvNtNtCs9bTl5rSDVcL_10proc_macro6bridge6client10run_clientNtB20_11TokenStreamINtNtB11_6option6OptionB2U_ENCNCINvMs6_B20_INtB20_6ClientNtB24_11TokenStreamB48_E7expand1NvCs4oBEgEuuqV9_15zerocopy_derive21derive_try_from_bytesE00E0EuEB4G_, symObjAddr: 0x1E10, symBinAddr: 0x3F658, symSize: 0x70 }
  - { offset: 0x88267, size: 0x8, addend: 0x0, symName: __RINvNvNtCswz7ZwgBZOU_3std9panicking12catch_unwind8do_catchINtNtNtCs85QQFkKrybG_4core5panic11unwind_safe16AssertUnwindSafeNCINvNtNtCs9bTl5rSDVcL_10proc_macro6bridge6client10run_clientNtB20_11TokenStreamINtNtB11_6option6OptionB2U_ENCNCINvMs6_B20_INtB20_6ClientNtB24_11TokenStreamB48_E7expand1NvCs4oBEgEuuqV9_15zerocopy_derive9derive_eqE00E0EuEB4G_, symObjAddr: 0x1E80, symBinAddr: 0x3F6C8, symSize: 0x70 }
  - { offset: 0x89292, size: 0x8, addend: 0x0, symName: __RINvMNtCs85QQFkKrybG_4core4boolb9then_someNtCs4oBEgEuuqV9_15zerocopy_derive12PaddingCheckEBG_, symObjAddr: 0x0, symBinAddr: 0x3D848, symSize: 0x74 }
  - { offset: 0x8CDAF, size: 0x8, addend: 0x0, symName: __RNvNvMsd_NtNtCs85QQFkKrybG_4core3num7nonzeroINtB7_7NonZeropE13new_unchecked18precondition_checkCs4oBEgEuuqV9_15zerocopy_derive, symObjAddr: 0x2C64, symBinAddr: 0x404A8, symSize: 0x84 }
  - { offset: 0x8D49C, size: 0x8, addend: 0x0, symName: __RINvNtNtNtCs85QQFkKrybG_4core4iter8adapters4fuse17and_then_or_clearINtNtB4_3map3MapINtNtCscwCr4GBBztI_3syn10punctuated4IterNtNtB1o_4data7VariantENCNvXs0_NtCs4oBEgEuuqV9_15zerocopy_derive3extNtNtB1o_6derive8DataEnumNtB2r_7DataExt6fields0ERNtB1Z_6FieldsNvYB13_NtNtNtB6_6traits8iterator8Iterator4nextEB2t_, symObjAddr: 0x558, symBinAddr: 0x3DDA0, symSize: 0xEC }
  - { offset: 0x8D605, size: 0x8, addend: 0x0, symName: __RNvXs8_NtNtNtCs85QQFkKrybG_4core4iter8adapters4fuseINtB5_4FuseINtNtB7_3map3MapINtNtCscwCr4GBBztI_3syn10punctuated4IterNtNtB1j_4data7VariantENCNvXs0_NtCs4oBEgEuuqV9_15zerocopy_derive3extNtNtB1j_6derive8DataEnumNtB2m_7DataExt6fields0EEINtB5_8FuseImplBY_E4nextB2o_, symObjAddr: 0x31E0, symBinAddr: 0x40A24, symSize: 0x24 }
  - { offset: 0x8D642, size: 0x8, addend: 0x0, symName: __RNvXs9_NtNtNtCs85QQFkKrybG_4core4iter8adapters4fuseINtB5_4FuseINtNtB7_3map3MapIBZ_INtNtNtBb_5array4iter8IntoIterNtCsfwj6t2KTYdc_11proc_macro211TokenStreamKj2_ENCINvXs7_B1O_B1M_INtNtNtB9_6traits7collect12FromIteratorB1M_E9from_iterB1i_E0ENCINvXs6_NtB1O_3impNtB3W_11TokenStreamIB2P_B46_E9from_iterB1e_Es_0EEINtB5_8FuseImplBY_E4nextCs4oBEgEuuqV9_15zerocopy_derive, symObjAddr: 0x3288, symBinAddr: 0x40ACC, symSize: 0x7C }
  - { offset: 0x8D715, size: 0x8, addend: 0x0, symName: __RNvXs9_NtNtNtCs85QQFkKrybG_4core4iter8adapters4fuseINtB5_4FuseINtNtBb_6option8IntoIterINtNtCscwCr4GBBztI_3syn10punctuated4IterNtNtB1r_8generics14WherePredicateEEEINtB5_8FuseImplBY_E4nextCs4oBEgEuuqV9_15zerocopy_derive, symObjAddr: 0x3304, symBinAddr: 0x40B48, symSize: 0x84 }
  - { offset: 0x8D9E0, size: 0x8, addend: 0x0, symName: __RINvNtNtNtCs85QQFkKrybG_4core4iter8adapters5chain17and_then_or_clearINtB2_5ChainIB15_INtNtB4_7flatten7FlattenINtNtB8_6option8IntoIterINtNtCscwCr4GBBztI_3syn10punctuated4IterNtNtB2c_8generics14WherePredicateEEEINtNtNtB8_5slice4iter4IterB2L_EEINtB1M_4IterB2L_EERB2L_NvYB14_NtNtNtB6_6traits8iterator8Iterator4nextECs4oBEgEuuqV9_15zerocopy_derive, symObjAddr: 0x644, symBinAddr: 0x3DE8C, symSize: 0xFC }
  - { offset: 0x8DB26, size: 0x8, addend: 0x0, symName: __RINvNtNtNtCs85QQFkKrybG_4core4iter8adapters5chain17and_then_or_clearINtB2_5ChainINtNtB4_7flatten7FlattenINtNtB8_6option8IntoIterINtNtCscwCr4GBBztI_3syn10punctuated4IterNtNtB27_8generics14WherePredicateEEEINtNtNtB8_5slice4iter4IterB2G_EERB2G_NvYB14_NtNtNtB6_6traits8iterator8Iterator4nextECs4oBEgEuuqV9_15zerocopy_derive, symObjAddr: 0x740, symBinAddr: 0x3DF88, symSize: 0xFC }
  - { offset: 0x8DC6C, size: 0x8, addend: 0x0, symName: __RINvNtNtNtCs85QQFkKrybG_4core4iter8adapters5chain17and_then_or_clearINtNtB4_7flatten7FlattenINtNtB8_6option8IntoIterINtNtCscwCr4GBBztI_3syn10punctuated4IterNtNtB1V_8generics14WherePredicateEEERB2u_NvYB14_NtNtNtB6_6traits8iterator8Iterator4nextECs4oBEgEuuqV9_15zerocopy_derive, symObjAddr: 0x83C, symBinAddr: 0x3E084, symSize: 0xFC }
  - { offset: 0x8DE1B, size: 0x8, addend: 0x0, symName: __RNCNvXs_NtNtNtCs85QQFkKrybG_4core4iter8adapters5chainINtB6_5ChainIBQ_IBQ_INtNtB8_7flatten7FlattenINtNtBc_6option8IntoIterINtNtCscwCr4GBBztI_3syn10punctuated4IterNtNtB20_8generics14WherePredicateEEEINtNtNtBc_5slice4iter4IterB2z_EEINtB1A_4IterB2z_EEB3F_ENtNtNtBa_6traits8iterator8Iterator4next0Cs4oBEgEuuqV9_15zerocopy_derive, symObjAddr: 0x2774, symBinAddr: 0x3FFBC, symSize: 0x7C }
  - { offset: 0x8DEF3, size: 0x8, addend: 0x0, symName: __RNCNvXs_NtNtNtCs85QQFkKrybG_4core4iter8adapters5chainINtB6_5ChainIBQ_INtNtB8_7flatten7FlattenINtNtBc_6option8IntoIterINtNtCscwCr4GBBztI_3syn10punctuated4IterNtNtB1W_8generics14WherePredicateEEEINtNtNtBc_5slice4iter4IterB2v_EEINtB1w_4IterB2v_EENtNtNtBa_6traits8iterator8Iterator4next0Cs4oBEgEuuqV9_15zerocopy_derive, symObjAddr: 0x27F0, symBinAddr: 0x40038, symSize: 0x7C }
  - { offset: 0x8DFCB, size: 0x8, addend: 0x0, symName: __RNCNvXs_NtNtNtCs85QQFkKrybG_4core4iter8adapters5chainINtB6_5ChainINtNtB8_7flatten7FlattenINtNtBc_6option8IntoIterINtNtCscwCr4GBBztI_3syn10punctuated4IterNtNtB1S_8generics14WherePredicateEEEINtNtNtBc_5slice4iter4IterB2r_EENtNtNtBa_6traits8iterator8Iterator4next0Cs4oBEgEuuqV9_15zerocopy_derive, symObjAddr: 0x286C, symBinAddr: 0x400B4, symSize: 0x80 }
  - { offset: 0x8E0A4, size: 0x8, addend: 0x0, symName: __RNvXs_NtNtNtCs85QQFkKrybG_4core4iter8adapters5chainINtB4_5ChainIBO_IBO_INtNtB6_7flatten7FlattenINtNtBa_6option8IntoIterINtNtCscwCr4GBBztI_3syn10punctuated4IterNtNtB1Y_8generics14WherePredicateEEEINtNtNtBa_5slice4iter4IterB2x_EEINtB1y_4IterB2x_EEB3D_ENtNtNtB8_6traits8iterator8Iterator4nextCs4oBEgEuuqV9_15zerocopy_derive, symObjAddr: 0x34FC, symBinAddr: 0x40D40, symSize: 0x30 }
  - { offset: 0x8E0E2, size: 0x8, addend: 0x0, symName: __RNvXs_NtNtNtCs85QQFkKrybG_4core4iter8adapters5chainINtB4_5ChainIBO_INtNtB6_7flatten7FlattenINtNtBa_6option8IntoIterINtNtCscwCr4GBBztI_3syn10punctuated4IterNtNtB1U_8generics14WherePredicateEEEINtNtNtBa_5slice4iter4IterB2t_EEINtB1u_4IterB2t_EENtNtNtB8_6traits8iterator8Iterator4nextCs4oBEgEuuqV9_15zerocopy_derive, symObjAddr: 0x352C, symBinAddr: 0x40D70, symSize: 0x30 }
  - { offset: 0x8E120, size: 0x8, addend: 0x0, symName: __RNvXs_NtNtNtCs85QQFkKrybG_4core4iter8adapters5chainINtB4_5ChainINtNtB6_7flatten7FlattenINtNtBa_6option8IntoIterINtNtCscwCr4GBBztI_3syn10punctuated4IterNtNtB1Q_8generics14WherePredicateEEEINtNtNtBa_5slice4iter4IterB2p_EENtNtNtB8_6traits8iterator8Iterator4nextCs4oBEgEuuqV9_15zerocopy_derive, symObjAddr: 0x355C, symBinAddr: 0x40DA0, symSize: 0x30 }
  - { offset: 0x8E1C2, size: 0x8, addend: 0x0, symName: __RINvNtNtNtCs85QQFkKrybG_4core4iter8adapters7flatten17and_then_or_clearINtNtCscwCr4GBBztI_3syn10punctuated4IterNtNtB1b_4data5FieldERB1K_NvYB16_NtNtNtB6_6traits8iterator8Iterator4nextECs4oBEgEuuqV9_15zerocopy_derive, symObjAddr: 0x938, symBinAddr: 0x3E180, symSize: 0xEC }
  - { offset: 0x8E308, size: 0x8, addend: 0x0, symName: __RINvNtNtNtCs85QQFkKrybG_4core4iter8adapters7flatten17and_then_or_clearINtNtCscwCr4GBBztI_3syn10punctuated4IterNtNtB1b_8generics14WherePredicateERB1K_NvYB16_NtNtNtB6_6traits8iterator8Iterator4nextECs4oBEgEuuqV9_15zerocopy_derive, symObjAddr: 0xA24, symBinAddr: 0x3E26C, symSize: 0xEC }
  - { offset: 0x8E453, size: 0x8, addend: 0x0, symName: __RNvXs1_NtNtNtCs85QQFkKrybG_4core4iter8adapters7flattenINtB5_7FlatMapINtNtCscwCr4GBBztI_3syn10punctuated4IterNtNtB19_4data7VariantERNtB1K_6FieldsNCNvXs0_NtCs4oBEgEuuqV9_15zerocopy_derive3extNtNtB19_6derive8DataEnumNtB2q_7DataExt6fields0ENtNtNtB9_6traits8iterator8Iterator4nextB2s_, symObjAddr: 0x2FD0, symBinAddr: 0x40814, symSize: 0x24 }
  - { offset: 0x8E49A, size: 0x8, addend: 0x0, symName: __RNvXs1_NtNtNtCs85QQFkKrybG_4core4iter8adapters7flattenINtB5_7FlatMapINtNtCscwCr4GBBztI_3syn10punctuated4IterNtNtB19_4data7VariantERNtB1K_6FieldsNCNvXs0_NtCs4oBEgEuuqV9_15zerocopy_derive3extNtNtB19_6derive8DataEnumNtB2q_7DataExt6fields0ENtNtNtB9_6traits8iterator8Iterator9size_hintB2s_, symObjAddr: 0x2FF4, symBinAddr: 0x40838, symSize: 0x24 }
  - { offset: 0x8E4E7, size: 0x8, addend: 0x0, symName: __RNvXs9_NtNtNtCs85QQFkKrybG_4core4iter8adapters7flattenINtB5_7FlattenINtNtB7_3map3MapIB15_INtNtNtBb_5array4iter8IntoIterNtCsfwj6t2KTYdc_11proc_macro211TokenStreamKj2_ENCINvXs7_B1V_B1T_INtNtNtB9_6traits7collect12FromIteratorB1T_E9from_iterB1p_E0ENCINvXs6_NtB1V_3impNtB43_11TokenStreamIB2W_B4d_E9from_iterB1k_Es_0EENtNtB30_8iterator8Iterator4nextCs4oBEgEuuqV9_15zerocopy_derive, symObjAddr: 0x3388, symBinAddr: 0x40BCC, symSize: 0x24 }
  - { offset: 0x8E525, size: 0x8, addend: 0x0, symName: __RNvXs9_NtNtNtCs85QQFkKrybG_4core4iter8adapters7flattenINtB5_7FlattenINtNtB7_3map3MapIB15_INtNtNtBb_5array4iter8IntoIterNtCsfwj6t2KTYdc_11proc_macro211TokenStreamKj2_ENCINvXs7_B1V_B1T_INtNtNtB9_6traits7collect12FromIteratorB1T_E9from_iterB1p_E0ENCINvXs6_NtB1V_3impNtB43_11TokenStreamIB2W_B4d_E9from_iterB1k_Es_0EENtNtB30_8iterator8Iterator9size_hintCs4oBEgEuuqV9_15zerocopy_derive, symObjAddr: 0x33AC, symBinAddr: 0x40BF0, symSize: 0x24 }
  - { offset: 0x8E563, size: 0x8, addend: 0x0, symName: __RNvXs9_NtNtNtCs85QQFkKrybG_4core4iter8adapters7flattenINtB5_7FlattenINtNtBb_6option8IntoIterINtNtCscwCr4GBBztI_3syn10punctuated4IterNtNtB1x_8generics14WherePredicateEEENtNtNtB9_6traits8iterator8Iterator4nextCs4oBEgEuuqV9_15zerocopy_derive, symObjAddr: 0x33D0, symBinAddr: 0x40C14, symSize: 0x24 }
  - { offset: 0x8E5A7, size: 0x8, addend: 0x0, symName: __RNvXsi_NtNtNtCs85QQFkKrybG_4core4iter8adapters7flattenINtB5_13FlattenCompatINtNtB7_3map3MapIB1c_INtNtNtBb_5array4iter8IntoIterNtCsfwj6t2KTYdc_11proc_macro211TokenStreamKj2_ENCINvXs7_B22_B20_INtNtNtB9_6traits7collect12FromIteratorB20_E9from_iterB1w_E0ENCINvXs6_NtB22_3impNtB4a_11TokenStreamIB33_B4k_E9from_iterB1r_Es_0EINtNtB22_5rcvec13RcVecIntoIterNtB22_9TokenTreeEENtNtB37_8iterator8Iterator4nextCs4oBEgEuuqV9_15zerocopy_derive, symObjAddr: 0x43F8, symBinAddr: 0x41C3C, symSize: 0x12C }
  - { offset: 0x8E639, size: 0x8, addend: 0x0, symName: __RNvXsi_NtNtNtCs85QQFkKrybG_4core4iter8adapters7flattenINtB5_13FlattenCompatINtNtB7_3map3MapIB1c_INtNtNtBb_5array4iter8IntoIterNtCsfwj6t2KTYdc_11proc_macro211TokenStreamKj2_ENCINvXs7_B22_B20_INtNtNtB9_6traits7collect12FromIteratorB20_E9from_iterB1w_E0ENCINvXs6_NtB22_3impNtB4a_11TokenStreamIB33_B4k_E9from_iterB1r_Es_0EINtNtB22_5rcvec13RcVecIntoIterNtB22_9TokenTreeEENtNtB37_8iterator8Iterator9size_hintCs4oBEgEuuqV9_15zerocopy_derive, symObjAddr: 0x4524, symBinAddr: 0x41D68, symSize: 0x774 }
  - { offset: 0x8ED94, size: 0x8, addend: 0x0, symName: __RNvXsi_NtNtNtCs85QQFkKrybG_4core4iter8adapters7flattenINtB5_13FlattenCompatINtNtB7_3map3MapINtNtCscwCr4GBBztI_3syn10punctuated4IterNtNtB1w_4data7VariantENCNvXs0_NtCs4oBEgEuuqV9_15zerocopy_derive3extNtNtB1w_6derive8DataEnumNtB2z_7DataExt6fields0EIB1s_NtB27_5FieldEENtNtNtB9_6traits8iterator8Iterator4nextB2B_, symObjAddr: 0x4C98, symBinAddr: 0x424DC, symSize: 0x11C }
  - { offset: 0x8EE26, size: 0x8, addend: 0x0, symName: __RNvXsi_NtNtNtCs85QQFkKrybG_4core4iter8adapters7flattenINtB5_13FlattenCompatINtNtB7_3map3MapINtNtCscwCr4GBBztI_3syn10punctuated4IterNtNtB1w_4data7VariantENCNvXs0_NtCs4oBEgEuuqV9_15zerocopy_derive3extNtNtB1w_6derive8DataEnumNtB2z_7DataExt6fields0EIB1s_NtB27_5FieldEENtNtNtB9_6traits8iterator8Iterator9size_hintB2B_, symObjAddr: 0x4DB4, symBinAddr: 0x425F8, symSize: 0x77C }
  - { offset: 0x8F581, size: 0x8, addend: 0x0, symName: __RNvXsi_NtNtNtCs85QQFkKrybG_4core4iter8adapters7flattenINtB5_13FlattenCompatINtNtBb_6option8IntoIterINtNtCscwCr4GBBztI_3syn10punctuated4IterNtNtB1E_8generics14WherePredicateEEB1z_ENtNtNtB9_6traits8iterator8Iterator4nextCs4oBEgEuuqV9_15zerocopy_derive, symObjAddr: 0x5530, symBinAddr: 0x42D74, symSize: 0x128 }
  - { offset: 0x8F736, size: 0x8, addend: 0x0, symName: __RNvXs3_NtNtNtCs85QQFkKrybG_4core4iter8adapters3zipINtB5_3ZipINtNtNtBb_5slice4iter4IterNtCsfwj6t2KTYdc_11proc_macro25IdentEIBX_TRNtNtCscwCr4GBBztI_3syn11restriction10VisibilityNtB1o_11TokenStreamRNtNtB26_2ty4TypeEEEINtB5_7ZipImplBW_B1W_E3newCs4oBEgEuuqV9_15zerocopy_derive, symObjAddr: 0x3018, symBinAddr: 0x4085C, symSize: 0xBC }
  - { offset: 0x8F7C9, size: 0x8, addend: 0x0, symName: __RNvXs3_NtNtNtCs85QQFkKrybG_4core4iter8adapters3zipINtB5_3ZipINtNtNtBb_5slice4iter4IterNtCsfwj6t2KTYdc_11proc_macro25IdentEIBX_TRNtNtCscwCr4GBBztI_3syn11restriction10VisibilityNtB1o_11TokenStreamRNtNtB26_2ty4TypeEEEINtB5_7ZipImplBW_B1W_E4nextCs4oBEgEuuqV9_15zerocopy_derive, symObjAddr: 0x30D4, symBinAddr: 0x40918, symSize: 0xB0 }
  - { offset: 0x8F825, size: 0x8, addend: 0x0, symName: __RNvXs_NtNtNtCs85QQFkKrybG_4core4iter8adapters3zipINtB4_3ZipINtNtNtBa_5slice4iter4IterNtCsfwj6t2KTYdc_11proc_macro25IdentEIBW_TRNtNtCscwCr4GBBztI_3syn11restriction10VisibilityNtB1n_11TokenStreamRNtNtB25_2ty4TypeEEENtNtNtB8_6traits8iterator8Iterator4nextCs4oBEgEuuqV9_15zerocopy_derive, symObjAddr: 0x34D8, symBinAddr: 0x40D1C, symSize: 0x24 }
  - { offset: 0x8F8C3, size: 0x8, addend: 0x0, symName: __RINvYINtNtNtNtCs85QQFkKrybG_4core4iter8adapters3zip3ZipINtNtNtBc_5slice4iter4IterNtCsfwj6t2KTYdc_11proc_macro25IdentEIBS_TRNtNtCscwCr4GBBztI_3syn11restriction10VisibilityNtB1j_11TokenStreamRNtNtB21_2ty4TypeEEENtNtNtBa_6traits8iterator8Iterator3mapB2I_NCNvCs4oBEgEuuqV9_15zerocopy_derive25derive_known_layout_inners6_0EB45_, symObjAddr: 0x20EC, symBinAddr: 0x3F934, symSize: 0x30 }
  - { offset: 0x8F931, size: 0x8, addend: 0x0, symName: __RINvYINtNtNtNtCs85QQFkKrybG_4core4iter8adapters3zip3ZipINtNtNtBc_5slice4iter4IterNtCsfwj6t2KTYdc_11proc_macro25IdentEIBS_TRNtNtCscwCr4GBBztI_3syn11restriction10VisibilityNtB1j_11TokenStreamRNtNtB21_2ty4TypeEEENtNtNtBa_6traits8iterator8Iterator3mapB2I_NCNvCs4oBEgEuuqV9_15zerocopy_derive25derive_known_layout_inners7_0EB45_, symObjAddr: 0x211C, symBinAddr: 0x3F964, symSize: 0x58 }
  - { offset: 0x8F9A0, size: 0x8, addend: 0x0, symName: __RINvYINtNtNtNtCs85QQFkKrybG_4core4iter8adapters5chain5ChainIB4_INtNtB8_7flatten7FlattenINtNtBc_6option8IntoIterINtNtCscwCr4GBBztI_3syn10punctuated4IterNtNtB1Q_8generics14WherePredicateEEEINtNtNtBc_5slice4iter4IterB2p_EEINtB1q_4IterB2p_EENtNtNtBa_6traits8iterator8Iterator5chainB3v_ECs4oBEgEuuqV9_15zerocopy_derive, symObjAddr: 0x2174, symBinAddr: 0x3F9BC, symSize: 0xCC }
  - { offset: 0x8FA16, size: 0x8, addend: 0x0, symName: __RINvYINtNtNtNtCs85QQFkKrybG_4core4iter8adapters5chain5ChainINtNtB8_7flatten7FlattenINtNtBc_6option8IntoIterINtNtCscwCr4GBBztI_3syn10punctuated4IterNtNtB1M_8generics14WherePredicateEEEINtNtNtBc_5slice4iter4IterB2l_EENtNtNtBa_6traits8iterator8Iterator5chainINtB1m_4IterB2l_EECs4oBEgEuuqV9_15zerocopy_derive, symObjAddr: 0x2240, symBinAddr: 0x3FA88, symSize: 0xC4 }
  - { offset: 0x8FA8C, size: 0x8, addend: 0x0, symName: __RINvYINtNtNtNtCs85QQFkKrybG_4core4iter8adapters7flatten7FlattenINtNtBc_6option8IntoIterINtNtCscwCr4GBBztI_3syn10punctuated4IterNtNtB1s_8generics14WherePredicateEEENtNtNtBa_6traits8iterator8Iterator5chainINtNtNtBc_5slice4iter4IterB21_EECs4oBEgEuuqV9_15zerocopy_derive, symObjAddr: 0x2304, symBinAddr: 0x3FB4C, symSize: 0xD8 }
  - { offset: 0x8FB03, size: 0x8, addend: 0x0, symName: __RNvYINtNtNtNtCs85QQFkKrybG_4core4iter8adapters7flatten7FlatMapINtNtCscwCr4GBBztI_3syn10punctuated4IterNtNtB13_4data7VariantERNtB1E_6FieldsNCNvXs0_NtCs4oBEgEuuqV9_15zerocopy_derive3extNtNtB13_6derive8DataEnumNtB2k_7DataExt6fields0ENtNtNtB9_6traits8iterator8Iterator9enumerateB2m_, symObjAddr: 0x58C0, symBinAddr: 0x43104, symSize: 0x38 }
  - { offset: 0x8FB5C, size: 0x8, addend: 0x0, symName: __RNvXNtNtNtCs85QQFkKrybG_4core4iter6traits7collectINtNtNtB6_8adapters7flatten7FlatMapINtNtCscwCr4GBBztI_3syn10punctuated4IterNtNtB1p_4data7VariantERNtB20_6FieldsNCNvXs0_NtCs4oBEgEuuqV9_15zerocopy_derive3extNtNtB1p_6derive8DataEnumNtB2G_7DataExt6fields0ENtB2_12IntoIterator9into_iterB2I_, symObjAddr: 0x2EB0, symBinAddr: 0x406F4, symSize: 0x30 }
  - { offset: 0x8FB94, size: 0x8, addend: 0x0, symName: __RNvXNtNtNtCs85QQFkKrybG_4core4iter6traits7collectINtNtNtB6_8adapters7flatten7FlattenINtNtBQ_3map3MapIB1l_INtNtNtB8_5array4iter8IntoIterNtCsfwj6t2KTYdc_11proc_macro211TokenStreamKj2_ENCINvXs7_B2b_B29_INtB2_12FromIteratorB29_E9from_iterB1F_E0ENCINvXs6_NtB2b_3impNtB40_11TokenStreamIB3c_B4a_E9from_iterB1A_Es_0EENtB2_12IntoIterator9into_iterCs4oBEgEuuqV9_15zerocopy_derive, symObjAddr: 0x2EE0, symBinAddr: 0x40724, symSize: 0x30 }
  - { offset: 0x9074F, size: 0x8, addend: 0x0, symName: __RNvMNtCs85QQFkKrybG_4core5sliceSh15copy_from_sliceCs4oBEgEuuqV9_15zerocopy_derive, symObjAddr: 0x28EC, symBinAddr: 0x40134, symSize: 0xAC }
  - { offset: 0x90BFB, size: 0x8, addend: 0x0, symName: __RNvNvNtCs85QQFkKrybG_4core4hint16assert_unchecked18precondition_checkCs4oBEgEuuqV9_15zerocopy_derive, symObjAddr: 0x2CE8, symBinAddr: 0x4052C, symSize: 0xA4 }
  - { offset: 0x90C5B, size: 0x8, addend: 0x0, symName: __RNvNvNtCs85QQFkKrybG_4core4hint21unreachable_unchecked18precondition_checkCs4oBEgEuuqV9_15zerocopy_derive, symObjAddr: 0x2D8C, symBinAddr: 0x405D0, symSize: 0x84 }
  - { offset: 0x90E9F, size: 0x8, addend: 0x0, symName: __RINvNtNtNtCs9bTl5rSDVcL_10proc_macro6bridge6client5state3setINtNtCs85QQFkKrybG_4core6option6OptionNtB4_11TokenStreamENCNCINvB4_10run_clientB1y_BW_NCNCINvMs6_B4_INtB4_6ClientNtB8_11TokenStreamB2L_E7expand1NvCs4oBEgEuuqV9_15zerocopy_derive11derive_hashE00E00EB3i_, symObjAddr: 0xB10, symBinAddr: 0x3E358, symSize: 0xE8 }
  - { offset: 0x90F74, size: 0x8, addend: 0x0, symName: __RINvNtNtNtCs9bTl5rSDVcL_10proc_macro6bridge6client5state3setINtNtCs85QQFkKrybG_4core6option6OptionNtB4_11TokenStreamENCNCINvB4_10run_clientB1y_BW_NCNCINvMs6_B4_INtB4_6ClientNtB8_11TokenStreamB2L_E7expand1NvCs4oBEgEuuqV9_15zerocopy_derive14derive_no_cellE00E00EB3i_, symObjAddr: 0xBF8, symBinAddr: 0x3E440, symSize: 0xE8 }
  - { offset: 0x91049, size: 0x8, addend: 0x0, symName: __RINvNtNtNtCs9bTl5rSDVcL_10proc_macro6bridge6client5state3setINtNtCs85QQFkKrybG_4core6option6OptionNtB4_11TokenStreamENCNCINvB4_10run_clientB1y_BW_NCNCINvMs6_B4_INtB4_6ClientNtB8_11TokenStreamB2L_E7expand1NvCs4oBEgEuuqV9_15zerocopy_derive15derive_as_bytesE00E00EB3i_, symObjAddr: 0xCE0, symBinAddr: 0x3E528, symSize: 0xE8 }
  - { offset: 0x9111E, size: 0x8, addend: 0x0, symName: __RINvNtNtNtCs9bTl5rSDVcL_10proc_macro6bridge6client5state3setINtNtCs85QQFkKrybG_4core6option6OptionNtB4_11TokenStreamENCNCINvB4_10run_clientB1y_BW_NCNCINvMs6_B4_INtB4_6ClientNtB8_11TokenStreamB2L_E7expand1NvCs4oBEgEuuqV9_15zerocopy_derive15derive_split_atE00E00EB3i_, symObjAddr: 0xDC8, symBinAddr: 0x3E610, symSize: 0xE8 }
  - { offset: 0x911F3, size: 0x8, addend: 0x0, symName: __RINvNtNtNtCs9bTl5rSDVcL_10proc_macro6bridge6client5state3setINtNtCs85QQFkKrybG_4core6option6OptionNtB4_11TokenStreamENCNCINvB4_10run_clientB1y_BW_NCNCINvMs6_B4_INtB4_6ClientNtB8_11TokenStreamB2L_E7expand1NvCs4oBEgEuuqV9_15zerocopy_derive16derive_unalignedE00E00EB3i_, symObjAddr: 0xEB0, symBinAddr: 0x3E6F8, symSize: 0xE8 }
  - { offset: 0x912C8, size: 0x8, addend: 0x0, symName: __RINvNtNtNtCs9bTl5rSDVcL_10proc_macro6bridge6client5state3setINtNtCs85QQFkKrybG_4core6option6OptionNtB4_11TokenStreamENCNCINvB4_10run_clientB1y_BW_NCNCINvMs6_B4_INtB4_6ClientNtB8_11TokenStreamB2L_E7expand1NvCs4oBEgEuuqV9_15zerocopy_derive17derive_from_bytesE00E00EB3i_, symObjAddr: 0xF98, symBinAddr: 0x3E7E0, symSize: 0xE8 }
  - { offset: 0x9139D, size: 0x8, addend: 0x0, symName: __RINvNtNtNtCs9bTl5rSDVcL_10proc_macro6bridge6client5state3setINtNtCs85QQFkKrybG_4core6option6OptionNtB4_11TokenStreamENCNCINvB4_10run_clientB1y_BW_NCNCINvMs6_B4_INtB4_6ClientNtB8_11TokenStreamB2L_E7expand1NvCs4oBEgEuuqV9_15zerocopy_derive17derive_from_zerosE00E00EB3i_, symObjAddr: 0x1080, symBinAddr: 0x3E8C8, symSize: 0xE8 }
  - { offset: 0x91472, size: 0x8, addend: 0x0, symName: __RINvNtNtNtCs9bTl5rSDVcL_10proc_macro6bridge6client5state3setINtNtCs85QQFkKrybG_4core6option6OptionNtB4_11TokenStreamENCNCINvB4_10run_clientB1y_BW_NCNCINvMs6_B4_INtB4_6ClientNtB8_11TokenStreamB2L_E7expand1NvCs4oBEgEuuqV9_15zerocopy_derive17derive_into_bytesE00E00EB3i_, symObjAddr: 0x1168, symBinAddr: 0x3E9B0, symSize: 0xE8 }
  - { offset: 0x91547, size: 0x8, addend: 0x0, symName: __RINvNtNtNtCs9bTl5rSDVcL_10proc_macro6bridge6client5state3setINtNtCs85QQFkKrybG_4core6option6OptionNtB4_11TokenStreamENCNCINvB4_10run_clientB1y_BW_NCNCINvMs6_B4_INtB4_6ClientNtB8_11TokenStreamB2L_E7expand1NvCs4oBEgEuuqV9_15zerocopy_derive18derive_from_zeroesE00E00EB3i_, symObjAddr: 0x1250, symBinAddr: 0x3EA98, symSize: 0xE8 }
  - { offset: 0x9161C, size: 0x8, addend: 0x0, symName: __RINvNtNtNtCs9bTl5rSDVcL_10proc_macro6bridge6client5state3setINtNtCs85QQFkKrybG_4core6option6OptionNtB4_11TokenStreamENCNCINvB4_10run_clientB1y_BW_NCNCINvMs6_B4_INtB4_6ClientNtB8_11TokenStreamB2L_E7expand1NvCs4oBEgEuuqV9_15zerocopy_derive19derive_known_layoutE00E00EB3i_, symObjAddr: 0x1338, symBinAddr: 0x3EB80, symSize: 0xE8 }
  - { offset: 0x916F1, size: 0x8, addend: 0x0, symName: __RINvNtNtNtCs9bTl5rSDVcL_10proc_macro6bridge6client5state3setINtNtCs85QQFkKrybG_4core6option6OptionNtB4_11TokenStreamENCNCINvB4_10run_clientB1y_BW_NCNCINvMs6_B4_INtB4_6ClientNtB8_11TokenStreamB2L_E7expand1NvCs4oBEgEuuqV9_15zerocopy_derive21derive_try_from_bytesE00E00EB3i_, symObjAddr: 0x1420, symBinAddr: 0x3EC68, symSize: 0xE8 }
  - { offset: 0x917C6, size: 0x8, addend: 0x0, symName: __RINvNtNtNtCs9bTl5rSDVcL_10proc_macro6bridge6client5state3setINtNtCs85QQFkKrybG_4core6option6OptionNtB4_11TokenStreamENCNCINvB4_10run_clientB1y_BW_NCNCINvMs6_B4_INtB4_6ClientNtB8_11TokenStreamB2L_E7expand1NvCs4oBEgEuuqV9_15zerocopy_derive9derive_eqE00E00EB3i_, symObjAddr: 0x1508, symBinAddr: 0x3ED50, symSize: 0xE8 }
  - { offset: 0x918A5, size: 0x8, addend: 0x0, symName: __RNCNkNvNtNtNtCs9bTl5rSDVcL_10proc_macro6bridge6client5state12BRIDGE_STATE0s_0Cs4oBEgEuuqV9_15zerocopy_derive, symObjAddr: 0x26E4, symBinAddr: 0x3FF2C, symSize: 0x30 }
  - { offset: 0x9215B, size: 0x8, addend: 0x0, symName: __RNvXNtNtCs9bTl5rSDVcL_10proc_macro6bridge3rpcuINtB2_6EncodeuE6encodeCs4oBEgEuuqV9_15zerocopy_derive, symObjAddr: 0x2E9C, symBinAddr: 0x406E0, symSize: 0x14 }
  - { offset: 0x921A2, size: 0x8, addend: 0x0, symName: __RNvXs7_NtNtCs9bTl5rSDVcL_10proc_macro6bridge3rpcINtNtNtCs85QQFkKrybG_4core3num7nonzero7NonZeromEINtB5_9DecodeMutuE6decodeCs4oBEgEuuqV9_15zerocopy_derive, symObjAddr: 0x3184, symBinAddr: 0x409C8, symSize: 0x5C }
  - { offset: 0x9221D, size: 0x8, addend: 0x0, symName: __RNvXs9_NtNtCs9bTl5rSDVcL_10proc_macro6bridge3rpcTINtB7_11ExpnGlobalsNtNtB7_6client4SpanENtB16_11TokenStreamEINtB5_9DecodeMutuE6decodeCs4oBEgEuuqV9_15zerocopy_derive, symObjAddr: 0x3204, symBinAddr: 0x40A48, symSize: 0x84 }
  - { offset: 0x922AA, size: 0x8, addend: 0x0, symName: __RNvXsa_NtNtCs9bTl5rSDVcL_10proc_macro6bridge3rpcRShINtB5_6EncodeuE6encodeCs4oBEgEuuqV9_15zerocopy_derive, symObjAddr: 0x358C, symBinAddr: 0x40DD0, symSize: 0xD8 }
  - { offset: 0x923B0, size: 0x8, addend: 0x0, symName: __RNvXsc_NtNtCs9bTl5rSDVcL_10proc_macro6bridge3rpcReINtB5_6EncodeuE6encodeCs4oBEgEuuqV9_15zerocopy_derive, symObjAddr: 0x3664, symBinAddr: 0x40EA8, symSize: 0x38 }
  - { offset: 0x92498, size: 0x8, addend: 0x0, symName: __RNvXsl_NtNtCs9bTl5rSDVcL_10proc_macro6bridge3rpcNtB5_12PanicMessageINtB5_6EncodeuE6encodeCs4oBEgEuuqV9_15zerocopy_derive, symObjAddr: 0x5658, symBinAddr: 0x42E9C, symSize: 0x12C }
  - { offset: 0x92666, size: 0x8, addend: 0x0, symName: __RNvXso_NtNtCs9bTl5rSDVcL_10proc_macro6bridge3rpcmINtB5_9DecodeMutuE6decodeCs4oBEgEuuqV9_15zerocopy_derive, symObjAddr: 0x5784, symBinAddr: 0x42FC8, symSize: 0xFC }
  - { offset: 0x927D2, size: 0x8, addend: 0x0, symName: __RNvXs1J_NtCs9bTl5rSDVcL_10proc_macro6bridgeINtB6_11ExpnGlobalsNtNtB6_6client4SpanEINtNtB6_3rpc9DecodeMutuE6decodeCs4oBEgEuuqV9_15zerocopy_derive, symObjAddr: 0x2F10, symBinAddr: 0x40754, symSize: 0xB0 }
  - { offset: 0x9292F, size: 0x8, addend: 0x0, symName: __RINvXsj_Cs9bTl5rSDVcL_10proc_macroNtB6_11TokenStreamINtNtNtNtCs85QQFkKrybG_4core4iter6traits7collect6ExtendBw_E6extendINtNtNtBV_8adapters3map3MapIB1T_INtNtNtBX_5array4iter8IntoIterNtCsfwj6t2KTYdc_11proc_macro211TokenStreamKj2_ENCINvXs7_B2U_B2S_INtBR_12FromIteratorB2S_E9from_iterB2o_E0ENCINvXs6_NtB2U_3impNtB4J_11TokenStreamIB3V_B4T_E9from_iterB2j_E0EECs4oBEgEuuqV9_15zerocopy_derive, symObjAddr: 0x1FD4, symBinAddr: 0x3F81C, symSize: 0x118 }
  - { offset: 0x929A4, size: 0x8, addend: 0x0, symName: __RNCINvXsj_Cs9bTl5rSDVcL_10proc_macroNtB8_11TokenStreamINtNtNtNtCs85QQFkKrybG_4core4iter6traits7collect6ExtendBy_E6extendINtNtNtBX_8adapters3map3MapIB1V_INtNtNtBZ_5array4iter8IntoIterNtCsfwj6t2KTYdc_11proc_macro211TokenStreamKj2_ENCINvXs7_B2W_B2U_INtBT_12FromIteratorB2U_E9from_iterB2q_E0ENCINvXs6_NtB2W_3impNtB4L_11TokenStreamIB3X_B4V_E9from_iterB2l_E0EE0Cs4oBEgEuuqV9_15zerocopy_derive, symObjAddr: 0x25BC, symBinAddr: 0x3FE04, symSize: 0x2C }
  - { offset: 0x929F0, size: 0x8, addend: 0x0, symName: __RNvXsU_Cs9bTl5rSDVcL_10proc_macroNtB5_11TokenStreamNtNtCs85QQFkKrybG_4core5clone5Clone5cloneCs4oBEgEuuqV9_15zerocopy_derive, symObjAddr: 0x33F4, symBinAddr: 0x40C38, symSize: 0x64 }
  - { offset: 0x92EBA, size: 0x8, addend: 0x0, symName: __RNvXs1_NtCsfwj6t2KTYdc_11proc_macro26markerNtB5_19ProcMacroAutoTraitsNtNtCs85QQFkKrybG_4core5clone5Clone5cloneCs4oBEgEuuqV9_15zerocopy_derive, symObjAddr: 0x2FC0, symBinAddr: 0x40804, symSize: 0x10 }
  - { offset: 0x93069, size: 0x8, addend: 0x0, symName: __RINvXs1_NtNtCs4oBEgEuuqV9_15zerocopy_derive4repr4utilINtNtNtCs85QQFkKrybG_4core3num7nonzero7NonZeromEINtB6_4WithBP_E11try_with_orNtB8_20UnsupportedReprErrorNCNvXs6_B8_INtB8_9AlignReprBP_EINtNtBW_7convert7TryFromNtB8_7RawReprE8try_from0EBa_, symObjAddr: 0x1EF0, symBinAddr: 0x3F738, symSize: 0x58 }
  - { offset: 0x930C1, size: 0x8, addend: 0x0, symName: __RINvXs1_NtNtCs4oBEgEuuqV9_15zerocopy_derive4repr4utilINtNtNtCs85QQFkKrybG_4core3num7nonzero7NonZeromEINtB6_4WithBP_E4withuNCNvXs4_B8_INtB6_7SpannedINtB8_9AlignReprBP_EENtNtCshi3DZH3dfhk_5quote9to_tokens8ToTokens9to_tokenss_0EBa_, symObjAddr: 0x1F48, symBinAddr: 0x3F790, symSize: 0x3C }
  - { offset: 0x9311C, size: 0x8, addend: 0x0, symName: __RINvXs2_NtNtCs4oBEgEuuqV9_15zerocopy_derive4repr4utilNtNtCs85QQFkKrybG_4core7convert10InfallibleINtB6_4WithINtNtNtBT_3num7nonzero7NonZeromEE11try_with_orNtB8_20UnsupportedReprErrorNCNvXs6_B8_INtB8_9AlignReprBP_EINtBR_7TryFromNtB8_7RawReprE8try_from0EBa_, symObjAddr: 0x1F84, symBinAddr: 0x3F7CC, symSize: 0x20 }
  - { offset: 0x93170, size: 0x8, addend: 0x0, symName: __RINvXs2_NtNtCs4oBEgEuuqV9_15zerocopy_derive4repr4utilNtNtCs85QQFkKrybG_4core7convert10InfallibleINtB6_4WithNtB8_13PrimitiveReprE11try_with_orNtB8_20UnsupportedReprErrorNCNvXs5_B8_INtB8_12CompoundReprBP_EINtBR_7TryFromNtB8_7RawReprE8try_from0EBa_, symObjAddr: 0x1FA4, symBinAddr: 0x3F7EC, symSize: 0x20 }
  - { offset: 0x931C4, size: 0x8, addend: 0x0, symName: __RINvXs2_NtNtCs4oBEgEuuqV9_15zerocopy_derive4repr4utilNtNtCs85QQFkKrybG_4core7convert10InfallibleINtB6_4WithNtB8_13PrimitiveReprE4withuNCNvXs2_B8_INtB6_7SpannedINtB8_12CompoundReprBP_EENtNtCshi3DZH3dfhk_5quote9to_tokens8ToTokens9to_tokens0EBa_, symObjAddr: 0x1FC4, symBinAddr: 0x3F80C, symSize: 0x10 }
  - { offset: 0x935F7, size: 0x8, addend: 0x0, symName: __RINvNtCs4oBEgEuuqV9_15zerocopy_derive3ext10map_fieldsINtNtNtNtCs85QQFkKrybG_4core4iter8adapters7flatten7FlatMapINtNtCscwCr4GBBztI_3syn10punctuated4IterNtNtB1Q_4data7VariantERNtB2r_6FieldsNCNvXs0_B2_NtNtB1Q_6derive8DataEnumNtB2_7DataExt6fields0EEB4_, symObjAddr: 0xF8, symBinAddr: 0x3D940, symSize: 0x64 }
  - { offset: 0x9362D, size: 0x8, addend: 0x0, symName: __RINvNtCs4oBEgEuuqV9_15zerocopy_derive3ext10map_fieldsRINtNtCscwCr4GBBztI_3syn10punctuated10PunctuatedNtNtBV_4data5FieldNtNtBV_5token5CommaEEB4_, symObjAddr: 0x15C, symBinAddr: 0x3D9A4, symSize: 0x60 }
  - { offset: 0x93662, size: 0x8, addend: 0x0, symName: __RINvNtCs4oBEgEuuqV9_15zerocopy_derive3ext10map_fieldsRNtNtCscwCr4GBBztI_3syn4data6FieldsEB4_, symObjAddr: 0x1BC, symBinAddr: 0x3DA04, symSize: 0x60 }
  - { offset: 0x936A8, size: 0x8, addend: 0x0, symName: __RNCNvXs0_NtCs4oBEgEuuqV9_15zerocopy_derive3extNtNtCscwCr4GBBztI_3syn6derive8DataEnumNtB7_7DataExt6fields0B9_, symObjAddr: 0x2714, symBinAddr: 0x3FF5C, symSize: 0x20 }
  - { offset: 0x936E4, size: 0x8, addend: 0x0, symName: __RNCNvXs0_NtCs4oBEgEuuqV9_15zerocopy_derive3extNtNtCscwCr4GBBztI_3syn6derive8DataEnumNtB7_7DataExt8variants0B9_, symObjAddr: 0x2734, symBinAddr: 0x3FF7C, symSize: 0x40 }
  - { offset: 0x93728, size: 0x8, addend: 0x0, symName: __RNCINvNtCs4oBEgEuuqV9_15zerocopy_derive3ext10map_fieldsINtNtNtNtCs85QQFkKrybG_4core4iter8adapters7flatten7FlatMapINtNtCscwCr4GBBztI_3syn10punctuated4IterNtNtB1S_4data7VariantERNtB2t_6FieldsNCNvXs0_B4_NtNtB1S_6derive8DataEnumNtB4_7DataExt6fields0EE0B6_, symObjAddr: 0x23DC, symBinAddr: 0x3FC24, symSize: 0xA0 }
  - { offset: 0x93787, size: 0x8, addend: 0x0, symName: __RNCINvNtCs4oBEgEuuqV9_15zerocopy_derive3ext10map_fieldsRINtNtCscwCr4GBBztI_3syn10punctuated10PunctuatedNtNtBX_4data5FieldNtNtBX_5token5CommaEE0B6_, symObjAddr: 0x247C, symBinAddr: 0x3FCC4, symSize: 0xA0 }
  - { offset: 0x937E6, size: 0x8, addend: 0x0, symName: __RNCINvNtCs4oBEgEuuqV9_15zerocopy_derive3ext10map_fieldsRNtNtCscwCr4GBBztI_3syn4data6FieldsE0B6_, symObjAddr: 0x251C, symBinAddr: 0x3FD64, symSize: 0xA0 }
  - { offset: 0x9384A, size: 0x8, addend: 0x0, symName: __RNCNCINvNtCs4oBEgEuuqV9_15zerocopy_derive3ext10map_fieldsINtNtNtNtCs85QQFkKrybG_4core4iter8adapters7flatten7FlatMapINtNtCscwCr4GBBztI_3syn10punctuated4IterNtNtB1U_4data7VariantERNtB2v_6FieldsNCNvXs0_B6_NtNtB1U_6derive8DataEnumNtB6_7DataExt6fields0EE00B8_, symObjAddr: 0x25E8, symBinAddr: 0x3FE30, symSize: 0x54 }
  - { offset: 0x93881, size: 0x8, addend: 0x0, symName: __RNCNCINvNtCs4oBEgEuuqV9_15zerocopy_derive3ext10map_fieldsRINtNtCscwCr4GBBztI_3syn10punctuated10PunctuatedNtNtBZ_4data5FieldNtNtBZ_5token5CommaEE00B8_, symObjAddr: 0x263C, symBinAddr: 0x3FE84, symSize: 0x54 }
  - { offset: 0x938B8, size: 0x8, addend: 0x0, symName: __RNCNCINvNtCs4oBEgEuuqV9_15zerocopy_derive3ext10map_fieldsRNtNtCscwCr4GBBztI_3syn4data6FieldsE00B8_, symObjAddr: 0x2690, symBinAddr: 0x3FED8, symSize: 0x54 }
  - { offset: 0x94207, size: 0x8, addend: 0x0, symName: __RNvXs_NtCsdFlNUEO95cG_5alloc5allocNtB4_6GlobalNtNtCs85QQFkKrybG_4core5alloc9Allocator10deallocateCs4oBEgEuuqV9_15zerocopy_derive, symObjAddr: 0x3458, symBinAddr: 0x40C9C, symSize: 0x80 }
  - { offset: 0x942CF, size: 0x8, addend: 0x0, symName: __RNvNtCsdFlNUEO95cG_5alloc5alloc15exchange_mallocCs4oBEgEuuqV9_15zerocopy_derive, symObjAddr: 0x2BB8, symBinAddr: 0x403FC, symSize: 0xAC }
  - { offset: 0x94C86, size: 0x8, addend: 0x0, symName: __RINvMNtNtCs85QQFkKrybG_4core3fmt2rtNtB3_8Argument11new_displayNtCsfwj6t2KTYdc_11proc_macro211TokenStreamECs4oBEgEuuqV9_15zerocopy_derive, symObjAddr: 0x74, symBinAddr: 0x3D8BC, symSize: 0x2C }
  - { offset: 0x9557B, size: 0x8, addend: 0x0, symName: __RINvNtCscwCr4GBBztI_3syn11parse_quote5parseNtNtB4_2ty4TypeECs4oBEgEuuqV9_15zerocopy_derive, symObjAddr: 0x21C, symBinAddr: 0x3DA64, symSize: 0xD0 }
  - { offset: 0x955DB, size: 0x8, addend: 0x0, symName: __RINvNtCscwCr4GBBztI_3syn11parse_quote5parseNtNtB4_4path4PathECs4oBEgEuuqV9_15zerocopy_derive, symObjAddr: 0x2EC, symBinAddr: 0x3DB34, symSize: 0xCC }
  - { offset: 0x9563B, size: 0x8, addend: 0x0, symName: __RINvNtCscwCr4GBBztI_3syn11parse_quote5parseNtNtB4_6derive11DeriveInputECs4oBEgEuuqV9_15zerocopy_derive, symObjAddr: 0x3B8, symBinAddr: 0x3DC00, symSize: 0xD0 }
  - { offset: 0x9569B, size: 0x8, addend: 0x0, symName: __RINvNtCscwCr4GBBztI_3syn11parse_quote5parseNtNtB4_8generics14WherePredicateECs4oBEgEuuqV9_15zerocopy_derive, symObjAddr: 0x488, symBinAddr: 0x3DCD0, symSize: 0xD0 }
  - { offset: 0x99B5E, size: 0x8, addend: 0x0, symName: __RNvXsh_NtCscwCr4GBBztI_3syn5parseNvYNtNtB7_2ty4TypeNtNtB7_11parse_quote10ParseQuote5parseNtB5_6Parser6parse2Cs4oBEgEuuqV9_15zerocopy_derive, symObjAddr: 0x369C, symBinAddr: 0x40EE0, symSize: 0x354 }
  - { offset: 0x99C6E, size: 0x8, addend: 0x0, symName: __RNvXsh_NtCscwCr4GBBztI_3syn5parseNvYNtNtB7_4path4PathNtNtB7_11parse_quote10ParseQuote5parseNtB5_6Parser6parse2Cs4oBEgEuuqV9_15zerocopy_derive, symObjAddr: 0x39F0, symBinAddr: 0x41234, symSize: 0x350 }
  - { offset: 0x99D7E, size: 0x8, addend: 0x0, symName: __RNvXsh_NtCscwCr4GBBztI_3syn5parseNvYNtNtB7_6derive11DeriveInputNtNtB7_11parse_quote10ParseQuote5parseNtB5_6Parser6parse2Cs4oBEgEuuqV9_15zerocopy_derive, symObjAddr: 0x3D40, symBinAddr: 0x41584, symSize: 0x354 }
  - { offset: 0x99E8E, size: 0x8, addend: 0x0, symName: __RNvXsh_NtCscwCr4GBBztI_3syn5parseNvYNtNtB7_8generics14WherePredicateNtNtB7_11parse_quote10ParseQuote5parseNtB5_6Parser6parse2Cs4oBEgEuuqV9_15zerocopy_derive, symObjAddr: 0x4094, symBinAddr: 0x418D8, symSize: 0x364 }
  - { offset: 0x9A374, size: 0x8, addend: 0x0, symName: __RINvMNtNtCs85QQFkKrybG_4core3fmt2rtNtB3_8Argument11new_displayNtNtNtCscwCr4GBBztI_3syn4attr7parsing16DisplayAttrStyleECs4oBEgEuuqV9_15zerocopy_derive, symObjAddr: 0xA0, symBinAddr: 0x3D8E8, symSize: 0x2C }
  - { offset: 0x9A3AC, size: 0x8, addend: 0x0, symName: __RINvMNtNtCs85QQFkKrybG_4core3fmt2rtNtB3_8Argument11new_displayRNtCsfwj6t2KTYdc_11proc_macro211TokenStreamECs4oBEgEuuqV9_15zerocopy_derive, symObjAddr: 0xCC, symBinAddr: 0x3D914, symSize: 0x2C }
  - { offset: 0x9B586, size: 0x8, addend: 0x0, symName: __RNvMNtCsdFlNUEO95cG_5alloc5allocNtB2_6Global10alloc_implCs4oBEgEuuqV9_15zerocopy_derive, symObjAddr: 0x2998, symBinAddr: 0x401E0, symSize: 0x1FC }
  - { offset: 0x9B918, size: 0x8, addend: 0x0, symName: __RNvMsd_NtNtCs85QQFkKrybG_4core3num7nonzeroINtB5_7NonZeromE3getCs4oBEgEuuqV9_15zerocopy_derive, symObjAddr: 0x2B94, symBinAddr: 0x403DC, symSize: 0x10 }
  - { offset: 0x9B944, size: 0x8, addend: 0x0, symName: __RNvMsd_NtNtCs85QQFkKrybG_4core3num7nonzeroINtB5_7NonZeromE3newCs4oBEgEuuqV9_15zerocopy_derive, symObjAddr: 0x2BA4, symBinAddr: 0x403EC, symSize: 0x10 }
  - { offset: 0x9BA61, size: 0x8, addend: 0x0, symName: __RNvXNtCshi3DZH3dfhk_5quote9to_tokensRNtNtCscwCr4GBBztI_3syn5token2EqNtB2_8ToTokens9to_tokensCs4oBEgEuuqV9_15zerocopy_derive, symObjAddr: 0x2E10, symBinAddr: 0x40654, symSize: 0x40 }
  - { offset: 0x9BAA0, size: 0x8, addend: 0x0, symName: __RNvXNtCshi3DZH3dfhk_5quote9to_tokensReNtB2_8ToTokens9to_tokensCs4oBEgEuuqV9_15zerocopy_derive, symObjAddr: 0x2E50, symBinAddr: 0x40694, symSize: 0x4C }
  - { offset: 0x9BAF0, size: 0x8, addend: 0x0, symName: __RNvYINtNtNtNtCs85QQFkKrybG_4core4iter8adapters5chain5ChainIB3_IB3_INtNtB7_7flatten7FlattenINtNtBb_6option8IntoIterINtNtCscwCr4GBBztI_3syn10punctuated4IterNtNtB1T_8generics14WherePredicateEEEINtNtNtBb_5slice4iter4IterB2s_EEINtB1t_4IterB2s_EEB3y_ENtNtNtCshi3DZH3dfhk_5quote9___private3ext14RepIteratorExt15quote_into_iterCs4oBEgEuuqV9_15zerocopy_derive, symObjAddr: 0x5880, symBinAddr: 0x430C4, symSize: 0x40 }
  - { offset: 0x9C395, size: 0x8, addend: 0x0, symName: __RINvMNtCs85QQFkKrybG_4core3stre5parseINtNtNtB5_3num7nonzero7NonZeromEECs4oBEgEuuqV9_15zerocopy_derive, symObjAddr: 0x0, symBinAddr: 0x4313C, symSize: 0x38 }
  - { offset: 0x9C8BB, size: 0x8, addend: 0x0, symName: __RNCNvXss_NtCscwCr4GBBztI_3syn10punctuatedINtB7_11PrivateIterNtNtB9_4data7VariantNtNtB9_5token5CommaENtNtNtNtCs85QQFkKrybG_4core4iter6traits8iterator8Iterator4next0Cs4oBEgEuuqV9_15zerocopy_derive, symObjAddr: 0x2270, symBinAddr: 0x453AC, symSize: 0x14 }
  - { offset: 0x9C906, size: 0x8, addend: 0x0, symName: __RNCNvXss_NtCscwCr4GBBztI_3syn10punctuatedINtB7_11PrivateIterNtNtB9_4data7VariantNtNtB9_5token5CommaENtNtNtNtCs85QQFkKrybG_4core4iter6traits8iterator8Iterator4nexts_0Cs4oBEgEuuqV9_15zerocopy_derive, symObjAddr: 0x2284, symBinAddr: 0x453C0, symSize: 0x34 }
  - { offset: 0x9C948, size: 0x8, addend: 0x0, symName: __RNCNvXss_NtCscwCr4GBBztI_3syn10punctuatedINtB7_11PrivateIterNtNtB9_8generics14WherePredicateNtNtB9_5token5CommaENtNtNtNtCs85QQFkKrybG_4core4iter6traits8iterator8Iterator4next0Cs4oBEgEuuqV9_15zerocopy_derive, symObjAddr: 0x22B8, symBinAddr: 0x453F4, symSize: 0x14 }
  - { offset: 0x9C993, size: 0x8, addend: 0x0, symName: __RNCNvXss_NtCscwCr4GBBztI_3syn10punctuatedINtB7_11PrivateIterNtNtB9_8generics14WherePredicateNtNtB9_5token5CommaENtNtNtNtCs85QQFkKrybG_4core4iter6traits8iterator8Iterator4nexts_0Cs4oBEgEuuqV9_15zerocopy_derive, symObjAddr: 0x22CC, symBinAddr: 0x45408, symSize: 0x34 }
  - { offset: 0x9C9D6, size: 0x8, addend: 0x0, symName: __RNvXss_NtCscwCr4GBBztI_3syn10punctuatedINtB5_11PrivateIterNtNtB7_4data7VariantNtNtB7_5token5CommaENtNtNtNtCs85QQFkKrybG_4core4iter6traits8iterator8Iterator4nextCs4oBEgEuuqV9_15zerocopy_derive, symObjAddr: 0x4DBC, symBinAddr: 0x47EF8, symSize: 0x44 }
  - { offset: 0x9CA16, size: 0x8, addend: 0x0, symName: __RNvXss_NtCscwCr4GBBztI_3syn10punctuatedINtB5_11PrivateIterNtNtB7_8generics14WherePredicateNtNtB7_5token5CommaENtNtNtNtCs85QQFkKrybG_4core4iter6traits8iterator8Iterator4nextCs4oBEgEuuqV9_15zerocopy_derive, symObjAddr: 0x4E00, symBinAddr: 0x47F3C, symSize: 0x44 }
  - { offset: 0x9CA9A, size: 0x8, addend: 0x0, symName: __RNCNCNvXst_NtCscwCr4GBBztI_3syn10punctuatedINtB9_11PrivateIterNtNtBb_4data7VariantNtNtBb_5token5CommaENtNtNtNtCs85QQFkKrybG_4core4iter6traits12double_ended19DoubleEndedIterator9next_back00Cs4oBEgEuuqV9_15zerocopy_derive, symObjAddr: 0x2248, symBinAddr: 0x45384, symSize: 0x14 }
  - { offset: 0x9CAE5, size: 0x8, addend: 0x0, symName: __RNCNCNvXst_NtCscwCr4GBBztI_3syn10punctuatedINtB9_11PrivateIterNtNtBb_8generics14WherePredicateNtNtBb_5token5CommaENtNtNtNtCs85QQFkKrybG_4core4iter6traits12double_ended19DoubleEndedIterator9next_back00Cs4oBEgEuuqV9_15zerocopy_derive, symObjAddr: 0x225C, symBinAddr: 0x45398, symSize: 0x14 }
  - { offset: 0x9CB31, size: 0x8, addend: 0x0, symName: __RNCNvXst_NtCscwCr4GBBztI_3syn10punctuatedINtB7_11PrivateIterNtNtB9_4data7VariantNtNtB9_5token5CommaENtNtNtNtCs85QQFkKrybG_4core4iter6traits12double_ended19DoubleEndedIterator9next_back0Cs4oBEgEuuqV9_15zerocopy_derive, symObjAddr: 0x2300, symBinAddr: 0x4543C, symSize: 0x38 }
  - { offset: 0x9CB73, size: 0x8, addend: 0x0, symName: __RNCNvXst_NtCscwCr4GBBztI_3syn10punctuatedINtB7_11PrivateIterNtNtB9_8generics14WherePredicateNtNtB9_5token5CommaENtNtNtNtCs85QQFkKrybG_4core4iter6traits12double_ended19DoubleEndedIterator9next_back0Cs4oBEgEuuqV9_15zerocopy_derive, symObjAddr: 0x2338, symBinAddr: 0x45474, symSize: 0x38 }
  - { offset: 0x9CBB6, size: 0x8, addend: 0x0, symName: __RNvXst_NtCscwCr4GBBztI_3syn10punctuatedINtB5_11PrivateIterNtNtB7_4data7VariantNtNtB7_5token5CommaENtNtNtNtCs85QQFkKrybG_4core4iter6traits12double_ended19DoubleEndedIterator9next_backCs4oBEgEuuqV9_15zerocopy_derive, symObjAddr: 0x4E68, symBinAddr: 0x47FA4, symSize: 0x40 }
  - { offset: 0x9CBF6, size: 0x8, addend: 0x0, symName: __RNvXst_NtCscwCr4GBBztI_3syn10punctuatedINtB5_11PrivateIterNtNtB7_8generics14WherePredicateNtNtB7_5token5CommaENtNtNtNtCs85QQFkKrybG_4core4iter6traits12double_ended19DoubleEndedIterator9next_backCs4oBEgEuuqV9_15zerocopy_derive, symObjAddr: 0x4EA8, symBinAddr: 0x47FE4, symSize: 0x40 }
  - { offset: 0x9CDDE, size: 0x8, addend: 0x0, symName: __RNvXs4_NtCscwCr4GBBztI_3syn10punctuatedINtB5_10PunctuatedNtNtB7_4attr4MetaNtNtB7_5token5CommaENtNtNtNtCs85QQFkKrybG_4core4iter6traits7collect12IntoIterator9into_iterCs4oBEgEuuqV9_15zerocopy_derive, symObjAddr: 0x37B8, symBinAddr: 0x468F4, symSize: 0x35C }
  - { offset: 0x9CE82, size: 0x8, addend: 0x0, symName: __RNvXs4_NtCscwCr4GBBztI_3syn10punctuatedINtB5_10PunctuatedNtNtB7_8generics12GenericParamNtNtB7_5token5CommaENtNtNtNtCs85QQFkKrybG_4core4iter6traits7collect12IntoIterator9into_iterCs4oBEgEuuqV9_15zerocopy_derive, symObjAddr: 0x3B14, symBinAddr: 0x46C50, symSize: 0x360 }
  - { offset: 0x9CF2C, size: 0x8, addend: 0x0, symName: __RNvXs5_NtCscwCr4GBBztI_3syn10punctuatedRINtB5_10PunctuatedNtNtB7_4data5FieldNtNtB7_5token5CommaENtNtNtNtCs85QQFkKrybG_4core4iter6traits7collect12IntoIterator9into_iterCs4oBEgEuuqV9_15zerocopy_derive, symObjAddr: 0x3E84, symBinAddr: 0x46FC0, symSize: 0x34 }
  - { offset: 0x9CF72, size: 0x8, addend: 0x0, symName: __RNvXs7_NtCscwCr4GBBztI_3syn10punctuatedINtB5_10PunctuatedNtNtB7_8generics14WherePredicateNtNtB7_5token5CommaENtNtCs85QQFkKrybG_4core7default7Default7defaultCs4oBEgEuuqV9_15zerocopy_derive, symObjAddr: 0x3ED4, symBinAddr: 0x47010, symSize: 0x24 }
  - { offset: 0x9CFA9, size: 0x8, addend: 0x0, symName: __RNvXsj_NtCscwCr4GBBztI_3syn10punctuatedINtB5_8IntoIterNtNtB7_4attr4MetaENtNtNtNtCs85QQFkKrybG_4core4iter6traits8iterator8Iterator4nextCs4oBEgEuuqV9_15zerocopy_derive, symObjAddr: 0x4B24, symBinAddr: 0x47C60, symSize: 0x34 }
  - { offset: 0x9CFE0, size: 0x8, addend: 0x0, symName: __RNvXsj_NtCscwCr4GBBztI_3syn10punctuatedINtB5_8IntoIterNtNtB7_8generics12GenericParamENtNtNtNtCs85QQFkKrybG_4core4iter6traits8iterator8Iterator4nextCs4oBEgEuuqV9_15zerocopy_derive, symObjAddr: 0x4B58, symBinAddr: 0x47C94, symSize: 0x34 }
  - { offset: 0x9D01D, size: 0x8, addend: 0x0, symName: __RNvXsp_NtCscwCr4GBBztI_3syn10punctuatedINtB5_4IterNtNtB7_4data5FieldENtNtNtNtCs85QQFkKrybG_4core4iter6traits8iterator8Iterator9size_hintCs4oBEgEuuqV9_15zerocopy_derive, symObjAddr: 0x4BCC, symBinAddr: 0x47D08, symSize: 0x68 }
  - { offset: 0x9D054, size: 0x8, addend: 0x0, symName: __RNvXsp_NtCscwCr4GBBztI_3syn10punctuatedINtB5_4IterNtNtB7_4data7VariantENtNtNtNtCs85QQFkKrybG_4core4iter6traits8iterator8Iterator4nextCs4oBEgEuuqV9_15zerocopy_derive, symObjAddr: 0x4C34, symBinAddr: 0x47D70, symSize: 0x48 }
  - { offset: 0x9D08B, size: 0x8, addend: 0x0, symName: __RNvXsp_NtCscwCr4GBBztI_3syn10punctuatedINtB5_4IterNtNtB7_4data7VariantENtNtNtNtCs85QQFkKrybG_4core4iter6traits8iterator8Iterator9size_hintCs4oBEgEuuqV9_15zerocopy_derive, symObjAddr: 0x4C7C, symBinAddr: 0x47DB8, symSize: 0x68 }
  - { offset: 0x9D0C2, size: 0x8, addend: 0x0, symName: __RNvXsp_NtCscwCr4GBBztI_3syn10punctuatedINtB5_4IterNtNtB7_8generics14WherePredicateENtNtNtNtCs85QQFkKrybG_4core4iter6traits8iterator8Iterator4nextCs4oBEgEuuqV9_15zerocopy_derive, symObjAddr: 0x4CE4, symBinAddr: 0x47E20, symSize: 0x48 }
  - { offset: 0x9D0FF, size: 0x8, addend: 0x0, symName: __RNvXsr_NtCscwCr4GBBztI_3syn10punctuatedINtB5_4IterNtNtB7_4data5FieldENtNtNtNtCs85QQFkKrybG_4core4iter6traits10exact_size17ExactSizeIterator3lenCs4oBEgEuuqV9_15zerocopy_derive, symObjAddr: 0x4D2C, symBinAddr: 0x47E68, symSize: 0x48 }
  - { offset: 0x9D136, size: 0x8, addend: 0x0, symName: __RNvXsr_NtCscwCr4GBBztI_3syn10punctuatedINtB5_4IterNtNtB7_4data7VariantENtNtNtNtCs85QQFkKrybG_4core4iter6traits10exact_size17ExactSizeIterator3lenCs4oBEgEuuqV9_15zerocopy_derive, symObjAddr: 0x4D74, symBinAddr: 0x47EB0, symSize: 0x48 }
  - { offset: 0x9D173, size: 0x8, addend: 0x0, symName: __RNvXsu_NtCscwCr4GBBztI_3syn10punctuatedINtB5_11PrivateIterNtNtB7_4data7VariantNtNtB7_5token5CommaENtNtNtNtCs85QQFkKrybG_4core4iter6traits10exact_size17ExactSizeIterator3lenCs4oBEgEuuqV9_15zerocopy_derive, symObjAddr: 0x4EE8, symBinAddr: 0x48024, symSize: 0x94 }
  - { offset: 0x9D1EB, size: 0x8, addend: 0x0, symName: __RNvXsu_NtCscwCr4GBBztI_3syn10punctuatedINtB5_11PrivateIterNtNtB7_8generics14WherePredicateNtNtB7_5token5CommaENtNtNtNtCs85QQFkKrybG_4core4iter6traits10exact_size17ExactSizeIterator3lenCs4oBEgEuuqV9_15zerocopy_derive, symObjAddr: 0x4F7C, symBinAddr: 0x480B8, symSize: 0x94 }
  - { offset: 0x9D269, size: 0x8, addend: 0x0, symName: __RNvXsv_NtCscwCr4GBBztI_3syn10punctuatedINtB5_11PrivateIterNtNtB7_4data7VariantNtNtB7_5token5CommaENtNtCs85QQFkKrybG_4core5clone5Clone5cloneCs4oBEgEuuqV9_15zerocopy_derive, symObjAddr: 0x5010, symBinAddr: 0x4814C, symSize: 0x68 }
  - { offset: 0x9D2A9, size: 0x8, addend: 0x0, symName: __RNvXsv_NtCscwCr4GBBztI_3syn10punctuatedINtB5_11PrivateIterNtNtB7_8generics14WherePredicateNtNtB7_5token5CommaENtNtCs85QQFkKrybG_4core5clone5Clone5cloneCs4oBEgEuuqV9_15zerocopy_derive, symObjAddr: 0x5078, symBinAddr: 0x481B4, symSize: 0x68 }
  - { offset: 0x9D2EF, size: 0x8, addend: 0x0, symName: __RNvXsw_NtCscwCr4GBBztI_3syn10punctuatedINtB5_11PrivateIterNtNtB7_4data7VariantNtNtB7_5token5CommaEINtB5_9IterTraitBU_E9clone_boxCs4oBEgEuuqV9_15zerocopy_derive, symObjAddr: 0x5170, symBinAddr: 0x482AC, symSize: 0x94 }
  - { offset: 0x9D34D, size: 0x8, addend: 0x0, symName: __RNvXsw_NtCscwCr4GBBztI_3syn10punctuatedINtB5_11PrivateIterNtNtB7_8generics14WherePredicateNtNtB7_5token5CommaEINtB5_9IterTraitBU_E9clone_boxCs4oBEgEuuqV9_15zerocopy_derive, symObjAddr: 0x5204, symBinAddr: 0x48340, symSize: 0x94 }
  - { offset: 0xA1EEC, size: 0x8, addend: 0x0, symName: __RNvXsh_NtCscwCr4GBBztI_3syn5parseNvMNtB7_10punctuatedINtBy_10PunctuatedNtNtB7_4attr4MetaNtNtB7_5token5CommaE16parse_terminatedNtB5_6Parser14___parse_scopedCs4oBEgEuuqV9_15zerocopy_derive, symObjAddr: 0x477C, symBinAddr: 0x478B8, symSize: 0x3A8 }
  - { offset: 0xA339B, size: 0x8, addend: 0x0, symName: __RNvXss_NtCsdFlNUEO95cG_5alloc6stringNtB5_6StringNtNtNtCs85QQFkKrybG_4core3ops5deref5Deref5derefCs4oBEgEuuqV9_15zerocopy_derive, symObjAddr: 0x4E44, symBinAddr: 0x47F80, symSize: 0x24 }
  - { offset: 0xA3D41, size: 0x8, addend: 0x0, symName: __RNvXsR_NtCs9bTl5rSDVcL_10proc_macro6bridgeINtNtCs85QQFkKrybG_4core6option6OptionNtNtB5_6client11TokenStreamEINtNtB5_3rpc6EncodeuE6encodeCs4oBEgEuuqV9_15zerocopy_derive, symObjAddr: 0x3FF4, symBinAddr: 0x47130, symSize: 0xCC }
  - { offset: 0xA3DE7, size: 0x8, addend: 0x0, symName: __RNvXsR_NtCs9bTl5rSDVcL_10proc_macro6bridgeINtNtCs85QQFkKrybG_4core6option6OptionReEINtNtB5_3rpc6EncodeuE6encodeCs4oBEgEuuqV9_15zerocopy_derive, symObjAddr: 0x40C0, symBinAddr: 0x471FC, symSize: 0xD8 }
  - { offset: 0xA7BA2, size: 0x8, addend: 0x0, symName: __RNvXs6_NtCs85QQFkKrybG_4core6optionINtB5_6OptionINtNtCscwCr4GBBztI_3syn10punctuated4IterNtNtBP_8generics14WherePredicateEENtNtNtNtB7_4iter6traits7collect12IntoIterator9into_iterCs4oBEgEuuqV9_15zerocopy_derive, symObjAddr: 0x3EB8, symBinAddr: 0x46FF4, symSize: 0x1C }
  - { offset: 0xA7BDF, size: 0x8, addend: 0x0, symName: __RNvXs9_NtCs85QQFkKrybG_4core6optionINtB5_6OptionNtCs4oBEgEuuqV9_15zerocopy_derive12PaddingCheckEINtNtB7_7convert4FromBK_E4fromBM_, symObjAddr: 0x3F10, symBinAddr: 0x4704C, symSize: 0x14 }
  - { offset: 0xA7CE2, size: 0x8, addend: 0x0, symName: __RNvXsP_NtCs85QQFkKrybG_4core6optionINtB5_8IntoIterRNtNtCscwCr4GBBztI_3syn4data7VariantENtNtB7_5clone5Clone5cloneCs4oBEgEuuqV9_15zerocopy_derive, symObjAddr: 0x3F24, symBinAddr: 0x47060, symSize: 0x68 }
  - { offset: 0xA7D8D, size: 0x8, addend: 0x0, symName: __RNvXsP_NtCs85QQFkKrybG_4core6optionINtB5_8IntoIterRNtNtCscwCr4GBBztI_3syn8generics14WherePredicateENtNtB7_5clone5Clone5cloneCs4oBEgEuuqV9_15zerocopy_derive, symObjAddr: 0x3F8C, symBinAddr: 0x470C8, symSize: 0x68 }
  - { offset: 0xA8377, size: 0x8, addend: 0x0, symName: __RNvXsl_NtCs85QQFkKrybG_4core6optionINtB5_4IterNtCsfwj6t2KTYdc_11proc_macro25IdentENtNtNtNtB7_4iter6traits8iterator8Iterator4nextCs4oBEgEuuqV9_15zerocopy_derive, symObjAddr: 0x4B8C, symBinAddr: 0x47CC8, symSize: 0x20 }
  - { offset: 0xA83EF, size: 0x8, addend: 0x0, symName: __RNvXsl_NtCs85QQFkKrybG_4core6optionINtB5_4IterNtNtCscwCr4GBBztI_3syn8generics14WherePredicateENtNtNtNtB7_4iter6traits8iterator8Iterator4nextCs4oBEgEuuqV9_15zerocopy_derive, symObjAddr: 0x4BAC, symBinAddr: 0x47CE8, symSize: 0x20 }
  - { offset: 0xA846D, size: 0x8, addend: 0x0, symName: __RNvXsw_NtCs85QQFkKrybG_4core6optionINtB5_8IntoIterINtNtCscwCr4GBBztI_3syn10punctuated4IterNtNtBR_8generics14WherePredicateEENtNtNtNtB7_4iter6traits8iterator8Iterator4nextCs4oBEgEuuqV9_15zerocopy_derive, symObjAddr: 0x50E0, symBinAddr: 0x4821C, symSize: 0x28 }
  - { offset: 0xA84E5, size: 0x8, addend: 0x0, symName: __RNvXsw_NtCs85QQFkKrybG_4core6optionINtB5_8IntoIterRNtNtCscwCr4GBBztI_3syn4data7VariantENtNtNtNtB7_4iter6traits8iterator8Iterator9size_hintCs4oBEgEuuqV9_15zerocopy_derive, symObjAddr: 0x5108, symBinAddr: 0x48244, symSize: 0x34 }
  - { offset: 0xA855D, size: 0x8, addend: 0x0, symName: __RNvXsw_NtCs85QQFkKrybG_4core6optionINtB5_8IntoIterRNtNtCscwCr4GBBztI_3syn8generics14WherePredicateENtNtNtNtB7_4iter6traits8iterator8Iterator9size_hintCs4oBEgEuuqV9_15zerocopy_derive, symObjAddr: 0x513C, symBinAddr: 0x48278, symSize: 0x34 }
  - { offset: 0xA8BC6, size: 0x8, addend: 0x0, symName: __RNvXs7_NtNtCs85QQFkKrybG_4core5slice5indexNtNtNtB9_3ops5range9RangeFullINtB5_10SliceIndexSTRNtNtCscwCr4GBBztI_3syn11restriction10VisibilityNtCsfwj6t2KTYdc_11proc_macro211TokenStreamRNtNtB1w_2ty4TypeEE5indexCs4oBEgEuuqV9_15zerocopy_derive, symObjAddr: 0x3EF8, symBinAddr: 0x47034, symSize: 0x18 }
  - { offset: 0xA8CC0, size: 0x8, addend: 0x0, symName: __RINvNtCs85QQFkKrybG_4core9panicking13panic_displayNtNtCscwCr4GBBztI_3syn5error5ErrorECs4oBEgEuuqV9_15zerocopy_derive, symObjAddr: 0x1590, symBinAddr: 0x446CC, symSize: 0x88 }
  - { offset: 0xA8D51, size: 0x8, addend: 0x0, symName: __RINvMNtCs85QQFkKrybG_4core3stre5parseINtNtNtB5_3num7nonzero7NonZeromEECs4oBEgEuuqV9_15zerocopy_derive, symObjAddr: 0x0, symBinAddr: 0x4313C, symSize: 0x38 }
  - { offset: 0xA8D88, size: 0x8, addend: 0x0, symName: __RINvMNtCs85QQFkKrybG_4core3stre5parseoECs4oBEgEuuqV9_15zerocopy_derive, symObjAddr: 0x38, symBinAddr: 0x43174, symSize: 0x28 }
  - { offset: 0xA8DBF, size: 0x8, addend: 0x0, symName: __RNvMNtCs85QQFkKrybG_4core3stre8is_emptyCs4oBEgEuuqV9_15zerocopy_derive, symObjAddr: 0x2370, symBinAddr: 0x454AC, symSize: 0x1C }
  - { offset: 0xA8E14, size: 0x8, addend: 0x0, symName: __RNvXs_NtNtCs85QQFkKrybG_4core3str6traitseNtNtB8_3cmp9PartialEq2eqCs4oBEgEuuqV9_15zerocopy_derive, symObjAddr: 0x4198, symBinAddr: 0x472D4, symSize: 0xAC }
  - { offset: 0xA9F54, size: 0x8, addend: 0x0, symName: __RNvXs_NtNtNtCs85QQFkKrybG_4core4iter8adapters6copiedINtB4_6CopiedINtNtNtBa_5slice4iter4IterNtCs4oBEgEuuqV9_15zerocopy_derive5TraitEENtNtNtB8_6traits8iterator8Iterator4nextB1t_, symObjAddr: 0x4244, symBinAddr: 0x47380, symSize: 0x60 }
  - { offset: 0xAA047, size: 0x8, addend: 0x0, symName: __RNvXs_NtNtNtCs85QQFkKrybG_4core4iter8adapters9enumerateINtB4_9EnumerateINtNtB6_7flatten7FlatMapINtNtCscwCr4GBBztI_3syn10punctuated4IterNtNtB1A_4data7VariantERNtB2b_6FieldsNCNvXs0_NtCs4oBEgEuuqV9_15zerocopy_derive3extNtNtB1A_6derive8DataEnumNtB2R_7DataExt6fields0EENtNtNtB8_6traits8iterator8Iterator4nextB2T_, symObjAddr: 0x42A4, symBinAddr: 0x473E0, symSize: 0xE0 }
  - { offset: 0xAA12D, size: 0x8, addend: 0x0, symName: __RNvXs_NtNtNtCs85QQFkKrybG_4core4iter8adapters9enumerateINtB4_9EnumerateINtNtB6_7flatten7FlatMapINtNtCscwCr4GBBztI_3syn10punctuated4IterNtNtB1A_4data7VariantERNtB2b_6FieldsNCNvXs0_NtCs4oBEgEuuqV9_15zerocopy_derive3extNtNtB1A_6derive8DataEnumNtB2R_7DataExt6fields0EENtNtNtB8_6traits8iterator8Iterator9size_hintB2T_, symObjAddr: 0x4384, symBinAddr: 0x474C0, symSize: 0x24 }
  - { offset: 0xAA162, size: 0x8, addend: 0x0, symName: __RNvXs_NtNtNtCs85QQFkKrybG_4core4iter8adapters9enumerateINtB4_9EnumerateINtNtCscwCr4GBBztI_3syn10punctuated4IterNtNtB1c_4data5FieldEENtNtNtB8_6traits8iterator8Iterator4nextCs4oBEgEuuqV9_15zerocopy_derive, symObjAddr: 0x43A8, symBinAddr: 0x474E4, symSize: 0xE0 }
  - { offset: 0xAA248, size: 0x8, addend: 0x0, symName: __RNvXs_NtNtNtCs85QQFkKrybG_4core4iter8adapters9enumerateINtB4_9EnumerateINtNtCscwCr4GBBztI_3syn10punctuated4IterNtNtB1c_4data5FieldEENtNtNtB8_6traits8iterator8Iterator9size_hintCs4oBEgEuuqV9_15zerocopy_derive, symObjAddr: 0x4488, symBinAddr: 0x475C4, symSize: 0x24 }
  - { offset: 0xAA27D, size: 0x8, addend: 0x0, symName: __RNvXs_NtNtNtCs85QQFkKrybG_4core4iter8adapters9enumerateINtB4_9EnumerateINtNtCscwCr4GBBztI_3syn10punctuated4IterNtNtB1c_4data7VariantEENtNtNtB8_6traits8iterator8Iterator4nextCs4oBEgEuuqV9_15zerocopy_derive, symObjAddr: 0x44AC, symBinAddr: 0x475E8, symSize: 0xE0 }
  - { offset: 0xAA3DC, size: 0x8, addend: 0x0, symName: __RINvYINtNtCscwCr4GBBztI_3syn10punctuated11PrivateIterNtNtB8_4data7VariantNtNtB8_5token5CommaENtNtNtNtCs85QQFkKrybG_4core4iter6traits8iterator8Iterator8try_foldINtNtNtB1B_3num7nonzero7NonZerojENCNvXs_NvB1t_10advance_byB3_NtB3b_13SpecAdvanceBy15spec_advance_by0INtNtB1B_6option6OptionB2x_EECs4oBEgEuuqV9_15zerocopy_derive, symObjAddr: 0x16B4, symBinAddr: 0x447F0, symSize: 0x150 }
  - { offset: 0xAA490, size: 0x8, addend: 0x0, symName: __RINvYINtNtCscwCr4GBBztI_3syn10punctuated11PrivateIterNtNtB8_8generics14WherePredicateNtNtB8_5token5CommaENtNtNtNtCs85QQFkKrybG_4core4iter6traits8iterator8Iterator8try_foldINtNtNtB1N_3num7nonzero7NonZerojENCNvXs_NvB1F_10advance_byB3_NtB3n_13SpecAdvanceBy15spec_advance_by0INtNtB1N_6option6OptionB2J_EECs4oBEgEuuqV9_15zerocopy_derive, symObjAddr: 0x1804, symBinAddr: 0x44940, symSize: 0x150 }
  - { offset: 0xAA544, size: 0x8, addend: 0x0, symName: __RINvYINtNtCscwCr4GBBztI_3syn10punctuated4IterNtNtB8_4data5FieldENtNtNtNtCs85QQFkKrybG_4core4iter6traits8iterator8Iterator3mapNtNtB8_8generics14WherePredicateNCNvCs4oBEgEuuqV9_15zerocopy_derive22derive_from_zeros_enum0EB2z_, symObjAddr: 0x1954, symBinAddr: 0x44A90, symSize: 0x30 }
  - { offset: 0xAA5B1, size: 0x8, addend: 0x0, symName: __RINvYINtNtCscwCr4GBBztI_3syn10punctuated4IterNtNtB8_4data5FieldENtNtNtNtCs85QQFkKrybG_4core4iter6traits8iterator8Iterator3mapRNtNtB8_2ty4TypeNCNCNvNtCs4oBEgEuuqV9_15zerocopy_derive4enum24generate_variant_structs00EB2n_, symObjAddr: 0x1984, symBinAddr: 0x44AC0, symSize: 0x1C }
  - { offset: 0xAA609, size: 0x8, addend: 0x0, symName: __RINvYINtNtCscwCr4GBBztI_3syn10punctuated4IterNtNtB8_4data7VariantENtNtNtNtCs85QQFkKrybG_4core4iter6traits8iterator8Iterator10filter_mapNtCsfwj6t2KTYdc_11proc_macro211TokenStreamNCNvNtCs4oBEgEuuqV9_15zerocopy_derive4enum23generate_variants_union0EB2V_, symObjAddr: 0x19A0, symBinAddr: 0x44ADC, symSize: 0x30 }
  - { offset: 0xAA676, size: 0x8, addend: 0x0, symName: __RINvYINtNtCscwCr4GBBztI_3syn10punctuated4IterNtNtB8_4data7VariantENtNtNtNtCs85QQFkKrybG_4core4iter6traits8iterator8Iterator10filter_mapNtCsfwj6t2KTYdc_11proc_macro211TokenStreamNCNvNtCs4oBEgEuuqV9_15zerocopy_derive4enum24generate_variant_structs0EB2V_, symObjAddr: 0x19D0, symBinAddr: 0x44B0C, symSize: 0x34 }
  - { offset: 0xAA6E3, size: 0x8, addend: 0x0, symName: __RINvYINtNtCscwCr4GBBztI_3syn10punctuated4IterNtNtB8_4data7VariantENtNtNtNtCs85QQFkKrybG_4core4iter6traits8iterator8Iterator3mapINtNtCsdFlNUEO95cG_5alloc3vec3VecTRNtNtB8_11restriction10VisibilityNtCsfwj6t2KTYdc_11proc_macro211TokenStreamRNtNtB8_2ty4TypeEENCNvXs0_NtCs4oBEgEuuqV9_15zerocopy_derive3extNtNtB8_6derive8DataEnumNtB4c_7DataExt8variants0EB4e_, symObjAddr: 0x1A04, symBinAddr: 0x44B40, symSize: 0x1C }
  - { offset: 0xAA73B, size: 0x8, addend: 0x0, symName: __RINvYINtNtCscwCr4GBBztI_3syn10punctuated4IterNtNtB8_4data7VariantENtNtNtNtCs85QQFkKrybG_4core4iter6traits8iterator8Iterator3mapNtCsfwj6t2KTYdc_11proc_macro211TokenStreamNCNvNtCs4oBEgEuuqV9_15zerocopy_derive4enum17generate_tag_enum0EB2N_, symObjAddr: 0x1A20, symBinAddr: 0x44B5C, symSize: 0x1C }
  - { offset: 0xAA793, size: 0x8, addend: 0x0, symName: __RINvYINtNtCscwCr4GBBztI_3syn10punctuated4IterNtNtB8_4data7VariantENtNtNtNtCs85QQFkKrybG_4core4iter6traits8iterator8Iterator3mapNtCsfwj6t2KTYdc_11proc_macro211TokenStreamNCNvNtCs4oBEgEuuqV9_15zerocopy_derive4enum19derive_is_bit_valid0EB2N_, symObjAddr: 0x1A3C, symBinAddr: 0x44B78, symSize: 0x38 }
  - { offset: 0xAA800, size: 0x8, addend: 0x0, symName: __RINvYINtNtCscwCr4GBBztI_3syn10punctuated4IterNtNtB8_4data7VariantENtNtNtNtCs85QQFkKrybG_4core4iter6traits8iterator8Iterator3mapNtCsfwj6t2KTYdc_11proc_macro211TokenStreamNCNvNtCs4oBEgEuuqV9_15zerocopy_derive4enum19generate_tag_consts0EB2N_, symObjAddr: 0x1A74, symBinAddr: 0x44BB0, symSize: 0x1C }
  - { offset: 0xAA858, size: 0x8, addend: 0x0, symName: __RINvYINtNtCscwCr4GBBztI_3syn10punctuated4IterNtNtB8_4data7VariantENtNtNtNtCs85QQFkKrybG_4core4iter6traits8iterator8Iterator3mapRNtBJ_6FieldsNCNvXs0_NtCs4oBEgEuuqV9_15zerocopy_derive3extNtNtB8_6derive8DataEnumNtB2m_7DataExt6fields0EB2o_, symObjAddr: 0x1A90, symBinAddr: 0x44BCC, symSize: 0x1C }
  - { offset: 0xAA8B0, size: 0x8, addend: 0x0, symName: __RINvYINtNtCscwCr4GBBztI_3syn10punctuated4IterNtNtB8_4data7VariantENtNtNtNtCs85QQFkKrybG_4core4iter6traits8iterator8Iterator8find_mapNtCsfwj6t2KTYdc_11proc_macro211TokenStreamQNCNvNtCs4oBEgEuuqV9_15zerocopy_derive4enum23generate_variants_union0EB2T_, symObjAddr: 0x1AAC, symBinAddr: 0x44BE8, symSize: 0xA8 }
  - { offset: 0xAA938, size: 0x8, addend: 0x0, symName: __RINvYINtNtCscwCr4GBBztI_3syn10punctuated4IterNtNtB8_4data7VariantENtNtNtNtCs85QQFkKrybG_4core4iter6traits8iterator8Iterator8find_mapNtCsfwj6t2KTYdc_11proc_macro211TokenStreamQNCNvNtCs4oBEgEuuqV9_15zerocopy_derive4enum24generate_variant_structs0EB2T_, symObjAddr: 0x1B54, symBinAddr: 0x44C90, symSize: 0xA8 }
  - { offset: 0xAA9C0, size: 0x8, addend: 0x0, symName: __RINvYINtNtCscwCr4GBBztI_3syn10punctuated4IterNtNtB8_4data7VariantENtNtNtNtCs85QQFkKrybG_4core4iter6traits8iterator8Iterator8flat_mapRNtBJ_6FieldsNCNvXs0_NtCs4oBEgEuuqV9_15zerocopy_derive3extNtNtB8_6derive8DataEnumNtB2r_7DataExt6fields0EB2t_, symObjAddr: 0x1BFC, symBinAddr: 0x44D38, symSize: 0x78 }
  - { offset: 0xAAA5B, size: 0x8, addend: 0x0, symName: __RINvYINtNtCscwCr4GBBztI_3syn10punctuated4IterNtNtB8_4data7VariantENtNtNtNtCs85QQFkKrybG_4core4iter6traits8iterator8Iterator8try_foldINtNtNtB1a_3num7nonzero7NonZerojENCNvXs_NvB12_10advance_byB3_NtB2K_13SpecAdvanceBy15spec_advance_by0INtNtB1a_6option6OptionB26_EECs4oBEgEuuqV9_15zerocopy_derive, symObjAddr: 0x1C74, symBinAddr: 0x44DB0, symSize: 0x150 }
  - { offset: 0xAAB0F, size: 0x8, addend: 0x0, symName: __RINvYINtNtCscwCr4GBBztI_3syn10punctuated4IterNtNtB8_4data7VariantENtNtNtNtCs85QQFkKrybG_4core4iter6traits8iterator8Iterator8try_folduNCINvNvB12_8find_map5checkRBH_NtCsfwj6t2KTYdc_11proc_macro211TokenStreamQNCNvNtCs4oBEgEuuqV9_15zerocopy_derive4enum23generate_variants_union0E0INtNtNtB1a_3ops12control_flow11ControlFlowB2B_EEB3o_, symObjAddr: 0x1DC4, symBinAddr: 0x44F00, symSize: 0x134 }
  - { offset: 0xAABCA, size: 0x8, addend: 0x0, symName: __RINvYINtNtCscwCr4GBBztI_3syn10punctuated4IterNtNtB8_4data7VariantENtNtNtNtCs85QQFkKrybG_4core4iter6traits8iterator8Iterator8try_folduNCINvNvB12_8find_map5checkRBH_NtCsfwj6t2KTYdc_11proc_macro211TokenStreamQNCNvNtCs4oBEgEuuqV9_15zerocopy_derive4enum24generate_variant_structs0E0INtNtNtB1a_3ops12control_flow11ControlFlowB2B_EEB3o_, symObjAddr: 0x1EF8, symBinAddr: 0x45034, symSize: 0x134 }
  - { offset: 0xAAC85, size: 0x8, addend: 0x0, symName: __RINvYINtNtCscwCr4GBBztI_3syn10punctuated4IterNtNtB8_8generics12GenericParamENtNtNtNtCs85QQFkKrybG_4core4iter6traits8iterator8Iterator3mapNtCsfwj6t2KTYdc_11proc_macro211TokenStreamNCNvMs5_Cs4oBEgEuuqV9_15zerocopy_deriveINtB2Z_16ImplBlockBuilderNtNtB8_6derive10DataStructE5builds3_0EB2Z_, symObjAddr: 0x202C, symBinAddr: 0x45168, symSize: 0x1C }
  - { offset: 0xAACDD, size: 0x8, addend: 0x0, symName: __RINvYINtNtCscwCr4GBBztI_3syn10punctuated4IterNtNtB8_8generics12GenericParamENtNtNtNtCs85QQFkKrybG_4core4iter6traits8iterator8Iterator3mapNtCsfwj6t2KTYdc_11proc_macro211TokenStreamNCNvMs5_Cs4oBEgEuuqV9_15zerocopy_deriveINtB2Z_16ImplBlockBuilderNtNtB8_6derive4DataE5builds3_0EB2Z_, symObjAddr: 0x2048, symBinAddr: 0x45184, symSize: 0x1C }
  - { offset: 0xAAD35, size: 0x8, addend: 0x0, symName: __RINvYINtNtCscwCr4GBBztI_3syn10punctuated4IterNtNtB8_8generics12GenericParamENtNtNtNtCs85QQFkKrybG_4core4iter6traits8iterator8Iterator3mapNtCsfwj6t2KTYdc_11proc_macro211TokenStreamNCNvMs5_Cs4oBEgEuuqV9_15zerocopy_deriveINtB2Z_16ImplBlockBuilderNtNtB8_6derive8DataEnumE5builds3_0EB2Z_, symObjAddr: 0x2064, symBinAddr: 0x451A0, symSize: 0x1C }
  - { offset: 0xAAD8D, size: 0x8, addend: 0x0, symName: __RINvYINtNtCscwCr4GBBztI_3syn10punctuated4IterNtNtB8_8generics12GenericParamENtNtNtNtCs85QQFkKrybG_4core4iter6traits8iterator8Iterator3mapNtCsfwj6t2KTYdc_11proc_macro211TokenStreamNCNvMs5_Cs4oBEgEuuqV9_15zerocopy_deriveINtB2Z_16ImplBlockBuilderNtNtB8_6derive9DataUnionE5builds3_0EB2Z_, symObjAddr: 0x2080, symBinAddr: 0x451BC, symSize: 0x1C }
  - { offset: 0xAADE5, size: 0x8, addend: 0x0, symName: __RINvYINtNtCscwCr4GBBztI_3syn10punctuated8IntoIterNtNtB8_8generics12GenericParamENtNtNtNtCs85QQFkKrybG_4core4iter6traits8iterator8Iterator3mapNtCsfwj6t2KTYdc_11proc_macro211TokenStreamNCNvMs5_Cs4oBEgEuuqV9_15zerocopy_deriveINtB33_16ImplBlockBuilderNtNtB8_6derive10DataStructE5builds2_0EB33_, symObjAddr: 0x209C, symBinAddr: 0x451D8, symSize: 0x1C }
  - { offset: 0xAAE52, size: 0x8, addend: 0x0, symName: __RINvYINtNtCscwCr4GBBztI_3syn10punctuated8IntoIterNtNtB8_8generics12GenericParamENtNtNtNtCs85QQFkKrybG_4core4iter6traits8iterator8Iterator3mapNtCsfwj6t2KTYdc_11proc_macro211TokenStreamNCNvMs5_Cs4oBEgEuuqV9_15zerocopy_deriveINtB33_16ImplBlockBuilderNtNtB8_6derive4DataE5builds2_0EB33_, symObjAddr: 0x20B8, symBinAddr: 0x451F4, symSize: 0x1C }
  - { offset: 0xAAEBF, size: 0x8, addend: 0x0, symName: __RINvYINtNtCscwCr4GBBztI_3syn10punctuated8IntoIterNtNtB8_8generics12GenericParamENtNtNtNtCs85QQFkKrybG_4core4iter6traits8iterator8Iterator3mapNtCsfwj6t2KTYdc_11proc_macro211TokenStreamNCNvMs5_Cs4oBEgEuuqV9_15zerocopy_deriveINtB33_16ImplBlockBuilderNtNtB8_6derive8DataEnumE5builds2_0EB33_, symObjAddr: 0x20D4, symBinAddr: 0x45210, symSize: 0x1C }
  - { offset: 0xAAF2C, size: 0x8, addend: 0x0, symName: __RINvYINtNtCscwCr4GBBztI_3syn10punctuated8IntoIterNtNtB8_8generics12GenericParamENtNtNtNtCs85QQFkKrybG_4core4iter6traits8iterator8Iterator3mapNtCsfwj6t2KTYdc_11proc_macro211TokenStreamNCNvMs5_Cs4oBEgEuuqV9_15zerocopy_deriveINtB33_16ImplBlockBuilderNtNtB8_6derive9DataUnionE5builds2_0EB33_, symObjAddr: 0x20F0, symBinAddr: 0x4522C, symSize: 0x1C }
  - { offset: 0xAAF99, size: 0x8, addend: 0x0, symName: __RINvYINtNtNtCs85QQFkKrybG_4core5array4iter8IntoIterNtCsfwj6t2KTYdc_11proc_macro211TokenStreamKj2_ENtNtNtNtBa_4iter6traits8iterator8Iterator3mapNtNtBP_3imp11TokenStreamNCINvXs7_BP_BN_INtNtB1C_7collect12FromIteratorBN_E9from_iterB3_E0ECs4oBEgEuuqV9_15zerocopy_derive, symObjAddr: 0x210C, symBinAddr: 0x45248, symSize: 0x30 }
  - { offset: 0xAB007, size: 0x8, addend: 0x0, symName: __RINvYINtNtNtCs85QQFkKrybG_4core5array4iter8IntoIterNtCsfwj6t2KTYdc_11proc_macro211TokenStreamKj2_ENtNtNtNtBa_4iter6traits8iterator8Iterator7collectBN_ECs4oBEgEuuqV9_15zerocopy_derive, symObjAddr: 0x213C, symBinAddr: 0x45278, symSize: 0x6C }
  - { offset: 0xAB09D, size: 0x8, addend: 0x0, symName: __RINvYINtNtNtNtCs85QQFkKrybG_4core4iter8adapters6copied6CopiedINtNtNtBc_5slice4iter4IterNtCs4oBEgEuuqV9_15zerocopy_derive5TraitEENtNtNtBa_6traits8iterator8Iterator3mapNtNtCscwCr4GBBztI_3syn4path4PathNCINvNvMs5_B1p_INtB1p_16ImplBlockBuilderpE5build8bound_ttB3_E0EB1p_, symObjAddr: 0x21A8, symBinAddr: 0x452E4, symSize: 0x30 }
  - { offset: 0xAB10A, size: 0x8, addend: 0x0, symName: __RINvYINtNtNtNtCs85QQFkKrybG_4core4iter8adapters9enumerate9EnumerateINtNtB8_7flatten7FlatMapINtNtCscwCr4GBBztI_3syn10punctuated4IterNtNtB1w_4data7VariantERNtB27_6FieldsNCNvXs0_NtCs4oBEgEuuqV9_15zerocopy_derive3extNtNtB1w_6derive8DataEnumNtB2N_7DataExt6fields0EENtNtNtBa_6traits8iterator8Iterator3mapTRNtNtB1w_11restriction10VisibilityNtCsfwj6t2KTYdc_11proc_macro211TokenStreamRNtNtB1w_2ty4TypeENCINvB2N_10map_fieldsB13_E0EB2P_, symObjAddr: 0x21D8, symBinAddr: 0x45314, symSize: 0x30 }
  - { offset: 0xAB178, size: 0x8, addend: 0x0, symName: __RINvYINtNtNtNtCs85QQFkKrybG_4core4iter8adapters9enumerate9EnumerateINtNtCscwCr4GBBztI_3syn10punctuated4IterNtNtB18_4data5FieldEENtNtNtBa_6traits8iterator8Iterator3mapTRNtNtB18_11restriction10VisibilityNtCsfwj6t2KTYdc_11proc_macro211TokenStreamRNtNtB18_2ty4TypeENCINvNtCs4oBEgEuuqV9_15zerocopy_derive3ext10map_fieldsRINtB16_10PunctuatedB1H_NtNtB18_5token5CommaEE0EB4i_, symObjAddr: 0x2208, symBinAddr: 0x45344, symSize: 0x20 }
  - { offset: 0xAB1E5, size: 0x8, addend: 0x0, symName: __RINvYINtNtNtNtCs85QQFkKrybG_4core4iter8adapters9enumerate9EnumerateINtNtCscwCr4GBBztI_3syn10punctuated4IterNtNtB18_4data5FieldEENtNtNtBa_6traits8iterator8Iterator3mapTRNtNtB18_11restriction10VisibilityNtCsfwj6t2KTYdc_11proc_macro211TokenStreamRNtNtB18_2ty4TypeENCINvNtCs4oBEgEuuqV9_15zerocopy_derive3ext10map_fieldsRNtB1J_6FieldsE0EB4i_, symObjAddr: 0x2228, symBinAddr: 0x45364, symSize: 0x20 }
  - { offset: 0xAB25C, size: 0x8, addend: 0x0, symName: __RNvXs_NvNtNtNtNtCs85QQFkKrybG_4core4iter6traits8iterator8Iterator10advance_byINtNtCscwCr4GBBztI_3syn10punctuated11PrivateIterNtNtB1i_4data7VariantNtNtB1i_5token5CommaENtB4_13SpecAdvanceBy15spec_advance_byCs4oBEgEuuqV9_15zerocopy_derive, symObjAddr: 0x45D8, symBinAddr: 0x47714, symSize: 0x8C }
  - { offset: 0xAB30A, size: 0x8, addend: 0x0, symName: __RNvXs_NvNtNtNtNtCs85QQFkKrybG_4core4iter6traits8iterator8Iterator10advance_byINtNtCscwCr4GBBztI_3syn10punctuated11PrivateIterNtNtB1i_8generics14WherePredicateNtNtB1i_5token5CommaENtB4_13SpecAdvanceBy15spec_advance_byCs4oBEgEuuqV9_15zerocopy_derive, symObjAddr: 0x4664, symBinAddr: 0x477A0, symSize: 0x8C }
  - { offset: 0xAB3B8, size: 0x8, addend: 0x0, symName: __RNvXs_NvNtNtNtNtCs85QQFkKrybG_4core4iter6traits8iterator8Iterator10advance_byINtNtCscwCr4GBBztI_3syn10punctuated4IterNtNtB1i_4data7VariantENtB4_13SpecAdvanceBy15spec_advance_byCs4oBEgEuuqV9_15zerocopy_derive, symObjAddr: 0x46F0, symBinAddr: 0x4782C, symSize: 0x8C }
  - { offset: 0xAB483, size: 0x8, addend: 0x0, symName: __RNvYINtNtCs85QQFkKrybG_4core6option8IntoIterINtNtCscwCr4GBBztI_3syn10punctuated4IterNtNtBL_8generics14WherePredicateEENtNtNtNtB7_4iter6traits8iterator8Iterator4fuseCs4oBEgEuuqV9_15zerocopy_derive, symObjAddr: 0x52BC, symBinAddr: 0x483F8, symSize: 0x40 }
  - { offset: 0xAB4CF, size: 0x8, addend: 0x0, symName: __RNvYINtNtCs85QQFkKrybG_4core6option8IntoIterINtNtCscwCr4GBBztI_3syn10punctuated4IterNtNtBL_8generics14WherePredicateEENtNtNtNtB7_4iter6traits8iterator8Iterator7flattenCs4oBEgEuuqV9_15zerocopy_derive, symObjAddr: 0x52FC, symBinAddr: 0x48438, symSize: 0x6C }
  - { offset: 0xAB541, size: 0x8, addend: 0x0, symName: __RNvYINtNtCscwCr4GBBztI_3syn10punctuated11PrivateIterNtNtB7_4data7VariantNtNtB7_5token5CommaENtNtNtNtCs85QQFkKrybG_4core4iter6traits8iterator8Iterator10advance_byCs4oBEgEuuqV9_15zerocopy_derive, symObjAddr: 0x56DC, symBinAddr: 0x48818, symSize: 0x28 }
  - { offset: 0xAB587, size: 0x8, addend: 0x0, symName: __RNvYINtNtCscwCr4GBBztI_3syn10punctuated11PrivateIterNtNtB7_4data7VariantNtNtB7_5token5CommaENtNtNtNtCs85QQFkKrybG_4core4iter6traits8iterator8Iterator3nthCs4oBEgEuuqV9_15zerocopy_derive, symObjAddr: 0x5704, symBinAddr: 0x48840, symSize: 0x7C }
  - { offset: 0xAB657, size: 0x8, addend: 0x0, symName: __RNvYINtNtCscwCr4GBBztI_3syn10punctuated11PrivateIterNtNtB7_4data7VariantNtNtB7_5token5CommaENtNtNtNtCs85QQFkKrybG_4core4iter6traits8iterator8Iterator9size_hintCs4oBEgEuuqV9_15zerocopy_derive, symObjAddr: 0x5780, symBinAddr: 0x488BC, symSize: 0x34 }
  - { offset: 0xAB68C, size: 0x8, addend: 0x0, symName: __RNvYINtNtCscwCr4GBBztI_3syn10punctuated11PrivateIterNtNtB7_8generics14WherePredicateNtNtB7_5token5CommaENtNtNtNtCs85QQFkKrybG_4core4iter6traits8iterator8Iterator10advance_byCs4oBEgEuuqV9_15zerocopy_derive, symObjAddr: 0x59A0, symBinAddr: 0x48ADC, symSize: 0x28 }
  - { offset: 0xAB6D2, size: 0x8, addend: 0x0, symName: __RNvYINtNtCscwCr4GBBztI_3syn10punctuated11PrivateIterNtNtB7_8generics14WherePredicateNtNtB7_5token5CommaENtNtNtNtCs85QQFkKrybG_4core4iter6traits8iterator8Iterator3nthCs4oBEgEuuqV9_15zerocopy_derive, symObjAddr: 0x59C8, symBinAddr: 0x48B04, symSize: 0x7C }
  - { offset: 0xAB7A2, size: 0x8, addend: 0x0, symName: __RNvYINtNtCscwCr4GBBztI_3syn10punctuated11PrivateIterNtNtB7_8generics14WherePredicateNtNtB7_5token5CommaENtNtNtNtCs85QQFkKrybG_4core4iter6traits8iterator8Iterator9size_hintCs4oBEgEuuqV9_15zerocopy_derive, symObjAddr: 0x5A44, symBinAddr: 0x48B80, symSize: 0x34 }
  - { offset: 0xAB7D7, size: 0x8, addend: 0x0, symName: __RNvYINtNtCscwCr4GBBztI_3syn10punctuated4IterNtNtB7_4data5FieldENtNtNtNtCs85QQFkKrybG_4core4iter6traits8iterator8Iterator9enumerateCs4oBEgEuuqV9_15zerocopy_derive, symObjAddr: 0x5A78, symBinAddr: 0x48BB4, symSize: 0x28 }
  - { offset: 0xAB823, size: 0x8, addend: 0x0, symName: __RNvYINtNtCscwCr4GBBztI_3syn10punctuated4IterNtNtB7_4data7VariantENtNtNtNtCs85QQFkKrybG_4core4iter6traits8iterator8Iterator10advance_byCs4oBEgEuuqV9_15zerocopy_derive, symObjAddr: 0x5AA0, symBinAddr: 0x48BDC, symSize: 0x28 }
  - { offset: 0xAB869, size: 0x8, addend: 0x0, symName: __RNvYINtNtCscwCr4GBBztI_3syn10punctuated4IterNtNtB7_4data7VariantENtNtNtNtCs85QQFkKrybG_4core4iter6traits8iterator8Iterator3nthCs4oBEgEuuqV9_15zerocopy_derive, symObjAddr: 0x5AC8, symBinAddr: 0x48C04, symSize: 0x7C }
  - { offset: 0xAB939, size: 0x8, addend: 0x0, symName: __RNvYINtNtCscwCr4GBBztI_3syn10punctuated4IterNtNtB7_4data7VariantENtNtNtNtCs85QQFkKrybG_4core4iter6traits8iterator8Iterator9enumerateCs4oBEgEuuqV9_15zerocopy_derive, symObjAddr: 0x5B44, symBinAddr: 0x48C80, symSize: 0x28 }
  - { offset: 0xAB9C3, size: 0x8, addend: 0x0, symName: __RNvXNtNtNtCs85QQFkKrybG_4core4iter6traits7collectINtNtB8_6option4IterNtNtCscwCr4GBBztI_3syn8generics14WherePredicateENtB2_12IntoIterator9into_iterCs4oBEgEuuqV9_15zerocopy_derive, symObjAddr: 0x33F4, symBinAddr: 0x46530, symSize: 0x14 }
  - { offset: 0xAB9FA, size: 0x8, addend: 0x0, symName: __RNvXNtNtNtCs85QQFkKrybG_4core4iter6traits7collectINtNtCscwCr4GBBztI_3syn10punctuated4IterNtNtBQ_8generics14WherePredicateENtB2_12IntoIterator9into_iterCs4oBEgEuuqV9_15zerocopy_derive, symObjAddr: 0x3408, symBinAddr: 0x46544, symSize: 0x1C }
  - { offset: 0xABA31, size: 0x8, addend: 0x0, symName: __RNvXNtNtNtCs85QQFkKrybG_4core4iter6traits7collectINtNtNtB6_8adapters9enumerate9EnumerateINtNtCscwCr4GBBztI_3syn10punctuated4IterNtNtB1t_4data7VariantEENtB2_12IntoIterator9into_iterCs4oBEgEuuqV9_15zerocopy_derive, symObjAddr: 0x3424, symBinAddr: 0x46560, symSize: 0x18 }
  - { offset: 0xABA68, size: 0x8, addend: 0x0, symName: __RNvXNtNtNtCs85QQFkKrybG_4core4iter6traits7collectINtNtNtB8_5array4iter8IntoIterNtCsfwj6t2KTYdc_11proc_macro211TokenStreamKj2_ENtB2_12IntoIterator9into_iterCs4oBEgEuuqV9_15zerocopy_derive, symObjAddr: 0x343C, symBinAddr: 0x46578, symSize: 0x30 }
  - { offset: 0xABAAC, size: 0x8, addend: 0x0, symName: __RNvYINtNtCs85QQFkKrybG_4core6option8IntoIterRNtNtCscwCr4GBBztI_3syn4data7VariantENtNtNtNtB7_4iter6traits10exact_size17ExactSizeIterator3lenCs4oBEgEuuqV9_15zerocopy_derive, symObjAddr: 0x5368, symBinAddr: 0x484A4, symSize: 0xC4 }
  - { offset: 0xABBAB, size: 0x8, addend: 0x0, symName: __RNvYINtNtCs85QQFkKrybG_4core6option8IntoIterRNtNtCscwCr4GBBztI_3syn8generics14WherePredicateENtNtNtNtB7_4iter6traits10exact_size17ExactSizeIterator3lenCs4oBEgEuuqV9_15zerocopy_derive, symObjAddr: 0x542C, symBinAddr: 0x48568, symSize: 0xC4 }
  - { offset: 0xABCAA, size: 0x8, addend: 0x0, symName: __RNvYINtNtCscwCr4GBBztI_3syn10punctuated11PrivateIterNtNtB7_4data7VariantNtNtB7_5token5CommaENtNtNtNtCs85QQFkKrybG_4core4iter6traits10exact_size17ExactSizeIterator8is_emptyCs4oBEgEuuqV9_15zerocopy_derive, symObjAddr: 0x54F0, symBinAddr: 0x4862C, symSize: 0x2C }
  - { offset: 0xABCDF, size: 0x8, addend: 0x0, symName: __RNvYINtNtCscwCr4GBBztI_3syn10punctuated11PrivateIterNtNtB7_8generics14WherePredicateNtNtB7_5token5CommaENtNtNtNtCs85QQFkKrybG_4core4iter6traits10exact_size17ExactSizeIterator8is_emptyCs4oBEgEuuqV9_15zerocopy_derive, symObjAddr: 0x57B4, symBinAddr: 0x488F0, symSize: 0x2C }
  - { offset: 0xABD20, size: 0x8, addend: 0x0, symName: __RNvYINtNtCscwCr4GBBztI_3syn10punctuated11PrivateIterNtNtB7_4data7VariantNtNtB7_5token5CommaENtNtNtNtCs85QQFkKrybG_4core4iter6traits12double_ended19DoubleEndedIterator15advance_back_byCs4oBEgEuuqV9_15zerocopy_derive, symObjAddr: 0x551C, symBinAddr: 0x48658, symSize: 0x158 }
  - { offset: 0xABE9E, size: 0x8, addend: 0x0, symName: __RNvYINtNtCscwCr4GBBztI_3syn10punctuated11PrivateIterNtNtB7_4data7VariantNtNtB7_5token5CommaENtNtNtNtCs85QQFkKrybG_4core4iter6traits12double_ended19DoubleEndedIterator8nth_backCs4oBEgEuuqV9_15zerocopy_derive, symObjAddr: 0x5674, symBinAddr: 0x487B0, symSize: 0x68 }
  - { offset: 0xABF1C, size: 0x8, addend: 0x0, symName: __RNvYINtNtCscwCr4GBBztI_3syn10punctuated11PrivateIterNtNtB7_8generics14WherePredicateNtNtB7_5token5CommaENtNtNtNtCs85QQFkKrybG_4core4iter6traits12double_ended19DoubleEndedIterator15advance_back_byCs4oBEgEuuqV9_15zerocopy_derive, symObjAddr: 0x57E0, symBinAddr: 0x4891C, symSize: 0x158 }
  - { offset: 0xAC09A, size: 0x8, addend: 0x0, symName: __RNvYINtNtCscwCr4GBBztI_3syn10punctuated11PrivateIterNtNtB7_8generics14WherePredicateNtNtB7_5token5CommaENtNtNtNtCs85QQFkKrybG_4core4iter6traits12double_ended19DoubleEndedIterator8nth_backCs4oBEgEuuqV9_15zerocopy_derive, symObjAddr: 0x5938, symBinAddr: 0x48A74, symSize: 0x68 }
  - { offset: 0xAC58D, size: 0x8, addend: 0x0, symName: __RNvXNtNtNtCs85QQFkKrybG_4core5array4iter10iter_innerSINtNtNtB8_3mem12maybe_uninit11MaybeUninitNtCsfwj6t2KTYdc_11proc_macro211TokenStreamENtB2_11PartialDrop12partial_dropCs4oBEgEuuqV9_15zerocopy_derive, symObjAddr: 0x346C, symBinAddr: 0x465A8, symSize: 0xC0 }
  - { offset: 0xAC6A1, size: 0x8, addend: 0x0, symName: __RNvXs_NtNtNtCs85QQFkKrybG_4core5array4iter10iter_innerAINtNtNtBa_3mem12maybe_uninit11MaybeUninitNtCsfwj6t2KTYdc_11proc_macro211TokenStreamEj2_NtB4_11PartialDrop12partial_dropCs4oBEgEuuqV9_15zerocopy_derive, symObjAddr: 0x458C, symBinAddr: 0x476C8, symSize: 0x4C }
  - { offset: 0xAC704, size: 0x8, addend: 0x0, symName: __RINvXs2_NtNtCs85QQFkKrybG_4core5array4iterINtB6_8IntoIterNtCsfwj6t2KTYdc_11proc_macro211TokenStreamKj2_ENtNtNtNtBa_4iter6traits8iterator8Iterator4folduNCINvNtNtB1K_8adapters3map8map_foldBT_NtNtBV_3imp11TokenStreamuNCINvXs7_BV_BT_INtNtB1I_7collect12FromIteratorBT_E9from_iterBE_E0NCIB2s_B31_NtCs9bTl5rSDVcL_10proc_macro11TokenStreamuNCINvXs6_B33_B31_IB3G_B31_E9from_iterINtB2u_3MapBE_B3q_EE0NCINvNvB1E_8for_each4callB4E_NCINvXsj_B4G_B4E_INtB3I_6ExtendB4E_E6extendIB5W_B5V_B5k_EE0E0E0E0ECs4oBEgEuuqV9_15zerocopy_derive, symObjAddr: 0x1618, symBinAddr: 0x44754, symSize: 0x9C }
  - { offset: 0xAC812, size: 0x8, addend: 0x0, symName: __RNvXs2_NtNtCs85QQFkKrybG_4core5array4iterINtB5_8IntoIterNtCsfwj6t2KTYdc_11proc_macro211TokenStreamKj2_ENtNtNtNtB9_4iter6traits8iterator8Iterator4nextCs4oBEgEuuqV9_15zerocopy_derive, symObjAddr: 0x3554, symBinAddr: 0x46690, symSize: 0x2C }
  - { offset: 0xAC847, size: 0x8, addend: 0x0, symName: __RNvXs2_NtNtCs85QQFkKrybG_4core5array4iterINtB5_8IntoIterNtCsfwj6t2KTYdc_11proc_macro211TokenStreamKj2_ENtNtNtNtB9_4iter6traits8iterator8Iterator9size_hintCs4oBEgEuuqV9_15zerocopy_derive, symObjAddr: 0x3580, symBinAddr: 0x466BC, symSize: 0x34 }
  - { offset: 0xAC8C0, size: 0x8, addend: 0x0, symName: __RNvXs4_NtNtCs85QQFkKrybG_4core5array4iterINtB5_8IntoIterNtCsfwj6t2KTYdc_11proc_macro211TokenStreamKj2_ENtNtNtB9_3ops4drop4Drop4dropCs4oBEgEuuqV9_15zerocopy_derive, symObjAddr: 0x3E74, symBinAddr: 0x46FB0, symSize: 0x10 }
  - { offset: 0xACD0E, size: 0x8, addend: 0x0, symName: __RNvXs1_NtCs85QQFkKrybG_4core7convertINtNtB7_6option6OptionNtCs4oBEgEuuqV9_15zerocopy_derive12PaddingCheckEINtB5_4IntoBy_E4intoBW_, symObjAddr: 0x352C, symBinAddr: 0x46668, symSize: 0x14 }
  - { offset: 0xACD3F, size: 0x8, addend: 0x0, symName: __RNvXs1_NtCs85QQFkKrybG_4core7convertINtNtB7_6option6OptionNtCs4oBEgEuuqV9_15zerocopy_derive12PaddingCheckEINtB5_4IntoBy_E4intoBW_, symObjAddr: 0x352C, symBinAddr: 0x46668, symSize: 0x14 }
  - { offset: 0xACD6C, size: 0x8, addend: 0x0, symName: __RNvXs1_NtCs85QQFkKrybG_4core7convertINtNtB7_6option6OptionNtCsfwj6t2KTYdc_11proc_macro211TokenStreamEINtB5_4IntoBy_E4intoCs4oBEgEuuqV9_15zerocopy_derive, symObjAddr: 0x3540, symBinAddr: 0x4667C, symSize: 0x14 }
  - { offset: 0xACD9D, size: 0x8, addend: 0x0, symName: __RNvXs1_NtCs85QQFkKrybG_4core7convertINtNtB7_6option6OptionNtCsfwj6t2KTYdc_11proc_macro211TokenStreamEINtB5_4IntoBy_E4intoCs4oBEgEuuqV9_15zerocopy_derive, symObjAddr: 0x3540, symBinAddr: 0x4667C, symSize: 0x14 }
  - { offset: 0xADC58, size: 0x8, addend: 0x0, symName: __RINvMNtCs85QQFkKrybG_4core6optionINtB3_6OptionINtNtNtCs4oBEgEuuqV9_15zerocopy_derive4repr4util7SpannedINtNtNtB5_3num7nonzero7NonZeromEEE3mapNtCsfwj6t2KTYdc_11proc_macro211TokenStreamNCNvBP_25derive_known_layout_inners_0EBP_, symObjAddr: 0x60, symBinAddr: 0x4319C, symSize: 0x84 }
  - { offset: 0xADCC3, size: 0x8, addend: 0x0, symName: __RINvMNtCs85QQFkKrybG_4core6optionINtB3_6OptionINtNtNtCs4oBEgEuuqV9_15zerocopy_derive4repr4util7SpannedINtNtNtB5_3num7nonzero7NonZeromEEE3mapbNCNvMBN_INtBN_4ReprNtNtB5_7convert10InfallibleB1C_E13is_align_gt_10EBP_, symObjAddr: 0xE4, symBinAddr: 0x43220, symSize: 0x60 }
  - { offset: 0xADD2E, size: 0x8, addend: 0x0, symName: __RINvMNtCs85QQFkKrybG_4core6optionINtB3_6OptionINtNtNtCs4oBEgEuuqV9_15zerocopy_derive4repr4util7SpannedINtNtNtB5_3num7nonzero7NonZeromEEE6filterNCNvMBN_INtBN_4ReprNtBN_13PrimitiveReprNtNtB5_7convert10InfallibleE32unaligned_validate_no_align_gt_10EBP_, symObjAddr: 0x144, symBinAddr: 0x43280, symSize: 0xA8 }
  - { offset: 0xADD88, size: 0x8, addend: 0x0, symName: __RINvMNtCs85QQFkKrybG_4core6optionINtB3_6OptionINtNtNtCs4oBEgEuuqV9_15zerocopy_derive4repr4util7SpannedINtNtNtB5_3num7nonzero7NonZeromEEE6filterNCNvMBN_INtBN_4ReprNtNtB5_7convert10InfallibleB1C_E32unaligned_validate_no_align_gt_10EBP_, symObjAddr: 0x1EC, symBinAddr: 0x43328, symSize: 0xA8 }
  - { offset: 0xADE59, size: 0x8, addend: 0x0, symName: __RINvMNtCs85QQFkKrybG_4core6optionINtB3_6OptionNtCs4oBEgEuuqV9_15zerocopy_derive12PaddingCheckE3mapNtNtCscwCr4GBBztI_3syn8generics14WherePredicateNCNvMs5_BK_INtBK_16ImplBlockBuilderNtNtB1C_6derive10DataStructE5builds0_0EBK_, symObjAddr: 0x294, symBinAddr: 0x433D0, symSize: 0xBC }
  - { offset: 0xADEC6, size: 0x8, addend: 0x0, symName: __RINvMNtCs85QQFkKrybG_4core6optionINtB3_6OptionNtCs4oBEgEuuqV9_15zerocopy_derive12PaddingCheckE3mapNtNtCscwCr4GBBztI_3syn8generics14WherePredicateNCNvMs5_BK_INtBK_16ImplBlockBuilderNtNtB1C_6derive4DataE5builds0_0EBK_, symObjAddr: 0x350, symBinAddr: 0x4348C, symSize: 0xBC }
  - { offset: 0xADF33, size: 0x8, addend: 0x0, symName: __RINvMNtCs85QQFkKrybG_4core6optionINtB3_6OptionNtCs4oBEgEuuqV9_15zerocopy_derive12PaddingCheckE3mapNtNtCscwCr4GBBztI_3syn8generics14WherePredicateNCNvMs5_BK_INtBK_16ImplBlockBuilderNtNtB1C_6derive8DataEnumE5builds0_0EBK_, symObjAddr: 0x40C, symBinAddr: 0x43548, symSize: 0xBC }
  - { offset: 0xADFA0, size: 0x8, addend: 0x0, symName: __RINvMNtCs85QQFkKrybG_4core6optionINtB3_6OptionNtCs4oBEgEuuqV9_15zerocopy_derive12PaddingCheckE3mapNtNtCscwCr4GBBztI_3syn8generics14WherePredicateNCNvMs5_BK_INtBK_16ImplBlockBuilderNtNtB1C_6derive9DataUnionE5builds0_0EBK_, symObjAddr: 0x4C8, symBinAddr: 0x43604, symSize: 0xBC }
  - { offset: 0xAE01A, size: 0x8, addend: 0x0, symName: __RINvMNtCs85QQFkKrybG_4core6optionINtB3_6OptionNtCs4oBEgEuuqV9_15zerocopy_derive12PaddingCheckE8and_thenBI_NCNvMs5_BK_INtBK_16ImplBlockBuilderNtNtCscwCr4GBBztI_3syn6derive10DataStructE5builds_0EBK_, symObjAddr: 0x584, symBinAddr: 0x436C0, symSize: 0x90 }
  - { offset: 0xAE086, size: 0x8, addend: 0x0, symName: __RINvMNtCs85QQFkKrybG_4core6optionINtB3_6OptionNtCs4oBEgEuuqV9_15zerocopy_derive12PaddingCheckE8and_thenBI_NCNvMs5_BK_INtBK_16ImplBlockBuilderNtNtCscwCr4GBBztI_3syn6derive4DataE5builds_0EBK_, symObjAddr: 0x614, symBinAddr: 0x43750, symSize: 0x90 }
  - { offset: 0xAE0F2, size: 0x8, addend: 0x0, symName: __RINvMNtCs85QQFkKrybG_4core6optionINtB3_6OptionNtCs4oBEgEuuqV9_15zerocopy_derive12PaddingCheckE8and_thenBI_NCNvMs5_BK_INtBK_16ImplBlockBuilderNtNtCscwCr4GBBztI_3syn6derive8DataEnumE5builds_0EBK_, symObjAddr: 0x6A4, symBinAddr: 0x437E0, symSize: 0x90 }
  - { offset: 0xAE15E, size: 0x8, addend: 0x0, symName: __RINvMNtCs85QQFkKrybG_4core6optionINtB3_6OptionNtCs4oBEgEuuqV9_15zerocopy_derive12PaddingCheckE8and_thenBI_NCNvMs5_BK_INtBK_16ImplBlockBuilderNtNtCscwCr4GBBztI_3syn6derive9DataUnionE5builds_0EBK_, symObjAddr: 0x734, symBinAddr: 0x43870, symSize: 0x90 }
  - { offset: 0xAE220, size: 0x8, addend: 0x0, symName: __RINvMNtCs85QQFkKrybG_4core6optionINtB3_6OptionNtCsfwj6t2KTYdc_11proc_macro211TokenStreamE14unwrap_or_elseNCNCINvNtCs4oBEgEuuqV9_15zerocopy_derive3ext10map_fieldsINtNtNtNtB5_4iter8adapters7flatten7FlatMapINtNtCscwCr4GBBztI_3syn10punctuated4IterNtNtB3k_4data7VariantERNtB3V_6FieldsNCNvXs0_B1M_NtNtB3k_6derive8DataEnumNtB1M_7DataExt6fields0EE00EB1O_, symObjAddr: 0x7C4, symBinAddr: 0x43900, symSize: 0x7C }
  - { offset: 0xAE283, size: 0x8, addend: 0x0, symName: __RINvMNtCs85QQFkKrybG_4core6optionINtB3_6OptionNtCsfwj6t2KTYdc_11proc_macro211TokenStreamE14unwrap_or_elseNCNCINvNtCs4oBEgEuuqV9_15zerocopy_derive3ext10map_fieldsRINtNtCscwCr4GBBztI_3syn10punctuated10PunctuatedNtNtB2F_4data5FieldNtNtB2F_5token5CommaEE00EB1O_, symObjAddr: 0x840, symBinAddr: 0x4397C, symSize: 0x7C }
  - { offset: 0xAE2E6, size: 0x8, addend: 0x0, symName: __RINvMNtCs85QQFkKrybG_4core6optionINtB3_6OptionNtCsfwj6t2KTYdc_11proc_macro211TokenStreamE14unwrap_or_elseNCNCINvNtCs4oBEgEuuqV9_15zerocopy_derive3ext10map_fieldsRNtNtCscwCr4GBBztI_3syn4data6FieldsE00EB1O_, symObjAddr: 0x8BC, symBinAddr: 0x439F8, symSize: 0x7C }
  - { offset: 0xAE349, size: 0x8, addend: 0x0, symName: __RINvMNtCs85QQFkKrybG_4core6optionINtB3_6OptionNtCsfwj6t2KTYdc_11proc_macro211TokenStreamE14unwrap_or_elseNCNvCs4oBEgEuuqV9_15zerocopy_derive25derive_known_layout_inners0_0EB1J_, symObjAddr: 0x938, symBinAddr: 0x43A74, symSize: 0x7C }
  - { offset: 0xAE3AC, size: 0x8, addend: 0x0, symName: __RINvMNtCs85QQFkKrybG_4core6optionINtB3_6OptionNtCsfwj6t2KTYdc_11proc_macro211TokenStreamE14unwrap_or_elseNCNvCs4oBEgEuuqV9_15zerocopy_derive25derive_known_layout_inners2_0EB1J_, symObjAddr: 0x9B4, symBinAddr: 0x43AF0, symSize: 0x7C }
  - { offset: 0xAE41C, size: 0x8, addend: 0x0, symName: __RINvMNtCs85QQFkKrybG_4core6optionINtB3_6OptionNtCsfwj6t2KTYdc_11proc_macro211TokenStreamE14unwrap_or_elseNCNvCs4oBEgEuuqV9_15zerocopy_derive27derive_try_from_bytes_union0EB1J_, symObjAddr: 0xA30, symBinAddr: 0x43B6C, symSize: 0x88 }
  - { offset: 0xAE48C, size: 0x8, addend: 0x0, symName: __RINvMNtCs85QQFkKrybG_4core6optionINtB3_6OptionNtCsfwj6t2KTYdc_11proc_macro211TokenStreamE14unwrap_or_elseNCNvCs4oBEgEuuqV9_15zerocopy_derive28derive_try_from_bytes_struct0EB1J_, symObjAddr: 0xAB8, symBinAddr: 0x43BF4, symSize: 0x88 }
  - { offset: 0xAE57A, size: 0x8, addend: 0x0, symName: __RINvMNtCs85QQFkKrybG_4core6optionINtB3_6OptionRINtNtCscwCr4GBBztI_3syn10punctuated4IterNtNtBO_4data5FieldEE6map_orTjIBw_jEENvYBJ_NtNtNtNtB5_4iter6traits8iterator8Iterator9size_hintECs4oBEgEuuqV9_15zerocopy_derive, symObjAddr: 0xB40, symBinAddr: 0x43C7C, symSize: 0xAC }
  - { offset: 0xAE602, size: 0x8, addend: 0x0, symName: __RINvMNtCs85QQFkKrybG_4core6optionINtB3_6OptionRINtNtNtB5_3num7nonzero7NonZeromEE3mapNtCsfwj6t2KTYdc_11proc_macro211TokenStreamNCNvCs4oBEgEuuqV9_15zerocopy_derive25derive_known_layout_inners1_0EB24_, symObjAddr: 0xBEC, symBinAddr: 0x43D28, symSize: 0x78 }
  - { offset: 0xAE66D, size: 0x8, addend: 0x0, symName: __RINvMNtCs85QQFkKrybG_4core6optionINtB3_6OptionRINtNtNtB5_3num7nonzero7NonZeromEE3mapbNCNvMs_NtCs4oBEgEuuqV9_15zerocopy_derive4reprINtB1s_4ReprNtNtB5_7convert10InfallibleBJ_E11is_packed_10EB1u_, symObjAddr: 0xC64, symBinAddr: 0x43DA0, symSize: 0x54 }
  - { offset: 0xAE6FD, size: 0x8, addend: 0x0, symName: __RINvMNtCs85QQFkKrybG_4core6optionINtB3_6OptionRNtCsfwj6t2KTYdc_11proc_macro25IdentE3mapNtBL_11TokenStreamNvYBJ_NtNtCshi3DZH3dfhk_5quote9to_tokens8ToTokens15to_token_streamECs4oBEgEuuqV9_15zerocopy_derive, symObjAddr: 0xCB8, symBinAddr: 0x43DF4, symSize: 0x6C }
  - { offset: 0xAE768, size: 0x8, addend: 0x0, symName: __RINvMNtCs85QQFkKrybG_4core6optionINtB3_6OptionRNtCsfwj6t2KTYdc_11proc_macro25IdentE5ok_orNtNtCs4oBEgEuuqV9_15zerocopy_derive4repr21UnrecognizedReprErrorEB1t_, symObjAddr: 0xD24, symBinAddr: 0x43E60, symSize: 0x40 }
  - { offset: 0xAE7D7, size: 0x8, addend: 0x0, symName: __RINvMNtCs85QQFkKrybG_4core6optionINtB3_6OptionRNtNtCscwCr4GBBztI_3syn4data7VariantE7or_elseNCNvXss_NtBN_10punctuatedINtB1z_11PrivateIterBJ_NtNtBN_5token5CommaENtNtNtNtB5_4iter6traits8iterator8Iterator4nexts_0ECs4oBEgEuuqV9_15zerocopy_derive, symObjAddr: 0xD64, symBinAddr: 0x43EA0, symSize: 0xA8 }
  - { offset: 0xAE846, size: 0x8, addend: 0x0, symName: __RINvMNtCs85QQFkKrybG_4core6optionINtB3_6OptionRNtNtCscwCr4GBBztI_3syn4data7VariantE7or_elseNCNvXst_NtBN_10punctuatedINtB1z_11PrivateIterBJ_NtNtBN_5token5CommaENtNtNtNtB5_4iter6traits12double_ended19DoubleEndedIterator9next_back0ECs4oBEgEuuqV9_15zerocopy_derive, symObjAddr: 0xE0C, symBinAddr: 0x43F48, symSize: 0xA8 }
  - { offset: 0xAE8E3, size: 0x8, addend: 0x0, symName: __RINvMNtCs85QQFkKrybG_4core6optionINtB3_6OptionRNtNtCscwCr4GBBztI_3syn8generics11WhereClauseE3mapINtNtBN_10punctuated4IterNtBL_14WherePredicateENCNvMs5_Cs4oBEgEuuqV9_15zerocopy_deriveINtB2p_16ImplBlockBuilderNtNtBN_6derive10DataStructE5builds1_0EB2p_, symObjAddr: 0xEB4, symBinAddr: 0x43FF0, symSize: 0x58 }
  - { offset: 0xAE94E, size: 0x8, addend: 0x0, symName: __RINvMNtCs85QQFkKrybG_4core6optionINtB3_6OptionRNtNtCscwCr4GBBztI_3syn8generics11WhereClauseE3mapINtNtBN_10punctuated4IterNtBL_14WherePredicateENCNvMs5_Cs4oBEgEuuqV9_15zerocopy_deriveINtB2p_16ImplBlockBuilderNtNtBN_6derive4DataE5builds1_0EB2p_, symObjAddr: 0xF0C, symBinAddr: 0x44048, symSize: 0x58 }
  - { offset: 0xAE9B9, size: 0x8, addend: 0x0, symName: __RINvMNtCs85QQFkKrybG_4core6optionINtB3_6OptionRNtNtCscwCr4GBBztI_3syn8generics11WhereClauseE3mapINtNtBN_10punctuated4IterNtBL_14WherePredicateENCNvMs5_Cs4oBEgEuuqV9_15zerocopy_deriveINtB2p_16ImplBlockBuilderNtNtBN_6derive8DataEnumE5builds1_0EB2p_, symObjAddr: 0xF64, symBinAddr: 0x440A0, symSize: 0x58 }
  - { offset: 0xAEA24, size: 0x8, addend: 0x0, symName: __RINvMNtCs85QQFkKrybG_4core6optionINtB3_6OptionRNtNtCscwCr4GBBztI_3syn8generics11WhereClauseE3mapINtNtBN_10punctuated4IterNtBL_14WherePredicateENCNvMs5_Cs4oBEgEuuqV9_15zerocopy_deriveINtB2p_16ImplBlockBuilderNtNtBN_6derive9DataUnionE5builds1_0EB2p_, symObjAddr: 0xFBC, symBinAddr: 0x440F8, symSize: 0x58 }
  - { offset: 0xAEA9C, size: 0x8, addend: 0x0, symName: __RINvMNtCs85QQFkKrybG_4core6optionINtB3_6OptionRNtNtCscwCr4GBBztI_3syn8generics11WhereClauseE3mapRINtNtBN_10punctuated10PunctuatedNtBL_14WherePredicateNtNtBN_5token5CommaENCNvCs4oBEgEuuqV9_15zerocopy_derive15derive_eq_inner0EB2M_, symObjAddr: 0x1014, symBinAddr: 0x44150, symSize: 0x50 }
  - { offset: 0xAEB07, size: 0x8, addend: 0x0, symName: __RINvMNtCs85QQFkKrybG_4core6optionINtB3_6OptionRNtNtCscwCr4GBBztI_3syn8generics11WhereClauseE3mapRINtNtBN_10punctuated10PunctuatedNtBL_14WherePredicateNtNtBN_5token5CommaENCNvCs4oBEgEuuqV9_15zerocopy_derive17derive_hash_inner0EB2M_, symObjAddr: 0x1064, symBinAddr: 0x441A0, symSize: 0x50 }
  - { offset: 0xAEB7F, size: 0x8, addend: 0x0, symName: __RINvMNtCs85QQFkKrybG_4core6optionINtB3_6OptionRNtNtCscwCr4GBBztI_3syn8generics14WherePredicateE7or_elseNCNvXs_NtNtNtB5_4iter8adapters5chainINtB1K_5ChainIB2e_IB2e_INtNtB1M_7flatten7FlattenINtB3_8IntoIterINtNtBN_10punctuated4IterBJ_EEEINtNtNtB5_5slice4iter4IterBJ_EEINtB3_4IterBJ_EEB4e_ENtNtNtB1O_6traits8iterator8Iterator4next0ECs4oBEgEuuqV9_15zerocopy_derive, symObjAddr: 0x10B4, symBinAddr: 0x441F0, symSize: 0xA8 }
  - { offset: 0xAEBE1, size: 0x8, addend: 0x0, symName: __RINvMNtCs85QQFkKrybG_4core6optionINtB3_6OptionRNtNtCscwCr4GBBztI_3syn8generics14WherePredicateE7or_elseNCNvXs_NtNtNtB5_4iter8adapters5chainINtB1K_5ChainIB2e_INtNtB1M_7flatten7FlattenINtB3_8IntoIterINtNtBN_10punctuated4IterBJ_EEEINtNtNtB5_5slice4iter4IterBJ_EEINtB3_4IterBJ_EENtNtNtB1O_6traits8iterator8Iterator4next0ECs4oBEgEuuqV9_15zerocopy_derive, symObjAddr: 0x115C, symBinAddr: 0x44298, symSize: 0xA8 }
  - { offset: 0xAEC5D, size: 0x8, addend: 0x0, symName: __RINvMNtCs85QQFkKrybG_4core6optionINtB3_6OptionRNtNtCscwCr4GBBztI_3syn8generics14WherePredicateE7or_elseNCNvXs_NtNtNtB5_4iter8adapters5chainINtB1K_5ChainINtNtB1M_7flatten7FlattenINtB3_8IntoIterINtNtBN_10punctuated4IterBJ_EEEINtNtNtB5_5slice4iter4IterBJ_EENtNtNtB1O_6traits8iterator8Iterator4next0ECs4oBEgEuuqV9_15zerocopy_derive, symObjAddr: 0x1204, symBinAddr: 0x44340, symSize: 0xA8 }
  - { offset: 0xAECCC, size: 0x8, addend: 0x0, symName: __RINvMNtCs85QQFkKrybG_4core6optionINtB3_6OptionRNtNtCscwCr4GBBztI_3syn8generics14WherePredicateE7or_elseNCNvXss_NtBN_10punctuatedINtB1L_11PrivateIterBJ_NtNtBN_5token5CommaENtNtNtNtB5_4iter6traits8iterator8Iterator4nexts_0ECs4oBEgEuuqV9_15zerocopy_derive, symObjAddr: 0x12AC, symBinAddr: 0x443E8, symSize: 0xA8 }
  - { offset: 0xAED3B, size: 0x8, addend: 0x0, symName: __RINvMNtCs85QQFkKrybG_4core6optionINtB3_6OptionRNtNtCscwCr4GBBztI_3syn8generics14WherePredicateE7or_elseNCNvXst_NtBN_10punctuatedINtB1L_11PrivateIterBJ_NtNtBN_5token5CommaENtNtNtNtB5_4iter6traits12double_ended19DoubleEndedIterator9next_back0ECs4oBEgEuuqV9_15zerocopy_derive, symObjAddr: 0x1354, symBinAddr: 0x44490, symSize: 0xA8 }
  - { offset: 0xAED9D, size: 0x8, addend: 0x0, symName: __RINvMNtCs85QQFkKrybG_4core6optionINtB3_6OptionRTNtNtCscwCr4GBBztI_3syn4data7VariantNtNtBO_5token5CommaEE3mapRBK_NCNCNvXst_NtBO_10punctuatedINtB1W_11PrivateIterBK_B1j_ENtNtNtNtB5_4iter6traits12double_ended19DoubleEndedIterator9next_back00ECs4oBEgEuuqV9_15zerocopy_derive, symObjAddr: 0x13FC, symBinAddr: 0x44538, symSize: 0x50 }
  - { offset: 0xAEE08, size: 0x8, addend: 0x0, symName: __RINvMNtCs85QQFkKrybG_4core6optionINtB3_6OptionRTNtNtCscwCr4GBBztI_3syn4data7VariantNtNtBO_5token5CommaEE3mapRBK_NCNvXss_NtBO_10punctuatedINtB1U_11PrivateIterBK_B1j_ENtNtNtNtB5_4iter6traits8iterator8Iterator4next0ECs4oBEgEuuqV9_15zerocopy_derive, symObjAddr: 0x144C, symBinAddr: 0x44588, symSize: 0x50 }
  - { offset: 0xAEE73, size: 0x8, addend: 0x0, symName: __RINvMNtCs85QQFkKrybG_4core6optionINtB3_6OptionRTNtNtCscwCr4GBBztI_3syn8generics14WherePredicateNtNtBO_5token5CommaEE3mapRBK_NCNCNvXst_NtBO_10punctuatedINtB28_11PrivateIterBK_B1v_ENtNtNtNtB5_4iter6traits12double_ended19DoubleEndedIterator9next_back00ECs4oBEgEuuqV9_15zerocopy_derive, symObjAddr: 0x149C, symBinAddr: 0x445D8, symSize: 0x50 }
  - { offset: 0xAEEDE, size: 0x8, addend: 0x0, symName: __RINvMNtCs85QQFkKrybG_4core6optionINtB3_6OptionRTNtNtCscwCr4GBBztI_3syn8generics14WherePredicateNtNtBO_5token5CommaEE3mapRBK_NCNvXss_NtBO_10punctuatedINtB26_11PrivateIterBK_B1v_ENtNtNtNtB5_4iter6traits8iterator8Iterator4next0ECs4oBEgEuuqV9_15zerocopy_derive, symObjAddr: 0x14EC, symBinAddr: 0x44628, symSize: 0x50 }
  - { offset: 0xAEF56, size: 0x8, addend: 0x0, symName: __RINvMNtCs85QQFkKrybG_4core6optionINtB3_6OptionRTRNtNtCscwCr4GBBztI_3syn11restriction10VisibilityNtCsfwj6t2KTYdc_11proc_macro211TokenStreamRNtNtBP_2ty4TypeEE3mapbNCNvCs4oBEgEuuqV9_15zerocopy_derive24derive_into_bytes_struct0EB2D_, symObjAddr: 0x153C, symBinAddr: 0x44678, symSize: 0x54 }
  - { offset: 0xAF58F, size: 0x8, addend: 0x0, symName: __RNvMNtCs85QQFkKrybG_4core6optionINtB2_6OptionINtNtCsdFlNUEO95cG_5alloc5boxed3BoxNtNtCscwCr4GBBztI_3syn4attr4MetaEE4takeCs4oBEgEuuqV9_15zerocopy_derive, symObjAddr: 0x238C, symBinAddr: 0x454C8, symSize: 0x20 }
  - { offset: 0xAF602, size: 0x8, addend: 0x0, symName: __RNvMNtCs85QQFkKrybG_4core6optionINtB2_6OptionINtNtCsdFlNUEO95cG_5alloc5boxed3BoxNtNtCscwCr4GBBztI_3syn4attr4MetaEE7is_noneCs4oBEgEuuqV9_15zerocopy_derive, symObjAddr: 0x23AC, symBinAddr: 0x454E8, symSize: 0x28 }
  - { offset: 0xAF64C, size: 0x8, addend: 0x0, symName: __RNvMNtCs85QQFkKrybG_4core6optionINtB2_6OptionINtNtCsdFlNUEO95cG_5alloc5boxed3BoxNtNtCscwCr4GBBztI_3syn4attr4MetaEE7is_someCs4oBEgEuuqV9_15zerocopy_derive, symObjAddr: 0x23D4, symBinAddr: 0x45510, symSize: 0x28 }
  - { offset: 0xAF685, size: 0x8, addend: 0x0, symName: __RNvMNtCs85QQFkKrybG_4core6optionINtB2_6OptionINtNtNtCs4oBEgEuuqV9_15zerocopy_derive4repr4util7SpannedINtBM_12CompoundReprNtBM_13PrimitiveReprEEE7is_someBO_, symObjAddr: 0x23FC, symBinAddr: 0x45538, symSize: 0x28 }
  - { offset: 0xAF6B1, size: 0x8, addend: 0x0, symName: __RNvMNtCs85QQFkKrybG_4core6optionINtB2_6OptionINtNtNtCs4oBEgEuuqV9_15zerocopy_derive4repr4util7SpannedINtBM_12CompoundReprNtBM_13PrimitiveReprEEE9unwrap_orBO_, symObjAddr: 0x2424, symBinAddr: 0x45560, symSize: 0x70 }
  - { offset: 0xAF717, size: 0x8, addend: 0x0, symName: __RNvMNtCs85QQFkKrybG_4core6optionINtB2_6OptionINtNtNtCs4oBEgEuuqV9_15zerocopy_derive4repr4util7SpannedINtBM_12CompoundReprNtNtB4_7convert10InfallibleEEE7is_someBO_, symObjAddr: 0x2494, symBinAddr: 0x455D0, symSize: 0x28 }
  - { offset: 0xAF743, size: 0x8, addend: 0x0, symName: __RNvMNtCs85QQFkKrybG_4core6optionINtB2_6OptionINtNtNtCs4oBEgEuuqV9_15zerocopy_derive4repr4util7SpannedINtBM_12CompoundReprNtNtB4_7convert10InfallibleEEE9unwrap_orBO_, symObjAddr: 0x24BC, symBinAddr: 0x455F8, symSize: 0x80 }
  - { offset: 0xAF7A9, size: 0x8, addend: 0x0, symName: __RNvMNtCs85QQFkKrybG_4core6optionINtB2_6OptionINtNtNtCs4oBEgEuuqV9_15zerocopy_derive4repr4util7SpannedINtBM_9AlignReprINtNtNtB4_3num7nonzero7NonZeromEEEE7is_someBO_, symObjAddr: 0x253C, symBinAddr: 0x45678, symSize: 0x28 }
  - { offset: 0xAF7E2, size: 0x8, addend: 0x0, symName: __RNvMNtCs85QQFkKrybG_4core6optionINtB2_6OptionINtNtNtCs4oBEgEuuqV9_15zerocopy_derive4repr4util7SpannedINtBM_9AlignReprNtNtB4_7convert10InfallibleEEE7is_someBO_, symObjAddr: 0x2564, symBinAddr: 0x456A0, symSize: 0x28 }
  - { offset: 0xAF839, size: 0x8, addend: 0x0, symName: __RNvMNtCs85QQFkKrybG_4core6optionINtB2_6OptionNtCsfwj6t2KTYdc_11proc_macro25IdentE4iterCs4oBEgEuuqV9_15zerocopy_derive, symObjAddr: 0x258C, symBinAddr: 0x456C8, symSize: 0x4C }
  - { offset: 0xAF89D, size: 0x8, addend: 0x0, symName: __RNvMNtCs85QQFkKrybG_4core6optionINtB2_6OptionNtCsfwj6t2KTYdc_11proc_macro25IdentE6as_refCs4oBEgEuuqV9_15zerocopy_derive, symObjAddr: 0x25D8, symBinAddr: 0x45714, symSize: 0x4C }
  - { offset: 0xAF91F, size: 0x8, addend: 0x0, symName: __RNvMNtCs85QQFkKrybG_4core6optionINtB2_6OptionNtNtCscwCr4GBBztI_3syn8generics14WherePredicateE4iterCs4oBEgEuuqV9_15zerocopy_derive, symObjAddr: 0x2624, symBinAddr: 0x45760, symSize: 0x4C }
  - { offset: 0xAF990, size: 0x8, addend: 0x0, symName: __RNvMNtCs85QQFkKrybG_4core6optionINtB2_6OptionRINtNtNtB4_3num7nonzero7NonZeromEE7is_someCs4oBEgEuuqV9_15zerocopy_derive, symObjAddr: 0x2670, symBinAddr: 0x457AC, symSize: 0x28 }
  - { offset: 0xAF9D6, size: 0x8, addend: 0x0, symName: __RNvMNtCs85QQFkKrybG_4core6optionINtB2_6OptionTNtNtCscwCr4GBBztI_3syn5token2EqNtNtBM_4expr4ExprEE6as_refCs4oBEgEuuqV9_15zerocopy_derive, symObjAddr: 0x2698, symBinAddr: 0x457D4, symSize: 0x4C }
  - { offset: 0xAFA20, size: 0x8, addend: 0x0, symName: __RNvMNtCs85QQFkKrybG_4core6optionINtB2_6OptionbE9unwrap_orCs4oBEgEuuqV9_15zerocopy_derive, symObjAddr: 0x26E4, symBinAddr: 0x45820, symSize: 0x5C }
  - { offset: 0xAFA9A, size: 0x8, addend: 0x0, symName: __RNvMNtCs85QQFkKrybG_4core6optionINtB2_6OptionoE6as_mutCs4oBEgEuuqV9_15zerocopy_derive, symObjAddr: 0x2740, symBinAddr: 0x4587C, symSize: 0x4C }
  - { offset: 0xAFB3A, size: 0x8, addend: 0x0, symName: __RNvMNtCscwCr4GBBztI_3syn10punctuatedINtB2_10PunctuatedNtNtB4_4attr4MetaNtNtB4_5token5CommaE10push_punctCs4oBEgEuuqV9_15zerocopy_derive, symObjAddr: 0x278C, symBinAddr: 0x458C8, symSize: 0x208 }
  - { offset: 0xAFBB8, size: 0x8, addend: 0x0, symName: __RNvMNtCscwCr4GBBztI_3syn10punctuatedINtB2_10PunctuatedNtNtB4_4attr4MetaNtNtB4_5token5CommaE10push_valueCs4oBEgEuuqV9_15zerocopy_derive, symObjAddr: 0x2994, symBinAddr: 0x45AD0, symSize: 0x1AC }
  - { offset: 0xAFC54, size: 0x8, addend: 0x0, symName: __RNvMNtCscwCr4GBBztI_3syn10punctuatedINtB2_10PunctuatedNtNtB4_4attr4MetaNtNtB4_5token5CommaE16parse_terminatedCs4oBEgEuuqV9_15zerocopy_derive, symObjAddr: 0x2B40, symBinAddr: 0x45C7C, symSize: 0x3C }
  - { offset: 0xAFC96, size: 0x8, addend: 0x0, symName: __RNvMNtCscwCr4GBBztI_3syn10punctuatedINtB2_10PunctuatedNtNtB4_4attr4MetaNtNtB4_5token5CommaE17empty_or_trailingCs4oBEgEuuqV9_15zerocopy_derive, symObjAddr: 0x2B7C, symBinAddr: 0x45CB8, symSize: 0x34 }
  - { offset: 0xAFCE2, size: 0x8, addend: 0x0, symName: __RNvMNtCscwCr4GBBztI_3syn10punctuatedINtB2_10PunctuatedNtNtB4_4attr4MetaNtNtB4_5token5CommaE21parse_terminated_withCs4oBEgEuuqV9_15zerocopy_derive, symObjAddr: 0x2BB0, symBinAddr: 0x45CEC, symSize: 0x370 }
  - { offset: 0xAFDE7, size: 0x8, addend: 0x0, symName: __RNvMNtCscwCr4GBBztI_3syn10punctuatedINtB2_10PunctuatedNtNtB4_4attr4MetaNtNtB4_5token5CommaE3lenCs4oBEgEuuqV9_15zerocopy_derive, symObjAddr: 0x2F20, symBinAddr: 0x4605C, symSize: 0xA0 }
  - { offset: 0xAFE1B, size: 0x8, addend: 0x0, symName: __RNvMNtCscwCr4GBBztI_3syn10punctuatedINtB2_10PunctuatedNtNtB4_4attr4MetaNtNtB4_5token5CommaE3newCs4oBEgEuuqV9_15zerocopy_derive, symObjAddr: 0x2FC0, symBinAddr: 0x460FC, symSize: 0x4C }
  - { offset: 0xAFE4E, size: 0x8, addend: 0x0, symName: __RNvMNtCscwCr4GBBztI_3syn10punctuatedINtB2_10PunctuatedNtNtB4_4data7VariantNtNtB4_5token5CommaE3lenCs4oBEgEuuqV9_15zerocopy_derive, symObjAddr: 0x300C, symBinAddr: 0x46148, symSize: 0xA0 }
  - { offset: 0xAFE8F, size: 0x8, addend: 0x0, symName: __RNvMNtCscwCr4GBBztI_3syn10punctuatedINtB2_10PunctuatedNtNtB4_4data7VariantNtNtB4_5token5CommaE4iterCs4oBEgEuuqV9_15zerocopy_derive, symObjAddr: 0x30AC, symBinAddr: 0x461E8, symSize: 0xC8 }
  - { offset: 0xAFEED, size: 0x8, addend: 0x0, symName: __RNvMNtCscwCr4GBBztI_3syn10punctuatedINtB2_10PunctuatedNtNtB4_8generics12GenericParamNtNtB4_5token5CommaE3lenCs4oBEgEuuqV9_15zerocopy_derive, symObjAddr: 0x3174, symBinAddr: 0x462B0, symSize: 0xA0 }
  - { offset: 0xAFF2E, size: 0x8, addend: 0x0, symName: __RNvMNtCscwCr4GBBztI_3syn10punctuatedINtB2_10PunctuatedNtNtB4_8generics14WherePredicateNtNtB4_5token5CommaE4iterCs4oBEgEuuqV9_15zerocopy_derive, symObjAddr: 0x3214, symBinAddr: 0x46350, symSize: 0xC8 }
  - { offset: 0xB0091, size: 0x8, addend: 0x0, symName: __RNvMNtCsdFlNUEO95cG_5alloc6stringNtB2_6String6as_strCs4oBEgEuuqV9_15zerocopy_derive, symObjAddr: 0x32DC, symBinAddr: 0x46418, symSize: 0x78 }
  - { offset: 0xB0223, size: 0x8, addend: 0x0, symName: __RNvYINtNtCs85QQFkKrybG_4core6option4IterNtCsfwj6t2KTYdc_11proc_macro25IdentENtNtNtCshi3DZH3dfhk_5quote9___private3ext14RepIteratorExt15quote_into_iterCs4oBEgEuuqV9_15zerocopy_derive, symObjAddr: 0x5298, symBinAddr: 0x483D4, symSize: 0x24 }
  - { offset: 0xB026D, size: 0x8, addend: 0x0, symName: __RNvXNtCshi3DZH3dfhk_5quote9to_tokensRINtNtCscwCr4GBBztI_3syn10punctuated10PunctuatedNtNtBE_8generics12GenericParamNtNtBE_5token5CommaENtB2_8ToTokens9to_tokensCs4oBEgEuuqV9_15zerocopy_derive, symObjAddr: 0x3374, symBinAddr: 0x464B0, symSize: 0x40 }
  - { offset: 0xB02AC, size: 0x8, addend: 0x0, symName: __RNvXNtCshi3DZH3dfhk_5quote9to_tokensRINtNtCscwCr4GBBztI_3syn10punctuated10PunctuatedNtNtBE_8generics14WherePredicateNtNtBE_5token5CommaENtB2_8ToTokens9to_tokensCs4oBEgEuuqV9_15zerocopy_derive, symObjAddr: 0x33B4, symBinAddr: 0x464F0, symSize: 0x40 }
  - { offset: 0xB02F1, size: 0x8, addend: 0x0, symName: __RNvXs3_NtCshi3DZH3dfhk_5quote9to_tokensINtNtCs85QQFkKrybG_4core6option6OptionNtCsfwj6t2KTYdc_11proc_macro211TokenStreamENtB5_8ToTokens9to_tokensCs4oBEgEuuqV9_15zerocopy_derive, symObjAddr: 0x35B4, symBinAddr: 0x466F0, symSize: 0x84 }
  - { offset: 0xB034D, size: 0x8, addend: 0x0, symName: __RNvXs3_NtCshi3DZH3dfhk_5quote9to_tokensINtNtCs85QQFkKrybG_4core6option6OptionRINtNtCscwCr4GBBztI_3syn10punctuated10PunctuatedNtNtB1j_8generics14WherePredicateNtNtB1j_5token5CommaEENtB5_8ToTokens9to_tokensCs4oBEgEuuqV9_15zerocopy_derive, symObjAddr: 0x3638, symBinAddr: 0x46774, symSize: 0x80 }
  - { offset: 0xB03A9, size: 0x8, addend: 0x0, symName: __RNvXs3_NtCshi3DZH3dfhk_5quote9to_tokensINtNtCs85QQFkKrybG_4core6option6OptionRNtCsfwj6t2KTYdc_11proc_macro211TokenStreamENtB5_8ToTokens9to_tokensCs4oBEgEuuqV9_15zerocopy_derive, symObjAddr: 0x36B8, symBinAddr: 0x467F4, symSize: 0x80 }
  - { offset: 0xB0405, size: 0x8, addend: 0x0, symName: __RNvXs3_NtCshi3DZH3dfhk_5quote9to_tokensINtNtCs85QQFkKrybG_4core6option6OptionRNtNtCscwCr4GBBztI_3syn8generics11WhereClauseENtB5_8ToTokens9to_tokensCs4oBEgEuuqV9_15zerocopy_derive, symObjAddr: 0x3738, symBinAddr: 0x46874, symSize: 0x80 }
  - { offset: 0xB0467, size: 0x8, addend: 0x0, symName: __RNvYNtNtCscwCr4GBBztI_3syn4expr5IndexNtNtCshi3DZH3dfhk_5quote9to_tokens8ToTokens15to_token_streamCs4oBEgEuuqV9_15zerocopy_derive, symObjAddr: 0x5B6C, symBinAddr: 0x48CA8, symSize: 0x8C }
  - { offset: 0xB04B4, size: 0x8, addend: 0x0, symName: __RNvMNtNtCshi3DZH3dfhk_5quote9___private8get_spanINtB2_7GetSpanNtCsfwj6t2KTYdc_11proc_macro24SpanE11___into_spanCs4oBEgEuuqV9_15zerocopy_derive, symObjAddr: 0x3354, symBinAddr: 0x46490, symSize: 0x20 }
  - { offset: 0xB0CDE, size: 0x8, addend: 0x0, symName: __RNCNCNvNtCs4oBEgEuuqV9_15zerocopy_derive4enum24generate_variant_structs00B7_, symObjAddr: 0x0, symBinAddr: 0x48D34, symSize: 0x20 }
  - { offset: 0xB185B, size: 0x8, addend: 0x0, symName: __RNCNCNvNtCs4oBEgEuuqV9_15zerocopy_derive4enum24generate_variant_structs00B7_, symObjAddr: 0x0, symBinAddr: 0x48D34, symSize: 0x20 }
  - { offset: 0xB1899, size: 0x8, addend: 0x0, symName: __RNCNvNtCs4oBEgEuuqV9_15zerocopy_derive4enum24generate_variant_structs0B5_, symObjAddr: 0xED0, symBinAddr: 0x49C04, symSize: 0x740 }
  - { offset: 0xB1ABD, size: 0x8, addend: 0x0, symName: __RNCNvNtCs4oBEgEuuqV9_15zerocopy_derive4enum17generate_tag_enum0B5_, symObjAddr: 0x20, symBinAddr: 0x48D54, symSize: 0x14C }
  - { offset: 0xB1B64, size: 0x8, addend: 0x0, symName: __RNCNvNtCs4oBEgEuuqV9_15zerocopy_derive4enum19derive_is_bit_valid0B5_, symObjAddr: 0x16C, symBinAddr: 0x48EA0, symSize: 0x7C8 }
  - { offset: 0xB1CD1, size: 0x8, addend: 0x0, symName: __RNCNvNtCs4oBEgEuuqV9_15zerocopy_derive4enum19generate_tag_consts0B5_, symObjAddr: 0x934, symBinAddr: 0x49668, symSize: 0x274 }
  - { offset: 0xB1D7F, size: 0x8, addend: 0x0, symName: __RNCNvNtCs4oBEgEuuqV9_15zerocopy_derive4enum23generate_variants_union0B5_, symObjAddr: 0xBA8, symBinAddr: 0x498DC, symSize: 0x328 }
  - { offset: 0xB1E56, size: 0x8, addend: 0x0, symName: __RNvNtCs4oBEgEuuqV9_15zerocopy_derive4enum17generate_tag_enum, symObjAddr: 0x1610, symBinAddr: 0x4A344, symSize: 0x5EC }
  - { offset: 0xB2073, size: 0x8, addend: 0x0, symName: __RNvNtCs4oBEgEuuqV9_15zerocopy_derive4enum19derive_is_bit_valid, symObjAddr: 0x1BFC, symBinAddr: 0x4A930, symSize: 0x261C }
  - { offset: 0xB252C, size: 0x8, addend: 0x0, symName: __RNvNtCs4oBEgEuuqV9_15zerocopy_derive4enum19generate_tag_consts, symObjAddr: 0x4218, symBinAddr: 0x4CF4C, symSize: 0x1D8 }
  - { offset: 0xB260E, size: 0x8, addend: 0x0, symName: __RNvNtCs4oBEgEuuqV9_15zerocopy_derive4enum20variant_struct_ident, symObjAddr: 0x43F0, symBinAddr: 0x4D124, symSize: 0xF0 }
  - { offset: 0xB2675, size: 0x8, addend: 0x0, symName: __RNvNtCs4oBEgEuuqV9_15zerocopy_derive4enum23generate_variants_union, symObjAddr: 0x44E0, symBinAddr: 0x4D214, symSize: 0x4A4 }
  - { offset: 0xB27E9, size: 0x8, addend: 0x0, symName: __RNvNtCs4oBEgEuuqV9_15zerocopy_derive4enum24generate_variant_structs, symObjAddr: 0x4984, symBinAddr: 0x4D6B8, symSize: 0x374 }
  - { offset: 0xB2959, size: 0x8, addend: 0x0, symName: __RNvNtCs4oBEgEuuqV9_15zerocopy_derive4enum9tag_ident, symObjAddr: 0x4CF8, symBinAddr: 0x4DA2C, symSize: 0xF0 }
  - { offset: 0xB2DB3, size: 0x8, addend: 0x0, symName: __RNvXs1_NtNtNtCs85QQFkKrybG_4core3ops8function5implsQNCNvNtCs4oBEgEuuqV9_15zerocopy_derive4enum23generate_variants_union0INtB7_5FnMutTRNtNtCscwCr4GBBztI_3syn4data7VariantEE8call_mutBU_, symObjAddr: 0x4DE8, symBinAddr: 0x4DB1C, symSize: 0x30 }
  - { offset: 0xB2E02, size: 0x8, addend: 0x0, symName: __RNvXs1_NtNtNtCs85QQFkKrybG_4core3ops8function5implsQNCNvNtCs4oBEgEuuqV9_15zerocopy_derive4enum24generate_variant_structs0INtB7_5FnMutTRNtNtCscwCr4GBBztI_3syn4data7VariantEE8call_mutBU_, symObjAddr: 0x4E18, symBinAddr: 0x4DB4C, symSize: 0x30 }
  - { offset: 0xBB20B, size: 0x8, addend: 0x0, symName: __RINvXNvMNtCsdFlNUEO95cG_5alloc5sliceSp9to_vec_inNtNtCscwCr4GBBztI_3syn4item11ForeignItemNtB3_10ConvertVec6to_vecNtNtB8_5alloc6GlobalEBO_, symObjAddr: 0x0, symBinAddr: 0x4DB9C, symSize: 0x3B4 }
  - { offset: 0xBD32C, size: 0x8, addend: 0x0, symName: __RINvXNvMNtCsdFlNUEO95cG_5alloc5sliceSp9to_vec_inNtNtCscwCr4GBBztI_3syn4item11ForeignItemNtB3_10ConvertVec6to_vecNtNtB8_5alloc6GlobalEBO_, symObjAddr: 0x0, symBinAddr: 0x4DB9C, symSize: 0x3B4 }
  - { offset: 0xBD86A, size: 0x8, addend: 0x0, symName: __RINvXNvMNtCsdFlNUEO95cG_5alloc5sliceSp9to_vec_inNtNtCscwCr4GBBztI_3syn4item4ItemNtB3_10ConvertVec6to_vecNtNtB8_5alloc6GlobalEBO_, symObjAddr: 0x3B4, symBinAddr: 0x4DF50, symSize: 0x3B4 }
  - { offset: 0xBDDA8, size: 0x8, addend: 0x0, symName: __RINvXNvMNtCsdFlNUEO95cG_5alloc5sliceSp9to_vec_inNtNtCscwCr4GBBztI_3syn4item8ImplItemNtB3_10ConvertVec6to_vecNtNtB8_5alloc6GlobalEBO_, symObjAddr: 0x768, symBinAddr: 0x4E304, symSize: 0x3B4 }
  - { offset: 0xBE2E6, size: 0x8, addend: 0x0, symName: __RINvXNvMNtCsdFlNUEO95cG_5alloc5sliceSp9to_vec_inNtNtCscwCr4GBBztI_3syn4item9TraitItemNtB3_10ConvertVec6to_vecNtNtB8_5alloc6GlobalEBO_, symObjAddr: 0xB1C, symBinAddr: 0x4E6B8, symSize: 0x3B4 }
  - { offset: 0xBE824, size: 0x8, addend: 0x0, symName: __RINvXNvMNtCsdFlNUEO95cG_5alloc5sliceSp9to_vec_inTNtNtCscwCr4GBBztI_3syn4item5FnArgNtNtBP_5token5CommaENtB3_10ConvertVec6to_vecNtNtB8_5alloc6GlobalEBP_, symObjAddr: 0xED0, symBinAddr: 0x4EA6C, symSize: 0x3B0 }
  - { offset: 0xBED62, size: 0x8, addend: 0x0, symName: __RINvXNvMNtCsdFlNUEO95cG_5alloc5sliceSp9to_vec_inTNtNtCscwCr4GBBztI_3syn4item7UseTreeNtNtBP_5token5CommaENtB3_10ConvertVec6to_vecNtNtB8_5alloc6GlobalEBP_, symObjAddr: 0x1280, symBinAddr: 0x4EE1C, symSize: 0x3B0 }
  - { offset: 0xC060C, size: 0x8, addend: 0x0, symName: __RNcNtNtNtCscwCr4GBBztI_3syn4item11ForeignItem5Macro0B7_, symObjAddr: 0x1630, symBinAddr: 0x4F1CC, symSize: 0x3C }
  - { offset: 0xC0643, size: 0x8, addend: 0x0, symName: __RNcNtNtNtCscwCr4GBBztI_3syn4item16StaticMutability3Mut0B7_, symObjAddr: 0x166C, symBinAddr: 0x4F208, symSize: 0x18 }
  - { offset: 0xC0679, size: 0x8, addend: 0x0, symName: __RNcNtNtNtCscwCr4GBBztI_3syn4item4Item10ForeignMod0B7_, symObjAddr: 0x1684, symBinAddr: 0x4F220, symSize: 0x3C }
  - { offset: 0xC06A8, size: 0x8, addend: 0x0, symName: __RNcNtNtNtCscwCr4GBBztI_3syn4item4Item10TraitAlias0B7_, symObjAddr: 0x16C0, symBinAddr: 0x4F25C, symSize: 0x3C }
  - { offset: 0xC06D7, size: 0x8, addend: 0x0, symName: __RNcNtNtNtCscwCr4GBBztI_3syn4item4Item11ExternCrate0B7_, symObjAddr: 0x16FC, symBinAddr: 0x4F298, symSize: 0x3C }
  - { offset: 0xC0706, size: 0x8, addend: 0x0, symName: __RNcNtNtNtCscwCr4GBBztI_3syn4item4Item2Fn0B7_, symObjAddr: 0x1738, symBinAddr: 0x4F2D4, symSize: 0x30 }
  - { offset: 0xC0735, size: 0x8, addend: 0x0, symName: __RNcNtNtNtCscwCr4GBBztI_3syn4item4Item3Mod0B7_, symObjAddr: 0x1768, symBinAddr: 0x4F304, symSize: 0x3C }
  - { offset: 0xC0764, size: 0x8, addend: 0x0, symName: __RNcNtNtNtCscwCr4GBBztI_3syn4item4Item4Enum0B7_, symObjAddr: 0x17A4, symBinAddr: 0x4F340, symSize: 0x3C }
  - { offset: 0xC0793, size: 0x8, addend: 0x0, symName: __RNcNtNtNtCscwCr4GBBztI_3syn4item4Item5Macro0B7_, symObjAddr: 0x17E0, symBinAddr: 0x4F37C, symSize: 0x3C }
  - { offset: 0xC07C2, size: 0x8, addend: 0x0, symName: __RNcNtNtNtCscwCr4GBBztI_3syn4item4Item5Trait0B7_, symObjAddr: 0x181C, symBinAddr: 0x4F3B8, symSize: 0x3C }
  - { offset: 0xC07F1, size: 0x8, addend: 0x0, symName: __RNcNtNtNtCscwCr4GBBztI_3syn4item4Item5Union0B7_, symObjAddr: 0x1858, symBinAddr: 0x4F3F4, symSize: 0x3C }
  - { offset: 0xC0820, size: 0x8, addend: 0x0, symName: __RNcNtNtNtCscwCr4GBBztI_3syn4item4Item6Struct0B7_, symObjAddr: 0x1894, symBinAddr: 0x4F430, symSize: 0x3C }
  - { offset: 0xC0855, size: 0x8, addend: 0x0, symName: __RNcNtNtNtCscwCr4GBBztI_3syn4item8ImplItem5Macro0B7_, symObjAddr: 0x18D0, symBinAddr: 0x4F46C, symSize: 0x3C }
  - { offset: 0xC088C, size: 0x8, addend: 0x0, symName: __RNcNtNtNtCscwCr4GBBztI_3syn4item9TraitItem2Fn0B7_, symObjAddr: 0x190C, symBinAddr: 0x4F4A8, symSize: 0x3C }
  - { offset: 0xC08BD, size: 0x8, addend: 0x0, symName: __RNcNtNtNtCscwCr4GBBztI_3syn4item9TraitItem5Macro0B7_, symObjAddr: 0x1948, symBinAddr: 0x4F4E4, symSize: 0x3C }
  - { offset: 0xC08F4, size: 0x8, addend: 0x0, symName: __RNvXNtNtCscwCr4GBBztI_3syn4item7parsingNtB4_4ItemNtNtB6_5parse5Parse5parse, symObjAddr: 0x2074, symBinAddr: 0x4FAA8, symSize: 0x1B4 }
  - { offset: 0xC099A, size: 0x8, addend: 0x0, symName: __RNvXs0_NtNtCscwCr4GBBztI_3syn4item7parsingNtB7_9ItemMacroNtNtB9_5parse5Parse5parse, symObjAddr: 0x2334, symBinAddr: 0x4FD68, symSize: 0x620 }
  - { offset: 0xC0B68, size: 0x8, addend: 0x0, symName: __RNvXs1_NtNtCscwCr4GBBztI_3syn4item7parsingNtB7_15ItemExternCrateNtNtB9_5parse5Parse5parse, symObjAddr: 0x3270, symBinAddr: 0x50CA4, symSize: 0x93C }
  - { offset: 0xC0D72, size: 0x8, addend: 0x0, symName: __RNvXs3_NtNtCscwCr4GBBztI_3syn4item7parsingNtB7_7UseTreeNtNtB9_5parse5Parse5parse, symObjAddr: 0x7ACC, symBinAddr: 0x5549C, symSize: 0x58 }
  - { offset: 0xC0DC4, size: 0x8, addend: 0x0, symName: __RNvXs6_NtNtCscwCr4GBBztI_3syn4item7parsingNtB7_9SignatureNtNtB9_5parse5Parse5parse, symObjAddr: 0x934C, symBinAddr: 0x5575C, symSize: 0x60 }
  - { offset: 0xC0E16, size: 0x8, addend: 0x0, symName: __RNvXs9_NtNtCscwCr4GBBztI_3syn4item7parsingNtB7_8ReceiverNtNtB9_5parse5Parse5parse, symObjAddr: 0x9DA8, symBinAddr: 0x55AB0, symSize: 0x93C }
  - { offset: 0xC1077, size: 0x8, addend: 0x0, symName: __RNvXsa_NtNtCscwCr4GBBztI_3syn4item7parsingNtB7_7ItemModNtNtB9_5parse5Parse5parse, symObjAddr: 0xB19C, symBinAddr: 0x5687C, symSize: 0xC34 }
  - { offset: 0xC12DA, size: 0x8, addend: 0x0, symName: __RNvXsb_NtNtCscwCr4GBBztI_3syn4item7parsingNtB7_14ItemForeignModNtNtB9_5parse5Parse5parse, symObjAddr: 0xBEF0, symBinAddr: 0x57584, symSize: 0x610 }
  - { offset: 0xC148B, size: 0x8, addend: 0x0, symName: __RNvXsc_NtNtCscwCr4GBBztI_3syn4item7parsingNtB7_11ForeignItemNtNtB9_5parse5Parse5parse, symObjAddr: 0xC694, symBinAddr: 0x57CDC, symSize: 0x1D8C }
  - { offset: 0xC1AFB, size: 0x8, addend: 0x0, symName: __RNvXsg_NtNtCscwCr4GBBztI_3syn4item7parsingNtB7_16ForeignItemMacroNtNtB9_5parse5Parse5parse, symObjAddr: 0xFAB4, symBinAddr: 0x59CA4, symSize: 0x32C }
  - { offset: 0xC1C0F, size: 0x8, addend: 0x0, symName: __RNvXsi_NtNtCscwCr4GBBztI_3syn4item7parsingNtB7_10ItemStructNtNtB9_5parse5Parse5parse, symObjAddr: 0x108D0, symBinAddr: 0x5A050, symSize: 0x638 }
  - { offset: 0xC1E0C, size: 0x8, addend: 0x0, symName: __RNvXsj_NtNtCscwCr4GBBztI_3syn4item7parsingNtB7_8ItemEnumNtNtB9_5parse5Parse5parse, symObjAddr: 0x11060, symBinAddr: 0x5A794, symSize: 0x63C }
  - { offset: 0xC2009, size: 0x8, addend: 0x0, symName: __RNvXsk_NtNtCscwCr4GBBztI_3syn4item7parsingNtB7_9ItemUnionNtNtB9_5parse5Parse5parse, symObjAddr: 0x119A0, symBinAddr: 0x5B0D4, symSize: 0x62C }
  - { offset: 0xC21F5, size: 0x8, addend: 0x0, symName: __RNvXsl_NtNtCscwCr4GBBztI_3syn4item7parsingNtB7_9ItemTraitNtNtB9_5parse5Parse5parse, symObjAddr: 0x12178, symBinAddr: 0x5B864, symSize: 0x634 }
  - { offset: 0xC23FC, size: 0x8, addend: 0x0, symName: __RNvXsn_NtNtCscwCr4GBBztI_3syn4item7parsingNtB7_9TraitItemNtNtB9_5parse5Parse5parse, symObjAddr: 0x12BF0, symBinAddr: 0x5BFF0, symSize: 0x1648 }
  - { offset: 0xC2870, size: 0x8, addend: 0x0, symName: __RNvXsp_NtNtCscwCr4GBBztI_3syn4item7parsingNtB7_11TraitItemFnNtNtB9_5parse5Parse5parse, symObjAddr: 0x14CB0, symBinAddr: 0x5D7B4, symSize: 0x7DC }
  - { offset: 0xC2A7C, size: 0x8, addend: 0x0, symName: __RNvXsr_NtNtCscwCr4GBBztI_3syn4item7parsingNtB7_14TraitItemMacroNtNtB9_5parse5Parse5parse, symObjAddr: 0x15DF4, symBinAddr: 0x5E194, symSize: 0x32C }
  - { offset: 0xC2B90, size: 0x8, addend: 0x0, symName: __RNvXst_NtNtCscwCr4GBBztI_3syn4item7parsingNtB7_8ImplItemNtNtB9_5parse5Parse5parse, symObjAddr: 0x16390, symBinAddr: 0x5E638, symSize: 0x1A04 }
  - { offset: 0xC308B, size: 0x8, addend: 0x0, symName: __RNvXsx_NtNtCscwCr4GBBztI_3syn4item7parsingNtB7_13ImplItemMacroNtNtB9_5parse5Parse5parse, symObjAddr: 0x19868, symBinAddr: 0x607C8, symSize: 0x32C }
  - { offset: 0xC319F, size: 0x8, addend: 0x0, symName: __RNvXsz_NtNtCscwCr4GBBztI_3syn4item7parsingNtB7_16StaticMutabilityNtNtB9_5parse5Parse5parse, symObjAddr: 0x19CB0, symBinAddr: 0x60B78, symSize: 0xD4 }
  - { offset: 0xC3215, size: 0x8, addend: 0x0, symName: __RNvXNtNtCscwCr4GBBztI_3syn4item8printingNtB4_15ItemExternCrateNtNtCshi3DZH3dfhk_5quote9to_tokens8ToTokens9to_tokens, symObjAddr: 0x2228, symBinAddr: 0x4FC5C, symSize: 0x10C }
  - { offset: 0xC3282, size: 0x8, addend: 0x0, symName: __RNvXs0_NtNtCscwCr4GBBztI_3syn4item8printingNtB7_10ItemStaticNtNtCshi3DZH3dfhk_5quote9to_tokens8ToTokens9to_tokens, symObjAddr: 0x2954, symBinAddr: 0x50388, symSize: 0xE4 }
  - { offset: 0xC32C1, size: 0x8, addend: 0x0, symName: __RNvXs1_NtNtCscwCr4GBBztI_3syn4item8printingNtB7_9ItemConstNtNtCshi3DZH3dfhk_5quote9to_tokens8ToTokens9to_tokens, symObjAddr: 0x3BAC, symBinAddr: 0x515E0, symSize: 0xD4 }
  - { offset: 0xC3300, size: 0x8, addend: 0x0, symName: __RNvXs2_NtNtCscwCr4GBBztI_3syn4item8printingNtB7_6ItemFnNtNtCshi3DZH3dfhk_5quote9to_tokens8ToTokens9to_tokens, symObjAddr: 0x6D20, symBinAddr: 0x546F0, symSize: 0xDC }
  - { offset: 0xC333F, size: 0x8, addend: 0x0, symName: __RNvXs3_NtNtCscwCr4GBBztI_3syn4item8printingNtB7_7ItemModNtNtCshi3DZH3dfhk_5quote9to_tokens8ToTokens9to_tokens, symObjAddr: 0x7B24, symBinAddr: 0x554F4, symSize: 0x10C }
  - { offset: 0xC33AC, size: 0x8, addend: 0x0, symName: __RNvXs4_NtNtCscwCr4GBBztI_3syn4item8printingNtB7_14ItemForeignModNtNtCshi3DZH3dfhk_5quote9to_tokens8ToTokens9to_tokens, symObjAddr: 0x8700, symBinAddr: 0x55600, symSize: 0x88 }
  - { offset: 0xC33EB, size: 0x8, addend: 0x0, symName: __RNvXs5_NtNtCscwCr4GBBztI_3syn4item8printingNtB7_8ItemTypeNtNtCshi3DZH3dfhk_5quote9to_tokens8ToTokens9to_tokens, symObjAddr: 0x922C, symBinAddr: 0x55688, symSize: 0xD4 }
  - { offset: 0xC342A, size: 0x8, addend: 0x0, symName: __RNvXs6_NtNtCscwCr4GBBztI_3syn4item8printingNtB7_8ItemEnumNtNtCshi3DZH3dfhk_5quote9to_tokens8ToTokens9to_tokens, symObjAddr: 0x93AC, symBinAddr: 0x557BC, symSize: 0xB8 }
  - { offset: 0xC3469, size: 0x8, addend: 0x0, symName: __RNvXs7_NtNtCscwCr4GBBztI_3syn4item8printingNtB7_10ItemStructNtNtCshi3DZH3dfhk_5quote9to_tokens8ToTokens9to_tokens, symObjAddr: 0x9814, symBinAddr: 0x55874, symSize: 0x188 }
  - { offset: 0xC34E4, size: 0x8, addend: 0x0, symName: __RNvXs8_NtNtCscwCr4GBBztI_3syn4item8printingNtB7_9ItemUnionNtNtCshi3DZH3dfhk_5quote9to_tokens8ToTokens9to_tokens, symObjAddr: 0x9CA8, symBinAddr: 0x559FC, symSize: 0xB4 }
  - { offset: 0xC3523, size: 0x8, addend: 0x0, symName: __RNvXs9_NtNtCscwCr4GBBztI_3syn4item8printingNtB7_9ItemTraitNtNtCshi3DZH3dfhk_5quote9to_tokens8ToTokens9to_tokens, symObjAddr: 0xA6E4, symBinAddr: 0x563EC, symSize: 0x130 }
  - { offset: 0xC3562, size: 0x8, addend: 0x0, symName: __RNvXs_NtNtCscwCr4GBBztI_3syn4item8printingNtB6_7ItemUseNtNtCshi3DZH3dfhk_5quote9to_tokens8ToTokens9to_tokens, symObjAddr: 0xB0AC, symBinAddr: 0x567D8, symSize: 0xA4 }
  - { offset: 0xC35A1, size: 0x8, addend: 0x0, symName: __RNvXsa_NtNtCscwCr4GBBztI_3syn4item8printingNtB7_14ItemTraitAliasNtNtCshi3DZH3dfhk_5quote9to_tokens8ToTokens9to_tokens, symObjAddr: 0xBDD0, symBinAddr: 0x574B0, symSize: 0xD4 }
  - { offset: 0xC35E0, size: 0x8, addend: 0x0, symName: __RNvXsb_NtNtCscwCr4GBBztI_3syn4item8printingNtB7_8ItemImplNtNtCshi3DZH3dfhk_5quote9to_tokens8ToTokens9to_tokens, symObjAddr: 0xC500, symBinAddr: 0x57B94, symSize: 0x148 }
  - { offset: 0xC365D, size: 0x8, addend: 0x0, symName: __RNvXsc_NtNtCscwCr4GBBztI_3syn4item8printingNtB7_9ItemMacroNtNtCshi3DZH3dfhk_5quote9to_tokens8ToTokens9to_tokens, symObjAddr: 0xE420, symBinAddr: 0x59A68, symSize: 0x140 }
  - { offset: 0xC36EE, size: 0x8, addend: 0x0, symName: __RNvXsd_NtNtCscwCr4GBBztI_3syn4item8printingNtB7_7UsePathNtNtCshi3DZH3dfhk_5quote9to_tokens8ToTokens9to_tokens, symObjAddr: 0xE95C, symBinAddr: 0x59BA8, symSize: 0x60 }
  - { offset: 0xC372D, size: 0x8, addend: 0x0, symName: __RNvXse_NtNtCscwCr4GBBztI_3syn4item8printingNtB7_7UseNameNtNtCshi3DZH3dfhk_5quote9to_tokens8ToTokens9to_tokens, symObjAddr: 0xF240, symBinAddr: 0x59C08, symSize: 0x3C }
  - { offset: 0xC376C, size: 0x8, addend: 0x0, symName: __RNvXsf_NtNtCscwCr4GBBztI_3syn4item8printingNtB7_9UseRenameNtNtCshi3DZH3dfhk_5quote9to_tokens8ToTokens9to_tokens, symObjAddr: 0xFA08, symBinAddr: 0x59C44, symSize: 0x60 }
  - { offset: 0xC37AB, size: 0x8, addend: 0x0, symName: __RNvXsg_NtNtCscwCr4GBBztI_3syn4item8printingNtB7_7UseGlobNtNtCshi3DZH3dfhk_5quote9to_tokens8ToTokens9to_tokens, symObjAddr: 0xFDE0, symBinAddr: 0x59FD0, symSize: 0x3C }
  - { offset: 0xC37EA, size: 0x8, addend: 0x0, symName: __RNvXsh_NtNtCscwCr4GBBztI_3syn4item8printingNtB7_8UseGroupNtNtCshi3DZH3dfhk_5quote9to_tokens8ToTokens9to_tokens, symObjAddr: 0x10840, symBinAddr: 0x5A00C, symSize: 0x44 }
  - { offset: 0xC3829, size: 0x8, addend: 0x0, symName: __RNvXsi_NtNtCscwCr4GBBztI_3syn4item8printingNtB7_14TraitItemConstNtNtCshi3DZH3dfhk_5quote9to_tokens8ToTokens9to_tokens, symObjAddr: 0x10F08, symBinAddr: 0x5A688, symSize: 0x10C }
  - { offset: 0xC3896, size: 0x8, addend: 0x0, symName: __RNvXsj_NtNtCscwCr4GBBztI_3syn4item8printingNtB7_11TraitItemFnNtNtCshi3DZH3dfhk_5quote9to_tokens8ToTokens9to_tokens, symObjAddr: 0x1169C, symBinAddr: 0x5ADD0, symSize: 0xD4 }
  - { offset: 0xC38F3, size: 0x8, addend: 0x0, symName: __RNvXsk_NtNtCscwCr4GBBztI_3syn4item8printingNtB7_13TraitItemTypeNtNtCshi3DZH3dfhk_5quote9to_tokens8ToTokens9to_tokens, symObjAddr: 0x11FCC, symBinAddr: 0x5B700, symSize: 0x164 }
  - { offset: 0xC3960, size: 0x8, addend: 0x0, symName: __RNvXsl_NtNtCscwCr4GBBztI_3syn4item8printingNtB7_14TraitItemMacroNtNtCshi3DZH3dfhk_5quote9to_tokens8ToTokens9to_tokens, symObjAddr: 0x127AC, symBinAddr: 0x5BE98, symSize: 0x74 }
  - { offset: 0xC399F, size: 0x8, addend: 0x0, symName: __RNvXsm_NtNtCscwCr4GBBztI_3syn4item8printingNtB7_13ImplItemConstNtNtCshi3DZH3dfhk_5quote9to_tokens8ToTokens9to_tokens, symObjAddr: 0x12AC0, symBinAddr: 0x5BF0C, symSize: 0xE4 }
  - { offset: 0xC39DE, size: 0x8, addend: 0x0, symName: __RNvXsn_NtNtCscwCr4GBBztI_3syn4item8printingNtB7_10ImplItemFnNtNtCshi3DZH3dfhk_5quote9to_tokens8ToTokens9to_tokens, symObjAddr: 0x14238, symBinAddr: 0x5D638, symSize: 0x98 }
  - { offset: 0xC3A1D, size: 0x8, addend: 0x0, symName: __RNvXso_NtNtCscwCr4GBBztI_3syn4item8printingNtB7_12ImplItemTypeNtNtCshi3DZH3dfhk_5quote9to_tokens8ToTokens9to_tokens, symObjAddr: 0x14B80, symBinAddr: 0x5D6D0, symSize: 0xE4 }
  - { offset: 0xC3A5C, size: 0x8, addend: 0x0, symName: __RNvXsp_NtNtCscwCr4GBBztI_3syn4item8printingNtB7_13ImplItemMacroNtNtCshi3DZH3dfhk_5quote9to_tokens8ToTokens9to_tokens, symObjAddr: 0x1548C, symBinAddr: 0x5DF90, symSize: 0x74 }
  - { offset: 0xC3A9B, size: 0x8, addend: 0x0, symName: __RNvXsq_NtNtCscwCr4GBBztI_3syn4item8printingNtB7_13ForeignItemFnNtNtCshi3DZH3dfhk_5quote9to_tokens8ToTokens9to_tokens, symObjAddr: 0x15D30, symBinAddr: 0x5E110, symSize: 0x84 }
  - { offset: 0xC3ADA, size: 0x8, addend: 0x0, symName: __RNvXsr_NtNtCscwCr4GBBztI_3syn4item8printingNtB7_17ForeignItemStaticNtNtCshi3DZH3dfhk_5quote9to_tokens8ToTokens9to_tokens, symObjAddr: 0x16120, symBinAddr: 0x5E4C0, symSize: 0xC4 }
  - { offset: 0xC3B19, size: 0x8, addend: 0x0, symName: __RNvXss_NtNtCscwCr4GBBztI_3syn4item8printingNtB7_15ForeignItemTypeNtNtCshi3DZH3dfhk_5quote9to_tokens8ToTokens9to_tokens, symObjAddr: 0x16290, symBinAddr: 0x5E584, symSize: 0xB4 }
  - { offset: 0xC3B58, size: 0x8, addend: 0x0, symName: __RNvXst_NtNtCscwCr4GBBztI_3syn4item8printingNtB7_16ForeignItemMacroNtNtCshi3DZH3dfhk_5quote9to_tokens8ToTokens9to_tokens, symObjAddr: 0x17D94, symBinAddr: 0x6003C, symSize: 0x74 }
  - { offset: 0xC3B97, size: 0x8, addend: 0x0, symName: __RNvXsu_NtNtCscwCr4GBBztI_3syn4item8printingNtB7_9SignatureNtNtCshi3DZH3dfhk_5quote9to_tokens8ToTokens9to_tokens, symObjAddr: 0x18824, symBinAddr: 0x600B0, symSize: 0xD4 }
  - { offset: 0xC3BD6, size: 0x8, addend: 0x0, symName: __RNvXsv_NtNtCscwCr4GBBztI_3syn4item8printingNtB7_8ReceiverNtNtCshi3DZH3dfhk_5quote9to_tokens8ToTokens9to_tokens, symObjAddr: 0x18A70, symBinAddr: 0x6029C, symSize: 0x450 }
  - { offset: 0xC3CCE, size: 0x8, addend: 0x0, symName: __RNvXsw_NtNtCscwCr4GBBztI_3syn4item8printingNtB7_8VariadicNtNtCshi3DZH3dfhk_5quote9to_tokens8ToTokens9to_tokens, symObjAddr: 0x19740, symBinAddr: 0x606EC, symSize: 0xDC }
  - { offset: 0xC3D3B, size: 0x8, addend: 0x0, symName: __RNvXsx_NtNtCscwCr4GBBztI_3syn4item8printingNtB7_16StaticMutabilityNtNtCshi3DZH3dfhk_5quote9to_tokens8ToTokens9to_tokens, symObjAddr: 0x19B94, symBinAddr: 0x60AF4, symSize: 0x84 }
  - { offset: 0xC3D99, size: 0x8, addend: 0x0, symName: __RNvXsA_NtCscwCr4GBBztI_3syn4itemNtB5_9TraitItemNtNtCshi3DZH3dfhk_5quote9to_tokens8ToTokens9to_tokens, symObjAddr: 0xA814, symBinAddr: 0x5651C, symSize: 0x118 }
  - { offset: 0xC3E66, size: 0x8, addend: 0x0, symName: __RNvXsF_NtCscwCr4GBBztI_3syn4itemNtB5_8ImplItemNtNtCshi3DZH3dfhk_5quote9to_tokens8ToTokens9to_tokens, symObjAddr: 0xAA50, symBinAddr: 0x56634, symSize: 0x118 }
  - { offset: 0xC3F33, size: 0x8, addend: 0x0, symName: __RNvXsI_NtCscwCr4GBBztI_3syn4itemNtB5_5FnArgNtNtCshi3DZH3dfhk_5quote9to_tokens8ToTokens9to_tokens, symObjAddr: 0xABF4, symBinAddr: 0x5674C, symSize: 0x8C }
  - { offset: 0xC3FA9, size: 0x8, addend: 0x0, symName: __RNvXsk_NtCscwCr4GBBztI_3syn4itemNtB5_4ItemNtNtCshi3DZH3dfhk_5quote9to_tokens8ToTokens9to_tokens, symObjAddr: 0x11770, symBinAddr: 0x5AEA4, symSize: 0x230 }
  - { offset: 0xC41BB, size: 0x8, addend: 0x0, symName: __RNvXsq_NtCscwCr4GBBztI_3syn4itemNtB5_7UseTreeNtNtCshi3DZH3dfhk_5quote9to_tokens8ToTokens9to_tokens, symObjAddr: 0x15500, symBinAddr: 0x5E004, symSize: 0x10C }
