---
triple:          'arm64-apple-darwin'
binary-path:     '/Users/johnhjediny/Documents/GitHub/json-schema-x-graphql/converters/rust/target/debug/deps/libwasm_bindgen_macro-d54ab050bad44859.dylib'
relocations:
  - { offset: 0x1E, size: 0x8, addend: 0x0, symName: __RINvMs2_NtNtCswz7ZwgBZOU_3std6thread5localINtB6_8LocalKeyINtNtCs85QQFkKrybG_4core4cell4CellPuEE4withNCNvMs3_B6_BE_7replace0B1r_ECsjbkLYW2JGv0_18wasm_bindgen_macro, symObjAddr: 0x0, symBinAddr: 0xC68, symSize: 0x54 }
  - { offset: 0x378, size: 0x8, addend: 0x0, symName: __RNCNvMs3_NtNtCswz7ZwgBZOU_3std6thread5localINtB7_8LocalKeyINtNtCs85QQFkKrybG_4core4cell4CellPuEE7replace0CsjbkLYW2JGv0_18wasm_bindgen_macro, symObjAddr: 0x25B0, symBinAddr: 0x3218, symSize: 0x28 }
  - { offset: 0x557, size: 0x8, addend: 0x0, symName: __RINvNvNtCswz7ZwgBZOU_3std9panicking12catch_unwind7do_callINtNtNtCs85QQFkKrybG_4core5panic11unwind_safe16AssertUnwindSafeNCINvNtNtCs9bTl5rSDVcL_10proc_macro6bridge6client10run_clientNtB1Z_11TokenStreamINtNtB10_6option6OptionB2T_ENCNCINvMs6_B1Z_INtB1Z_6ClientNtB23_11TokenStreamB47_E7expand1NvCsjbkLYW2JGv0_18wasm_bindgen_macro28___wasm_bindgen_struct_markerE00E0EuEB4F_, symObjAddr: 0x1220, symBinAddr: 0x1E88, symSize: 0x50 }
  - { offset: 0x61F, size: 0x8, addend: 0x0, symName: __RINvNvNtCswz7ZwgBZOU_3std9panicking12catch_unwind7do_callINtNtNtCs85QQFkKrybG_4core5panic11unwind_safe16AssertUnwindSafeNCINvNtNtCs9bTl5rSDVcL_10proc_macro6bridge6client10run_clientNtB1Z_11TokenStreamINtNtB10_6option6OptionB2T_ENCNCINvMs6_B1Z_INtB1Z_6ClientNtB23_11TokenStreamB47_E7expand1NvCsjbkLYW2JGv0_18wasm_bindgen_macro7link_toE00E0EuEB4F_, symObjAddr: 0x1270, symBinAddr: 0x1ED8, symSize: 0x50 }
  - { offset: 0x6E7, size: 0x8, addend: 0x0, symName: __RINvNvNtCswz7ZwgBZOU_3std9panicking12catch_unwind7do_callINtNtNtCs85QQFkKrybG_4core5panic11unwind_safe16AssertUnwindSafeNCINvNtNtCs9bTl5rSDVcL_10proc_macro6bridge6client10run_clientTNtB1Z_11TokenStreamB2U_EINtNtB10_6option6OptionB2U_ENCNCINvMs7_B1Z_INtB1Z_6ClientTNtB23_11TokenStreamB4e_EB4e_E7expand2NvCsjbkLYW2JGv0_18wasm_bindgen_macro12wasm_bindgenE00E0EuEB4R_, symObjAddr: 0x12C0, symBinAddr: 0x1F28, symSize: 0x50 }
  - { offset: 0x7AF, size: 0x8, addend: 0x0, symName: __RINvNvNtCswz7ZwgBZOU_3std9panicking12catch_unwind7do_callINtNtNtCs85QQFkKrybG_4core5panic11unwind_safe16AssertUnwindSafeNCINvNtNtCs9bTl5rSDVcL_10proc_macro6bridge6client10run_clientTNtB1Z_11TokenStreamB2U_EINtNtB10_6option6OptionB2U_ENCNCINvMs7_B1Z_INtB1Z_6ClientTNtB23_11TokenStreamB4e_EB4e_E7expand2NvCsjbkLYW2JGv0_18wasm_bindgen_macro27___wasm_bindgen_class_markerE00E0EuEB4R_, symObjAddr: 0x1310, symBinAddr: 0x1F78, symSize: 0x50 }
  - { offset: 0x877, size: 0x8, addend: 0x0, symName: __RINvNvNtCswz7ZwgBZOU_3std9panicking12catch_unwind8do_catchINtNtNtCs85QQFkKrybG_4core5panic11unwind_safe16AssertUnwindSafeNCINvNtNtCs9bTl5rSDVcL_10proc_macro6bridge6client10run_clientNtB20_11TokenStreamINtNtB11_6option6OptionB2U_ENCNCINvMs6_B20_INtB20_6ClientNtB24_11TokenStreamB48_E7expand1NvCsjbkLYW2JGv0_18wasm_bindgen_macro28___wasm_bindgen_struct_markerE00E0EuEB4G_, symObjAddr: 0x1360, symBinAddr: 0x1FC8, symSize: 0x70 }
  - { offset: 0x90C, size: 0x8, addend: 0x0, symName: __RINvNvNtCswz7ZwgBZOU_3std9panicking12catch_unwind8do_catchINtNtNtCs85QQFkKrybG_4core5panic11unwind_safe16AssertUnwindSafeNCINvNtNtCs9bTl5rSDVcL_10proc_macro6bridge6client10run_clientNtB20_11TokenStreamINtNtB11_6option6OptionB2U_ENCNCINvMs6_B20_INtB20_6ClientNtB24_11TokenStreamB48_E7expand1NvCsjbkLYW2JGv0_18wasm_bindgen_macro7link_toE00E0EuEB4G_, symObjAddr: 0x13D0, symBinAddr: 0x2038, symSize: 0x70 }
  - { offset: 0x9A1, size: 0x8, addend: 0x0, symName: __RINvNvNtCswz7ZwgBZOU_3std9panicking12catch_unwind8do_catchINtNtNtCs85QQFkKrybG_4core5panic11unwind_safe16AssertUnwindSafeNCINvNtNtCs9bTl5rSDVcL_10proc_macro6bridge6client10run_clientTNtB20_11TokenStreamB2V_EINtNtB11_6option6OptionB2V_ENCNCINvMs7_B20_INtB20_6ClientTNtB24_11TokenStreamB4f_EB4f_E7expand2NvCsjbkLYW2JGv0_18wasm_bindgen_macro12wasm_bindgenE00E0EuEB4S_, symObjAddr: 0x1440, symBinAddr: 0x20A8, symSize: 0x70 }
  - { offset: 0xA36, size: 0x8, addend: 0x0, symName: __RINvNvNtCswz7ZwgBZOU_3std9panicking12catch_unwind8do_catchINtNtNtCs85QQFkKrybG_4core5panic11unwind_safe16AssertUnwindSafeNCINvNtNtCs9bTl5rSDVcL_10proc_macro6bridge6client10run_clientTNtB20_11TokenStreamB2V_EINtNtB11_6option6OptionB2V_ENCNCINvMs7_B20_INtB20_6ClientTNtB24_11TokenStreamB4f_EB4f_E7expand2NvCsjbkLYW2JGv0_18wasm_bindgen_macro27___wasm_bindgen_class_markerE00E0EuEB4S_, symObjAddr: 0x14B0, symBinAddr: 0x2118, symSize: 0x70 }
  - { offset: 0x1150, size: 0x8, addend: 0x0, symName: __RINvNtCs85QQFkKrybG_4core3ptr13drop_in_placeINtNtB4_4cell10UnsafeCellNtNtNtCs9bTl5rSDVcL_10proc_macro6bridge6client6BridgeEECsjbkLYW2JGv0_18wasm_bindgen_macro, symObjAddr: 0x410, symBinAddr: 0x1078, symSize: 0x24 }
  - { offset: 0x117F, size: 0x8, addend: 0x0, symName: __RINvNtCs85QQFkKrybG_4core3ptr13drop_in_placeINtNtB4_4cell7RefCellNtNtNtCs9bTl5rSDVcL_10proc_macro6bridge6client6BridgeEECsjbkLYW2JGv0_18wasm_bindgen_macro, symObjAddr: 0x434, symBinAddr: 0x109C, symSize: 0x24 }
  - { offset: 0x11AE, size: 0x8, addend: 0x0, symName: __RINvNtCs85QQFkKrybG_4core3ptr13drop_in_placeNCNCINvNtNtCs9bTl5rSDVcL_10proc_macro6bridge6client10run_clientNtBN_11TokenStreamINtNtB4_6option6OptionB1H_ENCNCINvMs6_BN_INtBN_6ClientNtBR_11TokenStreamB2R_E7expand1NvCsjbkLYW2JGv0_18wasm_bindgen_macro28___wasm_bindgen_struct_markerE00E00EB3o_, symObjAddr: 0x458, symBinAddr: 0x10C0, symSize: 0x24 }
  - { offset: 0x11DD, size: 0x8, addend: 0x0, symName: __RINvNtCs85QQFkKrybG_4core3ptr13drop_in_placeNCNCINvNtNtCs9bTl5rSDVcL_10proc_macro6bridge6client10run_clientNtBN_11TokenStreamINtNtB4_6option6OptionB1H_ENCNCINvMs6_BN_INtBN_6ClientNtBR_11TokenStreamB2R_E7expand1NvCsjbkLYW2JGv0_18wasm_bindgen_macro7link_toE00E00EB3o_, symObjAddr: 0x47C, symBinAddr: 0x10E4, symSize: 0x24 }
  - { offset: 0x120C, size: 0x8, addend: 0x0, symName: __RINvNtCs85QQFkKrybG_4core3ptr13drop_in_placeNCNCINvNtNtCs9bTl5rSDVcL_10proc_macro6bridge6client10run_clientTNtBN_11TokenStreamB1I_EINtNtB4_6option6OptionB1I_ENCNCINvMs7_BN_INtBN_6ClientTNtBR_11TokenStreamB2Y_EB2Y_E7expand2NvCsjbkLYW2JGv0_18wasm_bindgen_macro12wasm_bindgenE00E00EB3A_, symObjAddr: 0x4A0, symBinAddr: 0x1108, symSize: 0x24 }
  - { offset: 0x123B, size: 0x8, addend: 0x0, symName: __RINvNtCs85QQFkKrybG_4core3ptr13drop_in_placeNCNCINvNtNtCs9bTl5rSDVcL_10proc_macro6bridge6client10run_clientTNtBN_11TokenStreamB1I_EINtNtB4_6option6OptionB1I_ENCNCINvMs7_BN_INtBN_6ClientTNtBR_11TokenStreamB2Y_EB2Y_E7expand2NvCsjbkLYW2JGv0_18wasm_bindgen_macro27___wasm_bindgen_class_markerE00E00EB3A_, symObjAddr: 0x4C4, symBinAddr: 0x112C, symSize: 0x24 }
  - { offset: 0x126A, size: 0x8, addend: 0x0, symName: __RINvNtCs85QQFkKrybG_4core3ptr13drop_in_placeNtNtNtCs9bTl5rSDVcL_10proc_macro6bridge3rpc12PanicMessageECsjbkLYW2JGv0_18wasm_bindgen_macro, symObjAddr: 0x4E8, symBinAddr: 0x1150, symSize: 0x54 }
  - { offset: 0x1299, size: 0x8, addend: 0x0, symName: __RINvNtCs85QQFkKrybG_4core3ptr13drop_in_placeNtNtNtCs9bTl5rSDVcL_10proc_macro6bridge6buffer6BufferECsjbkLYW2JGv0_18wasm_bindgen_macro, symObjAddr: 0x53C, symBinAddr: 0x11A4, symSize: 0x24 }
  - { offset: 0x12C8, size: 0x8, addend: 0x0, symName: __RINvNtCs85QQFkKrybG_4core3ptr13drop_in_placeNtNtNtCs9bTl5rSDVcL_10proc_macro6bridge6client6BridgeECsjbkLYW2JGv0_18wasm_bindgen_macro, symObjAddr: 0x560, symBinAddr: 0x11C8, symSize: 0x24 }
  - { offset: 0x12F7, size: 0x8, addend: 0x0, symName: __RINvNtCs85QQFkKrybG_4core3ptr13drop_in_placeNtNvNtNtNtCs9bTl5rSDVcL_10proc_macro6bridge6client5state3set13RestoreOnDropECsjbkLYW2JGv0_18wasm_bindgen_macro, symObjAddr: 0x584, symBinAddr: 0x11EC, symSize: 0x24 }
  - { offset: 0x1326, size: 0x8, addend: 0x0, symName: __RINvNtCs85QQFkKrybG_4core3ptr13drop_in_placeTNtNtNtCs9bTl5rSDVcL_10proc_macro6bridge6client11TokenStreamBH_EECsjbkLYW2JGv0_18wasm_bindgen_macro, symObjAddr: 0x5A8, symBinAddr: 0x1210, symSize: 0x60 }
  - { offset: 0x1598, size: 0x8, addend: 0x0, symName: __RNvNvNtCs85QQFkKrybG_4core3ptr19copy_nonoverlapping18precondition_checkCsjbkLYW2JGv0_18wasm_bindgen_macro, symObjAddr: 0x3228, symBinAddr: 0x3E8C, symSize: 0x36C }
  - { offset: 0x28F9, size: 0x8, addend: 0x0, symName: __RNvYNCNkNvNtNtNtCs9bTl5rSDVcL_10proc_macro6bridge6client5state12BRIDGE_STATE0s_0INtNtNtCs85QQFkKrybG_4core3ops8function6FnOnceTINtNtB1n_6option6OptionQIB22_INtNtB1n_4cell4CellPuEEEEE9call_onceCsjbkLYW2JGv0_18wasm_bindgen_macro, symObjAddr: 0x424C, symBinAddr: 0x4EB0, symSize: 0x4C }
  - { offset: 0x2943, size: 0x8, addend: 0x0, symName: __RNvYNvCsjbkLYW2JGv0_18wasm_bindgen_macro12wasm_bindgenINtNtNtCs85QQFkKrybG_4core3ops8function2FnTNtCs9bTl5rSDVcL_10proc_macro11TokenStreamB1x_EE4callB4_, symObjAddr: 0x4298, symBinAddr: 0x4EFC, symSize: 0x30 }
  - { offset: 0x2987, size: 0x8, addend: 0x0, symName: __RNvYNvCsjbkLYW2JGv0_18wasm_bindgen_macro27___wasm_bindgen_class_markerINtNtNtCs85QQFkKrybG_4core3ops8function2FnTNtCs9bTl5rSDVcL_10proc_macro11TokenStreamB1N_EE4callB4_, symObjAddr: 0x42C8, symBinAddr: 0x4F2C, symSize: 0x30 }
  - { offset: 0x29CB, size: 0x8, addend: 0x0, symName: __RNvYNvCsjbkLYW2JGv0_18wasm_bindgen_macro28___wasm_bindgen_struct_markerINtNtNtCs85QQFkKrybG_4core3ops8function2FnTNtCs9bTl5rSDVcL_10proc_macro11TokenStreamEE4callB4_, symObjAddr: 0x42F8, symBinAddr: 0x4F5C, symSize: 0x28 }
  - { offset: 0x2A0F, size: 0x8, addend: 0x0, symName: __RNvYNvCsjbkLYW2JGv0_18wasm_bindgen_macro7link_toINtNtNtCs85QQFkKrybG_4core3ops8function2FnTNtCs9bTl5rSDVcL_10proc_macro11TokenStreamEE4callB4_, symObjAddr: 0x4320, symBinAddr: 0x4F84, symSize: 0x28 }
  - { offset: 0x31C7, size: 0x8, addend: 0x0, symName: __RNvMNtCs85QQFkKrybG_4core5sliceSh15copy_from_sliceCsjbkLYW2JGv0_18wasm_bindgen_macro, symObjAddr: 0x2EE0, symBinAddr: 0x3B48, symSize: 0xAC }
  - { offset: 0x34F7, size: 0x8, addend: 0x0, symName: __RNvXsn_NtNtCs85QQFkKrybG_4core5panic11unwind_safeINtB5_16AssertUnwindSafeNCINvNtNtCs9bTl5rSDVcL_10proc_macro6bridge6client10run_clientNtB1e_11TokenStreamINtNtB9_6option6OptionB28_ENCNCINvMs6_B1e_INtB1e_6ClientNtB1i_11TokenStreamB3l_E7expand1NvCsjbkLYW2JGv0_18wasm_bindgen_macro28___wasm_bindgen_struct_markerE00E0EINtNtNtB9_3ops8function6FnOnceuE9call_onceB3T_, symObjAddr: 0x4070, symBinAddr: 0x4CD4, symSize: 0x38 }
  - { offset: 0x354F, size: 0x8, addend: 0x0, symName: __RNvXsn_NtNtCs85QQFkKrybG_4core5panic11unwind_safeINtB5_16AssertUnwindSafeNCINvNtNtCs9bTl5rSDVcL_10proc_macro6bridge6client10run_clientNtB1e_11TokenStreamINtNtB9_6option6OptionB28_ENCNCINvMs6_B1e_INtB1e_6ClientNtB1i_11TokenStreamB3l_E7expand1NvCsjbkLYW2JGv0_18wasm_bindgen_macro7link_toE00E0EINtNtNtB9_3ops8function6FnOnceuE9call_onceB3T_, symObjAddr: 0x40A8, symBinAddr: 0x4D0C, symSize: 0x38 }
  - { offset: 0x35A7, size: 0x8, addend: 0x0, symName: __RNvXsn_NtNtCs85QQFkKrybG_4core5panic11unwind_safeINtB5_16AssertUnwindSafeNCINvNtNtCs9bTl5rSDVcL_10proc_macro6bridge6client10run_clientTNtB1e_11TokenStreamB29_EINtNtB9_6option6OptionB29_ENCNCINvMs7_B1e_INtB1e_6ClientTNtB1i_11TokenStreamB3s_EB3s_E7expand2NvCsjbkLYW2JGv0_18wasm_bindgen_macro12wasm_bindgenE00E0EINtNtNtB9_3ops8function6FnOnceuE9call_onceB45_, symObjAddr: 0x40E0, symBinAddr: 0x4D44, symSize: 0x38 }
  - { offset: 0x35FF, size: 0x8, addend: 0x0, symName: __RNvXsn_NtNtCs85QQFkKrybG_4core5panic11unwind_safeINtB5_16AssertUnwindSafeNCINvNtNtCs9bTl5rSDVcL_10proc_macro6bridge6client10run_clientTNtB1e_11TokenStreamB29_EINtNtB9_6option6OptionB29_ENCNCINvMs7_B1e_INtB1e_6ClientTNtB1i_11TokenStreamB3s_EB3s_E7expand2NvCsjbkLYW2JGv0_18wasm_bindgen_macro27___wasm_bindgen_class_markerE00E0EINtNtNtB9_3ops8function6FnOnceuE9call_onceB45_, symObjAddr: 0x4118, symBinAddr: 0x4D7C, symSize: 0x38 }
  - { offset: 0x3964, size: 0x8, addend: 0x0, symName: __RNvNvNtCs85QQFkKrybG_4core9ub_checks23maybe_is_nonoverlapping7runtimeCsjbkLYW2JGv0_18wasm_bindgen_macro, symObjAddr: 0x3594, symBinAddr: 0x41F8, symSize: 0xD8 }
  - { offset: 0x3BC5, size: 0x8, addend: 0x0, symName: ___rustc_proc_macro_decls_df6f28769818e624__, symObjAddr: 0x4ED8, symBinAddr: 0x318340, symSize: 0x0 }
  - { offset: 0x3BD3, size: 0x8, addend: 0x0, symName: __RNvCsjbkLYW2JGv0_18wasm_bindgen_macro12wasm_bindgen, symObjAddr: 0x25D8, symBinAddr: 0x3240, symSize: 0x260 }
  - { offset: 0x3C4F, size: 0x8, addend: 0x0, symName: __RNvCsjbkLYW2JGv0_18wasm_bindgen_macro27___wasm_bindgen_class_marker, symObjAddr: 0x2838, symBinAddr: 0x34A0, symSize: 0x260 }
  - { offset: 0x3CCB, size: 0x8, addend: 0x0, symName: __RNvCsjbkLYW2JGv0_18wasm_bindgen_macro28___wasm_bindgen_struct_marker, symObjAddr: 0x2A98, symBinAddr: 0x3700, symSize: 0x1D8 }
  - { offset: 0x3D39, size: 0x8, addend: 0x0, symName: __RNvCsjbkLYW2JGv0_18wasm_bindgen_macro7link_to, symObjAddr: 0x2C70, symBinAddr: 0x38D8, symSize: 0x270 }
  - { offset: 0x4198, size: 0x8, addend: 0x0, symName: __RNCINvNtNtCs9bTl5rSDVcL_10proc_macro6bridge6client10run_clientNtB4_11TokenStreamINtNtCs85QQFkKrybG_4core6option6OptionBY_ENCNCINvMs6_B4_INtB4_6ClientNtB8_11TokenStreamB2n_E7expand1NvCsjbkLYW2JGv0_18wasm_bindgen_macro28___wasm_bindgen_struct_markerE00E0B2U_, symObjAddr: 0x1790, symBinAddr: 0x23F8, symSize: 0x318 }
  - { offset: 0x43BD, size: 0x8, addend: 0x0, symName: __RNCINvNtNtCs9bTl5rSDVcL_10proc_macro6bridge6client10run_clientNtB4_11TokenStreamINtNtCs85QQFkKrybG_4core6option6OptionBY_ENCNCINvMs6_B4_INtB4_6ClientNtB8_11TokenStreamB2n_E7expand1NvCsjbkLYW2JGv0_18wasm_bindgen_macro7link_toE00E0B2U_, symObjAddr: 0x1AA8, symBinAddr: 0x2710, symSize: 0x318 }
  - { offset: 0x45E2, size: 0x8, addend: 0x0, symName: __RNCINvNtNtCs9bTl5rSDVcL_10proc_macro6bridge6client10run_clientTNtB4_11TokenStreamBZ_EINtNtCs85QQFkKrybG_4core6option6OptionBZ_ENCNCINvMs7_B4_INtB4_6ClientTNtB8_11TokenStreamB2t_EB2t_E7expand2NvCsjbkLYW2JGv0_18wasm_bindgen_macro12wasm_bindgenE00E0B35_, symObjAddr: 0x1DC0, symBinAddr: 0x2A28, symSize: 0x338 }
  - { offset: 0x4807, size: 0x8, addend: 0x0, symName: __RNCINvNtNtCs9bTl5rSDVcL_10proc_macro6bridge6client10run_clientTNtB4_11TokenStreamBZ_EINtNtCs85QQFkKrybG_4core6option6OptionBZ_ENCNCINvMs7_B4_INtB4_6ClientTNtB8_11TokenStreamB2t_EB2t_E7expand2NvCsjbkLYW2JGv0_18wasm_bindgen_macro27___wasm_bindgen_class_markerE00E0B35_, symObjAddr: 0x20F8, symBinAddr: 0x2D60, symSize: 0x338 }
  - { offset: 0x4A31, size: 0x8, addend: 0x0, symName: __RNCNCINvNtNtCs9bTl5rSDVcL_10proc_macro6bridge6client10run_clientNtB6_11TokenStreamINtNtCs85QQFkKrybG_4core6option6OptionB10_ENCNCINvMs6_B6_INtB6_6ClientNtBa_11TokenStreamB2q_E7expand1NvCsjbkLYW2JGv0_18wasm_bindgen_macro28___wasm_bindgen_struct_markerE00E00B2X_, symObjAddr: 0x24E8, symBinAddr: 0x3150, symSize: 0x28 }
  - { offset: 0x4A8B, size: 0x8, addend: 0x0, symName: __RNCNCINvNtNtCs9bTl5rSDVcL_10proc_macro6bridge6client10run_clientNtB6_11TokenStreamINtNtCs85QQFkKrybG_4core6option6OptionB10_ENCNCINvMs6_B6_INtB6_6ClientNtBa_11TokenStreamB2q_E7expand1NvCsjbkLYW2JGv0_18wasm_bindgen_macro7link_toE00E00B2X_, symObjAddr: 0x2510, symBinAddr: 0x3178, symSize: 0x28 }
  - { offset: 0x4AE5, size: 0x8, addend: 0x0, symName: __RNCNCINvNtNtCs9bTl5rSDVcL_10proc_macro6bridge6client10run_clientTNtB6_11TokenStreamB11_EINtNtCs85QQFkKrybG_4core6option6OptionB11_ENCNCINvMs7_B6_INtB6_6ClientTNtBa_11TokenStreamB2x_EB2x_E7expand2NvCsjbkLYW2JGv0_18wasm_bindgen_macro12wasm_bindgenE00E00B39_, symObjAddr: 0x2538, symBinAddr: 0x31A0, symSize: 0x24 }
  - { offset: 0x4B41, size: 0x8, addend: 0x0, symName: __RNCNCINvNtNtCs9bTl5rSDVcL_10proc_macro6bridge6client10run_clientTNtB6_11TokenStreamB11_EINtNtCs85QQFkKrybG_4core6option6OptionB11_ENCNCINvMs7_B6_INtB6_6ClientTNtBa_11TokenStreamB2x_EB2x_E7expand2NvCsjbkLYW2JGv0_18wasm_bindgen_macro27___wasm_bindgen_class_markerE00E00B39_, symObjAddr: 0x255C, symBinAddr: 0x31C4, symSize: 0x24 }
  - { offset: 0x4C4C, size: 0x8, addend: 0x0, symName: __RNCNCINvMs6_NtNtCs9bTl5rSDVcL_10proc_macro6bridge6clientINtBa_6ClientNtBe_11TokenStreamB15_E7expand1NvCsjbkLYW2JGv0_18wasm_bindgen_macro28___wasm_bindgen_struct_markerE00B1C_, symObjAddr: 0x2430, symBinAddr: 0x3098, symSize: 0x28 }
  - { offset: 0x4C94, size: 0x8, addend: 0x0, symName: __RNCNCINvMs6_NtNtCs9bTl5rSDVcL_10proc_macro6bridge6clientINtBa_6ClientNtBe_11TokenStreamB15_E7expand1NvCsjbkLYW2JGv0_18wasm_bindgen_macro7link_toE00B1C_, symObjAddr: 0x2458, symBinAddr: 0x30C0, symSize: 0x28 }
  - { offset: 0x4D03, size: 0x8, addend: 0x0, symName: __RNCINvMs6_NtNtCs9bTl5rSDVcL_10proc_macro6bridge6clientINtB8_6ClientNtBc_11TokenStreamB13_E7expand1NvCsjbkLYW2JGv0_18wasm_bindgen_macro28___wasm_bindgen_struct_markerE0B1A_, symObjAddr: 0x16D0, symBinAddr: 0x2338, symSize: 0x30 }
  - { offset: 0x4D4C, size: 0x8, addend: 0x0, symName: __RNCINvMs6_NtNtCs9bTl5rSDVcL_10proc_macro6bridge6clientINtB8_6ClientNtBc_11TokenStreamB13_E7expand1NvCsjbkLYW2JGv0_18wasm_bindgen_macro7link_toE0B1A_, symObjAddr: 0x1700, symBinAddr: 0x2368, symSize: 0x30 }
  - { offset: 0x4D97, size: 0x8, addend: 0x0, symName: __RINvNtNtCs9bTl5rSDVcL_10proc_macro6bridge6client10run_clientNtB2_11TokenStreamINtNtCs85QQFkKrybG_4core6option6OptionBW_ENCNCINvMs6_B2_INtB2_6ClientNtB6_11TokenStreamB2l_E7expand1NvCsjbkLYW2JGv0_18wasm_bindgen_macro28___wasm_bindgen_struct_markerE00EB2S_, symObjAddr: 0x608, symBinAddr: 0x1270, symSize: 0x21C }
  - { offset: 0x4F80, size: 0x8, addend: 0x0, symName: __RINvNtNtCs9bTl5rSDVcL_10proc_macro6bridge6client10run_clientNtB2_11TokenStreamINtNtCs85QQFkKrybG_4core6option6OptionBW_ENCNCINvMs6_B2_INtB2_6ClientNtB6_11TokenStreamB2l_E7expand1NvCsjbkLYW2JGv0_18wasm_bindgen_macro7link_toE00EB2S_, symObjAddr: 0x824, symBinAddr: 0x148C, symSize: 0x21C }
  - { offset: 0x519E, size: 0x8, addend: 0x0, symName: __RNCNCINvMs7_NtNtCs9bTl5rSDVcL_10proc_macro6bridge6clientINtBa_6ClientTNtBe_11TokenStreamB16_EB16_E7expand2NvCsjbkLYW2JGv0_18wasm_bindgen_macro12wasm_bindgenE00B1I_, symObjAddr: 0x2480, symBinAddr: 0x30E8, symSize: 0x34 }
  - { offset: 0x5210, size: 0x8, addend: 0x0, symName: __RNCNCINvMs7_NtNtCs9bTl5rSDVcL_10proc_macro6bridge6clientINtBa_6ClientTNtBe_11TokenStreamB16_EB16_E7expand2NvCsjbkLYW2JGv0_18wasm_bindgen_macro27___wasm_bindgen_class_markerE00B1I_, symObjAddr: 0x24B4, symBinAddr: 0x311C, symSize: 0x34 }
  - { offset: 0x52A9, size: 0x8, addend: 0x0, symName: __RNCINvMs7_NtNtCs9bTl5rSDVcL_10proc_macro6bridge6clientINtB8_6ClientTNtBc_11TokenStreamB14_EB14_E7expand2NvCsjbkLYW2JGv0_18wasm_bindgen_macro12wasm_bindgenE0B1G_, symObjAddr: 0x1730, symBinAddr: 0x2398, symSize: 0x30 }
  - { offset: 0x52F2, size: 0x8, addend: 0x0, symName: __RNCINvMs7_NtNtCs9bTl5rSDVcL_10proc_macro6bridge6clientINtB8_6ClientTNtBc_11TokenStreamB14_EB14_E7expand2NvCsjbkLYW2JGv0_18wasm_bindgen_macro27___wasm_bindgen_class_markerE0B1G_, symObjAddr: 0x1760, symBinAddr: 0x23C8, symSize: 0x30 }
  - { offset: 0x533D, size: 0x8, addend: 0x0, symName: __RINvNtNtCs9bTl5rSDVcL_10proc_macro6bridge6client10run_clientTNtB2_11TokenStreamBX_EINtNtCs85QQFkKrybG_4core6option6OptionBX_ENCNCINvMs7_B2_INtB2_6ClientTNtB6_11TokenStreamB2r_EB2r_E7expand2NvCsjbkLYW2JGv0_18wasm_bindgen_macro12wasm_bindgenE00EB33_, symObjAddr: 0xA40, symBinAddr: 0x16A8, symSize: 0x21C }
  - { offset: 0x5526, size: 0x8, addend: 0x0, symName: __RINvNtNtCs9bTl5rSDVcL_10proc_macro6bridge6client10run_clientTNtB2_11TokenStreamBX_EINtNtCs85QQFkKrybG_4core6option6OptionBX_ENCNCINvMs7_B2_INtB2_6ClientTNtB6_11TokenStreamB2r_EB2r_E7expand2NvCsjbkLYW2JGv0_18wasm_bindgen_macro27___wasm_bindgen_class_markerE00EB33_, symObjAddr: 0xC5C, symBinAddr: 0x18C4, symSize: 0x21C }
  - { offset: 0x5762, size: 0x8, addend: 0x0, symName: __RINvNtNtNtCs9bTl5rSDVcL_10proc_macro6bridge6client5state3setINtNtCs85QQFkKrybG_4core6option6OptionNtB4_11TokenStreamENCNCINvB4_10run_clientB1y_BW_NCNCINvMs6_B4_INtB4_6ClientNtB8_11TokenStreamB2L_E7expand1NvCsjbkLYW2JGv0_18wasm_bindgen_macro28___wasm_bindgen_struct_markerE00E00EB3i_, symObjAddr: 0xE78, symBinAddr: 0x1AE0, symSize: 0xE8 }
  - { offset: 0x5837, size: 0x8, addend: 0x0, symName: __RINvNtNtNtCs9bTl5rSDVcL_10proc_macro6bridge6client5state3setINtNtCs85QQFkKrybG_4core6option6OptionNtB4_11TokenStreamENCNCINvB4_10run_clientB1y_BW_NCNCINvMs6_B4_INtB4_6ClientNtB8_11TokenStreamB2L_E7expand1NvCsjbkLYW2JGv0_18wasm_bindgen_macro7link_toE00E00EB3i_, symObjAddr: 0xF60, symBinAddr: 0x1BC8, symSize: 0xE8 }
  - { offset: 0x590C, size: 0x8, addend: 0x0, symName: __RINvNtNtNtCs9bTl5rSDVcL_10proc_macro6bridge6client5state3setINtNtCs85QQFkKrybG_4core6option6OptionNtB4_11TokenStreamENCNCINvB4_10run_clientTB1y_B1y_EBW_NCNCINvMs7_B4_INtB4_6ClientTNtB8_11TokenStreamB2S_EB2S_E7expand2NvCsjbkLYW2JGv0_18wasm_bindgen_macro12wasm_bindgenE00E00EB3u_, symObjAddr: 0x1048, symBinAddr: 0x1CB0, symSize: 0xEC }
  - { offset: 0x59E2, size: 0x8, addend: 0x0, symName: __RINvNtNtNtCs9bTl5rSDVcL_10proc_macro6bridge6client5state3setINtNtCs85QQFkKrybG_4core6option6OptionNtB4_11TokenStreamENCNCINvB4_10run_clientTB1y_B1y_EBW_NCNCINvMs7_B4_INtB4_6ClientTNtB8_11TokenStreamB2S_EB2S_E7expand2NvCsjbkLYW2JGv0_18wasm_bindgen_macro27___wasm_bindgen_class_markerE00E00EB3u_, symObjAddr: 0x1134, symBinAddr: 0x1D9C, symSize: 0xEC }
  - { offset: 0x5AC2, size: 0x8, addend: 0x0, symName: __RNCNkNvNtNtNtCs9bTl5rSDVcL_10proc_macro6bridge6client5state12BRIDGE_STATE0s_0CsjbkLYW2JGv0_18wasm_bindgen_macro, symObjAddr: 0x2580, symBinAddr: 0x31E8, symSize: 0x30 }
  - { offset: 0x5B1E, size: 0x8, addend: 0x0, symName: __RNvXsf_NtNtCs9bTl5rSDVcL_10proc_macro6bridge6clientNtB5_11TokenStreamINtNtB7_3rpc6EncodeuE6encodeCsjbkLYW2JGv0_18wasm_bindgen_macro, symObjAddr: 0x3E9C, symBinAddr: 0x4B00, symSize: 0x50 }
  - { offset: 0x5C2F, size: 0x8, addend: 0x0, symName: __RNvXsi_NtNtCs9bTl5rSDVcL_10proc_macro6bridge6clientNtB5_11TokenStreamINtNtB7_3rpc9DecodeMutuE6decodeCsjbkLYW2JGv0_18wasm_bindgen_macro, symObjAddr: 0x3EEC, symBinAddr: 0x4B50, symSize: 0x2C }
  - { offset: 0x5C78, size: 0x8, addend: 0x0, symName: __RNvXsk_NtNtCs9bTl5rSDVcL_10proc_macro6bridge6clientNtB5_4SpanINtNtB7_3rpc9DecodeMutuE6decodeCsjbkLYW2JGv0_18wasm_bindgen_macro, symObjAddr: 0x3F18, symBinAddr: 0x4B7C, symSize: 0x2C }
  - { offset: 0x5F2C, size: 0x8, addend: 0x0, symName: __RNvXs5_NtNtCs9bTl5rSDVcL_10proc_macro6bridge6bufferNtB5_6BufferNtNtNtCs85QQFkKrybG_4core3ops4drop4Drop4dropCsjbkLYW2JGv0_18wasm_bindgen_macro, symObjAddr: 0x3730, symBinAddr: 0x4394, symSize: 0x8C }
  - { offset: 0x6147, size: 0x8, addend: 0x0, symName: __RNvXNtNtCs9bTl5rSDVcL_10proc_macro6bridge3rpcuINtB2_6EncodeuE6encodeCsjbkLYW2JGv0_18wasm_bindgen_macro, symObjAddr: 0x366C, symBinAddr: 0x42D0, symSize: 0x14 }
  - { offset: 0x618E, size: 0x8, addend: 0x0, symName: __RNvXs7_NtNtCs9bTl5rSDVcL_10proc_macro6bridge3rpcINtNtNtCs85QQFkKrybG_4core3num7nonzero7NonZeromEINtB5_9DecodeMutuE6decodeCsjbkLYW2JGv0_18wasm_bindgen_macro, symObjAddr: 0x37BC, symBinAddr: 0x4420, symSize: 0x5C }
  - { offset: 0x6209, size: 0x8, addend: 0x0, symName: __RNvXs9_NtNtCs9bTl5rSDVcL_10proc_macro6bridge3rpcTINtB7_11ExpnGlobalsNtNtB7_6client4SpanENtB16_11TokenStreamEINtB5_9DecodeMutuE6decodeCsjbkLYW2JGv0_18wasm_bindgen_macro, symObjAddr: 0x3818, symBinAddr: 0x447C, symSize: 0x84 }
  - { offset: 0x625E, size: 0x8, addend: 0x0, symName: __RNvXs9_NtNtCs9bTl5rSDVcL_10proc_macro6bridge3rpcTINtB7_11ExpnGlobalsNtNtB7_6client4SpanETNtB16_11TokenStreamB1p_EEINtB5_9DecodeMutuE6decodeCsjbkLYW2JGv0_18wasm_bindgen_macro, symObjAddr: 0x389C, symBinAddr: 0x4500, symSize: 0x90 }
  - { offset: 0x62B3, size: 0x8, addend: 0x0, symName: __RNvXs9_NtNtCs9bTl5rSDVcL_10proc_macro6bridge3rpcTNtNtB7_6client11TokenStreamBL_EINtB5_9DecodeMutuE6decodeCsjbkLYW2JGv0_18wasm_bindgen_macro, symObjAddr: 0x392C, symBinAddr: 0x4590, symSize: 0x80 }
  - { offset: 0x63FA, size: 0x8, addend: 0x0, symName: __RNvXsa_NtNtCs9bTl5rSDVcL_10proc_macro6bridge3rpcRShINtB5_6EncodeuE6encodeCsjbkLYW2JGv0_18wasm_bindgen_macro, symObjAddr: 0x3D8C, symBinAddr: 0x49F0, symSize: 0xD8 }
  - { offset: 0x6500, size: 0x8, addend: 0x0, symName: __RNvXsc_NtNtCs9bTl5rSDVcL_10proc_macro6bridge3rpcReINtB5_6EncodeuE6encodeCsjbkLYW2JGv0_18wasm_bindgen_macro, symObjAddr: 0x3E64, symBinAddr: 0x4AC8, symSize: 0x38 }
  - { offset: 0x65C2, size: 0x8, addend: 0x0, symName: __RNvXsl_NtNtCs9bTl5rSDVcL_10proc_macro6bridge3rpcNtB5_12PanicMessageINtB5_6EncodeuE6encodeCsjbkLYW2JGv0_18wasm_bindgen_macro, symObjAddr: 0x3F44, symBinAddr: 0x4BA8, symSize: 0x12C }
  - { offset: 0x6790, size: 0x8, addend: 0x0, symName: __RNvXso_NtNtCs9bTl5rSDVcL_10proc_macro6bridge3rpcmINtB5_9DecodeMutuE6decodeCsjbkLYW2JGv0_18wasm_bindgen_macro, symObjAddr: 0x4150, symBinAddr: 0x4DB4, symSize: 0xFC }
  - { offset: 0x6937, size: 0x8, addend: 0x0, symName: __RINvNvNtNtCs9bTl5rSDVcL_10proc_macro6bridge14selfless_reify31reify_to_extern_c_fn_hrt_bridge7wrapperNtNtB6_6buffer6BufferNCINvMs6_NtB6_6clientINtB24_6ClientNtB8_11TokenStreamB2u_E7expand1NvCsjbkLYW2JGv0_18wasm_bindgen_macro28___wasm_bindgen_struct_markerE0EB31_, symObjAddr: 0x1520, symBinAddr: 0x2188, symSize: 0x6C }
  - { offset: 0x69CE, size: 0x8, addend: 0x0, symName: __RINvNvNtNtCs9bTl5rSDVcL_10proc_macro6bridge14selfless_reify31reify_to_extern_c_fn_hrt_bridge7wrapperNtNtB6_6buffer6BufferNCINvMs6_NtB6_6clientINtB24_6ClientNtB8_11TokenStreamB2u_E7expand1NvCsjbkLYW2JGv0_18wasm_bindgen_macro7link_toE0EB31_, symObjAddr: 0x158C, symBinAddr: 0x21F4, symSize: 0x6C }
  - { offset: 0x6A65, size: 0x8, addend: 0x0, symName: __RINvNvNtNtCs9bTl5rSDVcL_10proc_macro6bridge14selfless_reify31reify_to_extern_c_fn_hrt_bridge7wrapperNtNtB6_6buffer6BufferNCINvMs7_NtB6_6clientINtB24_6ClientTNtB8_11TokenStreamB2v_EB2v_E7expand2NvCsjbkLYW2JGv0_18wasm_bindgen_macro12wasm_bindgenE0EB37_, symObjAddr: 0x15F8, symBinAddr: 0x2260, symSize: 0x6C }
  - { offset: 0x6AFC, size: 0x8, addend: 0x0, symName: __RINvNvNtNtCs9bTl5rSDVcL_10proc_macro6bridge14selfless_reify31reify_to_extern_c_fn_hrt_bridge7wrapperNtNtB6_6buffer6BufferNCINvMs7_NtB6_6clientINtB24_6ClientTNtB8_11TokenStreamB2v_EB2v_E7expand2NvCsjbkLYW2JGv0_18wasm_bindgen_macro27___wasm_bindgen_class_markerE0EB37_, symObjAddr: 0x1664, symBinAddr: 0x22CC, symSize: 0x6C }
  - { offset: 0x6B9A, size: 0x8, addend: 0x0, symName: __RNvXs1J_NtCs9bTl5rSDVcL_10proc_macro6bridgeINtB6_11ExpnGlobalsNtNtB6_6client4SpanEINtNtB6_3rpc9DecodeMutuE6decodeCsjbkLYW2JGv0_18wasm_bindgen_macro, symObjAddr: 0x3680, symBinAddr: 0x42E4, symSize: 0xB0 }
  - { offset: 0x6BEC, size: 0x8, addend: 0x0, symName: __RNvXsR_NtCs9bTl5rSDVcL_10proc_macro6bridgeINtNtCs85QQFkKrybG_4core6option6OptionNtNtB5_6client11TokenStreamEINtNtB5_3rpc6EncodeuE6encodeCsjbkLYW2JGv0_18wasm_bindgen_macro, symObjAddr: 0x39AC, symBinAddr: 0x4610, symSize: 0xCC }
  - { offset: 0x6C92, size: 0x8, addend: 0x0, symName: __RNvXsR_NtCs9bTl5rSDVcL_10proc_macro6bridgeINtNtCs85QQFkKrybG_4core6option6OptionReEINtNtB5_3rpc6EncodeuE6encodeCsjbkLYW2JGv0_18wasm_bindgen_macro, symObjAddr: 0x3A78, symBinAddr: 0x46DC, symSize: 0xD8 }
  - { offset: 0x6D3E, size: 0x8, addend: 0x0, symName: __RNvXsV_NtCs9bTl5rSDVcL_10proc_macro6bridgeINtNtCs85QQFkKrybG_4core6result6ResultINtNtBJ_6option6OptionNtNtB5_6client11TokenStreamEuEINtNtB5_3rpc6EncodeuE6encodeCsjbkLYW2JGv0_18wasm_bindgen_macro, symObjAddr: 0x3B50, symBinAddr: 0x47B4, symSize: 0x110 }
  - { offset: 0x6E02, size: 0x8, addend: 0x0, symName: __RNvXsV_NtCs9bTl5rSDVcL_10proc_macro6bridgeINtNtCs85QQFkKrybG_4core6result6ResultuNtNtB5_3rpc12PanicMessageEINtB1j_6EncodeuE6encodeCsjbkLYW2JGv0_18wasm_bindgen_macro, symObjAddr: 0x3C60, symBinAddr: 0x48C4, symSize: 0x12C }
  - { offset: 0x788D, size: 0x8, addend: 0x0, symName: __RINvMs2_NtNtCswz7ZwgBZOU_3std6thread5localINtB6_8LocalKeyINtNtCs85QQFkKrybG_4core4cell4CellPuEE4withNCNvMs3_B6_BE_7replace0B1r_ECsjbkLYW2JGv0_18wasm_bindgen_macro, symObjAddr: 0x0, symBinAddr: 0xC68, symSize: 0x54 }
  - { offset: 0x7946, size: 0x8, addend: 0x0, symName: __RINvMs2_NtNtCswz7ZwgBZOU_3std6thread5localINtB6_8LocalKeyINtNtCs85QQFkKrybG_4core4cell4CellPuEE8try_withNCNvMs3_B6_BE_7replace0B1r_ECsjbkLYW2JGv0_18wasm_bindgen_macro, symObjAddr: 0x54, symBinAddr: 0xCBC, symSize: 0xE4 }
  - { offset: 0x7AEB, size: 0x8, addend: 0x0, symName: __RINvMs3_NtNtCs9bTl5rSDVcL_10proc_macro6bridge6bufferNtB6_6Buffer17extend_from_arrayKj4_ECsjbkLYW2JGv0_18wasm_bindgen_macro, symObjAddr: 0x138, symBinAddr: 0xDA0, symSize: 0x16C }
  - { offset: 0x7C73, size: 0x8, addend: 0x0, symName: __RINvMs3_NtNtCs9bTl5rSDVcL_10proc_macro6bridge6bufferNtB6_6Buffer17extend_from_arrayKj8_ECsjbkLYW2JGv0_18wasm_bindgen_macro, symObjAddr: 0x2A4, symBinAddr: 0xF0C, symSize: 0x16C }
  - { offset: 0x8AB7, size: 0x8, addend: 0x0, symName: __RNvMs3_NtNtCs9bTl5rSDVcL_10proc_macro6bridge6bufferNtB5_6Buffer17extend_from_sliceCsjbkLYW2JGv0_18wasm_bindgen_macro, symObjAddr: 0x2F8C, symBinAddr: 0x3BF4, symSize: 0x164 }
  - { offset: 0x8C35, size: 0x8, addend: 0x0, symName: __RNvMs3_NtNtCs9bTl5rSDVcL_10proc_macro6bridge6bufferNtB5_6Buffer4pushCsjbkLYW2JGv0_18wasm_bindgen_macro, symObjAddr: 0x30F0, symBinAddr: 0x3D58, symSize: 0x134 }
  - { offset: 0x9326, size: 0x8, addend: 0x0, symName: __RINvXs0_NtCslvhnBjKo0yW_26wasm_bindgen_macro_support3astNtB6_12ImportModuleNtNtCs85QQFkKrybG_4core4hash4Hash4hashNtNtNtCswz7ZwgBZOU_3std4hash6random13DefaultHasherEB8_, symObjAddr: 0x0, symBinAddr: 0x5020, symSize: 0x10C }
  - { offset: 0x11181, size: 0x8, addend: 0x0, symName: __RINvXs3_NtNtCs85QQFkKrybG_4core4hash5implsRNtNtCslvhnBjKo0yW_26wasm_bindgen_macro_support3ast12ImportModuleNtB8_4Hash4hashNtNtNtCswz7ZwgBZOU_3std4hash6random13DefaultHasherEBJ_, symObjAddr: 0x10C, symBinAddr: 0x512C, symSize: 0x30 }
  - { offset: 0x111D2, size: 0x8, addend: 0x0, symName: __RINvXsl_NtNtCs85QQFkKrybG_4core4hash5implsTlRNtNtCslvhnBjKo0yW_26wasm_bindgen_macro_support3ast12ImportModuleENtB8_4Hash4hashNtNtNtCswz7ZwgBZOU_3std4hash6random13DefaultHasherEBL_, symObjAddr: 0x13C, symBinAddr: 0x515C, symSize: 0x4C }
  - { offset: 0x11323, size: 0x8, addend: 0x0, symName: __RNvMNtCs85QQFkKrybG_4core5sliceSNtNtCslvhnBjKo0yW_26wasm_bindgen_macro_support3ast11StructField4iterBy_, symObjAddr: 0x188, symBinAddr: 0x51A8, symSize: 0x28 }
  - { offset: 0x1135A, size: 0x8, addend: 0x0, symName: __RNvMNtCs85QQFkKrybG_4core5sliceSNtNtCslvhnBjKo0yW_26wasm_bindgen_macro_support3ast12ImportModule4iterBy_, symObjAddr: 0x1B0, symBinAddr: 0x51D0, symSize: 0x28 }
  - { offset: 0x11391, size: 0x8, addend: 0x0, symName: __RNvMNtCs85QQFkKrybG_4core5sliceSNtNtCslvhnBjKo0yW_26wasm_bindgen_macro_support3ast20FunctionArgumentData4iterBy_, symObjAddr: 0x1D8, symBinAddr: 0x51F8, symSize: 0x28 }
  - { offset: 0x113C8, size: 0x8, addend: 0x0, symName: __RNvMNtCs85QQFkKrybG_4core5sliceSNtNtCslvhnBjKo0yW_26wasm_bindgen_macro_support3ast20FunctionArgumentData5firstBy_, symObjAddr: 0x200, symBinAddr: 0x5220, symSize: 0x44 }
  - { offset: 0x11412, size: 0x8, addend: 0x0, symName: __RNvMNtCs85QQFkKrybG_4core5sliceSNtNtCslvhnBjKo0yW_26wasm_bindgen_macro_support3ast4Enum4iterBy_, symObjAddr: 0x244, symBinAddr: 0x5264, symSize: 0x28 }
  - { offset: 0x11449, size: 0x8, addend: 0x0, symName: __RNvMNtCs85QQFkKrybG_4core5sliceSNtNtCslvhnBjKo0yW_26wasm_bindgen_macro_support3ast6Export4iterBy_, symObjAddr: 0x26C, symBinAddr: 0x528C, symSize: 0x28 }
  - { offset: 0x11480, size: 0x8, addend: 0x0, symName: __RNvMNtCs85QQFkKrybG_4core5sliceSNtNtCslvhnBjKo0yW_26wasm_bindgen_macro_support3ast6Import4iterBy_, symObjAddr: 0x294, symBinAddr: 0x52B4, symSize: 0x28 }
  - { offset: 0x114B7, size: 0x8, addend: 0x0, symName: __RNvMNtCs85QQFkKrybG_4core5sliceSNtNtCslvhnBjKo0yW_26wasm_bindgen_macro_support3ast6Struct4iterBy_, symObjAddr: 0x2BC, symBinAddr: 0x52DC, symSize: 0x28 }
  - { offset: 0x114EE, size: 0x8, addend: 0x0, symName: __RNvMNtCs85QQFkKrybG_4core5sliceSNtNtCslvhnBjKo0yW_26wasm_bindgen_macro_support3ast7Variant4iterBy_, symObjAddr: 0x2E4, symBinAddr: 0x5304, symSize: 0x28 }
  - { offset: 0x11525, size: 0x8, addend: 0x0, symName: __RNvMNtCs85QQFkKrybG_4core5sliceSNtNtCslvhnBjKo0yW_26wasm_bindgen_macro_support3ast9LitOrExpr4iterBy_, symObjAddr: 0x30C, symBinAddr: 0x532C, symSize: 0x28 }
  - { offset: 0x13801, size: 0x8, addend: 0x0, symName: __RINvXs0_NtCslvhnBjKo0yW_26wasm_bindgen_macro_support3astNtB6_12ImportModuleNtNtCs85QQFkKrybG_4core4hash4Hash4hashNtNtNtCswz7ZwgBZOU_3std4hash6random13DefaultHasherEB8_, symObjAddr: 0x0, symBinAddr: 0x5020, symSize: 0x10C }
  - { offset: 0x142C5, size: 0x8, addend: 0x0, symName: __RNvXNtCslvhnBjKo0yW_26wasm_bindgen_macro_support3astNtB2_7ProgramNtNtCs85QQFkKrybG_4core7default7Default7default, symObjAddr: 0xAB8, symBinAddr: 0x5AD8, symSize: 0x398 }
  - { offset: 0x1432A, size: 0x8, addend: 0x0, symName: __RNvXsa_NtCslvhnBjKo0yW_26wasm_bindgen_macro_support3astNtB5_12ImportModuleNtNtCs85QQFkKrybG_4core5clone5Clone5cloneB7_, symObjAddr: 0x2A6D0, symBinAddr: 0x2F6F0, symSize: 0x178 }
  - { offset: 0x14490, size: 0x8, addend: 0x0, symName: __RNvXNtCslvhnBjKo0yW_26wasm_bindgen_macro_support7codegenNtNtB4_3ast7ProgramNtB2_11TryToTokens13try_to_tokens, symObjAddr: 0xE50, symBinAddr: 0x5E70, symSize: 0x2B84 }
  - { offset: 0x14CAB, size: 0x8, addend: 0x0, symName: __RNvXs0_NtCslvhnBjKo0yW_26wasm_bindgen_macro_support7codegenNtNtB7_3ast6StructNtNtCshi3DZH3dfhk_5quote9to_tokens8ToTokens9to_tokens, symObjAddr: 0x39D4, symBinAddr: 0x89F4, symSize: 0x9ED8 }
  - { offset: 0x15C5E, size: 0x8, addend: 0x0, symName: __RNvXs1_NtCslvhnBjKo0yW_26wasm_bindgen_macro_support7codegenNtNtB7_3ast11StructFieldNtNtCshi3DZH3dfhk_5quote9to_tokens8ToTokens9to_tokens, symObjAddr: 0xD8AC, symBinAddr: 0x128CC, symSize: 0x2898 }
  - { offset: 0x1632E, size: 0x8, addend: 0x0, symName: __RNvXs2_NtCslvhnBjKo0yW_26wasm_bindgen_macro_support7codegenNtNtB7_3ast6ExportNtB5_11TryToTokens13try_to_tokens, symObjAddr: 0x10144, symBinAddr: 0x15164, symSize: 0x7314 }
  - { offset: 0x177C9, size: 0x8, addend: 0x0, symName: __RNvXs3_NtCslvhnBjKo0yW_26wasm_bindgen_macro_support7codegenNtNtB7_3ast10ImportKindNtB5_11TryToTokens13try_to_tokens, symObjAddr: 0x17458, symBinAddr: 0x1C478, symSize: 0x1FC }
  - { offset: 0x178B3, size: 0x8, addend: 0x0, symName: __RNvXs4_NtCslvhnBjKo0yW_26wasm_bindgen_macro_support7codegenNtNtB7_3ast10ImportTypeNtNtCshi3DZH3dfhk_5quote9to_tokens8ToTokens9to_tokens, symObjAddr: 0x17654, symBinAddr: 0x1C674, symSize: 0x7710 }
  - { offset: 0x1885D, size: 0x8, addend: 0x0, symName: __RNvXs5_NtCslvhnBjKo0yW_26wasm_bindgen_macro_support7codegenNtNtB7_3ast10StringEnumNtNtCshi3DZH3dfhk_5quote9to_tokens8ToTokens9to_tokens, symObjAddr: 0x1ED64, symBinAddr: 0x23D84, symSize: 0x2F74 }
  - { offset: 0x1943C, size: 0x8, addend: 0x0, symName: __RNvXs6_NtCslvhnBjKo0yW_26wasm_bindgen_macro_support7codegenNtNtB7_3ast14ImportFunctionNtB5_11TryToTokens13try_to_tokens, symObjAddr: 0x21CD8, symBinAddr: 0x26CF8, symSize: 0x3A28 }
  - { offset: 0x1A0AB, size: 0x8, addend: 0x0, symName: __RNvXs8_NtCslvhnBjKo0yW_26wasm_bindgen_macro_support7codegenNtNtB7_3ast4EnumNtNtCshi3DZH3dfhk_5quote9to_tokens8ToTokens9to_tokens, symObjAddr: 0x25700, symBinAddr: 0x2A720, symSize: 0x39CC }
  - { offset: 0x1A912, size: 0x8, addend: 0x0, symName: __RNvXs9_NtCslvhnBjKo0yW_26wasm_bindgen_macro_support7codegenNtNtB7_3ast12ImportStaticNtNtCshi3DZH3dfhk_5quote9to_tokens8ToTokens9to_tokens, symObjAddr: 0x290CC, symBinAddr: 0x2E0EC, symSize: 0xA98 }
  - { offset: 0x1AB50, size: 0x8, addend: 0x0, symName: __RNvXs_NtCslvhnBjKo0yW_26wasm_bindgen_macro_support7codegenNtNtB6_3ast12LinkToModuleNtB4_11TryToTokens13try_to_tokens, symObjAddr: 0x29B64, symBinAddr: 0x2EB84, symSize: 0xB6C }
  - { offset: 0x1ACD4, size: 0x8, addend: 0x0, symName: __RNvXsa_NtCslvhnBjKo0yW_26wasm_bindgen_macro_support7codegenNtNtB7_3ast12ImportStringNtNtCshi3DZH3dfhk_5quote9to_tokens8ToTokens9to_tokens, symObjAddr: 0x2A848, symBinAddr: 0x2F868, symSize: 0x17C }
  - { offset: 0x1AD57, size: 0x8, addend: 0x0, symName: __RNvYNtNtCslvhnBjKo0yW_26wasm_bindgen_macro_support3ast10ImportKindNtNtB6_7codegen11TryToTokens19try_to_token_streamB6_, symObjAddr: 0x2A9C4, symBinAddr: 0x2F9E4, symSize: 0x140 }
  - { offset: 0x1AE51, size: 0x8, addend: 0x0, symName: __RNvMs1_NtCslvhnBjKo0yW_26wasm_bindgen_macro_support3astNtB5_6Export11export_name, symObjAddr: 0x334, symBinAddr: 0x5354, symSize: 0x124 }
  - { offset: 0x1AEA0, size: 0x8, addend: 0x0, symName: __RNvMs1_NtCslvhnBjKo0yW_26wasm_bindgen_macro_support3astNtB5_6Export11rust_symbol, symObjAddr: 0x458, symBinAddr: 0x5478, symSize: 0x1D0 }
  - { offset: 0x1AEFD, size: 0x8, addend: 0x0, symName: __RNvMs2_NtCslvhnBjKo0yW_26wasm_bindgen_macro_support3astNtB5_10ImportKind12fits_on_impl, symObjAddr: 0x628, symBinAddr: 0x5648, symSize: 0xFC }
  - { offset: 0x1AF4B, size: 0x8, addend: 0x0, symName: __RNvMs3_NtCslvhnBjKo0yW_26wasm_bindgen_macro_support3astNtB5_8Function21infer_getter_property, symObjAddr: 0x724, symBinAddr: 0x5744, symSize: 0x34 }
  - { offset: 0x1B094, size: 0x8, addend: 0x0, symName: __RNvMs3_NtCslvhnBjKo0yW_26wasm_bindgen_macro_support3astNtB5_8Function21infer_setter_property, symObjAddr: 0x758, symBinAddr: 0x5778, symSize: 0x1F8 }
  - { offset: 0x1B117, size: 0x8, addend: 0x0, symName: __RNvMs_NtCslvhnBjKo0yW_26wasm_bindgen_macro_support3astNtB4_7Program18link_function_name, symObjAddr: 0x950, symBinAddr: 0x5970, symSize: 0x168 }
  - { offset: 0x1B9AE, size: 0x8, addend: 0x0, symName: __RINvMs_NtCsdFlNUEO95cG_5alloc3vecINtB5_3VecNtNtCscwCr4GBBztI_3syn4attr9AttributeE10retain_mutNCINvB2_6retainNCNvXs4_NtCslvhnBjKo0yW_26wasm_bindgen_macro_support6parserNtNtBJ_4item13ForeignItemFnINtB1Q_12ConvertToAstTRNtNtB1S_3ast7ProgramNtB1Q_12BindgenAttrsRINtNtCs85QQFkKrybG_4core6option6OptionNtB3v_12ImportModuleEEE7converts7_0E0EB1S_, symObjAddr: 0x0, symBinAddr: 0x2FB24, symSize: 0x130 }
  - { offset: 0x250BB, size: 0x8, addend: 0x0, symName: __RNvXsn_NtNtNtCs85QQFkKrybG_4core4iter8adapters7flattenINtNtCsdFlNUEO95cG_5alloc3vec3VecNtNtCslvhnBjKo0yW_26wasm_bindgen_macro_support6parser10FnArgAttrsENtB5_21ConstSizeIntoIterator4sizeB1r_, symObjAddr: 0xF2FC, symBinAddr: 0x3ED94, symSize: 0x18 }
  - { offset: 0x28EF2, size: 0x8, addend: 0x0, symName: __RNvXs7_NtCslvhnBjKo0yW_26wasm_bindgen_macro_support6encodeINtNtCsdFlNUEO95cG_5alloc3vec3VecNtB5_11EnumVariantENtB5_6Encode6encodeB7_, symObjAddr: 0xAD5C, symBinAddr: 0x3A880, symSize: 0xB0 }
  - { offset: 0x28F70, size: 0x8, addend: 0x0, symName: __RNvXs7_NtCslvhnBjKo0yW_26wasm_bindgen_macro_support6encodeINtNtCsdFlNUEO95cG_5alloc3vec3VecNtB5_11LocalModuleENtB5_6Encode6encodeB7_, symObjAddr: 0xAE0C, symBinAddr: 0x3A930, symSize: 0xB0 }
  - { offset: 0x28FEE, size: 0x8, addend: 0x0, symName: __RNvXs7_NtCslvhnBjKo0yW_26wasm_bindgen_macro_support6encodeINtNtCsdFlNUEO95cG_5alloc3vec3VecNtB5_11StructFieldENtB5_6Encode6encodeB7_, symObjAddr: 0xAEBC, symBinAddr: 0x3A9E0, symSize: 0xB0 }
  - { offset: 0x2906C, size: 0x8, addend: 0x0, symName: __RNvXs7_NtCslvhnBjKo0yW_26wasm_bindgen_macro_support6encodeINtNtCsdFlNUEO95cG_5alloc3vec3VecNtB5_12LinkedModuleENtB5_6Encode6encodeB7_, symObjAddr: 0xAF6C, symBinAddr: 0x3AA90, symSize: 0xB0 }
  - { offset: 0x290EA, size: 0x8, addend: 0x0, symName: __RNvXs7_NtCslvhnBjKo0yW_26wasm_bindgen_macro_support6encodeINtNtCsdFlNUEO95cG_5alloc3vec3VecNtB5_20FunctionArgumentDataENtB5_6Encode6encodeB7_, symObjAddr: 0xB01C, symBinAddr: 0x3AB40, symSize: 0xB0 }
  - { offset: 0x29168, size: 0x8, addend: 0x0, symName: __RNvXs7_NtCslvhnBjKo0yW_26wasm_bindgen_macro_support6encodeINtNtCsdFlNUEO95cG_5alloc3vec3VecNtB5_4EnumENtB5_6Encode6encodeB7_, symObjAddr: 0xB0CC, symBinAddr: 0x3ABF0, symSize: 0xB0 }
  - { offset: 0x291E6, size: 0x8, addend: 0x0, symName: __RNvXs7_NtCslvhnBjKo0yW_26wasm_bindgen_macro_support6encodeINtNtCsdFlNUEO95cG_5alloc3vec3VecNtB5_6ExportENtB5_6Encode6encodeB7_, symObjAddr: 0xB17C, symBinAddr: 0x3ACA0, symSize: 0xB0 }
  - { offset: 0x29264, size: 0x8, addend: 0x0, symName: __RNvXs7_NtCslvhnBjKo0yW_26wasm_bindgen_macro_support6encodeINtNtCsdFlNUEO95cG_5alloc3vec3VecNtB5_6ImportENtB5_6Encode6encodeB7_, symObjAddr: 0xB22C, symBinAddr: 0x3AD50, symSize: 0xB0 }
  - { offset: 0x292E2, size: 0x8, addend: 0x0, symName: __RNvXs7_NtCslvhnBjKo0yW_26wasm_bindgen_macro_support6encodeINtNtCsdFlNUEO95cG_5alloc3vec3VecNtB5_6StructENtB5_6Encode6encodeB7_, symObjAddr: 0xB2DC, symBinAddr: 0x3AE00, symSize: 0xB0 }
  - { offset: 0x29360, size: 0x8, addend: 0x0, symName: __RNvXs7_NtCslvhnBjKo0yW_26wasm_bindgen_macro_support6encodeINtNtCsdFlNUEO95cG_5alloc3vec3VecNtB5_9LitOrExprENtB5_6Encode6encodeB7_, symObjAddr: 0xB38C, symBinAddr: 0x3AEB0, symSize: 0xB0 }
  - { offset: 0x293DE, size: 0x8, addend: 0x0, symName: __RNvXs7_NtCslvhnBjKo0yW_26wasm_bindgen_macro_support6encodeINtNtCsdFlNUEO95cG_5alloc3vec3VecNtNtBZ_6string6StringENtB5_6Encode6encodeB7_, symObjAddr: 0xB43C, symBinAddr: 0x3AF60, symSize: 0xB0 }
  - { offset: 0x2945C, size: 0x8, addend: 0x0, symName: __RNvXs7_NtCslvhnBjKo0yW_26wasm_bindgen_macro_support6encodeINtNtCsdFlNUEO95cG_5alloc3vec3VecReENtB5_6Encode6encodeB7_, symObjAddr: 0xB4EC, symBinAddr: 0x3B010, symSize: 0xB0 }
  - { offset: 0x2A66F, size: 0x8, addend: 0x0, symName: __RINvNvMs_NtCsdFlNUEO95cG_5alloc3vecINtB7_3VecppE10retain_mut12process_loopNCINvMs_B7_IBy_NtNtCscwCr4GBBztI_3syn4attr9AttributeE6retainNCNvXs4_NtCslvhnBjKo0yW_26wasm_bindgen_macro_support6parserNtNtB1t_4item13ForeignItemFnINtB2g_12ConvertToAstTRNtNtB2i_3ast7ProgramNtB2g_12BindgenAttrsRINtNtCs85QQFkKrybG_4core6option6OptionNtB3W_12ImportModuleEEE7converts7_0E0B1p_NtNtB9_5alloc6GlobalKb0_EB2i_, symObjAddr: 0x3490, symBinAddr: 0x32FB4, symSize: 0xE0 }
  - { offset: 0x2A7C3, size: 0x8, addend: 0x0, symName: __RINvNvMs_NtCsdFlNUEO95cG_5alloc3vecINtB7_3VecppE10retain_mut12process_loopNCINvMs_B7_IBy_NtNtCscwCr4GBBztI_3syn4attr9AttributeE6retainNCNvXs4_NtCslvhnBjKo0yW_26wasm_bindgen_macro_support6parserNtNtB1t_4item13ForeignItemFnINtB2g_12ConvertToAstTRNtNtB2i_3ast7ProgramNtB2g_12BindgenAttrsRINtNtCs85QQFkKrybG_4core6option6OptionNtB3W_12ImportModuleEEE7converts7_0E0B1p_NtNtB9_5alloc6GlobalKb1_EB2i_, symObjAddr: 0x3570, symBinAddr: 0x33094, symSize: 0x15C }
  - { offset: 0x2A9B7, size: 0x8, addend: 0x0, symName: __RNvXNvMs_NtCsdFlNUEO95cG_5alloc3vecINtB7_3VecppE10retain_mutINtB2_15BackshiftOnDropNtNtCscwCr4GBBztI_3syn4attr9AttributeNtNtB9_5alloc6GlobalENtNtNtCs85QQFkKrybG_4core3ops4drop4Drop4dropCslvhnBjKo0yW_26wasm_bindgen_macro_support, symObjAddr: 0xA518, symBinAddr: 0x3A03C, symSize: 0x184 }
  - { offset: 0x2AC10, size: 0x8, addend: 0x0, symName: __RNCINvMs_NtCsdFlNUEO95cG_5alloc3vecINtB7_3VecNtNtCscwCr4GBBztI_3syn4attr9AttributeE6retainNCNvXs4_NtCslvhnBjKo0yW_26wasm_bindgen_macro_support6parserNtNtBL_4item13ForeignItemFnINtB1y_12ConvertToAstTRNtNtB1A_3ast7ProgramNtB1y_12BindgenAttrsRINtNtCs85QQFkKrybG_4core6option6OptionNtB3d_12ImportModuleEEE7converts7_0E0B1A_, symObjAddr: 0x3F70, symBinAddr: 0x33A94, symSize: 0x30 }
  - { offset: 0x2AC71, size: 0x8, addend: 0x0, symName: __RNvNvMs_NtCsdFlNUEO95cG_5alloc3vecINtB6_3VecppE17from_raw_parts_in18precondition_checkCslvhnBjKo0yW_26wasm_bindgen_macro_support, symObjAddr: 0x88C8, symBinAddr: 0x383EC, symSize: 0xAC }
  - { offset: 0x2ACDF, size: 0x8, addend: 0x0, symName: __RNvNvMs_NtCsdFlNUEO95cG_5alloc3vecINtB6_3VecppE7set_len18precondition_checkCslvhnBjKo0yW_26wasm_bindgen_macro_support, symObjAddr: 0x8974, symBinAddr: 0x38498, symSize: 0xAC }
  - { offset: 0x2E673, size: 0x8, addend: 0x0, symName: __RNvXs6_NtCsdFlNUEO95cG_5alloc3vecINtB5_3VecNtCsfwj6t2KTYdc_11proc_macro211TokenStreamENtNtNtCs85QQFkKrybG_4core3ops5deref5Deref5derefCslvhnBjKo0yW_26wasm_bindgen_macro_support, symObjAddr: 0xA84C, symBinAddr: 0x3A370, symSize: 0x24 }
  - { offset: 0x2E6B3, size: 0x8, addend: 0x0, symName: __RNvXs6_NtCsdFlNUEO95cG_5alloc3vecINtB5_3VecNtCsfwj6t2KTYdc_11proc_macro25IdentENtNtNtCs85QQFkKrybG_4core3ops5deref5Deref5derefCslvhnBjKo0yW_26wasm_bindgen_macro_support, symObjAddr: 0xA870, symBinAddr: 0x3A394, symSize: 0x24 }
  - { offset: 0x2E6F3, size: 0x8, addend: 0x0, symName: __RNvXs6_NtCsdFlNUEO95cG_5alloc3vecINtB5_3VecNtNtB7_6string6StringENtNtNtCs85QQFkKrybG_4core3ops5deref5Deref5derefCslvhnBjKo0yW_26wasm_bindgen_macro_support, symObjAddr: 0xA894, symBinAddr: 0x3A3B8, symSize: 0x24 }
  - { offset: 0x2E733, size: 0x8, addend: 0x0, symName: __RNvXs6_NtCsdFlNUEO95cG_5alloc3vecINtB5_3VecNtNtCscwCr4GBBztI_3syn4path4PathENtNtNtCs85QQFkKrybG_4core3ops5deref5Deref5derefCslvhnBjKo0yW_26wasm_bindgen_macro_support, symObjAddr: 0xA8B8, symBinAddr: 0x3A3DC, symSize: 0x24 }
  - { offset: 0x2E773, size: 0x8, addend: 0x0, symName: __RNvXs6_NtCsdFlNUEO95cG_5alloc3vecINtB5_3VecNtNtCslvhnBjKo0yW_26wasm_bindgen_macro_support3ast11StructFieldENtNtNtCs85QQFkKrybG_4core3ops5deref5Deref5derefBJ_, symObjAddr: 0xA8DC, symBinAddr: 0x3A400, symSize: 0x24 }
  - { offset: 0x2E7B3, size: 0x8, addend: 0x0, symName: __RNvXs6_NtCsdFlNUEO95cG_5alloc3vecINtB5_3VecNtNtCslvhnBjKo0yW_26wasm_bindgen_macro_support3ast12ImportModuleENtNtNtCs85QQFkKrybG_4core3ops5deref5Deref5derefBJ_, symObjAddr: 0xA900, symBinAddr: 0x3A424, symSize: 0x24 }
  - { offset: 0x2E7F3, size: 0x8, addend: 0x0, symName: __RNvXs6_NtCsdFlNUEO95cG_5alloc3vecINtB5_3VecNtNtCslvhnBjKo0yW_26wasm_bindgen_macro_support3ast20FunctionArgumentDataENtNtNtCs85QQFkKrybG_4core3ops5deref5Deref5derefBJ_, symObjAddr: 0xA924, symBinAddr: 0x3A448, symSize: 0x24 }
  - { offset: 0x2E833, size: 0x8, addend: 0x0, symName: __RNvXs6_NtCsdFlNUEO95cG_5alloc3vecINtB5_3VecNtNtCslvhnBjKo0yW_26wasm_bindgen_macro_support3ast4EnumENtNtNtCs85QQFkKrybG_4core3ops5deref5Deref5derefBJ_, symObjAddr: 0xA948, symBinAddr: 0x3A46C, symSize: 0x24 }
  - { offset: 0x2E873, size: 0x8, addend: 0x0, symName: __RNvXs6_NtCsdFlNUEO95cG_5alloc3vecINtB5_3VecNtNtCslvhnBjKo0yW_26wasm_bindgen_macro_support3ast6ExportENtNtNtCs85QQFkKrybG_4core3ops5deref5Deref5derefBJ_, symObjAddr: 0xA96C, symBinAddr: 0x3A490, symSize: 0x24 }
  - { offset: 0x2E8B3, size: 0x8, addend: 0x0, symName: __RNvXs6_NtCsdFlNUEO95cG_5alloc3vecINtB5_3VecNtNtCslvhnBjKo0yW_26wasm_bindgen_macro_support3ast6ImportENtNtNtCs85QQFkKrybG_4core3ops5deref5Deref5derefBJ_, symObjAddr: 0xA990, symBinAddr: 0x3A4B4, symSize: 0x24 }
  - { offset: 0x2E8F3, size: 0x8, addend: 0x0, symName: __RNvXs6_NtCsdFlNUEO95cG_5alloc3vecINtB5_3VecNtNtCslvhnBjKo0yW_26wasm_bindgen_macro_support3ast6StructENtNtNtCs85QQFkKrybG_4core3ops5deref5Deref5derefBJ_, symObjAddr: 0xA9B4, symBinAddr: 0x3A4D8, symSize: 0x24 }
  - { offset: 0x2E933, size: 0x8, addend: 0x0, symName: __RNvXs6_NtCsdFlNUEO95cG_5alloc3vecINtB5_3VecNtNtCslvhnBjKo0yW_26wasm_bindgen_macro_support3ast7VariantENtNtNtCs85QQFkKrybG_4core3ops5deref5Deref5derefBJ_, symObjAddr: 0xA9D8, symBinAddr: 0x3A4FC, symSize: 0x24 }
  - { offset: 0x2E973, size: 0x8, addend: 0x0, symName: __RNvXs6_NtCsdFlNUEO95cG_5alloc3vecINtB5_3VecNtNtCslvhnBjKo0yW_26wasm_bindgen_macro_support3ast9LitOrExprENtNtNtCs85QQFkKrybG_4core3ops5deref5Deref5derefBJ_, symObjAddr: 0xA9FC, symBinAddr: 0x3A520, symSize: 0x24 }
  - { offset: 0x2E9B3, size: 0x8, addend: 0x0, symName: __RNvXs6_NtCsdFlNUEO95cG_5alloc3vecINtB5_3VecNtNtCslvhnBjKo0yW_26wasm_bindgen_macro_support6encode11EncodeChunkENtNtNtCs85QQFkKrybG_4core3ops5deref5Deref5derefBJ_, symObjAddr: 0xAA20, symBinAddr: 0x3A544, symSize: 0x24 }
  - { offset: 0x2E9F3, size: 0x8, addend: 0x0, symName: __RNvXs6_NtCsdFlNUEO95cG_5alloc3vecINtB5_3VecNtNtCslvhnBjKo0yW_26wasm_bindgen_macro_support6parser11UnusedStateENtNtNtCs85QQFkKrybG_4core3ops5deref5Deref5derefBJ_, symObjAddr: 0xAA44, symBinAddr: 0x3A568, symSize: 0x24 }
  - { offset: 0x2EA33, size: 0x8, addend: 0x0, symName: __RNvXs6_NtCsdFlNUEO95cG_5alloc3vecINtB5_3VecNtNtCswz7ZwgBZOU_3std4path7PathBufENtNtNtCs85QQFkKrybG_4core3ops5deref5Deref5derefCslvhnBjKo0yW_26wasm_bindgen_macro_support, symObjAddr: 0xAA68, symBinAddr: 0x3A58C, symSize: 0x24 }
  - { offset: 0x2EA73, size: 0x8, addend: 0x0, symName: __RNvXs6_NtCsdFlNUEO95cG_5alloc3vecINtB5_3VecRNtNtCscwCr4GBBztI_3syn2ty4TypeENtNtNtCs85QQFkKrybG_4core3ops5deref5Deref5derefCslvhnBjKo0yW_26wasm_bindgen_macro_support, symObjAddr: 0xAA8C, symBinAddr: 0x3A5B0, symSize: 0x24 }
  - { offset: 0x2EAB3, size: 0x8, addend: 0x0, symName: __RNvXs6_NtCsdFlNUEO95cG_5alloc3vecINtB5_3VecTINtNtCs85QQFkKrybG_4core4cell4CellbENtNtCslvhnBjKo0yW_26wasm_bindgen_macro_support6parser11BindgenAttrEENtNtNtBL_3ops5deref5Deref5derefB1k_, symObjAddr: 0xAAB0, symBinAddr: 0x3A5D4, symSize: 0x24 }
  - { offset: 0x2EAF3, size: 0x8, addend: 0x0, symName: __RNvXs6_NtCsdFlNUEO95cG_5alloc3vecINtB5_3VecmENtNtNtCs85QQFkKrybG_4core3ops5deref5Deref5derefCslvhnBjKo0yW_26wasm_bindgen_macro_support, symObjAddr: 0xAAD4, symBinAddr: 0x3A5F8, symSize: 0x24 }
  - { offset: 0x2EF59, size: 0x8, addend: 0x0, symName: __RINvXsa_NtCsdFlNUEO95cG_5alloc3vecINtB6_3VecNtNtB8_6string6StringENtNtCs85QQFkKrybG_4core4hash4Hash4hashNtNtNtCswz7ZwgBZOU_3std4hash6random13DefaultHasherECslvhnBjKo0yW_26wasm_bindgen_macro_support, symObjAddr: 0x36CC, symBinAddr: 0x331F0, symSize: 0x94 }
  - { offset: 0x2F0DD, size: 0x8, addend: 0x0, symName: __RINvXsd_NtCsdFlNUEO95cG_5alloc3vecINtB6_3VecNtCsfwj6t2KTYdc_11proc_macro211TokenStreamEINtNtNtNtCs85QQFkKrybG_4core4iter6traits7collect12FromIteratorBG_E9from_iterINtNtNtB1u_8adapters3map3MapINtNtNtB1w_5slice4iter4IterNtBI_5IdentENCNvXs5_NtCslvhnBjKo0yW_26wasm_bindgen_macro_support7codegenNtNtB3Q_3ast10StringEnumNtNtCshi3DZH3dfhk_5quote9to_tokens8ToTokens9to_tokens0EEB3Q_, symObjAddr: 0x3760, symBinAddr: 0x33284, symSize: 0x3C }
  - { offset: 0x2F11E, size: 0x8, addend: 0x0, symName: __RINvXsd_NtCsdFlNUEO95cG_5alloc3vecINtB6_3VecNtCsfwj6t2KTYdc_11proc_macro211TokenStreamEINtNtNtNtCs85QQFkKrybG_4core4iter6traits7collect12FromIteratorBG_E9from_iterINtNtNtB1u_8adapters3map3MapINtNtNtB1w_5slice4iter4IterNtNtCslvhnBjKo0yW_26wasm_bindgen_macro_support6encode11EncodeChunkENCNvXNtB3y_7codegenNtNtB3y_3ast7ProgramNtB4E_11TryToTokens13try_to_tokenss_0EEB3y_, symObjAddr: 0x379C, symBinAddr: 0x332C0, symSize: 0x3C }
  - { offset: 0x2F15F, size: 0x8, addend: 0x0, symName: __RINvXsd_NtCsdFlNUEO95cG_5alloc3vecINtB6_3VecNtNtCslvhnBjKo0yW_26wasm_bindgen_macro_support3ast20FunctionArgumentDataEINtNtNtNtCs85QQFkKrybG_4core4iter6traits7collect12FromIteratorBG_E9from_iterINtNtNtB1Y_8adapters3map3MapINtNtB3a_3zip3ZipINtNtB6_9into_iter8IntoIterNtNtCscwCr4GBBztI_3syn3pat7PatTypeEINtNtB3a_5chain5ChainINtNtB3a_7flatten7FlattenINtNtB20_6option8IntoIterIBx_NtNtBK_6parser10FnArgAttrsEEEINtNtNtB1Y_7sources6repeat6RepeatB61_EEENCNvB63_18function_from_decls2_0EEBK_, symObjAddr: 0x37D8, symBinAddr: 0x332FC, symSize: 0x44 }
  - { offset: 0x2F1A0, size: 0x8, addend: 0x0, symName: __RINvXsd_NtCsdFlNUEO95cG_5alloc3vecINtB6_3VecNtNtCslvhnBjKo0yW_26wasm_bindgen_macro_support3ast7VariantEINtNtNtNtCs85QQFkKrybG_4core4iter6traits7collect12FromIteratorBG_E9from_iterINtNtB1K_8adapters12GenericShuntINtNtB2U_3map3MapINtNtCscwCr4GBBztI_3syn10punctuated4IterNtNtB3J_4data7VariantENCNvXsd_NtBK_6parserNtNtB3J_4item8ItemEnumINtB4M_10MacroParseTQNtCsfwj6t2KTYdc_11proc_macro211TokenStreamNtB4M_12BindgenAttrsEE11macro_parses3_0EINtNtB1M_6result6ResultNtNtB1M_7convert10InfallibleNtNtBK_5error10DiagnosticEEEBK_, symObjAddr: 0x381C, symBinAddr: 0x33340, symSize: 0x3C }
  - { offset: 0x2F1E1, size: 0x8, addend: 0x0, symName: __RINvXsd_NtCsdFlNUEO95cG_5alloc3vecINtB6_3VecNtNtCslvhnBjKo0yW_26wasm_bindgen_macro_support6encode11EnumVariantEINtNtNtNtCs85QQFkKrybG_4core4iter6traits7collect12FromIteratorBG_E9from_iterINtNtNtB1S_8adapters3map3MapINtNtNtB1U_5slice4iter4IterNtNtBK_3ast7VariantENCNvBI_11shared_enum0EEBK_, symObjAddr: 0x3858, symBinAddr: 0x3337C, symSize: 0x3C }
  - { offset: 0x2F222, size: 0x8, addend: 0x0, symName: __RINvXsd_NtCsdFlNUEO95cG_5alloc3vecINtB6_3VecNtNtCslvhnBjKo0yW_26wasm_bindgen_macro_support6encode11LocalModuleEINtNtNtNtCs85QQFkKrybG_4core4iter6traits7collect12FromIteratorBG_E9from_iterINtNtB1S_8adapters12GenericShuntINtNtB32_3map3MapINtNtNtNtCswz7ZwgBZOU_3std11collections4hash3map6ValuesNtNtB8_6string6StringNtBI_9LocalFileENCNvBI_14shared_programs4_0EINtNtB1U_6result6ResultNtNtB1U_7convert10InfallibleNtNtBK_5error10DiagnosticEEEBK_, symObjAddr: 0x3894, symBinAddr: 0x333B8, symSize: 0x3C }
  - { offset: 0x2F263, size: 0x8, addend: 0x0, symName: __RINvXsd_NtCsdFlNUEO95cG_5alloc3vecINtB6_3VecNtNtCslvhnBjKo0yW_26wasm_bindgen_macro_support6encode11StructFieldEINtNtNtNtCs85QQFkKrybG_4core4iter6traits7collect12FromIteratorBG_E9from_iterINtNtNtB1S_8adapters3map3MapINtNtNtB1U_5slice4iter4IterNtNtBK_3ast11StructFieldENCNvBI_13shared_struct0EEBK_, symObjAddr: 0x38D0, symBinAddr: 0x333F4, symSize: 0x3C }
  - { offset: 0x2F2A4, size: 0x8, addend: 0x0, symName: __RINvXsd_NtCsdFlNUEO95cG_5alloc3vecINtB6_3VecNtNtCslvhnBjKo0yW_26wasm_bindgen_macro_support6encode12LinkedModuleEINtNtNtNtCs85QQFkKrybG_4core4iter6traits7collect12FromIteratorBG_E9from_iterINtNtB1T_8adapters12GenericShuntINtNtB33_3map3MapINtNtB33_9enumerate9EnumerateINtNtNtB1V_5slice4iter4IterNtNtBK_3ast12ImportModuleEENCNvBI_14shared_programs3_0EINtNtB1V_6result6ResultNtNtB1V_7convert10InfallibleNtNtBK_5error10DiagnosticEEEBK_, symObjAddr: 0x390C, symBinAddr: 0x33430, symSize: 0x3C }
  - { offset: 0x2F2E5, size: 0x8, addend: 0x0, symName: __RINvXsd_NtCsdFlNUEO95cG_5alloc3vecINtB6_3VecNtNtCslvhnBjKo0yW_26wasm_bindgen_macro_support6encode20FunctionArgumentDataEINtNtNtNtCs85QQFkKrybG_4core4iter6traits7collect12FromIteratorBG_E9from_iterINtNtNtB21_8adapters3map3MapINtNtB3d_9enumerate9EnumerateINtNtNtB23_5slice4iter4IterNtNtBK_3ast20FunctionArgumentDataEENCNvBI_15shared_function0EEBK_, symObjAddr: 0x3948, symBinAddr: 0x3346C, symSize: 0x3C }
  - { offset: 0x2F326, size: 0x8, addend: 0x0, symName: __RINvXsd_NtCsdFlNUEO95cG_5alloc3vecINtB6_3VecNtNtCslvhnBjKo0yW_26wasm_bindgen_macro_support6encode4EnumEINtNtNtNtCs85QQFkKrybG_4core4iter6traits7collect12FromIteratorBG_E9from_iterINtNtNtB1K_8adapters3map3MapINtNtNtB1M_5slice4iter4IterNtNtBK_3ast4EnumENCNvBI_14shared_programs0_0EEBK_, symObjAddr: 0x3984, symBinAddr: 0x334A8, symSize: 0x3C }
  - { offset: 0x2F367, size: 0x8, addend: 0x0, symName: __RINvXsd_NtCsdFlNUEO95cG_5alloc3vecINtB6_3VecNtNtCslvhnBjKo0yW_26wasm_bindgen_macro_support6encode6ExportEINtNtNtNtCs85QQFkKrybG_4core4iter6traits7collect12FromIteratorBG_E9from_iterINtNtB1M_8adapters12GenericShuntINtNtB2W_3map3MapINtNtNtB1O_5slice4iter4IterNtNtBK_3ast6ExportENCNvBI_14shared_program0EINtNtB1O_6result6ResultNtNtB1O_7convert10InfallibleNtNtBK_5error10DiagnosticEEEBK_, symObjAddr: 0x39C0, symBinAddr: 0x334E4, symSize: 0x3C }
  - { offset: 0x2F3A8, size: 0x8, addend: 0x0, symName: __RINvXsd_NtCsdFlNUEO95cG_5alloc3vecINtB6_3VecNtNtCslvhnBjKo0yW_26wasm_bindgen_macro_support6encode6ImportEINtNtNtNtCs85QQFkKrybG_4core4iter6traits7collect12FromIteratorBG_E9from_iterINtNtB1M_8adapters12GenericShuntINtNtB2W_3map3MapINtNtNtB1O_5slice4iter4IterNtNtBK_3ast6ImportENCNvBI_14shared_programs1_0EINtNtB1O_6result6ResultNtNtB1O_7convert10InfallibleNtNtBK_5error10DiagnosticEEEBK_, symObjAddr: 0x39FC, symBinAddr: 0x33520, symSize: 0x3C }
  - { offset: 0x2F3E9, size: 0x8, addend: 0x0, symName: __RINvXsd_NtCsdFlNUEO95cG_5alloc3vecINtB6_3VecNtNtCslvhnBjKo0yW_26wasm_bindgen_macro_support6encode6StructEINtNtNtNtCs85QQFkKrybG_4core4iter6traits7collect12FromIteratorBG_E9from_iterINtNtNtB1M_8adapters3map3MapINtNtNtB1O_5slice4iter4IterNtNtBK_3ast6StructENCNvBI_14shared_programs_0EEBK_, symObjAddr: 0x3A38, symBinAddr: 0x3355C, symSize: 0x3C }
  - { offset: 0x2F42A, size: 0x8, addend: 0x0, symName: __RINvXsd_NtCsdFlNUEO95cG_5alloc3vecINtB6_3VecNtNtCslvhnBjKo0yW_26wasm_bindgen_macro_support6encode9LitOrExprEINtNtNtNtCs85QQFkKrybG_4core4iter6traits7collect12FromIteratorBG_E9from_iterINtNtNtB1P_8adapters3map3MapINtNtNtB1R_5slice4iter4IterNtNtBK_3ast9LitOrExprENCNvBI_14shared_programs2_0EEBK_, symObjAddr: 0x3A74, symBinAddr: 0x33598, symSize: 0x3C }
  - { offset: 0x2F46B, size: 0x8, addend: 0x0, symName: __RINvXsd_NtCsdFlNUEO95cG_5alloc3vecINtB6_3VecNtNtCswz7ZwgBZOU_3std4path7PathBufEINtNtNtNtCs85QQFkKrybG_4core4iter6traits7collect12FromIteratorBG_E9from_iterINtNtNtB1m_8adapters6cloned6ClonedINtNtB2y_3map3MapINtNtNtNtBK_11collections4hash3map6ValuesNtNtB8_6string6StringNtNtCslvhnBjKo0yW_26wasm_bindgen_macro_support6encode9LocalFileENCNvB4k_6encode0EEEB4m_, symObjAddr: 0x3AB0, symBinAddr: 0x335D4, symSize: 0x3C }
  - { offset: 0x2F4AC, size: 0x8, addend: 0x0, symName: __RINvXsd_NtCsdFlNUEO95cG_5alloc3vecINtB6_3VecReEINtNtNtNtCs85QQFkKrybG_4core4iter6traits7collect12FromIteratorBG_E9from_iterINtNtNtBQ_8adapters3map3MapINtNtNtBS_5slice4iter4IterNtCsfwj6t2KTYdc_11proc_macro25IdentENCNvNtCslvhnBjKo0yW_26wasm_bindgen_macro_support6encode18shared_import_type0EEB3u_, symObjAddr: 0x3AEC, symBinAddr: 0x33610, symSize: 0x3C }
  - { offset: 0x2F4ED, size: 0x8, addend: 0x0, symName: __RINvXsd_NtCsdFlNUEO95cG_5alloc3vecINtB6_3VecReEINtNtNtNtCs85QQFkKrybG_4core4iter6traits7collect12FromIteratorBG_E9from_iterINtNtNtBQ_8adapters3map3MapINtNtNtBS_5slice4iter4IterNtNtB8_6string6StringENCNvNtCslvhnBjKo0yW_26wasm_bindgen_macro_support6encode11shared_enums_0EEB3g_, symObjAddr: 0x3B28, symBinAddr: 0x3364C, symSize: 0x40 }
  - { offset: 0x2F52D, size: 0x8, addend: 0x0, symName: __RINvXsd_NtCsdFlNUEO95cG_5alloc3vecINtB6_3VecReEINtNtNtNtCs85QQFkKrybG_4core4iter6traits7collect12FromIteratorBG_E9from_iterINtNtNtBQ_8adapters3map3MapINtNtNtBS_5slice4iter4IterNtNtB8_6string6StringENCNvNtCslvhnBjKo0yW_26wasm_bindgen_macro_support6encode13shared_export0EEB3g_, symObjAddr: 0x3B68, symBinAddr: 0x3368C, symSize: 0x40 }
  - { offset: 0x2F56D, size: 0x8, addend: 0x0, symName: __RINvXsd_NtCsdFlNUEO95cG_5alloc3vecINtB6_3VecReEINtNtNtNtCs85QQFkKrybG_4core4iter6traits7collect12FromIteratorBG_E9from_iterINtNtNtBQ_8adapters3map3MapINtNtNtBS_5slice4iter4IterNtNtB8_6string6StringENCNvNtCslvhnBjKo0yW_26wasm_bindgen_macro_support6encode13shared_structs_0EEB3g_, symObjAddr: 0x3BA8, symBinAddr: 0x336CC, symSize: 0x40 }
  - { offset: 0x2F5AD, size: 0x8, addend: 0x0, symName: __RINvXsd_NtCsdFlNUEO95cG_5alloc3vecINtB6_3VecReEINtNtNtNtCs85QQFkKrybG_4core4iter6traits7collect12FromIteratorBG_E9from_iterINtNtNtBQ_8adapters3map3MapINtNtNtBS_5slice4iter4IterNtNtB8_6string6StringENCNvNtCslvhnBjKo0yW_26wasm_bindgen_macro_support6encode14shared_programs5_0EEB3g_, symObjAddr: 0x3BE8, symBinAddr: 0x3370C, symSize: 0x3C }
  - { offset: 0x2F5EE, size: 0x8, addend: 0x0, symName: __RINvXsd_NtCsdFlNUEO95cG_5alloc3vecINtB6_3VecReEINtNtNtNtCs85QQFkKrybG_4core4iter6traits7collect12FromIteratorBG_E9from_iterINtNtNtBQ_8adapters3map3MapINtNtNtBS_5slice4iter4IterNtNtB8_6string6StringENCNvNtCslvhnBjKo0yW_26wasm_bindgen_macro_support6encode14shared_variant0EEB3g_, symObjAddr: 0x3C24, symBinAddr: 0x33748, symSize: 0x40 }
  - { offset: 0x2F62E, size: 0x8, addend: 0x0, symName: __RINvXsd_NtCsdFlNUEO95cG_5alloc3vecINtB6_3VecReEINtNtNtNtCs85QQFkKrybG_4core4iter6traits7collect12FromIteratorBG_E9from_iterINtNtNtBQ_8adapters3map3MapINtNtNtBS_5slice4iter4IterNtNtB8_6string6StringENCNvNtCslvhnBjKo0yW_26wasm_bindgen_macro_support6encode18shared_import_enum0EEB3g_, symObjAddr: 0x3C64, symBinAddr: 0x33788, symSize: 0x40 }
  - { offset: 0x2F66E, size: 0x8, addend: 0x0, symName: __RINvXsd_NtCsdFlNUEO95cG_5alloc3vecINtB6_3VecReEINtNtNtNtCs85QQFkKrybG_4core4iter6traits7collect12FromIteratorBG_E9from_iterINtNtNtBQ_8adapters3map3MapINtNtNtBS_5slice4iter4IterNtNtB8_6string6StringENCNvNtCslvhnBjKo0yW_26wasm_bindgen_macro_support6encode18shared_import_enums_0EEB3g_, symObjAddr: 0x3CA4, symBinAddr: 0x337C8, symSize: 0x40 }
  - { offset: 0x2F6AE, size: 0x8, addend: 0x0, symName: __RINvXsd_NtCsdFlNUEO95cG_5alloc3vecINtB6_3VecReEINtNtNtNtCs85QQFkKrybG_4core4iter6traits7collect12FromIteratorBG_E9from_iterINtNtNtBQ_8adapters3map3MapINtNtNtBS_5slice4iter4IterNtNtB8_6string6StringENCNvNtCslvhnBjKo0yW_26wasm_bindgen_macro_support6encode19shared_struct_field0EEB3g_, symObjAddr: 0x3CE4, symBinAddr: 0x33808, symSize: 0x40 }
  - { offset: 0x2F6EE, size: 0x8, addend: 0x0, symName: __RINvXsd_NtCsdFlNUEO95cG_5alloc3vecINtB6_3VecTINtNtCs85QQFkKrybG_4core4cell4CellbENtNtCslvhnBjKo0yW_26wasm_bindgen_macro_support6parser11BindgenAttrEEINtNtNtNtBM_4iter6traits7collect12FromIteratorBG_E9from_iterINtNtNtB2u_8adapters3map3MapINtNtCscwCr4GBBztI_3syn10punctuated8IntoIterB1h_ENCNvXs0_B1j_NtB1j_12BindgenAttrsNtNtB3S_5parse5Parse5parse0EEB1l_, symObjAddr: 0x3D24, symBinAddr: 0x33848, symSize: 0x3C }
  - { offset: 0x2F72F, size: 0x8, addend: 0x0, symName: __RINvXsd_NtCsdFlNUEO95cG_5alloc3vecINtB6_3VecmEINtNtNtNtCs85QQFkKrybG_4core4iter6traits7collect12FromIteratormE9from_iterINtNtNtBP_8adapters3map3MapNtNtNtBR_3str4iter5CharsNCNvXs0_NtCslvhnBjKo0yW_26wasm_bindgen_macro_support7codegenNtNtB2T_3ast6StructNtNtCshi3DZH3dfhk_5quote9to_tokens8ToTokens9to_tokens0EEB2T_, symObjAddr: 0x3D60, symBinAddr: 0x33884, symSize: 0x40 }
  - { offset: 0x2F76F, size: 0x8, addend: 0x0, symName: __RINvXsd_NtCsdFlNUEO95cG_5alloc3vecINtB6_3VecmEINtNtNtNtCs85QQFkKrybG_4core4iter6traits7collect12FromIteratormE9from_iterINtNtNtBR_3ops5range5RangemEECslvhnBjKo0yW_26wasm_bindgen_macro_support, symObjAddr: 0x3DA0, symBinAddr: 0x338C4, symSize: 0x38 }
  - { offset: 0x2F7B5, size: 0x8, addend: 0x0, symName: __RINvXsh_NtCsdFlNUEO95cG_5alloc3vecINtB6_3VecNtCsfwj6t2KTYdc_11proc_macro211TokenStreamEINtNtNtNtCs85QQFkKrybG_4core4iter6traits7collect6ExtendBG_E6extendBw_ECslvhnBjKo0yW_26wasm_bindgen_macro_support, symObjAddr: 0x3DD8, symBinAddr: 0x338FC, symSize: 0x48 }
  - { offset: 0x2F80A, size: 0x8, addend: 0x0, symName: __RINvXsh_NtCsdFlNUEO95cG_5alloc3vecINtB6_3VecNtCsfwj6t2KTYdc_11proc_macro25IdentEINtNtNtNtCs85QQFkKrybG_4core4iter6traits7collect6ExtendBG_E6extendINtNtNtB1n_8adapters6cloned6ClonedINtNtNtB1p_5slice4iter4IterBG_EEECslvhnBjKo0yW_26wasm_bindgen_macro_support, symObjAddr: 0x3E20, symBinAddr: 0x33944, symSize: 0x60 }
  - { offset: 0x2F85E, size: 0x8, addend: 0x0, symName: __RINvXsh_NtCsdFlNUEO95cG_5alloc3vecINtB6_3VecNtCsfwj6t2KTYdc_11proc_macro29TokenTreeEINtNtNtNtCs85QQFkKrybG_4core4iter6traits7collect6ExtendBG_E6extendINtNtNtB1r_8adapters7flatten7FlattenINtNtB2t_3map3MapIB2Z_IB2Z_INtNtNtB1t_5slice4iter4IterRNtNtCscwCr4GBBztI_3syn2ty4TypeENCNvXs2_NtCslvhnBjKo0yW_26wasm_bindgen_macro_support7codegenNtNtB4w_3ast6ExportNtB4u_11TryToTokens13try_to_tokenss0_0ENCINvXs7_BI_NtBI_11TokenStreamINtB1n_12FromIteratorB6s_E9from_iterB3k_E0ENCINvXs6_NtBI_3impNtB7A_11TokenStreamIB6L_B7J_E9from_iterB3f_Es_0EEEB4w_, symObjAddr: 0x3E80, symBinAddr: 0x339A4, symSize: 0x48 }
  - { offset: 0x2F8B3, size: 0x8, addend: 0x0, symName: __RINvXsh_NtCsdFlNUEO95cG_5alloc3vecINtB6_3VecNtNtB8_6string6StringEINtNtNtNtCs85QQFkKrybG_4core4iter6traits7collect6ExtendBG_E6extendINtNtNtB19_8adapters10filter_map9FilterMapINtNtB2b_7flatten7FlattenINtNtB1b_6option8IntoIterNtCsfwj6t2KTYdc_11proc_macro211TokenStreamEENCNCNvNtCslvhnBjKo0yW_26wasm_bindgen_macro_support6parser20extract_doc_comments0s_0EEB4q_, symObjAddr: 0x3EC8, symBinAddr: 0x339EC, symSize: 0x48 }
  - { offset: 0x2F908, size: 0x8, addend: 0x0, symName: __RINvXsh_NtCsdFlNUEO95cG_5alloc3vecINtB6_3VecNtNtCslvhnBjKo0yW_26wasm_bindgen_macro_support6parser11UnusedStateEINtNtNtNtCs85QQFkKrybG_4core4iter6traits7collect6ExtendBG_E6extendINtNtNtB1S_8adapters3map3MapINtNtB2U_10filter_map9FilterMapINtNtNtB1U_5slice4iter4IterTINtNtB1U_4cell4CellbENtBI_11BindgenAttrEENCNCNvMBI_NtBI_12BindgenAttrs10check_used00ENCB4V_s_0EEBK_, symObjAddr: 0x3F10, symBinAddr: 0x33A34, symSize: 0x60 }
  - { offset: 0x2F967, size: 0x8, addend: 0x0, symName: __RNCINvMsi_NtCsdFlNUEO95cG_5alloc3vecINtB8_3VecNtCsfwj6t2KTYdc_11proc_macro211TokenStreamE14extend_trustedINtNtNtNtCs85QQFkKrybG_4core4iter8adapters3map3MapINtNtNtB1O_5slice4iter4IterNtBK_5IdentENCNvXs5_NtCslvhnBjKo0yW_26wasm_bindgen_macro_support7codegenNtNtB3g_3ast10StringEnumNtNtCshi3DZH3dfhk_5quote9to_tokens8ToTokens9to_tokens0EE0B3g_, symObjAddr: 0x3FA0, symBinAddr: 0x33AC4, symSize: 0x3C }
  - { offset: 0x2FA1C, size: 0x8, addend: 0x0, symName: __RNCINvMsi_NtCsdFlNUEO95cG_5alloc3vecINtB8_3VecNtCsfwj6t2KTYdc_11proc_macro211TokenStreamE14extend_trustedINtNtNtNtCs85QQFkKrybG_4core4iter8adapters3map3MapINtNtNtB1O_5slice4iter4IterNtNtCslvhnBjKo0yW_26wasm_bindgen_macro_support6encode11EncodeChunkENCNvXNtB2Y_7codegenNtNtB2Y_3ast7ProgramNtB44_11TryToTokens13try_to_tokenss_0EE0B2Y_, symObjAddr: 0x3FDC, symBinAddr: 0x33B00, symSize: 0x3C }
  - { offset: 0x2FAD1, size: 0x8, addend: 0x0, symName: __RNCINvMsi_NtCsdFlNUEO95cG_5alloc3vecINtB8_3VecNtCsfwj6t2KTYdc_11proc_macro25IdentE14extend_trustedINtNtNtNtCs85QQFkKrybG_4core4iter8adapters6cloned6ClonedINtNtNtB1H_5slice4iter4IterBI_EEE0CslvhnBjKo0yW_26wasm_bindgen_macro_support, symObjAddr: 0x4018, symBinAddr: 0x33B3C, symSize: 0x44 }
  - { offset: 0x2FB7E, size: 0x8, addend: 0x0, symName: __RNCINvMsi_NtCsdFlNUEO95cG_5alloc3vecINtB8_3VecNtNtCslvhnBjKo0yW_26wasm_bindgen_macro_support6encode11EnumVariantE14extend_trustedINtNtNtNtCs85QQFkKrybG_4core4iter8adapters3map3MapINtNtNtB2c_5slice4iter4IterNtNtBM_3ast7VariantENCNvBK_11shared_enum0EE0BM_, symObjAddr: 0x405C, symBinAddr: 0x33B80, symSize: 0x54 }
  - { offset: 0x2FC3C, size: 0x8, addend: 0x0, symName: __RNCINvMsi_NtCsdFlNUEO95cG_5alloc3vecINtB8_3VecNtNtCslvhnBjKo0yW_26wasm_bindgen_macro_support6encode11StructFieldE14extend_trustedINtNtNtNtCs85QQFkKrybG_4core4iter8adapters3map3MapINtNtNtB2c_5slice4iter4IterNtNtBM_3ast11StructFieldENCNvBK_13shared_struct0EE0BM_, symObjAddr: 0x40B0, symBinAddr: 0x33BD4, symSize: 0x54 }
  - { offset: 0x2FCFA, size: 0x8, addend: 0x0, symName: __RNCINvMsi_NtCsdFlNUEO95cG_5alloc3vecINtB8_3VecNtNtCslvhnBjKo0yW_26wasm_bindgen_macro_support6encode20FunctionArgumentDataE14extend_trustedINtNtNtNtCs85QQFkKrybG_4core4iter8adapters3map3MapINtNtB2h_9enumerate9EnumerateINtNtNtB2l_5slice4iter4IterNtNtBM_3ast20FunctionArgumentDataEENCNvBK_15shared_function0EE0BM_, symObjAddr: 0x4104, symBinAddr: 0x33C28, symSize: 0x54 }
  - { offset: 0x2FDB8, size: 0x8, addend: 0x0, symName: __RNCINvMsi_NtCsdFlNUEO95cG_5alloc3vecINtB8_3VecNtNtCslvhnBjKo0yW_26wasm_bindgen_macro_support6encode4EnumE14extend_trustedINtNtNtNtCs85QQFkKrybG_4core4iter8adapters3map3MapINtNtNtB24_5slice4iter4IterNtNtBM_3ast4EnumENCNvBK_14shared_programs0_0EE0BM_, symObjAddr: 0x4158, symBinAddr: 0x33C7C, symSize: 0x54 }
  - { offset: 0x2FE76, size: 0x8, addend: 0x0, symName: __RNCINvMsi_NtCsdFlNUEO95cG_5alloc3vecINtB8_3VecNtNtCslvhnBjKo0yW_26wasm_bindgen_macro_support6encode6StructE14extend_trustedINtNtNtNtCs85QQFkKrybG_4core4iter8adapters3map3MapINtNtNtB26_5slice4iter4IterNtNtBM_3ast6StructENCNvBK_14shared_programs_0EE0BM_, symObjAddr: 0x41AC, symBinAddr: 0x33CD0, symSize: 0x54 }
  - { offset: 0x2FF34, size: 0x8, addend: 0x0, symName: __RNCINvMsi_NtCsdFlNUEO95cG_5alloc3vecINtB8_3VecNtNtCslvhnBjKo0yW_26wasm_bindgen_macro_support6encode9LitOrExprE14extend_trustedINtNtNtNtCs85QQFkKrybG_4core4iter8adapters3map3MapINtNtNtB29_5slice4iter4IterNtNtBM_3ast9LitOrExprENCNvBK_14shared_programs2_0EE0BM_, symObjAddr: 0x4200, symBinAddr: 0x33D24, symSize: 0x30 }
  - { offset: 0x2FFDC, size: 0x8, addend: 0x0, symName: __RNCINvMsi_NtCsdFlNUEO95cG_5alloc3vecINtB8_3VecReE14extend_trustedINtNtNtNtCs85QQFkKrybG_4core4iter8adapters3map3MapINtNtNtB1a_5slice4iter4IterNtCsfwj6t2KTYdc_11proc_macro25IdentENCNvNtCslvhnBjKo0yW_26wasm_bindgen_macro_support6encode18shared_import_type0EE0B2W_, symObjAddr: 0x4230, symBinAddr: 0x33D54, symSize: 0x40 }
  - { offset: 0x30099, size: 0x8, addend: 0x0, symName: __RNCINvMsi_NtCsdFlNUEO95cG_5alloc3vecINtB8_3VecReE14extend_trustedINtNtNtNtCs85QQFkKrybG_4core4iter8adapters3map3MapINtNtNtB1a_5slice4iter4IterNtNtBa_6string6StringENCNvNtCslvhnBjKo0yW_26wasm_bindgen_macro_support6encode11shared_enums_0EE0B2I_, symObjAddr: 0x4270, symBinAddr: 0x33D94, symSize: 0x40 }
  - { offset: 0x30156, size: 0x8, addend: 0x0, symName: __RNCINvMsi_NtCsdFlNUEO95cG_5alloc3vecINtB8_3VecReE14extend_trustedINtNtNtNtCs85QQFkKrybG_4core4iter8adapters3map3MapINtNtNtB1a_5slice4iter4IterNtNtBa_6string6StringENCNvNtCslvhnBjKo0yW_26wasm_bindgen_macro_support6encode13shared_export0EE0B2I_, symObjAddr: 0x42B0, symBinAddr: 0x33DD4, symSize: 0x40 }
  - { offset: 0x30213, size: 0x8, addend: 0x0, symName: __RNCINvMsi_NtCsdFlNUEO95cG_5alloc3vecINtB8_3VecReE14extend_trustedINtNtNtNtCs85QQFkKrybG_4core4iter8adapters3map3MapINtNtNtB1a_5slice4iter4IterNtNtBa_6string6StringENCNvNtCslvhnBjKo0yW_26wasm_bindgen_macro_support6encode13shared_structs_0EE0B2I_, symObjAddr: 0x42F0, symBinAddr: 0x33E14, symSize: 0x40 }
  - { offset: 0x302D0, size: 0x8, addend: 0x0, symName: __RNCINvMsi_NtCsdFlNUEO95cG_5alloc3vecINtB8_3VecReE14extend_trustedINtNtNtNtCs85QQFkKrybG_4core4iter8adapters3map3MapINtNtNtB1a_5slice4iter4IterNtNtBa_6string6StringENCNvNtCslvhnBjKo0yW_26wasm_bindgen_macro_support6encode14shared_programs5_0EE0B2I_, symObjAddr: 0x4330, symBinAddr: 0x33E54, symSize: 0x40 }
  - { offset: 0x3038D, size: 0x8, addend: 0x0, symName: __RNCINvMsi_NtCsdFlNUEO95cG_5alloc3vecINtB8_3VecReE14extend_trustedINtNtNtNtCs85QQFkKrybG_4core4iter8adapters3map3MapINtNtNtB1a_5slice4iter4IterNtNtBa_6string6StringENCNvNtCslvhnBjKo0yW_26wasm_bindgen_macro_support6encode14shared_variant0EE0B2I_, symObjAddr: 0x4370, symBinAddr: 0x33E94, symSize: 0x40 }
  - { offset: 0x3044A, size: 0x8, addend: 0x0, symName: __RNCINvMsi_NtCsdFlNUEO95cG_5alloc3vecINtB8_3VecReE14extend_trustedINtNtNtNtCs85QQFkKrybG_4core4iter8adapters3map3MapINtNtNtB1a_5slice4iter4IterNtNtBa_6string6StringENCNvNtCslvhnBjKo0yW_26wasm_bindgen_macro_support6encode18shared_import_enum0EE0B2I_, symObjAddr: 0x43B0, symBinAddr: 0x33ED4, symSize: 0x40 }
  - { offset: 0x30507, size: 0x8, addend: 0x0, symName: __RNCINvMsi_NtCsdFlNUEO95cG_5alloc3vecINtB8_3VecReE14extend_trustedINtNtNtNtCs85QQFkKrybG_4core4iter8adapters3map3MapINtNtNtB1a_5slice4iter4IterNtNtBa_6string6StringENCNvNtCslvhnBjKo0yW_26wasm_bindgen_macro_support6encode18shared_import_enums_0EE0B2I_, symObjAddr: 0x43F0, symBinAddr: 0x33F14, symSize: 0x40 }
  - { offset: 0x305C4, size: 0x8, addend: 0x0, symName: __RNCINvMsi_NtCsdFlNUEO95cG_5alloc3vecINtB8_3VecReE14extend_trustedINtNtNtNtCs85QQFkKrybG_4core4iter8adapters3map3MapINtNtNtB1a_5slice4iter4IterNtNtBa_6string6StringENCNvNtCslvhnBjKo0yW_26wasm_bindgen_macro_support6encode19shared_struct_field0EE0B2I_, symObjAddr: 0x4430, symBinAddr: 0x33F54, symSize: 0x40 }
  - { offset: 0x30681, size: 0x8, addend: 0x0, symName: __RNCINvMsi_NtCsdFlNUEO95cG_5alloc3vecINtB8_3VecmE14extend_trustedINtNtNtCs85QQFkKrybG_4core3ops5range5RangemEE0CslvhnBjKo0yW_26wasm_bindgen_macro_support, symObjAddr: 0x4470, symBinAddr: 0x33F94, symSize: 0x30 }
  - { offset: 0x30E13, size: 0x8, addend: 0x0, symName: __RNvXNtNtCsdFlNUEO95cG_5alloc3vec11spec_extendINtB4_3VecNtCsfwj6t2KTYdc_11proc_macro29TokenTreeEINtB2_10SpecExtendBR_INtNtNtNtCs85QQFkKrybG_4core4iter8adapters7flatten7FlattenINtNtB1V_3map3MapIB2N_IB2N_INtNtNtB1Z_5slice4iter4IterRNtNtCscwCr4GBBztI_3syn2ty4TypeENCNvXs2_NtCslvhnBjKo0yW_26wasm_bindgen_macro_support7codegenNtNtB4k_3ast6ExportNtB4i_11TryToTokens13try_to_tokenss0_0ENCINvXs7_BT_NtBT_11TokenStreamINtNtNtB1X_6traits7collect12FromIteratorB6g_E9from_iterB38_E0ENCINvXs6_NtBT_3impNtB7H_11TokenStreamIB6z_B7Q_E9from_iterB33_Es_0EEE11spec_extendB4k_, symObjAddr: 0x8A20, symBinAddr: 0x38544, symSize: 0x24 }
  - { offset: 0x30E65, size: 0x8, addend: 0x0, symName: __RNvXNtNtCsdFlNUEO95cG_5alloc3vec11spec_extendINtB4_3VecNtNtB6_6string6StringEINtB2_10SpecExtendBR_INtNtNtNtCs85QQFkKrybG_4core4iter8adapters10filter_map9FilterMapINtNtB1D_7flatten7FlattenINtNtB1H_6option8IntoIterNtCsfwj6t2KTYdc_11proc_macro211TokenStreamEENCNCNvNtCslvhnBjKo0yW_26wasm_bindgen_macro_support6parser20extract_doc_comments0s_0EE11spec_extendB4e_, symObjAddr: 0x8A44, symBinAddr: 0x38568, symSize: 0x24 }
  - { offset: 0x30EB7, size: 0x8, addend: 0x0, symName: __RNvXNtNtCsdFlNUEO95cG_5alloc3vec11spec_extendINtB4_3VecNtNtCslvhnBjKo0yW_26wasm_bindgen_macro_support3ast20FunctionArgumentDataEINtB2_10SpecExtendBR_INtNtNtNtCs85QQFkKrybG_4core4iter8adapters3map3MapINtNtB2s_3zip3ZipINtNtB4_9into_iter8IntoIterNtNtCscwCr4GBBztI_3syn3pat7PatTypeEINtNtB2s_5chain5ChainINtNtB2s_7flatten7FlattenINtNtB2w_6option8IntoIterIBI_NtNtBV_6parser10FnArgAttrsEEEINtNtNtB2u_7sources6repeat6RepeatB5F_EEENCNvB5H_18function_from_decls2_0EE11spec_extendBV_, symObjAddr: 0x8A68, symBinAddr: 0x3858C, symSize: 0x24 }
  - { offset: 0x30F09, size: 0x8, addend: 0x0, symName: __RNvXNtNtCsdFlNUEO95cG_5alloc3vec11spec_extendINtB4_3VecNtNtCslvhnBjKo0yW_26wasm_bindgen_macro_support3ast7VariantEINtB2_10SpecExtendBR_INtNtNtCs85QQFkKrybG_4core4iter8adapters12GenericShuntINtNtB2c_3map3MapINtNtCscwCr4GBBztI_3syn10punctuated4IterNtNtB3n_4data7VariantENCNvXsd_NtBV_6parserNtNtB3n_4item8ItemEnumINtB4q_10MacroParseTQNtCsfwj6t2KTYdc_11proc_macro211TokenStreamNtB4q_12BindgenAttrsEE11macro_parses3_0EINtNtB2g_6result6ResultNtNtB2g_7convert10InfallibleNtNtBV_5error10DiagnosticEEE11spec_extendBV_, symObjAddr: 0x8A8C, symBinAddr: 0x385B0, symSize: 0x24 }
  - { offset: 0x30F5B, size: 0x8, addend: 0x0, symName: __RNvXNtNtCsdFlNUEO95cG_5alloc3vec11spec_extendINtB4_3VecNtNtCslvhnBjKo0yW_26wasm_bindgen_macro_support6encode11LocalModuleEINtB2_10SpecExtendBR_INtNtNtCs85QQFkKrybG_4core4iter8adapters12GenericShuntINtNtB2k_3map3MapINtNtNtNtCswz7ZwgBZOU_3std11collections4hash3map6ValuesNtNtB6_6string6StringNtBT_9LocalFileENCNvBT_14shared_programs4_0EINtNtB2o_6result6ResultNtNtB2o_7convert10InfallibleNtNtBV_5error10DiagnosticEEE11spec_extendBV_, symObjAddr: 0x8AB0, symBinAddr: 0x385D4, symSize: 0x24 }
  - { offset: 0x30FAD, size: 0x8, addend: 0x0, symName: __RNvXNtNtCsdFlNUEO95cG_5alloc3vec11spec_extendINtB4_3VecNtNtCslvhnBjKo0yW_26wasm_bindgen_macro_support6encode12LinkedModuleEINtB2_10SpecExtendBR_INtNtNtCs85QQFkKrybG_4core4iter8adapters12GenericShuntINtNtB2l_3map3MapINtNtB2l_9enumerate9EnumerateINtNtNtB2p_5slice4iter4IterNtNtBV_3ast12ImportModuleEENCNvBT_14shared_programs3_0EINtNtB2p_6result6ResultNtNtB2p_7convert10InfallibleNtNtBV_5error10DiagnosticEEE11spec_extendBV_, symObjAddr: 0x8AD4, symBinAddr: 0x385F8, symSize: 0x24 }
  - { offset: 0x30FFF, size: 0x8, addend: 0x0, symName: __RNvXNtNtCsdFlNUEO95cG_5alloc3vec11spec_extendINtB4_3VecNtNtCslvhnBjKo0yW_26wasm_bindgen_macro_support6encode6ExportEINtB2_10SpecExtendBR_INtNtNtCs85QQFkKrybG_4core4iter8adapters12GenericShuntINtNtB2e_3map3MapINtNtNtB2i_5slice4iter4IterNtNtBV_3ast6ExportENCNvBT_14shared_program0EINtNtB2i_6result6ResultNtNtB2i_7convert10InfallibleNtNtBV_5error10DiagnosticEEE11spec_extendBV_, symObjAddr: 0x8AF8, symBinAddr: 0x3861C, symSize: 0x24 }
  - { offset: 0x31051, size: 0x8, addend: 0x0, symName: __RNvXNtNtCsdFlNUEO95cG_5alloc3vec11spec_extendINtB4_3VecNtNtCslvhnBjKo0yW_26wasm_bindgen_macro_support6encode6ImportEINtB2_10SpecExtendBR_INtNtNtCs85QQFkKrybG_4core4iter8adapters12GenericShuntINtNtB2e_3map3MapINtNtNtB2i_5slice4iter4IterNtNtBV_3ast6ImportENCNvBT_14shared_programs1_0EINtNtB2i_6result6ResultNtNtB2i_7convert10InfallibleNtNtBV_5error10DiagnosticEEE11spec_extendBV_, symObjAddr: 0x8B1C, symBinAddr: 0x38640, symSize: 0x24 }
  - { offset: 0x310A3, size: 0x8, addend: 0x0, symName: __RNvXNtNtCsdFlNUEO95cG_5alloc3vec11spec_extendINtB4_3VecNtNtCslvhnBjKo0yW_26wasm_bindgen_macro_support6parser11UnusedStateEINtB2_10SpecExtendBR_INtNtNtNtCs85QQFkKrybG_4core4iter8adapters3map3MapINtNtB2m_10filter_map9FilterMapINtNtNtB2q_5slice4iter4IterTINtNtB2q_4cell4CellbENtBT_11BindgenAttrEENCNCNvMBT_NtBT_12BindgenAttrs10check_used00ENCB4J_s_0EE11spec_extendBV_, symObjAddr: 0x8B40, symBinAddr: 0x38664, symSize: 0x34 }
  - { offset: 0x310F4, size: 0x8, addend: 0x0, symName: __RNvXNtNtCsdFlNUEO95cG_5alloc3vec11spec_extendINtB4_3VecNtNtCswz7ZwgBZOU_3std4path7PathBufEINtB2_10SpecExtendBR_INtNtNtNtCs85QQFkKrybG_4core4iter8adapters6cloned6ClonedINtNtB1Q_3map3MapINtNtNtNtBV_11collections4hash3map6ValuesNtNtB6_6string6StringNtNtCslvhnBjKo0yW_26wasm_bindgen_macro_support6encode9LocalFileENCNvB3Y_6encode0EEE11spec_extendB40_, symObjAddr: 0x8B74, symBinAddr: 0x38698, symSize: 0x24 }
  - { offset: 0x31146, size: 0x8, addend: 0x0, symName: __RNvXNtNtCsdFlNUEO95cG_5alloc3vec11spec_extendINtB4_3VecTINtNtCs85QQFkKrybG_4core4cell4CellbENtNtCslvhnBjKo0yW_26wasm_bindgen_macro_support6parser11BindgenAttrEEINtB2_10SpecExtendBR_INtNtNtNtBX_4iter8adapters3map3MapINtNtCscwCr4GBBztI_3syn10punctuated8IntoIterB1s_ENCNvXs0_B1u_NtB1u_12BindgenAttrsNtNtB3w_5parse5Parse5parse0EE11spec_extendB1w_, symObjAddr: 0x8B98, symBinAddr: 0x386BC, symSize: 0x24 }
  - { offset: 0x31198, size: 0x8, addend: 0x0, symName: __RNvXNtNtCsdFlNUEO95cG_5alloc3vec11spec_extendINtB4_3VecmEINtB2_10SpecExtendmINtNtNtNtCs85QQFkKrybG_4core4iter8adapters3map3MapNtNtNtB1l_3str4iter5CharsNCNvXs0_NtCslvhnBjKo0yW_26wasm_bindgen_macro_support7codegenNtNtB2z_3ast6StructNtNtCshi3DZH3dfhk_5quote9to_tokens8ToTokens9to_tokens0EE11spec_extendB2z_, symObjAddr: 0x8BBC, symBinAddr: 0x386E0, symSize: 0x34 }
  - { offset: 0x311EF, size: 0x8, addend: 0x0, symName: __RNvXs0_NtNtCsdFlNUEO95cG_5alloc3vec11spec_extendINtB7_3VecNtCsfwj6t2KTYdc_11proc_macro211TokenStreamEINtB5_10SpecExtendBU_INtNtB7_9into_iter8IntoIterBU_EE11spec_extendCslvhnBjKo0yW_26wasm_bindgen_macro_support, symObjAddr: 0xA69C, symBinAddr: 0x3A1C0, symSize: 0x98 }
  - { offset: 0x3125B, size: 0x8, addend: 0x0, symName: __RNvXs_NtNtCsdFlNUEO95cG_5alloc3vec11spec_extendINtB6_3VecNtCsfwj6t2KTYdc_11proc_macro211TokenStreamEINtB4_10SpecExtendBT_INtNtNtNtCs85QQFkKrybG_4core4iter8adapters3map3MapINtNtNtB24_5slice4iter4IterNtBV_5IdentENCNvXs5_NtCslvhnBjKo0yW_26wasm_bindgen_macro_support7codegenNtNtB3w_3ast10StringEnumNtNtCshi3DZH3dfhk_5quote9to_tokens8ToTokens9to_tokens0EE11spec_extendB3w_, symObjAddr: 0xB6B8, symBinAddr: 0x3B1DC, symSize: 0x24 }
  - { offset: 0x312AD, size: 0x8, addend: 0x0, symName: __RNvXs_NtNtCsdFlNUEO95cG_5alloc3vec11spec_extendINtB6_3VecNtCsfwj6t2KTYdc_11proc_macro211TokenStreamEINtB4_10SpecExtendBT_INtNtNtNtCs85QQFkKrybG_4core4iter8adapters3map3MapINtNtNtB24_5slice4iter4IterNtNtCslvhnBjKo0yW_26wasm_bindgen_macro_support6encode11EncodeChunkENCNvXNtB3e_7codegenNtNtB3e_3ast7ProgramNtB4k_11TryToTokens13try_to_tokenss_0EE11spec_extendB3e_, symObjAddr: 0xB6DC, symBinAddr: 0x3B200, symSize: 0x24 }
  - { offset: 0x312FF, size: 0x8, addend: 0x0, symName: __RNvXs_NtNtCsdFlNUEO95cG_5alloc3vec11spec_extendINtB6_3VecNtCsfwj6t2KTYdc_11proc_macro25IdentEINtB4_10SpecExtendBT_INtNtNtNtCs85QQFkKrybG_4core4iter8adapters6cloned6ClonedINtNtNtB1X_5slice4iter4IterBT_EEE11spec_extendCslvhnBjKo0yW_26wasm_bindgen_macro_support, symObjAddr: 0xB700, symBinAddr: 0x3B224, symSize: 0x34 }
  - { offset: 0x31350, size: 0x8, addend: 0x0, symName: __RNvXs_NtNtCsdFlNUEO95cG_5alloc3vec11spec_extendINtB6_3VecNtNtCslvhnBjKo0yW_26wasm_bindgen_macro_support6encode11EnumVariantEINtB4_10SpecExtendBT_INtNtNtNtCs85QQFkKrybG_4core4iter8adapters3map3MapINtNtNtB2s_5slice4iter4IterNtNtBX_3ast7VariantENCNvBV_11shared_enum0EE11spec_extendBX_, symObjAddr: 0xB734, symBinAddr: 0x3B258, symSize: 0x24 }
  - { offset: 0x313A2, size: 0x8, addend: 0x0, symName: __RNvXs_NtNtCsdFlNUEO95cG_5alloc3vec11spec_extendINtB6_3VecNtNtCslvhnBjKo0yW_26wasm_bindgen_macro_support6encode11StructFieldEINtB4_10SpecExtendBT_INtNtNtNtCs85QQFkKrybG_4core4iter8adapters3map3MapINtNtNtB2s_5slice4iter4IterNtNtBX_3ast11StructFieldENCNvBV_13shared_struct0EE11spec_extendBX_, symObjAddr: 0xB758, symBinAddr: 0x3B27C, symSize: 0x24 }
  - { offset: 0x313F4, size: 0x8, addend: 0x0, symName: __RNvXs_NtNtCsdFlNUEO95cG_5alloc3vec11spec_extendINtB6_3VecNtNtCslvhnBjKo0yW_26wasm_bindgen_macro_support6encode20FunctionArgumentDataEINtB4_10SpecExtendBT_INtNtNtNtCs85QQFkKrybG_4core4iter8adapters3map3MapINtNtB2x_9enumerate9EnumerateINtNtNtB2B_5slice4iter4IterNtNtBX_3ast20FunctionArgumentDataEENCNvBV_15shared_function0EE11spec_extendBX_, symObjAddr: 0xB77C, symBinAddr: 0x3B2A0, symSize: 0x24 }
  - { offset: 0x31446, size: 0x8, addend: 0x0, symName: __RNvXs_NtNtCsdFlNUEO95cG_5alloc3vec11spec_extendINtB6_3VecNtNtCslvhnBjKo0yW_26wasm_bindgen_macro_support6encode4EnumEINtB4_10SpecExtendBT_INtNtNtNtCs85QQFkKrybG_4core4iter8adapters3map3MapINtNtNtB2k_5slice4iter4IterNtNtBX_3ast4EnumENCNvBV_14shared_programs0_0EE11spec_extendBX_, symObjAddr: 0xB7A0, symBinAddr: 0x3B2C4, symSize: 0x24 }
  - { offset: 0x31498, size: 0x8, addend: 0x0, symName: __RNvXs_NtNtCsdFlNUEO95cG_5alloc3vec11spec_extendINtB6_3VecNtNtCslvhnBjKo0yW_26wasm_bindgen_macro_support6encode6StructEINtB4_10SpecExtendBT_INtNtNtNtCs85QQFkKrybG_4core4iter8adapters3map3MapINtNtNtB2m_5slice4iter4IterNtNtBX_3ast6StructENCNvBV_14shared_programs_0EE11spec_extendBX_, symObjAddr: 0xB7C4, symBinAddr: 0x3B2E8, symSize: 0x24 }
  - { offset: 0x314EA, size: 0x8, addend: 0x0, symName: __RNvXs_NtNtCsdFlNUEO95cG_5alloc3vec11spec_extendINtB6_3VecNtNtCslvhnBjKo0yW_26wasm_bindgen_macro_support6encode9LitOrExprEINtB4_10SpecExtendBT_INtNtNtNtCs85QQFkKrybG_4core4iter8adapters3map3MapINtNtNtB2p_5slice4iter4IterNtNtBX_3ast9LitOrExprENCNvBV_14shared_programs2_0EE11spec_extendBX_, symObjAddr: 0xB7E8, symBinAddr: 0x3B30C, symSize: 0x24 }
  - { offset: 0x3153C, size: 0x8, addend: 0x0, symName: __RNvXs_NtNtCsdFlNUEO95cG_5alloc3vec11spec_extendINtB6_3VecReEINtB4_10SpecExtendBT_INtNtNtNtCs85QQFkKrybG_4core4iter8adapters3map3MapINtNtNtB1q_5slice4iter4IterNtCsfwj6t2KTYdc_11proc_macro25IdentENCNvNtCslvhnBjKo0yW_26wasm_bindgen_macro_support6encode18shared_import_type0EE11spec_extendB3c_, symObjAddr: 0xB80C, symBinAddr: 0x3B330, symSize: 0x24 }
  - { offset: 0x3158E, size: 0x8, addend: 0x0, symName: __RNvXs_NtNtCsdFlNUEO95cG_5alloc3vec11spec_extendINtB6_3VecReEINtB4_10SpecExtendBT_INtNtNtNtCs85QQFkKrybG_4core4iter8adapters3map3MapINtNtNtB1q_5slice4iter4IterNtNtB8_6string6StringENCNvNtCslvhnBjKo0yW_26wasm_bindgen_macro_support6encode11shared_enums_0EE11spec_extendB2Y_, symObjAddr: 0xB830, symBinAddr: 0x3B354, symSize: 0x34 }
  - { offset: 0x315DF, size: 0x8, addend: 0x0, symName: __RNvXs_NtNtCsdFlNUEO95cG_5alloc3vec11spec_extendINtB6_3VecReEINtB4_10SpecExtendBT_INtNtNtNtCs85QQFkKrybG_4core4iter8adapters3map3MapINtNtNtB1q_5slice4iter4IterNtNtB8_6string6StringENCNvNtCslvhnBjKo0yW_26wasm_bindgen_macro_support6encode13shared_export0EE11spec_extendB2Y_, symObjAddr: 0xB864, symBinAddr: 0x3B388, symSize: 0x34 }
  - { offset: 0x31630, size: 0x8, addend: 0x0, symName: __RNvXs_NtNtCsdFlNUEO95cG_5alloc3vec11spec_extendINtB6_3VecReEINtB4_10SpecExtendBT_INtNtNtNtCs85QQFkKrybG_4core4iter8adapters3map3MapINtNtNtB1q_5slice4iter4IterNtNtB8_6string6StringENCNvNtCslvhnBjKo0yW_26wasm_bindgen_macro_support6encode13shared_structs_0EE11spec_extendB2Y_, symObjAddr: 0xB898, symBinAddr: 0x3B3BC, symSize: 0x34 }
  - { offset: 0x31681, size: 0x8, addend: 0x0, symName: __RNvXs_NtNtCsdFlNUEO95cG_5alloc3vec11spec_extendINtB6_3VecReEINtB4_10SpecExtendBT_INtNtNtNtCs85QQFkKrybG_4core4iter8adapters3map3MapINtNtNtB1q_5slice4iter4IterNtNtB8_6string6StringENCNvNtCslvhnBjKo0yW_26wasm_bindgen_macro_support6encode14shared_programs5_0EE11spec_extendB2Y_, symObjAddr: 0xB8CC, symBinAddr: 0x3B3F0, symSize: 0x24 }
  - { offset: 0x316D3, size: 0x8, addend: 0x0, symName: __RNvXs_NtNtCsdFlNUEO95cG_5alloc3vec11spec_extendINtB6_3VecReEINtB4_10SpecExtendBT_INtNtNtNtCs85QQFkKrybG_4core4iter8adapters3map3MapINtNtNtB1q_5slice4iter4IterNtNtB8_6string6StringENCNvNtCslvhnBjKo0yW_26wasm_bindgen_macro_support6encode14shared_variant0EE11spec_extendB2Y_, symObjAddr: 0xB8F0, symBinAddr: 0x3B414, symSize: 0x34 }
  - { offset: 0x31724, size: 0x8, addend: 0x0, symName: __RNvXs_NtNtCsdFlNUEO95cG_5alloc3vec11spec_extendINtB6_3VecReEINtB4_10SpecExtendBT_INtNtNtNtCs85QQFkKrybG_4core4iter8adapters3map3MapINtNtNtB1q_5slice4iter4IterNtNtB8_6string6StringENCNvNtCslvhnBjKo0yW_26wasm_bindgen_macro_support6encode18shared_import_enum0EE11spec_extendB2Y_, symObjAddr: 0xB924, symBinAddr: 0x3B448, symSize: 0x34 }
  - { offset: 0x31775, size: 0x8, addend: 0x0, symName: __RNvXs_NtNtCsdFlNUEO95cG_5alloc3vec11spec_extendINtB6_3VecReEINtB4_10SpecExtendBT_INtNtNtNtCs85QQFkKrybG_4core4iter8adapters3map3MapINtNtNtB1q_5slice4iter4IterNtNtB8_6string6StringENCNvNtCslvhnBjKo0yW_26wasm_bindgen_macro_support6encode18shared_import_enums_0EE11spec_extendB2Y_, symObjAddr: 0xB958, symBinAddr: 0x3B47C, symSize: 0x34 }
  - { offset: 0x317C6, size: 0x8, addend: 0x0, symName: __RNvXs_NtNtCsdFlNUEO95cG_5alloc3vec11spec_extendINtB6_3VecReEINtB4_10SpecExtendBT_INtNtNtNtCs85QQFkKrybG_4core4iter8adapters3map3MapINtNtNtB1q_5slice4iter4IterNtNtB8_6string6StringENCNvNtCslvhnBjKo0yW_26wasm_bindgen_macro_support6encode19shared_struct_field0EE11spec_extendB2Y_, symObjAddr: 0xB98C, symBinAddr: 0x3B4B0, symSize: 0x34 }
  - { offset: 0x31817, size: 0x8, addend: 0x0, symName: __RNvXs_NtNtCsdFlNUEO95cG_5alloc3vec11spec_extendINtB6_3VecmEINtB4_10SpecExtendmINtNtNtCs85QQFkKrybG_4core3ops5range5RangemEE11spec_extendCslvhnBjKo0yW_26wasm_bindgen_macro_support, symObjAddr: 0xB9C0, symBinAddr: 0x3B4E4, symSize: 0x2C }
  - { offset: 0x31874, size: 0x8, addend: 0x0, symName: __RNvXNtNtCsdFlNUEO95cG_5alloc3vec14spec_from_iterINtB4_3VecNtCsfwj6t2KTYdc_11proc_macro211TokenStreamEINtB2_12SpecFromIterBU_INtNtNtNtCs85QQFkKrybG_4core4iter8adapters3map3MapINtNtNtB27_5slice4iter4IterNtBW_5IdentENCNvXs5_NtCslvhnBjKo0yW_26wasm_bindgen_macro_support7codegenNtNtB3z_3ast10StringEnumNtNtCshi3DZH3dfhk_5quote9to_tokens8ToTokens9to_tokens0EE9from_iterB3z_, symObjAddr: 0x8BF0, symBinAddr: 0x38714, symSize: 0x14 }
  - { offset: 0x318B3, size: 0x8, addend: 0x0, symName: __RNvXNtNtCsdFlNUEO95cG_5alloc3vec14spec_from_iterINtB4_3VecNtCsfwj6t2KTYdc_11proc_macro211TokenStreamEINtB2_12SpecFromIterBU_INtNtNtNtCs85QQFkKrybG_4core4iter8adapters3map3MapINtNtNtB27_5slice4iter4IterNtNtCslvhnBjKo0yW_26wasm_bindgen_macro_support6encode11EncodeChunkENCNvXNtB3h_7codegenNtNtB3h_3ast7ProgramNtB4n_11TryToTokens13try_to_tokenss_0EE9from_iterB3h_, symObjAddr: 0x8C04, symBinAddr: 0x38728, symSize: 0x14 }
  - { offset: 0x318F2, size: 0x8, addend: 0x0, symName: __RNvXNtNtCsdFlNUEO95cG_5alloc3vec14spec_from_iterINtB4_3VecNtNtCslvhnBjKo0yW_26wasm_bindgen_macro_support3ast7VariantEINtB2_12SpecFromIterBU_INtNtNtCs85QQFkKrybG_4core4iter8adapters12GenericShuntINtNtB2h_3map3MapINtNtCscwCr4GBBztI_3syn10punctuated4IterNtNtB3s_4data7VariantENCNvXsd_NtBY_6parserNtNtB3s_4item8ItemEnumINtB4v_10MacroParseTQNtCsfwj6t2KTYdc_11proc_macro211TokenStreamNtB4v_12BindgenAttrsEE11macro_parses3_0EINtNtB2l_6result6ResultNtNtB2l_7convert10InfallibleNtNtBY_5error10DiagnosticEEE9from_iterBY_, symObjAddr: 0x8C18, symBinAddr: 0x3873C, symSize: 0x14 }
  - { offset: 0x31931, size: 0x8, addend: 0x0, symName: __RNvXNtNtCsdFlNUEO95cG_5alloc3vec14spec_from_iterINtB4_3VecNtNtCslvhnBjKo0yW_26wasm_bindgen_macro_support6encode11EnumVariantEINtB2_12SpecFromIterBU_INtNtNtNtCs85QQFkKrybG_4core4iter8adapters3map3MapINtNtNtB2v_5slice4iter4IterNtNtBY_3ast7VariantENCNvBW_11shared_enum0EE9from_iterBY_, symObjAddr: 0x8C2C, symBinAddr: 0x38750, symSize: 0x14 }
  - { offset: 0x31970, size: 0x8, addend: 0x0, symName: __RNvXNtNtCsdFlNUEO95cG_5alloc3vec14spec_from_iterINtB4_3VecNtNtCslvhnBjKo0yW_26wasm_bindgen_macro_support6encode11LocalModuleEINtB2_12SpecFromIterBU_INtNtNtCs85QQFkKrybG_4core4iter8adapters12GenericShuntINtNtB2p_3map3MapINtNtNtNtCswz7ZwgBZOU_3std11collections4hash3map6ValuesNtNtB6_6string6StringNtBW_9LocalFileENCNvBW_14shared_programs4_0EINtNtB2t_6result6ResultNtNtB2t_7convert10InfallibleNtNtBY_5error10DiagnosticEEE9from_iterBY_, symObjAddr: 0x8C40, symBinAddr: 0x38764, symSize: 0x14 }
  - { offset: 0x319AF, size: 0x8, addend: 0x0, symName: __RNvXNtNtCsdFlNUEO95cG_5alloc3vec14spec_from_iterINtB4_3VecNtNtCslvhnBjKo0yW_26wasm_bindgen_macro_support6encode11StructFieldEINtB2_12SpecFromIterBU_INtNtNtNtCs85QQFkKrybG_4core4iter8adapters3map3MapINtNtNtB2v_5slice4iter4IterNtNtBY_3ast11StructFieldENCNvBW_13shared_struct0EE9from_iterBY_, symObjAddr: 0x8C54, symBinAddr: 0x38778, symSize: 0x14 }
  - { offset: 0x319EE, size: 0x8, addend: 0x0, symName: __RNvXNtNtCsdFlNUEO95cG_5alloc3vec14spec_from_iterINtB4_3VecNtNtCslvhnBjKo0yW_26wasm_bindgen_macro_support6encode12LinkedModuleEINtB2_12SpecFromIterBU_INtNtNtCs85QQFkKrybG_4core4iter8adapters12GenericShuntINtNtB2q_3map3MapINtNtB2q_9enumerate9EnumerateINtNtNtB2u_5slice4iter4IterNtNtBY_3ast12ImportModuleEENCNvBW_14shared_programs3_0EINtNtB2u_6result6ResultNtNtB2u_7convert10InfallibleNtNtBY_5error10DiagnosticEEE9from_iterBY_, symObjAddr: 0x8C68, symBinAddr: 0x3878C, symSize: 0x14 }
  - { offset: 0x31A2D, size: 0x8, addend: 0x0, symName: __RNvXNtNtCsdFlNUEO95cG_5alloc3vec14spec_from_iterINtB4_3VecNtNtCslvhnBjKo0yW_26wasm_bindgen_macro_support6encode20FunctionArgumentDataEINtB2_12SpecFromIterBU_INtNtNtNtCs85QQFkKrybG_4core4iter8adapters3map3MapINtNtB2A_9enumerate9EnumerateINtNtNtB2E_5slice4iter4IterNtNtBY_3ast20FunctionArgumentDataEENCNvBW_15shared_function0EE9from_iterBY_, symObjAddr: 0x8C7C, symBinAddr: 0x387A0, symSize: 0x14 }
  - { offset: 0x31A6C, size: 0x8, addend: 0x0, symName: __RNvXNtNtCsdFlNUEO95cG_5alloc3vec14spec_from_iterINtB4_3VecNtNtCslvhnBjKo0yW_26wasm_bindgen_macro_support6encode4EnumEINtB2_12SpecFromIterBU_INtNtNtNtCs85QQFkKrybG_4core4iter8adapters3map3MapINtNtNtB2n_5slice4iter4IterNtNtBY_3ast4EnumENCNvBW_14shared_programs0_0EE9from_iterBY_, symObjAddr: 0x8C90, symBinAddr: 0x387B4, symSize: 0x14 }
  - { offset: 0x31AAB, size: 0x8, addend: 0x0, symName: __RNvXNtNtCsdFlNUEO95cG_5alloc3vec14spec_from_iterINtB4_3VecNtNtCslvhnBjKo0yW_26wasm_bindgen_macro_support6encode6ExportEINtB2_12SpecFromIterBU_INtNtNtCs85QQFkKrybG_4core4iter8adapters12GenericShuntINtNtB2j_3map3MapINtNtNtB2n_5slice4iter4IterNtNtBY_3ast6ExportENCNvBW_14shared_program0EINtNtB2n_6result6ResultNtNtB2n_7convert10InfallibleNtNtBY_5error10DiagnosticEEE9from_iterBY_, symObjAddr: 0x8CA4, symBinAddr: 0x387C8, symSize: 0x14 }
  - { offset: 0x31AEA, size: 0x8, addend: 0x0, symName: __RNvXNtNtCsdFlNUEO95cG_5alloc3vec14spec_from_iterINtB4_3VecNtNtCslvhnBjKo0yW_26wasm_bindgen_macro_support6encode6ImportEINtB2_12SpecFromIterBU_INtNtNtCs85QQFkKrybG_4core4iter8adapters12GenericShuntINtNtB2j_3map3MapINtNtNtB2n_5slice4iter4IterNtNtBY_3ast6ImportENCNvBW_14shared_programs1_0EINtNtB2n_6result6ResultNtNtB2n_7convert10InfallibleNtNtBY_5error10DiagnosticEEE9from_iterBY_, symObjAddr: 0x8CB8, symBinAddr: 0x387DC, symSize: 0x14 }
  - { offset: 0x31B29, size: 0x8, addend: 0x0, symName: __RNvXNtNtCsdFlNUEO95cG_5alloc3vec14spec_from_iterINtB4_3VecNtNtCslvhnBjKo0yW_26wasm_bindgen_macro_support6encode6StructEINtB2_12SpecFromIterBU_INtNtNtNtCs85QQFkKrybG_4core4iter8adapters3map3MapINtNtNtB2p_5slice4iter4IterNtNtBY_3ast6StructENCNvBW_14shared_programs_0EE9from_iterBY_, symObjAddr: 0x8CCC, symBinAddr: 0x387F0, symSize: 0x14 }
  - { offset: 0x31B68, size: 0x8, addend: 0x0, symName: __RNvXNtNtCsdFlNUEO95cG_5alloc3vec14spec_from_iterINtB4_3VecNtNtCslvhnBjKo0yW_26wasm_bindgen_macro_support6encode9LitOrExprEINtB2_12SpecFromIterBU_INtNtNtNtCs85QQFkKrybG_4core4iter8adapters3map3MapINtNtNtB2s_5slice4iter4IterNtNtBY_3ast9LitOrExprENCNvBW_14shared_programs2_0EE9from_iterBY_, symObjAddr: 0x8CE0, symBinAddr: 0x38804, symSize: 0x14 }
  - { offset: 0x31BA7, size: 0x8, addend: 0x0, symName: __RNvXNtNtCsdFlNUEO95cG_5alloc3vec14spec_from_iterINtB4_3VecNtNtCswz7ZwgBZOU_3std4path7PathBufEINtB2_12SpecFromIterBU_INtNtNtNtCs85QQFkKrybG_4core4iter8adapters6cloned6ClonedINtNtB1V_3map3MapINtNtNtNtBY_11collections4hash3map6ValuesNtNtB6_6string6StringNtNtCslvhnBjKo0yW_26wasm_bindgen_macro_support6encode9LocalFileENCNvB43_6encode0EEE9from_iterB45_, symObjAddr: 0x8CF4, symBinAddr: 0x38818, symSize: 0x14 }
  - { offset: 0x31BE6, size: 0x8, addend: 0x0, symName: __RNvXNtNtCsdFlNUEO95cG_5alloc3vec14spec_from_iterINtB4_3VecReEINtB2_12SpecFromIterBU_INtNtNtNtCs85QQFkKrybG_4core4iter8adapters3map3MapINtNtNtB1t_5slice4iter4IterNtCsfwj6t2KTYdc_11proc_macro25IdentENCNvNtCslvhnBjKo0yW_26wasm_bindgen_macro_support6encode18shared_import_type0EE9from_iterB3f_, symObjAddr: 0x8D08, symBinAddr: 0x3882C, symSize: 0x14 }
  - { offset: 0x31C25, size: 0x8, addend: 0x0, symName: __RNvXNtNtCsdFlNUEO95cG_5alloc3vec14spec_from_iterINtB4_3VecReEINtB2_12SpecFromIterBU_INtNtNtNtCs85QQFkKrybG_4core4iter8adapters3map3MapINtNtNtB1t_5slice4iter4IterNtNtB6_6string6StringENCNvNtCslvhnBjKo0yW_26wasm_bindgen_macro_support6encode11shared_enums_0EE9from_iterB31_, symObjAddr: 0x8D1C, symBinAddr: 0x38840, symSize: 0x2C }
  - { offset: 0x31C63, size: 0x8, addend: 0x0, symName: __RNvXNtNtCsdFlNUEO95cG_5alloc3vec14spec_from_iterINtB4_3VecReEINtB2_12SpecFromIterBU_INtNtNtNtCs85QQFkKrybG_4core4iter8adapters3map3MapINtNtNtB1t_5slice4iter4IterNtNtB6_6string6StringENCNvNtCslvhnBjKo0yW_26wasm_bindgen_macro_support6encode13shared_export0EE9from_iterB31_, symObjAddr: 0x8D48, symBinAddr: 0x3886C, symSize: 0x2C }
  - { offset: 0x31CA1, size: 0x8, addend: 0x0, symName: __RNvXNtNtCsdFlNUEO95cG_5alloc3vec14spec_from_iterINtB4_3VecReEINtB2_12SpecFromIterBU_INtNtNtNtCs85QQFkKrybG_4core4iter8adapters3map3MapINtNtNtB1t_5slice4iter4IterNtNtB6_6string6StringENCNvNtCslvhnBjKo0yW_26wasm_bindgen_macro_support6encode13shared_structs_0EE9from_iterB31_, symObjAddr: 0x8D74, symBinAddr: 0x38898, symSize: 0x2C }
  - { offset: 0x31CDF, size: 0x8, addend: 0x0, symName: __RNvXNtNtCsdFlNUEO95cG_5alloc3vec14spec_from_iterINtB4_3VecReEINtB2_12SpecFromIterBU_INtNtNtNtCs85QQFkKrybG_4core4iter8adapters3map3MapINtNtNtB1t_5slice4iter4IterNtNtB6_6string6StringENCNvNtCslvhnBjKo0yW_26wasm_bindgen_macro_support6encode14shared_programs5_0EE9from_iterB31_, symObjAddr: 0x8DA0, symBinAddr: 0x388C4, symSize: 0x14 }
  - { offset: 0x31D1E, size: 0x8, addend: 0x0, symName: __RNvXNtNtCsdFlNUEO95cG_5alloc3vec14spec_from_iterINtB4_3VecReEINtB2_12SpecFromIterBU_INtNtNtNtCs85QQFkKrybG_4core4iter8adapters3map3MapINtNtNtB1t_5slice4iter4IterNtNtB6_6string6StringENCNvNtCslvhnBjKo0yW_26wasm_bindgen_macro_support6encode14shared_variant0EE9from_iterB31_, symObjAddr: 0x8DB4, symBinAddr: 0x388D8, symSize: 0x2C }
  - { offset: 0x31D5C, size: 0x8, addend: 0x0, symName: __RNvXNtNtCsdFlNUEO95cG_5alloc3vec14spec_from_iterINtB4_3VecReEINtB2_12SpecFromIterBU_INtNtNtNtCs85QQFkKrybG_4core4iter8adapters3map3MapINtNtNtB1t_5slice4iter4IterNtNtB6_6string6StringENCNvNtCslvhnBjKo0yW_26wasm_bindgen_macro_support6encode18shared_import_enum0EE9from_iterB31_, symObjAddr: 0x8DE0, symBinAddr: 0x38904, symSize: 0x2C }
  - { offset: 0x31D9A, size: 0x8, addend: 0x0, symName: __RNvXNtNtCsdFlNUEO95cG_5alloc3vec14spec_from_iterINtB4_3VecReEINtB2_12SpecFromIterBU_INtNtNtNtCs85QQFkKrybG_4core4iter8adapters3map3MapINtNtNtB1t_5slice4iter4IterNtNtB6_6string6StringENCNvNtCslvhnBjKo0yW_26wasm_bindgen_macro_support6encode18shared_import_enums_0EE9from_iterB31_, symObjAddr: 0x8E0C, symBinAddr: 0x38930, symSize: 0x2C }
  - { offset: 0x31DD8, size: 0x8, addend: 0x0, symName: __RNvXNtNtCsdFlNUEO95cG_5alloc3vec14spec_from_iterINtB4_3VecReEINtB2_12SpecFromIterBU_INtNtNtNtCs85QQFkKrybG_4core4iter8adapters3map3MapINtNtNtB1t_5slice4iter4IterNtNtB6_6string6StringENCNvNtCslvhnBjKo0yW_26wasm_bindgen_macro_support6encode19shared_struct_field0EE9from_iterB31_, symObjAddr: 0x8E38, symBinAddr: 0x3895C, symSize: 0x2C }
  - { offset: 0x31E16, size: 0x8, addend: 0x0, symName: __RNvXNtNtCsdFlNUEO95cG_5alloc3vec14spec_from_iterINtB4_3VecTINtNtCs85QQFkKrybG_4core4cell4CellbENtNtCslvhnBjKo0yW_26wasm_bindgen_macro_support6parser11BindgenAttrEEINtB2_12SpecFromIterBU_INtNtNtNtB10_4iter8adapters3map3MapINtNtCscwCr4GBBztI_3syn10punctuated8IntoIterB1v_ENCNvXs0_B1x_NtB1x_12BindgenAttrsNtNtB3C_5parse5Parse5parse0EE9from_iterB1z_, symObjAddr: 0x8E64, symBinAddr: 0x38988, symSize: 0x14 }
  - { offset: 0x31E55, size: 0x8, addend: 0x0, symName: __RNvXNtNtCsdFlNUEO95cG_5alloc3vec14spec_from_iterINtB4_3VecmEINtB2_12SpecFromItermINtNtNtCs85QQFkKrybG_4core3ops5range5RangemEE9from_iterCslvhnBjKo0yW_26wasm_bindgen_macro_support, symObjAddr: 0x8E78, symBinAddr: 0x3899C, symSize: 0x24 }
  - { offset: 0x31E93, size: 0x8, addend: 0x0, symName: __RNvXNtNtCsdFlNUEO95cG_5alloc3vec14spec_from_iterINtB4_3VecmEINtB2_12SpecFromItermINtNtNtNtCs85QQFkKrybG_4core4iter8adapters3map3MapNtNtNtB1q_3str4iter5CharsNCNvXs0_NtCslvhnBjKo0yW_26wasm_bindgen_macro_support7codegenNtNtB2E_3ast6StructNtNtCshi3DZH3dfhk_5quote9to_tokens8ToTokens9to_tokens0EE9from_iterB2E_, symObjAddr: 0x8E9C, symBinAddr: 0x389C0, symSize: 0x2C }
  - { offset: 0x31EDD, size: 0x8, addend: 0x0, symName: __RNvXNtNtCsdFlNUEO95cG_5alloc3vec21spec_from_iter_nestedINtB4_3VecNtNtCslvhnBjKo0yW_26wasm_bindgen_macro_support3ast20FunctionArgumentDataEINtB2_18SpecFromIterNestedB11_INtNtNtNtCs85QQFkKrybG_4core4iter8adapters3map3MapINtNtB2L_3zip3ZipINtNtB4_9into_iter8IntoIterNtNtCscwCr4GBBztI_3syn3pat7PatTypeEINtNtB2L_5chain5ChainINtNtB2L_7flatten7FlattenINtNtB2P_6option8IntoIterIBS_NtNtB15_6parser10FnArgAttrsEEEINtNtNtB2N_7sources6repeat6RepeatB5Y_EEENCNvB60_18function_from_decls2_0EE9from_iterB15_, symObjAddr: 0x8EC8, symBinAddr: 0x389EC, symSize: 0x298 }
  - { offset: 0x32197, size: 0x8, addend: 0x0, symName: __RNvXNtNtCsdFlNUEO95cG_5alloc3vec21spec_from_iter_nestedINtB4_3VecNtNtCslvhnBjKo0yW_26wasm_bindgen_macro_support3ast7VariantEINtB2_18SpecFromIterNestedB11_INtNtNtCs85QQFkKrybG_4core4iter8adapters12GenericShuntINtNtB2v_3map3MapINtNtCscwCr4GBBztI_3syn10punctuated4IterNtNtB3G_4data7VariantENCNvXsd_NtB15_6parserNtNtB3G_4item8ItemEnumINtB4J_10MacroParseTQNtCsfwj6t2KTYdc_11proc_macro211TokenStreamNtB4J_12BindgenAttrsEE11macro_parses3_0EINtNtB2z_6result6ResultNtNtB2z_7convert10InfallibleNtNtB15_5error10DiagnosticEEE9from_iterB15_, symObjAddr: 0x9160, symBinAddr: 0x38C84, symSize: 0x298 }
  - { offset: 0x32451, size: 0x8, addend: 0x0, symName: __RNvXNtNtCsdFlNUEO95cG_5alloc3vec21spec_from_iter_nestedINtB4_3VecNtNtCslvhnBjKo0yW_26wasm_bindgen_macro_support6encode11LocalModuleEINtB2_18SpecFromIterNestedB11_INtNtNtCs85QQFkKrybG_4core4iter8adapters12GenericShuntINtNtB2D_3map3MapINtNtNtNtCswz7ZwgBZOU_3std11collections4hash3map6ValuesNtNtB6_6string6StringNtB13_9LocalFileENCNvB13_14shared_programs4_0EINtNtB2H_6result6ResultNtNtB2H_7convert10InfallibleNtNtB15_5error10DiagnosticEEE9from_iterB15_, symObjAddr: 0x93F8, symBinAddr: 0x38F1C, symSize: 0x278 }
  - { offset: 0x3270B, size: 0x8, addend: 0x0, symName: __RNvXNtNtCsdFlNUEO95cG_5alloc3vec21spec_from_iter_nestedINtB4_3VecNtNtCslvhnBjKo0yW_26wasm_bindgen_macro_support6encode12LinkedModuleEINtB2_18SpecFromIterNestedB11_INtNtNtCs85QQFkKrybG_4core4iter8adapters12GenericShuntINtNtB2E_3map3MapINtNtB2E_9enumerate9EnumerateINtNtNtB2I_5slice4iter4IterNtNtB15_3ast12ImportModuleEENCNvB13_14shared_programs3_0EINtNtB2I_6result6ResultNtNtB2I_7convert10InfallibleNtNtB15_5error10DiagnosticEEE9from_iterB15_, symObjAddr: 0x9670, symBinAddr: 0x39194, symSize: 0x278 }
  - { offset: 0x329C5, size: 0x8, addend: 0x0, symName: __RNvXNtNtCsdFlNUEO95cG_5alloc3vec21spec_from_iter_nestedINtB4_3VecNtNtCslvhnBjKo0yW_26wasm_bindgen_macro_support6encode6ExportEINtB2_18SpecFromIterNestedB11_INtNtNtCs85QQFkKrybG_4core4iter8adapters12GenericShuntINtNtB2x_3map3MapINtNtNtB2B_5slice4iter4IterNtNtB15_3ast6ExportENCNvB13_14shared_program0EINtNtB2B_6result6ResultNtNtB2B_7convert10InfallibleNtNtB15_5error10DiagnosticEEE9from_iterB15_, symObjAddr: 0x98E8, symBinAddr: 0x3940C, symSize: 0x278 }
  - { offset: 0x32C7F, size: 0x8, addend: 0x0, symName: __RNvXNtNtCsdFlNUEO95cG_5alloc3vec21spec_from_iter_nestedINtB4_3VecNtNtCslvhnBjKo0yW_26wasm_bindgen_macro_support6encode6ImportEINtB2_18SpecFromIterNestedB11_INtNtNtCs85QQFkKrybG_4core4iter8adapters12GenericShuntINtNtB2x_3map3MapINtNtNtB2B_5slice4iter4IterNtNtB15_3ast6ImportENCNvB13_14shared_programs1_0EINtNtB2B_6result6ResultNtNtB2B_7convert10InfallibleNtNtB15_5error10DiagnosticEEE9from_iterB15_, symObjAddr: 0x9B60, symBinAddr: 0x39684, symSize: 0x274 }
  - { offset: 0x32F39, size: 0x8, addend: 0x0, symName: __RNvXNtNtCsdFlNUEO95cG_5alloc3vec21spec_from_iter_nestedINtB4_3VecNtNtCswz7ZwgBZOU_3std4path7PathBufEINtB2_18SpecFromIterNestedB11_INtNtNtNtCs85QQFkKrybG_4core4iter8adapters6cloned6ClonedINtNtB29_3map3MapINtNtNtNtB15_11collections4hash3map6ValuesNtNtB6_6string6StringNtNtCslvhnBjKo0yW_26wasm_bindgen_macro_support6encode9LocalFileENCNvB4i_6encode0EEE9from_iterB4k_, symObjAddr: 0x9DD4, symBinAddr: 0x398F8, symSize: 0x270 }
  - { offset: 0x331F3, size: 0x8, addend: 0x0, symName: __RNvXNtNtCsdFlNUEO95cG_5alloc3vec21spec_from_iter_nestedINtB4_3VecTINtNtCs85QQFkKrybG_4core4cell4CellbENtNtCslvhnBjKo0yW_26wasm_bindgen_macro_support6parser11BindgenAttrEEINtB2_18SpecFromIterNestedB11_INtNtNtNtB17_4iter8adapters3map3MapINtNtCscwCr4GBBztI_3syn10punctuated8IntoIterB1C_ENCNvXs0_B1E_NtB1E_12BindgenAttrsNtNtB3Q_5parse5Parse5parse0EE9from_iterB1G_, symObjAddr: 0xA044, symBinAddr: 0x39B68, symSize: 0x288 }
  - { offset: 0x334AD, size: 0x8, addend: 0x0, symName: __RNvXNtNtCsdFlNUEO95cG_5alloc3vec21spec_from_iter_nestedINtB4_3VecmEINtB2_18SpecFromIterNestedmINtNtNtNtCs85QQFkKrybG_4core4iter8adapters3map3MapNtNtNtB1D_3str4iter5CharsNCNvXs0_NtCslvhnBjKo0yW_26wasm_bindgen_macro_support7codegenNtNtB2R_3ast6StructNtNtCshi3DZH3dfhk_5quote9to_tokens8ToTokens9to_tokens0EE9from_iterB2R_, symObjAddr: 0xA2CC, symBinAddr: 0x39DF0, symSize: 0x24C }
  - { offset: 0x3376D, size: 0x8, addend: 0x0, symName: __RNvXs_NtNtCsdFlNUEO95cG_5alloc3vec21spec_from_iter_nestedINtB6_3VecNtCsfwj6t2KTYdc_11proc_macro211TokenStreamEINtB4_18SpecFromIterNestedB13_INtNtNtNtCs85QQFkKrybG_4core4iter8adapters3map3MapINtNtNtB2n_5slice4iter4IterNtB15_5IdentENCNvXs5_NtCslvhnBjKo0yW_26wasm_bindgen_macro_support7codegenNtNtB3Q_3ast10StringEnumNtNtCshi3DZH3dfhk_5quote9to_tokens8ToTokens9to_tokens0EE9from_iterB3Q_, symObjAddr: 0xBA14, symBinAddr: 0x3B538, symSize: 0x168 }
  - { offset: 0x33844, size: 0x8, addend: 0x0, symName: __RNvXs_NtNtCsdFlNUEO95cG_5alloc3vec21spec_from_iter_nestedINtB6_3VecNtCsfwj6t2KTYdc_11proc_macro211TokenStreamEINtB4_18SpecFromIterNestedB13_INtNtNtNtCs85QQFkKrybG_4core4iter8adapters3map3MapINtNtNtB2n_5slice4iter4IterNtNtCslvhnBjKo0yW_26wasm_bindgen_macro_support6encode11EncodeChunkENCNvXNtB3x_7codegenNtNtB3x_3ast7ProgramNtB4D_11TryToTokens13try_to_tokenss_0EE9from_iterB3x_, symObjAddr: 0xBB7C, symBinAddr: 0x3B6A0, symSize: 0x168 }
  - { offset: 0x3391B, size: 0x8, addend: 0x0, symName: __RNvXs_NtNtCsdFlNUEO95cG_5alloc3vec21spec_from_iter_nestedINtB6_3VecNtNtCslvhnBjKo0yW_26wasm_bindgen_macro_support6encode11EnumVariantEINtB4_18SpecFromIterNestedB13_INtNtNtNtCs85QQFkKrybG_4core4iter8adapters3map3MapINtNtNtB2L_5slice4iter4IterNtNtB17_3ast7VariantENCNvB15_11shared_enum0EE9from_iterB17_, symObjAddr: 0xBCE4, symBinAddr: 0x3B808, symSize: 0x168 }
  - { offset: 0x339F2, size: 0x8, addend: 0x0, symName: __RNvXs_NtNtCsdFlNUEO95cG_5alloc3vec21spec_from_iter_nestedINtB6_3VecNtNtCslvhnBjKo0yW_26wasm_bindgen_macro_support6encode11StructFieldEINtB4_18SpecFromIterNestedB13_INtNtNtNtCs85QQFkKrybG_4core4iter8adapters3map3MapINtNtNtB2L_5slice4iter4IterNtNtB17_3ast11StructFieldENCNvB15_13shared_struct0EE9from_iterB17_, symObjAddr: 0xBE4C, symBinAddr: 0x3B970, symSize: 0x168 }
  - { offset: 0x33AC9, size: 0x8, addend: 0x0, symName: __RNvXs_NtNtCsdFlNUEO95cG_5alloc3vec21spec_from_iter_nestedINtB6_3VecNtNtCslvhnBjKo0yW_26wasm_bindgen_macro_support6encode20FunctionArgumentDataEINtB4_18SpecFromIterNestedB13_INtNtNtNtCs85QQFkKrybG_4core4iter8adapters3map3MapINtNtB2Q_9enumerate9EnumerateINtNtNtB2U_5slice4iter4IterNtNtB17_3ast20FunctionArgumentDataEENCNvB15_15shared_function0EE9from_iterB17_, symObjAddr: 0xBFB4, symBinAddr: 0x3BAD8, symSize: 0x168 }
  - { offset: 0x33BA0, size: 0x8, addend: 0x0, symName: __RNvXs_NtNtCsdFlNUEO95cG_5alloc3vec21spec_from_iter_nestedINtB6_3VecNtNtCslvhnBjKo0yW_26wasm_bindgen_macro_support6encode4EnumEINtB4_18SpecFromIterNestedB13_INtNtNtNtCs85QQFkKrybG_4core4iter8adapters3map3MapINtNtNtB2D_5slice4iter4IterNtNtB17_3ast4EnumENCNvB15_14shared_programs0_0EE9from_iterB17_, symObjAddr: 0xC11C, symBinAddr: 0x3BC40, symSize: 0x168 }
  - { offset: 0x33C77, size: 0x8, addend: 0x0, symName: __RNvXs_NtNtCsdFlNUEO95cG_5alloc3vec21spec_from_iter_nestedINtB6_3VecNtNtCslvhnBjKo0yW_26wasm_bindgen_macro_support6encode6StructEINtB4_18SpecFromIterNestedB13_INtNtNtNtCs85QQFkKrybG_4core4iter8adapters3map3MapINtNtNtB2F_5slice4iter4IterNtNtB17_3ast6StructENCNvB15_14shared_programs_0EE9from_iterB17_, symObjAddr: 0xC284, symBinAddr: 0x3BDA8, symSize: 0x168 }
  - { offset: 0x33D4E, size: 0x8, addend: 0x0, symName: __RNvXs_NtNtCsdFlNUEO95cG_5alloc3vec21spec_from_iter_nestedINtB6_3VecNtNtCslvhnBjKo0yW_26wasm_bindgen_macro_support6encode9LitOrExprEINtB4_18SpecFromIterNestedB13_INtNtNtNtCs85QQFkKrybG_4core4iter8adapters3map3MapINtNtNtB2I_5slice4iter4IterNtNtB17_3ast9LitOrExprENCNvB15_14shared_programs2_0EE9from_iterB17_, symObjAddr: 0xC3EC, symBinAddr: 0x3BF10, symSize: 0x168 }
  - { offset: 0x33E25, size: 0x8, addend: 0x0, symName: __RNvXs_NtNtCsdFlNUEO95cG_5alloc3vec21spec_from_iter_nestedINtB6_3VecReEINtB4_18SpecFromIterNestedB13_INtNtNtNtCs85QQFkKrybG_4core4iter8adapters3map3MapINtNtNtB1J_5slice4iter4IterNtCsfwj6t2KTYdc_11proc_macro25IdentENCNvNtCslvhnBjKo0yW_26wasm_bindgen_macro_support6encode18shared_import_type0EE9from_iterB3v_, symObjAddr: 0xC554, symBinAddr: 0x3C078, symSize: 0x168 }
  - { offset: 0x33EFC, size: 0x8, addend: 0x0, symName: __RNvXs_NtNtCsdFlNUEO95cG_5alloc3vec21spec_from_iter_nestedINtB6_3VecReEINtB4_18SpecFromIterNestedB13_INtNtNtNtCs85QQFkKrybG_4core4iter8adapters3map3MapINtNtNtB1J_5slice4iter4IterNtNtB8_6string6StringENCNvNtCslvhnBjKo0yW_26wasm_bindgen_macro_support6encode11shared_enums_0EE9from_iterB3h_, symObjAddr: 0xC6BC, symBinAddr: 0x3C1E0, symSize: 0x164 }
  - { offset: 0x33FD2, size: 0x8, addend: 0x0, symName: __RNvXs_NtNtCsdFlNUEO95cG_5alloc3vec21spec_from_iter_nestedINtB6_3VecReEINtB4_18SpecFromIterNestedB13_INtNtNtNtCs85QQFkKrybG_4core4iter8adapters3map3MapINtNtNtB1J_5slice4iter4IterNtNtB8_6string6StringENCNvNtCslvhnBjKo0yW_26wasm_bindgen_macro_support6encode13shared_export0EE9from_iterB3h_, symObjAddr: 0xC820, symBinAddr: 0x3C344, symSize: 0x164 }
  - { offset: 0x340A8, size: 0x8, addend: 0x0, symName: __RNvXs_NtNtCsdFlNUEO95cG_5alloc3vec21spec_from_iter_nestedINtB6_3VecReEINtB4_18SpecFromIterNestedB13_INtNtNtNtCs85QQFkKrybG_4core4iter8adapters3map3MapINtNtNtB1J_5slice4iter4IterNtNtB8_6string6StringENCNvNtCslvhnBjKo0yW_26wasm_bindgen_macro_support6encode13shared_structs_0EE9from_iterB3h_, symObjAddr: 0xC984, symBinAddr: 0x3C4A8, symSize: 0x164 }
  - { offset: 0x3417E, size: 0x8, addend: 0x0, symName: __RNvXs_NtNtCsdFlNUEO95cG_5alloc3vec21spec_from_iter_nestedINtB6_3VecReEINtB4_18SpecFromIterNestedB13_INtNtNtNtCs85QQFkKrybG_4core4iter8adapters3map3MapINtNtNtB1J_5slice4iter4IterNtNtB8_6string6StringENCNvNtCslvhnBjKo0yW_26wasm_bindgen_macro_support6encode14shared_programs5_0EE9from_iterB3h_, symObjAddr: 0xCAE8, symBinAddr: 0x3C60C, symSize: 0x168 }
  - { offset: 0x34255, size: 0x8, addend: 0x0, symName: __RNvXs_NtNtCsdFlNUEO95cG_5alloc3vec21spec_from_iter_nestedINtB6_3VecReEINtB4_18SpecFromIterNestedB13_INtNtNtNtCs85QQFkKrybG_4core4iter8adapters3map3MapINtNtNtB1J_5slice4iter4IterNtNtB8_6string6StringENCNvNtCslvhnBjKo0yW_26wasm_bindgen_macro_support6encode14shared_variant0EE9from_iterB3h_, symObjAddr: 0xCC50, symBinAddr: 0x3C774, symSize: 0x164 }
  - { offset: 0x3432B, size: 0x8, addend: 0x0, symName: __RNvXs_NtNtCsdFlNUEO95cG_5alloc3vec21spec_from_iter_nestedINtB6_3VecReEINtB4_18SpecFromIterNestedB13_INtNtNtNtCs85QQFkKrybG_4core4iter8adapters3map3MapINtNtNtB1J_5slice4iter4IterNtNtB8_6string6StringENCNvNtCslvhnBjKo0yW_26wasm_bindgen_macro_support6encode18shared_import_enum0EE9from_iterB3h_, symObjAddr: 0xCDB4, symBinAddr: 0x3C8D8, symSize: 0x164 }
  - { offset: 0x34401, size: 0x8, addend: 0x0, symName: __RNvXs_NtNtCsdFlNUEO95cG_5alloc3vec21spec_from_iter_nestedINtB6_3VecReEINtB4_18SpecFromIterNestedB13_INtNtNtNtCs85QQFkKrybG_4core4iter8adapters3map3MapINtNtNtB1J_5slice4iter4IterNtNtB8_6string6StringENCNvNtCslvhnBjKo0yW_26wasm_bindgen_macro_support6encode18shared_import_enums_0EE9from_iterB3h_, symObjAddr: 0xCF18, symBinAddr: 0x3CA3C, symSize: 0x164 }
  - { offset: 0x344D7, size: 0x8, addend: 0x0, symName: __RNvXs_NtNtCsdFlNUEO95cG_5alloc3vec21spec_from_iter_nestedINtB6_3VecReEINtB4_18SpecFromIterNestedB13_INtNtNtNtCs85QQFkKrybG_4core4iter8adapters3map3MapINtNtNtB1J_5slice4iter4IterNtNtB8_6string6StringENCNvNtCslvhnBjKo0yW_26wasm_bindgen_macro_support6encode19shared_struct_field0EE9from_iterB3h_, symObjAddr: 0xD07C, symBinAddr: 0x3CBA0, symSize: 0x164 }
  - { offset: 0x345AD, size: 0x8, addend: 0x0, symName: __RNvXs_NtNtCsdFlNUEO95cG_5alloc3vec21spec_from_iter_nestedINtB6_3VecmEINtB4_18SpecFromIterNestedmINtNtNtCs85QQFkKrybG_4core3ops5range5RangemEE9from_iterCslvhnBjKo0yW_26wasm_bindgen_macro_support, symObjAddr: 0xD1E0, symBinAddr: 0x3CD04, symSize: 0x160 }
  - { offset: 0x3468A, size: 0x8, addend: 0x0, symName: __RNvXs7_NtCsdFlNUEO95cG_5alloc3vecINtB5_3VecNtNtCscwCr4GBBztI_3syn4item8ImplItemENtNtNtCs85QQFkKrybG_4core3ops5deref8DerefMut9deref_mutCslvhnBjKo0yW_26wasm_bindgen_macro_support, symObjAddr: 0xAAF8, symBinAddr: 0x3A61C, symSize: 0x24 }
  - { offset: 0x346CA, size: 0x8, addend: 0x0, symName: __RNvXs7_NtCsdFlNUEO95cG_5alloc3vecINtB5_3VecNtNtCslvhnBjKo0yW_26wasm_bindgen_macro_support6encode11EncodeChunkENtNtNtCs85QQFkKrybG_4core3ops5deref8DerefMut9deref_mutBJ_, symObjAddr: 0xAB1C, symBinAddr: 0x3A640, symSize: 0x24 }
  - { offset: 0x3470A, size: 0x8, addend: 0x0, symName: __RNvXs7_NtCsdFlNUEO95cG_5alloc3vecINtB5_3VecTNtNtCscwCr4GBBztI_3syn2ty4TypeNtNtBK_5token5CommaEENtNtNtCs85QQFkKrybG_4core3ops5deref8DerefMut9deref_mutCslvhnBjKo0yW_26wasm_bindgen_macro_support, symObjAddr: 0xAB40, symBinAddr: 0x3A664, symSize: 0x24 }
  - { offset: 0x3474A, size: 0x8, addend: 0x0, symName: __RNvXs7_NtCsdFlNUEO95cG_5alloc3vecINtB5_3VecTNtNtCscwCr4GBBztI_3syn2ty9BareFnArgNtNtBK_5token5CommaEENtNtNtCs85QQFkKrybG_4core3ops5deref8DerefMut9deref_mutCslvhnBjKo0yW_26wasm_bindgen_macro_support, symObjAddr: 0xAB64, symBinAddr: 0x3A688, symSize: 0x24 }
  - { offset: 0x3478A, size: 0x8, addend: 0x0, symName: __RNvXs7_NtCsdFlNUEO95cG_5alloc3vecINtB5_3VecTNtNtCscwCr4GBBztI_3syn3pat3PatNtNtBK_5token2OrEENtNtNtCs85QQFkKrybG_4core3ops5deref8DerefMut9deref_mutCslvhnBjKo0yW_26wasm_bindgen_macro_support, symObjAddr: 0xAB88, symBinAddr: 0x3A6AC, symSize: 0x24 }
  - { offset: 0x347CA, size: 0x8, addend: 0x0, symName: __RNvXs7_NtCsdFlNUEO95cG_5alloc3vecINtB5_3VecTNtNtCscwCr4GBBztI_3syn3pat3PatNtNtBK_5token5CommaEENtNtNtCs85QQFkKrybG_4core3ops5deref8DerefMut9deref_mutCslvhnBjKo0yW_26wasm_bindgen_macro_support, symObjAddr: 0xABAC, symBinAddr: 0x3A6D0, symSize: 0x24 }
  - { offset: 0x3480A, size: 0x8, addend: 0x0, symName: __RNvXs7_NtCsdFlNUEO95cG_5alloc3vecINtB5_3VecTNtNtCscwCr4GBBztI_3syn3pat8FieldPatNtNtBK_5token5CommaEENtNtNtCs85QQFkKrybG_4core3ops5deref8DerefMut9deref_mutCslvhnBjKo0yW_26wasm_bindgen_macro_support, symObjAddr: 0xABD0, symBinAddr: 0x3A6F4, symSize: 0x24 }
  - { offset: 0x3484A, size: 0x8, addend: 0x0, symName: __RNvXs7_NtCsdFlNUEO95cG_5alloc3vecINtB5_3VecTNtNtCscwCr4GBBztI_3syn4data7VariantNtNtBK_5token5CommaEENtNtNtCs85QQFkKrybG_4core3ops5deref8DerefMut9deref_mutCslvhnBjKo0yW_26wasm_bindgen_macro_support, symObjAddr: 0xABF4, symBinAddr: 0x3A718, symSize: 0x24 }
  - { offset: 0x3488A, size: 0x8, addend: 0x0, symName: __RNvXs7_NtCsdFlNUEO95cG_5alloc3vecINtB5_3VecTNtNtCscwCr4GBBztI_3syn4expr10FieldValueNtNtBK_5token5CommaEENtNtNtCs85QQFkKrybG_4core3ops5deref8DerefMut9deref_mutCslvhnBjKo0yW_26wasm_bindgen_macro_support, symObjAddr: 0xAC18, symBinAddr: 0x3A73C, symSize: 0x24 }
  - { offset: 0x348CA, size: 0x8, addend: 0x0, symName: __RNvXs7_NtCsdFlNUEO95cG_5alloc3vecINtB5_3VecTNtNtCscwCr4GBBztI_3syn4expr4ExprNtNtBK_5token5CommaEENtNtNtCs85QQFkKrybG_4core3ops5deref8DerefMut9deref_mutCslvhnBjKo0yW_26wasm_bindgen_macro_support, symObjAddr: 0xAC3C, symBinAddr: 0x3A760, symSize: 0x24 }
  - { offset: 0x3490A, size: 0x8, addend: 0x0, symName: __RNvXs7_NtCsdFlNUEO95cG_5alloc3vecINtB5_3VecTNtNtCscwCr4GBBztI_3syn4item5FnArgNtNtBK_5token5CommaEENtNtNtCs85QQFkKrybG_4core3ops5deref8DerefMut9deref_mutCslvhnBjKo0yW_26wasm_bindgen_macro_support, symObjAddr: 0xAC60, symBinAddr: 0x3A784, symSize: 0x24 }
  - { offset: 0x3494A, size: 0x8, addend: 0x0, symName: __RNvXs7_NtCsdFlNUEO95cG_5alloc3vecINtB5_3VecTNtNtCscwCr4GBBztI_3syn4item7UseTreeNtNtBK_5token5CommaEENtNtNtCs85QQFkKrybG_4core3ops5deref8DerefMut9deref_mutCslvhnBjKo0yW_26wasm_bindgen_macro_support, symObjAddr: 0xAC84, symBinAddr: 0x3A7A8, symSize: 0x24 }
  - { offset: 0x3498A, size: 0x8, addend: 0x0, symName: __RNvXs7_NtCsdFlNUEO95cG_5alloc3vecINtB5_3VecTNtNtCscwCr4GBBztI_3syn4path15GenericArgumentNtNtBK_5token5CommaEENtNtNtCs85QQFkKrybG_4core3ops5deref8DerefMut9deref_mutCslvhnBjKo0yW_26wasm_bindgen_macro_support, symObjAddr: 0xACA8, symBinAddr: 0x3A7CC, symSize: 0x24 }
  - { offset: 0x349CA, size: 0x8, addend: 0x0, symName: __RNvXs7_NtCsdFlNUEO95cG_5alloc3vecINtB5_3VecTNtNtCscwCr4GBBztI_3syn8generics13CapturedParamNtNtBK_5token5CommaEENtNtNtCs85QQFkKrybG_4core3ops5deref8DerefMut9deref_mutCslvhnBjKo0yW_26wasm_bindgen_macro_support, symObjAddr: 0xACCC, symBinAddr: 0x3A7F0, symSize: 0x24 }
  - { offset: 0x34A0A, size: 0x8, addend: 0x0, symName: __RNvXs7_NtCsdFlNUEO95cG_5alloc3vecINtB5_3VecTNtNtCscwCr4GBBztI_3syn8generics14TypeParamBoundNtNtBK_5token4PlusEENtNtNtCs85QQFkKrybG_4core3ops5deref8DerefMut9deref_mutCslvhnBjKo0yW_26wasm_bindgen_macro_support, symObjAddr: 0xACF0, symBinAddr: 0x3A814, symSize: 0x24 }
  - { offset: 0x34A4A, size: 0x8, addend: 0x0, symName: __RNvXs7_NtCsdFlNUEO95cG_5alloc3vecINtB5_3VecTNtNtCscwCr4GBBztI_3syn8generics14WherePredicateNtNtBK_5token5CommaEENtNtNtCs85QQFkKrybG_4core3ops5deref8DerefMut9deref_mutCslvhnBjKo0yW_26wasm_bindgen_macro_support, symObjAddr: 0xAD14, symBinAddr: 0x3A838, symSize: 0x24 }
  - { offset: 0x34A8A, size: 0x8, addend: 0x0, symName: __RNvXs7_NtCsdFlNUEO95cG_5alloc3vecINtB5_3VecTNtNtCscwCr4GBBztI_3syn8lifetime8LifetimeNtNtBK_5token4PlusEENtNtNtCs85QQFkKrybG_4core3ops5deref8DerefMut9deref_mutCslvhnBjKo0yW_26wasm_bindgen_macro_support, symObjAddr: 0xAD38, symBinAddr: 0x3A85C, symSize: 0x24 }
  - { offset: 0x34C20, size: 0x8, addend: 0x0, symName: __RNvXs9_NtCsdFlNUEO95cG_5alloc3vecINtB5_3VecNtNtB7_6string6StringENtNtCs85QQFkKrybG_4core5clone5Clone5cloneCslvhnBjKo0yW_26wasm_bindgen_macro_support, symObjAddr: 0xB59C, symBinAddr: 0x3B0C0, symSize: 0x90 }
  - { offset: 0x34DF1, size: 0x8, addend: 0x0, symName: __RNvXs9_NtCsdFlNUEO95cG_5alloc3vecINtB5_3VechENtNtCs85QQFkKrybG_4core5clone5Clone5cloneCslvhnBjKo0yW_26wasm_bindgen_macro_support, symObjAddr: 0xB62C, symBinAddr: 0x3B150, symSize: 0x8C }
  - { offset: 0x34FCD, size: 0x8, addend: 0x0, symName: __RNvXs_NtNtCsdFlNUEO95cG_5alloc3vec16in_place_collectINtB6_3VecNtNtCslvhnBjKo0yW_26wasm_bindgen_macro_support3ast20FunctionArgumentDataEINtNtB6_14spec_from_iter12SpecFromIterBY_INtNtNtNtCs85QQFkKrybG_4core4iter8adapters3map3MapINtNtB2T_3zip3ZipINtNtB6_9into_iter8IntoIterNtNtCscwCr4GBBztI_3syn3pat7PatTypeEINtNtB2T_5chain5ChainINtNtB2T_7flatten7FlattenINtNtB2X_6option8IntoIterIBP_NtNtB12_6parser10FnArgAttrsEEEINtNtNtB2V_7sources6repeat6RepeatB66_EEENCNvB68_18function_from_decls2_0EE9from_iterB12_, symObjAddr: 0xB9EC, symBinAddr: 0x3B510, symSize: 0x28 }
  - { offset: 0x35030, size: 0x8, addend: 0x0, symName: __RNvXsb_NtCsdFlNUEO95cG_5alloc3vecINtB5_3VecNtCsfwj6t2KTYdc_11proc_macro211TokenStreamEINtNtNtCs85QQFkKrybG_4core3ops5index5IndexNtNtB1r_5range9RangeFullE5indexCslvhnBjKo0yW_26wasm_bindgen_macro_support, symObjAddr: 0xD340, symBinAddr: 0x3CE64, symSize: 0x80 }
  - { offset: 0x351B2, size: 0x8, addend: 0x0, symName: __RNvXsb_NtCsdFlNUEO95cG_5alloc3vecINtB5_3VecNtCsfwj6t2KTYdc_11proc_macro24SpanEINtNtNtCs85QQFkKrybG_4core3ops5index5IndexNtNtB1j_5range9RangeFullE5indexCslvhnBjKo0yW_26wasm_bindgen_macro_support, symObjAddr: 0xD3C0, symBinAddr: 0x3CEE4, symSize: 0x7C }
  - { offset: 0x35334, size: 0x8, addend: 0x0, symName: __RNvXsb_NtCsdFlNUEO95cG_5alloc3vecINtB5_3VecNtCsfwj6t2KTYdc_11proc_macro24SpanEINtNtNtCs85QQFkKrybG_4core3ops5index5IndexjE5indexCslvhnBjKo0yW_26wasm_bindgen_macro_support, symObjAddr: 0xD43C, symBinAddr: 0x3CF60, symSize: 0x88 }
  - { offset: 0x354B6, size: 0x8, addend: 0x0, symName: __RNvXsb_NtCsdFlNUEO95cG_5alloc3vecINtB5_3VecNtCsfwj6t2KTYdc_11proc_macro25IdentEINtNtNtCs85QQFkKrybG_4core3ops5index5IndexNtNtB1k_5range9RangeFullE5indexCslvhnBjKo0yW_26wasm_bindgen_macro_support, symObjAddr: 0xD4C4, symBinAddr: 0x3CFE8, symSize: 0x80 }
  - { offset: 0x35638, size: 0x8, addend: 0x0, symName: __RNvXsb_NtCsdFlNUEO95cG_5alloc3vecINtB5_3VecNtNtB7_6string6StringEINtNtNtCs85QQFkKrybG_4core3ops5index5IndexjE5indexCslvhnBjKo0yW_26wasm_bindgen_macro_support, symObjAddr: 0xD544, symBinAddr: 0x3D068, symSize: 0x8C }
  - { offset: 0x357BA, size: 0x8, addend: 0x0, symName: __RNvXsb_NtCsdFlNUEO95cG_5alloc3vecINtB5_3VecNtNtCslvhnBjKo0yW_26wasm_bindgen_macro_support3ast12ImportModuleEINtNtNtCs85QQFkKrybG_4core3ops5index5IndexjE5indexBJ_, symObjAddr: 0xD5D0, symBinAddr: 0x3D0F4, symSize: 0x8C }
  - { offset: 0x35942, size: 0x8, addend: 0x0, symName: __RNvXse_NtCsdFlNUEO95cG_5alloc3vecINtB5_3VecNtCsfwj6t2KTYdc_11proc_macro211TokenStreamENtNtNtNtCs85QQFkKrybG_4core4iter6traits7collect12IntoIterator9into_iterCslvhnBjKo0yW_26wasm_bindgen_macro_support, symObjAddr: 0xD6E8, symBinAddr: 0x3D180, symSize: 0xDC }
  - { offset: 0x35BD4, size: 0x8, addend: 0x0, symName: __RNvXse_NtCsdFlNUEO95cG_5alloc3vecINtB5_3VecNtNtCscwCr4GBBztI_3syn3pat7PatTypeENtNtNtNtCs85QQFkKrybG_4core4iter6traits7collect12IntoIterator9into_iterCslvhnBjKo0yW_26wasm_bindgen_macro_support, symObjAddr: 0xD7C4, symBinAddr: 0x3D25C, symSize: 0xE4 }
  - { offset: 0x35E66, size: 0x8, addend: 0x0, symName: __RNvXse_NtCsdFlNUEO95cG_5alloc3vecINtB5_3VecNtNtCscwCr4GBBztI_3syn4item11ForeignItemENtNtNtNtCs85QQFkKrybG_4core4iter6traits7collect12IntoIterator9into_iterCslvhnBjKo0yW_26wasm_bindgen_macro_support, symObjAddr: 0xD8A8, symBinAddr: 0x3D340, symSize: 0xE4 }
  - { offset: 0x360F8, size: 0x8, addend: 0x0, symName: __RNvXse_NtCsdFlNUEO95cG_5alloc3vecINtB5_3VecNtNtCscwCr4GBBztI_3syn4item5FnArgENtNtNtNtCs85QQFkKrybG_4core4iter6traits7collect12IntoIterator9into_iterCslvhnBjKo0yW_26wasm_bindgen_macro_support, symObjAddr: 0xD98C, symBinAddr: 0x3D424, symSize: 0xE4 }
  - { offset: 0x3638A, size: 0x8, addend: 0x0, symName: __RNvXse_NtCsdFlNUEO95cG_5alloc3vecINtB5_3VecNtNtCslvhnBjKo0yW_26wasm_bindgen_macro_support6parser10FnArgAttrsENtNtNtNtCs85QQFkKrybG_4core4iter6traits7collect12IntoIterator9into_iterBJ_, symObjAddr: 0xDA70, symBinAddr: 0x3D508, symSize: 0xE4 }
  - { offset: 0x3661C, size: 0x8, addend: 0x0, symName: __RNvXse_NtCsdFlNUEO95cG_5alloc3vecINtB5_3VecNtNtCslvhnBjKo0yW_26wasm_bindgen_macro_support6parser11BindgenAttrENtNtNtNtCs85QQFkKrybG_4core4iter6traits7collect12IntoIterator9into_iterBJ_, symObjAddr: 0xDB54, symBinAddr: 0x3D5EC, symSize: 0xE4 }
  - { offset: 0x368AE, size: 0x8, addend: 0x0, symName: __RNvXse_NtCsdFlNUEO95cG_5alloc3vecINtB5_3VecTNtNtCscwCr4GBBztI_3syn4item5FnArgNtNtBK_5token5CommaEENtNtNtNtCs85QQFkKrybG_4core4iter6traits7collect12IntoIterator9into_iterCslvhnBjKo0yW_26wasm_bindgen_macro_support, symObjAddr: 0xDC38, symBinAddr: 0x3D6D0, symSize: 0xE4 }
  - { offset: 0x36B40, size: 0x8, addend: 0x0, symName: __RNvXse_NtCsdFlNUEO95cG_5alloc3vecINtB5_3VecTNtNtCslvhnBjKo0yW_26wasm_bindgen_macro_support6parser11BindgenAttrNtNtCscwCr4GBBztI_3syn5token5CommaEENtNtNtNtCs85QQFkKrybG_4core4iter6traits7collect12IntoIterator9into_iterBK_, symObjAddr: 0xDD1C, symBinAddr: 0x3D7B4, symSize: 0xE4 }
  - { offset: 0x36DD8, size: 0x8, addend: 0x0, symName: __RNvXsf_NtCsdFlNUEO95cG_5alloc3vecRINtB5_3VecNtNtB7_6string6StringENtNtNtNtCs85QQFkKrybG_4core4iter6traits7collect12IntoIterator9into_iterCslvhnBjKo0yW_26wasm_bindgen_macro_support, symObjAddr: 0xDE00, symBinAddr: 0x3D898, symSize: 0xA4 }
  - { offset: 0x37005, size: 0x8, addend: 0x0, symName: __RNvXsf_NtCsdFlNUEO95cG_5alloc3vecRINtB5_3VecNtNtCscwCr4GBBztI_3syn4expr3ArmENtNtNtNtCs85QQFkKrybG_4core4iter6traits7collect12IntoIterator9into_iterCslvhnBjKo0yW_26wasm_bindgen_macro_support, symObjAddr: 0xDEA4, symBinAddr: 0x3D93C, symSize: 0xA4 }
  - { offset: 0x37232, size: 0x8, addend: 0x0, symName: __RNvXsf_NtCsdFlNUEO95cG_5alloc3vecRINtB5_3VecNtNtCslvhnBjKo0yW_26wasm_bindgen_macro_support5error10DiagnosticENtNtNtNtCs85QQFkKrybG_4core4iter6traits7collect12IntoIterator9into_iterBK_, symObjAddr: 0xDF48, symBinAddr: 0x3D9E0, symSize: 0xA4 }
  - { offset: 0x3745F, size: 0x8, addend: 0x0, symName: __RNvXsf_NtCsdFlNUEO95cG_5alloc3vecRINtB5_3VecNtNtCslvhnBjKo0yW_26wasm_bindgen_macro_support6encode11EnumVariantENtNtNtNtCs85QQFkKrybG_4core4iter6traits7collect12IntoIterator9into_iterBK_, symObjAddr: 0xDFEC, symBinAddr: 0x3DA84, symSize: 0xA4 }
  - { offset: 0x3768C, size: 0x8, addend: 0x0, symName: __RNvXsf_NtCsdFlNUEO95cG_5alloc3vecRINtB5_3VecNtNtCslvhnBjKo0yW_26wasm_bindgen_macro_support6encode11LocalModuleENtNtNtNtCs85QQFkKrybG_4core4iter6traits7collect12IntoIterator9into_iterBK_, symObjAddr: 0xE090, symBinAddr: 0x3DB28, symSize: 0xA4 }
  - { offset: 0x378B9, size: 0x8, addend: 0x0, symName: __RNvXsf_NtCsdFlNUEO95cG_5alloc3vecRINtB5_3VecNtNtCslvhnBjKo0yW_26wasm_bindgen_macro_support6encode11StructFieldENtNtNtNtCs85QQFkKrybG_4core4iter6traits7collect12IntoIterator9into_iterBK_, symObjAddr: 0xE134, symBinAddr: 0x3DBCC, symSize: 0xA4 }
  - { offset: 0x37AE6, size: 0x8, addend: 0x0, symName: __RNvXsf_NtCsdFlNUEO95cG_5alloc3vecRINtB5_3VecNtNtCslvhnBjKo0yW_26wasm_bindgen_macro_support6encode12LinkedModuleENtNtNtNtCs85QQFkKrybG_4core4iter6traits7collect12IntoIterator9into_iterBK_, symObjAddr: 0xE1D8, symBinAddr: 0x3DC70, symSize: 0xA4 }
  - { offset: 0x37D13, size: 0x8, addend: 0x0, symName: __RNvXsf_NtCsdFlNUEO95cG_5alloc3vecRINtB5_3VecNtNtCslvhnBjKo0yW_26wasm_bindgen_macro_support6encode20FunctionArgumentDataENtNtNtNtCs85QQFkKrybG_4core4iter6traits7collect12IntoIterator9into_iterBK_, symObjAddr: 0xE27C, symBinAddr: 0x3DD14, symSize: 0xA4 }
  - { offset: 0x37F40, size: 0x8, addend: 0x0, symName: __RNvXsf_NtCsdFlNUEO95cG_5alloc3vecRINtB5_3VecNtNtCslvhnBjKo0yW_26wasm_bindgen_macro_support6encode4EnumENtNtNtNtCs85QQFkKrybG_4core4iter6traits7collect12IntoIterator9into_iterBK_, symObjAddr: 0xE320, symBinAddr: 0x3DDB8, symSize: 0xA4 }
  - { offset: 0x3816D, size: 0x8, addend: 0x0, symName: __RNvXsf_NtCsdFlNUEO95cG_5alloc3vecRINtB5_3VecNtNtCslvhnBjKo0yW_26wasm_bindgen_macro_support6encode6ExportENtNtNtNtCs85QQFkKrybG_4core4iter6traits7collect12IntoIterator9into_iterBK_, symObjAddr: 0xE3C4, symBinAddr: 0x3DE5C, symSize: 0xA4 }
  - { offset: 0x3839A, size: 0x8, addend: 0x0, symName: __RNvXsf_NtCsdFlNUEO95cG_5alloc3vecRINtB5_3VecNtNtCslvhnBjKo0yW_26wasm_bindgen_macro_support6encode6ImportENtNtNtNtCs85QQFkKrybG_4core4iter6traits7collect12IntoIterator9into_iterBK_, symObjAddr: 0xE468, symBinAddr: 0x3DF00, symSize: 0xA4 }
  - { offset: 0x385C7, size: 0x8, addend: 0x0, symName: __RNvXsf_NtCsdFlNUEO95cG_5alloc3vecRINtB5_3VecNtNtCslvhnBjKo0yW_26wasm_bindgen_macro_support6encode6StructENtNtNtNtCs85QQFkKrybG_4core4iter6traits7collect12IntoIterator9into_iterBK_, symObjAddr: 0xE50C, symBinAddr: 0x3DFA4, symSize: 0xA4 }
  - { offset: 0x387F4, size: 0x8, addend: 0x0, symName: __RNvXsf_NtCsdFlNUEO95cG_5alloc3vecRINtB5_3VecNtNtCslvhnBjKo0yW_26wasm_bindgen_macro_support6encode9LitOrExprENtNtNtNtCs85QQFkKrybG_4core4iter6traits7collect12IntoIterator9into_iterBK_, symObjAddr: 0xE5B0, symBinAddr: 0x3E048, symSize: 0x9C }
  - { offset: 0x38A21, size: 0x8, addend: 0x0, symName: __RNvXsf_NtCsdFlNUEO95cG_5alloc3vecRINtB5_3VecReENtNtNtNtCs85QQFkKrybG_4core4iter6traits7collect12IntoIterator9into_iterCslvhnBjKo0yW_26wasm_bindgen_macro_support, symObjAddr: 0xE64C, symBinAddr: 0x3E0E4, symSize: 0x9C }
  - { offset: 0x38C54, size: 0x8, addend: 0x0, symName: __RNvXsg_NtCsdFlNUEO95cG_5alloc3vecQINtB5_3VecNtNtCscwCr4GBBztI_3syn4attr9AttributeENtNtNtNtCs85QQFkKrybG_4core4iter6traits7collect12IntoIterator9into_iterCslvhnBjKo0yW_26wasm_bindgen_macro_support, symObjAddr: 0xE6E8, symBinAddr: 0x3E180, symSize: 0xA4 }
  - { offset: 0x38E70, size: 0x8, addend: 0x0, symName: __RNvXsg_NtCsdFlNUEO95cG_5alloc3vecQINtB5_3VecNtNtCscwCr4GBBztI_3syn4expr3ArmENtNtNtNtCs85QQFkKrybG_4core4iter6traits7collect12IntoIterator9into_iterCslvhnBjKo0yW_26wasm_bindgen_macro_support, symObjAddr: 0xE78C, symBinAddr: 0x3E224, symSize: 0xAC }
  - { offset: 0x3908C, size: 0x8, addend: 0x0, symName: __RNvXsg_NtCsdFlNUEO95cG_5alloc3vecQINtB5_3VecNtNtCscwCr4GBBztI_3syn4item11ForeignItemENtNtNtNtCs85QQFkKrybG_4core4iter6traits7collect12IntoIterator9into_iterCslvhnBjKo0yW_26wasm_bindgen_macro_support, symObjAddr: 0xE838, symBinAddr: 0x3E2D0, symSize: 0xAC }
  - { offset: 0x392A8, size: 0x8, addend: 0x0, symName: __RNvXsg_NtCsdFlNUEO95cG_5alloc3vecQINtB5_3VecNtNtCscwCr4GBBztI_3syn4item4ItemENtNtNtNtCs85QQFkKrybG_4core4iter6traits7collect12IntoIterator9into_iterCslvhnBjKo0yW_26wasm_bindgen_macro_support, symObjAddr: 0xE8E4, symBinAddr: 0x3E37C, symSize: 0xAC }
  - { offset: 0x394C4, size: 0x8, addend: 0x0, symName: __RNvXsg_NtCsdFlNUEO95cG_5alloc3vecQINtB5_3VecNtNtCscwCr4GBBztI_3syn4item8ImplItemENtNtNtNtCs85QQFkKrybG_4core4iter6traits7collect12IntoIterator9into_iterCslvhnBjKo0yW_26wasm_bindgen_macro_support, symObjAddr: 0xE990, symBinAddr: 0x3E428, symSize: 0xAC }
  - { offset: 0x396E0, size: 0x8, addend: 0x0, symName: __RNvXsg_NtCsdFlNUEO95cG_5alloc3vecQINtB5_3VecNtNtCscwCr4GBBztI_3syn4item9TraitItemENtNtNtNtCs85QQFkKrybG_4core4iter6traits7collect12IntoIterator9into_iterCslvhnBjKo0yW_26wasm_bindgen_macro_support, symObjAddr: 0xEA3C, symBinAddr: 0x3E4D4, symSize: 0xAC }
  - { offset: 0x398FC, size: 0x8, addend: 0x0, symName: __RNvXsg_NtCsdFlNUEO95cG_5alloc3vecQINtB5_3VecNtNtCscwCr4GBBztI_3syn4stmt4StmtENtNtNtNtCs85QQFkKrybG_4core4iter6traits7collect12IntoIterator9into_iterCslvhnBjKo0yW_26wasm_bindgen_macro_support, symObjAddr: 0xEAE8, symBinAddr: 0x3E580, symSize: 0xAC }
  - { offset: 0x39B1E, size: 0x8, addend: 0x0, symName: __RNvXsn_NtCsdFlNUEO95cG_5alloc3vecINtB5_3VecNtCsfwj6t2KTYdc_11proc_macro211TokenStreamENtNtNtCs85QQFkKrybG_4core3ops4drop4Drop4dropCslvhnBjKo0yW_26wasm_bindgen_macro_support, symObjAddr: 0xEB94, symBinAddr: 0x3E62C, symSize: 0x38 }
  - { offset: 0x39BCE, size: 0x8, addend: 0x0, symName: __RNvXsn_NtCsdFlNUEO95cG_5alloc3vecINtB5_3VecNtCsfwj6t2KTYdc_11proc_macro24SpanENtNtNtCs85QQFkKrybG_4core3ops4drop4Drop4dropCslvhnBjKo0yW_26wasm_bindgen_macro_support, symObjAddr: 0xEBCC, symBinAddr: 0x3E664, symSize: 0x24 }
  - { offset: 0x39C7E, size: 0x8, addend: 0x0, symName: __RNvXsn_NtCsdFlNUEO95cG_5alloc3vecINtB5_3VecNtCsfwj6t2KTYdc_11proc_macro25IdentENtNtNtCs85QQFkKrybG_4core3ops4drop4Drop4dropCslvhnBjKo0yW_26wasm_bindgen_macro_support, symObjAddr: 0xEBF0, symBinAddr: 0x3E688, symSize: 0x38 }
  - { offset: 0x39D2E, size: 0x8, addend: 0x0, symName: __RNvXsn_NtCsdFlNUEO95cG_5alloc3vecINtB5_3VecNtNtB7_6string6StringENtNtNtCs85QQFkKrybG_4core3ops4drop4Drop4dropCslvhnBjKo0yW_26wasm_bindgen_macro_support, symObjAddr: 0xEC28, symBinAddr: 0x3E6C0, symSize: 0x38 }
  - { offset: 0x39DDE, size: 0x8, addend: 0x0, symName: __RNvXsn_NtCsdFlNUEO95cG_5alloc3vecINtB5_3VecNtNtCscwCr4GBBztI_3syn3pat7PatTypeENtNtNtCs85QQFkKrybG_4core3ops4drop4Drop4dropCslvhnBjKo0yW_26wasm_bindgen_macro_support, symObjAddr: 0xEC60, symBinAddr: 0x3E6F8, symSize: 0x38 }
  - { offset: 0x39E8E, size: 0x8, addend: 0x0, symName: __RNvXsn_NtCsdFlNUEO95cG_5alloc3vecINtB5_3VecNtNtCscwCr4GBBztI_3syn4item5FnArgENtNtNtCs85QQFkKrybG_4core3ops4drop4Drop4dropCslvhnBjKo0yW_26wasm_bindgen_macro_support, symObjAddr: 0xEC98, symBinAddr: 0x3E730, symSize: 0x38 }
  - { offset: 0x39F3E, size: 0x8, addend: 0x0, symName: __RNvXsn_NtCsdFlNUEO95cG_5alloc3vecINtB5_3VecNtNtCscwCr4GBBztI_3syn4path4PathENtNtNtCs85QQFkKrybG_4core3ops4drop4Drop4dropCslvhnBjKo0yW_26wasm_bindgen_macro_support, symObjAddr: 0xECD0, symBinAddr: 0x3E768, symSize: 0x38 }
  - { offset: 0x39FEE, size: 0x8, addend: 0x0, symName: __RNvXsn_NtCsdFlNUEO95cG_5alloc3vecINtB5_3VecNtNtCslvhnBjKo0yW_26wasm_bindgen_macro_support3ast11StructFieldENtNtNtCs85QQFkKrybG_4core3ops4drop4Drop4dropBJ_, symObjAddr: 0xED08, symBinAddr: 0x3E7A0, symSize: 0x38 }
  - { offset: 0x3A09E, size: 0x8, addend: 0x0, symName: __RNvXsn_NtCsdFlNUEO95cG_5alloc3vecINtB5_3VecNtNtCslvhnBjKo0yW_26wasm_bindgen_macro_support3ast12ImportModuleENtNtNtCs85QQFkKrybG_4core3ops4drop4Drop4dropBJ_, symObjAddr: 0xED40, symBinAddr: 0x3E7D8, symSize: 0x38 }
  - { offset: 0x3A14E, size: 0x8, addend: 0x0, symName: __RNvXsn_NtCsdFlNUEO95cG_5alloc3vecINtB5_3VecNtNtCslvhnBjKo0yW_26wasm_bindgen_macro_support3ast20FunctionArgumentDataENtNtNtCs85QQFkKrybG_4core3ops4drop4Drop4dropBJ_, symObjAddr: 0xED78, symBinAddr: 0x3E810, symSize: 0x38 }
  - { offset: 0x3A1FE, size: 0x8, addend: 0x0, symName: __RNvXsn_NtCsdFlNUEO95cG_5alloc3vecINtB5_3VecNtNtCslvhnBjKo0yW_26wasm_bindgen_macro_support3ast4EnumENtNtNtCs85QQFkKrybG_4core3ops4drop4Drop4dropBJ_, symObjAddr: 0xEDB0, symBinAddr: 0x3E848, symSize: 0x38 }
  - { offset: 0x3A2AE, size: 0x8, addend: 0x0, symName: __RNvXsn_NtCsdFlNUEO95cG_5alloc3vecINtB5_3VecNtNtCslvhnBjKo0yW_26wasm_bindgen_macro_support3ast6ExportENtNtNtCs85QQFkKrybG_4core3ops4drop4Drop4dropBJ_, symObjAddr: 0xEDE8, symBinAddr: 0x3E880, symSize: 0x38 }
  - { offset: 0x3A35E, size: 0x8, addend: 0x0, symName: __RNvXsn_NtCsdFlNUEO95cG_5alloc3vecINtB5_3VecNtNtCslvhnBjKo0yW_26wasm_bindgen_macro_support3ast6ImportENtNtNtCs85QQFkKrybG_4core3ops4drop4Drop4dropBJ_, symObjAddr: 0xEE20, symBinAddr: 0x3E8B8, symSize: 0x38 }
  - { offset: 0x3A40E, size: 0x8, addend: 0x0, symName: __RNvXsn_NtCsdFlNUEO95cG_5alloc3vecINtB5_3VecNtNtCslvhnBjKo0yW_26wasm_bindgen_macro_support3ast6StructENtNtNtCs85QQFkKrybG_4core3ops4drop4Drop4dropBJ_, symObjAddr: 0xEE58, symBinAddr: 0x3E8F0, symSize: 0x38 }
  - { offset: 0x3A4BE, size: 0x8, addend: 0x0, symName: __RNvXsn_NtCsdFlNUEO95cG_5alloc3vecINtB5_3VecNtNtCslvhnBjKo0yW_26wasm_bindgen_macro_support3ast7VariantENtNtNtCs85QQFkKrybG_4core3ops4drop4Drop4dropBJ_, symObjAddr: 0xEE90, symBinAddr: 0x3E928, symSize: 0x38 }
  - { offset: 0x3A56E, size: 0x8, addend: 0x0, symName: __RNvXsn_NtCsdFlNUEO95cG_5alloc3vecINtB5_3VecNtNtCslvhnBjKo0yW_26wasm_bindgen_macro_support3ast9LitOrExprENtNtNtCs85QQFkKrybG_4core3ops4drop4Drop4dropBJ_, symObjAddr: 0xEEC8, symBinAddr: 0x3E960, symSize: 0x38 }
  - { offset: 0x3A61E, size: 0x8, addend: 0x0, symName: __RNvXsn_NtCsdFlNUEO95cG_5alloc3vecINtB5_3VecNtNtCslvhnBjKo0yW_26wasm_bindgen_macro_support5error10DiagnosticENtNtNtCs85QQFkKrybG_4core3ops4drop4Drop4dropBJ_, symObjAddr: 0xEF00, symBinAddr: 0x3E998, symSize: 0x38 }
  - { offset: 0x3A6CE, size: 0x8, addend: 0x0, symName: __RNvXsn_NtCsdFlNUEO95cG_5alloc3vecINtB5_3VecNtNtCslvhnBjKo0yW_26wasm_bindgen_macro_support6encode11EncodeChunkENtNtNtCs85QQFkKrybG_4core3ops4drop4Drop4dropBJ_, symObjAddr: 0xEF38, symBinAddr: 0x3E9D0, symSize: 0x38 }
  - { offset: 0x3A77E, size: 0x8, addend: 0x0, symName: __RNvXsn_NtCsdFlNUEO95cG_5alloc3vecINtB5_3VecNtNtCslvhnBjKo0yW_26wasm_bindgen_macro_support6encode11EnumVariantENtNtNtCs85QQFkKrybG_4core3ops4drop4Drop4dropBJ_, symObjAddr: 0xEF70, symBinAddr: 0x3EA08, symSize: 0x38 }
  - { offset: 0x3A82E, size: 0x8, addend: 0x0, symName: __RNvXsn_NtCsdFlNUEO95cG_5alloc3vecINtB5_3VecNtNtCslvhnBjKo0yW_26wasm_bindgen_macro_support6encode11LocalModuleENtNtNtCs85QQFkKrybG_4core3ops4drop4Drop4dropBJ_, symObjAddr: 0xEFA8, symBinAddr: 0x3EA40, symSize: 0x24 }
  - { offset: 0x3A8DE, size: 0x8, addend: 0x0, symName: __RNvXsn_NtCsdFlNUEO95cG_5alloc3vecINtB5_3VecNtNtCslvhnBjKo0yW_26wasm_bindgen_macro_support6encode11StructFieldENtNtNtCs85QQFkKrybG_4core3ops4drop4Drop4dropBJ_, symObjAddr: 0xEFCC, symBinAddr: 0x3EA64, symSize: 0x38 }
  - { offset: 0x3A98E, size: 0x8, addend: 0x0, symName: __RNvXsn_NtCsdFlNUEO95cG_5alloc3vecINtB5_3VecNtNtCslvhnBjKo0yW_26wasm_bindgen_macro_support6encode12LinkedModuleENtNtNtCs85QQFkKrybG_4core3ops4drop4Drop4dropBJ_, symObjAddr: 0xF004, symBinAddr: 0x3EA9C, symSize: 0x24 }
  - { offset: 0x3AA3E, size: 0x8, addend: 0x0, symName: __RNvXsn_NtCsdFlNUEO95cG_5alloc3vecINtB5_3VecNtNtCslvhnBjKo0yW_26wasm_bindgen_macro_support6encode20FunctionArgumentDataENtNtNtCs85QQFkKrybG_4core3ops4drop4Drop4dropBJ_, symObjAddr: 0xF028, symBinAddr: 0x3EAC0, symSize: 0x38 }
  - { offset: 0x3AAEE, size: 0x8, addend: 0x0, symName: __RNvXsn_NtCsdFlNUEO95cG_5alloc3vecINtB5_3VecNtNtCslvhnBjKo0yW_26wasm_bindgen_macro_support6encode4EnumENtNtNtCs85QQFkKrybG_4core3ops4drop4Drop4dropBJ_, symObjAddr: 0xF060, symBinAddr: 0x3EAF8, symSize: 0x38 }
  - { offset: 0x3AB9E, size: 0x8, addend: 0x0, symName: __RNvXsn_NtCsdFlNUEO95cG_5alloc3vecINtB5_3VecNtNtCslvhnBjKo0yW_26wasm_bindgen_macro_support6encode6ExportENtNtNtCs85QQFkKrybG_4core3ops4drop4Drop4dropBJ_, symObjAddr: 0xF098, symBinAddr: 0x3EB30, symSize: 0x38 }
  - { offset: 0x3AC4E, size: 0x8, addend: 0x0, symName: __RNvXsn_NtCsdFlNUEO95cG_5alloc3vecINtB5_3VecNtNtCslvhnBjKo0yW_26wasm_bindgen_macro_support6encode6ImportENtNtNtCs85QQFkKrybG_4core3ops4drop4Drop4dropBJ_, symObjAddr: 0xF0D0, symBinAddr: 0x3EB68, symSize: 0x38 }
  - { offset: 0x3ACFE, size: 0x8, addend: 0x0, symName: __RNvXsn_NtCsdFlNUEO95cG_5alloc3vecINtB5_3VecNtNtCslvhnBjKo0yW_26wasm_bindgen_macro_support6encode6StructENtNtNtCs85QQFkKrybG_4core3ops4drop4Drop4dropBJ_, symObjAddr: 0xF108, symBinAddr: 0x3EBA0, symSize: 0x38 }
  - { offset: 0x3ADAE, size: 0x8, addend: 0x0, symName: __RNvXsn_NtCsdFlNUEO95cG_5alloc3vecINtB5_3VecNtNtCslvhnBjKo0yW_26wasm_bindgen_macro_support6encode9LitOrExprENtNtNtCs85QQFkKrybG_4core3ops4drop4Drop4dropBJ_, symObjAddr: 0xF140, symBinAddr: 0x3EBD8, symSize: 0x24 }
  - { offset: 0x3AE5E, size: 0x8, addend: 0x0, symName: __RNvXsn_NtCsdFlNUEO95cG_5alloc3vecINtB5_3VecNtNtCslvhnBjKo0yW_26wasm_bindgen_macro_support6parser10FnArgAttrsENtNtNtCs85QQFkKrybG_4core3ops4drop4Drop4dropBJ_, symObjAddr: 0xF164, symBinAddr: 0x3EBFC, symSize: 0x38 }
  - { offset: 0x3AF0E, size: 0x8, addend: 0x0, symName: __RNvXsn_NtCsdFlNUEO95cG_5alloc3vecINtB5_3VecNtNtCslvhnBjKo0yW_26wasm_bindgen_macro_support6parser11BindgenAttrENtNtNtCs85QQFkKrybG_4core3ops4drop4Drop4dropBJ_, symObjAddr: 0xF19C, symBinAddr: 0x3EC34, symSize: 0x38 }
  - { offset: 0x3AFBE, size: 0x8, addend: 0x0, symName: __RNvXsn_NtCsdFlNUEO95cG_5alloc3vecINtB5_3VecNtNtCslvhnBjKo0yW_26wasm_bindgen_macro_support6parser11UnusedStateENtNtNtCs85QQFkKrybG_4core3ops4drop4Drop4dropBJ_, symObjAddr: 0xF1D4, symBinAddr: 0x3EC6C, symSize: 0x38 }
  - { offset: 0x3B06E, size: 0x8, addend: 0x0, symName: __RNvXsn_NtCsdFlNUEO95cG_5alloc3vecINtB5_3VecNtNtCswz7ZwgBZOU_3std4path7PathBufENtNtNtCs85QQFkKrybG_4core3ops4drop4Drop4dropCslvhnBjKo0yW_26wasm_bindgen_macro_support, symObjAddr: 0xF20C, symBinAddr: 0x3ECA4, symSize: 0x38 }
  - { offset: 0x3B11E, size: 0x8, addend: 0x0, symName: __RNvXsn_NtCsdFlNUEO95cG_5alloc3vecINtB5_3VecRNtNtCscwCr4GBBztI_3syn2ty4TypeENtNtNtCs85QQFkKrybG_4core3ops4drop4Drop4dropCslvhnBjKo0yW_26wasm_bindgen_macro_support, symObjAddr: 0xF244, symBinAddr: 0x3ECDC, symSize: 0x24 }
  - { offset: 0x3B1CE, size: 0x8, addend: 0x0, symName: __RNvXsn_NtCsdFlNUEO95cG_5alloc3vecINtB5_3VecTINtNtCs85QQFkKrybG_4core4cell4CellbENtNtCslvhnBjKo0yW_26wasm_bindgen_macro_support6parser11BindgenAttrEENtNtNtBL_3ops4drop4Drop4dropB1k_, symObjAddr: 0xF268, symBinAddr: 0x3ED00, symSize: 0x38 }
  - { offset: 0x3B27E, size: 0x8, addend: 0x0, symName: __RNvXsn_NtCsdFlNUEO95cG_5alloc3vecINtB5_3VecTNtNtCslvhnBjKo0yW_26wasm_bindgen_macro_support6parser11BindgenAttrNtNtCscwCr4GBBztI_3syn5token5CommaEENtNtNtCs85QQFkKrybG_4core3ops4drop4Drop4dropBK_, symObjAddr: 0xF2A0, symBinAddr: 0x3ED38, symSize: 0x38 }
  - { offset: 0x3B32E, size: 0x8, addend: 0x0, symName: __RNvXsn_NtCsdFlNUEO95cG_5alloc3vecINtB5_3VecmENtNtNtCs85QQFkKrybG_4core3ops4drop4Drop4dropCslvhnBjKo0yW_26wasm_bindgen_macro_support, symObjAddr: 0xF2D8, symBinAddr: 0x3ED70, symSize: 0x24 }
  - { offset: 0x3B3E4, size: 0x8, addend: 0x0, symName: __RNvXso_NtCsdFlNUEO95cG_5alloc3vecINtB5_3VecNtNtB7_6string6StringENtNtCs85QQFkKrybG_4core7default7Default7defaultCslvhnBjKo0yW_26wasm_bindgen_macro_support, symObjAddr: 0xF314, symBinAddr: 0x3EDAC, symSize: 0x14 }
  - { offset: 0x3B406, size: 0x8, addend: 0x0, symName: __RNvXso_NtCsdFlNUEO95cG_5alloc3vecINtB5_3VecNtNtB7_6string6StringENtNtCs85QQFkKrybG_4core7default7Default7defaultCslvhnBjKo0yW_26wasm_bindgen_macro_support, symObjAddr: 0xF314, symBinAddr: 0x3EDAC, symSize: 0x14 }
  - { offset: 0x3B421, size: 0x8, addend: 0x0, symName: __RNvXso_NtCsdFlNUEO95cG_5alloc3vecINtB5_3VecNtNtCslvhnBjKo0yW_26wasm_bindgen_macro_support3ast12ImportModuleENtNtCs85QQFkKrybG_4core7default7Default7defaultBJ_, symObjAddr: 0xF328, symBinAddr: 0x3EDC0, symSize: 0x14 }
  - { offset: 0x3B443, size: 0x8, addend: 0x0, symName: __RNvXso_NtCsdFlNUEO95cG_5alloc3vecINtB5_3VecNtNtCslvhnBjKo0yW_26wasm_bindgen_macro_support3ast12ImportModuleENtNtCs85QQFkKrybG_4core7default7Default7defaultBJ_, symObjAddr: 0xF328, symBinAddr: 0x3EDC0, symSize: 0x14 }
  - { offset: 0x3B45E, size: 0x8, addend: 0x0, symName: __RNvXso_NtCsdFlNUEO95cG_5alloc3vecINtB5_3VecNtNtCslvhnBjKo0yW_26wasm_bindgen_macro_support3ast4EnumENtNtCs85QQFkKrybG_4core7default7Default7defaultBJ_, symObjAddr: 0xF33C, symBinAddr: 0x3EDD4, symSize: 0x14 }
  - { offset: 0x3B480, size: 0x8, addend: 0x0, symName: __RNvXso_NtCsdFlNUEO95cG_5alloc3vecINtB5_3VecNtNtCslvhnBjKo0yW_26wasm_bindgen_macro_support3ast4EnumENtNtCs85QQFkKrybG_4core7default7Default7defaultBJ_, symObjAddr: 0xF33C, symBinAddr: 0x3EDD4, symSize: 0x14 }
  - { offset: 0x3B49B, size: 0x8, addend: 0x0, symName: __RNvXso_NtCsdFlNUEO95cG_5alloc3vecINtB5_3VecNtNtCslvhnBjKo0yW_26wasm_bindgen_macro_support3ast6ExportENtNtCs85QQFkKrybG_4core7default7Default7defaultBJ_, symObjAddr: 0xF350, symBinAddr: 0x3EDE8, symSize: 0x14 }
  - { offset: 0x3B4BD, size: 0x8, addend: 0x0, symName: __RNvXso_NtCsdFlNUEO95cG_5alloc3vecINtB5_3VecNtNtCslvhnBjKo0yW_26wasm_bindgen_macro_support3ast6ExportENtNtCs85QQFkKrybG_4core7default7Default7defaultBJ_, symObjAddr: 0xF350, symBinAddr: 0x3EDE8, symSize: 0x14 }
  - { offset: 0x3B4D8, size: 0x8, addend: 0x0, symName: __RNvXso_NtCsdFlNUEO95cG_5alloc3vecINtB5_3VecNtNtCslvhnBjKo0yW_26wasm_bindgen_macro_support3ast6ImportENtNtCs85QQFkKrybG_4core7default7Default7defaultBJ_, symObjAddr: 0xF364, symBinAddr: 0x3EDFC, symSize: 0x14 }
  - { offset: 0x3B4FA, size: 0x8, addend: 0x0, symName: __RNvXso_NtCsdFlNUEO95cG_5alloc3vecINtB5_3VecNtNtCslvhnBjKo0yW_26wasm_bindgen_macro_support3ast6ImportENtNtCs85QQFkKrybG_4core7default7Default7defaultBJ_, symObjAddr: 0xF364, symBinAddr: 0x3EDFC, symSize: 0x14 }
  - { offset: 0x3B515, size: 0x8, addend: 0x0, symName: __RNvXso_NtCsdFlNUEO95cG_5alloc3vecINtB5_3VecNtNtCslvhnBjKo0yW_26wasm_bindgen_macro_support3ast6StructENtNtCs85QQFkKrybG_4core7default7Default7defaultBJ_, symObjAddr: 0xF378, symBinAddr: 0x3EE10, symSize: 0x14 }
  - { offset: 0x3B537, size: 0x8, addend: 0x0, symName: __RNvXso_NtCsdFlNUEO95cG_5alloc3vecINtB5_3VecNtNtCslvhnBjKo0yW_26wasm_bindgen_macro_support3ast6StructENtNtCs85QQFkKrybG_4core7default7Default7defaultBJ_, symObjAddr: 0xF378, symBinAddr: 0x3EE10, symSize: 0x14 }
  - { offset: 0x3B552, size: 0x8, addend: 0x0, symName: __RNvXso_NtCsdFlNUEO95cG_5alloc3vecINtB5_3VecNtNtCslvhnBjKo0yW_26wasm_bindgen_macro_support3ast9LitOrExprENtNtCs85QQFkKrybG_4core7default7Default7defaultBJ_, symObjAddr: 0xF38C, symBinAddr: 0x3EE24, symSize: 0x14 }
  - { offset: 0x3B574, size: 0x8, addend: 0x0, symName: __RNvXso_NtCsdFlNUEO95cG_5alloc3vecINtB5_3VecNtNtCslvhnBjKo0yW_26wasm_bindgen_macro_support3ast9LitOrExprENtNtCs85QQFkKrybG_4core7default7Default7defaultBJ_, symObjAddr: 0xF38C, symBinAddr: 0x3EE24, symSize: 0x14 }
  - { offset: 0x3B58F, size: 0x8, addend: 0x0, symName: __RNvXso_NtCsdFlNUEO95cG_5alloc3vecINtB5_3VecNtNtCslvhnBjKo0yW_26wasm_bindgen_macro_support6parser11UnusedStateENtNtCs85QQFkKrybG_4core7default7Default7defaultBJ_, symObjAddr: 0xF3A0, symBinAddr: 0x3EE38, symSize: 0x14 }
  - { offset: 0x3B5B1, size: 0x8, addend: 0x0, symName: __RNvXso_NtCsdFlNUEO95cG_5alloc3vecINtB5_3VecNtNtCslvhnBjKo0yW_26wasm_bindgen_macro_support6parser11UnusedStateENtNtCs85QQFkKrybG_4core7default7Default7defaultBJ_, symObjAddr: 0xF3A0, symBinAddr: 0x3EE38, symSize: 0x14 }
  - { offset: 0x4452C, size: 0x8, addend: 0x0, symName: __RINvMs_NtCsdFlNUEO95cG_5alloc3vecINtB5_3VecNtNtCscwCr4GBBztI_3syn4attr9AttributeE10retain_mutNCINvB2_6retainNCNvXs4_NtCslvhnBjKo0yW_26wasm_bindgen_macro_support6parserNtNtBJ_4item13ForeignItemFnINtB1Q_12ConvertToAstTRNtNtB1S_3ast7ProgramNtB1Q_12BindgenAttrsRINtNtCs85QQFkKrybG_4core6option6OptionNtB3v_12ImportModuleEEE7converts7_0E0EB1S_, symObjAddr: 0x0, symBinAddr: 0x2FB24, symSize: 0x130 }
  - { offset: 0x44699, size: 0x8, addend: 0x0, symName: __RINvMs_NtCsdFlNUEO95cG_5alloc3vecINtB5_3VecNtNtCscwCr4GBBztI_3syn4attr9AttributeE6retainNCNvXs4_NtCslvhnBjKo0yW_26wasm_bindgen_macro_support6parserNtNtBJ_4item13ForeignItemFnINtB1w_12ConvertToAstTRNtNtB1y_3ast7ProgramNtB1w_12BindgenAttrsRINtNtCs85QQFkKrybG_4core6option6OptionNtB3b_12ImportModuleEEE7converts7_0EB1y_, symObjAddr: 0x130, symBinAddr: 0x2FC54, symSize: 0x4C }
  - { offset: 0x44996, size: 0x8, addend: 0x0, symName: __RINvMsi_NtCsdFlNUEO95cG_5alloc3vecINtB6_3VecNtCsfwj6t2KTYdc_11proc_macro211TokenStreamE14extend_trustedINtNtNtNtCs85QQFkKrybG_4core4iter8adapters3map3MapINtNtNtB1M_5slice4iter4IterNtBI_5IdentENCNvXs5_NtCslvhnBjKo0yW_26wasm_bindgen_macro_support7codegenNtNtB3e_3ast10StringEnumNtNtCshi3DZH3dfhk_5quote9to_tokens8ToTokens9to_tokens0EEB3e_, symObjAddr: 0x17C, symBinAddr: 0x2FCA0, symSize: 0x178 }
  - { offset: 0x44C80, size: 0x8, addend: 0x0, symName: __RINvMsi_NtCsdFlNUEO95cG_5alloc3vecINtB6_3VecNtCsfwj6t2KTYdc_11proc_macro211TokenStreamE14extend_trustedINtNtNtNtCs85QQFkKrybG_4core4iter8adapters3map3MapINtNtNtB1M_5slice4iter4IterNtNtCslvhnBjKo0yW_26wasm_bindgen_macro_support6encode11EncodeChunkENCNvXNtB2W_7codegenNtNtB2W_3ast7ProgramNtB42_11TryToTokens13try_to_tokenss_0EEB2W_, symObjAddr: 0x2F4, symBinAddr: 0x2FE18, symSize: 0x178 }
  - { offset: 0x44F5D, size: 0x8, addend: 0x0, symName: __RINvMsi_NtCsdFlNUEO95cG_5alloc3vecINtB6_3VecNtCsfwj6t2KTYdc_11proc_macro25IdentE14extend_trustedINtNtNtNtCs85QQFkKrybG_4core4iter8adapters6cloned6ClonedINtNtNtB1F_5slice4iter4IterBG_EEECslvhnBjKo0yW_26wasm_bindgen_macro_support, symObjAddr: 0x46C, symBinAddr: 0x2FF90, symSize: 0x16C }
  - { offset: 0x4531E, size: 0x8, addend: 0x0, symName: __RINvMsi_NtCsdFlNUEO95cG_5alloc3vecINtB6_3VecNtCsfwj6t2KTYdc_11proc_macro29TokenTreeE16extend_desugaredINtNtNtNtCs85QQFkKrybG_4core4iter8adapters7flatten7FlattenINtNtB1H_3map3MapIB2z_IB2z_INtNtNtB1L_5slice4iter4IterRNtNtCscwCr4GBBztI_3syn2ty4TypeENCNvXs2_NtCslvhnBjKo0yW_26wasm_bindgen_macro_support7codegenNtNtB46_3ast6ExportNtB44_11TryToTokens13try_to_tokenss0_0ENCINvXs7_BI_NtBI_11TokenStreamINtNtNtB1J_6traits7collect12FromIteratorB62_E9from_iterB2U_E0ENCINvXs6_NtBI_3impNtB7t_11TokenStreamIB6l_B7C_E9from_iterB2P_Es_0EEEB46_, symObjAddr: 0x5D8, symBinAddr: 0x300FC, symSize: 0x1F0 }
  - { offset: 0x45782, size: 0x8, addend: 0x0, symName: __RINvMsi_NtCsdFlNUEO95cG_5alloc3vecINtB6_3VecNtNtB8_6string6StringE16extend_desugaredINtNtNtNtCs85QQFkKrybG_4core4iter8adapters10filter_map9FilterMapINtNtB1p_7flatten7FlattenINtNtB1t_6option8IntoIterNtCsfwj6t2KTYdc_11proc_macro211TokenStreamEENCNCNvNtCslvhnBjKo0yW_26wasm_bindgen_macro_support6parser20extract_doc_comments0s_0EEB40_, symObjAddr: 0x7C8, symBinAddr: 0x302EC, symSize: 0x1FC }
  - { offset: 0x45BF3, size: 0x8, addend: 0x0, symName: __RINvMsi_NtCsdFlNUEO95cG_5alloc3vecINtB6_3VecNtNtCslvhnBjKo0yW_26wasm_bindgen_macro_support3ast20FunctionArgumentDataE16extend_desugaredINtNtNtNtCs85QQFkKrybG_4core4iter8adapters3map3MapINtNtB2e_3zip3ZipINtNtB6_9into_iter8IntoIterNtNtCscwCr4GBBztI_3syn3pat7PatTypeEINtNtB2e_5chain5ChainINtNtB2e_7flatten7FlattenINtNtB2i_6option8IntoIterIBx_NtNtBK_6parser10FnArgAttrsEEEINtNtNtB2g_7sources6repeat6RepeatB5r_EEENCNvB5t_18function_from_decls2_0EEBK_, symObjAddr: 0x9C4, symBinAddr: 0x304E8, symSize: 0x214 }
  - { offset: 0x464EF, size: 0x8, addend: 0x0, symName: __RINvMsi_NtCsdFlNUEO95cG_5alloc3vecINtB6_3VecNtNtCslvhnBjKo0yW_26wasm_bindgen_macro_support3ast7VariantE16extend_desugaredINtNtNtCs85QQFkKrybG_4core4iter8adapters12GenericShuntINtNtB1Y_3map3MapINtNtCscwCr4GBBztI_3syn10punctuated4IterNtNtB39_4data7VariantENCNvXsd_NtBK_6parserNtNtB39_4item8ItemEnumINtB4c_10MacroParseTQNtCsfwj6t2KTYdc_11proc_macro211TokenStreamNtB4c_12BindgenAttrsEE11macro_parses3_0EINtNtB22_6result6ResultNtNtB22_7convert10InfallibleNtNtBK_5error10DiagnosticEEEBK_, symObjAddr: 0xBD8, symBinAddr: 0x306FC, symSize: 0x214 }
  - { offset: 0x4695A, size: 0x8, addend: 0x0, symName: __RINvMsi_NtCsdFlNUEO95cG_5alloc3vecINtB6_3VecNtNtCslvhnBjKo0yW_26wasm_bindgen_macro_support6encode11EnumVariantE14extend_trustedINtNtNtNtCs85QQFkKrybG_4core4iter8adapters3map3MapINtNtNtB2a_5slice4iter4IterNtNtBK_3ast7VariantENCNvBI_11shared_enum0EEBK_, symObjAddr: 0xDEC, symBinAddr: 0x30910, symSize: 0x178 }
  - { offset: 0x46D2D, size: 0x8, addend: 0x0, symName: __RINvMsi_NtCsdFlNUEO95cG_5alloc3vecINtB6_3VecNtNtCslvhnBjKo0yW_26wasm_bindgen_macro_support6encode11LocalModuleE16extend_desugaredINtNtNtCs85QQFkKrybG_4core4iter8adapters12GenericShuntINtNtB26_3map3MapINtNtNtNtCswz7ZwgBZOU_3std11collections4hash3map6ValuesNtNtB8_6string6StringNtBI_9LocalFileENCNvBI_14shared_programs4_0EINtNtB2a_6result6ResultNtNtB2a_7convert10InfallibleNtNtBK_5error10DiagnosticEEEBK_, symObjAddr: 0xF64, symBinAddr: 0x30A88, symSize: 0x1F0 }
  - { offset: 0x470FA, size: 0x8, addend: 0x0, symName: __RINvMsi_NtCsdFlNUEO95cG_5alloc3vecINtB6_3VecNtNtCslvhnBjKo0yW_26wasm_bindgen_macro_support6encode11StructFieldE14extend_trustedINtNtNtNtCs85QQFkKrybG_4core4iter8adapters3map3MapINtNtNtB2a_5slice4iter4IterNtNtBK_3ast11StructFieldENCNvBI_13shared_struct0EEBK_, symObjAddr: 0x1154, symBinAddr: 0x30C78, symSize: 0x178 }
  - { offset: 0x474AF, size: 0x8, addend: 0x0, symName: __RINvMsi_NtCsdFlNUEO95cG_5alloc3vecINtB6_3VecNtNtCslvhnBjKo0yW_26wasm_bindgen_macro_support6encode12LinkedModuleE16extend_desugaredINtNtNtCs85QQFkKrybG_4core4iter8adapters12GenericShuntINtNtB27_3map3MapINtNtB27_9enumerate9EnumerateINtNtNtB2b_5slice4iter4IterNtNtBK_3ast12ImportModuleEENCNvBI_14shared_programs3_0EINtNtB2b_6result6ResultNtNtB2b_7convert10InfallibleNtNtBK_5error10DiagnosticEEEBK_, symObjAddr: 0x12CC, symBinAddr: 0x30DF0, symSize: 0x1F0 }
  - { offset: 0x4786F, size: 0x8, addend: 0x0, symName: __RINvMsi_NtCsdFlNUEO95cG_5alloc3vecINtB6_3VecNtNtCslvhnBjKo0yW_26wasm_bindgen_macro_support6encode20FunctionArgumentDataE14extend_trustedINtNtNtNtCs85QQFkKrybG_4core4iter8adapters3map3MapINtNtB2f_9enumerate9EnumerateINtNtNtB2j_5slice4iter4IterNtNtBK_3ast20FunctionArgumentDataEENCNvBI_15shared_function0EEBK_, symObjAddr: 0x14BC, symBinAddr: 0x30FE0, symSize: 0x178 }
  - { offset: 0x47B73, size: 0x8, addend: 0x0, symName: __RINvMsi_NtCsdFlNUEO95cG_5alloc3vecINtB6_3VecNtNtCslvhnBjKo0yW_26wasm_bindgen_macro_support6encode4EnumE14extend_trustedINtNtNtNtCs85QQFkKrybG_4core4iter8adapters3map3MapINtNtNtB22_5slice4iter4IterNtNtBK_3ast4EnumENCNvBI_14shared_programs0_0EEBK_, symObjAddr: 0x1634, symBinAddr: 0x31158, symSize: 0x178 }
  - { offset: 0x47F0E, size: 0x8, addend: 0x0, symName: __RINvMsi_NtCsdFlNUEO95cG_5alloc3vecINtB6_3VecNtNtCslvhnBjKo0yW_26wasm_bindgen_macro_support6encode6ExportE16extend_desugaredINtNtNtCs85QQFkKrybG_4core4iter8adapters12GenericShuntINtNtB20_3map3MapINtNtNtB24_5slice4iter4IterNtNtBK_3ast6ExportENCNvBI_14shared_program0EINtNtB24_6result6ResultNtNtB24_7convert10InfallibleNtNtBK_5error10DiagnosticEEEBK_, symObjAddr: 0x17AC, symBinAddr: 0x312D0, symSize: 0x1FC }
  - { offset: 0x4837F, size: 0x8, addend: 0x0, symName: __RINvMsi_NtCsdFlNUEO95cG_5alloc3vecINtB6_3VecNtNtCslvhnBjKo0yW_26wasm_bindgen_macro_support6encode6ImportE16extend_desugaredINtNtNtCs85QQFkKrybG_4core4iter8adapters12GenericShuntINtNtB20_3map3MapINtNtNtB24_5slice4iter4IterNtNtBK_3ast6ImportENCNvBI_14shared_programs1_0EINtNtB24_6result6ResultNtNtB24_7convert10InfallibleNtNtBK_5error10DiagnosticEEEBK_, symObjAddr: 0x19A8, symBinAddr: 0x314CC, symSize: 0x1FC }
  - { offset: 0x4874C, size: 0x8, addend: 0x0, symName: __RINvMsi_NtCsdFlNUEO95cG_5alloc3vecINtB6_3VecNtNtCslvhnBjKo0yW_26wasm_bindgen_macro_support6encode6StructE14extend_trustedINtNtNtNtCs85QQFkKrybG_4core4iter8adapters3map3MapINtNtNtB24_5slice4iter4IterNtNtBK_3ast6StructENCNvBI_14shared_programs_0EEBK_, symObjAddr: 0x1BA4, symBinAddr: 0x316C8, symSize: 0x178 }
  - { offset: 0x48A5D, size: 0x8, addend: 0x0, symName: __RINvMsi_NtCsdFlNUEO95cG_5alloc3vecINtB6_3VecNtNtCslvhnBjKo0yW_26wasm_bindgen_macro_support6encode9LitOrExprE14extend_trustedINtNtNtNtCs85QQFkKrybG_4core4iter8adapters3map3MapINtNtNtB27_5slice4iter4IterNtNtBK_3ast9LitOrExprENCNvBI_14shared_programs2_0EEBK_, symObjAddr: 0x1D1C, symBinAddr: 0x31840, symSize: 0x178 }
  - { offset: 0x48E23, size: 0x8, addend: 0x0, symName: __RINvMsi_NtCsdFlNUEO95cG_5alloc3vecINtB6_3VecNtNtCslvhnBjKo0yW_26wasm_bindgen_macro_support6parser11UnusedStateE16extend_desugaredINtNtNtNtCs85QQFkKrybG_4core4iter8adapters3map3MapINtNtB28_10filter_map9FilterMapINtNtNtB2c_5slice4iter4IterTINtNtB2c_4cell4CellbENtBI_11BindgenAttrEENCNCNvMBI_NtBI_12BindgenAttrs10check_used00ENCB4v_s_0EEBK_, symObjAddr: 0x1E94, symBinAddr: 0x319B8, symSize: 0x1E0 }
  - { offset: 0x49279, size: 0x8, addend: 0x0, symName: __RINvMsi_NtCsdFlNUEO95cG_5alloc3vecINtB6_3VecNtNtCswz7ZwgBZOU_3std4path7PathBufE16extend_desugaredINtNtNtNtCs85QQFkKrybG_4core4iter8adapters6cloned6ClonedINtNtB1C_3map3MapINtNtNtNtBK_11collections4hash3map6ValuesNtNtB8_6string6StringNtNtCslvhnBjKo0yW_26wasm_bindgen_macro_support6encode9LocalFileENCNvB3K_6encode0EEEB3M_, symObjAddr: 0x2074, symBinAddr: 0x31B98, symSize: 0x1E8 }
  - { offset: 0x4962C, size: 0x8, addend: 0x0, symName: __RINvMsi_NtCsdFlNUEO95cG_5alloc3vecINtB6_3VecReE14extend_trustedINtNtNtNtCs85QQFkKrybG_4core4iter8adapters3map3MapINtNtNtB18_5slice4iter4IterNtCsfwj6t2KTYdc_11proc_macro25IdentENCNvNtCslvhnBjKo0yW_26wasm_bindgen_macro_support6encode18shared_import_type0EEB2U_, symObjAddr: 0x225C, symBinAddr: 0x31D80, symSize: 0x178 }
  - { offset: 0x498E2, size: 0x8, addend: 0x0, symName: __RINvMsi_NtCsdFlNUEO95cG_5alloc3vecINtB6_3VecReE14extend_trustedINtNtNtNtCs85QQFkKrybG_4core4iter8adapters3map3MapINtNtNtB18_5slice4iter4IterNtNtB8_6string6StringENCNvNtCslvhnBjKo0yW_26wasm_bindgen_macro_support6encode11shared_enums_0EEB2G_, symObjAddr: 0x23D4, symBinAddr: 0x31EF8, symSize: 0x16C }
  - { offset: 0x49B97, size: 0x8, addend: 0x0, symName: __RINvMsi_NtCsdFlNUEO95cG_5alloc3vecINtB6_3VecReE14extend_trustedINtNtNtNtCs85QQFkKrybG_4core4iter8adapters3map3MapINtNtNtB18_5slice4iter4IterNtNtB8_6string6StringENCNvNtCslvhnBjKo0yW_26wasm_bindgen_macro_support6encode13shared_export0EEB2G_, symObjAddr: 0x2540, symBinAddr: 0x32064, symSize: 0x16C }
  - { offset: 0x49E4C, size: 0x8, addend: 0x0, symName: __RINvMsi_NtCsdFlNUEO95cG_5alloc3vecINtB6_3VecReE14extend_trustedINtNtNtNtCs85QQFkKrybG_4core4iter8adapters3map3MapINtNtNtB18_5slice4iter4IterNtNtB8_6string6StringENCNvNtCslvhnBjKo0yW_26wasm_bindgen_macro_support6encode13shared_structs_0EEB2G_, symObjAddr: 0x26AC, symBinAddr: 0x321D0, symSize: 0x16C }
  - { offset: 0x4A101, size: 0x8, addend: 0x0, symName: __RINvMsi_NtCsdFlNUEO95cG_5alloc3vecINtB6_3VecReE14extend_trustedINtNtNtNtCs85QQFkKrybG_4core4iter8adapters3map3MapINtNtNtB18_5slice4iter4IterNtNtB8_6string6StringENCNvNtCslvhnBjKo0yW_26wasm_bindgen_macro_support6encode14shared_programs5_0EEB2G_, symObjAddr: 0x2818, symBinAddr: 0x3233C, symSize: 0x178 }
  - { offset: 0x4A3B7, size: 0x8, addend: 0x0, symName: __RINvMsi_NtCsdFlNUEO95cG_5alloc3vecINtB6_3VecReE14extend_trustedINtNtNtNtCs85QQFkKrybG_4core4iter8adapters3map3MapINtNtNtB18_5slice4iter4IterNtNtB8_6string6StringENCNvNtCslvhnBjKo0yW_26wasm_bindgen_macro_support6encode14shared_variant0EEB2G_, symObjAddr: 0x2990, symBinAddr: 0x324B4, symSize: 0x16C }
  - { offset: 0x4A66C, size: 0x8, addend: 0x0, symName: __RINvMsi_NtCsdFlNUEO95cG_5alloc3vecINtB6_3VecReE14extend_trustedINtNtNtNtCs85QQFkKrybG_4core4iter8adapters3map3MapINtNtNtB18_5slice4iter4IterNtNtB8_6string6StringENCNvNtCslvhnBjKo0yW_26wasm_bindgen_macro_support6encode18shared_import_enum0EEB2G_, symObjAddr: 0x2AFC, symBinAddr: 0x32620, symSize: 0x16C }
  - { offset: 0x4A921, size: 0x8, addend: 0x0, symName: __RINvMsi_NtCsdFlNUEO95cG_5alloc3vecINtB6_3VecReE14extend_trustedINtNtNtNtCs85QQFkKrybG_4core4iter8adapters3map3MapINtNtNtB18_5slice4iter4IterNtNtB8_6string6StringENCNvNtCslvhnBjKo0yW_26wasm_bindgen_macro_support6encode18shared_import_enums_0EEB2G_, symObjAddr: 0x2C68, symBinAddr: 0x3278C, symSize: 0x16C }
  - { offset: 0x4ABD6, size: 0x8, addend: 0x0, symName: __RINvMsi_NtCsdFlNUEO95cG_5alloc3vecINtB6_3VecReE14extend_trustedINtNtNtNtCs85QQFkKrybG_4core4iter8adapters3map3MapINtNtNtB18_5slice4iter4IterNtNtB8_6string6StringENCNvNtCslvhnBjKo0yW_26wasm_bindgen_macro_support6encode19shared_struct_field0EEB2G_, symObjAddr: 0x2DD4, symBinAddr: 0x328F8, symSize: 0x16C }
  - { offset: 0x4AF63, size: 0x8, addend: 0x0, symName: __RINvMsi_NtCsdFlNUEO95cG_5alloc3vecINtB6_3VecTINtNtCs85QQFkKrybG_4core4cell4CellbENtNtCslvhnBjKo0yW_26wasm_bindgen_macro_support6parser11BindgenAttrEE16extend_desugaredINtNtNtNtBM_4iter8adapters3map3MapINtNtCscwCr4GBBztI_3syn10punctuated8IntoIterB1h_ENCNvXs0_B1j_NtB1j_12BindgenAttrsNtNtB3i_5parse5Parse5parse0EEB1l_, symObjAddr: 0x2F40, symBinAddr: 0x32A64, symSize: 0x210 }
  - { offset: 0x4B316, size: 0x8, addend: 0x0, symName: __RINvMsi_NtCsdFlNUEO95cG_5alloc3vecINtB6_3VecmE14extend_trustedINtNtNtCs85QQFkKrybG_4core3ops5range5RangemEECslvhnBjKo0yW_26wasm_bindgen_macro_support, symObjAddr: 0x3150, symBinAddr: 0x32C74, symSize: 0x16C }
  - { offset: 0x4B67C, size: 0x8, addend: 0x0, symName: __RINvMsi_NtCsdFlNUEO95cG_5alloc3vecINtB6_3VecmE16extend_desugaredINtNtNtNtCs85QQFkKrybG_4core4iter8adapters3map3MapNtNtNtB19_3str4iter5CharsNCNvXs0_NtCslvhnBjKo0yW_26wasm_bindgen_macro_support7codegenNtNtB2n_3ast6StructNtNtCshi3DZH3dfhk_5quote9to_tokens8ToTokens9to_tokens0EEB2n_, symObjAddr: 0x32BC, symBinAddr: 0x32DE0, symSize: 0x1D4 }
  - { offset: 0x4BC43, size: 0x8, addend: 0x0, symName: __RNvMNtCsdFlNUEO95cG_5alloc3vecINtB2_3VecNtCsfwj6t2KTYdc_11proc_macro211TokenStreamE3newCslvhnBjKo0yW_26wasm_bindgen_macro_support, symObjAddr: 0x44A0, symBinAddr: 0x33FC4, symSize: 0x14 }
  - { offset: 0x4BC60, size: 0x8, addend: 0x0, symName: __RNvMNtCsdFlNUEO95cG_5alloc3vecINtB2_3VecNtCsfwj6t2KTYdc_11proc_macro24SpanE3newCslvhnBjKo0yW_26wasm_bindgen_macro_support, symObjAddr: 0x44B4, symBinAddr: 0x33FD8, symSize: 0x14 }
  - { offset: 0x4BC7D, size: 0x8, addend: 0x0, symName: __RNvMNtCsdFlNUEO95cG_5alloc3vecINtB2_3VecNtCsfwj6t2KTYdc_11proc_macro25IdentE3newCslvhnBjKo0yW_26wasm_bindgen_macro_support, symObjAddr: 0x44C8, symBinAddr: 0x33FEC, symSize: 0x14 }
  - { offset: 0x4BC9A, size: 0x8, addend: 0x0, symName: __RNvMNtCsdFlNUEO95cG_5alloc3vecINtB2_3VecNtNtB4_6string6StringE3newCslvhnBjKo0yW_26wasm_bindgen_macro_support, symObjAddr: 0x44DC, symBinAddr: 0x34000, symSize: 0x14 }
  - { offset: 0x4BCB7, size: 0x8, addend: 0x0, symName: __RNvMNtCsdFlNUEO95cG_5alloc3vecINtB2_3VecNtNtCscwCr4GBBztI_3syn3pat7PatTypeE3newCslvhnBjKo0yW_26wasm_bindgen_macro_support, symObjAddr: 0x44F0, symBinAddr: 0x34014, symSize: 0x14 }
  - { offset: 0x4BD36, size: 0x8, addend: 0x0, symName: __RNvMNtCsdFlNUEO95cG_5alloc3vecINtB2_3VecNtNtCscwCr4GBBztI_3syn4item5FnArgE13with_capacityCslvhnBjKo0yW_26wasm_bindgen_macro_support, symObjAddr: 0x4504, symBinAddr: 0x34028, symSize: 0x48 }
  - { offset: 0x4BDAE, size: 0x8, addend: 0x0, symName: __RNvMNtCsdFlNUEO95cG_5alloc3vecINtB2_3VecNtNtCscwCr4GBBztI_3syn4path4PathE3newCslvhnBjKo0yW_26wasm_bindgen_macro_support, symObjAddr: 0x454C, symBinAddr: 0x34070, symSize: 0x14 }
  - { offset: 0x4BDCB, size: 0x8, addend: 0x0, symName: __RNvMNtCsdFlNUEO95cG_5alloc3vecINtB2_3VecNtNtCslvhnBjKo0yW_26wasm_bindgen_macro_support3ast11StructFieldE3newBG_, symObjAddr: 0x4560, symBinAddr: 0x34084, symSize: 0x14 }
  - { offset: 0x4BDE8, size: 0x8, addend: 0x0, symName: __RNvMNtCsdFlNUEO95cG_5alloc3vecINtB2_3VecNtNtCslvhnBjKo0yW_26wasm_bindgen_macro_support5error10DiagnosticE3newBG_, symObjAddr: 0x4574, symBinAddr: 0x34098, symSize: 0x14 }
  - { offset: 0x4BE05, size: 0x8, addend: 0x0, symName: __RNvMNtCsdFlNUEO95cG_5alloc3vecINtB2_3VecNtNtCslvhnBjKo0yW_26wasm_bindgen_macro_support6encode11EncodeChunkE3newBG_, symObjAddr: 0x4588, symBinAddr: 0x340AC, symSize: 0x14 }
  - { offset: 0x4BE22, size: 0x8, addend: 0x0, symName: __RNvMNtCsdFlNUEO95cG_5alloc3vecINtB2_3VecNtNtCslvhnBjKo0yW_26wasm_bindgen_macro_support6parser10FnArgAttrsE3newBG_, symObjAddr: 0x459C, symBinAddr: 0x340C0, symSize: 0x14 }
  - { offset: 0x4BEA1, size: 0x8, addend: 0x0, symName: __RNvMNtCsdFlNUEO95cG_5alloc3vecINtB2_3VecNtNtCslvhnBjKo0yW_26wasm_bindgen_macro_support6parser11BindgenAttrE13with_capacityBG_, symObjAddr: 0x45B0, symBinAddr: 0x340D4, symSize: 0x48 }
  - { offset: 0x4BF19, size: 0x8, addend: 0x0, symName: __RNvMNtCsdFlNUEO95cG_5alloc3vecINtB2_3VecRNtNtCscwCr4GBBztI_3syn2ty4TypeE3newCslvhnBjKo0yW_26wasm_bindgen_macro_support, symObjAddr: 0x45F8, symBinAddr: 0x3411C, symSize: 0x14 }
  - { offset: 0x4BF36, size: 0x8, addend: 0x0, symName: __RNvMNtCsdFlNUEO95cG_5alloc3vecINtB2_3VecTINtNtCs85QQFkKrybG_4core4cell4CellbENtNtCslvhnBjKo0yW_26wasm_bindgen_macro_support6parser11BindgenAttrEE3newB1h_, symObjAddr: 0x460C, symBinAddr: 0x34130, symSize: 0x14 }
  - { offset: 0x4BF71, size: 0x8, addend: 0x0, symName: __RNvMNtCsdFlNUEO95cG_5alloc3vecINtB2_3VecTNtNtCslvhnBjKo0yW_26wasm_bindgen_macro_support6parser11BindgenAttrNtNtCscwCr4GBBztI_3syn5token5CommaEE3newBH_, symObjAddr: 0x4620, symBinAddr: 0x34144, symSize: 0x14 }
  - { offset: 0x4C067, size: 0x8, addend: 0x0, symName: __RNvMs_NtCsdFlNUEO95cG_5alloc3vecINtB4_3VecNtCsfwj6t2KTYdc_11proc_macro211TokenStreamE15append_elementsCslvhnBjKo0yW_26wasm_bindgen_macro_support, symObjAddr: 0x4634, symBinAddr: 0x34158, symSize: 0xE0 }
  - { offset: 0x4C1F9, size: 0x8, addend: 0x0, symName: __RNvMs_NtCsdFlNUEO95cG_5alloc3vecINtB4_3VecNtCsfwj6t2KTYdc_11proc_macro211TokenStreamE3lenCslvhnBjKo0yW_26wasm_bindgen_macro_support, symObjAddr: 0x4714, symBinAddr: 0x34238, symSize: 0x18 }
  - { offset: 0x4C22E, size: 0x8, addend: 0x0, symName: __RNvMs_NtCsdFlNUEO95cG_5alloc3vecINtB4_3VecNtCsfwj6t2KTYdc_11proc_macro211TokenStreamE4pushCslvhnBjKo0yW_26wasm_bindgen_macro_support, symObjAddr: 0x472C, symBinAddr: 0x34250, symSize: 0x24 }
  - { offset: 0x4C3A3, size: 0x8, addend: 0x0, symName: __RNvMs_NtCsdFlNUEO95cG_5alloc3vecINtB4_3VecNtCsfwj6t2KTYdc_11proc_macro211TokenStreamE7reserveCslvhnBjKo0yW_26wasm_bindgen_macro_support, symObjAddr: 0x4750, symBinAddr: 0x34274, symSize: 0xC8 }
  - { offset: 0x4C598, size: 0x8, addend: 0x0, symName: __RNvMs_NtCsdFlNUEO95cG_5alloc3vecINtB4_3VecNtCsfwj6t2KTYdc_11proc_macro211TokenStreamE8as_sliceCslvhnBjKo0yW_26wasm_bindgen_macro_support, symObjAddr: 0x4818, symBinAddr: 0x3433C, symSize: 0x6C }
  - { offset: 0x4C73E, size: 0x8, addend: 0x0, symName: __RNvMs_NtCsdFlNUEO95cG_5alloc3vecINtB4_3VecNtCsfwj6t2KTYdc_11proc_macro211TokenStreamE8push_mutCslvhnBjKo0yW_26wasm_bindgen_macro_support, symObjAddr: 0x4884, symBinAddr: 0x343A8, symSize: 0x100 }
  - { offset: 0x4C9E0, size: 0x8, addend: 0x0, symName: __RNvMs_NtCsdFlNUEO95cG_5alloc3vecINtB4_3VecNtCsfwj6t2KTYdc_11proc_macro24SpanE17from_raw_parts_inCslvhnBjKo0yW_26wasm_bindgen_macro_support, symObjAddr: 0x4984, symBinAddr: 0x344A8, symSize: 0xA8 }
  - { offset: 0x4CB73, size: 0x8, addend: 0x0, symName: __RNvMs_NtCsdFlNUEO95cG_5alloc3vecINtB4_3VecNtCsfwj6t2KTYdc_11proc_macro24SpanE4pushCslvhnBjKo0yW_26wasm_bindgen_macro_support, symObjAddr: 0x4A2C, symBinAddr: 0x34550, symSize: 0x28 }
  - { offset: 0x4CCBD, size: 0x8, addend: 0x0, symName: __RNvMs_NtCsdFlNUEO95cG_5alloc3vecINtB4_3VecNtCsfwj6t2KTYdc_11proc_macro24SpanE8push_mutCslvhnBjKo0yW_26wasm_bindgen_macro_support, symObjAddr: 0x4A54, symBinAddr: 0x34578, symSize: 0xE0 }
  - { offset: 0x4CE6F, size: 0x8, addend: 0x0, symName: __RNvMs_NtCsdFlNUEO95cG_5alloc3vecINtB4_3VecNtCsfwj6t2KTYdc_11proc_macro25IdentE4pushCslvhnBjKo0yW_26wasm_bindgen_macro_support, symObjAddr: 0x4B34, symBinAddr: 0x34658, symSize: 0x24 }
  - { offset: 0x4CFCA, size: 0x8, addend: 0x0, symName: __RNvMs_NtCsdFlNUEO95cG_5alloc3vecINtB4_3VecNtCsfwj6t2KTYdc_11proc_macro25IdentE7reserveCslvhnBjKo0yW_26wasm_bindgen_macro_support, symObjAddr: 0x4B58, symBinAddr: 0x3467C, symSize: 0xC8 }
  - { offset: 0x4D1D5, size: 0x8, addend: 0x0, symName: __RNvMs_NtCsdFlNUEO95cG_5alloc3vecINtB4_3VecNtCsfwj6t2KTYdc_11proc_macro25IdentE8as_sliceCslvhnBjKo0yW_26wasm_bindgen_macro_support, symObjAddr: 0x4C20, symBinAddr: 0x34744, symSize: 0x6C }
  - { offset: 0x4D37B, size: 0x8, addend: 0x0, symName: __RNvMs_NtCsdFlNUEO95cG_5alloc3vecINtB4_3VecNtCsfwj6t2KTYdc_11proc_macro25IdentE8push_mutCslvhnBjKo0yW_26wasm_bindgen_macro_support, symObjAddr: 0x4C8C, symBinAddr: 0x347B0, symSize: 0x108 }
  - { offset: 0x4D603, size: 0x8, addend: 0x0, symName: __RNvMs_NtCsdFlNUEO95cG_5alloc3vecINtB4_3VecNtNtB6_6string6StringE17from_raw_parts_inCslvhnBjKo0yW_26wasm_bindgen_macro_support, symObjAddr: 0x4D94, symBinAddr: 0x348B8, symSize: 0xA8 }
  - { offset: 0x4D789, size: 0x8, addend: 0x0, symName: __RNvMs_NtCsdFlNUEO95cG_5alloc3vecINtB4_3VecNtNtB6_6string6StringE3lenCslvhnBjKo0yW_26wasm_bindgen_macro_support, symObjAddr: 0x4E3C, symBinAddr: 0x34960, symSize: 0x18 }
  - { offset: 0x4D7BE, size: 0x8, addend: 0x0, symName: __RNvMs_NtCsdFlNUEO95cG_5alloc3vecINtB4_3VecNtNtB6_6string6StringE4pushCslvhnBjKo0yW_26wasm_bindgen_macro_support, symObjAddr: 0x4E54, symBinAddr: 0x34978, symSize: 0x24 }
  - { offset: 0x4D919, size: 0x8, addend: 0x0, symName: __RNvMs_NtCsdFlNUEO95cG_5alloc3vecINtB4_3VecNtNtB6_6string6StringE7reserveCslvhnBjKo0yW_26wasm_bindgen_macro_support, symObjAddr: 0x4E78, symBinAddr: 0x3499C, symSize: 0xC8 }
  - { offset: 0x4DB04, size: 0x8, addend: 0x0, symName: __RNvMs_NtCsdFlNUEO95cG_5alloc3vecINtB4_3VecNtNtB6_6string6StringE7set_lenCslvhnBjKo0yW_26wasm_bindgen_macro_support, symObjAddr: 0x4F40, symBinAddr: 0x34A64, symSize: 0x80 }
  - { offset: 0x4DC4D, size: 0x8, addend: 0x0, symName: __RNvMs_NtCsdFlNUEO95cG_5alloc3vecINtB4_3VecNtNtB6_6string6StringE8as_sliceCslvhnBjKo0yW_26wasm_bindgen_macro_support, symObjAddr: 0x4FC0, symBinAddr: 0x34AE4, symSize: 0x6C }
  - { offset: 0x4DD2C, size: 0x8, addend: 0x0, symName: __RNvMs_NtCsdFlNUEO95cG_5alloc3vecINtB4_3VecNtNtB6_6string6StringE8is_emptyCslvhnBjKo0yW_26wasm_bindgen_macro_support, symObjAddr: 0x502C, symBinAddr: 0x34B50, symSize: 0x20 }
  - { offset: 0x4DE5E, size: 0x8, addend: 0x0, symName: __RNvMs_NtCsdFlNUEO95cG_5alloc3vecINtB4_3VecNtNtB6_6string6StringE8push_mutCslvhnBjKo0yW_26wasm_bindgen_macro_support, symObjAddr: 0x504C, symBinAddr: 0x34B70, symSize: 0x108 }
  - { offset: 0x4E01F, size: 0x8, addend: 0x0, symName: __RNvMs_NtCsdFlNUEO95cG_5alloc3vecINtB4_3VecNtNtCscwCr4GBBztI_3syn3pat7PatTypeE4pushCslvhnBjKo0yW_26wasm_bindgen_macro_support, symObjAddr: 0x5154, symBinAddr: 0x34C78, symSize: 0x24 }
  - { offset: 0x4E16A, size: 0x8, addend: 0x0, symName: __RNvMs_NtCsdFlNUEO95cG_5alloc3vecINtB4_3VecNtNtCscwCr4GBBztI_3syn3pat7PatTypeE8push_mutCslvhnBjKo0yW_26wasm_bindgen_macro_support, symObjAddr: 0x5178, symBinAddr: 0x34C9C, symSize: 0x11C }
  - { offset: 0x4E479, size: 0x8, addend: 0x0, symName: __RNvMs_NtCsdFlNUEO95cG_5alloc3vecINtB4_3VecNtNtCscwCr4GBBztI_3syn4attr9AttributeE10insert_mutCslvhnBjKo0yW_26wasm_bindgen_macro_support, symObjAddr: 0x5294, symBinAddr: 0x34DB8, symSize: 0x23C }
  - { offset: 0x4E73E, size: 0x8, addend: 0x0, symName: __RNvMs_NtCsdFlNUEO95cG_5alloc3vecINtB4_3VecNtNtCscwCr4GBBztI_3syn4attr9AttributeE6insertCslvhnBjKo0yW_26wasm_bindgen_macro_support, symObjAddr: 0x54D0, symBinAddr: 0x34FF4, symSize: 0x28 }
  - { offset: 0x4E8EC, size: 0x8, addend: 0x0, symName: __RNvMs_NtCsdFlNUEO95cG_5alloc3vecINtB4_3VecNtNtCscwCr4GBBztI_3syn4attr9AttributeE6removeCslvhnBjKo0yW_26wasm_bindgen_macro_support, symObjAddr: 0x54F8, symBinAddr: 0x3501C, symSize: 0x180 }
  - { offset: 0x4EB62, size: 0x8, addend: 0x0, symName: __RNvMs_NtCsdFlNUEO95cG_5alloc3vecINtB4_3VecNtNtCscwCr4GBBztI_3syn4item5FnArgE4pushCslvhnBjKo0yW_26wasm_bindgen_macro_support, symObjAddr: 0x5678, symBinAddr: 0x3519C, symSize: 0x24 }
  - { offset: 0x4ECBA, size: 0x8, addend: 0x0, symName: __RNvMs_NtCsdFlNUEO95cG_5alloc3vecINtB4_3VecNtNtCscwCr4GBBztI_3syn4item5FnArgE8push_mutCslvhnBjKo0yW_26wasm_bindgen_macro_support, symObjAddr: 0x569C, symBinAddr: 0x351C0, symSize: 0x124 }
  - { offset: 0x4EF4C, size: 0x8, addend: 0x0, symName: __RNvMs_NtCsdFlNUEO95cG_5alloc3vecINtB4_3VecNtNtCscwCr4GBBztI_3syn4item8ImplItemE12as_mut_sliceCslvhnBjKo0yW_26wasm_bindgen_macro_support, symObjAddr: 0x57C0, symBinAddr: 0x352E4, symSize: 0x6C }
  - { offset: 0x4F028, size: 0x8, addend: 0x0, symName: __RNvMs_NtCsdFlNUEO95cG_5alloc3vecINtB4_3VecNtNtCscwCr4GBBztI_3syn4path4PathE4pushCslvhnBjKo0yW_26wasm_bindgen_macro_support, symObjAddr: 0x582C, symBinAddr: 0x35350, symSize: 0x24 }
  - { offset: 0x4F138, size: 0x8, addend: 0x0, symName: __RNvMs_NtCsdFlNUEO95cG_5alloc3vecINtB4_3VecNtNtCscwCr4GBBztI_3syn4path4PathE8as_sliceCslvhnBjKo0yW_26wasm_bindgen_macro_support, symObjAddr: 0x5850, symBinAddr: 0x35374, symSize: 0x6C }
  - { offset: 0x4F2DE, size: 0x8, addend: 0x0, symName: __RNvMs_NtCsdFlNUEO95cG_5alloc3vecINtB4_3VecNtNtCscwCr4GBBztI_3syn4path4PathE8push_mutCslvhnBjKo0yW_26wasm_bindgen_macro_support, symObjAddr: 0x58BC, symBinAddr: 0x353E0, symSize: 0x11C }
  - { offset: 0x4F4A0, size: 0x8, addend: 0x0, symName: __RNvMs_NtCsdFlNUEO95cG_5alloc3vecINtB4_3VecNtNtCslvhnBjKo0yW_26wasm_bindgen_macro_support3ast11StructFieldE4pushBI_, symObjAddr: 0x59D8, symBinAddr: 0x354FC, symSize: 0x24 }
  - { offset: 0x4F5A3, size: 0x8, addend: 0x0, symName: __RNvMs_NtCsdFlNUEO95cG_5alloc3vecINtB4_3VecNtNtCslvhnBjKo0yW_26wasm_bindgen_macro_support3ast11StructFieldE8as_sliceBI_, symObjAddr: 0x59FC, symBinAddr: 0x35520, symSize: 0x6C }
  - { offset: 0x4F749, size: 0x8, addend: 0x0, symName: __RNvMs_NtCsdFlNUEO95cG_5alloc3vecINtB4_3VecNtNtCslvhnBjKo0yW_26wasm_bindgen_macro_support3ast11StructFieldE8push_mutBI_, symObjAddr: 0x5A68, symBinAddr: 0x3558C, symSize: 0x124 }
  - { offset: 0x4F90D, size: 0x8, addend: 0x0, symName: __RNvMs_NtCsdFlNUEO95cG_5alloc3vecINtB4_3VecNtNtCslvhnBjKo0yW_26wasm_bindgen_macro_support3ast12ImportModuleE4pushBI_, symObjAddr: 0x5B8C, symBinAddr: 0x356B0, symSize: 0x24 }
  - { offset: 0x4FA10, size: 0x8, addend: 0x0, symName: __RNvMs_NtCsdFlNUEO95cG_5alloc3vecINtB4_3VecNtNtCslvhnBjKo0yW_26wasm_bindgen_macro_support3ast12ImportModuleE8as_sliceBI_, symObjAddr: 0x5BB0, symBinAddr: 0x356D4, symSize: 0x6C }
  - { offset: 0x4FBB6, size: 0x8, addend: 0x0, symName: __RNvMs_NtCsdFlNUEO95cG_5alloc3vecINtB4_3VecNtNtCslvhnBjKo0yW_26wasm_bindgen_macro_support3ast12ImportModuleE8push_mutBI_, symObjAddr: 0x5C1C, symBinAddr: 0x35740, symSize: 0x100 }
  - { offset: 0x4FD6A, size: 0x8, addend: 0x0, symName: __RNvMs_NtCsdFlNUEO95cG_5alloc3vecINtB4_3VecNtNtCslvhnBjKo0yW_26wasm_bindgen_macro_support3ast20FunctionArgumentDataE3lenBI_, symObjAddr: 0x5D1C, symBinAddr: 0x35840, symSize: 0x18 }
  - { offset: 0x4FEB5, size: 0x8, addend: 0x0, symName: __RNvMs_NtCsdFlNUEO95cG_5alloc3vecINtB4_3VecNtNtCslvhnBjKo0yW_26wasm_bindgen_macro_support3ast20FunctionArgumentDataE7reserveBI_, symObjAddr: 0x5D34, symBinAddr: 0x35858, symSize: 0xC8 }
  - { offset: 0x500B3, size: 0x8, addend: 0x0, symName: __RNvMs_NtCsdFlNUEO95cG_5alloc3vecINtB4_3VecNtNtCslvhnBjKo0yW_26wasm_bindgen_macro_support3ast20FunctionArgumentDataE8as_sliceBI_, symObjAddr: 0x5DFC, symBinAddr: 0x35920, symSize: 0x6C }
  - { offset: 0x5017A, size: 0x8, addend: 0x0, symName: __RNvMs_NtCsdFlNUEO95cG_5alloc3vecINtB4_3VecNtNtCslvhnBjKo0yW_26wasm_bindgen_macro_support3ast4EnumE4pushBI_, symObjAddr: 0x5E68, symBinAddr: 0x3598C, symSize: 0x24 }
  - { offset: 0x5027D, size: 0x8, addend: 0x0, symName: __RNvMs_NtCsdFlNUEO95cG_5alloc3vecINtB4_3VecNtNtCslvhnBjKo0yW_26wasm_bindgen_macro_support3ast4EnumE8as_sliceBI_, symObjAddr: 0x5E8C, symBinAddr: 0x359B0, symSize: 0x6C }
  - { offset: 0x50423, size: 0x8, addend: 0x0, symName: __RNvMs_NtCsdFlNUEO95cG_5alloc3vecINtB4_3VecNtNtCslvhnBjKo0yW_26wasm_bindgen_macro_support3ast4EnumE8push_mutBI_, symObjAddr: 0x5EF8, symBinAddr: 0x35A1C, symSize: 0x124 }
  - { offset: 0x505E7, size: 0x8, addend: 0x0, symName: __RNvMs_NtCsdFlNUEO95cG_5alloc3vecINtB4_3VecNtNtCslvhnBjKo0yW_26wasm_bindgen_macro_support3ast6ExportE4pushBI_, symObjAddr: 0x601C, symBinAddr: 0x35B40, symSize: 0x24 }
  - { offset: 0x506EA, size: 0x8, addend: 0x0, symName: __RNvMs_NtCsdFlNUEO95cG_5alloc3vecINtB4_3VecNtNtCslvhnBjKo0yW_26wasm_bindgen_macro_support3ast6ExportE8as_sliceBI_, symObjAddr: 0x6040, symBinAddr: 0x35B64, symSize: 0x6C }
  - { offset: 0x50890, size: 0x8, addend: 0x0, symName: __RNvMs_NtCsdFlNUEO95cG_5alloc3vecINtB4_3VecNtNtCslvhnBjKo0yW_26wasm_bindgen_macro_support3ast6ExportE8push_mutBI_, symObjAddr: 0x60AC, symBinAddr: 0x35BD0, symSize: 0x124 }
  - { offset: 0x50A54, size: 0x8, addend: 0x0, symName: __RNvMs_NtCsdFlNUEO95cG_5alloc3vecINtB4_3VecNtNtCslvhnBjKo0yW_26wasm_bindgen_macro_support3ast6ImportE4pushBI_, symObjAddr: 0x61D0, symBinAddr: 0x35CF4, symSize: 0x24 }
  - { offset: 0x50B57, size: 0x8, addend: 0x0, symName: __RNvMs_NtCsdFlNUEO95cG_5alloc3vecINtB4_3VecNtNtCslvhnBjKo0yW_26wasm_bindgen_macro_support3ast6ImportE8as_sliceBI_, symObjAddr: 0x61F4, symBinAddr: 0x35D18, symSize: 0x6C }
  - { offset: 0x50CFD, size: 0x8, addend: 0x0, symName: __RNvMs_NtCsdFlNUEO95cG_5alloc3vecINtB4_3VecNtNtCslvhnBjKo0yW_26wasm_bindgen_macro_support3ast6ImportE8push_mutBI_, symObjAddr: 0x6260, symBinAddr: 0x35D84, symSize: 0x128 }
  - { offset: 0x50EC1, size: 0x8, addend: 0x0, symName: __RNvMs_NtCsdFlNUEO95cG_5alloc3vecINtB4_3VecNtNtCslvhnBjKo0yW_26wasm_bindgen_macro_support3ast6StructE4pushBI_, symObjAddr: 0x6388, symBinAddr: 0x35EAC, symSize: 0x24 }
  - { offset: 0x50FC4, size: 0x8, addend: 0x0, symName: __RNvMs_NtCsdFlNUEO95cG_5alloc3vecINtB4_3VecNtNtCslvhnBjKo0yW_26wasm_bindgen_macro_support3ast6StructE8as_sliceBI_, symObjAddr: 0x63AC, symBinAddr: 0x35ED0, symSize: 0x6C }
  - { offset: 0x5116A, size: 0x8, addend: 0x0, symName: __RNvMs_NtCsdFlNUEO95cG_5alloc3vecINtB4_3VecNtNtCslvhnBjKo0yW_26wasm_bindgen_macro_support3ast6StructE8push_mutBI_, symObjAddr: 0x6418, symBinAddr: 0x35F3C, symSize: 0x124 }
  - { offset: 0x51437, size: 0x8, addend: 0x0, symName: __RNvMs_NtCsdFlNUEO95cG_5alloc3vecINtB4_3VecNtNtCslvhnBjKo0yW_26wasm_bindgen_macro_support3ast7VariantE7reserveBI_, symObjAddr: 0x653C, symBinAddr: 0x36060, symSize: 0xC8 }
  - { offset: 0x51635, size: 0x8, addend: 0x0, symName: __RNvMs_NtCsdFlNUEO95cG_5alloc3vecINtB4_3VecNtNtCslvhnBjKo0yW_26wasm_bindgen_macro_support3ast7VariantE8as_sliceBI_, symObjAddr: 0x6604, symBinAddr: 0x36128, symSize: 0x6C }
  - { offset: 0x516FC, size: 0x8, addend: 0x0, symName: __RNvMs_NtCsdFlNUEO95cG_5alloc3vecINtB4_3VecNtNtCslvhnBjKo0yW_26wasm_bindgen_macro_support3ast9LitOrExprE4pushBI_, symObjAddr: 0x6670, symBinAddr: 0x36194, symSize: 0x24 }
  - { offset: 0x517FF, size: 0x8, addend: 0x0, symName: __RNvMs_NtCsdFlNUEO95cG_5alloc3vecINtB4_3VecNtNtCslvhnBjKo0yW_26wasm_bindgen_macro_support3ast9LitOrExprE8as_sliceBI_, symObjAddr: 0x6694, symBinAddr: 0x361B8, symSize: 0x6C }
  - { offset: 0x519A5, size: 0x8, addend: 0x0, symName: __RNvMs_NtCsdFlNUEO95cG_5alloc3vecINtB4_3VecNtNtCslvhnBjKo0yW_26wasm_bindgen_macro_support3ast9LitOrExprE8push_mutBI_, symObjAddr: 0x6700, symBinAddr: 0x36224, symSize: 0x124 }
  - { offset: 0x51B69, size: 0x8, addend: 0x0, symName: __RNvMs_NtCsdFlNUEO95cG_5alloc3vecINtB4_3VecNtNtCslvhnBjKo0yW_26wasm_bindgen_macro_support5error10DiagnosticE4pushBI_, symObjAddr: 0x6824, symBinAddr: 0x36348, symSize: 0x24 }
  - { offset: 0x51BE0, size: 0x8, addend: 0x0, symName: __RNvMs_NtCsdFlNUEO95cG_5alloc3vecINtB4_3VecNtNtCslvhnBjKo0yW_26wasm_bindgen_macro_support5error10DiagnosticE8is_emptyBI_, symObjAddr: 0x6848, symBinAddr: 0x3636C, symSize: 0x20 }
  - { offset: 0x51D46, size: 0x8, addend: 0x0, symName: __RNvMs_NtCsdFlNUEO95cG_5alloc3vecINtB4_3VecNtNtCslvhnBjKo0yW_26wasm_bindgen_macro_support5error10DiagnosticE8push_mutBI_, symObjAddr: 0x6868, symBinAddr: 0x3638C, symSize: 0x11C }
  - { offset: 0x51FC9, size: 0x8, addend: 0x0, symName: __RNvMs_NtCsdFlNUEO95cG_5alloc3vecINtB4_3VecNtNtCslvhnBjKo0yW_26wasm_bindgen_macro_support6encode11EncodeChunkE12as_mut_sliceBI_, symObjAddr: 0x6984, symBinAddr: 0x364A8, symSize: 0x6C }
  - { offset: 0x52098, size: 0x8, addend: 0x0, symName: __RNvMs_NtCsdFlNUEO95cG_5alloc3vecINtB4_3VecNtNtCslvhnBjKo0yW_26wasm_bindgen_macro_support6encode11EncodeChunkE4pushBI_, symObjAddr: 0x69F0, symBinAddr: 0x36514, symSize: 0x24 }
  - { offset: 0x52178, size: 0x8, addend: 0x0, symName: __RNvMs_NtCsdFlNUEO95cG_5alloc3vecINtB4_3VecNtNtCslvhnBjKo0yW_26wasm_bindgen_macro_support6encode11EncodeChunkE8as_sliceBI_, symObjAddr: 0x6A14, symBinAddr: 0x36538, symSize: 0x6C }
  - { offset: 0x5231E, size: 0x8, addend: 0x0, symName: __RNvMs_NtCsdFlNUEO95cG_5alloc3vecINtB4_3VecNtNtCslvhnBjKo0yW_26wasm_bindgen_macro_support6encode11EncodeChunkE8push_mutBI_, symObjAddr: 0x6A80, symBinAddr: 0x365A4, symSize: 0x124 }
  - { offset: 0x524E2, size: 0x8, addend: 0x0, symName: __RNvMs_NtCsdFlNUEO95cG_5alloc3vecINtB4_3VecNtNtCslvhnBjKo0yW_26wasm_bindgen_macro_support6encode11EnumVariantE3lenBI_, symObjAddr: 0x6BA4, symBinAddr: 0x366C8, symSize: 0x18 }
  - { offset: 0x5262D, size: 0x8, addend: 0x0, symName: __RNvMs_NtCsdFlNUEO95cG_5alloc3vecINtB4_3VecNtNtCslvhnBjKo0yW_26wasm_bindgen_macro_support6encode11EnumVariantE7reserveBI_, symObjAddr: 0x6BBC, symBinAddr: 0x366E0, symSize: 0xC8 }
  - { offset: 0x52794, size: 0x8, addend: 0x0, symName: __RNvMs_NtCsdFlNUEO95cG_5alloc3vecINtB4_3VecNtNtCslvhnBjKo0yW_26wasm_bindgen_macro_support6encode11LocalModuleE3lenBI_, symObjAddr: 0x6C84, symBinAddr: 0x367A8, symSize: 0x18 }
  - { offset: 0x528DF, size: 0x8, addend: 0x0, symName: __RNvMs_NtCsdFlNUEO95cG_5alloc3vecINtB4_3VecNtNtCslvhnBjKo0yW_26wasm_bindgen_macro_support6encode11LocalModuleE7reserveBI_, symObjAddr: 0x6C9C, symBinAddr: 0x367C0, symSize: 0xC8 }
  - { offset: 0x52A53, size: 0x8, addend: 0x0, symName: __RNvMs_NtCsdFlNUEO95cG_5alloc3vecINtB4_3VecNtNtCslvhnBjKo0yW_26wasm_bindgen_macro_support6encode11StructFieldE3lenBI_, symObjAddr: 0x6D64, symBinAddr: 0x36888, symSize: 0x18 }
  - { offset: 0x52B9E, size: 0x8, addend: 0x0, symName: __RNvMs_NtCsdFlNUEO95cG_5alloc3vecINtB4_3VecNtNtCslvhnBjKo0yW_26wasm_bindgen_macro_support6encode11StructFieldE7reserveBI_, symObjAddr: 0x6D7C, symBinAddr: 0x368A0, symSize: 0xC8 }
  - { offset: 0x52D05, size: 0x8, addend: 0x0, symName: __RNvMs_NtCsdFlNUEO95cG_5alloc3vecINtB4_3VecNtNtCslvhnBjKo0yW_26wasm_bindgen_macro_support6encode12LinkedModuleE3lenBI_, symObjAddr: 0x6E44, symBinAddr: 0x36968, symSize: 0x18 }
  - { offset: 0x52E50, size: 0x8, addend: 0x0, symName: __RNvMs_NtCsdFlNUEO95cG_5alloc3vecINtB4_3VecNtNtCslvhnBjKo0yW_26wasm_bindgen_macro_support6encode12LinkedModuleE7reserveBI_, symObjAddr: 0x6E5C, symBinAddr: 0x36980, symSize: 0xC8 }
  - { offset: 0x52FC4, size: 0x8, addend: 0x0, symName: __RNvMs_NtCsdFlNUEO95cG_5alloc3vecINtB4_3VecNtNtCslvhnBjKo0yW_26wasm_bindgen_macro_support6encode20FunctionArgumentDataE3lenBI_, symObjAddr: 0x6F24, symBinAddr: 0x36A48, symSize: 0x18 }
  - { offset: 0x5310F, size: 0x8, addend: 0x0, symName: __RNvMs_NtCsdFlNUEO95cG_5alloc3vecINtB4_3VecNtNtCslvhnBjKo0yW_26wasm_bindgen_macro_support6encode20FunctionArgumentDataE7reserveBI_, symObjAddr: 0x6F3C, symBinAddr: 0x36A60, symSize: 0xC8 }
  - { offset: 0x53283, size: 0x8, addend: 0x0, symName: __RNvMs_NtCsdFlNUEO95cG_5alloc3vecINtB4_3VecNtNtCslvhnBjKo0yW_26wasm_bindgen_macro_support6encode4EnumE3lenBI_, symObjAddr: 0x7004, symBinAddr: 0x36B28, symSize: 0x18 }
  - { offset: 0x533CE, size: 0x8, addend: 0x0, symName: __RNvMs_NtCsdFlNUEO95cG_5alloc3vecINtB4_3VecNtNtCslvhnBjKo0yW_26wasm_bindgen_macro_support6encode4EnumE7reserveBI_, symObjAddr: 0x701C, symBinAddr: 0x36B40, symSize: 0xC8 }
  - { offset: 0x53535, size: 0x8, addend: 0x0, symName: __RNvMs_NtCsdFlNUEO95cG_5alloc3vecINtB4_3VecNtNtCslvhnBjKo0yW_26wasm_bindgen_macro_support6encode6ExportE3lenBI_, symObjAddr: 0x70E4, symBinAddr: 0x36C08, symSize: 0x18 }
  - { offset: 0x53680, size: 0x8, addend: 0x0, symName: __RNvMs_NtCsdFlNUEO95cG_5alloc3vecINtB4_3VecNtNtCslvhnBjKo0yW_26wasm_bindgen_macro_support6encode6ExportE7reserveBI_, symObjAddr: 0x70FC, symBinAddr: 0x36C20, symSize: 0xC8 }
  - { offset: 0x537E7, size: 0x8, addend: 0x0, symName: __RNvMs_NtCsdFlNUEO95cG_5alloc3vecINtB4_3VecNtNtCslvhnBjKo0yW_26wasm_bindgen_macro_support6encode6ImportE3lenBI_, symObjAddr: 0x71C4, symBinAddr: 0x36CE8, symSize: 0x18 }
  - { offset: 0x53932, size: 0x8, addend: 0x0, symName: __RNvMs_NtCsdFlNUEO95cG_5alloc3vecINtB4_3VecNtNtCslvhnBjKo0yW_26wasm_bindgen_macro_support6encode6ImportE7reserveBI_, symObjAddr: 0x71DC, symBinAddr: 0x36D00, symSize: 0xC8 }
  - { offset: 0x53AA6, size: 0x8, addend: 0x0, symName: __RNvMs_NtCsdFlNUEO95cG_5alloc3vecINtB4_3VecNtNtCslvhnBjKo0yW_26wasm_bindgen_macro_support6encode6StructE3lenBI_, symObjAddr: 0x72A4, symBinAddr: 0x36DC8, symSize: 0x18 }
  - { offset: 0x53BF1, size: 0x8, addend: 0x0, symName: __RNvMs_NtCsdFlNUEO95cG_5alloc3vecINtB4_3VecNtNtCslvhnBjKo0yW_26wasm_bindgen_macro_support6encode6StructE7reserveBI_, symObjAddr: 0x72BC, symBinAddr: 0x36DE0, symSize: 0xC8 }
  - { offset: 0x53D65, size: 0x8, addend: 0x0, symName: __RNvMs_NtCsdFlNUEO95cG_5alloc3vecINtB4_3VecNtNtCslvhnBjKo0yW_26wasm_bindgen_macro_support6encode9LitOrExprE3lenBI_, symObjAddr: 0x7384, symBinAddr: 0x36EA8, symSize: 0x18 }
  - { offset: 0x53EB0, size: 0x8, addend: 0x0, symName: __RNvMs_NtCsdFlNUEO95cG_5alloc3vecINtB4_3VecNtNtCslvhnBjKo0yW_26wasm_bindgen_macro_support6encode9LitOrExprE7reserveBI_, symObjAddr: 0x739C, symBinAddr: 0x36EC0, symSize: 0xC8 }
  - { offset: 0x54024, size: 0x8, addend: 0x0, symName: __RNvMs_NtCsdFlNUEO95cG_5alloc3vecINtB4_3VecNtNtCslvhnBjKo0yW_26wasm_bindgen_macro_support6parser10FnArgAttrsE4pushBI_, symObjAddr: 0x7464, symBinAddr: 0x36F88, symSize: 0x24 }
  - { offset: 0x5416F, size: 0x8, addend: 0x0, symName: __RNvMs_NtCsdFlNUEO95cG_5alloc3vecINtB4_3VecNtNtCslvhnBjKo0yW_26wasm_bindgen_macro_support6parser10FnArgAttrsE8push_mutBI_, symObjAddr: 0x7488, symBinAddr: 0x36FAC, symSize: 0x11C }
  - { offset: 0x54331, size: 0x8, addend: 0x0, symName: __RNvMs_NtCsdFlNUEO95cG_5alloc3vecINtB4_3VecNtNtCslvhnBjKo0yW_26wasm_bindgen_macro_support6parser11BindgenAttrE4pushBI_, symObjAddr: 0x75A4, symBinAddr: 0x370C8, symSize: 0x24 }
  - { offset: 0x5447C, size: 0x8, addend: 0x0, symName: __RNvMs_NtCsdFlNUEO95cG_5alloc3vecINtB4_3VecNtNtCslvhnBjKo0yW_26wasm_bindgen_macro_support6parser11BindgenAttrE8push_mutBI_, symObjAddr: 0x75C8, symBinAddr: 0x370EC, symSize: 0x124 }
  - { offset: 0x5471D, size: 0x8, addend: 0x0, symName: __RNvMs_NtCsdFlNUEO95cG_5alloc3vecINtB4_3VecNtNtCslvhnBjKo0yW_26wasm_bindgen_macro_support6parser11UnusedStateE5clearBI_, symObjAddr: 0x76EC, symBinAddr: 0x37210, symSize: 0x84 }
  - { offset: 0x54978, size: 0x8, addend: 0x0, symName: __RNvMs_NtCsdFlNUEO95cG_5alloc3vecINtB4_3VecNtNtCslvhnBjKo0yW_26wasm_bindgen_macro_support6parser11UnusedStateE7reserveBI_, symObjAddr: 0x7770, symBinAddr: 0x37294, symSize: 0xC8 }
  - { offset: 0x54B6D, size: 0x8, addend: 0x0, symName: __RNvMs_NtCsdFlNUEO95cG_5alloc3vecINtB4_3VecNtNtCslvhnBjKo0yW_26wasm_bindgen_macro_support6parser11UnusedStateE8as_sliceBI_, symObjAddr: 0x7838, symBinAddr: 0x3735C, symSize: 0x6C }
  - { offset: 0x54C4C, size: 0x8, addend: 0x0, symName: __RNvMs_NtCsdFlNUEO95cG_5alloc3vecINtB4_3VecNtNtCslvhnBjKo0yW_26wasm_bindgen_macro_support6parser11UnusedStateE8is_emptyBI_, symObjAddr: 0x78A4, symBinAddr: 0x373C8, symSize: 0x20 }
  - { offset: 0x54DB5, size: 0x8, addend: 0x0, symName: __RNvMs_NtCsdFlNUEO95cG_5alloc3vecINtB4_3VecNtNtCswz7ZwgBZOU_3std4path7PathBufE7reserveCslvhnBjKo0yW_26wasm_bindgen_macro_support, symObjAddr: 0x78C4, symBinAddr: 0x373E8, symSize: 0xC8 }
  - { offset: 0x54FB3, size: 0x8, addend: 0x0, symName: __RNvMs_NtCsdFlNUEO95cG_5alloc3vecINtB4_3VecNtNtCswz7ZwgBZOU_3std4path7PathBufE8as_sliceCslvhnBjKo0yW_26wasm_bindgen_macro_support, symObjAddr: 0x798C, symBinAddr: 0x374B0, symSize: 0x6C }
  - { offset: 0x5507A, size: 0x8, addend: 0x0, symName: __RNvMs_NtCsdFlNUEO95cG_5alloc3vecINtB4_3VecRNtNtCscwCr4GBBztI_3syn2ty4TypeE4pushCslvhnBjKo0yW_26wasm_bindgen_macro_support, symObjAddr: 0x79F8, symBinAddr: 0x3751C, symSize: 0x2C }
  - { offset: 0x5517C, size: 0x8, addend: 0x0, symName: __RNvMs_NtCsdFlNUEO95cG_5alloc3vecINtB4_3VecRNtNtCscwCr4GBBztI_3syn2ty4TypeE8as_sliceCslvhnBjKo0yW_26wasm_bindgen_macro_support, symObjAddr: 0x7A24, symBinAddr: 0x37548, symSize: 0x68 }
  - { offset: 0x55322, size: 0x8, addend: 0x0, symName: __RNvMs_NtCsdFlNUEO95cG_5alloc3vecINtB4_3VecRNtNtCscwCr4GBBztI_3syn2ty4TypeE8push_mutCslvhnBjKo0yW_26wasm_bindgen_macro_support, symObjAddr: 0x7A8C, symBinAddr: 0x375B0, symSize: 0xE4 }
  - { offset: 0x555EA, size: 0x8, addend: 0x0, symName: __RNvMs_NtCsdFlNUEO95cG_5alloc3vecINtB4_3VecReE7reserveCslvhnBjKo0yW_26wasm_bindgen_macro_support, symObjAddr: 0x7B70, symBinAddr: 0x37694, symSize: 0xC8 }
  - { offset: 0x5581D, size: 0x8, addend: 0x0, symName: __RNvMs_NtCsdFlNUEO95cG_5alloc3vecINtB4_3VecTINtNtCs85QQFkKrybG_4core4cell4CellbENtNtCslvhnBjKo0yW_26wasm_bindgen_macro_support6parser11BindgenAttrEE15append_elementsB1j_, symObjAddr: 0x7C38, symBinAddr: 0x3775C, symSize: 0xE8 }
  - { offset: 0x55B18, size: 0x8, addend: 0x0, symName: __RNvMs_NtCsdFlNUEO95cG_5alloc3vecINtB4_3VecTINtNtCs85QQFkKrybG_4core4cell4CellbENtNtCslvhnBjKo0yW_26wasm_bindgen_macro_support6parser11BindgenAttrEE6appendB1j_, symObjAddr: 0x7D20, symBinAddr: 0x37844, symSize: 0xDC }
  - { offset: 0x55DCD, size: 0x8, addend: 0x0, symName: __RNvMs_NtCsdFlNUEO95cG_5alloc3vecINtB4_3VecTINtNtCs85QQFkKrybG_4core4cell4CellbENtNtCslvhnBjKo0yW_26wasm_bindgen_macro_support6parser11BindgenAttrEE7reserveB1j_, symObjAddr: 0x7DFC, symBinAddr: 0x37920, symSize: 0xC8 }
  - { offset: 0x55FA4, size: 0x8, addend: 0x0, symName: __RNvMs_NtCsdFlNUEO95cG_5alloc3vecINtB4_3VecTINtNtCs85QQFkKrybG_4core4cell4CellbENtNtCslvhnBjKo0yW_26wasm_bindgen_macro_support6parser11BindgenAttrEE8as_sliceB1j_, symObjAddr: 0x7EC4, symBinAddr: 0x379E8, symSize: 0x6C }
  - { offset: 0x56139, size: 0x8, addend: 0x0, symName: __RNvMs_NtCsdFlNUEO95cG_5alloc3vecINtB4_3VecTNtNtCscwCr4GBBztI_3syn2ty4TypeNtNtBJ_5token5CommaEE12as_mut_sliceCslvhnBjKo0yW_26wasm_bindgen_macro_support, symObjAddr: 0x7F30, symBinAddr: 0x37A54, symSize: 0x6C }
  - { offset: 0x562E3, size: 0x8, addend: 0x0, symName: __RNvMs_NtCsdFlNUEO95cG_5alloc3vecINtB4_3VecTNtNtCscwCr4GBBztI_3syn2ty9BareFnArgNtNtBJ_5token5CommaEE12as_mut_sliceCslvhnBjKo0yW_26wasm_bindgen_macro_support, symObjAddr: 0x7F9C, symBinAddr: 0x37AC0, symSize: 0x6C }
  - { offset: 0x5648D, size: 0x8, addend: 0x0, symName: __RNvMs_NtCsdFlNUEO95cG_5alloc3vecINtB4_3VecTNtNtCscwCr4GBBztI_3syn3pat3PatNtNtBJ_5token2OrEE12as_mut_sliceCslvhnBjKo0yW_26wasm_bindgen_macro_support, symObjAddr: 0x8008, symBinAddr: 0x37B2C, symSize: 0x6C }
  - { offset: 0x56637, size: 0x8, addend: 0x0, symName: __RNvMs_NtCsdFlNUEO95cG_5alloc3vecINtB4_3VecTNtNtCscwCr4GBBztI_3syn3pat3PatNtNtBJ_5token5CommaEE12as_mut_sliceCslvhnBjKo0yW_26wasm_bindgen_macro_support, symObjAddr: 0x8074, symBinAddr: 0x37B98, symSize: 0x6C }
  - { offset: 0x567E1, size: 0x8, addend: 0x0, symName: __RNvMs_NtCsdFlNUEO95cG_5alloc3vecINtB4_3VecTNtNtCscwCr4GBBztI_3syn3pat8FieldPatNtNtBJ_5token5CommaEE12as_mut_sliceCslvhnBjKo0yW_26wasm_bindgen_macro_support, symObjAddr: 0x80E0, symBinAddr: 0x37C04, symSize: 0x6C }
  - { offset: 0x5698B, size: 0x8, addend: 0x0, symName: __RNvMs_NtCsdFlNUEO95cG_5alloc3vecINtB4_3VecTNtNtCscwCr4GBBztI_3syn4data7VariantNtNtBJ_5token5CommaEE12as_mut_sliceCslvhnBjKo0yW_26wasm_bindgen_macro_support, symObjAddr: 0x814C, symBinAddr: 0x37C70, symSize: 0x6C }
  - { offset: 0x56A67, size: 0x8, addend: 0x0, symName: __RNvMs_NtCsdFlNUEO95cG_5alloc3vecINtB4_3VecTNtNtCscwCr4GBBztI_3syn4data7VariantNtNtBJ_5token5CommaEE3lenCslvhnBjKo0yW_26wasm_bindgen_macro_support, symObjAddr: 0x81B8, symBinAddr: 0x37CDC, symSize: 0x18 }
  - { offset: 0x56B77, size: 0x8, addend: 0x0, symName: __RNvMs_NtCsdFlNUEO95cG_5alloc3vecINtB4_3VecTNtNtCscwCr4GBBztI_3syn4expr10FieldValueNtNtBJ_5token5CommaEE12as_mut_sliceCslvhnBjKo0yW_26wasm_bindgen_macro_support, symObjAddr: 0x81D0, symBinAddr: 0x37CF4, symSize: 0x6C }
  - { offset: 0x56D21, size: 0x8, addend: 0x0, symName: __RNvMs_NtCsdFlNUEO95cG_5alloc3vecINtB4_3VecTNtNtCscwCr4GBBztI_3syn4expr4ExprNtNtBJ_5token5CommaEE12as_mut_sliceCslvhnBjKo0yW_26wasm_bindgen_macro_support, symObjAddr: 0x823C, symBinAddr: 0x37D60, symSize: 0x6C }
  - { offset: 0x56ECB, size: 0x8, addend: 0x0, symName: __RNvMs_NtCsdFlNUEO95cG_5alloc3vecINtB4_3VecTNtNtCscwCr4GBBztI_3syn4item5FnArgNtNtBJ_5token5CommaEE12as_mut_sliceCslvhnBjKo0yW_26wasm_bindgen_macro_support, symObjAddr: 0x82A8, symBinAddr: 0x37DCC, symSize: 0x6C }
  - { offset: 0x57075, size: 0x8, addend: 0x0, symName: __RNvMs_NtCsdFlNUEO95cG_5alloc3vecINtB4_3VecTNtNtCscwCr4GBBztI_3syn4item7UseTreeNtNtBJ_5token5CommaEE12as_mut_sliceCslvhnBjKo0yW_26wasm_bindgen_macro_support, symObjAddr: 0x8314, symBinAddr: 0x37E38, symSize: 0x6C }
  - { offset: 0x5721F, size: 0x8, addend: 0x0, symName: __RNvMs_NtCsdFlNUEO95cG_5alloc3vecINtB4_3VecTNtNtCscwCr4GBBztI_3syn4path15GenericArgumentNtNtBJ_5token5CommaEE12as_mut_sliceCslvhnBjKo0yW_26wasm_bindgen_macro_support, symObjAddr: 0x8380, symBinAddr: 0x37EA4, symSize: 0x6C }
  - { offset: 0x573C9, size: 0x8, addend: 0x0, symName: __RNvMs_NtCsdFlNUEO95cG_5alloc3vecINtB4_3VecTNtNtCscwCr4GBBztI_3syn8generics13CapturedParamNtNtBJ_5token5CommaEE12as_mut_sliceCslvhnBjKo0yW_26wasm_bindgen_macro_support, symObjAddr: 0x83EC, symBinAddr: 0x37F10, symSize: 0x6C }
  - { offset: 0x57573, size: 0x8, addend: 0x0, symName: __RNvMs_NtCsdFlNUEO95cG_5alloc3vecINtB4_3VecTNtNtCscwCr4GBBztI_3syn8generics14TypeParamBoundNtNtBJ_5token4PlusEE12as_mut_sliceCslvhnBjKo0yW_26wasm_bindgen_macro_support, symObjAddr: 0x8458, symBinAddr: 0x37F7C, symSize: 0x6C }
  - { offset: 0x5771D, size: 0x8, addend: 0x0, symName: __RNvMs_NtCsdFlNUEO95cG_5alloc3vecINtB4_3VecTNtNtCscwCr4GBBztI_3syn8generics14WherePredicateNtNtBJ_5token5CommaEE12as_mut_sliceCslvhnBjKo0yW_26wasm_bindgen_macro_support, symObjAddr: 0x84C4, symBinAddr: 0x37FE8, symSize: 0x6C }
  - { offset: 0x578C7, size: 0x8, addend: 0x0, symName: __RNvMs_NtCsdFlNUEO95cG_5alloc3vecINtB4_3VecTNtNtCscwCr4GBBztI_3syn8lifetime8LifetimeNtNtBJ_5token4PlusEE12as_mut_sliceCslvhnBjKo0yW_26wasm_bindgen_macro_support, symObjAddr: 0x8530, symBinAddr: 0x38054, symSize: 0x6C }
  - { offset: 0x579A3, size: 0x8, addend: 0x0, symName: __RNvMs_NtCsdFlNUEO95cG_5alloc3vecINtB4_3VecTNtNtCslvhnBjKo0yW_26wasm_bindgen_macro_support6parser11BindgenAttrNtNtCscwCr4GBBztI_3syn5token5CommaEE3lenBJ_, symObjAddr: 0x859C, symBinAddr: 0x380C0, symSize: 0x18 }
  - { offset: 0x579E5, size: 0x8, addend: 0x0, symName: __RNvMs_NtCsdFlNUEO95cG_5alloc3vecINtB4_3VecTNtNtCslvhnBjKo0yW_26wasm_bindgen_macro_support6parser11BindgenAttrNtNtCscwCr4GBBztI_3syn5token5CommaEE4pushBJ_, symObjAddr: 0x85B4, symBinAddr: 0x380D8, symSize: 0x24 }
  - { offset: 0x57B3D, size: 0x8, addend: 0x0, symName: __RNvMs_NtCsdFlNUEO95cG_5alloc3vecINtB4_3VecTNtNtCslvhnBjKo0yW_26wasm_bindgen_macro_support6parser11BindgenAttrNtNtCscwCr4GBBztI_3syn5token5CommaEE8push_mutBJ_, symObjAddr: 0x85D8, symBinAddr: 0x380FC, symSize: 0x124 }
  - { offset: 0x57DC8, size: 0x8, addend: 0x0, symName: __RNvMs_NtCsdFlNUEO95cG_5alloc3vecINtB4_3VechE17from_raw_parts_inCslvhnBjKo0yW_26wasm_bindgen_macro_support, symObjAddr: 0x86FC, symBinAddr: 0x38220, symSize: 0xA8 }
  - { offset: 0x58064, size: 0x8, addend: 0x0, symName: __RNvMs_NtCsdFlNUEO95cG_5alloc3vecINtB4_3VecmE7reserveCslvhnBjKo0yW_26wasm_bindgen_macro_support, symObjAddr: 0x87A4, symBinAddr: 0x382C8, symSize: 0xBC }
  - { offset: 0x58262, size: 0x8, addend: 0x0, symName: __RNvMs_NtCsdFlNUEO95cG_5alloc3vecINtB4_3VecmE8as_sliceCslvhnBjKo0yW_26wasm_bindgen_macro_support, symObjAddr: 0x8860, symBinAddr: 0x38384, symSize: 0x68 }
  - { offset: 0x594C3, size: 0x8, addend: 0x0, symName: __RNvXs4_NtNtCshi3DZH3dfhk_5quote9___private3extINtNtCsdFlNUEO95cG_5alloc3vec3VecNtCsfwj6t2KTYdc_11proc_macro211TokenStreamENtB5_16RepAsIteratorExt15quote_into_iterCslvhnBjKo0yW_26wasm_bindgen_macro_support, symObjAddr: 0xA734, symBinAddr: 0x3A258, symSize: 0x38 }
  - { offset: 0x594F8, size: 0x8, addend: 0x0, symName: __RNvXs4_NtNtCshi3DZH3dfhk_5quote9___private3extINtNtCsdFlNUEO95cG_5alloc3vec3VecNtCsfwj6t2KTYdc_11proc_macro25IdentENtB5_16RepAsIteratorExt15quote_into_iterCslvhnBjKo0yW_26wasm_bindgen_macro_support, symObjAddr: 0xA76C, symBinAddr: 0x3A290, symSize: 0x38 }
  - { offset: 0x5952D, size: 0x8, addend: 0x0, symName: __RNvXs4_NtNtCshi3DZH3dfhk_5quote9___private3extINtNtCsdFlNUEO95cG_5alloc3vec3VecNtNtBN_6string6StringENtB5_16RepAsIteratorExt15quote_into_iterCslvhnBjKo0yW_26wasm_bindgen_macro_support, symObjAddr: 0xA7A4, symBinAddr: 0x3A2C8, symSize: 0x38 }
  - { offset: 0x59562, size: 0x8, addend: 0x0, symName: __RNvXs4_NtNtCshi3DZH3dfhk_5quote9___private3extINtNtCsdFlNUEO95cG_5alloc3vec3VecNtNtCscwCr4GBBztI_3syn4attr9AttributeENtB5_16RepAsIteratorExt15quote_into_iterCslvhnBjKo0yW_26wasm_bindgen_macro_support, symObjAddr: 0xA7DC, symBinAddr: 0x3A300, symSize: 0x38 }
  - { offset: 0x59597, size: 0x8, addend: 0x0, symName: __RNvXs4_NtNtCshi3DZH3dfhk_5quote9___private3extINtNtCsdFlNUEO95cG_5alloc3vec3VecmENtB5_16RepAsIteratorExt15quote_into_iterCslvhnBjKo0yW_26wasm_bindgen_macro_support, symObjAddr: 0xA814, symBinAddr: 0x3A338, symSize: 0x38 }
  - { offset: 0x5E315, size: 0x8, addend: 0x0, symName: __RINvXs2E_NtNtCs85QQFkKrybG_4core5slice4iterINtB7_4IterNtCsfwj6t2KTYdc_11proc_macro25IdentENtNtNtNtBb_4iter6traits8iterator8Iterator4folduNCINvNtNtB1w_8adapters3map8map_foldRBQ_BQ_uNvYBQ_NtNtBb_5clone5Clone5cloneNCINvNvB1q_8for_each4callBQ_NCINvMsi_NtCsdFlNUEO95cG_5alloc3vecINtB3Y_3VecBQ_E14extend_trustedINtNtB2i_6cloned6ClonedBF_EE0E0E0ECslvhnBjKo0yW_26wasm_bindgen_macro_support, symObjAddr: 0x0, symBinAddr: 0x3EE4C, symSize: 0x1C0 }
  - { offset: 0x64C7E, size: 0x8, addend: 0x0, symName: __RINvXs2E_NtNtCs85QQFkKrybG_4core5slice4iterINtB7_4IterNtCsfwj6t2KTYdc_11proc_macro25IdentENtNtNtNtBb_4iter6traits8iterator8Iterator4folduNCINvNtNtB1w_8adapters3map8map_foldRBQ_BQ_uNvYBQ_NtNtBb_5clone5Clone5cloneNCINvNvB1q_8for_each4callBQ_NCINvMsi_NtCsdFlNUEO95cG_5alloc3vecINtB3Y_3VecBQ_E14extend_trustedINtNtB2i_6cloned6ClonedBF_EE0E0E0ECslvhnBjKo0yW_26wasm_bindgen_macro_support, symObjAddr: 0x0, symBinAddr: 0x3EE4C, symSize: 0x1C0 }
  - { offset: 0x64DD3, size: 0x8, addend: 0x0, symName: __RINvXs2E_NtNtCs85QQFkKrybG_4core5slice4iterINtB7_4IterNtCsfwj6t2KTYdc_11proc_macro25IdentENtNtNtNtBb_4iter6traits8iterator8Iterator4folduNCINvNtNtB1w_8adapters3map8map_foldRBQ_NtBS_11TokenStreamuNCNvXs5_NtCslvhnBjKo0yW_26wasm_bindgen_macro_support7codegenNtNtB3h_3ast10StringEnumNtNtCshi3DZH3dfhk_5quote9to_tokens8ToTokens9to_tokens0NCINvNvB1q_8for_each4callB2O_NCINvMsi_NtCsdFlNUEO95cG_5alloc3vecINtB5X_3VecB2O_E14extend_trustedINtB2g_3MapBF_B37_EE0E0E0EB3h_, symObjAddr: 0x1C0, symBinAddr: 0x3F00C, symSize: 0x1C0 }
  - { offset: 0x64F28, size: 0x8, addend: 0x0, symName: __RINvXs2E_NtNtCs85QQFkKrybG_4core5slice4iterINtB7_4IterNtCsfwj6t2KTYdc_11proc_macro25IdentENtNtNtNtBb_4iter6traits8iterator8Iterator4folduNCINvNtNtB1w_8adapters3map8map_foldRBQ_ReuNCNvNtCslvhnBjKo0yW_26wasm_bindgen_macro_support6encode18shared_import_type0NCINvNvB1q_8for_each4callB2O_NCINvMsi_NtCsdFlNUEO95cG_5alloc3vecINtB4H_3VecB2O_E14extend_trustedINtB2g_3MapBF_B2R_EE0E0E0EB2X_, symObjAddr: 0x380, symBinAddr: 0x3F1CC, symSize: 0x1C0 }
  - { offset: 0x6507D, size: 0x8, addend: 0x0, symName: __RINvXs2E_NtNtCs85QQFkKrybG_4core5slice4iterINtB7_4IterNtNtCscwCr4GBBztI_3syn4attr9AttributeENtNtNtNtBb_4iter6traits8iterator8Iterator4findQNCNCNvCslvhnBjKo0yW_26wasm_bindgen_macro_support19expand_class_markers_00EB2j_, symObjAddr: 0x540, symBinAddr: 0x3F38C, symSize: 0xB0 }
  - { offset: 0x650E2, size: 0x8, addend: 0x0, symName: __RINvXs2E_NtNtCs85QQFkKrybG_4core5slice4iterINtB7_4IterNtNtCscwCr4GBBztI_3syn4attr9AttributeENtNtNtNtBb_4iter6traits8iterator8Iterator4findQNCNvCslvhnBjKo0yW_26wasm_bindgen_macro_support19expand_class_marker0EB2h_, symObjAddr: 0x5F0, symBinAddr: 0x3F43C, symSize: 0xB0 }
  - { offset: 0x65147, size: 0x8, addend: 0x0, symName: __RINvXs2E_NtNtCs85QQFkKrybG_4core5slice4iterINtB7_4IterNtNtCscwCr4GBBztI_3syn4attr9AttributeENtNtNtNtBb_4iter6traits8iterator8Iterator4foldINtNtCsdFlNUEO95cG_5alloc3vec3VecNtNtB2h_6string6StringENCINvNtNtB1y_8adapters10filter_map15filter_map_foldRBQ_INtB3b_9FilterMapINtNtB3d_7flatten7FlattenINtNtBb_6option8IntoIterNtCsfwj6t2KTYdc_11proc_macro211TokenStreamEENCNCNvNtCslvhnBjKo0yW_26wasm_bindgen_macro_support6parser20extract_doc_comments0s_0EB2c_NCB5P_0NCB5P_s_0E0EB5T_, symObjAddr: 0x6A0, symBinAddr: 0x3F4EC, symSize: 0x22C }
  - { offset: 0x652A2, size: 0x8, addend: 0x0, symName: __RINvXs2E_NtNtCs85QQFkKrybG_4core5slice4iterINtB7_4IterNtNtCsdFlNUEO95cG_5alloc6string6StringENtNtNtNtBb_4iter6traits8iterator8Iterator4folduNCINvNtNtB1z_8adapters3map8map_foldRBQ_ReuNCNvNtCslvhnBjKo0yW_26wasm_bindgen_macro_support6encode11shared_enums_0NCINvNvB1t_8for_each4callB2R_NCINvMsi_NtBU_3vecINtB4F_3VecB2R_E14extend_trustedINtB2j_3MapBF_B2U_EE0E0E0EB30_, symObjAddr: 0x8CC, symBinAddr: 0x3F718, symSize: 0x1C0 }
  - { offset: 0x653F7, size: 0x8, addend: 0x0, symName: __RINvXs2E_NtNtCs85QQFkKrybG_4core5slice4iterINtB7_4IterNtNtCsdFlNUEO95cG_5alloc6string6StringENtNtNtNtBb_4iter6traits8iterator8Iterator4folduNCINvNtNtB1z_8adapters3map8map_foldRBQ_ReuNCNvNtCslvhnBjKo0yW_26wasm_bindgen_macro_support6encode13shared_export0NCINvNvB1t_8for_each4callB2R_NCINvMsi_NtBU_3vecINtB4F_3VecB2R_E14extend_trustedINtB2j_3MapBF_B2U_EE0E0E0EB30_, symObjAddr: 0xA8C, symBinAddr: 0x3F8D8, symSize: 0x1C0 }
  - { offset: 0x6554C, size: 0x8, addend: 0x0, symName: __RINvXs2E_NtNtCs85QQFkKrybG_4core5slice4iterINtB7_4IterNtNtCsdFlNUEO95cG_5alloc6string6StringENtNtNtNtBb_4iter6traits8iterator8Iterator4folduNCINvNtNtB1z_8adapters3map8map_foldRBQ_ReuNCNvNtCslvhnBjKo0yW_26wasm_bindgen_macro_support6encode13shared_structs_0NCINvNvB1t_8for_each4callB2R_NCINvMsi_NtBU_3vecINtB4H_3VecB2R_E14extend_trustedINtB2j_3MapBF_B2U_EE0E0E0EB30_, symObjAddr: 0xC4C, symBinAddr: 0x3FA98, symSize: 0x1C0 }
  - { offset: 0x656A1, size: 0x8, addend: 0x0, symName: __RINvXs2E_NtNtCs85QQFkKrybG_4core5slice4iterINtB7_4IterNtNtCsdFlNUEO95cG_5alloc6string6StringENtNtNtNtBb_4iter6traits8iterator8Iterator4folduNCINvNtNtB1z_8adapters3map8map_foldRBQ_ReuNCNvNtCslvhnBjKo0yW_26wasm_bindgen_macro_support6encode14shared_programs5_0NCINvNvB1t_8for_each4callB2R_NCINvMsi_NtBU_3vecINtB4J_3VecB2R_E14extend_trustedINtB2j_3MapBF_B2U_EE0E0E0EB30_, symObjAddr: 0xE0C, symBinAddr: 0x3FC58, symSize: 0x1C0 }
  - { offset: 0x657F6, size: 0x8, addend: 0x0, symName: __RINvXs2E_NtNtCs85QQFkKrybG_4core5slice4iterINtB7_4IterNtNtCsdFlNUEO95cG_5alloc6string6StringENtNtNtNtBb_4iter6traits8iterator8Iterator4folduNCINvNtNtB1z_8adapters3map8map_foldRBQ_ReuNCNvNtCslvhnBjKo0yW_26wasm_bindgen_macro_support6encode14shared_variant0NCINvNvB1t_8for_each4callB2R_NCINvMsi_NtBU_3vecINtB4G_3VecB2R_E14extend_trustedINtB2j_3MapBF_B2U_EE0E0E0EB30_, symObjAddr: 0xFCC, symBinAddr: 0x3FE18, symSize: 0x1C0 }
  - { offset: 0x6594B, size: 0x8, addend: 0x0, symName: __RINvXs2E_NtNtCs85QQFkKrybG_4core5slice4iterINtB7_4IterNtNtCsdFlNUEO95cG_5alloc6string6StringENtNtNtNtBb_4iter6traits8iterator8Iterator4folduNCINvNtNtB1z_8adapters3map8map_foldRBQ_ReuNCNvNtCslvhnBjKo0yW_26wasm_bindgen_macro_support6encode18shared_import_enum0NCINvNvB1t_8for_each4callB2R_NCINvMsi_NtBU_3vecINtB4K_3VecB2R_E14extend_trustedINtB2j_3MapBF_B2U_EE0E0E0EB30_, symObjAddr: 0x118C, symBinAddr: 0x3FFD8, symSize: 0x1C0 }
  - { offset: 0x65AA0, size: 0x8, addend: 0x0, symName: __RINvXs2E_NtNtCs85QQFkKrybG_4core5slice4iterINtB7_4IterNtNtCsdFlNUEO95cG_5alloc6string6StringENtNtNtNtBb_4iter6traits8iterator8Iterator4folduNCINvNtNtB1z_8adapters3map8map_foldRBQ_ReuNCNvNtCslvhnBjKo0yW_26wasm_bindgen_macro_support6encode18shared_import_enums_0NCINvNvB1t_8for_each4callB2R_NCINvMsi_NtBU_3vecINtB4M_3VecB2R_E14extend_trustedINtB2j_3MapBF_B2U_EE0E0E0EB30_, symObjAddr: 0x134C, symBinAddr: 0x40198, symSize: 0x1C0 }
  - { offset: 0x65BF5, size: 0x8, addend: 0x0, symName: __RINvXs2E_NtNtCs85QQFkKrybG_4core5slice4iterINtB7_4IterNtNtCsdFlNUEO95cG_5alloc6string6StringENtNtNtNtBb_4iter6traits8iterator8Iterator4folduNCINvNtNtB1z_8adapters3map8map_foldRBQ_ReuNCNvNtCslvhnBjKo0yW_26wasm_bindgen_macro_support6encode19shared_struct_field0NCINvNvB1t_8for_each4callB2R_NCINvMsi_NtBU_3vecINtB4L_3VecB2R_E14extend_trustedINtB2j_3MapBF_B2U_EE0E0E0EB30_, symObjAddr: 0x150C, symBinAddr: 0x40358, symSize: 0x1C0 }
  - { offset: 0x65D4A, size: 0x8, addend: 0x0, symName: __RINvXs2E_NtNtCs85QQFkKrybG_4core5slice4iterINtB7_4IterNtNtCslvhnBjKo0yW_26wasm_bindgen_macro_support3ast11StructFieldENtNtNtNtBb_4iter6traits8iterator8Iterator4folduNCINvNtNtB1Y_8adapters3map8map_foldRBQ_NtNtBU_6encode11StructFielduNCNvB3i_13shared_struct0NCINvNvB1S_8for_each4callB3g_NCINvMsi_NtCsdFlNUEO95cG_5alloc3vecINtB4I_3VecB3g_E14extend_trustedINtB2I_3MapBF_B3I_EE0E0E0EBU_, symObjAddr: 0x16CC, symBinAddr: 0x40518, symSize: 0x1C0 }
  - { offset: 0x65E9F, size: 0x8, addend: 0x0, symName: __RINvXs2E_NtNtCs85QQFkKrybG_4core5slice4iterINtB7_4IterNtNtCslvhnBjKo0yW_26wasm_bindgen_macro_support3ast20FunctionArgumentDataENtNtNtNtBb_4iter6traits8iterator8Iterator4folduNCINvNvXs_NtNtB27_8adapters9enumerateINtB2W_9EnumeratepEB21_4fold9enumerateRBQ_uNCINvNtB2Y_3map8map_foldTjB3Z_ENtNtBU_6encode20FunctionArgumentDatauNCNvB4B_15shared_function0NCINvNvB21_8for_each4callB4z_NCINvMsi_NtCsdFlNUEO95cG_5alloc3vecINtB6c_3VecB4z_E14extend_trustedINtB49_3MapIB3o_BF_EB5a_EE0E0E0E0EBU_, symObjAddr: 0x188C, symBinAddr: 0x406D8, symSize: 0x1C0 }
  - { offset: 0x65FF4, size: 0x8, addend: 0x0, symName: __RINvXs2E_NtNtCs85QQFkKrybG_4core5slice4iterINtB7_4IterNtNtCslvhnBjKo0yW_26wasm_bindgen_macro_support3ast4EnumENtNtNtNtBb_4iter6traits8iterator8Iterator4folduNCINvNtNtB1Q_8adapters3map8map_foldRBQ_NtNtBU_6encode4EnumuNCNvB3a_14shared_programs0_0NCINvNvB1K_8for_each4callB38_NCINvMsi_NtCsdFlNUEO95cG_5alloc3vecINtB4w_3VecB38_E14extend_trustedINtB2A_3MapBF_B3s_EE0E0E0EBU_, symObjAddr: 0x1A4C, symBinAddr: 0x40898, symSize: 0x1C0 }
  - { offset: 0x66149, size: 0x8, addend: 0x0, symName: __RINvXs2E_NtNtCs85QQFkKrybG_4core5slice4iterINtB7_4IterNtNtCslvhnBjKo0yW_26wasm_bindgen_macro_support3ast6StructENtNtNtNtBb_4iter6traits8iterator8Iterator4folduNCINvNtNtB1S_8adapters3map8map_foldRBQ_NtNtBU_6encode6StructuNCNvB3c_14shared_programs_0NCINvNvB1M_8for_each4callB3a_NCINvMsi_NtCsdFlNUEO95cG_5alloc3vecINtB4z_3VecB3a_E14extend_trustedINtB2C_3MapBF_B3w_EE0E0E0EBU_, symObjAddr: 0x1C0C, symBinAddr: 0x40A58, symSize: 0x1C0 }
  - { offset: 0x6629E, size: 0x8, addend: 0x0, symName: __RINvXs2E_NtNtCs85QQFkKrybG_4core5slice4iterINtB7_4IterNtNtCslvhnBjKo0yW_26wasm_bindgen_macro_support3ast7VariantENtNtNtNtBb_4iter6traits8iterator8Iterator4folduNCINvNtNtB1T_8adapters3map8map_foldRBQ_NtNtBU_6encode11EnumVariantuNCNvB3d_11shared_enum0NCINvNvB1N_8for_each4callB3b_NCINvMsi_NtCsdFlNUEO95cG_5alloc3vecINtB4B_3VecB3b_E14extend_trustedINtB2D_3MapBF_B3D_EE0E0E0EBU_, symObjAddr: 0x1DCC, symBinAddr: 0x40C18, symSize: 0x1C0 }
  - { offset: 0x663F3, size: 0x8, addend: 0x0, symName: __RINvXs2E_NtNtCs85QQFkKrybG_4core5slice4iterINtB7_4IterNtNtCslvhnBjKo0yW_26wasm_bindgen_macro_support3ast9LitOrExprENtNtNtNtBb_4iter6traits8iterator8Iterator4folduNCINvNtNtB1V_8adapters3map8map_foldRBQ_NtNtBU_6encode9LitOrExpruNCNvB3f_14shared_programs2_0NCINvNvB1P_8for_each4callB3d_NCINvMsi_NtCsdFlNUEO95cG_5alloc3vecINtB4G_3VecB3d_E14extend_trustedINtB2F_3MapBF_B3C_EE0E0E0EBU_, symObjAddr: 0x1F8C, symBinAddr: 0x40DD8, symSize: 0x1C0 }
  - { offset: 0x66548, size: 0x8, addend: 0x0, symName: __RINvXs2E_NtNtCs85QQFkKrybG_4core5slice4iterINtB7_4IterNtNtCslvhnBjKo0yW_26wasm_bindgen_macro_support6encode11EncodeChunkENtNtNtNtBb_4iter6traits8iterator8Iterator4folduNCINvNtNtB21_8adapters3map8map_foldRBQ_NtCsfwj6t2KTYdc_11proc_macro211TokenStreamuNCNvXNtBU_7codegenNtNtBU_3ast7ProgramNtB45_11TryToTokens13try_to_tokenss_0NCINvNvB1V_8for_each4callB3j_NCINvMsi_NtCsdFlNUEO95cG_5alloc3vecINtB5O_3VecB3j_E14extend_trustedINtB2L_3MapBF_B40_EE0E0E0EBU_, symObjAddr: 0x214C, symBinAddr: 0x40F98, symSize: 0x1C0 }
  - { offset: 0x6669D, size: 0x8, addend: 0x0, symName: __RINvXs2E_NtNtCs85QQFkKrybG_4core5slice4iterINtB7_4IterRNtNtCscwCr4GBBztI_3syn2ty4TypeENtNtNtNtBb_4iter6traits8iterator8Iterator4folduNCINvNtNtB1s_8adapters3map8map_foldRBQ_NtCsfwj6t2KTYdc_11proc_macro211TokenStreamuNCNvXs2_NtCslvhnBjKo0yW_26wasm_bindgen_macro_support7codegenNtNtB3B_3ast6ExportNtB3z_11TryToTokens13try_to_tokenss0_0NCIB2a_B2K_NtNtB2M_3imp11TokenStreamuNCINvXs7_B2M_B2K_INtNtB1q_7collect12FromIteratorB2K_E9from_iterINtB2c_3MapBF_B3r_EE0NCIB2a_B5v_NtCs9bTl5rSDVcL_10proc_macro11TokenStreamuNCINvXs6_B5x_B5v_IB6d_B5v_E9from_iterIB6X_B6W_B5V_EE0NCINvNvB1m_8for_each4callB7s_NCINvXsj_B7u_B7s_INtB6f_6ExtendB7s_E6extendIB6X_B8J_B88_EE0E0E0E0E0EB3B_, symObjAddr: 0x230C, symBinAddr: 0x41158, symSize: 0x190 }
  - { offset: 0x667F1, size: 0x8, addend: 0x0, symName: __RINvXs2E_NtNtCs85QQFkKrybG_4core5slice4iterINtB7_4IterRShENtNtNtNtBb_4iter6traits8iterator8Iterator4foldjNCINvNtNtB10_8adapters3map8map_foldRBQ_jjNCNvXs0_NtCsdFlNUEO95cG_5alloc5sliceSBQ_INtB2s_6ConcathE6concat0NCINvXsK_NtBY_5accumjNtB3v_3Sum3sumINtB1K_3MapBF_B2k_EE0E0ECslvhnBjKo0yW_26wasm_bindgen_macro_support, symObjAddr: 0x249C, symBinAddr: 0x412E8, symSize: 0x1BC }
  - { offset: 0x6694A, size: 0x8, addend: 0x0, symName: __RINvXs2E_NtNtCs85QQFkKrybG_4core5slice4iterINtB7_4IterReENtNtNtNtBb_4iter6traits8iterator8Iterator3anyNCNvXsf_NtB9_3cmpBQ_NtB1K_13SliceContains14slice_contains0ECslvhnBjKo0yW_26wasm_bindgen_macro_support, symObjAddr: 0x2658, symBinAddr: 0x414A4, symSize: 0xB0 }
  - { offset: 0x669AF, size: 0x8, addend: 0x0, symName: __RINvXs2E_NtNtCs85QQFkKrybG_4core5slice4iterINtB7_4IterTINtNtBb_4cell4CellbENtNtCslvhnBjKo0yW_26wasm_bindgen_macro_support6parser11BindgenAttrEENtNtNtNtBb_4iter6traits8iterator8Iterator8find_mapRB1b_QNCNCNvMB1d_NtB1d_12BindgenAttrs10check_used00EB1f_, symObjAddr: 0x2708, symBinAddr: 0x41554, symSize: 0xC4 }
  - { offset: 0x66A33, size: 0x8, addend: 0x0, symName: __RINvXs2E_NtNtCs85QQFkKrybG_4core5slice4iterINtB7_4IterTINtNtBb_4cell4CellbENtNtCslvhnBjKo0yW_26wasm_bindgen_macro_support6parser11BindgenAttrEENtNtNtNtBb_4iter6traits8iterator8Iterator8find_mapRINtNtBb_6option6OptionNtNtCsdFlNUEO95cG_5alloc6string6StringENCNvMB1d_NtB1d_12BindgenAttrs6getter0EB1f_, symObjAddr: 0x27CC, symBinAddr: 0x41618, symSize: 0xC0 }
  - { offset: 0x66AB7, size: 0x8, addend: 0x0, symName: __RINvXs2E_NtNtCs85QQFkKrybG_4core5slice4iterINtB7_4IterTINtNtBb_4cell4CellbENtNtCslvhnBjKo0yW_26wasm_bindgen_macro_support6parser11BindgenAttrEENtNtNtNtBb_4iter6traits8iterator8Iterator8find_mapRINtNtBb_6option6OptionNtNtCsdFlNUEO95cG_5alloc6string6StringENCNvMB1d_NtB1d_12BindgenAttrs6setter0EB1f_, symObjAddr: 0x288C, symBinAddr: 0x416D8, symSize: 0xC0 }
  - { offset: 0x66B3B, size: 0x8, addend: 0x0, symName: __RINvXs2E_NtNtCs85QQFkKrybG_4core5slice4iterINtB7_4IterTINtNtBb_4cell4CellbENtNtCslvhnBjKo0yW_26wasm_bindgen_macro_support6parser11BindgenAttrEENtNtNtNtBb_4iter6traits8iterator8Iterator8find_mapRNtCsfwj6t2KTYdc_11proc_macro24SpanNCNvMB1d_NtB1d_12BindgenAttrs10skip_jsdoc0EB1f_, symObjAddr: 0x294C, symBinAddr: 0x41798, symSize: 0xC0 }
  - { offset: 0x66BBF, size: 0x8, addend: 0x0, symName: __RINvXs2E_NtNtCs85QQFkKrybG_4core5slice4iterINtB7_4IterTINtNtBb_4cell4CellbENtNtCslvhnBjKo0yW_26wasm_bindgen_macro_support6parser11BindgenAttrEENtNtNtNtBb_4iter6traits8iterator8Iterator8find_mapRNtCsfwj6t2KTYdc_11proc_macro24SpanNCNvMB1d_NtB1d_12BindgenAttrs10structural0EB1f_, symObjAddr: 0x2A0C, symBinAddr: 0x41858, symSize: 0xC0 }
  - { offset: 0x66C43, size: 0x8, addend: 0x0, symName: __RINvXs2E_NtNtCs85QQFkKrybG_4core5slice4iterINtB7_4IterTINtNtBb_4cell4CellbENtNtCslvhnBjKo0yW_26wasm_bindgen_macro_support6parser11BindgenAttrEENtNtNtNtBb_4iter6traits8iterator8Iterator8find_mapRNtCsfwj6t2KTYdc_11proc_macro24SpanNCNvMB1d_NtB1d_12BindgenAttrs11constructor0EB1f_, symObjAddr: 0x2ACC, symBinAddr: 0x41918, symSize: 0xC0 }
  - { offset: 0x66CC7, size: 0x8, addend: 0x0, symName: __RINvXs2E_NtNtCs85QQFkKrybG_4core5slice4iterINtB7_4IterTINtNtBb_4cell4CellbENtNtCslvhnBjKo0yW_26wasm_bindgen_macro_support6parser11BindgenAttrEENtNtNtNtBb_4iter6traits8iterator8Iterator8find_mapRNtCsfwj6t2KTYdc_11proc_macro24SpanNCNvMB1d_NtB1d_12BindgenAttrs11inspectable0EB1f_, symObjAddr: 0x2B8C, symBinAddr: 0x419D8, symSize: 0xC0 }
  - { offset: 0x66D4B, size: 0x8, addend: 0x0, symName: __RINvXs2E_NtNtCs85QQFkKrybG_4core5slice4iterINtB7_4IterTINtNtBb_4cell4CellbENtNtCslvhnBjKo0yW_26wasm_bindgen_macro_support6parser11BindgenAttrEENtNtNtNtBb_4iter6traits8iterator8Iterator8find_mapRNtCsfwj6t2KTYdc_11proc_macro24SpanNCNvMB1d_NtB1d_12BindgenAttrs12thread_local0EB1f_, symObjAddr: 0x2C4C, symBinAddr: 0x41A98, symSize: 0xC0 }
  - { offset: 0x66DCF, size: 0x8, addend: 0x0, symName: __RINvXs2E_NtNtCs85QQFkKrybG_4core5slice4iterINtB7_4IterTINtNtBb_4cell4CellbENtNtCslvhnBjKo0yW_26wasm_bindgen_macro_support6parser11BindgenAttrEENtNtNtNtBb_4iter6traits8iterator8Iterator8find_mapRNtCsfwj6t2KTYdc_11proc_macro24SpanNCNvMB1d_NtB1d_12BindgenAttrs13static_string0EB1f_, symObjAddr: 0x2D0C, symBinAddr: 0x41B58, symSize: 0xC0 }
  - { offset: 0x66E53, size: 0x8, addend: 0x0, symName: __RINvXs2E_NtNtCs85QQFkKrybG_4core5slice4iterINtB7_4IterTINtNtBb_4cell4CellbENtNtCslvhnBjKo0yW_26wasm_bindgen_macro_support6parser11BindgenAttrEENtNtNtNtBb_4iter6traits8iterator8Iterator8find_mapRNtCsfwj6t2KTYdc_11proc_macro24SpanNCNvMB1d_NtB1d_12BindgenAttrs14assert_no_shim0EB1f_, symObjAddr: 0x2DCC, symBinAddr: 0x41C18, symSize: 0xC0 }
  - { offset: 0x66ED7, size: 0x8, addend: 0x0, symName: __RINvXs2E_NtNtCs85QQFkKrybG_4core5slice4iterINtB7_4IterTINtNtBb_4cell4CellbENtNtCslvhnBjKo0yW_26wasm_bindgen_macro_support6parser11BindgenAttrEENtNtNtNtBb_4iter6traits8iterator8Iterator8find_mapRNtCsfwj6t2KTYdc_11proc_macro24SpanNCNvMB1d_NtB1d_12BindgenAttrs15indexing_getter0EB1f_, symObjAddr: 0x2E8C, symBinAddr: 0x41CD8, symSize: 0xC0 }
  - { offset: 0x66F5B, size: 0x8, addend: 0x0, symName: __RINvXs2E_NtNtCs85QQFkKrybG_4core5slice4iterINtB7_4IterTINtNtBb_4cell4CellbENtNtCslvhnBjKo0yW_26wasm_bindgen_macro_support6parser11BindgenAttrEENtNtNtNtBb_4iter6traits8iterator8Iterator8find_mapRNtCsfwj6t2KTYdc_11proc_macro24SpanNCNvMB1d_NtB1d_12BindgenAttrs15indexing_setter0EB1f_, symObjAddr: 0x2F4C, symBinAddr: 0x41D98, symSize: 0xC0 }
  - { offset: 0x66FDF, size: 0x8, addend: 0x0, symName: __RINvXs2E_NtNtCs85QQFkKrybG_4core5slice4iterINtB7_4IterTINtNtBb_4cell4CellbENtNtCslvhnBjKo0yW_26wasm_bindgen_macro_support6parser11BindgenAttrEENtNtNtNtBb_4iter6traits8iterator8Iterator8find_mapRNtCsfwj6t2KTYdc_11proc_macro24SpanNCNvMB1d_NtB1d_12BindgenAttrs15skip_typescript0EB1f_, symObjAddr: 0x300C, symBinAddr: 0x41E58, symSize: 0xC0 }
  - { offset: 0x67063, size: 0x8, addend: 0x0, symName: __RINvXs2E_NtNtCs85QQFkKrybG_4core5slice4iterINtB7_4IterTINtNtBb_4cell4CellbENtNtCslvhnBjKo0yW_26wasm_bindgen_macro_support6parser11BindgenAttrEENtNtNtNtBb_4iter6traits8iterator8Iterator8find_mapRNtCsfwj6t2KTYdc_11proc_macro24SpanNCNvMB1d_NtB1d_12BindgenAttrs15thread_local_v20EB1f_, symObjAddr: 0x30CC, symBinAddr: 0x41F18, symSize: 0xC0 }
  - { offset: 0x670E7, size: 0x8, addend: 0x0, symName: __RINvXs2E_NtNtCs85QQFkKrybG_4core5slice4iterINtB7_4IterTINtNtBb_4cell4CellbENtNtCslvhnBjKo0yW_26wasm_bindgen_macro_support6parser11BindgenAttrEENtNtNtNtBb_4iter6traits8iterator8Iterator8find_mapRNtCsfwj6t2KTYdc_11proc_macro24SpanNCNvMB1d_NtB1d_12BindgenAttrs16indexing_deleter0EB1f_, symObjAddr: 0x318C, symBinAddr: 0x41FD8, symSize: 0xC0 }
  - { offset: 0x6716B, size: 0x8, addend: 0x0, symName: __RINvXs2E_NtNtCs85QQFkKrybG_4core5slice4iterINtB7_4IterTINtNtBb_4cell4CellbENtNtCslvhnBjKo0yW_26wasm_bindgen_macro_support6parser11BindgenAttrEENtNtNtNtBb_4iter6traits8iterator8Iterator8find_mapRNtCsfwj6t2KTYdc_11proc_macro24SpanNCNvMB1d_NtB1d_12BindgenAttrs17getter_with_clone0EB1f_, symObjAddr: 0x324C, symBinAddr: 0x42098, symSize: 0xC0 }
  - { offset: 0x671EF, size: 0x8, addend: 0x0, symName: __RINvXs2E_NtNtCs85QQFkKrybG_4core5slice4iterINtB7_4IterTINtNtBb_4cell4CellbENtNtCslvhnBjKo0yW_26wasm_bindgen_macro_support6parser11BindgenAttrEENtNtNtNtBb_4iter6traits8iterator8Iterator8find_mapRNtCsfwj6t2KTYdc_11proc_macro24SpanNCNvMB1d_NtB1d_12BindgenAttrs25typescript_custom_section0EB1f_, symObjAddr: 0x330C, symBinAddr: 0x42158, symSize: 0xC0 }
  - { offset: 0x67273, size: 0x8, addend: 0x0, symName: __RINvXs2E_NtNtCs85QQFkKrybG_4core5slice4iterINtB7_4IterTINtNtBb_4cell4CellbENtNtCslvhnBjKo0yW_26wasm_bindgen_macro_support6parser11BindgenAttrEENtNtNtNtBb_4iter6traits8iterator8Iterator8find_mapRNtCsfwj6t2KTYdc_11proc_macro24SpanNCNvMB1d_NtB1d_12BindgenAttrs4main0EB1f_, symObjAddr: 0x33CC, symBinAddr: 0x42218, symSize: 0xC0 }
  - { offset: 0x672F7, size: 0x8, addend: 0x0, symName: __RINvXs2E_NtNtCs85QQFkKrybG_4core5slice4iterINtB7_4IterTINtNtBb_4cell4CellbENtNtCslvhnBjKo0yW_26wasm_bindgen_macro_support6parser11BindgenAttrEENtNtNtNtBb_4iter6traits8iterator8Iterator8find_mapRNtCsfwj6t2KTYdc_11proc_macro24SpanNCNvMB1d_NtB1d_12BindgenAttrs4skip0EB1f_, symObjAddr: 0x348C, symBinAddr: 0x422D8, symSize: 0xC0 }
  - { offset: 0x6737B, size: 0x8, addend: 0x0, symName: __RINvXs2E_NtNtCs85QQFkKrybG_4core5slice4iterINtB7_4IterTINtNtBb_4cell4CellbENtNtCslvhnBjKo0yW_26wasm_bindgen_macro_support6parser11BindgenAttrEENtNtNtNtBb_4iter6traits8iterator8Iterator8find_mapRNtCsfwj6t2KTYdc_11proc_macro24SpanNCNvMB1d_NtB1d_12BindgenAttrs5catch0EB1f_, symObjAddr: 0x354C, symBinAddr: 0x42398, symSize: 0xC0 }
  - { offset: 0x673FF, size: 0x8, addend: 0x0, symName: __RINvXs2E_NtNtCs85QQFkKrybG_4core5slice4iterINtB7_4IterTINtNtBb_4cell4CellbENtNtCslvhnBjKo0yW_26wasm_bindgen_macro_support6parser11BindgenAttrEENtNtNtNtBb_4iter6traits8iterator8Iterator8find_mapRNtCsfwj6t2KTYdc_11proc_macro24SpanNCNvMB1d_NtB1d_12BindgenAttrs5final0EB1f_, symObjAddr: 0x360C, symBinAddr: 0x42458, symSize: 0xC0 }
  - { offset: 0x67483, size: 0x8, addend: 0x0, symName: __RINvXs2E_NtNtCs85QQFkKrybG_4core5slice4iterINtB7_4IterTINtNtBb_4cell4CellbENtNtCslvhnBjKo0yW_26wasm_bindgen_macro_support6parser11BindgenAttrEENtNtNtNtBb_4iter6traits8iterator8Iterator8find_mapRNtCsfwj6t2KTYdc_11proc_macro24SpanNCNvMB1d_NtB1d_12BindgenAttrs5start0EB1f_, symObjAddr: 0x36CC, symBinAddr: 0x42518, symSize: 0xC0 }
  - { offset: 0x67507, size: 0x8, addend: 0x0, symName: __RINvXs2E_NtNtCs85QQFkKrybG_4core5slice4iterINtB7_4IterTINtNtBb_4cell4CellbENtNtCslvhnBjKo0yW_26wasm_bindgen_macro_support6parser11BindgenAttrEENtNtNtNtBb_4iter6traits8iterator8Iterator8find_mapRNtCsfwj6t2KTYdc_11proc_macro24SpanNCNvMB1d_NtB1d_12BindgenAttrs6method0EB1f_, symObjAddr: 0x378C, symBinAddr: 0x425D8, symSize: 0xC0 }
  - { offset: 0x6758B, size: 0x8, addend: 0x0, symName: __RINvXs2E_NtNtCs85QQFkKrybG_4core5slice4iterINtB7_4IterTINtNtBb_4cell4CellbENtNtCslvhnBjKo0yW_26wasm_bindgen_macro_support6parser11BindgenAttrEENtNtNtNtBb_4iter6traits8iterator8Iterator8find_mapRNtCsfwj6t2KTYdc_11proc_macro24SpanNCNvMB1d_NtB1d_12BindgenAttrs8no_deref0EB1f_, symObjAddr: 0x384C, symBinAddr: 0x42698, symSize: 0xC0 }
  - { offset: 0x6760F, size: 0x8, addend: 0x0, symName: __RINvXs2E_NtNtCs85QQFkKrybG_4core5slice4iterINtB7_4IterTINtNtBb_4cell4CellbENtNtCslvhnBjKo0yW_26wasm_bindgen_macro_support6parser11BindgenAttrEENtNtNtNtBb_4iter6traits8iterator8Iterator8find_mapRNtCsfwj6t2KTYdc_11proc_macro24SpanNCNvMB1d_NtB1d_12BindgenAttrs8readonly0EB1f_, symObjAddr: 0x390C, symBinAddr: 0x42758, symSize: 0xC0 }
  - { offset: 0x67693, size: 0x8, addend: 0x0, symName: __RINvXs2E_NtNtCs85QQFkKrybG_4core5slice4iterINtB7_4IterTINtNtBb_4cell4CellbENtNtCslvhnBjKo0yW_26wasm_bindgen_macro_support6parser11BindgenAttrEENtNtNtNtBb_4iter6traits8iterator8Iterator8find_mapRNtCsfwj6t2KTYdc_11proc_macro24SpanNCNvMB1d_NtB1d_12BindgenAttrs8variadic0EB1f_, symObjAddr: 0x39CC, symBinAddr: 0x42818, symSize: 0xC0 }
  - { offset: 0x67717, size: 0x8, addend: 0x0, symName: __RINvXs2E_NtNtCs85QQFkKrybG_4core5slice4iterINtB7_4IterTINtNtBb_4cell4CellbENtNtCslvhnBjKo0yW_26wasm_bindgen_macro_support6parser11BindgenAttrEENtNtNtNtBb_4iter6traits8iterator8Iterator8find_mapRNtCsfwj6t2KTYdc_11proc_macro25IdentNCNvMB1d_NtB1d_12BindgenAttrs16static_method_of0EB1f_, symObjAddr: 0x3A8C, symBinAddr: 0x428D8, symSize: 0xC0 }
  - { offset: 0x6779B, size: 0x8, addend: 0x0, symName: __RINvXs2E_NtNtCs85QQFkKrybG_4core5slice4iterINtB7_4IterTINtNtBb_4cell4CellbENtNtCslvhnBjKo0yW_26wasm_bindgen_macro_support6parser11BindgenAttrEENtNtNtNtBb_4iter6traits8iterator8Iterator8find_mapRNtNtCscwCr4GBBztI_3syn4expr4ExprNCNvMB1d_NtB1d_12BindgenAttrs10is_type_of0EB1f_, symObjAddr: 0x3B4C, symBinAddr: 0x42998, symSize: 0xC0 }
  - { offset: 0x6781F, size: 0x8, addend: 0x0, symName: __RINvXs2E_NtNtCs85QQFkKrybG_4core5slice4iterINtB7_4IterTINtNtBb_4cell4CellbENtNtCslvhnBjKo0yW_26wasm_bindgen_macro_support6parser11BindgenAttrEENtNtNtNtBb_4iter6traits8iterator8Iterator8find_mapRNtNtCscwCr4GBBztI_3syn4path4PathNCNvMB1d_NtB1d_12BindgenAttrs12wasm_bindgen0EB1f_, symObjAddr: 0x3C0C, symBinAddr: 0x42A58, symSize: 0xC0 }
  - { offset: 0x678A3, size: 0x8, addend: 0x0, symName: __RINvXs2E_NtNtCs85QQFkKrybG_4core5slice4iterINtB7_4IterTINtNtBb_4cell4CellbENtNtCslvhnBjKo0yW_26wasm_bindgen_macro_support6parser11BindgenAttrEENtNtNtNtBb_4iter6traits8iterator8Iterator8find_mapRNtNtCscwCr4GBBztI_3syn4path4PathNCNvMB1d_NtB1d_12BindgenAttrs20wasm_bindgen_futures0EB1f_, symObjAddr: 0x3CCC, symBinAddr: 0x42B18, symSize: 0xC0 }
  - { offset: 0x67927, size: 0x8, addend: 0x0, symName: __RINvXs2E_NtNtCs85QQFkKrybG_4core5slice4iterINtB7_4IterTINtNtBb_4cell4CellbENtNtCslvhnBjKo0yW_26wasm_bindgen_macro_support6parser11BindgenAttrEENtNtNtNtBb_4iter6traits8iterator8Iterator8find_mapRNtNtCscwCr4GBBztI_3syn4path4PathNCNvMB1d_NtB1d_12BindgenAttrs6js_sys0EB1f_, symObjAddr: 0x3D8C, symBinAddr: 0x42BD8, symSize: 0xC0 }
  - { offset: 0x679AB, size: 0x8, addend: 0x0, symName: __RINvXs2E_NtNtCs85QQFkKrybG_4core5slice4iterINtB7_4IterTINtNtBb_4cell4CellbENtNtCslvhnBjKo0yW_26wasm_bindgen_macro_support6parser11BindgenAttrEENtNtNtNtBb_4iter6traits8iterator8Iterator8find_mapTNtB1d_11JsNamespaceRSNtCsfwj6t2KTYdc_11proc_macro24SpanENCNvMB1d_NtB1d_12BindgenAttrs12js_namespace0EB1f_, symObjAddr: 0x3E4C, symBinAddr: 0x42C98, symSize: 0xE0 }
  - { offset: 0x67A30, size: 0x8, addend: 0x0, symName: __RINvXs2E_NtNtCs85QQFkKrybG_4core5slice4iterINtB7_4IterTINtNtBb_4cell4CellbENtNtCslvhnBjKo0yW_26wasm_bindgen_macro_support6parser11BindgenAttrEENtNtNtNtBb_4iter6traits8iterator8Iterator8find_mapTReNtCsfwj6t2KTYdc_11proc_macro24SpanENCNvMB1d_NtB1d_12BindgenAttrs10raw_module0EB1f_, symObjAddr: 0x3F2C, symBinAddr: 0x42D78, symSize: 0xD0 }
  - { offset: 0x67AB5, size: 0x8, addend: 0x0, symName: __RINvXs2E_NtNtCs85QQFkKrybG_4core5slice4iterINtB7_4IterTINtNtBb_4cell4CellbENtNtCslvhnBjKo0yW_26wasm_bindgen_macro_support6parser11BindgenAttrEENtNtNtNtBb_4iter6traits8iterator8Iterator8find_mapTReNtCsfwj6t2KTYdc_11proc_macro24SpanENCNvMB1d_NtB1d_12BindgenAttrs15typescript_type0EB1f_, symObjAddr: 0x3FFC, symBinAddr: 0x42E48, symSize: 0xD0 }
  - { offset: 0x67B3A, size: 0x8, addend: 0x0, symName: __RINvXs2E_NtNtCs85QQFkKrybG_4core5slice4iterINtB7_4IterTINtNtBb_4cell4CellbENtNtCslvhnBjKo0yW_26wasm_bindgen_macro_support6parser11BindgenAttrEENtNtNtNtBb_4iter6traits8iterator8Iterator8find_mapTReNtCsfwj6t2KTYdc_11proc_macro24SpanENCNvMB1d_NtB1d_12BindgenAttrs17param_description0EB1f_, symObjAddr: 0x40CC, symBinAddr: 0x42F18, symSize: 0xD0 }
  - { offset: 0x67BBF, size: 0x8, addend: 0x0, symName: __RINvXs2E_NtNtCs85QQFkKrybG_4core5slice4iterINtB7_4IterTINtNtBb_4cell4CellbENtNtCslvhnBjKo0yW_26wasm_bindgen_macro_support6parser11BindgenAttrEENtNtNtNtBb_4iter6traits8iterator8Iterator8find_mapTReNtCsfwj6t2KTYdc_11proc_macro24SpanENCNvMB1d_NtB1d_12BindgenAttrs18return_description0EB1f_, symObjAddr: 0x419C, symBinAddr: 0x42FE8, symSize: 0xD0 }
  - { offset: 0x67C44, size: 0x8, addend: 0x0, symName: __RINvXs2E_NtNtCs85QQFkKrybG_4core5slice4iterINtB7_4IterTINtNtBb_4cell4CellbENtNtCslvhnBjKo0yW_26wasm_bindgen_macro_support6parser11BindgenAttrEENtNtNtNtBb_4iter6traits8iterator8Iterator8find_mapTReNtCsfwj6t2KTYdc_11proc_macro24SpanENCNvMB1d_NtB1d_12BindgenAttrs20unchecked_param_type0EB1f_, symObjAddr: 0x426C, symBinAddr: 0x430B8, symSize: 0xD0 }
  - { offset: 0x67CC9, size: 0x8, addend: 0x0, symName: __RINvXs2E_NtNtCs85QQFkKrybG_4core5slice4iterINtB7_4IterTINtNtBb_4cell4CellbENtNtCslvhnBjKo0yW_26wasm_bindgen_macro_support6parser11BindgenAttrEENtNtNtNtBb_4iter6traits8iterator8Iterator8find_mapTReNtCsfwj6t2KTYdc_11proc_macro24SpanENCNvMB1d_NtB1d_12BindgenAttrs21unchecked_return_type0EB1f_, symObjAddr: 0x433C, symBinAddr: 0x43188, symSize: 0xD0 }
  - { offset: 0x67D4E, size: 0x8, addend: 0x0, symName: __RINvXs2E_NtNtCs85QQFkKrybG_4core5slice4iterINtB7_4IterTINtNtBb_4cell4CellbENtNtCslvhnBjKo0yW_26wasm_bindgen_macro_support6parser11BindgenAttrEENtNtNtNtBb_4iter6traits8iterator8Iterator8find_mapTReNtCsfwj6t2KTYdc_11proc_macro24SpanENCNvMB1d_NtB1d_12BindgenAttrs6module0EB1f_, symObjAddr: 0x440C, symBinAddr: 0x43258, symSize: 0xD0 }
  - { offset: 0x67DD3, size: 0x8, addend: 0x0, symName: __RINvXs2E_NtNtCs85QQFkKrybG_4core5slice4iterINtB7_4IterTINtNtBb_4cell4CellbENtNtCslvhnBjKo0yW_26wasm_bindgen_macro_support6parser11BindgenAttrEENtNtNtNtBb_4iter6traits8iterator8Iterator8find_mapTReNtCsfwj6t2KTYdc_11proc_macro24SpanENCNvMB1d_NtB1d_12BindgenAttrs7js_name0EB1f_, symObjAddr: 0x44DC, symBinAddr: 0x43328, symSize: 0xD0 }
  - { offset: 0x67E58, size: 0x8, addend: 0x0, symName: __RINvXs2E_NtNtCs85QQFkKrybG_4core5slice4iterINtB7_4IterTINtNtBb_4cell4CellbENtNtCslvhnBjKo0yW_26wasm_bindgen_macro_support6parser11BindgenAttrEENtNtNtNtBb_4iter6traits8iterator8Iterator8find_mapTReNtCsfwj6t2KTYdc_11proc_macro24SpanENCNvMB1d_NtB1d_12BindgenAttrs8js_class0EB1f_, symObjAddr: 0x45AC, symBinAddr: 0x433F8, symSize: 0xD0 }
  - { offset: 0x67EDD, size: 0x8, addend: 0x0, symName: __RINvXs2E_NtNtCs85QQFkKrybG_4core5slice4iterINtB7_4IterTINtNtBb_4cell4CellbENtNtCslvhnBjKo0yW_26wasm_bindgen_macro_support6parser11BindgenAttrEENtNtNtNtBb_4iter6traits8iterator8Iterator8find_mapTReNtCsfwj6t2KTYdc_11proc_macro24SpanENCNvMB1d_NtB1d_12BindgenAttrs9inline_js0EB1f_, symObjAddr: 0x467C, symBinAddr: 0x434C8, symSize: 0xD0 }
  - { offset: 0x67F62, size: 0x8, addend: 0x0, symName: __RNvXs2E_NtNtCs85QQFkKrybG_4core5slice4iterINtB6_4IterNtCsfwj6t2KTYdc_11proc_macro211TokenStreamENtNtNtNtBa_4iter6traits8iterator8Iterator4nextCslvhnBjKo0yW_26wasm_bindgen_macro_support, symObjAddr: 0x5EE8, symBinAddr: 0x44D34, symSize: 0xA8 }
  - { offset: 0x6809C, size: 0x8, addend: 0x0, symName: __RNvXs2E_NtNtCs85QQFkKrybG_4core5slice4iterINtB6_4IterNtCsfwj6t2KTYdc_11proc_macro25IdentENtNtNtNtBa_4iter6traits8iterator8Iterator4nextCslvhnBjKo0yW_26wasm_bindgen_macro_support, symObjAddr: 0x5F90, symBinAddr: 0x44DDC, symSize: 0xA8 }
  - { offset: 0x681D6, size: 0x8, addend: 0x0, symName: __RNvXs2E_NtNtCs85QQFkKrybG_4core5slice4iterINtB6_4IterNtCsfwj6t2KTYdc_11proc_macro25IdentENtNtNtNtBa_4iter6traits8iterator8Iterator9size_hintCslvhnBjKo0yW_26wasm_bindgen_macro_support, symObjAddr: 0x6038, symBinAddr: 0x44E84, symSize: 0x60 }
  - { offset: 0x68245, size: 0x8, addend: 0x0, symName: __RNvXs2E_NtNtCs85QQFkKrybG_4core5slice4iterINtB6_4IterNtNtCscwCr4GBBztI_3syn4path4PathENtNtNtNtBa_4iter6traits8iterator8Iterator4nextCslvhnBjKo0yW_26wasm_bindgen_macro_support, symObjAddr: 0x6098, symBinAddr: 0x44EE4, symSize: 0xA8 }
  - { offset: 0x6837F, size: 0x8, addend: 0x0, symName: __RNvXs2E_NtNtCs85QQFkKrybG_4core5slice4iterINtB6_4IterNtNtCsdFlNUEO95cG_5alloc6string6StringENtNtNtNtBa_4iter6traits8iterator8Iterator4nextCslvhnBjKo0yW_26wasm_bindgen_macro_support, symObjAddr: 0x6140, symBinAddr: 0x44F8C, symSize: 0xA8 }
  - { offset: 0x684B9, size: 0x8, addend: 0x0, symName: __RNvXs2E_NtNtCs85QQFkKrybG_4core5slice4iterINtB6_4IterNtNtCsdFlNUEO95cG_5alloc6string6StringENtNtNtNtBa_4iter6traits8iterator8Iterator9size_hintCslvhnBjKo0yW_26wasm_bindgen_macro_support, symObjAddr: 0x61E8, symBinAddr: 0x45034, symSize: 0x60 }
  - { offset: 0x68528, size: 0x8, addend: 0x0, symName: __RNvXs2E_NtNtCs85QQFkKrybG_4core5slice4iterINtB6_4IterNtNtCslvhnBjKo0yW_26wasm_bindgen_macro_support3ast11StructFieldENtNtNtNtBa_4iter6traits8iterator8Iterator4nextBT_, symObjAddr: 0x6248, symBinAddr: 0x45094, symSize: 0xA8 }
  - { offset: 0x68662, size: 0x8, addend: 0x0, symName: __RNvXs2E_NtNtCs85QQFkKrybG_4core5slice4iterINtB6_4IterNtNtCslvhnBjKo0yW_26wasm_bindgen_macro_support3ast11StructFieldENtNtNtNtBa_4iter6traits8iterator8Iterator9size_hintBT_, symObjAddr: 0x62F0, symBinAddr: 0x4513C, symSize: 0x60 }
  - { offset: 0x686D1, size: 0x8, addend: 0x0, symName: __RNvXs2E_NtNtCs85QQFkKrybG_4core5slice4iterINtB6_4IterNtNtCslvhnBjKo0yW_26wasm_bindgen_macro_support3ast12ImportModuleENtNtNtNtBa_4iter6traits8iterator8Iterator4nextBT_, symObjAddr: 0x6350, symBinAddr: 0x4519C, symSize: 0xA8 }
  - { offset: 0x6880B, size: 0x8, addend: 0x0, symName: __RNvXs2E_NtNtCs85QQFkKrybG_4core5slice4iterINtB6_4IterNtNtCslvhnBjKo0yW_26wasm_bindgen_macro_support3ast12ImportModuleENtNtNtNtBa_4iter6traits8iterator8Iterator9size_hintBT_, symObjAddr: 0x63F8, symBinAddr: 0x45244, symSize: 0x60 }
  - { offset: 0x6887A, size: 0x8, addend: 0x0, symName: __RNvXs2E_NtNtCs85QQFkKrybG_4core5slice4iterINtB6_4IterNtNtCslvhnBjKo0yW_26wasm_bindgen_macro_support3ast20FunctionArgumentDataENtNtNtNtBa_4iter6traits8iterator8Iterator4nextBT_, symObjAddr: 0x6458, symBinAddr: 0x452A4, symSize: 0xA8 }
  - { offset: 0x689B4, size: 0x8, addend: 0x0, symName: __RNvXs2E_NtNtCs85QQFkKrybG_4core5slice4iterINtB6_4IterNtNtCslvhnBjKo0yW_26wasm_bindgen_macro_support3ast20FunctionArgumentDataENtNtNtNtBa_4iter6traits8iterator8Iterator9size_hintBT_, symObjAddr: 0x6500, symBinAddr: 0x4534C, symSize: 0x60 }
  - { offset: 0x68A23, size: 0x8, addend: 0x0, symName: __RNvXs2E_NtNtCs85QQFkKrybG_4core5slice4iterINtB6_4IterNtNtCslvhnBjKo0yW_26wasm_bindgen_macro_support3ast4EnumENtNtNtNtBa_4iter6traits8iterator8Iterator4nextBT_, symObjAddr: 0x6560, symBinAddr: 0x453AC, symSize: 0xA8 }
  - { offset: 0x68B5D, size: 0x8, addend: 0x0, symName: __RNvXs2E_NtNtCs85QQFkKrybG_4core5slice4iterINtB6_4IterNtNtCslvhnBjKo0yW_26wasm_bindgen_macro_support3ast4EnumENtNtNtNtBa_4iter6traits8iterator8Iterator9size_hintBT_, symObjAddr: 0x6608, symBinAddr: 0x45454, symSize: 0x60 }
  - { offset: 0x68BCC, size: 0x8, addend: 0x0, symName: __RNvXs2E_NtNtCs85QQFkKrybG_4core5slice4iterINtB6_4IterNtNtCslvhnBjKo0yW_26wasm_bindgen_macro_support3ast6ExportENtNtNtNtBa_4iter6traits8iterator8Iterator4nextBT_, symObjAddr: 0x6668, symBinAddr: 0x454B4, symSize: 0xA8 }
  - { offset: 0x68D06, size: 0x8, addend: 0x0, symName: __RNvXs2E_NtNtCs85QQFkKrybG_4core5slice4iterINtB6_4IterNtNtCslvhnBjKo0yW_26wasm_bindgen_macro_support3ast6ExportENtNtNtNtBa_4iter6traits8iterator8Iterator9size_hintBT_, symObjAddr: 0x6710, symBinAddr: 0x4555C, symSize: 0x60 }
  - { offset: 0x68D75, size: 0x8, addend: 0x0, symName: __RNvXs2E_NtNtCs85QQFkKrybG_4core5slice4iterINtB6_4IterNtNtCslvhnBjKo0yW_26wasm_bindgen_macro_support3ast6ImportENtNtNtNtBa_4iter6traits8iterator8Iterator4nextBT_, symObjAddr: 0x6770, symBinAddr: 0x455BC, symSize: 0xA8 }
  - { offset: 0x68EAF, size: 0x8, addend: 0x0, symName: __RNvXs2E_NtNtCs85QQFkKrybG_4core5slice4iterINtB6_4IterNtNtCslvhnBjKo0yW_26wasm_bindgen_macro_support3ast6ImportENtNtNtNtBa_4iter6traits8iterator8Iterator9size_hintBT_, symObjAddr: 0x6818, symBinAddr: 0x45664, symSize: 0x60 }
  - { offset: 0x68F1E, size: 0x8, addend: 0x0, symName: __RNvXs2E_NtNtCs85QQFkKrybG_4core5slice4iterINtB6_4IterNtNtCslvhnBjKo0yW_26wasm_bindgen_macro_support3ast6StructENtNtNtNtBa_4iter6traits8iterator8Iterator4nextBT_, symObjAddr: 0x6878, symBinAddr: 0x456C4, symSize: 0xA8 }
  - { offset: 0x69058, size: 0x8, addend: 0x0, symName: __RNvXs2E_NtNtCs85QQFkKrybG_4core5slice4iterINtB6_4IterNtNtCslvhnBjKo0yW_26wasm_bindgen_macro_support3ast6StructENtNtNtNtBa_4iter6traits8iterator8Iterator9size_hintBT_, symObjAddr: 0x6920, symBinAddr: 0x4576C, symSize: 0x60 }
  - { offset: 0x690C7, size: 0x8, addend: 0x0, symName: __RNvXs2E_NtNtCs85QQFkKrybG_4core5slice4iterINtB6_4IterNtNtCslvhnBjKo0yW_26wasm_bindgen_macro_support3ast7VariantENtNtNtNtBa_4iter6traits8iterator8Iterator4nextBT_, symObjAddr: 0x6980, symBinAddr: 0x457CC, symSize: 0xA8 }
  - { offset: 0x69201, size: 0x8, addend: 0x0, symName: __RNvXs2E_NtNtCs85QQFkKrybG_4core5slice4iterINtB6_4IterNtNtCslvhnBjKo0yW_26wasm_bindgen_macro_support3ast7VariantENtNtNtNtBa_4iter6traits8iterator8Iterator9size_hintBT_, symObjAddr: 0x6A28, symBinAddr: 0x45874, symSize: 0x60 }
  - { offset: 0x69270, size: 0x8, addend: 0x0, symName: __RNvXs2E_NtNtCs85QQFkKrybG_4core5slice4iterINtB6_4IterNtNtCslvhnBjKo0yW_26wasm_bindgen_macro_support3ast9LitOrExprENtNtNtNtBa_4iter6traits8iterator8Iterator9size_hintBT_, symObjAddr: 0x6A88, symBinAddr: 0x458D4, symSize: 0x60 }
  - { offset: 0x692DF, size: 0x8, addend: 0x0, symName: __RNvXs2E_NtNtCs85QQFkKrybG_4core5slice4iterINtB6_4IterNtNtCslvhnBjKo0yW_26wasm_bindgen_macro_support5error10DiagnosticENtNtNtNtBa_4iter6traits8iterator8Iterator4nextBT_, symObjAddr: 0x6AE8, symBinAddr: 0x45934, symSize: 0xA8 }
  - { offset: 0x69419, size: 0x8, addend: 0x0, symName: __RNvXs2E_NtNtCs85QQFkKrybG_4core5slice4iterINtB6_4IterNtNtCslvhnBjKo0yW_26wasm_bindgen_macro_support6encode11EncodeChunkENtNtNtNtBa_4iter6traits8iterator8Iterator9size_hintBT_, symObjAddr: 0x6B90, symBinAddr: 0x459DC, symSize: 0x60 }
  - { offset: 0x69488, size: 0x8, addend: 0x0, symName: __RNvXs2E_NtNtCs85QQFkKrybG_4core5slice4iterINtB6_4IterNtNtCslvhnBjKo0yW_26wasm_bindgen_macro_support6encode11EnumVariantENtNtNtNtBa_4iter6traits8iterator8Iterator4nextBT_, symObjAddr: 0x6BF0, symBinAddr: 0x45A3C, symSize: 0xA8 }
  - { offset: 0x695C2, size: 0x8, addend: 0x0, symName: __RNvXs2E_NtNtCs85QQFkKrybG_4core5slice4iterINtB6_4IterNtNtCslvhnBjKo0yW_26wasm_bindgen_macro_support6encode11LocalModuleENtNtNtNtBa_4iter6traits8iterator8Iterator4nextBT_, symObjAddr: 0x6C98, symBinAddr: 0x45AE4, symSize: 0xA8 }
  - { offset: 0x696FC, size: 0x8, addend: 0x0, symName: __RNvXs2E_NtNtCs85QQFkKrybG_4core5slice4iterINtB6_4IterNtNtCslvhnBjKo0yW_26wasm_bindgen_macro_support6encode11StructFieldENtNtNtNtBa_4iter6traits8iterator8Iterator4nextBT_, symObjAddr: 0x6D40, symBinAddr: 0x45B8C, symSize: 0xA8 }
  - { offset: 0x69836, size: 0x8, addend: 0x0, symName: __RNvXs2E_NtNtCs85QQFkKrybG_4core5slice4iterINtB6_4IterNtNtCslvhnBjKo0yW_26wasm_bindgen_macro_support6encode12LinkedModuleENtNtNtNtBa_4iter6traits8iterator8Iterator4nextBT_, symObjAddr: 0x6DE8, symBinAddr: 0x45C34, symSize: 0xA8 }
  - { offset: 0x69970, size: 0x8, addend: 0x0, symName: __RNvXs2E_NtNtCs85QQFkKrybG_4core5slice4iterINtB6_4IterNtNtCslvhnBjKo0yW_26wasm_bindgen_macro_support6encode20FunctionArgumentDataENtNtNtNtBa_4iter6traits8iterator8Iterator4nextBT_, symObjAddr: 0x6E90, symBinAddr: 0x45CDC, symSize: 0xA8 }
  - { offset: 0x69AAA, size: 0x8, addend: 0x0, symName: __RNvXs2E_NtNtCs85QQFkKrybG_4core5slice4iterINtB6_4IterNtNtCslvhnBjKo0yW_26wasm_bindgen_macro_support6encode4EnumENtNtNtNtBa_4iter6traits8iterator8Iterator4nextBT_, symObjAddr: 0x6F38, symBinAddr: 0x45D84, symSize: 0xA8 }
  - { offset: 0x69BE4, size: 0x8, addend: 0x0, symName: __RNvXs2E_NtNtCs85QQFkKrybG_4core5slice4iterINtB6_4IterNtNtCslvhnBjKo0yW_26wasm_bindgen_macro_support6encode6ExportENtNtNtNtBa_4iter6traits8iterator8Iterator4nextBT_, symObjAddr: 0x6FE0, symBinAddr: 0x45E2C, symSize: 0xA8 }
  - { offset: 0x69D1E, size: 0x8, addend: 0x0, symName: __RNvXs2E_NtNtCs85QQFkKrybG_4core5slice4iterINtB6_4IterNtNtCslvhnBjKo0yW_26wasm_bindgen_macro_support6encode6ImportENtNtNtNtBa_4iter6traits8iterator8Iterator4nextBT_, symObjAddr: 0x7088, symBinAddr: 0x45ED4, symSize: 0xA8 }
  - { offset: 0x69E58, size: 0x8, addend: 0x0, symName: __RNvXs2E_NtNtCs85QQFkKrybG_4core5slice4iterINtB6_4IterNtNtCslvhnBjKo0yW_26wasm_bindgen_macro_support6encode6StructENtNtNtNtBa_4iter6traits8iterator8Iterator4nextBT_, symObjAddr: 0x7130, symBinAddr: 0x45F7C, symSize: 0xA8 }
  - { offset: 0x69F92, size: 0x8, addend: 0x0, symName: __RNvXs2E_NtNtCs85QQFkKrybG_4core5slice4iterINtB6_4IterNtNtCslvhnBjKo0yW_26wasm_bindgen_macro_support6encode9LitOrExprENtNtNtNtBa_4iter6traits8iterator8Iterator4nextBT_, symObjAddr: 0x71D8, symBinAddr: 0x46024, symSize: 0xA8 }
  - { offset: 0x6A0CC, size: 0x8, addend: 0x0, symName: __RNvXs2E_NtNtCs85QQFkKrybG_4core5slice4iterINtB6_4IterNtNtCslvhnBjKo0yW_26wasm_bindgen_macro_support6parser11UnusedStateENtNtNtNtBa_4iter6traits8iterator8Iterator4nextBT_, symObjAddr: 0x7280, symBinAddr: 0x460CC, symSize: 0xA8 }
  - { offset: 0x6A206, size: 0x8, addend: 0x0, symName: __RNvXs2E_NtNtCs85QQFkKrybG_4core5slice4iterINtB6_4IterNtNtCswz7ZwgBZOU_3std4path7PathBufENtNtNtNtBa_4iter6traits8iterator8Iterator4nextCslvhnBjKo0yW_26wasm_bindgen_macro_support, symObjAddr: 0x7328, symBinAddr: 0x46174, symSize: 0xA8 }
  - { offset: 0x6A340, size: 0x8, addend: 0x0, symName: __RNvXs2E_NtNtCs85QQFkKrybG_4core5slice4iterINtB6_4IterRNtNtCscwCr4GBBztI_3syn2ty4TypeENtNtNtNtBa_4iter6traits8iterator8Iterator4nextCslvhnBjKo0yW_26wasm_bindgen_macro_support, symObjAddr: 0x73D0, symBinAddr: 0x4621C, symSize: 0xA8 }
  - { offset: 0x6A47A, size: 0x8, addend: 0x0, symName: __RNvXs2E_NtNtCs85QQFkKrybG_4core5slice4iterINtB6_4IterRNtNtCscwCr4GBBztI_3syn2ty4TypeENtNtNtNtBa_4iter6traits8iterator8Iterator9size_hintCslvhnBjKo0yW_26wasm_bindgen_macro_support, symObjAddr: 0x7478, symBinAddr: 0x462C4, symSize: 0x60 }
  - { offset: 0x6A4E9, size: 0x8, addend: 0x0, symName: __RNvXs2E_NtNtCs85QQFkKrybG_4core5slice4iterINtB6_4IterRShENtNtNtNtBa_4iter6traits8iterator8Iterator4nextCslvhnBjKo0yW_26wasm_bindgen_macro_support, symObjAddr: 0x74D8, symBinAddr: 0x46324, symSize: 0xA8 }
  - { offset: 0x6A623, size: 0x8, addend: 0x0, symName: __RNvXs2E_NtNtCs85QQFkKrybG_4core5slice4iterINtB6_4IterTINtNtBa_4cell4CellbENtNtCslvhnBjKo0yW_26wasm_bindgen_macro_support6parser11BindgenAttrEENtNtNtNtBa_4iter6traits8iterator8Iterator4nextB1e_, symObjAddr: 0x7580, symBinAddr: 0x463CC, symSize: 0xA8 }
  - { offset: 0x6A75D, size: 0x8, addend: 0x0, symName: __RNvXs2E_NtNtCs85QQFkKrybG_4core5slice4iterINtB6_4IterTINtNtBa_4cell4CellbENtNtCslvhnBjKo0yW_26wasm_bindgen_macro_support6parser11BindgenAttrEENtNtNtNtBa_4iter6traits8iterator8Iterator9size_hintB1e_, symObjAddr: 0x7628, symBinAddr: 0x46474, symSize: 0x60 }
  - { offset: 0x6A7CC, size: 0x8, addend: 0x0, symName: __RNvXs2E_NtNtCs85QQFkKrybG_4core5slice4iterINtB6_4ItermENtNtNtNtBa_4iter6traits8iterator8Iterator4nextCslvhnBjKo0yW_26wasm_bindgen_macro_support, symObjAddr: 0x7688, symBinAddr: 0x464D4, symSize: 0xA8 }
  - { offset: 0x6B540, size: 0x8, addend: 0x0, symName: __RNvXs2F_NtNtCs85QQFkKrybG_4core5slice4iterINtB6_4IterTNtNtCscwCr4GBBztI_3syn4data7VariantNtNtBU_5token5CommaEENtNtNtNtBa_4iter6traits12double_ended19DoubleEndedIterator9next_backCslvhnBjKo0yW_26wasm_bindgen_macro_support, symObjAddr: 0x7730, symBinAddr: 0x4657C, symSize: 0x108 }
  - { offset: 0x6B6A0, size: 0x8, addend: 0x0, symName: __RNvXs2F_NtNtCs85QQFkKrybG_4core5slice4iterINtB6_4IterTNtNtCscwCr4GBBztI_3syn4expr4ExprNtNtBU_5token5CommaEENtNtNtNtBa_4iter6traits12double_ended19DoubleEndedIterator9next_backCslvhnBjKo0yW_26wasm_bindgen_macro_support, symObjAddr: 0x7838, symBinAddr: 0x46684, symSize: 0x108 }
  - { offset: 0x6B800, size: 0x8, addend: 0x0, symName: __RNvXs2F_NtNtCs85QQFkKrybG_4core5slice4iterINtB6_4IterTNtNtCscwCr4GBBztI_3syn4path15GenericArgumentNtNtBU_5token5CommaEENtNtNtNtBa_4iter6traits12double_ended19DoubleEndedIterator9next_backCslvhnBjKo0yW_26wasm_bindgen_macro_support, symObjAddr: 0x7940, symBinAddr: 0x4678C, symSize: 0x108 }
  - { offset: 0x6BA54, size: 0x8, addend: 0x0, symName: __RNvXs2M_NtNtCs85QQFkKrybG_4core5slice4iterINtB6_7IterMutNtNtCscwCr4GBBztI_3syn4attr9AttributeENtNtNtNtBa_4iter6traits8iterator8Iterator4nextCslvhnBjKo0yW_26wasm_bindgen_macro_support, symObjAddr: 0x7A48, symBinAddr: 0x46894, symSize: 0xA8 }
  - { offset: 0x6BB79, size: 0x8, addend: 0x0, symName: __RNvXs2M_NtNtCs85QQFkKrybG_4core5slice4iterINtB6_7IterMutNtNtCscwCr4GBBztI_3syn4expr3ArmENtNtNtNtBa_4iter6traits8iterator8Iterator4nextCslvhnBjKo0yW_26wasm_bindgen_macro_support, symObjAddr: 0x7AF0, symBinAddr: 0x4693C, symSize: 0xA8 }
  - { offset: 0x6BC9E, size: 0x8, addend: 0x0, symName: __RNvXs2M_NtNtCs85QQFkKrybG_4core5slice4iterINtB6_7IterMutNtNtCscwCr4GBBztI_3syn4item11ForeignItemENtNtNtNtBa_4iter6traits8iterator8Iterator4nextCslvhnBjKo0yW_26wasm_bindgen_macro_support, symObjAddr: 0x7B98, symBinAddr: 0x469E4, symSize: 0xA8 }
  - { offset: 0x6BDC3, size: 0x8, addend: 0x0, symName: __RNvXs2M_NtNtCs85QQFkKrybG_4core5slice4iterINtB6_7IterMutNtNtCscwCr4GBBztI_3syn4item4ItemENtNtNtNtBa_4iter6traits8iterator8Iterator4nextCslvhnBjKo0yW_26wasm_bindgen_macro_support, symObjAddr: 0x7C40, symBinAddr: 0x46A8C, symSize: 0xA8 }
  - { offset: 0x6BEE8, size: 0x8, addend: 0x0, symName: __RNvXs2M_NtNtCs85QQFkKrybG_4core5slice4iterINtB6_7IterMutNtNtCscwCr4GBBztI_3syn4item8ImplItemENtNtNtNtBa_4iter6traits8iterator8Iterator4nextCslvhnBjKo0yW_26wasm_bindgen_macro_support, symObjAddr: 0x7CE8, symBinAddr: 0x46B34, symSize: 0xA8 }
  - { offset: 0x6C00D, size: 0x8, addend: 0x0, symName: __RNvXs2M_NtNtCs85QQFkKrybG_4core5slice4iterINtB6_7IterMutNtNtCscwCr4GBBztI_3syn4item9TraitItemENtNtNtNtBa_4iter6traits8iterator8Iterator4nextCslvhnBjKo0yW_26wasm_bindgen_macro_support, symObjAddr: 0x7D90, symBinAddr: 0x46BDC, symSize: 0xA8 }
  - { offset: 0x6C132, size: 0x8, addend: 0x0, symName: __RNvXs2M_NtNtCs85QQFkKrybG_4core5slice4iterINtB6_7IterMutNtNtCscwCr4GBBztI_3syn4stmt4StmtENtNtNtNtBa_4iter6traits8iterator8Iterator4nextCslvhnBjKo0yW_26wasm_bindgen_macro_support, symObjAddr: 0x7E38, symBinAddr: 0x46C84, symSize: 0xA8 }
  - { offset: 0x6C257, size: 0x8, addend: 0x0, symName: __RNvXs2M_NtNtCs85QQFkKrybG_4core5slice4iterINtB6_7IterMutTNtNtCscwCr4GBBztI_3syn2ty4TypeNtNtBX_5token5CommaEENtNtNtNtBa_4iter6traits8iterator8Iterator4nextCslvhnBjKo0yW_26wasm_bindgen_macro_support, symObjAddr: 0x7EE0, symBinAddr: 0x46D2C, symSize: 0xA8 }
  - { offset: 0x6C37C, size: 0x8, addend: 0x0, symName: __RNvXs2M_NtNtCs85QQFkKrybG_4core5slice4iterINtB6_7IterMutTNtNtCscwCr4GBBztI_3syn2ty9BareFnArgNtNtBX_5token5CommaEENtNtNtNtBa_4iter6traits8iterator8Iterator4nextCslvhnBjKo0yW_26wasm_bindgen_macro_support, symObjAddr: 0x7F88, symBinAddr: 0x46DD4, symSize: 0xA8 }
  - { offset: 0x6C4A1, size: 0x8, addend: 0x0, symName: __RNvXs2M_NtNtCs85QQFkKrybG_4core5slice4iterINtB6_7IterMutTNtNtCscwCr4GBBztI_3syn3pat3PatNtNtBX_5token2OrEENtNtNtNtBa_4iter6traits8iterator8Iterator4nextCslvhnBjKo0yW_26wasm_bindgen_macro_support, symObjAddr: 0x8030, symBinAddr: 0x46E7C, symSize: 0xA8 }
  - { offset: 0x6C5C6, size: 0x8, addend: 0x0, symName: __RNvXs2M_NtNtCs85QQFkKrybG_4core5slice4iterINtB6_7IterMutTNtNtCscwCr4GBBztI_3syn3pat3PatNtNtBX_5token5CommaEENtNtNtNtBa_4iter6traits8iterator8Iterator4nextCslvhnBjKo0yW_26wasm_bindgen_macro_support, symObjAddr: 0x80D8, symBinAddr: 0x46F24, symSize: 0xA8 }
  - { offset: 0x6C6EB, size: 0x8, addend: 0x0, symName: __RNvXs2M_NtNtCs85QQFkKrybG_4core5slice4iterINtB6_7IterMutTNtNtCscwCr4GBBztI_3syn3pat8FieldPatNtNtBX_5token5CommaEENtNtNtNtBa_4iter6traits8iterator8Iterator4nextCslvhnBjKo0yW_26wasm_bindgen_macro_support, symObjAddr: 0x8180, symBinAddr: 0x46FCC, symSize: 0xA8 }
  - { offset: 0x6C810, size: 0x8, addend: 0x0, symName: __RNvXs2M_NtNtCs85QQFkKrybG_4core5slice4iterINtB6_7IterMutTNtNtCscwCr4GBBztI_3syn4data7VariantNtNtBX_5token5CommaEENtNtNtNtBa_4iter6traits8iterator8Iterator4nextCslvhnBjKo0yW_26wasm_bindgen_macro_support, symObjAddr: 0x8228, symBinAddr: 0x47074, symSize: 0xA8 }
  - { offset: 0x6C935, size: 0x8, addend: 0x0, symName: __RNvXs2M_NtNtCs85QQFkKrybG_4core5slice4iterINtB6_7IterMutTNtNtCscwCr4GBBztI_3syn4expr10FieldValueNtNtBX_5token5CommaEENtNtNtNtBa_4iter6traits8iterator8Iterator4nextCslvhnBjKo0yW_26wasm_bindgen_macro_support, symObjAddr: 0x82D0, symBinAddr: 0x4711C, symSize: 0xA8 }
  - { offset: 0x6CA5A, size: 0x8, addend: 0x0, symName: __RNvXs2M_NtNtCs85QQFkKrybG_4core5slice4iterINtB6_7IterMutTNtNtCscwCr4GBBztI_3syn4expr4ExprNtNtBX_5token5CommaEENtNtNtNtBa_4iter6traits8iterator8Iterator4nextCslvhnBjKo0yW_26wasm_bindgen_macro_support, symObjAddr: 0x8378, symBinAddr: 0x471C4, symSize: 0xA8 }
  - { offset: 0x6CB7F, size: 0x8, addend: 0x0, symName: __RNvXs2M_NtNtCs85QQFkKrybG_4core5slice4iterINtB6_7IterMutTNtNtCscwCr4GBBztI_3syn4item5FnArgNtNtBX_5token5CommaEENtNtNtNtBa_4iter6traits8iterator8Iterator4nextCslvhnBjKo0yW_26wasm_bindgen_macro_support, symObjAddr: 0x8420, symBinAddr: 0x4726C, symSize: 0xA8 }
  - { offset: 0x6CCA4, size: 0x8, addend: 0x0, symName: __RNvXs2M_NtNtCs85QQFkKrybG_4core5slice4iterINtB6_7IterMutTNtNtCscwCr4GBBztI_3syn4item7UseTreeNtNtBX_5token5CommaEENtNtNtNtBa_4iter6traits8iterator8Iterator4nextCslvhnBjKo0yW_26wasm_bindgen_macro_support, symObjAddr: 0x84C8, symBinAddr: 0x47314, symSize: 0xA8 }
  - { offset: 0x6CDC9, size: 0x8, addend: 0x0, symName: __RNvXs2M_NtNtCs85QQFkKrybG_4core5slice4iterINtB6_7IterMutTNtNtCscwCr4GBBztI_3syn4path15GenericArgumentNtNtBX_5token5CommaEENtNtNtNtBa_4iter6traits8iterator8Iterator4nextCslvhnBjKo0yW_26wasm_bindgen_macro_support, symObjAddr: 0x8570, symBinAddr: 0x473BC, symSize: 0xA8 }
  - { offset: 0x6CEEE, size: 0x8, addend: 0x0, symName: __RNvXs2M_NtNtCs85QQFkKrybG_4core5slice4iterINtB6_7IterMutTNtNtCscwCr4GBBztI_3syn8generics13CapturedParamNtNtBX_5token5CommaEENtNtNtNtBa_4iter6traits8iterator8Iterator4nextCslvhnBjKo0yW_26wasm_bindgen_macro_support, symObjAddr: 0x8618, symBinAddr: 0x47464, symSize: 0xA8 }
  - { offset: 0x6D013, size: 0x8, addend: 0x0, symName: __RNvXs2M_NtNtCs85QQFkKrybG_4core5slice4iterINtB6_7IterMutTNtNtCscwCr4GBBztI_3syn8generics14TypeParamBoundNtNtBX_5token4PlusEENtNtNtNtBa_4iter6traits8iterator8Iterator4nextCslvhnBjKo0yW_26wasm_bindgen_macro_support, symObjAddr: 0x86C0, symBinAddr: 0x4750C, symSize: 0xA8 }
  - { offset: 0x6D138, size: 0x8, addend: 0x0, symName: __RNvXs2M_NtNtCs85QQFkKrybG_4core5slice4iterINtB6_7IterMutTNtNtCscwCr4GBBztI_3syn8generics14WherePredicateNtNtBX_5token5CommaEENtNtNtNtBa_4iter6traits8iterator8Iterator4nextCslvhnBjKo0yW_26wasm_bindgen_macro_support, symObjAddr: 0x8768, symBinAddr: 0x475B4, symSize: 0xA8 }
  - { offset: 0x6D25D, size: 0x8, addend: 0x0, symName: __RNvXs2M_NtNtCs85QQFkKrybG_4core5slice4iterINtB6_7IterMutTNtNtCscwCr4GBBztI_3syn8lifetime8LifetimeNtNtBX_5token4PlusEENtNtNtNtBa_4iter6traits8iterator8Iterator4nextCslvhnBjKo0yW_26wasm_bindgen_macro_support, symObjAddr: 0x8810, symBinAddr: 0x4765C, symSize: 0xA8 }
  - { offset: 0x6D388, size: 0x8, addend: 0x0, symName: __RNvXs2N_NtNtCs85QQFkKrybG_4core5slice4iterINtB6_7IterMutTNtNtCscwCr4GBBztI_3syn4item5FnArgNtNtBX_5token5CommaEENtNtNtNtBa_4iter6traits12double_ended19DoubleEndedIterator9next_backCslvhnBjKo0yW_26wasm_bindgen_macro_support, symObjAddr: 0x88B8, symBinAddr: 0x47704, symSize: 0x108 }
  - { offset: 0x6D4EE, size: 0x8, addend: 0x0, symName: __RNvXs5_NtNtCs85QQFkKrybG_4core5slice4iterINtB5_4IterNtNtCslvhnBjKo0yW_26wasm_bindgen_macro_support3ast7VariantENtNtB9_5clone5Clone5cloneBS_, symObjAddr: 0x89C0, symBinAddr: 0x4780C, symSize: 0x20 }
  - { offset: 0x6D523, size: 0x8, addend: 0x0, symName: __RNvXs5_NtNtCs85QQFkKrybG_4core5slice4iterINtB5_4IterTNtNtCscwCr4GBBztI_3syn4data7VariantNtNtBT_5token5CommaEENtNtB9_5clone5Clone5cloneCslvhnBjKo0yW_26wasm_bindgen_macro_support, symObjAddr: 0x89E0, symBinAddr: 0x4782C, symSize: 0x20 }
  - { offset: 0x6D558, size: 0x8, addend: 0x0, symName: __RNvXs5_NtNtCs85QQFkKrybG_4core5slice4iterINtB5_4IterTNtNtCscwCr4GBBztI_3syn4expr4ExprNtNtBT_5token5CommaEENtNtB9_5clone5Clone5cloneCslvhnBjKo0yW_26wasm_bindgen_macro_support, symObjAddr: 0x8A00, symBinAddr: 0x4784C, symSize: 0x20 }
  - { offset: 0x6D58D, size: 0x8, addend: 0x0, symName: __RNvXs5_NtNtCs85QQFkKrybG_4core5slice4iterINtB5_4IterTNtNtCscwCr4GBBztI_3syn4path15GenericArgumentNtNtBT_5token5CommaEENtNtB9_5clone5Clone5cloneCslvhnBjKo0yW_26wasm_bindgen_macro_support, symObjAddr: 0x8A20, symBinAddr: 0x4786C, symSize: 0x20 }
  - { offset: 0x712A6, size: 0x8, addend: 0x0, symName: __RINvYINtNtNtCs85QQFkKrybG_4core5slice4iter4IterNtCsfwj6t2KTYdc_11proc_macro25IdentENtNtNtNtBa_4iter6traits8iterator8Iterator3mapBJ_NvYBJ_NtNtBa_5clone5Clone5cloneECslvhnBjKo0yW_26wasm_bindgen_macro_support, symObjAddr: 0x474C, symBinAddr: 0x43598, symSize: 0x1C }
  - { offset: 0x712FE, size: 0x8, addend: 0x0, symName: __RINvYINtNtNtCs85QQFkKrybG_4core5slice4iter4IterNtCsfwj6t2KTYdc_11proc_macro25IdentENtNtNtNtBa_4iter6traits8iterator8Iterator3mapNtBL_11TokenStreamNCNvXs5_NtCslvhnBjKo0yW_26wasm_bindgen_macro_support7codegenNtNtB2u_3ast10StringEnumNtNtCshi3DZH3dfhk_5quote9to_tokens8ToTokens9to_tokens0EB2u_, symObjAddr: 0x4768, symBinAddr: 0x435B4, symSize: 0x30 }
  - { offset: 0x7136B, size: 0x8, addend: 0x0, symName: __RINvYINtNtNtCs85QQFkKrybG_4core5slice4iter4IterNtCsfwj6t2KTYdc_11proc_macro25IdentENtNtNtNtBa_4iter6traits8iterator8Iterator3mapReNCNvNtCslvhnBjKo0yW_26wasm_bindgen_macro_support6encode18shared_import_type0EB2a_, symObjAddr: 0x4798, symBinAddr: 0x435E4, symSize: 0x30 }
  - { offset: 0x713D8, size: 0x8, addend: 0x0, symName: __RINvYINtNtNtCs85QQFkKrybG_4core5slice4iter4IterNtCsfwj6t2KTYdc_11proc_macro25IdentENtNtNtNtBa_4iter6traits8iterator8Iterator6clonedBJ_ECslvhnBjKo0yW_26wasm_bindgen_macro_support, symObjAddr: 0x47C8, symBinAddr: 0x43614, symSize: 0x1C }
  - { offset: 0x71418, size: 0x8, addend: 0x0, symName: __RINvYINtNtNtCs85QQFkKrybG_4core5slice4iter4IterNtNtCscwCr4GBBztI_3syn4attr9AttributeENtNtNtNtBa_4iter6traits8iterator8Iterator10filter_mapINtNtNtB1r_8adapters10filter_map9FilterMapINtNtB2h_7flatten7FlattenINtNtBa_6option8IntoIterNtCsfwj6t2KTYdc_11proc_macro211TokenStreamEENCNCNvNtCslvhnBjKo0yW_26wasm_bindgen_macro_support6parser20extract_doc_comments0s_0ENCB4r_0EB4v_, symObjAddr: 0x47E4, symBinAddr: 0x43630, symSize: 0x1C }
  - { offset: 0x71470, size: 0x8, addend: 0x0, symName: __RINvYINtNtNtCs85QQFkKrybG_4core5slice4iter4IterNtNtCscwCr4GBBztI_3syn4attr9AttributeENtNtNtNtBa_4iter6traits8iterator8Iterator6filterNCNCNvCslvhnBjKo0yW_26wasm_bindgen_macro_support19expand_class_markers_00EB2d_, symObjAddr: 0x4800, symBinAddr: 0x4364C, symSize: 0x1C }
  - { offset: 0x714BF, size: 0x8, addend: 0x0, symName: __RINvYINtNtNtCs85QQFkKrybG_4core5slice4iter4IterNtNtCscwCr4GBBztI_3syn4attr9AttributeENtNtNtNtBa_4iter6traits8iterator8Iterator6filterNCNvCslvhnBjKo0yW_26wasm_bindgen_macro_support19expand_class_marker0EB2b_, symObjAddr: 0x481C, symBinAddr: 0x43668, symSize: 0x1C }
  - { offset: 0x7150E, size: 0x8, addend: 0x0, symName: __RINvYINtNtNtCs85QQFkKrybG_4core5slice4iter4IterNtNtCscwCr4GBBztI_3syn4attr9AttributeENtNtNtNtBa_4iter6traits8iterator8Iterator8try_folduNCINvNvXs_NtNtB1r_8adapters9enumerateINtB2k_9EnumeratepEB1l_8try_fold9enumerateRBJ_uINtNtNtBa_3ops12control_flow11ControlFlowTjB3r_EENCINvNvB1l_4find5checkB4b_NCNvMNtCslvhnBjKo0yW_26wasm_bindgen_macro_support6parserNtB4O_12BindgenAttrs4find0E0E0B3w_EB4Q_, symObjAddr: 0x4838, symBinAddr: 0x43684, symSize: 0x174 }
  - { offset: 0x715C1, size: 0x8, addend: 0x0, symName: __RINvYINtNtNtCs85QQFkKrybG_4core5slice4iter4IterNtNtCscwCr4GBBztI_3syn4attr9AttributeENtNtNtNtBa_4iter6traits8iterator8Iterator8try_folduNCINvNvXs_NtNtB1r_8adapters9enumerateINtB2k_9EnumeratepEB1l_8try_fold9enumerateRBJ_uINtNtNtBa_3ops12control_flow11ControlFlowTjB3r_EENCINvNvB1l_4find5checkB4b_NCNvXs9_NtCslvhnBjKo0yW_26wasm_bindgen_macro_support6parserNtNtBN_4item4ItemINtB4R_10MacroParseTINtNtBa_6option6OptionNtB4R_12BindgenAttrsEQNtCsfwj6t2KTYdc_11proc_macro211TokenStreamEE11macro_parse0E0E0B3w_EB4T_, symObjAddr: 0x49AC, symBinAddr: 0x437F8, symSize: 0x174 }
  - { offset: 0x71674, size: 0x8, addend: 0x0, symName: __RINvYINtNtNtCs85QQFkKrybG_4core5slice4iter4IterNtNtCsdFlNUEO95cG_5alloc6string6StringENtNtNtNtBa_4iter6traits8iterator8Iterator3mapReNCNvNtCslvhnBjKo0yW_26wasm_bindgen_macro_support6encode11shared_enums_0EB2d_, symObjAddr: 0x4B20, symBinAddr: 0x4396C, symSize: 0x1C }
  - { offset: 0x716CC, size: 0x8, addend: 0x0, symName: __RINvYINtNtNtCs85QQFkKrybG_4core5slice4iter4IterNtNtCsdFlNUEO95cG_5alloc6string6StringENtNtNtNtBa_4iter6traits8iterator8Iterator3mapReNCNvNtCslvhnBjKo0yW_26wasm_bindgen_macro_support6encode13shared_export0EB2d_, symObjAddr: 0x4B3C, symBinAddr: 0x43988, symSize: 0x1C }
  - { offset: 0x71724, size: 0x8, addend: 0x0, symName: __RINvYINtNtNtCs85QQFkKrybG_4core5slice4iter4IterNtNtCsdFlNUEO95cG_5alloc6string6StringENtNtNtNtBa_4iter6traits8iterator8Iterator3mapReNCNvNtCslvhnBjKo0yW_26wasm_bindgen_macro_support6encode13shared_structs_0EB2d_, symObjAddr: 0x4B58, symBinAddr: 0x439A4, symSize: 0x1C }
  - { offset: 0x7177C, size: 0x8, addend: 0x0, symName: __RINvYINtNtNtCs85QQFkKrybG_4core5slice4iter4IterNtNtCsdFlNUEO95cG_5alloc6string6StringENtNtNtNtBa_4iter6traits8iterator8Iterator3mapReNCNvNtCslvhnBjKo0yW_26wasm_bindgen_macro_support6encode14shared_programs5_0EB2d_, symObjAddr: 0x4B74, symBinAddr: 0x439C0, symSize: 0x30 }
  - { offset: 0x717E9, size: 0x8, addend: 0x0, symName: __RINvYINtNtNtCs85QQFkKrybG_4core5slice4iter4IterNtNtCsdFlNUEO95cG_5alloc6string6StringENtNtNtNtBa_4iter6traits8iterator8Iterator3mapReNCNvNtCslvhnBjKo0yW_26wasm_bindgen_macro_support6encode14shared_variant0EB2d_, symObjAddr: 0x4BA4, symBinAddr: 0x439F0, symSize: 0x1C }
  - { offset: 0x71841, size: 0x8, addend: 0x0, symName: __RINvYINtNtNtCs85QQFkKrybG_4core5slice4iter4IterNtNtCsdFlNUEO95cG_5alloc6string6StringENtNtNtNtBa_4iter6traits8iterator8Iterator3mapReNCNvNtCslvhnBjKo0yW_26wasm_bindgen_macro_support6encode18shared_import_enum0EB2d_, symObjAddr: 0x4BC0, symBinAddr: 0x43A0C, symSize: 0x1C }
  - { offset: 0x71899, size: 0x8, addend: 0x0, symName: __RINvYINtNtNtCs85QQFkKrybG_4core5slice4iter4IterNtNtCsdFlNUEO95cG_5alloc6string6StringENtNtNtNtBa_4iter6traits8iterator8Iterator3mapReNCNvNtCslvhnBjKo0yW_26wasm_bindgen_macro_support6encode18shared_import_enums_0EB2d_, symObjAddr: 0x4BDC, symBinAddr: 0x43A28, symSize: 0x1C }
  - { offset: 0x718F1, size: 0x8, addend: 0x0, symName: __RINvYINtNtNtCs85QQFkKrybG_4core5slice4iter4IterNtNtCsdFlNUEO95cG_5alloc6string6StringENtNtNtNtBa_4iter6traits8iterator8Iterator3mapReNCNvNtCslvhnBjKo0yW_26wasm_bindgen_macro_support6encode19shared_struct_field0EB2d_, symObjAddr: 0x4BF8, symBinAddr: 0x43A44, symSize: 0x1C }
  - { offset: 0x71949, size: 0x8, addend: 0x0, symName: __RINvYINtNtNtCs85QQFkKrybG_4core5slice4iter4IterNtNtCslvhnBjKo0yW_26wasm_bindgen_macro_support3ast11StructFieldENtNtNtNtBa_4iter6traits8iterator8Iterator3mapNtNtBN_6encode11StructFieldNCNvB2w_13shared_struct0EBN_, symObjAddr: 0x4C14, symBinAddr: 0x43A60, symSize: 0x30 }
  - { offset: 0x719B6, size: 0x8, addend: 0x0, symName: __RINvYINtNtNtCs85QQFkKrybG_4core5slice4iter4IterNtNtCslvhnBjKo0yW_26wasm_bindgen_macro_support3ast12ImportModuleENtNtNtNtBa_4iter6traits8iterator8Iterator8try_folduNCINvNvXs_NtNtB1S_8adapters9enumerateINtB2L_9EnumeratepEB1M_8try_fold9enumerateRBJ_uINtNtNtBa_3ops12control_flow11ControlFlowIB3Y_NtNtBN_6encode12LinkedModuleEENCINvNtB2N_3map12map_try_foldTjB3S_EINtNtBa_6result6ResultB4H_NtNtBN_5error10DiagnosticEuB3X_NCNvB4J_14shared_programs3_0NCINvXB2N_INtB2N_12GenericShuntINtB5g_3MapIB3d_B3_EB6G_EIB5M_NtNtBa_7convert10InfallibleB6b_EEB1M_8try_folduNCINvNvB1M_12try_for_each4callB4H_B4C_NcNtB4C_5Break0E0B4C_E0E0E0B3X_EBN_, symObjAddr: 0x4C44, symBinAddr: 0x43A90, symSize: 0x140 }
  - { offset: 0x71A72, size: 0x8, addend: 0x0, symName: __RINvYINtNtNtCs85QQFkKrybG_4core5slice4iter4IterNtNtCslvhnBjKo0yW_26wasm_bindgen_macro_support3ast20FunctionArgumentDataENtNtNtNtBa_4iter6traits8iterator8Iterator3mapRINtNtCsdFlNUEO95cG_5alloc5boxed3BoxNtNtCscwCr4GBBztI_3syn2ty4TypeENCNvXs7_NtBN_7codegenNtB3Q_14DescribeImportNtNtCshi3DZH3dfhk_5quote9to_tokens8ToTokens9to_tokens0EBN_, symObjAddr: 0x4D84, symBinAddr: 0x43BD0, symSize: 0x1C }
  - { offset: 0x71ACA, size: 0x8, addend: 0x0, symName: __RINvYINtNtNtCs85QQFkKrybG_4core5slice4iter4IterNtNtCslvhnBjKo0yW_26wasm_bindgen_macro_support3ast4EnumENtNtNtNtBa_4iter6traits8iterator8Iterator3mapNtNtBN_6encode4EnumNCNvB2o_14shared_programs0_0EBN_, symObjAddr: 0x4DA0, symBinAddr: 0x43BEC, symSize: 0x30 }
  - { offset: 0x71B37, size: 0x8, addend: 0x0, symName: __RINvYINtNtNtCs85QQFkKrybG_4core5slice4iter4IterNtNtCslvhnBjKo0yW_26wasm_bindgen_macro_support3ast6ExportENtNtNtNtBa_4iter6traits8iterator8Iterator3mapINtNtBa_6result6ResultNtNtBN_6encode6ExportNtNtBN_5error10DiagnosticENCNvB2M_14shared_program0EBN_, symObjAddr: 0x4DD0, symBinAddr: 0x43C1C, symSize: 0x30 }
  - { offset: 0x71BA4, size: 0x8, addend: 0x0, symName: __RINvYINtNtNtCs85QQFkKrybG_4core5slice4iter4IterNtNtCslvhnBjKo0yW_26wasm_bindgen_macro_support3ast6ExportENtNtNtNtBa_4iter6traits8iterator8Iterator8try_folduNCINvNtNtB1L_8adapters3map12map_try_foldRBJ_INtNtBa_6result6ResultNtNtBN_6encode6ExportNtNtBN_5error10DiagnosticEuINtNtNtBa_3ops12control_flow11ControlFlowIB4l_B3y_EENCNvB3A_14shared_program0NCINvXB2B_INtB2B_12GenericShuntINtB2z_3MapB3_B5a_EIB3d_NtNtBa_7convert10InfallibleB3T_EEB1F_8try_folduNCINvNvB1F_12try_for_each4callB3y_B4Z_NcNtB4Z_5Break0E0B4Z_E0E0B4k_EBN_, symObjAddr: 0x4E00, symBinAddr: 0x43C4C, symSize: 0x140 }
  - { offset: 0x71C60, size: 0x8, addend: 0x0, symName: __RINvYINtNtNtCs85QQFkKrybG_4core5slice4iter4IterNtNtCslvhnBjKo0yW_26wasm_bindgen_macro_support3ast6ImportENtNtNtNtBa_4iter6traits8iterator8Iterator3mapINtNtBa_6result6ResultNtNtBN_6encode6ImportNtNtBN_5error10DiagnosticENCNvB2M_14shared_programs1_0EBN_, symObjAddr: 0x4F40, symBinAddr: 0x43D8C, symSize: 0x30 }
  - { offset: 0x71CCD, size: 0x8, addend: 0x0, symName: __RINvYINtNtNtCs85QQFkKrybG_4core5slice4iter4IterNtNtCslvhnBjKo0yW_26wasm_bindgen_macro_support3ast6ImportENtNtNtNtBa_4iter6traits8iterator8Iterator8try_folduNCINvNtNtB1L_8adapters3map12map_try_foldRBJ_INtNtBa_6result6ResultNtNtBN_6encode6ImportNtNtBN_5error10DiagnosticEuINtNtNtBa_3ops12control_flow11ControlFlowIB4l_B3y_EENCNvB3A_14shared_programs1_0NCINvXB2B_INtB2B_12GenericShuntINtB2z_3MapB3_B5a_EIB3d_NtNtBa_7convert10InfallibleB3T_EEB1F_8try_folduNCINvNvB1F_12try_for_each4callB3y_B4Z_NcNtB4Z_5Break0E0B4Z_E0E0B4k_EBN_, symObjAddr: 0x4F70, symBinAddr: 0x43DBC, symSize: 0x140 }
  - { offset: 0x71D89, size: 0x8, addend: 0x0, symName: __RINvYINtNtNtCs85QQFkKrybG_4core5slice4iter4IterNtNtCslvhnBjKo0yW_26wasm_bindgen_macro_support3ast6StructENtNtNtNtBa_4iter6traits8iterator8Iterator3mapNtNtBN_6encode6StructNCNvB2q_14shared_programs_0EBN_, symObjAddr: 0x50B0, symBinAddr: 0x43EFC, symSize: 0x30 }
  - { offset: 0x71DF6, size: 0x8, addend: 0x0, symName: __RINvYINtNtNtCs85QQFkKrybG_4core5slice4iter4IterNtNtCslvhnBjKo0yW_26wasm_bindgen_macro_support3ast7VariantENtNtNtNtBa_4iter6traits8iterator8Iterator3mapNtCsfwj6t2KTYdc_11proc_macro211TokenStreamNCNvXs8_NtBN_7codegenNtBL_4EnumNtNtCshi3DZH3dfhk_5quote9to_tokens8ToTokens9to_tokenss_0EBN_, symObjAddr: 0x50E0, symBinAddr: 0x43F2C, symSize: 0x3C }
  - { offset: 0x71E63, size: 0x8, addend: 0x0, symName: __RINvYINtNtNtCs85QQFkKrybG_4core5slice4iter4IterNtNtCslvhnBjKo0yW_26wasm_bindgen_macro_support3ast7VariantENtNtNtNtBa_4iter6traits8iterator8Iterator3mapNtNtBN_6encode11EnumVariantNCNvB2r_11shared_enum0EBN_, symObjAddr: 0x511C, symBinAddr: 0x43F68, symSize: 0x30 }
  - { offset: 0x71ED0, size: 0x8, addend: 0x0, symName: __RINvYINtNtNtCs85QQFkKrybG_4core5slice4iter4IterNtNtCslvhnBjKo0yW_26wasm_bindgen_macro_support3ast9LitOrExprENtNtNtNtBa_4iter6traits8iterator8Iterator3mapNtNtBN_6encode9LitOrExprNCNvB2t_14shared_programs2_0EBN_, symObjAddr: 0x514C, symBinAddr: 0x43F98, symSize: 0x30 }
  - { offset: 0x71F3D, size: 0x8, addend: 0x0, symName: __RINvYINtNtNtCs85QQFkKrybG_4core5slice4iter4IterNtNtCslvhnBjKo0yW_26wasm_bindgen_macro_support6encode11EncodeChunkENtNtNtNtBa_4iter6traits8iterator8Iterator3mapNtCsfwj6t2KTYdc_11proc_macro211TokenStreamNCNvXNtBN_7codegenNtNtBN_3ast7ProgramNtB3i_11TryToTokens13try_to_tokenss_0EBN_, symObjAddr: 0x517C, symBinAddr: 0x43FC8, symSize: 0x30 }
  - { offset: 0x71FAA, size: 0x8, addend: 0x0, symName: __RINvYINtNtNtCs85QQFkKrybG_4core5slice4iter4IterNtNtCslvhnBjKo0yW_26wasm_bindgen_macro_support6parser11UnusedStateENtNtNtNtBa_4iter6traits8iterator8Iterator3mapNtCsfwj6t2KTYdc_11proc_macro211TokenStreamNCNCNvBL_18check_unused_attrs00EBN_, symObjAddr: 0x51AC, symBinAddr: 0x43FF8, symSize: 0x1C }
  - { offset: 0x72002, size: 0x8, addend: 0x0, symName: __RINvYINtNtNtCs85QQFkKrybG_4core5slice4iter4IterNtNtCswz7ZwgBZOU_3std4path7PathBufENtNtNtNtBa_4iter6traits8iterator8Iterator3mapNtCsfwj6t2KTYdc_11proc_macro211TokenStreamNCNvXNtCslvhnBjKo0yW_26wasm_bindgen_macro_support7codegenNtNtB2O_3ast7ProgramNtB2M_11TryToTokens13try_to_tokenss0_0EB2O_, symObjAddr: 0x51C8, symBinAddr: 0x44014, symSize: 0x1C }
  - { offset: 0x7205A, size: 0x8, addend: 0x0, symName: __RINvYINtNtNtCs85QQFkKrybG_4core5slice4iter4IterRNtNtCscwCr4GBBztI_3syn2ty4TypeENtNtNtNtBa_4iter6traits8iterator8Iterator3mapNtCsfwj6t2KTYdc_11proc_macro211TokenStreamNCNvXs2_NtCslvhnBjKo0yW_26wasm_bindgen_macro_support7codegenNtNtB2O_3ast6ExportNtB2M_11TryToTokens13try_to_tokenss0_0EB2O_, symObjAddr: 0x51E4, symBinAddr: 0x44030, symSize: 0x30 }
  - { offset: 0x720C7, size: 0x8, addend: 0x0, symName: __RINvYINtNtNtCs85QQFkKrybG_4core5slice4iter4IterTINtNtBa_4cell4CellbENtNtCslvhnBjKo0yW_26wasm_bindgen_macro_support6parser11BindgenAttrEENtNtNtNtBa_4iter6traits8iterator8Iterator10filter_mapRB14_NCNCNvMB16_NtB16_12BindgenAttrs10check_used00EB18_, symObjAddr: 0x5214, symBinAddr: 0x44060, symSize: 0x1C }
  - { offset: 0x7211F, size: 0x8, addend: 0x0, symName: __RNvYINtNtNtCs85QQFkKrybG_4core5slice4iter4IterNtNtCscwCr4GBBztI_3syn4attr9AttributeENtNtNtNtB9_4iter6traits8iterator8Iterator9enumerateCslvhnBjKo0yW_26wasm_bindgen_macro_support, symObjAddr: 0x8A40, symBinAddr: 0x4788C, symSize: 0x28 }
  - { offset: 0x7216B, size: 0x8, addend: 0x0, symName: __RNvYINtNtNtCs85QQFkKrybG_4core5slice4iter4IterNtNtCslvhnBjKo0yW_26wasm_bindgen_macro_support3ast12ImportModuleENtNtNtNtB9_4iter6traits8iterator8Iterator9enumerateBM_, symObjAddr: 0x8A68, symBinAddr: 0x478B4, symSize: 0x28 }
  - { offset: 0x721B7, size: 0x8, addend: 0x0, symName: __RNvYINtNtNtCs85QQFkKrybG_4core5slice4iter4IterNtNtCslvhnBjKo0yW_26wasm_bindgen_macro_support3ast20FunctionArgumentDataENtNtNtNtB9_4iter6traits8iterator8Iterator9enumerateBM_, symObjAddr: 0x8A90, symBinAddr: 0x478DC, symSize: 0x28 }
  - { offset: 0x723FB, size: 0x8, addend: 0x0, symName: __RNvXNtNtNtCs85QQFkKrybG_4core4iter6traits7collectINtNtNtB8_5slice4iter4IterNtNtCscwCr4GBBztI_3syn4path4PathENtB2_12IntoIterator9into_iterCslvhnBjKo0yW_26wasm_bindgen_macro_support, symObjAddr: 0x5E08, symBinAddr: 0x44C54, symSize: 0x1C }
  - { offset: 0x72432, size: 0x8, addend: 0x0, symName: __RNvXNtNtNtCs85QQFkKrybG_4core4iter6traits7collectINtNtNtB8_5slice4iter4IterNtNtCslvhnBjKo0yW_26wasm_bindgen_macro_support3ast11StructFieldENtB2_12IntoIterator9into_iterB1f_, symObjAddr: 0x5E24, symBinAddr: 0x44C70, symSize: 0x1C }
  - { offset: 0x72469, size: 0x8, addend: 0x0, symName: __RNvXNtNtNtCs85QQFkKrybG_4core4iter6traits7collectINtNtNtB8_5slice4iter4IterNtNtCslvhnBjKo0yW_26wasm_bindgen_macro_support3ast4EnumENtB2_12IntoIterator9into_iterB1f_, symObjAddr: 0x5E40, symBinAddr: 0x44C8C, symSize: 0x1C }
  - { offset: 0x724A0, size: 0x8, addend: 0x0, symName: __RNvXNtNtNtCs85QQFkKrybG_4core4iter6traits7collectINtNtNtB8_5slice4iter4IterNtNtCslvhnBjKo0yW_26wasm_bindgen_macro_support3ast6ExportENtB2_12IntoIterator9into_iterB1f_, symObjAddr: 0x5E5C, symBinAddr: 0x44CA8, symSize: 0x1C }
  - { offset: 0x724D7, size: 0x8, addend: 0x0, symName: __RNvXNtNtNtCs85QQFkKrybG_4core4iter6traits7collectINtNtNtB8_5slice4iter4IterNtNtCslvhnBjKo0yW_26wasm_bindgen_macro_support3ast6ImportENtB2_12IntoIterator9into_iterB1f_, symObjAddr: 0x5E78, symBinAddr: 0x44CC4, symSize: 0x1C }
  - { offset: 0x7250E, size: 0x8, addend: 0x0, symName: __RNvXNtNtNtCs85QQFkKrybG_4core4iter6traits7collectINtNtNtB8_5slice4iter4IterNtNtCslvhnBjKo0yW_26wasm_bindgen_macro_support3ast6StructENtB2_12IntoIterator9into_iterB1f_, symObjAddr: 0x5E94, symBinAddr: 0x44CE0, symSize: 0x1C }
  - { offset: 0x72545, size: 0x8, addend: 0x0, symName: __RNvXNtNtNtCs85QQFkKrybG_4core4iter6traits7collectINtNtNtB8_5slice4iter4IterTINtNtB8_4cell4CellbENtNtCslvhnBjKo0yW_26wasm_bindgen_macro_support6parser11BindgenAttrEENtB2_12IntoIterator9into_iterB1A_, symObjAddr: 0x5EB0, symBinAddr: 0x44CFC, symSize: 0x1C }
  - { offset: 0x7257C, size: 0x8, addend: 0x0, symName: __RNvXNtNtNtCs85QQFkKrybG_4core4iter6traits7collectINtNtNtB8_5slice4iter7IterMutNtNtCscwCr4GBBztI_3syn4item8ImplItemENtB2_12IntoIterator9into_iterCslvhnBjKo0yW_26wasm_bindgen_macro_support, symObjAddr: 0x5ECC, symBinAddr: 0x44D18, symSize: 0x1C }
  - { offset: 0x7CF2C, size: 0x8, addend: 0x0, symName: __RNvMs4_NtNtCs85QQFkKrybG_4core5slice4iterINtB5_4IterNtCsfwj6t2KTYdc_11proc_macro211TokenStreamE3newCslvhnBjKo0yW_26wasm_bindgen_macro_support, symObjAddr: 0x5230, symBinAddr: 0x4407C, symSize: 0x50 }
  - { offset: 0x7D0CF, size: 0x8, addend: 0x0, symName: __RNvMs4_NtNtCs85QQFkKrybG_4core5slice4iterINtB5_4IterNtCsfwj6t2KTYdc_11proc_macro25IdentE3newCslvhnBjKo0yW_26wasm_bindgen_macro_support, symObjAddr: 0x5280, symBinAddr: 0x440CC, symSize: 0x58 }
  - { offset: 0x7D28C, size: 0x8, addend: 0x0, symName: __RNvMs4_NtNtCs85QQFkKrybG_4core5slice4iterINtB5_4IterNtNtCscwCr4GBBztI_3syn4path4PathE3newCslvhnBjKo0yW_26wasm_bindgen_macro_support, symObjAddr: 0x52D8, symBinAddr: 0x44124, symSize: 0x58 }
  - { offset: 0x7D42F, size: 0x8, addend: 0x0, symName: __RNvMs4_NtNtCs85QQFkKrybG_4core5slice4iterINtB5_4IterNtNtCsdFlNUEO95cG_5alloc6string6StringE3newCslvhnBjKo0yW_26wasm_bindgen_macro_support, symObjAddr: 0x5330, symBinAddr: 0x4417C, symSize: 0x58 }
  - { offset: 0x7D5D2, size: 0x8, addend: 0x0, symName: __RNvMs4_NtNtCs85QQFkKrybG_4core5slice4iterINtB5_4IterNtNtCslvhnBjKo0yW_26wasm_bindgen_macro_support3ast11StructFieldE3newBS_, symObjAddr: 0x5388, symBinAddr: 0x441D4, symSize: 0x58 }
  - { offset: 0x7D79C, size: 0x8, addend: 0x0, symName: __RNvMs4_NtNtCs85QQFkKrybG_4core5slice4iterINtB5_4IterNtNtCslvhnBjKo0yW_26wasm_bindgen_macro_support3ast12ImportModuleE3newBS_, symObjAddr: 0x53E0, symBinAddr: 0x4422C, symSize: 0x50 }
  - { offset: 0x7D94C, size: 0x8, addend: 0x0, symName: __RNvMs4_NtNtCs85QQFkKrybG_4core5slice4iterINtB5_4IterNtNtCslvhnBjKo0yW_26wasm_bindgen_macro_support3ast20FunctionArgumentDataE3newBS_, symObjAddr: 0x5430, symBinAddr: 0x4427C, symSize: 0x58 }
  - { offset: 0x7DAEF, size: 0x8, addend: 0x0, symName: __RNvMs4_NtNtCs85QQFkKrybG_4core5slice4iterINtB5_4IterNtNtCslvhnBjKo0yW_26wasm_bindgen_macro_support3ast4EnumE3newBS_, symObjAddr: 0x5488, symBinAddr: 0x442D4, symSize: 0x58 }
  - { offset: 0x7DC9F, size: 0x8, addend: 0x0, symName: __RNvMs4_NtNtCs85QQFkKrybG_4core5slice4iterINtB5_4IterNtNtCslvhnBjKo0yW_26wasm_bindgen_macro_support3ast6ExportE3newBS_, symObjAddr: 0x54E0, symBinAddr: 0x4432C, symSize: 0x58 }
  - { offset: 0x7DE4F, size: 0x8, addend: 0x0, symName: __RNvMs4_NtNtCs85QQFkKrybG_4core5slice4iterINtB5_4IterNtNtCslvhnBjKo0yW_26wasm_bindgen_macro_support3ast6ImportE3newBS_, symObjAddr: 0x5538, symBinAddr: 0x44384, symSize: 0x58 }
  - { offset: 0x7DFF2, size: 0x8, addend: 0x0, symName: __RNvMs4_NtNtCs85QQFkKrybG_4core5slice4iterINtB5_4IterNtNtCslvhnBjKo0yW_26wasm_bindgen_macro_support3ast6StructE3newBS_, symObjAddr: 0x5590, symBinAddr: 0x443DC, symSize: 0x58 }
  - { offset: 0x7E195, size: 0x8, addend: 0x0, symName: __RNvMs4_NtNtCs85QQFkKrybG_4core5slice4iterINtB5_4IterNtNtCslvhnBjKo0yW_26wasm_bindgen_macro_support3ast7VariantE3newBS_, symObjAddr: 0x55E8, symBinAddr: 0x44434, symSize: 0x58 }
  - { offset: 0x7E338, size: 0x8, addend: 0x0, symName: __RNvMs4_NtNtCs85QQFkKrybG_4core5slice4iterINtB5_4IterNtNtCslvhnBjKo0yW_26wasm_bindgen_macro_support3ast9LitOrExprE3newBS_, symObjAddr: 0x5640, symBinAddr: 0x4448C, symSize: 0x58 }
  - { offset: 0x7E4DB, size: 0x8, addend: 0x0, symName: __RNvMs4_NtNtCs85QQFkKrybG_4core5slice4iterINtB5_4IterNtNtCslvhnBjKo0yW_26wasm_bindgen_macro_support6encode11EncodeChunkE3newBS_, symObjAddr: 0x5698, symBinAddr: 0x444E4, symSize: 0x58 }
  - { offset: 0x7E6A5, size: 0x8, addend: 0x0, symName: __RNvMs4_NtNtCs85QQFkKrybG_4core5slice4iterINtB5_4IterNtNtCslvhnBjKo0yW_26wasm_bindgen_macro_support6parser11UnusedStateE3newBS_, symObjAddr: 0x56F0, symBinAddr: 0x4453C, symSize: 0x50 }
  - { offset: 0x7E86F, size: 0x8, addend: 0x0, symName: __RNvMs4_NtNtCs85QQFkKrybG_4core5slice4iterINtB5_4IterNtNtCswz7ZwgBZOU_3std4path7PathBufE3newCslvhnBjKo0yW_26wasm_bindgen_macro_support, symObjAddr: 0x5740, symBinAddr: 0x4458C, symSize: 0x58 }
  - { offset: 0x7EA12, size: 0x8, addend: 0x0, symName: __RNvMs4_NtNtCs85QQFkKrybG_4core5slice4iterINtB5_4IterRNtNtCscwCr4GBBztI_3syn2ty4TypeE3newCslvhnBjKo0yW_26wasm_bindgen_macro_support, symObjAddr: 0x5798, symBinAddr: 0x445E4, symSize: 0x50 }
  - { offset: 0x7EBFA, size: 0x8, addend: 0x0, symName: __RNvMs4_NtNtCs85QQFkKrybG_4core5slice4iterINtB5_4IterTINtNtB9_4cell4CellbENtNtCslvhnBjKo0yW_26wasm_bindgen_macro_support6parser11BindgenAttrEE3newB1d_, symObjAddr: 0x57E8, symBinAddr: 0x44634, symSize: 0x58 }
  - { offset: 0x7EDC4, size: 0x8, addend: 0x0, symName: __RNvMs4_NtNtCs85QQFkKrybG_4core5slice4iterINtB5_4ItermE3newCslvhnBjKo0yW_26wasm_bindgen_macro_support, symObjAddr: 0x5840, symBinAddr: 0x4468C, symSize: 0x50 }
  - { offset: 0x7EF8E, size: 0x8, addend: 0x0, symName: __RNvMsa_NtNtCs85QQFkKrybG_4core5slice4iterINtB5_7IterMutNtNtCscwCr4GBBztI_3syn4item8ImplItemE3newCslvhnBjKo0yW_26wasm_bindgen_macro_support, symObjAddr: 0x5890, symBinAddr: 0x446DC, symSize: 0x58 }
  - { offset: 0x7F158, size: 0x8, addend: 0x0, symName: __RNvMsa_NtNtCs85QQFkKrybG_4core5slice4iterINtB5_7IterMutTNtNtCscwCr4GBBztI_3syn2ty4TypeNtNtBW_5token5CommaEE3newCslvhnBjKo0yW_26wasm_bindgen_macro_support, symObjAddr: 0x58E8, symBinAddr: 0x44734, symSize: 0x58 }
  - { offset: 0x7F322, size: 0x8, addend: 0x0, symName: __RNvMsa_NtNtCs85QQFkKrybG_4core5slice4iterINtB5_7IterMutTNtNtCscwCr4GBBztI_3syn2ty9BareFnArgNtNtBW_5token5CommaEE3newCslvhnBjKo0yW_26wasm_bindgen_macro_support, symObjAddr: 0x5940, symBinAddr: 0x4478C, symSize: 0x58 }
  - { offset: 0x7F4EC, size: 0x8, addend: 0x0, symName: __RNvMsa_NtNtCs85QQFkKrybG_4core5slice4iterINtB5_7IterMutTNtNtCscwCr4GBBztI_3syn3pat3PatNtNtBW_5token2OrEE3newCslvhnBjKo0yW_26wasm_bindgen_macro_support, symObjAddr: 0x5998, symBinAddr: 0x447E4, symSize: 0x58 }
  - { offset: 0x7F6B6, size: 0x8, addend: 0x0, symName: __RNvMsa_NtNtCs85QQFkKrybG_4core5slice4iterINtB5_7IterMutTNtNtCscwCr4GBBztI_3syn3pat3PatNtNtBW_5token5CommaEE3newCslvhnBjKo0yW_26wasm_bindgen_macro_support, symObjAddr: 0x59F0, symBinAddr: 0x4483C, symSize: 0x58 }
  - { offset: 0x7F880, size: 0x8, addend: 0x0, symName: __RNvMsa_NtNtCs85QQFkKrybG_4core5slice4iterINtB5_7IterMutTNtNtCscwCr4GBBztI_3syn3pat8FieldPatNtNtBW_5token5CommaEE3newCslvhnBjKo0yW_26wasm_bindgen_macro_support, symObjAddr: 0x5A48, symBinAddr: 0x44894, symSize: 0x58 }
  - { offset: 0x7FA4A, size: 0x8, addend: 0x0, symName: __RNvMsa_NtNtCs85QQFkKrybG_4core5slice4iterINtB5_7IterMutTNtNtCscwCr4GBBztI_3syn4data7VariantNtNtBW_5token5CommaEE3newCslvhnBjKo0yW_26wasm_bindgen_macro_support, symObjAddr: 0x5AA0, symBinAddr: 0x448EC, symSize: 0x58 }
  - { offset: 0x7FC14, size: 0x8, addend: 0x0, symName: __RNvMsa_NtNtCs85QQFkKrybG_4core5slice4iterINtB5_7IterMutTNtNtCscwCr4GBBztI_3syn4expr10FieldValueNtNtBW_5token5CommaEE3newCslvhnBjKo0yW_26wasm_bindgen_macro_support, symObjAddr: 0x5AF8, symBinAddr: 0x44944, symSize: 0x58 }
  - { offset: 0x7FDDE, size: 0x8, addend: 0x0, symName: __RNvMsa_NtNtCs85QQFkKrybG_4core5slice4iterINtB5_7IterMutTNtNtCscwCr4GBBztI_3syn4expr4ExprNtNtBW_5token5CommaEE3newCslvhnBjKo0yW_26wasm_bindgen_macro_support, symObjAddr: 0x5B50, symBinAddr: 0x4499C, symSize: 0x58 }
  - { offset: 0x7FFA8, size: 0x8, addend: 0x0, symName: __RNvMsa_NtNtCs85QQFkKrybG_4core5slice4iterINtB5_7IterMutTNtNtCscwCr4GBBztI_3syn4item5FnArgNtNtBW_5token5CommaEE3newCslvhnBjKo0yW_26wasm_bindgen_macro_support, symObjAddr: 0x5BA8, symBinAddr: 0x449F4, symSize: 0x58 }
  - { offset: 0x80172, size: 0x8, addend: 0x0, symName: __RNvMsa_NtNtCs85QQFkKrybG_4core5slice4iterINtB5_7IterMutTNtNtCscwCr4GBBztI_3syn4item7UseTreeNtNtBW_5token5CommaEE3newCslvhnBjKo0yW_26wasm_bindgen_macro_support, symObjAddr: 0x5C00, symBinAddr: 0x44A4C, symSize: 0x58 }
  - { offset: 0x8033C, size: 0x8, addend: 0x0, symName: __RNvMsa_NtNtCs85QQFkKrybG_4core5slice4iterINtB5_7IterMutTNtNtCscwCr4GBBztI_3syn4path15GenericArgumentNtNtBW_5token5CommaEE3newCslvhnBjKo0yW_26wasm_bindgen_macro_support, symObjAddr: 0x5C58, symBinAddr: 0x44AA4, symSize: 0x58 }
  - { offset: 0x80506, size: 0x8, addend: 0x0, symName: __RNvMsa_NtNtCs85QQFkKrybG_4core5slice4iterINtB5_7IterMutTNtNtCscwCr4GBBztI_3syn8generics13CapturedParamNtNtBW_5token5CommaEE3newCslvhnBjKo0yW_26wasm_bindgen_macro_support, symObjAddr: 0x5CB0, symBinAddr: 0x44AFC, symSize: 0x58 }
  - { offset: 0x806D0, size: 0x8, addend: 0x0, symName: __RNvMsa_NtNtCs85QQFkKrybG_4core5slice4iterINtB5_7IterMutTNtNtCscwCr4GBBztI_3syn8generics14TypeParamBoundNtNtBW_5token4PlusEE3newCslvhnBjKo0yW_26wasm_bindgen_macro_support, symObjAddr: 0x5D08, symBinAddr: 0x44B54, symSize: 0x50 }
  - { offset: 0x8089A, size: 0x8, addend: 0x0, symName: __RNvMsa_NtNtCs85QQFkKrybG_4core5slice4iterINtB5_7IterMutTNtNtCscwCr4GBBztI_3syn8generics14WherePredicateNtNtBW_5token5CommaEE3newCslvhnBjKo0yW_26wasm_bindgen_macro_support, symObjAddr: 0x5D58, symBinAddr: 0x44BA4, symSize: 0x58 }
  - { offset: 0x80A64, size: 0x8, addend: 0x0, symName: __RNvMsa_NtNtCs85QQFkKrybG_4core5slice4iterINtB5_7IterMutTNtNtCscwCr4GBBztI_3syn8lifetime8LifetimeNtNtBW_5token4PlusEE3newCslvhnBjKo0yW_26wasm_bindgen_macro_support, symObjAddr: 0x5DB0, symBinAddr: 0x44BFC, symSize: 0x58 }
  - { offset: 0x82C93, size: 0x8, addend: 0x0, symName: __RNCNCNvMNtCslvhnBjKo0yW_26wasm_bindgen_macro_support6parserNtB6_12BindgenAttrs10check_used00B8_, symObjAddr: 0x0, symBinAddr: 0x47904, symSize: 0x88 }
  - { offset: 0x87A4B, size: 0x8, addend: 0x0, symName: __RNvYNtNCNvNtCslvhnBjKo0yW_26wasm_bindgen_macro_support6parser18function_from_decl011SelfReplaceNtNtNtCscwCr4GBBztI_3syn3gen9visit_mut8VisitMut13visit_abi_mutBa_, symObjAddr: 0x15BC0, symBinAddr: 0x5D4C4, symSize: 0x3C }
  - { offset: 0x87A8A, size: 0x8, addend: 0x0, symName: __RNvYNtNCNvNtCslvhnBjKo0yW_26wasm_bindgen_macro_support6parser18function_from_decl011SelfReplaceNtNtNtCscwCr4GBBztI_3syn3gen9visit_mut8VisitMut13visit_arm_mutBa_, symObjAddr: 0x15BFC, symBinAddr: 0x5D500, symSize: 0x3C }
  - { offset: 0x87AC9, size: 0x8, addend: 0x0, symName: __RNvYNtNCNvNtCslvhnBjKo0yW_26wasm_bindgen_macro_support6parser18function_from_decl011SelfReplaceNtNtNtCscwCr4GBBztI_3syn3gen9visit_mut8VisitMut13visit_lit_mutBa_, symObjAddr: 0x15C38, symBinAddr: 0x5D53C, symSize: 0x3C }
  - { offset: 0x87B0B, size: 0x8, addend: 0x0, symName: __RNvYNtNCNvNtCslvhnBjKo0yW_26wasm_bindgen_macro_support6parser18function_from_decl011SelfReplaceNtNtNtCscwCr4GBBztI_3syn3gen9visit_mut8VisitMut13visit_pat_mutBa_, symObjAddr: 0x15C74, symBinAddr: 0x5D578, symSize: 0x3C }
  - { offset: 0x87B4D, size: 0x8, addend: 0x0, symName: __RNvYNtNCNvNtCslvhnBjKo0yW_26wasm_bindgen_macro_support6parser18function_from_decl011SelfReplaceNtNtNtCscwCr4GBBztI_3syn3gen9visit_mut8VisitMut14visit_expr_mutBa_, symObjAddr: 0x15CB0, symBinAddr: 0x5D5B4, symSize: 0x3C }
  - { offset: 0x87B8C, size: 0x8, addend: 0x0, symName: __RNvYNtNCNvNtCslvhnBjKo0yW_26wasm_bindgen_macro_support6parser18function_from_decl011SelfReplaceNtNtNtCscwCr4GBBztI_3syn3gen9visit_mut8VisitMut14visit_item_mutBa_, symObjAddr: 0x15CEC, symBinAddr: 0x5D5F0, symSize: 0x3C }
  - { offset: 0x87BCE, size: 0x8, addend: 0x0, symName: __RNvYNtNCNvNtCslvhnBjKo0yW_26wasm_bindgen_macro_support6parser18function_from_decl011SelfReplaceNtNtNtCscwCr4GBBztI_3syn3gen9visit_mut8VisitMut14visit_meta_mutBa_, symObjAddr: 0x15D28, symBinAddr: 0x5D62C, symSize: 0x3C }
  - { offset: 0x87C10, size: 0x8, addend: 0x0, symName: __RNvYNtNCNvNtCslvhnBjKo0yW_26wasm_bindgen_macro_support6parser18function_from_decl011SelfReplaceNtNtNtCscwCr4GBBztI_3syn3gen9visit_mut8VisitMut14visit_path_mutBa_, symObjAddr: 0x15D64, symBinAddr: 0x5D668, symSize: 0x3C }
  - { offset: 0x87C52, size: 0x8, addend: 0x0, symName: __RNvYNtNCNvNtCslvhnBjKo0yW_26wasm_bindgen_macro_support6parser18function_from_decl011SelfReplaceNtNtNtCscwCr4GBBztI_3syn3gen9visit_mut8VisitMut14visit_span_mutBa_, symObjAddr: 0x15DA0, symBinAddr: 0x5D6A4, symSize: 0x24 }
  - { offset: 0x87C94, size: 0x8, addend: 0x0, symName: __RNvYNtNCNvNtCslvhnBjKo0yW_26wasm_bindgen_macro_support6parser18function_from_decl011SelfReplaceNtNtNtCscwCr4GBBztI_3syn3gen9visit_mut8VisitMut14visit_stmt_mutBa_, symObjAddr: 0x15DC4, symBinAddr: 0x5D6C8, symSize: 0x3C }
  - { offset: 0x87CD6, size: 0x8, addend: 0x0, symName: __RNvYNtNCNvNtCslvhnBjKo0yW_26wasm_bindgen_macro_support6parser18function_from_decl011SelfReplaceNtNtNtCscwCr4GBBztI_3syn3gen9visit_mut8VisitMut14visit_type_mutBa_, symObjAddr: 0x15E00, symBinAddr: 0x5D704, symSize: 0x3C }
  - { offset: 0x87D18, size: 0x8, addend: 0x0, symName: __RNvYNtNCNvNtCslvhnBjKo0yW_26wasm_bindgen_macro_support6parser18function_from_decl011SelfReplaceNtNtNtCscwCr4GBBztI_3syn3gen9visit_mut8VisitMut15visit_block_mutBa_, symObjAddr: 0x15E3C, symBinAddr: 0x5D740, symSize: 0x3C }
  - { offset: 0x87D57, size: 0x8, addend: 0x0, symName: __RNvYNtNCNvNtCslvhnBjKo0yW_26wasm_bindgen_macro_support6parser18function_from_decl011SelfReplaceNtNtNtCscwCr4GBBztI_3syn3gen9visit_mut8VisitMut15visit_field_mutBa_, symObjAddr: 0x15E78, symBinAddr: 0x5D77C, symSize: 0x3C }
  - { offset: 0x87D99, size: 0x8, addend: 0x0, symName: __RNvYNtNCNvNtCslvhnBjKo0yW_26wasm_bindgen_macro_support6parser18function_from_decl011SelfReplaceNtNtNtCscwCr4GBBztI_3syn3gen9visit_mut8VisitMut15visit_index_mutBa_, symObjAddr: 0x15EB4, symBinAddr: 0x5D7B8, symSize: 0x3C }
  - { offset: 0x87DDB, size: 0x8, addend: 0x0, symName: __RNvYNtNCNvNtCslvhnBjKo0yW_26wasm_bindgen_macro_support6parser18function_from_decl011SelfReplaceNtNtNtCscwCr4GBBztI_3syn3gen9visit_mut8VisitMut15visit_label_mutBa_, symObjAddr: 0x15EF0, symBinAddr: 0x5D7F4, symSize: 0x3C }
  - { offset: 0x87E1D, size: 0x8, addend: 0x0, symName: __RNvYNtNCNvNtCslvhnBjKo0yW_26wasm_bindgen_macro_support6parser18function_from_decl011SelfReplaceNtNtNtCscwCr4GBBztI_3syn3gen9visit_mut8VisitMut15visit_local_mutBa_, symObjAddr: 0x15F2C, symBinAddr: 0x5D830, symSize: 0x3C }
  - { offset: 0x87E5F, size: 0x8, addend: 0x0, symName: __RNvYNtNCNvNtCslvhnBjKo0yW_26wasm_bindgen_macro_support6parser18function_from_decl011SelfReplaceNtNtNtCscwCr4GBBztI_3syn3gen9visit_mut8VisitMut15visit_macro_mutBa_, symObjAddr: 0x15F68, symBinAddr: 0x5D86C, symSize: 0x3C }
  - { offset: 0x87EA1, size: 0x8, addend: 0x0, symName: __RNvYNtNCNvNtCslvhnBjKo0yW_26wasm_bindgen_macro_support6parser18function_from_decl011SelfReplaceNtNtNtCscwCr4GBBztI_3syn3gen9visit_mut8VisitMut15visit_qself_mutBa_, symObjAddr: 0x15FA4, symBinAddr: 0x5D8A8, symSize: 0x3C }
  - { offset: 0x87EE3, size: 0x8, addend: 0x0, symName: __RNvYNtNCNvNtCslvhnBjKo0yW_26wasm_bindgen_macro_support6parser18function_from_decl011SelfReplaceNtNtNtCscwCr4GBBztI_3syn3gen9visit_mut8VisitMut15visit_un_op_mutBa_, symObjAddr: 0x15FE0, symBinAddr: 0x5D8E4, symSize: 0x3C }
  - { offset: 0x87F25, size: 0x8, addend: 0x0, symName: __RNvYNtNCNvNtCslvhnBjKo0yW_26wasm_bindgen_macro_support6parser18function_from_decl011SelfReplaceNtNtNtCscwCr4GBBztI_3syn3gen9visit_mut8VisitMut16visit_bin_op_mutBa_, symObjAddr: 0x1601C, symBinAddr: 0x5D920, symSize: 0x3C }
  - { offset: 0x87F64, size: 0x8, addend: 0x0, symName: __RNvYNtNCNvNtCslvhnBjKo0yW_26wasm_bindgen_macro_support6parser18function_from_decl011SelfReplaceNtNtNtCscwCr4GBBztI_3syn3gen9visit_mut8VisitMut16visit_fields_mutBa_, symObjAddr: 0x16058, symBinAddr: 0x5D95C, symSize: 0x3C }
  - { offset: 0x87FA6, size: 0x8, addend: 0x0, symName: __RNvYNtNCNvNtCslvhnBjKo0yW_26wasm_bindgen_macro_support6parser18function_from_decl011SelfReplaceNtNtNtCscwCr4GBBztI_3syn3gen9visit_mut8VisitMut16visit_fn_arg_mutBa_, symObjAddr: 0x16094, symBinAddr: 0x5D998, symSize: 0x3C }
  - { offset: 0x87FE8, size: 0x8, addend: 0x0, symName: __RNvYNtNCNvNtCslvhnBjKo0yW_26wasm_bindgen_macro_support6parser18function_from_decl011SelfReplaceNtNtNtCscwCr4GBBztI_3syn3gen9visit_mut8VisitMut16visit_member_mutBa_, symObjAddr: 0x160D0, symBinAddr: 0x5D9D4, symSize: 0x3C }
  - { offset: 0x8802A, size: 0x8, addend: 0x0, symName: __RNvYNtNCNvNtCslvhnBjKo0yW_26wasm_bindgen_macro_support6parser18function_from_decl011SelfReplaceNtNtNtCscwCr4GBBztI_3syn3gen9visit_mut8VisitMut16visit_pat_or_mutBa_, symObjAddr: 0x1610C, symBinAddr: 0x5DA10, symSize: 0x3C }
  - { offset: 0x8806C, size: 0x8, addend: 0x0, symName: __RNvYNtNCNvNtCslvhnBjKo0yW_26wasm_bindgen_macro_support6parser18function_from_decl011SelfReplaceNtNtNtCscwCr4GBBztI_3syn3gen9visit_mut8VisitMut17visit_expr_if_mutBa_, symObjAddr: 0x16148, symBinAddr: 0x5DA4C, symSize: 0x3C }
  - { offset: 0x880AB, size: 0x8, addend: 0x0, symName: __RNvYNtNCNvNtCslvhnBjKo0yW_26wasm_bindgen_macro_support6parser18function_from_decl011SelfReplaceNtNtNtCscwCr4GBBztI_3syn3gen9visit_mut8VisitMut17visit_item_fn_mutBa_, symObjAddr: 0x16184, symBinAddr: 0x5DA88, symSize: 0x3C }
  - { offset: 0x880ED, size: 0x8, addend: 0x0, symName: __RNvYNtNCNvNtCslvhnBjKo0yW_26wasm_bindgen_macro_support6parser18function_from_decl011SelfReplaceNtNtNtCscwCr4GBBztI_3syn3gen9visit_mut8VisitMut17visit_lit_int_mutBa_, symObjAddr: 0x161C0, symBinAddr: 0x5DAC4, symSize: 0x3C }
  - { offset: 0x8812F, size: 0x8, addend: 0x0, symName: __RNvYNtNCNvNtCslvhnBjKo0yW_26wasm_bindgen_macro_support6parser18function_from_decl011SelfReplaceNtNtNtCscwCr4GBBztI_3syn3gen9visit_mut8VisitMut17visit_lit_str_mutBa_, symObjAddr: 0x161FC, symBinAddr: 0x5DB00, symSize: 0x3C }
  - { offset: 0x88171, size: 0x8, addend: 0x0, symName: __RNvYNtNCNvNtCslvhnBjKo0yW_26wasm_bindgen_macro_support6parser18function_from_decl011SelfReplaceNtNtNtCscwCr4GBBztI_3syn3gen9visit_mut8VisitMut17visit_variant_mutBa_, symObjAddr: 0x16238, symBinAddr: 0x5DB3C, symSize: 0x3C }
  - { offset: 0x881B3, size: 0x8, addend: 0x0, symName: __RNvYNtNCNvNtCslvhnBjKo0yW_26wasm_bindgen_macro_support6parser18function_from_decl011SelfReplaceNtNtNtCscwCr4GBBztI_3syn3gen9visit_mut8VisitMut18visit_expr_let_mutBa_, symObjAddr: 0x16274, symBinAddr: 0x5DB78, symSize: 0x3C }
  - { offset: 0x881F2, size: 0x8, addend: 0x0, symName: __RNvYNtNCNvNtCslvhnBjKo0yW_26wasm_bindgen_macro_support6parser18function_from_decl011SelfReplaceNtNtNtCscwCr4GBBztI_3syn3gen9visit_mut8VisitMut18visit_expr_lit_mutBa_, symObjAddr: 0x162B0, symBinAddr: 0x5DBB4, symSize: 0x3C }
  - { offset: 0x88231, size: 0x8, addend: 0x0, symName: __RNvYNtNCNvNtCslvhnBjKo0yW_26wasm_bindgen_macro_support6parser18function_from_decl011SelfReplaceNtNtNtCscwCr4GBBztI_3syn3gen9visit_mut8VisitMut18visit_expr_try_mutBa_, symObjAddr: 0x162EC, symBinAddr: 0x5DBF0, symSize: 0x3C }
  - { offset: 0x88273, size: 0x8, addend: 0x0, symName: __RNvYNtNCNvNtCslvhnBjKo0yW_26wasm_bindgen_macro_support6parser18function_from_decl011SelfReplaceNtNtNtCscwCr4GBBztI_3syn3gen9visit_mut8VisitMut18visit_generics_mutBa_, symObjAddr: 0x16328, symBinAddr: 0x5DC2C, symSize: 0x3C }
  - { offset: 0x882B5, size: 0x8, addend: 0x0, symName: __RNvYNtNCNvNtCslvhnBjKo0yW_26wasm_bindgen_macro_support6parser18function_from_decl011SelfReplaceNtNtNtCscwCr4GBBztI_3syn3gen9visit_mut8VisitMut18visit_item_mod_mutBa_, symObjAddr: 0x16364, symBinAddr: 0x5DC68, symSize: 0x3C }
  - { offset: 0x882F7, size: 0x8, addend: 0x0, symName: __RNvYNtNCNvNtCslvhnBjKo0yW_26wasm_bindgen_macro_support6parser18function_from_decl011SelfReplaceNtNtNtCscwCr4GBBztI_3syn3gen9visit_mut8VisitMut18visit_item_use_mutBa_, symObjAddr: 0x163A0, symBinAddr: 0x5DCA4, symSize: 0x3C }
  - { offset: 0x88339, size: 0x8, addend: 0x0, symName: __RNvYNtNCNvNtCslvhnBjKo0yW_26wasm_bindgen_macro_support6parser18function_from_decl011SelfReplaceNtNtNtCscwCr4GBBztI_3syn3gen9visit_mut8VisitMut18visit_lifetime_mutBa_, symObjAddr: 0x163DC, symBinAddr: 0x5DCE0, symSize: 0x3C }
  - { offset: 0x8837B, size: 0x8, addend: 0x0, symName: __RNvYNtNCNvNtCslvhnBjKo0yW_26wasm_bindgen_macro_support6parser18function_from_decl011SelfReplaceNtNtNtCscwCr4GBBztI_3syn3gen9visit_mut8VisitMut18visit_lit_bool_mutBa_, symObjAddr: 0x16418, symBinAddr: 0x5DD1C, symSize: 0x3C }
  - { offset: 0x883BD, size: 0x8, addend: 0x0, symName: __RNvYNtNCNvNtCslvhnBjKo0yW_26wasm_bindgen_macro_support6parser18function_from_decl011SelfReplaceNtNtNtCscwCr4GBBztI_3syn3gen9visit_mut8VisitMut18visit_lit_byte_mutBa_, symObjAddr: 0x16454, symBinAddr: 0x5DD58, symSize: 0x3C }
  - { offset: 0x883FF, size: 0x8, addend: 0x0, symName: __RNvYNtNCNvNtCslvhnBjKo0yW_26wasm_bindgen_macro_support6parser18function_from_decl011SelfReplaceNtNtNtCscwCr4GBBztI_3syn3gen9visit_mut8VisitMut18visit_lit_char_mutBa_, symObjAddr: 0x16490, symBinAddr: 0x5DD94, symSize: 0x3C }
  - { offset: 0x88441, size: 0x8, addend: 0x0, symName: __RNvYNtNCNvNtCslvhnBjKo0yW_26wasm_bindgen_macro_support6parser18function_from_decl011SelfReplaceNtNtNtCscwCr4GBBztI_3syn3gen9visit_mut8VisitMut18visit_lit_cstr_mutBa_, symObjAddr: 0x164CC, symBinAddr: 0x5DDD0, symSize: 0x3C }
  - { offset: 0x88483, size: 0x8, addend: 0x0, symName: __RNvYNtNCNvNtCslvhnBjKo0yW_26wasm_bindgen_macro_support6parser18function_from_decl011SelfReplaceNtNtNtCscwCr4GBBztI_3syn3gen9visit_mut8VisitMut18visit_pat_rest_mutBa_, symObjAddr: 0x16508, symBinAddr: 0x5DE0C, symSize: 0x3C }
  - { offset: 0x884C5, size: 0x8, addend: 0x0, symName: __RNvYNtNCNvNtCslvhnBjKo0yW_26wasm_bindgen_macro_support6parser18function_from_decl011SelfReplaceNtNtNtCscwCr4GBBztI_3syn3gen9visit_mut8VisitMut18visit_pat_type_mutBa_, symObjAddr: 0x16544, symBinAddr: 0x5DE48, symSize: 0x3C }
  - { offset: 0x88507, size: 0x8, addend: 0x0, symName: __RNvYNtNCNvNtCslvhnBjKo0yW_26wasm_bindgen_macro_support6parser18function_from_decl011SelfReplaceNtNtNtCscwCr4GBBztI_3syn3gen9visit_mut8VisitMut18visit_pat_wild_mutBa_, symObjAddr: 0x16580, symBinAddr: 0x5DE84, symSize: 0x3C }
  - { offset: 0x88549, size: 0x8, addend: 0x0, symName: __RNvYNtNCNvNtCslvhnBjKo0yW_26wasm_bindgen_macro_support6parser18function_from_decl011SelfReplaceNtNtNtCscwCr4GBBztI_3syn3gen9visit_mut8VisitMut18visit_receiver_mutBa_, symObjAddr: 0x165BC, symBinAddr: 0x5DEC0, symSize: 0x3C }
  - { offset: 0x8858B, size: 0x8, addend: 0x0, symName: __RNvYNtNCNvNtCslvhnBjKo0yW_26wasm_bindgen_macro_support6parser18function_from_decl011SelfReplaceNtNtNtCscwCr4GBBztI_3syn3gen9visit_mut8VisitMut18visit_type_ptr_mutBa_, symObjAddr: 0x165F8, symBinAddr: 0x5DEFC, symSize: 0x3C }
  - { offset: 0x885CD, size: 0x8, addend: 0x0, symName: __RNvYNtNCNvNtCslvhnBjKo0yW_26wasm_bindgen_macro_support6parser18function_from_decl011SelfReplaceNtNtNtCscwCr4GBBztI_3syn3gen9visit_mut8VisitMut18visit_use_glob_mutBa_, symObjAddr: 0x16634, symBinAddr: 0x5DF38, symSize: 0x3C }
  - { offset: 0x8860F, size: 0x8, addend: 0x0, symName: __RNvYNtNCNvNtCslvhnBjKo0yW_26wasm_bindgen_macro_support6parser18function_from_decl011SelfReplaceNtNtNtCscwCr4GBBztI_3syn3gen9visit_mut8VisitMut18visit_use_name_mutBa_, symObjAddr: 0x16670, symBinAddr: 0x5DF74, symSize: 0x3C }
  - { offset: 0x88651, size: 0x8, addend: 0x0, symName: __RNvYNtNCNvNtCslvhnBjKo0yW_26wasm_bindgen_macro_support6parser18function_from_decl011SelfReplaceNtNtNtCscwCr4GBBztI_3syn3gen9visit_mut8VisitMut18visit_use_path_mutBa_, symObjAddr: 0x166AC, symBinAddr: 0x5DFB0, symSize: 0x3C }
  - { offset: 0x88693, size: 0x8, addend: 0x0, symName: __RNvYNtNCNvNtCslvhnBjKo0yW_26wasm_bindgen_macro_support6parser18function_from_decl011SelfReplaceNtNtNtCscwCr4GBBztI_3syn3gen9visit_mut8VisitMut18visit_use_tree_mutBa_, symObjAddr: 0x166E8, symBinAddr: 0x5DFEC, symSize: 0x3C }
  - { offset: 0x886D5, size: 0x8, addend: 0x0, symName: __RNvYNtNCNvNtCslvhnBjKo0yW_26wasm_bindgen_macro_support6parser18function_from_decl011SelfReplaceNtNtNtCscwCr4GBBztI_3syn3gen9visit_mut8VisitMut18visit_variadic_mutBa_, symObjAddr: 0x16724, symBinAddr: 0x5E028, symSize: 0x3C }
  - { offset: 0x88717, size: 0x8, addend: 0x0, symName: __RNvYNtNCNvNtCslvhnBjKo0yW_26wasm_bindgen_macro_support6parser18function_from_decl011SelfReplaceNtNtNtCscwCr4GBBztI_3syn3gen9visit_mut8VisitMut19visit_attribute_mutBa_, symObjAddr: 0x16760, symBinAddr: 0x5E064, symSize: 0x3C }
  - { offset: 0x88756, size: 0x8, addend: 0x0, symName: __RNvYNtNCNvNtCslvhnBjKo0yW_26wasm_bindgen_macro_support6parser18function_from_decl011SelfReplaceNtNtNtCscwCr4GBBztI_3syn3gen9visit_mut8VisitMut19visit_expr_call_mutBa_, symObjAddr: 0x1679C, symBinAddr: 0x5E0A0, symSize: 0x3C }
  - { offset: 0x88795, size: 0x8, addend: 0x0, symName: __RNvYNtNCNvNtCslvhnBjKo0yW_26wasm_bindgen_macro_support6parser18function_from_decl011SelfReplaceNtNtNtCscwCr4GBBztI_3syn3gen9visit_mut8VisitMut19visit_expr_cast_mutBa_, symObjAddr: 0x167D8, symBinAddr: 0x5E0DC, symSize: 0x3C }
  - { offset: 0x887D4, size: 0x8, addend: 0x0, symName: __RNvYNtNCNvNtCslvhnBjKo0yW_26wasm_bindgen_macro_support6parser18function_from_decl011SelfReplaceNtNtNtCscwCr4GBBztI_3syn3gen9visit_mut8VisitMut19visit_expr_loop_mutBa_, symObjAddr: 0x16814, symBinAddr: 0x5E118, symSize: 0x3C }
  - { offset: 0x88813, size: 0x8, addend: 0x0, symName: __RNvYNtNCNvNtCslvhnBjKo0yW_26wasm_bindgen_macro_support6parser18function_from_decl011SelfReplaceNtNtNtCscwCr4GBBztI_3syn3gen9visit_mut8VisitMut19visit_expr_path_mutBa_, symObjAddr: 0x16850, symBinAddr: 0x5E154, symSize: 0x3C }
  - { offset: 0x88855, size: 0x8, addend: 0x0, symName: __RNvYNtNCNvNtCslvhnBjKo0yW_26wasm_bindgen_macro_support6parser18function_from_decl011SelfReplaceNtNtNtCscwCr4GBBztI_3syn3gen9visit_mut8VisitMut19visit_field_pat_mutBa_, symObjAddr: 0x1688C, symBinAddr: 0x5E190, symSize: 0x3C }
  - { offset: 0x88897, size: 0x8, addend: 0x0, symName: __RNvYNtNCNvNtCslvhnBjKo0yW_26wasm_bindgen_macro_support6parser18function_from_decl011SelfReplaceNtNtNtCscwCr4GBBztI_3syn3gen9visit_mut8VisitMut19visit_impl_item_mutBa_, symObjAddr: 0x168C8, symBinAddr: 0x5E1CC, symSize: 0x3C }
  - { offset: 0x888D9, size: 0x8, addend: 0x0, symName: __RNvYNtNCNvNtCslvhnBjKo0yW_26wasm_bindgen_macro_support6parser18function_from_decl011SelfReplaceNtNtNtCscwCr4GBBztI_3syn3gen9visit_mut8VisitMut19visit_item_enum_mutBa_, symObjAddr: 0x16904, symBinAddr: 0x5E208, symSize: 0x3C }
  - { offset: 0x8891B, size: 0x8, addend: 0x0, symName: __RNvYNtNCNvNtCslvhnBjKo0yW_26wasm_bindgen_macro_support6parser18function_from_decl011SelfReplaceNtNtNtCscwCr4GBBztI_3syn3gen9visit_mut8VisitMut19visit_item_impl_mutBa_, symObjAddr: 0x16940, symBinAddr: 0x5E244, symSize: 0x3C }
  - { offset: 0x8895D, size: 0x8, addend: 0x0, symName: __RNvYNtNCNvNtCslvhnBjKo0yW_26wasm_bindgen_macro_support6parser18function_from_decl011SelfReplaceNtNtNtCscwCr4GBBztI_3syn3gen9visit_mut8VisitMut19visit_item_type_mutBa_, symObjAddr: 0x1697C, symBinAddr: 0x5E280, symSize: 0x3C }
  - { offset: 0x8899F, size: 0x8, addend: 0x0, symName: __RNvYNtNCNvNtCslvhnBjKo0yW_26wasm_bindgen_macro_support6parser18function_from_decl011SelfReplaceNtNtNtCscwCr4GBBztI_3syn3gen9visit_mut8VisitMut19visit_lit_float_mutBa_, symObjAddr: 0x169B8, symBinAddr: 0x5E2BC, symSize: 0x3C }
  - { offset: 0x889E1, size: 0x8, addend: 0x0, symName: __RNvYNtNCNvNtCslvhnBjKo0yW_26wasm_bindgen_macro_support6parser18function_from_decl011SelfReplaceNtNtNtCscwCr4GBBztI_3syn3gen9visit_mut8VisitMut19visit_meta_list_mutBa_, symObjAddr: 0x169F4, symBinAddr: 0x5E2F8, symSize: 0x3C }
  - { offset: 0x88A23, size: 0x8, addend: 0x0, symName: __RNvYNtNCNvNtCslvhnBjKo0yW_26wasm_bindgen_macro_support6parser18function_from_decl011SelfReplaceNtNtNtCscwCr4GBBztI_3syn3gen9visit_mut8VisitMut19visit_pat_ident_mutBa_, symObjAddr: 0x16A30, symBinAddr: 0x5E334, symSize: 0x3C }
  - { offset: 0x88A65, size: 0x8, addend: 0x0, symName: __RNvYNtNCNvNtCslvhnBjKo0yW_26wasm_bindgen_macro_support6parser18function_from_decl011SelfReplaceNtNtNtCscwCr4GBBztI_3syn3gen9visit_mut8VisitMut19visit_pat_paren_mutBa_, symObjAddr: 0x16A6C, symBinAddr: 0x5E370, symSize: 0x3C }
  - { offset: 0x88AA7, size: 0x8, addend: 0x0, symName: __RNvYNtNCNvNtCslvhnBjKo0yW_26wasm_bindgen_macro_support6parser18function_from_decl011SelfReplaceNtNtNtCscwCr4GBBztI_3syn3gen9visit_mut8VisitMut19visit_pat_slice_mutBa_, symObjAddr: 0x16AA8, symBinAddr: 0x5E3AC, symSize: 0x3C }
  - { offset: 0x88AE9, size: 0x8, addend: 0x0, symName: __RNvYNtNCNvNtCslvhnBjKo0yW_26wasm_bindgen_macro_support6parser18function_from_decl011SelfReplaceNtNtNtCscwCr4GBBztI_3syn3gen9visit_mut8VisitMut19visit_pat_tuple_mutBa_, symObjAddr: 0x16AE4, symBinAddr: 0x5E3E8, symSize: 0x3C }
  - { offset: 0x88B2B, size: 0x8, addend: 0x0, symName: __RNvYNtNCNvNtCslvhnBjKo0yW_26wasm_bindgen_macro_support6parser18function_from_decl011SelfReplaceNtNtNtCscwCr4GBBztI_3syn3gen9visit_mut8VisitMut19visit_signature_mutBa_, symObjAddr: 0x16B20, symBinAddr: 0x5E424, symSize: 0x3C }
  - { offset: 0x88B6D, size: 0x8, addend: 0x0, symName: __RNvYNtNCNvNtCslvhnBjKo0yW_26wasm_bindgen_macro_support6parser18function_from_decl011SelfReplaceNtNtNtCscwCr4GBBztI_3syn3gen9visit_mut8VisitMut19visit_type_path_mutBa_, symObjAddr: 0x16B5C, symBinAddr: 0x5E460, symSize: 0x3C }
  - { offset: 0x88BAF, size: 0x8, addend: 0x0, symName: __RNvYNtNCNvNtCslvhnBjKo0yW_26wasm_bindgen_macro_support6parser18function_from_decl011SelfReplaceNtNtNtCscwCr4GBBztI_3syn3gen9visit_mut8VisitMut19visit_use_group_mutBa_, symObjAddr: 0x16B98, symBinAddr: 0x5E49C, symSize: 0x3C }
  - { offset: 0x88BF1, size: 0x8, addend: 0x0, symName: __RNvYNtNCNvNtCslvhnBjKo0yW_26wasm_bindgen_macro_support6parser18function_from_decl011SelfReplaceNtNtNtCscwCr4GBBztI_3syn3gen9visit_mut8VisitMut20visit_assoc_type_mutBa_, symObjAddr: 0x16BD4, symBinAddr: 0x5E4D8, symSize: 0x3C }
  - { offset: 0x88C30, size: 0x8, addend: 0x0, symName: __RNvYNtNCNvNtCslvhnBjKo0yW_26wasm_bindgen_macro_support6parser18function_from_decl011SelfReplaceNtNtNtCscwCr4GBBztI_3syn3gen9visit_mut8VisitMut20visit_attr_style_mutBa_, symObjAddr: 0x16C10, symBinAddr: 0x5E514, symSize: 0x3C }
  - { offset: 0x88C6F, size: 0x8, addend: 0x0, symName: __RNvYNtNCNvNtCslvhnBjKo0yW_26wasm_bindgen_macro_support6parser18function_from_decl011SelfReplaceNtNtNtCscwCr4GBBztI_3syn3gen9visit_mut8VisitMut20visit_attributes_mutBa_, symObjAddr: 0x16C4C, symBinAddr: 0x5E550, symSize: 0x98 }
  - { offset: 0x88CE8, size: 0x8, addend: 0x0, symName: __RNvYNtNCNvNtCslvhnBjKo0yW_26wasm_bindgen_macro_support6parser18function_from_decl011SelfReplaceNtNtNtCscwCr4GBBztI_3syn3gen9visit_mut8VisitMut20visit_constraint_mutBa_, symObjAddr: 0x16CE4, symBinAddr: 0x5E5E8, symSize: 0x3C }
  - { offset: 0x88D27, size: 0x8, addend: 0x0, symName: __RNvYNtNCNvNtCslvhnBjKo0yW_26wasm_bindgen_macro_support6parser18function_from_decl011SelfReplaceNtNtNtCscwCr4GBBztI_3syn3gen9visit_mut8VisitMut20visit_expr_array_mutBa_, symObjAddr: 0x16D20, symBinAddr: 0x5E624, symSize: 0x3C }
  - { offset: 0x88D66, size: 0x8, addend: 0x0, symName: __RNvYNtNCNvNtCslvhnBjKo0yW_26wasm_bindgen_macro_support6parser18function_from_decl011SelfReplaceNtNtNtCscwCr4GBBztI_3syn3gen9visit_mut8VisitMut20visit_expr_async_mutBa_, symObjAddr: 0x16D5C, symBinAddr: 0x5E660, symSize: 0x3C }
  - { offset: 0x88DA5, size: 0x8, addend: 0x0, symName: __RNvYNtNCNvNtCslvhnBjKo0yW_26wasm_bindgen_macro_support6parser18function_from_decl011SelfReplaceNtNtNtCscwCr4GBBztI_3syn3gen9visit_mut8VisitMut20visit_expr_await_mutBa_, symObjAddr: 0x16D98, symBinAddr: 0x5E69C, symSize: 0x3C }
  - { offset: 0x88DE4, size: 0x8, addend: 0x0, symName: __RNvYNtNCNvNtCslvhnBjKo0yW_26wasm_bindgen_macro_support6parser18function_from_decl011SelfReplaceNtNtNtCscwCr4GBBztI_3syn3gen9visit_mut8VisitMut20visit_expr_block_mutBa_, symObjAddr: 0x16DD4, symBinAddr: 0x5E6D8, symSize: 0x3C }
  - { offset: 0x88E23, size: 0x8, addend: 0x0, symName: __RNvYNtNCNvNtCslvhnBjKo0yW_26wasm_bindgen_macro_support6parser18function_from_decl011SelfReplaceNtNtNtCscwCr4GBBztI_3syn3gen9visit_mut8VisitMut20visit_expr_break_mutBa_, symObjAddr: 0x16E10, symBinAddr: 0x5E714, symSize: 0x3C }
  - { offset: 0x88E62, size: 0x8, addend: 0x0, symName: __RNvYNtNCNvNtCslvhnBjKo0yW_26wasm_bindgen_macro_support6parser18function_from_decl011SelfReplaceNtNtNtCscwCr4GBBztI_3syn3gen9visit_mut8VisitMut20visit_expr_const_mutBa_, symObjAddr: 0x16E4C, symBinAddr: 0x5E750, symSize: 0x3C }
  - { offset: 0x88EA1, size: 0x8, addend: 0x0, symName: __RNvYNtNCNvNtCslvhnBjKo0yW_26wasm_bindgen_macro_support6parser18function_from_decl011SelfReplaceNtNtNtCscwCr4GBBztI_3syn3gen9visit_mut8VisitMut20visit_expr_field_mutBa_, symObjAddr: 0x16E88, symBinAddr: 0x5E78C, symSize: 0x3C }
  - { offset: 0x88EE0, size: 0x8, addend: 0x0, symName: __RNvYNtNCNvNtCslvhnBjKo0yW_26wasm_bindgen_macro_support6parser18function_from_decl011SelfReplaceNtNtNtCscwCr4GBBztI_3syn3gen9visit_mut8VisitMut20visit_expr_group_mutBa_, symObjAddr: 0x16EC4, symBinAddr: 0x5E7C8, symSize: 0x3C }
  - { offset: 0x88F1F, size: 0x8, addend: 0x0, symName: __RNvYNtNCNvNtCslvhnBjKo0yW_26wasm_bindgen_macro_support6parser18function_from_decl011SelfReplaceNtNtNtCscwCr4GBBztI_3syn3gen9visit_mut8VisitMut20visit_expr_index_mutBa_, symObjAddr: 0x16F00, symBinAddr: 0x5E804, symSize: 0x3C }
  - { offset: 0x88F5E, size: 0x8, addend: 0x0, symName: __RNvYNtNCNvNtCslvhnBjKo0yW_26wasm_bindgen_macro_support6parser18function_from_decl011SelfReplaceNtNtNtCscwCr4GBBztI_3syn3gen9visit_mut8VisitMut20visit_expr_infer_mutBa_, symObjAddr: 0x16F3C, symBinAddr: 0x5E840, symSize: 0x3C }
  - { offset: 0x88F9D, size: 0x8, addend: 0x0, symName: __RNvYNtNCNvNtCslvhnBjKo0yW_26wasm_bindgen_macro_support6parser18function_from_decl011SelfReplaceNtNtNtCscwCr4GBBztI_3syn3gen9visit_mut8VisitMut20visit_expr_macro_mutBa_, symObjAddr: 0x16F78, symBinAddr: 0x5E87C, symSize: 0x3C }
  - { offset: 0x88FDC, size: 0x8, addend: 0x0, symName: __RNvYNtNCNvNtCslvhnBjKo0yW_26wasm_bindgen_macro_support6parser18function_from_decl011SelfReplaceNtNtNtCscwCr4GBBztI_3syn3gen9visit_mut8VisitMut20visit_expr_match_mutBa_, symObjAddr: 0x16FB4, symBinAddr: 0x5E8B8, symSize: 0x3C }
  - { offset: 0x8901E, size: 0x8, addend: 0x0, symName: __RNvYNtNCNvNtCslvhnBjKo0yW_26wasm_bindgen_macro_support6parser18function_from_decl011SelfReplaceNtNtNtCscwCr4GBBztI_3syn3gen9visit_mut8VisitMut20visit_expr_paren_mutBa_, symObjAddr: 0x16FF0, symBinAddr: 0x5E8F4, symSize: 0x3C }
  - { offset: 0x89060, size: 0x8, addend: 0x0, symName: __RNvYNtNCNvNtCslvhnBjKo0yW_26wasm_bindgen_macro_support6parser18function_from_decl011SelfReplaceNtNtNtCscwCr4GBBztI_3syn3gen9visit_mut8VisitMut20visit_expr_range_mutBa_, symObjAddr: 0x1702C, symBinAddr: 0x5E930, symSize: 0x3C }
  - { offset: 0x890A2, size: 0x8, addend: 0x0, symName: __RNvYNtNCNvNtCslvhnBjKo0yW_26wasm_bindgen_macro_support6parser18function_from_decl011SelfReplaceNtNtNtCscwCr4GBBztI_3syn3gen9visit_mut8VisitMut20visit_expr_tuple_mutBa_, symObjAddr: 0x17068, symBinAddr: 0x5E96C, symSize: 0x3C }
  - { offset: 0x890E4, size: 0x8, addend: 0x0, symName: __RNvYNtNCNvNtCslvhnBjKo0yW_26wasm_bindgen_macro_support6parser18function_from_decl011SelfReplaceNtNtNtCscwCr4GBBztI_3syn3gen9visit_mut8VisitMut20visit_expr_unary_mutBa_, symObjAddr: 0x170A4, symBinAddr: 0x5E9A8, symSize: 0x3C }
  - { offset: 0x89126, size: 0x8, addend: 0x0, symName: __RNvYNtNCNvNtCslvhnBjKo0yW_26wasm_bindgen_macro_support6parser18function_from_decl011SelfReplaceNtNtNtCscwCr4GBBztI_3syn3gen9visit_mut8VisitMut20visit_expr_while_mutBa_, symObjAddr: 0x170E0, symBinAddr: 0x5E9E4, symSize: 0x3C }
  - { offset: 0x89168, size: 0x8, addend: 0x0, symName: __RNvYNtNCNvNtCslvhnBjKo0yW_26wasm_bindgen_macro_support6parser18function_from_decl011SelfReplaceNtNtNtCscwCr4GBBztI_3syn3gen9visit_mut8VisitMut20visit_expr_yield_mutBa_, symObjAddr: 0x1711C, symBinAddr: 0x5EA20, symSize: 0x3C }
  - { offset: 0x891AA, size: 0x8, addend: 0x0, symName: __RNvYNtNCNvNtCslvhnBjKo0yW_26wasm_bindgen_macro_support6parser18function_from_decl011SelfReplaceNtNtNtCscwCr4GBBztI_3syn3gen9visit_mut8VisitMut20visit_item_const_mutBa_, symObjAddr: 0x17158, symBinAddr: 0x5EA5C, symSize: 0x3C }
  - { offset: 0x891EC, size: 0x8, addend: 0x0, symName: __RNvYNtNCNvNtCslvhnBjKo0yW_26wasm_bindgen_macro_support6parser18function_from_decl011SelfReplaceNtNtNtCscwCr4GBBztI_3syn3gen9visit_mut8VisitMut20visit_item_macro_mutBa_, symObjAddr: 0x17194, symBinAddr: 0x5EA98, symSize: 0x3C }
  - { offset: 0x8922E, size: 0x8, addend: 0x0, symName: __RNvYNtNCNvNtCslvhnBjKo0yW_26wasm_bindgen_macro_support6parser18function_from_decl011SelfReplaceNtNtNtCscwCr4GBBztI_3syn3gen9visit_mut8VisitMut20visit_item_trait_mutBa_, symObjAddr: 0x171D0, symBinAddr: 0x5EAD4, symSize: 0x3C }
  - { offset: 0x89270, size: 0x8, addend: 0x0, symName: __RNvYNtNCNvNtCslvhnBjKo0yW_26wasm_bindgen_macro_support6parser18function_from_decl011SelfReplaceNtNtNtCscwCr4GBBztI_3syn3gen9visit_mut8VisitMut20visit_item_union_mutBa_, symObjAddr: 0x1720C, symBinAddr: 0x5EB10, symSize: 0x3C }
  - { offset: 0x892B2, size: 0x8, addend: 0x0, symName: __RNvYNtNCNvNtCslvhnBjKo0yW_26wasm_bindgen_macro_support6parser18function_from_decl011SelfReplaceNtNtNtCscwCr4GBBztI_3syn3gen9visit_mut8VisitMut20visit_local_init_mutBa_, symObjAddr: 0x17248, symBinAddr: 0x5EB4C, symSize: 0x3C }
  - { offset: 0x892F4, size: 0x8, addend: 0x0, symName: __RNvYNtNCNvNtCslvhnBjKo0yW_26wasm_bindgen_macro_support6parser18function_from_decl011SelfReplaceNtNtNtCscwCr4GBBztI_3syn3gen9visit_mut8VisitMut20visit_pat_struct_mutBa_, symObjAddr: 0x17284, symBinAddr: 0x5EB88, symSize: 0x3C }
  - { offset: 0x89336, size: 0x8, addend: 0x0, symName: __RNvYNtNCNvNtCslvhnBjKo0yW_26wasm_bindgen_macro_support6parser18function_from_decl011SelfReplaceNtNtNtCscwCr4GBBztI_3syn3gen9visit_mut8VisitMut20visit_stmt_macro_mutBa_, symObjAddr: 0x172C0, symBinAddr: 0x5EBC4, symSize: 0x3C }
  - { offset: 0x89378, size: 0x8, addend: 0x0, symName: __RNvYNtNCNvNtCslvhnBjKo0yW_26wasm_bindgen_macro_support6parser18function_from_decl011SelfReplaceNtNtNtCscwCr4GBBztI_3syn3gen9visit_mut8VisitMut20visit_trait_item_mutBa_, symObjAddr: 0x172FC, symBinAddr: 0x5EC00, symSize: 0x3C }
  - { offset: 0x893BA, size: 0x8, addend: 0x0, symName: __RNvYNtNCNvNtCslvhnBjKo0yW_26wasm_bindgen_macro_support6parser18function_from_decl011SelfReplaceNtNtNtCscwCr4GBBztI_3syn3gen9visit_mut8VisitMut20visit_type_array_mutBa_, symObjAddr: 0x17338, symBinAddr: 0x5EC3C, symSize: 0x3C }
  - { offset: 0x893FC, size: 0x8, addend: 0x0, symName: __RNvYNtNCNvNtCslvhnBjKo0yW_26wasm_bindgen_macro_support6parser18function_from_decl011SelfReplaceNtNtNtCscwCr4GBBztI_3syn3gen9visit_mut8VisitMut20visit_type_group_mutBa_, symObjAddr: 0x17374, symBinAddr: 0x5EC78, symSize: 0x3C }
  - { offset: 0x8943E, size: 0x8, addend: 0x0, symName: __RNvYNtNCNvNtCslvhnBjKo0yW_26wasm_bindgen_macro_support6parser18function_from_decl011SelfReplaceNtNtNtCscwCr4GBBztI_3syn3gen9visit_mut8VisitMut20visit_type_infer_mutBa_, symObjAddr: 0x173B0, symBinAddr: 0x5ECB4, symSize: 0x3C }
  - { offset: 0x89480, size: 0x8, addend: 0x0, symName: __RNvYNtNCNvNtCslvhnBjKo0yW_26wasm_bindgen_macro_support6parser18function_from_decl011SelfReplaceNtNtNtCscwCr4GBBztI_3syn3gen9visit_mut8VisitMut20visit_type_macro_mutBa_, symObjAddr: 0x173EC, symBinAddr: 0x5ECF0, symSize: 0x3C }
  - { offset: 0x894C2, size: 0x8, addend: 0x0, symName: __RNvYNtNCNvNtCslvhnBjKo0yW_26wasm_bindgen_macro_support6parser18function_from_decl011SelfReplaceNtNtNtCscwCr4GBBztI_3syn3gen9visit_mut8VisitMut20visit_type_never_mutBa_, symObjAddr: 0x17428, symBinAddr: 0x5ED2C, symSize: 0x3C }
  - { offset: 0x89504, size: 0x8, addend: 0x0, symName: __RNvYNtNCNvNtCslvhnBjKo0yW_26wasm_bindgen_macro_support6parser18function_from_decl011SelfReplaceNtNtNtCscwCr4GBBztI_3syn3gen9visit_mut8VisitMut20visit_type_param_mutBa_, symObjAddr: 0x17464, symBinAddr: 0x5ED68, symSize: 0x3C }
  - { offset: 0x89546, size: 0x8, addend: 0x0, symName: __RNvYNtNCNvNtCslvhnBjKo0yW_26wasm_bindgen_macro_support6parser18function_from_decl011SelfReplaceNtNtNtCscwCr4GBBztI_3syn3gen9visit_mut8VisitMut20visit_type_paren_mutBa_, symObjAddr: 0x174A0, symBinAddr: 0x5EDA4, symSize: 0x3C }
  - { offset: 0x89588, size: 0x8, addend: 0x0, symName: __RNvYNtNCNvNtCslvhnBjKo0yW_26wasm_bindgen_macro_support6parser18function_from_decl011SelfReplaceNtNtNtCscwCr4GBBztI_3syn3gen9visit_mut8VisitMut20visit_type_slice_mutBa_, symObjAddr: 0x174DC, symBinAddr: 0x5EDE0, symSize: 0x3C }
  - { offset: 0x895CA, size: 0x8, addend: 0x0, symName: __RNvYNtNCNvNtCslvhnBjKo0yW_26wasm_bindgen_macro_support6parser18function_from_decl011SelfReplaceNtNtNtCscwCr4GBBztI_3syn3gen9visit_mut8VisitMut20visit_type_tuple_mutBa_, symObjAddr: 0x17518, symBinAddr: 0x5EE1C, symSize: 0x3C }
  - { offset: 0x8960C, size: 0x8, addend: 0x0, symName: __RNvYNtNCNvNtCslvhnBjKo0yW_26wasm_bindgen_macro_support6parser18function_from_decl011SelfReplaceNtNtNtCscwCr4GBBztI_3syn3gen9visit_mut8VisitMut20visit_use_rename_mutBa_, symObjAddr: 0x17554, symBinAddr: 0x5EE58, symSize: 0x3C }
  - { offset: 0x8964E, size: 0x8, addend: 0x0, symName: __RNvYNtNCNvNtCslvhnBjKo0yW_26wasm_bindgen_macro_support6parser18function_from_decl011SelfReplaceNtNtNtCscwCr4GBBztI_3syn3gen9visit_mut8VisitMut20visit_visibility_mutBa_, symObjAddr: 0x17590, symBinAddr: 0x5EE94, symSize: 0x3C }
  - { offset: 0x89690, size: 0x8, addend: 0x0, symName: __RNvYNtNCNvNtCslvhnBjKo0yW_26wasm_bindgen_macro_support6parser18function_from_decl011SelfReplaceNtNtNtCscwCr4GBBztI_3syn3gen9visit_mut8VisitMut21visit_assoc_const_mutBa_, symObjAddr: 0x175CC, symBinAddr: 0x5EED0, symSize: 0x3C }
  - { offset: 0x896CF, size: 0x8, addend: 0x0, symName: __RNvYNtNCNvNtCslvhnBjKo0yW_26wasm_bindgen_macro_support6parser18function_from_decl011SelfReplaceNtNtNtCscwCr4GBBztI_3syn3gen9visit_mut8VisitMut21visit_bare_fn_arg_mutBa_, symObjAddr: 0x17608, symBinAddr: 0x5EF0C, symSize: 0x3C }
  - { offset: 0x8970E, size: 0x8, addend: 0x0, symName: __RNvYNtNCNvNtCslvhnBjKo0yW_26wasm_bindgen_macro_support6parser18function_from_decl011SelfReplaceNtNtNtCscwCr4GBBztI_3syn3gen9visit_mut8VisitMut21visit_const_param_mutBa_, symObjAddr: 0x17644, symBinAddr: 0x5EF48, symSize: 0x3C }
  - { offset: 0x8974D, size: 0x8, addend: 0x0, symName: __RNvYNtNCNvNtCslvhnBjKo0yW_26wasm_bindgen_macro_support6parser18function_from_decl011SelfReplaceNtNtNtCscwCr4GBBztI_3syn3gen9visit_mut8VisitMut21visit_expr_assign_mutBa_, symObjAddr: 0x17680, symBinAddr: 0x5EF84, symSize: 0x3C }
  - { offset: 0x8978C, size: 0x8, addend: 0x0, symName: __RNvYNtNCNvNtCslvhnBjKo0yW_26wasm_bindgen_macro_support6parser18function_from_decl011SelfReplaceNtNtNtCscwCr4GBBztI_3syn3gen9visit_mut8VisitMut21visit_expr_binary_mutBa_, symObjAddr: 0x176BC, symBinAddr: 0x5EFC0, symSize: 0x3C }
  - { offset: 0x897CB, size: 0x8, addend: 0x0, symName: __RNvYNtNCNvNtCslvhnBjKo0yW_26wasm_bindgen_macro_support6parser18function_from_decl011SelfReplaceNtNtNtCscwCr4GBBztI_3syn3gen9visit_mut8VisitMut21visit_expr_repeat_mutBa_, symObjAddr: 0x176F8, symBinAddr: 0x5EFFC, symSize: 0x3C }
  - { offset: 0x8980D, size: 0x8, addend: 0x0, symName: __RNvYNtNCNvNtCslvhnBjKo0yW_26wasm_bindgen_macro_support6parser18function_from_decl011SelfReplaceNtNtNtCscwCr4GBBztI_3syn3gen9visit_mut8VisitMut21visit_expr_return_mutBa_, symObjAddr: 0x17734, symBinAddr: 0x5F038, symSize: 0x3C }
  - { offset: 0x8984F, size: 0x8, addend: 0x0, symName: __RNvYNtNCNvNtCslvhnBjKo0yW_26wasm_bindgen_macro_support6parser18function_from_decl011SelfReplaceNtNtNtCscwCr4GBBztI_3syn3gen9visit_mut8VisitMut21visit_expr_struct_mutBa_, symObjAddr: 0x17770, symBinAddr: 0x5F074, symSize: 0x3C }
  - { offset: 0x89891, size: 0x8, addend: 0x0, symName: __RNvYNtNCNvNtCslvhnBjKo0yW_26wasm_bindgen_macro_support6parser18function_from_decl011SelfReplaceNtNtNtCscwCr4GBBztI_3syn3gen9visit_mut8VisitMut21visit_expr_unsafe_mutBa_, symObjAddr: 0x177AC, symBinAddr: 0x5F0B0, symSize: 0x3C }
  - { offset: 0x898D3, size: 0x8, addend: 0x0, symName: __RNvYNtNCNvNtCslvhnBjKo0yW_26wasm_bindgen_macro_support6parser18function_from_decl011SelfReplaceNtNtNtCscwCr4GBBztI_3syn3gen9visit_mut8VisitMut21visit_field_value_mutBa_, symObjAddr: 0x177E8, symBinAddr: 0x5F0EC, symSize: 0x3C }
  - { offset: 0x89915, size: 0x8, addend: 0x0, symName: __RNvYNtNCNvNtCslvhnBjKo0yW_26wasm_bindgen_macro_support6parser18function_from_decl011SelfReplaceNtNtNtCscwCr4GBBztI_3syn3gen9visit_mut8VisitMut21visit_item_static_mutBa_, symObjAddr: 0x17824, symBinAddr: 0x5F128, symSize: 0x3C }
  - { offset: 0x89957, size: 0x8, addend: 0x0, symName: __RNvYNtNCNvNtCslvhnBjKo0yW_26wasm_bindgen_macro_support6parser18function_from_decl011SelfReplaceNtNtNtCscwCr4GBBztI_3syn3gen9visit_mut8VisitMut21visit_item_struct_mutBa_, symObjAddr: 0x17860, symBinAddr: 0x5F164, symSize: 0x3C }
  - { offset: 0x89999, size: 0x8, addend: 0x0, symName: __RNvYNtNCNvNtCslvhnBjKo0yW_26wasm_bindgen_macro_support6parser18function_from_decl011SelfReplaceNtNtNtCscwCr4GBBztI_3syn3gen9visit_mut8VisitMut21visit_return_type_mutBa_, symObjAddr: 0x1789C, symBinAddr: 0x5F1A0, symSize: 0x3C }
  - { offset: 0x899DB, size: 0x8, addend: 0x0, symName: __RNvYNtNCNvNtCslvhnBjKo0yW_26wasm_bindgen_macro_support6parser18function_from_decl011SelfReplaceNtNtNtCscwCr4GBBztI_3syn3gen9visit_mut8VisitMut21visit_trait_bound_mutBa_, symObjAddr: 0x178D8, symBinAddr: 0x5F1DC, symSize: 0x3C }
  - { offset: 0x89A1D, size: 0x8, addend: 0x0, symName: __RNvYNtNCNvNtCslvhnBjKo0yW_26wasm_bindgen_macro_support6parser18function_from_decl011SelfReplaceNtNtNtCscwCr4GBBztI_3syn3gen9visit_mut8VisitMut22visit_expr_closure_mutBa_, symObjAddr: 0x17914, symBinAddr: 0x5F218, symSize: 0x3C }
  - { offset: 0x89A5C, size: 0x8, addend: 0x0, symName: __RNvYNtNCNvNtCslvhnBjKo0yW_26wasm_bindgen_macro_support6parser18function_from_decl011SelfReplaceNtNtNtCscwCr4GBBztI_3syn3gen9visit_mut8VisitMut22visit_fields_named_mutBa_, symObjAddr: 0x17950, symBinAddr: 0x5F254, symSize: 0x3C }
  - { offset: 0x89A9E, size: 0x8, addend: 0x0, symName: __RNvYNtNCNvNtCslvhnBjKo0yW_26wasm_bindgen_macro_support6parser18function_from_decl011SelfReplaceNtNtNtCscwCr4GBBztI_3syn3gen9visit_mut8VisitMut22visit_foreign_item_mutBa_, symObjAddr: 0x1798C, symBinAddr: 0x5F290, symSize: 0x3C }
  - { offset: 0x89AE0, size: 0x8, addend: 0x0, symName: __RNvYNtNCNvNtCslvhnBjKo0yW_26wasm_bindgen_macro_support6parser18function_from_decl011SelfReplaceNtNtNtCscwCr4GBBztI_3syn3gen9visit_mut8VisitMut22visit_impl_item_fn_mutBa_, symObjAddr: 0x179C8, symBinAddr: 0x5F2CC, symSize: 0x3C }
  - { offset: 0x89B22, size: 0x8, addend: 0x0, symName: __RNvYNtNCNvNtCslvhnBjKo0yW_26wasm_bindgen_macro_support6parser18function_from_decl011SelfReplaceNtNtNtCscwCr4GBBztI_3syn3gen9visit_mut8VisitMut22visit_lit_byte_str_mutBa_, symObjAddr: 0x17A04, symBinAddr: 0x5F308, symSize: 0x3C }
  - { offset: 0x89B64, size: 0x8, addend: 0x0, symName: __RNvYNtNCNvNtCslvhnBjKo0yW_26wasm_bindgen_macro_support6parser18function_from_decl011SelfReplaceNtNtNtCscwCr4GBBztI_3syn3gen9visit_mut8VisitMut22visit_path_segment_mutBa_, symObjAddr: 0x17A40, symBinAddr: 0x5F344, symSize: 0x3C }
  - { offset: 0x89BA6, size: 0x8, addend: 0x0, symName: __RNvYNtNCNvNtCslvhnBjKo0yW_26wasm_bindgen_macro_support6parser18function_from_decl011SelfReplaceNtNtNtCscwCr4GBBztI_3syn3gen9visit_mut8VisitMut22visit_range_limits_mutBa_, symObjAddr: 0x17A7C, symBinAddr: 0x5F380, symSize: 0x3C }
  - { offset: 0x89BE8, size: 0x8, addend: 0x0, symName: __RNvYNtNCNvNtCslvhnBjKo0yW_26wasm_bindgen_macro_support6parser18function_from_decl011SelfReplaceNtNtNtCscwCr4GBBztI_3syn3gen9visit_mut8VisitMut22visit_token_stream_mutBa_, symObjAddr: 0x17AB8, symBinAddr: 0x5F3BC, symSize: 0x24 }
  - { offset: 0x89C2A, size: 0x8, addend: 0x0, symName: __RNvYNtNCNvNtCslvhnBjKo0yW_26wasm_bindgen_macro_support6parser18function_from_decl011SelfReplaceNtNtNtCscwCr4GBBztI_3syn3gen9visit_mut8VisitMut22visit_type_bare_fn_mutBa_, symObjAddr: 0x17ADC, symBinAddr: 0x5F3E0, symSize: 0x3C }
  - { offset: 0x89C6C, size: 0x8, addend: 0x0, symName: __RNvYNtNCNvNtCslvhnBjKo0yW_26wasm_bindgen_macro_support6parser18function_from_decl011SelfReplaceNtNtNtCscwCr4GBBztI_3syn3gen9visit_mut8VisitMut22visit_where_clause_mutBa_, symObjAddr: 0x17B18, symBinAddr: 0x5F41C, symSize: 0x3C }
  - { offset: 0x89CAE, size: 0x8, addend: 0x0, symName: __RNvYNtNCNvNtCslvhnBjKo0yW_26wasm_bindgen_macro_support6parser18function_from_decl011SelfReplaceNtNtNtCscwCr4GBBztI_3syn3gen9visit_mut8VisitMut23visit_bare_variadic_mutBa_, symObjAddr: 0x17B54, symBinAddr: 0x5F458, symSize: 0x3C }
  - { offset: 0x89CED, size: 0x8, addend: 0x0, symName: __RNvYNtNCNvNtCslvhnBjKo0yW_26wasm_bindgen_macro_support6parser18function_from_decl011SelfReplaceNtNtNtCscwCr4GBBztI_3syn3gen9visit_mut8VisitMut23visit_expr_continue_mutBa_, symObjAddr: 0x17B90, symBinAddr: 0x5F494, symSize: 0x3C }
  - { offset: 0x89D2C, size: 0x8, addend: 0x0, symName: __RNvYNtNCNvNtCslvhnBjKo0yW_26wasm_bindgen_macro_support6parser18function_from_decl011SelfReplaceNtNtNtCscwCr4GBBztI_3syn3gen9visit_mut8VisitMut23visit_expr_for_loop_mutBa_, symObjAddr: 0x17BCC, symBinAddr: 0x5F4D0, symSize: 0x3C }
  - { offset: 0x89D6B, size: 0x8, addend: 0x0, symName: __RNvYNtNCNvNtCslvhnBjKo0yW_26wasm_bindgen_macro_support6parser18function_from_decl011SelfReplaceNtNtNtCscwCr4GBBztI_3syn3gen9visit_mut8VisitMut23visit_expr_raw_addr_mutBa_, symObjAddr: 0x17C08, symBinAddr: 0x5F50C, symSize: 0x3C }
  - { offset: 0x89DAD, size: 0x8, addend: 0x0, symName: __RNvYNtNCNvNtCslvhnBjKo0yW_26wasm_bindgen_macro_support6parser18function_from_decl011SelfReplaceNtNtNtCscwCr4GBBztI_3syn3gen9visit_mut8VisitMut23visit_generic_param_mutBa_, symObjAddr: 0x17C44, symBinAddr: 0x5F548, symSize: 0x3C }
  - { offset: 0x89DEF, size: 0x8, addend: 0x0, symName: __RNvYNtNCNvNtCslvhnBjKo0yW_26wasm_bindgen_macro_support6parser18function_from_decl011SelfReplaceNtNtNtCscwCr4GBBztI_3syn3gen9visit_mut8VisitMut23visit_pat_reference_mutBa_, symObjAddr: 0x17C80, symBinAddr: 0x5F584, symSize: 0x3C }
  - { offset: 0x89E31, size: 0x8, addend: 0x0, symName: __RNvYNtNCNvNtCslvhnBjKo0yW_26wasm_bindgen_macro_support6parser18function_from_decl011SelfReplaceNtNtNtCscwCr4GBBztI_3syn3gen9visit_mut8VisitMut23visit_trait_item_fn_mutBa_, symObjAddr: 0x17CBC, symBinAddr: 0x5F5C0, symSize: 0x3C }
  - { offset: 0x89E73, size: 0x8, addend: 0x0, symName: __RNvYNtNCNvNtCslvhnBjKo0yW_26wasm_bindgen_macro_support6parser18function_from_decl011SelfReplaceNtNtNtCscwCr4GBBztI_3syn3gen9visit_mut8VisitMut24visit_captured_param_mutBa_, symObjAddr: 0x17CF8, symBinAddr: 0x5F5FC, symSize: 0x3C }
  - { offset: 0x89EB2, size: 0x8, addend: 0x0, symName: __RNvYNtNCNvNtCslvhnBjKo0yW_26wasm_bindgen_macro_support6parser18function_from_decl011SelfReplaceNtNtNtCscwCr4GBBztI_3syn3gen9visit_mut8VisitMut24visit_expr_reference_mutBa_, symObjAddr: 0x17D34, symBinAddr: 0x5F638, symSize: 0x3C }
  - { offset: 0x89EF4, size: 0x8, addend: 0x0, symName: __RNvYNtNCNvNtCslvhnBjKo0yW_26wasm_bindgen_macro_support6parser18function_from_decl011SelfReplaceNtNtNtCscwCr4GBBztI_3syn3gen9visit_mut8VisitMut24visit_expr_try_block_mutBa_, symObjAddr: 0x17D70, symBinAddr: 0x5F674, symSize: 0x3C }
  - { offset: 0x89F36, size: 0x8, addend: 0x0, symName: __RNvYNtNCNvNtCslvhnBjKo0yW_26wasm_bindgen_macro_support6parser18function_from_decl011SelfReplaceNtNtNtCscwCr4GBBztI_3syn3gen9visit_mut8VisitMut24visit_fields_unnamed_mutBa_, symObjAddr: 0x17DAC, symBinAddr: 0x5F6B0, symSize: 0x3C }
  - { offset: 0x89F78, size: 0x8, addend: 0x0, symName: __RNvYNtNCNvNtCslvhnBjKo0yW_26wasm_bindgen_macro_support6parser18function_from_decl011SelfReplaceNtNtNtCscwCr4GBBztI_3syn3gen9visit_mut8VisitMut24visit_impl_item_type_mutBa_, symObjAddr: 0x17DE8, symBinAddr: 0x5F6EC, symSize: 0x3C }
  - { offset: 0x89FBA, size: 0x8, addend: 0x0, symName: __RNvYNtNCNvNtCslvhnBjKo0yW_26wasm_bindgen_macro_support6parser18function_from_decl011SelfReplaceNtNtNtCscwCr4GBBztI_3syn3gen9visit_mut8VisitMut24visit_lifetime_param_mutBa_, symObjAddr: 0x17E24, symBinAddr: 0x5F728, symSize: 0x3C }
  - { offset: 0x89FFC, size: 0x8, addend: 0x0, symName: __RNvYNtNCNvNtCslvhnBjKo0yW_26wasm_bindgen_macro_support6parser18function_from_decl011SelfReplaceNtNtNtCscwCr4GBBztI_3syn3gen9visit_mut8VisitMut24visit_path_arguments_mutBa_, symObjAddr: 0x17E60, symBinAddr: 0x5F764, symSize: 0x3C }
  - { offset: 0x8A03E, size: 0x8, addend: 0x0, symName: __RNvYNtNCNvNtCslvhnBjKo0yW_26wasm_bindgen_macro_support6parser18function_from_decl011SelfReplaceNtNtNtCscwCr4GBBztI_3syn3gen9visit_mut8VisitMut24visit_predicate_type_mutBa_, symObjAddr: 0x17E9C, symBinAddr: 0x5F7A0, symSize: 0x3C }
  - { offset: 0x8A080, size: 0x8, addend: 0x0, symName: __RNvYNtNCNvNtCslvhnBjKo0yW_26wasm_bindgen_macro_support6parser18function_from_decl011SelfReplaceNtNtNtCscwCr4GBBztI_3syn3gen9visit_mut8VisitMut24visit_type_reference_mutBa_, symObjAddr: 0x17ED8, symBinAddr: 0x5F7DC, symSize: 0x3C }
  - { offset: 0x8A0C2, size: 0x8, addend: 0x0, symName: __RNvYNtNCNvNtCslvhnBjKo0yW_26wasm_bindgen_macro_support6parser18function_from_decl011SelfReplaceNtNtNtCscwCr4GBBztI_3syn3gen9visit_mut8VisitMut24visit_vis_restricted_mutBa_, symObjAddr: 0x17F14, symBinAddr: 0x5F818, symSize: 0x3C }
  - { offset: 0x8A104, size: 0x8, addend: 0x0, symName: __RNvYNtNCNvNtCslvhnBjKo0yW_26wasm_bindgen_macro_support6parser18function_from_decl011SelfReplaceNtNtNtCscwCr4GBBztI_3syn3gen9visit_mut8VisitMut25visit_bound_lifetimes_mutBa_, symObjAddr: 0x17F50, symBinAddr: 0x5F854, symSize: 0x3C }
  - { offset: 0x8A143, size: 0x8, addend: 0x0, symName: __RNvYNtNCNvNtCslvhnBjKo0yW_26wasm_bindgen_macro_support6parser18function_from_decl011SelfReplaceNtNtNtCscwCr4GBBztI_3syn3gen9visit_mut8VisitMut25visit_foreign_item_fn_mutBa_, symObjAddr: 0x17F8C, symBinAddr: 0x5F890, symSize: 0x3C }
  - { offset: 0x8A185, size: 0x8, addend: 0x0, symName: __RNvYNtNCNvNtCslvhnBjKo0yW_26wasm_bindgen_macro_support6parser18function_from_decl011SelfReplaceNtNtNtCscwCr4GBBztI_3syn3gen9visit_mut8VisitMut25visit_impl_item_const_mutBa_, symObjAddr: 0x17FC8, symBinAddr: 0x5F8CC, symSize: 0x3C }
  - { offset: 0x8A1C7, size: 0x8, addend: 0x0, symName: __RNvYNtNCNvNtCslvhnBjKo0yW_26wasm_bindgen_macro_support6parser18function_from_decl011SelfReplaceNtNtNtCscwCr4GBBztI_3syn3gen9visit_mut8VisitMut25visit_impl_item_macro_mutBa_, symObjAddr: 0x18004, symBinAddr: 0x5F908, symSize: 0x3C }
  - { offset: 0x8A209, size: 0x8, addend: 0x0, symName: __RNvYNtNCNvNtCslvhnBjKo0yW_26wasm_bindgen_macro_support6parser18function_from_decl011SelfReplaceNtNtNtCscwCr4GBBztI_3syn3gen9visit_mut8VisitMut25visit_macro_delimiter_mutBa_, symObjAddr: 0x18040, symBinAddr: 0x5F944, symSize: 0x3C }
  - { offset: 0x8A24B, size: 0x8, addend: 0x0, symName: __RNvYNtNCNvNtCslvhnBjKo0yW_26wasm_bindgen_macro_support6parser18function_from_decl011SelfReplaceNtNtNtCscwCr4GBBztI_3syn3gen9visit_mut8VisitMut25visit_meta_name_value_mutBa_, symObjAddr: 0x1807C, symBinAddr: 0x5F980, symSize: 0x3C }
  - { offset: 0x8A28D, size: 0x8, addend: 0x0, symName: __RNvYNtNCNvNtCslvhnBjKo0yW_26wasm_bindgen_macro_support6parser18function_from_decl011SelfReplaceNtNtNtCscwCr4GBBztI_3syn3gen9visit_mut8VisitMut25visit_precise_capture_mutBa_, symObjAddr: 0x180B8, symBinAddr: 0x5F9BC, symSize: 0x3C }
  - { offset: 0x8A2CF, size: 0x8, addend: 0x0, symName: __RNvYNtNCNvNtCslvhnBjKo0yW_26wasm_bindgen_macro_support6parser18function_from_decl011SelfReplaceNtNtNtCscwCr4GBBztI_3syn3gen9visit_mut8VisitMut25visit_trait_item_type_mutBa_, symObjAddr: 0x180F4, symBinAddr: 0x5F9F8, symSize: 0x3C }
  - { offset: 0x8A311, size: 0x8, addend: 0x0, symName: __RNvYNtNCNvNtCslvhnBjKo0yW_26wasm_bindgen_macro_support6parser18function_from_decl011SelfReplaceNtNtNtCscwCr4GBBztI_3syn3gen9visit_mut8VisitMut25visit_type_impl_trait_mutBa_, symObjAddr: 0x18130, symBinAddr: 0x5FA34, symSize: 0x3C }
  - { offset: 0x8A353, size: 0x8, addend: 0x0, symName: __RNvYNtNCNvNtCslvhnBjKo0yW_26wasm_bindgen_macro_support6parser18function_from_decl011SelfReplaceNtNtNtCscwCr4GBBztI_3syn3gen9visit_mut8VisitMut25visit_where_predicate_mutBa_, symObjAddr: 0x1816C, symBinAddr: 0x5FA70, symSize: 0x3C }
  - { offset: 0x8A395, size: 0x8, addend: 0x0, symName: __RNvYNtNCNvNtCslvhnBjKo0yW_26wasm_bindgen_macro_support6parser18function_from_decl011SelfReplaceNtNtNtCscwCr4GBBztI_3syn3gen9visit_mut8VisitMut26visit_expr_method_call_mutBa_, symObjAddr: 0x181A8, symBinAddr: 0x5FAAC, symSize: 0x3C }
  - { offset: 0x8A3D7, size: 0x8, addend: 0x0, symName: __RNvYNtNCNvNtCslvhnBjKo0yW_26wasm_bindgen_macro_support6parser18function_from_decl011SelfReplaceNtNtNtCscwCr4GBBztI_3syn3gen9visit_mut8VisitMut26visit_field_mutability_mutBa_, symObjAddr: 0x181E4, symBinAddr: 0x5FAE8, symSize: 0x3C }
  - { offset: 0x8A419, size: 0x8, addend: 0x0, symName: __RNvYNtNCNvNtCslvhnBjKo0yW_26wasm_bindgen_macro_support6parser18function_from_decl011SelfReplaceNtNtNtCscwCr4GBBztI_3syn3gen9visit_mut8VisitMut26visit_generic_argument_mutBa_, symObjAddr: 0x18220, symBinAddr: 0x5FB24, symSize: 0x3C }
  - { offset: 0x8A45B, size: 0x8, addend: 0x0, symName: __RNvYNtNCNvNtCslvhnBjKo0yW_26wasm_bindgen_macro_support6parser18function_from_decl011SelfReplaceNtNtNtCscwCr4GBBztI_3syn3gen9visit_mut8VisitMut26visit_item_foreign_mod_mutBa_, symObjAddr: 0x1825C, symBinAddr: 0x5FB60, symSize: 0x3C }
  - { offset: 0x8A49D, size: 0x8, addend: 0x0, symName: __RNvYNtNCNvNtCslvhnBjKo0yW_26wasm_bindgen_macro_support6parser18function_from_decl011SelfReplaceNtNtNtCscwCr4GBBztI_3syn3gen9visit_mut8VisitMut26visit_item_trait_alias_mutBa_, symObjAddr: 0x18298, symBinAddr: 0x5FB9C, symSize: 0x3C }
  - { offset: 0x8A4DF, size: 0x8, addend: 0x0, symName: __RNvYNtNCNvNtCslvhnBjKo0yW_26wasm_bindgen_macro_support6parser18function_from_decl011SelfReplaceNtNtNtCscwCr4GBBztI_3syn3gen9visit_mut8VisitMut26visit_pat_tuple_struct_mutBa_, symObjAddr: 0x182D4, symBinAddr: 0x5FBD8, symSize: 0x3C }
  - { offset: 0x8A521, size: 0x8, addend: 0x0, symName: __RNvYNtNCNvNtCslvhnBjKo0yW_26wasm_bindgen_macro_support6parser18function_from_decl011SelfReplaceNtNtNtCscwCr4GBBztI_3syn3gen9visit_mut8VisitMut26visit_trait_item_const_mutBa_, symObjAddr: 0x18310, symBinAddr: 0x5FC14, symSize: 0x3C }
  - { offset: 0x8A563, size: 0x8, addend: 0x0, symName: __RNvYNtNCNvNtCslvhnBjKo0yW_26wasm_bindgen_macro_support6parser18function_from_decl011SelfReplaceNtNtNtCscwCr4GBBztI_3syn3gen9visit_mut8VisitMut26visit_trait_item_macro_mutBa_, symObjAddr: 0x1834C, symBinAddr: 0x5FC50, symSize: 0x3C }
  - { offset: 0x8A5A5, size: 0x8, addend: 0x0, symName: __RNvYNtNCNvNtCslvhnBjKo0yW_26wasm_bindgen_macro_support6parser18function_from_decl011SelfReplaceNtNtNtCscwCr4GBBztI_3syn3gen9visit_mut8VisitMut26visit_type_param_bound_mutBa_, symObjAddr: 0x18388, symBinAddr: 0x5FC8C, symSize: 0x3C }
  - { offset: 0x8A5E7, size: 0x8, addend: 0x0, symName: __RNvYNtNCNvNtCslvhnBjKo0yW_26wasm_bindgen_macro_support6parser18function_from_decl011SelfReplaceNtNtNtCscwCr4GBBztI_3syn3gen9visit_mut8VisitMut27visit_foreign_item_type_mutBa_, symObjAddr: 0x183C4, symBinAddr: 0x5FCC8, symSize: 0x3C }
  - { offset: 0x8A629, size: 0x8, addend: 0x0, symName: __RNvYNtNCNvNtCslvhnBjKo0yW_26wasm_bindgen_macro_support6parser18function_from_decl011SelfReplaceNtNtNtCscwCr4GBBztI_3syn3gen9visit_mut8VisitMut27visit_item_extern_crate_mutBa_, symObjAddr: 0x18400, symBinAddr: 0x5FD04, symSize: 0x3C }
  - { offset: 0x8A66B, size: 0x8, addend: 0x0, symName: __RNvYNtNCNvNtCslvhnBjKo0yW_26wasm_bindgen_macro_support6parser18function_from_decl011SelfReplaceNtNtNtCscwCr4GBBztI_3syn3gen9visit_mut8VisitMut27visit_static_mutability_mutBa_, symObjAddr: 0x1843C, symBinAddr: 0x5FD40, symSize: 0x3C }
  - { offset: 0x8A6AD, size: 0x8, addend: 0x0, symName: __RNvYNtNCNvNtCslvhnBjKo0yW_26wasm_bindgen_macro_support6parser18function_from_decl011SelfReplaceNtNtNtCscwCr4GBBztI_3syn3gen9visit_mut8VisitMut27visit_type_trait_object_mutBa_, symObjAddr: 0x18478, symBinAddr: 0x5FD7C, symSize: 0x3C }
  - { offset: 0x8A6EF, size: 0x8, addend: 0x0, symName: __RNvYNtNCNvNtCslvhnBjKo0yW_26wasm_bindgen_macro_support6parser18function_from_decl011SelfReplaceNtNtNtCscwCr4GBBztI_3syn3gen9visit_mut8VisitMut28visit_foreign_item_macro_mutBa_, symObjAddr: 0x184B4, symBinAddr: 0x5FDB8, symSize: 0x3C }
  - { offset: 0x8A731, size: 0x8, addend: 0x0, symName: __RNvYNtNCNvNtCslvhnBjKo0yW_26wasm_bindgen_macro_support6parser18function_from_decl011SelfReplaceNtNtNtCscwCr4GBBztI_3syn3gen9visit_mut8VisitMut28visit_pointer_mutability_mutBa_, symObjAddr: 0x184F0, symBinAddr: 0x5FDF4, symSize: 0x3C }
  - { offset: 0x8A773, size: 0x8, addend: 0x0, symName: __RNvYNtNCNvNtCslvhnBjKo0yW_26wasm_bindgen_macro_support6parser18function_from_decl011SelfReplaceNtNtNtCscwCr4GBBztI_3syn3gen9visit_mut8VisitMut28visit_predicate_lifetime_mutBa_, symObjAddr: 0x1852C, symBinAddr: 0x5FE30, symSize: 0x3C }
  - { offset: 0x8A7B5, size: 0x8, addend: 0x0, symName: __RNvYNtNCNvNtCslvhnBjKo0yW_26wasm_bindgen_macro_support6parser18function_from_decl011SelfReplaceNtNtNtCscwCr4GBBztI_3syn3gen9visit_mut8VisitMut29visit_foreign_item_static_mutBa_, symObjAddr: 0x18568, symBinAddr: 0x5FE6C, symSize: 0x3C }
  - { offset: 0x8A7F7, size: 0x8, addend: 0x0, symName: __RNvYNtNCNvNtCslvhnBjKo0yW_26wasm_bindgen_macro_support6parser18function_from_decl011SelfReplaceNtNtNtCscwCr4GBBztI_3syn3gen9visit_mut8VisitMut30visit_trait_bound_modifier_mutBa_, symObjAddr: 0x185A4, symBinAddr: 0x5FEA8, symSize: 0x3C }
  - { offset: 0x8A839, size: 0x8, addend: 0x0, symName: __RNvYNtNCNvNtCslvhnBjKo0yW_26wasm_bindgen_macro_support6parser18function_from_decl011SelfReplaceNtNtNtCscwCr4GBBztI_3syn3gen9visit_mut8VisitMut41visit_parenthesized_generic_arguments_mutBa_, symObjAddr: 0x185E0, symBinAddr: 0x5FEE4, symSize: 0x3C }
  - { offset: 0x8A87B, size: 0x8, addend: 0x0, symName: __RNvYNtNCNvNtCslvhnBjKo0yW_26wasm_bindgen_macro_support6parser18function_from_decl011SelfReplaceNtNtNtCscwCr4GBBztI_3syn3gen9visit_mut8VisitMut43visit_angle_bracketed_generic_arguments_mutBa_, symObjAddr: 0x1861C, symBinAddr: 0x5FF20, symSize: 0x3C }
  - { offset: 0x8A8C6, size: 0x8, addend: 0x0, symName: __RNvYNtNvNtCslvhnBjKo0yW_26wasm_bindgen_macro_support6parser19assert_no_lifetimes4WalkNtNtNtCscwCr4GBBztI_3syn3gen5visit5Visit10visit_exprB8_, symObjAddr: 0x18658, symBinAddr: 0x5FF5C, symSize: 0x3C }
  - { offset: 0x8A905, size: 0x8, addend: 0x0, symName: __RNvYNtNvNtCslvhnBjKo0yW_26wasm_bindgen_macro_support6parser19assert_no_lifetimes4WalkNtNtNtCscwCr4GBBztI_3syn3gen5visit5Visit10visit_itemB8_, symObjAddr: 0x18694, symBinAddr: 0x5FF98, symSize: 0x3C }
  - { offset: 0x8A947, size: 0x8, addend: 0x0, symName: __RNvYNtNvNtCslvhnBjKo0yW_26wasm_bindgen_macro_support6parser19assert_no_lifetimes4WalkNtNtNtCscwCr4GBBztI_3syn3gen5visit5Visit10visit_metaB8_, symObjAddr: 0x186D0, symBinAddr: 0x5FFD4, symSize: 0x3C }
  - { offset: 0x8A989, size: 0x8, addend: 0x0, symName: __RNvYNtNvNtCslvhnBjKo0yW_26wasm_bindgen_macro_support6parser19assert_no_lifetimes4WalkNtNtNtCscwCr4GBBztI_3syn3gen5visit5Visit10visit_pathB8_, symObjAddr: 0x1870C, symBinAddr: 0x60010, symSize: 0x3C }
  - { offset: 0x8A9CB, size: 0x8, addend: 0x0, symName: __RNvYNtNvNtCslvhnBjKo0yW_26wasm_bindgen_macro_support6parser19assert_no_lifetimes4WalkNtNtNtCscwCr4GBBztI_3syn3gen5visit5Visit10visit_spanB8_, symObjAddr: 0x18748, symBinAddr: 0x6004C, symSize: 0x24 }
  - { offset: 0x8AA0D, size: 0x8, addend: 0x0, symName: __RNvYNtNvNtCslvhnBjKo0yW_26wasm_bindgen_macro_support6parser19assert_no_lifetimes4WalkNtNtNtCscwCr4GBBztI_3syn3gen5visit5Visit10visit_stmtB8_, symObjAddr: 0x1876C, symBinAddr: 0x60070, symSize: 0x3C }
  - { offset: 0x8AA4F, size: 0x8, addend: 0x0, symName: __RNvYNtNvNtCslvhnBjKo0yW_26wasm_bindgen_macro_support6parser19assert_no_lifetimes4WalkNtNtNtCscwCr4GBBztI_3syn3gen5visit5Visit10visit_typeB8_, symObjAddr: 0x187A8, symBinAddr: 0x600AC, symSize: 0x3C }
  - { offset: 0x8AA91, size: 0x8, addend: 0x0, symName: __RNvYNtNvNtCslvhnBjKo0yW_26wasm_bindgen_macro_support6parser19assert_no_lifetimes4WalkNtNtNtCscwCr4GBBztI_3syn3gen5visit5Visit11visit_blockB8_, symObjAddr: 0x187E4, symBinAddr: 0x600E8, symSize: 0x3C }
  - { offset: 0x8AAD0, size: 0x8, addend: 0x0, symName: __RNvYNtNvNtCslvhnBjKo0yW_26wasm_bindgen_macro_support6parser19assert_no_lifetimes4WalkNtNtNtCscwCr4GBBztI_3syn3gen5visit5Visit11visit_fieldB8_, symObjAddr: 0x18820, symBinAddr: 0x60124, symSize: 0x3C }
  - { offset: 0x8AB12, size: 0x8, addend: 0x0, symName: __RNvYNtNvNtCslvhnBjKo0yW_26wasm_bindgen_macro_support6parser19assert_no_lifetimes4WalkNtNtNtCscwCr4GBBztI_3syn3gen5visit5Visit11visit_identB8_, symObjAddr: 0x1885C, symBinAddr: 0x60160, symSize: 0x3C }
  - { offset: 0x8AB54, size: 0x8, addend: 0x0, symName: __RNvYNtNvNtCslvhnBjKo0yW_26wasm_bindgen_macro_support6parser19assert_no_lifetimes4WalkNtNtNtCscwCr4GBBztI_3syn3gen5visit5Visit11visit_indexB8_, symObjAddr: 0x18898, symBinAddr: 0x6019C, symSize: 0x3C }
  - { offset: 0x8AB96, size: 0x8, addend: 0x0, symName: __RNvYNtNvNtCslvhnBjKo0yW_26wasm_bindgen_macro_support6parser19assert_no_lifetimes4WalkNtNtNtCscwCr4GBBztI_3syn3gen5visit5Visit11visit_labelB8_, symObjAddr: 0x188D4, symBinAddr: 0x601D8, symSize: 0x3C }
  - { offset: 0x8ABD8, size: 0x8, addend: 0x0, symName: __RNvYNtNvNtCslvhnBjKo0yW_26wasm_bindgen_macro_support6parser19assert_no_lifetimes4WalkNtNtNtCscwCr4GBBztI_3syn3gen5visit5Visit11visit_localB8_, symObjAddr: 0x18910, symBinAddr: 0x60214, symSize: 0x3C }
  - { offset: 0x8AC1A, size: 0x8, addend: 0x0, symName: __RNvYNtNvNtCslvhnBjKo0yW_26wasm_bindgen_macro_support6parser19assert_no_lifetimes4WalkNtNtNtCscwCr4GBBztI_3syn3gen5visit5Visit11visit_macroB8_, symObjAddr: 0x1894C, symBinAddr: 0x60250, symSize: 0x3C }
  - { offset: 0x8AC5C, size: 0x8, addend: 0x0, symName: __RNvYNtNvNtCslvhnBjKo0yW_26wasm_bindgen_macro_support6parser19assert_no_lifetimes4WalkNtNtNtCscwCr4GBBztI_3syn3gen5visit5Visit11visit_qselfB8_, symObjAddr: 0x18988, symBinAddr: 0x6028C, symSize: 0x3C }
  - { offset: 0x8AC9E, size: 0x8, addend: 0x0, symName: __RNvYNtNvNtCslvhnBjKo0yW_26wasm_bindgen_macro_support6parser19assert_no_lifetimes4WalkNtNtNtCscwCr4GBBztI_3syn3gen5visit5Visit11visit_un_opB8_, symObjAddr: 0x189C4, symBinAddr: 0x602C8, symSize: 0x3C }
  - { offset: 0x8ACE0, size: 0x8, addend: 0x0, symName: __RNvYNtNvNtCslvhnBjKo0yW_26wasm_bindgen_macro_support6parser19assert_no_lifetimes4WalkNtNtNtCscwCr4GBBztI_3syn3gen5visit5Visit12visit_bin_opB8_, symObjAddr: 0x18A00, symBinAddr: 0x60304, symSize: 0x3C }
  - { offset: 0x8AD1F, size: 0x8, addend: 0x0, symName: __RNvYNtNvNtCslvhnBjKo0yW_26wasm_bindgen_macro_support6parser19assert_no_lifetimes4WalkNtNtNtCscwCr4GBBztI_3syn3gen5visit5Visit12visit_fieldsB8_, symObjAddr: 0x18A3C, symBinAddr: 0x60340, symSize: 0x3C }
  - { offset: 0x8AD61, size: 0x8, addend: 0x0, symName: __RNvYNtNvNtCslvhnBjKo0yW_26wasm_bindgen_macro_support6parser19assert_no_lifetimes4WalkNtNtNtCscwCr4GBBztI_3syn3gen5visit5Visit12visit_fn_argB8_, symObjAddr: 0x18A78, symBinAddr: 0x6037C, symSize: 0x3C }
  - { offset: 0x8ADA3, size: 0x8, addend: 0x0, symName: __RNvYNtNvNtCslvhnBjKo0yW_26wasm_bindgen_macro_support6parser19assert_no_lifetimes4WalkNtNtNtCscwCr4GBBztI_3syn3gen5visit5Visit12visit_memberB8_, symObjAddr: 0x18AB4, symBinAddr: 0x603B8, symSize: 0x3C }
  - { offset: 0x8ADE5, size: 0x8, addend: 0x0, symName: __RNvYNtNvNtCslvhnBjKo0yW_26wasm_bindgen_macro_support6parser19assert_no_lifetimes4WalkNtNtNtCscwCr4GBBztI_3syn3gen5visit5Visit12visit_pat_orB8_, symObjAddr: 0x18AF0, symBinAddr: 0x603F4, symSize: 0x3C }
  - { offset: 0x8AE27, size: 0x8, addend: 0x0, symName: __RNvYNtNvNtCslvhnBjKo0yW_26wasm_bindgen_macro_support6parser19assert_no_lifetimes4WalkNtNtNtCscwCr4GBBztI_3syn3gen5visit5Visit13visit_expr_ifB8_, symObjAddr: 0x18B2C, symBinAddr: 0x60430, symSize: 0x3C }
  - { offset: 0x8AE66, size: 0x8, addend: 0x0, symName: __RNvYNtNvNtCslvhnBjKo0yW_26wasm_bindgen_macro_support6parser19assert_no_lifetimes4WalkNtNtNtCscwCr4GBBztI_3syn3gen5visit5Visit13visit_item_fnB8_, symObjAddr: 0x18B68, symBinAddr: 0x6046C, symSize: 0x3C }
  - { offset: 0x8AEA8, size: 0x8, addend: 0x0, symName: __RNvYNtNvNtCslvhnBjKo0yW_26wasm_bindgen_macro_support6parser19assert_no_lifetimes4WalkNtNtNtCscwCr4GBBztI_3syn3gen5visit5Visit13visit_lit_intB8_, symObjAddr: 0x18BA4, symBinAddr: 0x604A8, symSize: 0x3C }
  - { offset: 0x8AEEA, size: 0x8, addend: 0x0, symName: __RNvYNtNvNtCslvhnBjKo0yW_26wasm_bindgen_macro_support6parser19assert_no_lifetimes4WalkNtNtNtCscwCr4GBBztI_3syn3gen5visit5Visit13visit_lit_strB8_, symObjAddr: 0x18BE0, symBinAddr: 0x604E4, symSize: 0x3C }
  - { offset: 0x8AF2C, size: 0x8, addend: 0x0, symName: __RNvYNtNvNtCslvhnBjKo0yW_26wasm_bindgen_macro_support6parser19assert_no_lifetimes4WalkNtNtNtCscwCr4GBBztI_3syn3gen5visit5Visit13visit_variantB8_, symObjAddr: 0x18C1C, symBinAddr: 0x60520, symSize: 0x3C }
  - { offset: 0x8AF6E, size: 0x8, addend: 0x0, symName: __RNvYNtNvNtCslvhnBjKo0yW_26wasm_bindgen_macro_support6parser19assert_no_lifetimes4WalkNtNtNtCscwCr4GBBztI_3syn3gen5visit5Visit14visit_expr_letB8_, symObjAddr: 0x18C58, symBinAddr: 0x6055C, symSize: 0x3C }
  - { offset: 0x8AFAD, size: 0x8, addend: 0x0, symName: __RNvYNtNvNtCslvhnBjKo0yW_26wasm_bindgen_macro_support6parser19assert_no_lifetimes4WalkNtNtNtCscwCr4GBBztI_3syn3gen5visit5Visit14visit_expr_litB8_, symObjAddr: 0x18C94, symBinAddr: 0x60598, symSize: 0x3C }
  - { offset: 0x8AFEC, size: 0x8, addend: 0x0, symName: __RNvYNtNvNtCslvhnBjKo0yW_26wasm_bindgen_macro_support6parser19assert_no_lifetimes4WalkNtNtNtCscwCr4GBBztI_3syn3gen5visit5Visit14visit_expr_tryB8_, symObjAddr: 0x18CD0, symBinAddr: 0x605D4, symSize: 0x3C }
  - { offset: 0x8B02E, size: 0x8, addend: 0x0, symName: __RNvYNtNvNtCslvhnBjKo0yW_26wasm_bindgen_macro_support6parser19assert_no_lifetimes4WalkNtNtNtCscwCr4GBBztI_3syn3gen5visit5Visit14visit_genericsB8_, symObjAddr: 0x18D0C, symBinAddr: 0x60610, symSize: 0x3C }
  - { offset: 0x8B070, size: 0x8, addend: 0x0, symName: __RNvYNtNvNtCslvhnBjKo0yW_26wasm_bindgen_macro_support6parser19assert_no_lifetimes4WalkNtNtNtCscwCr4GBBztI_3syn3gen5visit5Visit14visit_item_modB8_, symObjAddr: 0x18D48, symBinAddr: 0x6064C, symSize: 0x3C }
  - { offset: 0x8B0B2, size: 0x8, addend: 0x0, symName: __RNvYNtNvNtCslvhnBjKo0yW_26wasm_bindgen_macro_support6parser19assert_no_lifetimes4WalkNtNtNtCscwCr4GBBztI_3syn3gen5visit5Visit14visit_item_useB8_, symObjAddr: 0x18D84, symBinAddr: 0x60688, symSize: 0x3C }
  - { offset: 0x8B0F4, size: 0x8, addend: 0x0, symName: __RNvYNtNvNtCslvhnBjKo0yW_26wasm_bindgen_macro_support6parser19assert_no_lifetimes4WalkNtNtNtCscwCr4GBBztI_3syn3gen5visit5Visit14visit_lit_boolB8_, symObjAddr: 0x18DC0, symBinAddr: 0x606C4, symSize: 0x3C }
  - { offset: 0x8B136, size: 0x8, addend: 0x0, symName: __RNvYNtNvNtCslvhnBjKo0yW_26wasm_bindgen_macro_support6parser19assert_no_lifetimes4WalkNtNtNtCscwCr4GBBztI_3syn3gen5visit5Visit14visit_lit_byteB8_, symObjAddr: 0x18DFC, symBinAddr: 0x60700, symSize: 0x3C }
  - { offset: 0x8B178, size: 0x8, addend: 0x0, symName: __RNvYNtNvNtCslvhnBjKo0yW_26wasm_bindgen_macro_support6parser19assert_no_lifetimes4WalkNtNtNtCscwCr4GBBztI_3syn3gen5visit5Visit14visit_lit_charB8_, symObjAddr: 0x18E38, symBinAddr: 0x6073C, symSize: 0x3C }
  - { offset: 0x8B1BA, size: 0x8, addend: 0x0, symName: __RNvYNtNvNtCslvhnBjKo0yW_26wasm_bindgen_macro_support6parser19assert_no_lifetimes4WalkNtNtNtCscwCr4GBBztI_3syn3gen5visit5Visit14visit_lit_cstrB8_, symObjAddr: 0x18E74, symBinAddr: 0x60778, symSize: 0x3C }
  - { offset: 0x8B1FC, size: 0x8, addend: 0x0, symName: __RNvYNtNvNtCslvhnBjKo0yW_26wasm_bindgen_macro_support6parser19assert_no_lifetimes4WalkNtNtNtCscwCr4GBBztI_3syn3gen5visit5Visit14visit_pat_restB8_, symObjAddr: 0x18EB0, symBinAddr: 0x607B4, symSize: 0x3C }
  - { offset: 0x8B23E, size: 0x8, addend: 0x0, symName: __RNvYNtNvNtCslvhnBjKo0yW_26wasm_bindgen_macro_support6parser19assert_no_lifetimes4WalkNtNtNtCscwCr4GBBztI_3syn3gen5visit5Visit14visit_pat_typeB8_, symObjAddr: 0x18EEC, symBinAddr: 0x607F0, symSize: 0x3C }
  - { offset: 0x8B280, size: 0x8, addend: 0x0, symName: __RNvYNtNvNtCslvhnBjKo0yW_26wasm_bindgen_macro_support6parser19assert_no_lifetimes4WalkNtNtNtCscwCr4GBBztI_3syn3gen5visit5Visit14visit_pat_wildB8_, symObjAddr: 0x18F28, symBinAddr: 0x6082C, symSize: 0x3C }
  - { offset: 0x8B2C2, size: 0x8, addend: 0x0, symName: __RNvYNtNvNtCslvhnBjKo0yW_26wasm_bindgen_macro_support6parser19assert_no_lifetimes4WalkNtNtNtCscwCr4GBBztI_3syn3gen5visit5Visit14visit_receiverB8_, symObjAddr: 0x18F64, symBinAddr: 0x60868, symSize: 0x3C }
  - { offset: 0x8B304, size: 0x8, addend: 0x0, symName: __RNvYNtNvNtCslvhnBjKo0yW_26wasm_bindgen_macro_support6parser19assert_no_lifetimes4WalkNtNtNtCscwCr4GBBztI_3syn3gen5visit5Visit14visit_type_ptrB8_, symObjAddr: 0x18FA0, symBinAddr: 0x608A4, symSize: 0x3C }
  - { offset: 0x8B346, size: 0x8, addend: 0x0, symName: __RNvYNtNvNtCslvhnBjKo0yW_26wasm_bindgen_macro_support6parser19assert_no_lifetimes4WalkNtNtNtCscwCr4GBBztI_3syn3gen5visit5Visit14visit_use_globB8_, symObjAddr: 0x18FDC, symBinAddr: 0x608E0, symSize: 0x3C }
  - { offset: 0x8B388, size: 0x8, addend: 0x0, symName: __RNvYNtNvNtCslvhnBjKo0yW_26wasm_bindgen_macro_support6parser19assert_no_lifetimes4WalkNtNtNtCscwCr4GBBztI_3syn3gen5visit5Visit14visit_use_nameB8_, symObjAddr: 0x19018, symBinAddr: 0x6091C, symSize: 0x3C }
  - { offset: 0x8B3CA, size: 0x8, addend: 0x0, symName: __RNvYNtNvNtCslvhnBjKo0yW_26wasm_bindgen_macro_support6parser19assert_no_lifetimes4WalkNtNtNtCscwCr4GBBztI_3syn3gen5visit5Visit14visit_use_pathB8_, symObjAddr: 0x19054, symBinAddr: 0x60958, symSize: 0x3C }
  - { offset: 0x8B40C, size: 0x8, addend: 0x0, symName: __RNvYNtNvNtCslvhnBjKo0yW_26wasm_bindgen_macro_support6parser19assert_no_lifetimes4WalkNtNtNtCscwCr4GBBztI_3syn3gen5visit5Visit14visit_use_treeB8_, symObjAddr: 0x19090, symBinAddr: 0x60994, symSize: 0x3C }
  - { offset: 0x8B44E, size: 0x8, addend: 0x0, symName: __RNvYNtNvNtCslvhnBjKo0yW_26wasm_bindgen_macro_support6parser19assert_no_lifetimes4WalkNtNtNtCscwCr4GBBztI_3syn3gen5visit5Visit14visit_variadicB8_, symObjAddr: 0x190CC, symBinAddr: 0x609D0, symSize: 0x3C }
  - { offset: 0x8B490, size: 0x8, addend: 0x0, symName: __RNvYNtNvNtCslvhnBjKo0yW_26wasm_bindgen_macro_support6parser19assert_no_lifetimes4WalkNtNtNtCscwCr4GBBztI_3syn3gen5visit5Visit15visit_attributeB8_, symObjAddr: 0x19108, symBinAddr: 0x60A0C, symSize: 0x3C }
  - { offset: 0x8B4CF, size: 0x8, addend: 0x0, symName: __RNvYNtNvNtCslvhnBjKo0yW_26wasm_bindgen_macro_support6parser19assert_no_lifetimes4WalkNtNtNtCscwCr4GBBztI_3syn3gen5visit5Visit15visit_expr_callB8_, symObjAddr: 0x19144, symBinAddr: 0x60A48, symSize: 0x3C }
  - { offset: 0x8B50E, size: 0x8, addend: 0x0, symName: __RNvYNtNvNtCslvhnBjKo0yW_26wasm_bindgen_macro_support6parser19assert_no_lifetimes4WalkNtNtNtCscwCr4GBBztI_3syn3gen5visit5Visit15visit_expr_castB8_, symObjAddr: 0x19180, symBinAddr: 0x60A84, symSize: 0x3C }
  - { offset: 0x8B54D, size: 0x8, addend: 0x0, symName: __RNvYNtNvNtCslvhnBjKo0yW_26wasm_bindgen_macro_support6parser19assert_no_lifetimes4WalkNtNtNtCscwCr4GBBztI_3syn3gen5visit5Visit15visit_expr_loopB8_, symObjAddr: 0x191BC, symBinAddr: 0x60AC0, symSize: 0x3C }
  - { offset: 0x8B58C, size: 0x8, addend: 0x0, symName: __RNvYNtNvNtCslvhnBjKo0yW_26wasm_bindgen_macro_support6parser19assert_no_lifetimes4WalkNtNtNtCscwCr4GBBztI_3syn3gen5visit5Visit15visit_expr_pathB8_, symObjAddr: 0x191F8, symBinAddr: 0x60AFC, symSize: 0x3C }
  - { offset: 0x8B5CE, size: 0x8, addend: 0x0, symName: __RNvYNtNvNtCslvhnBjKo0yW_26wasm_bindgen_macro_support6parser19assert_no_lifetimes4WalkNtNtNtCscwCr4GBBztI_3syn3gen5visit5Visit15visit_field_patB8_, symObjAddr: 0x19234, symBinAddr: 0x60B38, symSize: 0x3C }
  - { offset: 0x8B610, size: 0x8, addend: 0x0, symName: __RNvYNtNvNtCslvhnBjKo0yW_26wasm_bindgen_macro_support6parser19assert_no_lifetimes4WalkNtNtNtCscwCr4GBBztI_3syn3gen5visit5Visit15visit_impl_itemB8_, symObjAddr: 0x19270, symBinAddr: 0x60B74, symSize: 0x3C }
  - { offset: 0x8B652, size: 0x8, addend: 0x0, symName: __RNvYNtNvNtCslvhnBjKo0yW_26wasm_bindgen_macro_support6parser19assert_no_lifetimes4WalkNtNtNtCscwCr4GBBztI_3syn3gen5visit5Visit15visit_item_enumB8_, symObjAddr: 0x192AC, symBinAddr: 0x60BB0, symSize: 0x3C }
  - { offset: 0x8B694, size: 0x8, addend: 0x0, symName: __RNvYNtNvNtCslvhnBjKo0yW_26wasm_bindgen_macro_support6parser19assert_no_lifetimes4WalkNtNtNtCscwCr4GBBztI_3syn3gen5visit5Visit15visit_item_implB8_, symObjAddr: 0x192E8, symBinAddr: 0x60BEC, symSize: 0x3C }
  - { offset: 0x8B6D6, size: 0x8, addend: 0x0, symName: __RNvYNtNvNtCslvhnBjKo0yW_26wasm_bindgen_macro_support6parser19assert_no_lifetimes4WalkNtNtNtCscwCr4GBBztI_3syn3gen5visit5Visit15visit_item_typeB8_, symObjAddr: 0x19324, symBinAddr: 0x60C28, symSize: 0x3C }
  - { offset: 0x8B718, size: 0x8, addend: 0x0, symName: __RNvYNtNvNtCslvhnBjKo0yW_26wasm_bindgen_macro_support6parser19assert_no_lifetimes4WalkNtNtNtCscwCr4GBBztI_3syn3gen5visit5Visit15visit_lit_floatB8_, symObjAddr: 0x19360, symBinAddr: 0x60C64, symSize: 0x3C }
  - { offset: 0x8B75A, size: 0x8, addend: 0x0, symName: __RNvYNtNvNtCslvhnBjKo0yW_26wasm_bindgen_macro_support6parser19assert_no_lifetimes4WalkNtNtNtCscwCr4GBBztI_3syn3gen5visit5Visit15visit_meta_listB8_, symObjAddr: 0x1939C, symBinAddr: 0x60CA0, symSize: 0x3C }
  - { offset: 0x8B79C, size: 0x8, addend: 0x0, symName: __RNvYNtNvNtCslvhnBjKo0yW_26wasm_bindgen_macro_support6parser19assert_no_lifetimes4WalkNtNtNtCscwCr4GBBztI_3syn3gen5visit5Visit15visit_pat_identB8_, symObjAddr: 0x193D8, symBinAddr: 0x60CDC, symSize: 0x3C }
  - { offset: 0x8B7DE, size: 0x8, addend: 0x0, symName: __RNvYNtNvNtCslvhnBjKo0yW_26wasm_bindgen_macro_support6parser19assert_no_lifetimes4WalkNtNtNtCscwCr4GBBztI_3syn3gen5visit5Visit15visit_pat_parenB8_, symObjAddr: 0x19414, symBinAddr: 0x60D18, symSize: 0x3C }
  - { offset: 0x8B820, size: 0x8, addend: 0x0, symName: __RNvYNtNvNtCslvhnBjKo0yW_26wasm_bindgen_macro_support6parser19assert_no_lifetimes4WalkNtNtNtCscwCr4GBBztI_3syn3gen5visit5Visit15visit_pat_sliceB8_, symObjAddr: 0x19450, symBinAddr: 0x60D54, symSize: 0x3C }
  - { offset: 0x8B862, size: 0x8, addend: 0x0, symName: __RNvYNtNvNtCslvhnBjKo0yW_26wasm_bindgen_macro_support6parser19assert_no_lifetimes4WalkNtNtNtCscwCr4GBBztI_3syn3gen5visit5Visit15visit_pat_tupleB8_, symObjAddr: 0x1948C, symBinAddr: 0x60D90, symSize: 0x3C }
  - { offset: 0x8B8A4, size: 0x8, addend: 0x0, symName: __RNvYNtNvNtCslvhnBjKo0yW_26wasm_bindgen_macro_support6parser19assert_no_lifetimes4WalkNtNtNtCscwCr4GBBztI_3syn3gen5visit5Visit15visit_signatureB8_, symObjAddr: 0x194C8, symBinAddr: 0x60DCC, symSize: 0x3C }
  - { offset: 0x8B8E6, size: 0x8, addend: 0x0, symName: __RNvYNtNvNtCslvhnBjKo0yW_26wasm_bindgen_macro_support6parser19assert_no_lifetimes4WalkNtNtNtCscwCr4GBBztI_3syn3gen5visit5Visit15visit_type_pathB8_, symObjAddr: 0x19504, symBinAddr: 0x60E08, symSize: 0x3C }
  - { offset: 0x8B928, size: 0x8, addend: 0x0, symName: __RNvYNtNvNtCslvhnBjKo0yW_26wasm_bindgen_macro_support6parser19assert_no_lifetimes4WalkNtNtNtCscwCr4GBBztI_3syn3gen5visit5Visit15visit_use_groupB8_, symObjAddr: 0x19540, symBinAddr: 0x60E44, symSize: 0x3C }
  - { offset: 0x8B96A, size: 0x8, addend: 0x0, symName: __RNvYNtNvNtCslvhnBjKo0yW_26wasm_bindgen_macro_support6parser19assert_no_lifetimes4WalkNtNtNtCscwCr4GBBztI_3syn3gen5visit5Visit16visit_assoc_typeB8_, symObjAddr: 0x1957C, symBinAddr: 0x60E80, symSize: 0x3C }
  - { offset: 0x8B9A9, size: 0x8, addend: 0x0, symName: __RNvYNtNvNtCslvhnBjKo0yW_26wasm_bindgen_macro_support6parser19assert_no_lifetimes4WalkNtNtNtCscwCr4GBBztI_3syn3gen5visit5Visit16visit_attr_styleB8_, symObjAddr: 0x195B8, symBinAddr: 0x60EBC, symSize: 0x3C }
  - { offset: 0x8B9E8, size: 0x8, addend: 0x0, symName: __RNvYNtNvNtCslvhnBjKo0yW_26wasm_bindgen_macro_support6parser19assert_no_lifetimes4WalkNtNtNtCscwCr4GBBztI_3syn3gen5visit5Visit16visit_constraintB8_, symObjAddr: 0x195F4, symBinAddr: 0x60EF8, symSize: 0x3C }
  - { offset: 0x8BA27, size: 0x8, addend: 0x0, symName: __RNvYNtNvNtCslvhnBjKo0yW_26wasm_bindgen_macro_support6parser19assert_no_lifetimes4WalkNtNtNtCscwCr4GBBztI_3syn3gen5visit5Visit16visit_expr_arrayB8_, symObjAddr: 0x19630, symBinAddr: 0x60F34, symSize: 0x3C }
  - { offset: 0x8BA66, size: 0x8, addend: 0x0, symName: __RNvYNtNvNtCslvhnBjKo0yW_26wasm_bindgen_macro_support6parser19assert_no_lifetimes4WalkNtNtNtCscwCr4GBBztI_3syn3gen5visit5Visit16visit_expr_asyncB8_, symObjAddr: 0x1966C, symBinAddr: 0x60F70, symSize: 0x3C }
  - { offset: 0x8BAA5, size: 0x8, addend: 0x0, symName: __RNvYNtNvNtCslvhnBjKo0yW_26wasm_bindgen_macro_support6parser19assert_no_lifetimes4WalkNtNtNtCscwCr4GBBztI_3syn3gen5visit5Visit16visit_expr_awaitB8_, symObjAddr: 0x196A8, symBinAddr: 0x60FAC, symSize: 0x3C }
  - { offset: 0x8BAE4, size: 0x8, addend: 0x0, symName: __RNvYNtNvNtCslvhnBjKo0yW_26wasm_bindgen_macro_support6parser19assert_no_lifetimes4WalkNtNtNtCscwCr4GBBztI_3syn3gen5visit5Visit16visit_expr_blockB8_, symObjAddr: 0x196E4, symBinAddr: 0x60FE8, symSize: 0x3C }
  - { offset: 0x8BB23, size: 0x8, addend: 0x0, symName: __RNvYNtNvNtCslvhnBjKo0yW_26wasm_bindgen_macro_support6parser19assert_no_lifetimes4WalkNtNtNtCscwCr4GBBztI_3syn3gen5visit5Visit16visit_expr_breakB8_, symObjAddr: 0x19720, symBinAddr: 0x61024, symSize: 0x3C }
  - { offset: 0x8BB62, size: 0x8, addend: 0x0, symName: __RNvYNtNvNtCslvhnBjKo0yW_26wasm_bindgen_macro_support6parser19assert_no_lifetimes4WalkNtNtNtCscwCr4GBBztI_3syn3gen5visit5Visit16visit_expr_constB8_, symObjAddr: 0x1975C, symBinAddr: 0x61060, symSize: 0x3C }
  - { offset: 0x8BBA1, size: 0x8, addend: 0x0, symName: __RNvYNtNvNtCslvhnBjKo0yW_26wasm_bindgen_macro_support6parser19assert_no_lifetimes4WalkNtNtNtCscwCr4GBBztI_3syn3gen5visit5Visit16visit_expr_fieldB8_, symObjAddr: 0x19798, symBinAddr: 0x6109C, symSize: 0x3C }
  - { offset: 0x8BBE0, size: 0x8, addend: 0x0, symName: __RNvYNtNvNtCslvhnBjKo0yW_26wasm_bindgen_macro_support6parser19assert_no_lifetimes4WalkNtNtNtCscwCr4GBBztI_3syn3gen5visit5Visit16visit_expr_groupB8_, symObjAddr: 0x197D4, symBinAddr: 0x610D8, symSize: 0x3C }
  - { offset: 0x8BC1F, size: 0x8, addend: 0x0, symName: __RNvYNtNvNtCslvhnBjKo0yW_26wasm_bindgen_macro_support6parser19assert_no_lifetimes4WalkNtNtNtCscwCr4GBBztI_3syn3gen5visit5Visit16visit_expr_indexB8_, symObjAddr: 0x19810, symBinAddr: 0x61114, symSize: 0x3C }
  - { offset: 0x8BC5E, size: 0x8, addend: 0x0, symName: __RNvYNtNvNtCslvhnBjKo0yW_26wasm_bindgen_macro_support6parser19assert_no_lifetimes4WalkNtNtNtCscwCr4GBBztI_3syn3gen5visit5Visit16visit_expr_inferB8_, symObjAddr: 0x1984C, symBinAddr: 0x61150, symSize: 0x3C }
  - { offset: 0x8BC9D, size: 0x8, addend: 0x0, symName: __RNvYNtNvNtCslvhnBjKo0yW_26wasm_bindgen_macro_support6parser19assert_no_lifetimes4WalkNtNtNtCscwCr4GBBztI_3syn3gen5visit5Visit16visit_expr_macroB8_, symObjAddr: 0x19888, symBinAddr: 0x6118C, symSize: 0x3C }
  - { offset: 0x8BCDC, size: 0x8, addend: 0x0, symName: __RNvYNtNvNtCslvhnBjKo0yW_26wasm_bindgen_macro_support6parser19assert_no_lifetimes4WalkNtNtNtCscwCr4GBBztI_3syn3gen5visit5Visit16visit_expr_matchB8_, symObjAddr: 0x198C4, symBinAddr: 0x611C8, symSize: 0x3C }
  - { offset: 0x8BD1B, size: 0x8, addend: 0x0, symName: __RNvYNtNvNtCslvhnBjKo0yW_26wasm_bindgen_macro_support6parser19assert_no_lifetimes4WalkNtNtNtCscwCr4GBBztI_3syn3gen5visit5Visit16visit_expr_parenB8_, symObjAddr: 0x19900, symBinAddr: 0x61204, symSize: 0x3C }
  - { offset: 0x8BD5D, size: 0x8, addend: 0x0, symName: __RNvYNtNvNtCslvhnBjKo0yW_26wasm_bindgen_macro_support6parser19assert_no_lifetimes4WalkNtNtNtCscwCr4GBBztI_3syn3gen5visit5Visit16visit_expr_rangeB8_, symObjAddr: 0x1993C, symBinAddr: 0x61240, symSize: 0x3C }
  - { offset: 0x8BD9F, size: 0x8, addend: 0x0, symName: __RNvYNtNvNtCslvhnBjKo0yW_26wasm_bindgen_macro_support6parser19assert_no_lifetimes4WalkNtNtNtCscwCr4GBBztI_3syn3gen5visit5Visit16visit_expr_tupleB8_, symObjAddr: 0x19978, symBinAddr: 0x6127C, symSize: 0x3C }
  - { offset: 0x8BDE1, size: 0x8, addend: 0x0, symName: __RNvYNtNvNtCslvhnBjKo0yW_26wasm_bindgen_macro_support6parser19assert_no_lifetimes4WalkNtNtNtCscwCr4GBBztI_3syn3gen5visit5Visit16visit_expr_unaryB8_, symObjAddr: 0x199B4, symBinAddr: 0x612B8, symSize: 0x3C }
  - { offset: 0x8BE23, size: 0x8, addend: 0x0, symName: __RNvYNtNvNtCslvhnBjKo0yW_26wasm_bindgen_macro_support6parser19assert_no_lifetimes4WalkNtNtNtCscwCr4GBBztI_3syn3gen5visit5Visit16visit_expr_whileB8_, symObjAddr: 0x199F0, symBinAddr: 0x612F4, symSize: 0x3C }
  - { offset: 0x8BE65, size: 0x8, addend: 0x0, symName: __RNvYNtNvNtCslvhnBjKo0yW_26wasm_bindgen_macro_support6parser19assert_no_lifetimes4WalkNtNtNtCscwCr4GBBztI_3syn3gen5visit5Visit16visit_expr_yieldB8_, symObjAddr: 0x19A2C, symBinAddr: 0x61330, symSize: 0x3C }
  - { offset: 0x8BEA7, size: 0x8, addend: 0x0, symName: __RNvYNtNvNtCslvhnBjKo0yW_26wasm_bindgen_macro_support6parser19assert_no_lifetimes4WalkNtNtNtCscwCr4GBBztI_3syn3gen5visit5Visit16visit_item_constB8_, symObjAddr: 0x19A68, symBinAddr: 0x6136C, symSize: 0x3C }
  - { offset: 0x8BEE9, size: 0x8, addend: 0x0, symName: __RNvYNtNvNtCslvhnBjKo0yW_26wasm_bindgen_macro_support6parser19assert_no_lifetimes4WalkNtNtNtCscwCr4GBBztI_3syn3gen5visit5Visit16visit_item_macroB8_, symObjAddr: 0x19AA4, symBinAddr: 0x613A8, symSize: 0x3C }
  - { offset: 0x8BF2B, size: 0x8, addend: 0x0, symName: __RNvYNtNvNtCslvhnBjKo0yW_26wasm_bindgen_macro_support6parser19assert_no_lifetimes4WalkNtNtNtCscwCr4GBBztI_3syn3gen5visit5Visit16visit_item_traitB8_, symObjAddr: 0x19AE0, symBinAddr: 0x613E4, symSize: 0x3C }
  - { offset: 0x8BF6D, size: 0x8, addend: 0x0, symName: __RNvYNtNvNtCslvhnBjKo0yW_26wasm_bindgen_macro_support6parser19assert_no_lifetimes4WalkNtNtNtCscwCr4GBBztI_3syn3gen5visit5Visit16visit_item_unionB8_, symObjAddr: 0x19B1C, symBinAddr: 0x61420, symSize: 0x3C }
  - { offset: 0x8BFAF, size: 0x8, addend: 0x0, symName: __RNvYNtNvNtCslvhnBjKo0yW_26wasm_bindgen_macro_support6parser19assert_no_lifetimes4WalkNtNtNtCscwCr4GBBztI_3syn3gen5visit5Visit16visit_local_initB8_, symObjAddr: 0x19B58, symBinAddr: 0x6145C, symSize: 0x3C }
  - { offset: 0x8BFF1, size: 0x8, addend: 0x0, symName: __RNvYNtNvNtCslvhnBjKo0yW_26wasm_bindgen_macro_support6parser19assert_no_lifetimes4WalkNtNtNtCscwCr4GBBztI_3syn3gen5visit5Visit16visit_pat_structB8_, symObjAddr: 0x19B94, symBinAddr: 0x61498, symSize: 0x3C }
  - { offset: 0x8C033, size: 0x8, addend: 0x0, symName: __RNvYNtNvNtCslvhnBjKo0yW_26wasm_bindgen_macro_support6parser19assert_no_lifetimes4WalkNtNtNtCscwCr4GBBztI_3syn3gen5visit5Visit16visit_stmt_macroB8_, symObjAddr: 0x19BD0, symBinAddr: 0x614D4, symSize: 0x3C }
  - { offset: 0x8C075, size: 0x8, addend: 0x0, symName: __RNvYNtNvNtCslvhnBjKo0yW_26wasm_bindgen_macro_support6parser19assert_no_lifetimes4WalkNtNtNtCscwCr4GBBztI_3syn3gen5visit5Visit16visit_trait_itemB8_, symObjAddr: 0x19C0C, symBinAddr: 0x61510, symSize: 0x3C }
  - { offset: 0x8C0B7, size: 0x8, addend: 0x0, symName: __RNvYNtNvNtCslvhnBjKo0yW_26wasm_bindgen_macro_support6parser19assert_no_lifetimes4WalkNtNtNtCscwCr4GBBztI_3syn3gen5visit5Visit16visit_type_arrayB8_, symObjAddr: 0x19C48, symBinAddr: 0x6154C, symSize: 0x3C }
  - { offset: 0x8C0F9, size: 0x8, addend: 0x0, symName: __RNvYNtNvNtCslvhnBjKo0yW_26wasm_bindgen_macro_support6parser19assert_no_lifetimes4WalkNtNtNtCscwCr4GBBztI_3syn3gen5visit5Visit16visit_type_groupB8_, symObjAddr: 0x19C84, symBinAddr: 0x61588, symSize: 0x3C }
  - { offset: 0x8C13B, size: 0x8, addend: 0x0, symName: __RNvYNtNvNtCslvhnBjKo0yW_26wasm_bindgen_macro_support6parser19assert_no_lifetimes4WalkNtNtNtCscwCr4GBBztI_3syn3gen5visit5Visit16visit_type_inferB8_, symObjAddr: 0x19CC0, symBinAddr: 0x615C4, symSize: 0x3C }
  - { offset: 0x8C17D, size: 0x8, addend: 0x0, symName: __RNvYNtNvNtCslvhnBjKo0yW_26wasm_bindgen_macro_support6parser19assert_no_lifetimes4WalkNtNtNtCscwCr4GBBztI_3syn3gen5visit5Visit16visit_type_macroB8_, symObjAddr: 0x19CFC, symBinAddr: 0x61600, symSize: 0x3C }
  - { offset: 0x8C1BF, size: 0x8, addend: 0x0, symName: __RNvYNtNvNtCslvhnBjKo0yW_26wasm_bindgen_macro_support6parser19assert_no_lifetimes4WalkNtNtNtCscwCr4GBBztI_3syn3gen5visit5Visit16visit_type_neverB8_, symObjAddr: 0x19D38, symBinAddr: 0x6163C, symSize: 0x3C }
  - { offset: 0x8C201, size: 0x8, addend: 0x0, symName: __RNvYNtNvNtCslvhnBjKo0yW_26wasm_bindgen_macro_support6parser19assert_no_lifetimes4WalkNtNtNtCscwCr4GBBztI_3syn3gen5visit5Visit16visit_type_paramB8_, symObjAddr: 0x19D74, symBinAddr: 0x61678, symSize: 0x3C }
  - { offset: 0x8C243, size: 0x8, addend: 0x0, symName: __RNvYNtNvNtCslvhnBjKo0yW_26wasm_bindgen_macro_support6parser19assert_no_lifetimes4WalkNtNtNtCscwCr4GBBztI_3syn3gen5visit5Visit16visit_type_parenB8_, symObjAddr: 0x19DB0, symBinAddr: 0x616B4, symSize: 0x3C }
  - { offset: 0x8C285, size: 0x8, addend: 0x0, symName: __RNvYNtNvNtCslvhnBjKo0yW_26wasm_bindgen_macro_support6parser19assert_no_lifetimes4WalkNtNtNtCscwCr4GBBztI_3syn3gen5visit5Visit16visit_type_sliceB8_, symObjAddr: 0x19DEC, symBinAddr: 0x616F0, symSize: 0x3C }
  - { offset: 0x8C2C7, size: 0x8, addend: 0x0, symName: __RNvYNtNvNtCslvhnBjKo0yW_26wasm_bindgen_macro_support6parser19assert_no_lifetimes4WalkNtNtNtCscwCr4GBBztI_3syn3gen5visit5Visit16visit_type_tupleB8_, symObjAddr: 0x19E28, symBinAddr: 0x6172C, symSize: 0x3C }
  - { offset: 0x8C309, size: 0x8, addend: 0x0, symName: __RNvYNtNvNtCslvhnBjKo0yW_26wasm_bindgen_macro_support6parser19assert_no_lifetimes4WalkNtNtNtCscwCr4GBBztI_3syn3gen5visit5Visit16visit_use_renameB8_, symObjAddr: 0x19E64, symBinAddr: 0x61768, symSize: 0x3C }
  - { offset: 0x8C34B, size: 0x8, addend: 0x0, symName: __RNvYNtNvNtCslvhnBjKo0yW_26wasm_bindgen_macro_support6parser19assert_no_lifetimes4WalkNtNtNtCscwCr4GBBztI_3syn3gen5visit5Visit16visit_visibilityB8_, symObjAddr: 0x19EA0, symBinAddr: 0x617A4, symSize: 0x3C }
  - { offset: 0x8C38D, size: 0x8, addend: 0x0, symName: __RNvYNtNvNtCslvhnBjKo0yW_26wasm_bindgen_macro_support6parser19assert_no_lifetimes4WalkNtNtNtCscwCr4GBBztI_3syn3gen5visit5Visit17visit_assoc_constB8_, symObjAddr: 0x19EDC, symBinAddr: 0x617E0, symSize: 0x3C }
  - { offset: 0x8C3CC, size: 0x8, addend: 0x0, symName: __RNvYNtNvNtCslvhnBjKo0yW_26wasm_bindgen_macro_support6parser19assert_no_lifetimes4WalkNtNtNtCscwCr4GBBztI_3syn3gen5visit5Visit17visit_bare_fn_argB8_, symObjAddr: 0x19F18, symBinAddr: 0x6181C, symSize: 0x3C }
  - { offset: 0x8C40B, size: 0x8, addend: 0x0, symName: __RNvYNtNvNtCslvhnBjKo0yW_26wasm_bindgen_macro_support6parser19assert_no_lifetimes4WalkNtNtNtCscwCr4GBBztI_3syn3gen5visit5Visit17visit_const_paramB8_, symObjAddr: 0x19F54, symBinAddr: 0x61858, symSize: 0x3C }
  - { offset: 0x8C44A, size: 0x8, addend: 0x0, symName: __RNvYNtNvNtCslvhnBjKo0yW_26wasm_bindgen_macro_support6parser19assert_no_lifetimes4WalkNtNtNtCscwCr4GBBztI_3syn3gen5visit5Visit17visit_expr_assignB8_, symObjAddr: 0x19F90, symBinAddr: 0x61894, symSize: 0x3C }
  - { offset: 0x8C489, size: 0x8, addend: 0x0, symName: __RNvYNtNvNtCslvhnBjKo0yW_26wasm_bindgen_macro_support6parser19assert_no_lifetimes4WalkNtNtNtCscwCr4GBBztI_3syn3gen5visit5Visit17visit_expr_binaryB8_, symObjAddr: 0x19FCC, symBinAddr: 0x618D0, symSize: 0x3C }
  - { offset: 0x8C4C8, size: 0x8, addend: 0x0, symName: __RNvYNtNvNtCslvhnBjKo0yW_26wasm_bindgen_macro_support6parser19assert_no_lifetimes4WalkNtNtNtCscwCr4GBBztI_3syn3gen5visit5Visit17visit_expr_repeatB8_, symObjAddr: 0x1A008, symBinAddr: 0x6190C, symSize: 0x3C }
  - { offset: 0x8C50A, size: 0x8, addend: 0x0, symName: __RNvYNtNvNtCslvhnBjKo0yW_26wasm_bindgen_macro_support6parser19assert_no_lifetimes4WalkNtNtNtCscwCr4GBBztI_3syn3gen5visit5Visit17visit_expr_returnB8_, symObjAddr: 0x1A044, symBinAddr: 0x61948, symSize: 0x3C }
  - { offset: 0x8C54C, size: 0x8, addend: 0x0, symName: __RNvYNtNvNtCslvhnBjKo0yW_26wasm_bindgen_macro_support6parser19assert_no_lifetimes4WalkNtNtNtCscwCr4GBBztI_3syn3gen5visit5Visit17visit_expr_structB8_, symObjAddr: 0x1A080, symBinAddr: 0x61984, symSize: 0x3C }
  - { offset: 0x8C58E, size: 0x8, addend: 0x0, symName: __RNvYNtNvNtCslvhnBjKo0yW_26wasm_bindgen_macro_support6parser19assert_no_lifetimes4WalkNtNtNtCscwCr4GBBztI_3syn3gen5visit5Visit17visit_expr_unsafeB8_, symObjAddr: 0x1A0BC, symBinAddr: 0x619C0, symSize: 0x3C }
  - { offset: 0x8C5D0, size: 0x8, addend: 0x0, symName: __RNvYNtNvNtCslvhnBjKo0yW_26wasm_bindgen_macro_support6parser19assert_no_lifetimes4WalkNtNtNtCscwCr4GBBztI_3syn3gen5visit5Visit17visit_field_valueB8_, symObjAddr: 0x1A0F8, symBinAddr: 0x619FC, symSize: 0x3C }
  - { offset: 0x8C612, size: 0x8, addend: 0x0, symName: __RNvYNtNvNtCslvhnBjKo0yW_26wasm_bindgen_macro_support6parser19assert_no_lifetimes4WalkNtNtNtCscwCr4GBBztI_3syn3gen5visit5Visit17visit_item_staticB8_, symObjAddr: 0x1A134, symBinAddr: 0x61A38, symSize: 0x3C }
  - { offset: 0x8C654, size: 0x8, addend: 0x0, symName: __RNvYNtNvNtCslvhnBjKo0yW_26wasm_bindgen_macro_support6parser19assert_no_lifetimes4WalkNtNtNtCscwCr4GBBztI_3syn3gen5visit5Visit17visit_item_structB8_, symObjAddr: 0x1A170, symBinAddr: 0x61A74, symSize: 0x3C }
  - { offset: 0x8C696, size: 0x8, addend: 0x0, symName: __RNvYNtNvNtCslvhnBjKo0yW_26wasm_bindgen_macro_support6parser19assert_no_lifetimes4WalkNtNtNtCscwCr4GBBztI_3syn3gen5visit5Visit17visit_return_typeB8_, symObjAddr: 0x1A1AC, symBinAddr: 0x61AB0, symSize: 0x3C }
  - { offset: 0x8C6D8, size: 0x8, addend: 0x0, symName: __RNvYNtNvNtCslvhnBjKo0yW_26wasm_bindgen_macro_support6parser19assert_no_lifetimes4WalkNtNtNtCscwCr4GBBztI_3syn3gen5visit5Visit17visit_trait_boundB8_, symObjAddr: 0x1A1E8, symBinAddr: 0x61AEC, symSize: 0x3C }
  - { offset: 0x8C71A, size: 0x8, addend: 0x0, symName: __RNvYNtNvNtCslvhnBjKo0yW_26wasm_bindgen_macro_support6parser19assert_no_lifetimes4WalkNtNtNtCscwCr4GBBztI_3syn3gen5visit5Visit18visit_expr_closureB8_, symObjAddr: 0x1A224, symBinAddr: 0x61B28, symSize: 0x3C }
  - { offset: 0x8C759, size: 0x8, addend: 0x0, symName: __RNvYNtNvNtCslvhnBjKo0yW_26wasm_bindgen_macro_support6parser19assert_no_lifetimes4WalkNtNtNtCscwCr4GBBztI_3syn3gen5visit5Visit18visit_fields_namedB8_, symObjAddr: 0x1A260, symBinAddr: 0x61B64, symSize: 0x3C }
  - { offset: 0x8C79B, size: 0x8, addend: 0x0, symName: __RNvYNtNvNtCslvhnBjKo0yW_26wasm_bindgen_macro_support6parser19assert_no_lifetimes4WalkNtNtNtCscwCr4GBBztI_3syn3gen5visit5Visit18visit_foreign_itemB8_, symObjAddr: 0x1A29C, symBinAddr: 0x61BA0, symSize: 0x3C }
  - { offset: 0x8C7DD, size: 0x8, addend: 0x0, symName: __RNvYNtNvNtCslvhnBjKo0yW_26wasm_bindgen_macro_support6parser19assert_no_lifetimes4WalkNtNtNtCscwCr4GBBztI_3syn3gen5visit5Visit18visit_impl_item_fnB8_, symObjAddr: 0x1A2D8, symBinAddr: 0x61BDC, symSize: 0x3C }
  - { offset: 0x8C81F, size: 0x8, addend: 0x0, symName: __RNvYNtNvNtCslvhnBjKo0yW_26wasm_bindgen_macro_support6parser19assert_no_lifetimes4WalkNtNtNtCscwCr4GBBztI_3syn3gen5visit5Visit18visit_lit_byte_strB8_, symObjAddr: 0x1A314, symBinAddr: 0x61C18, symSize: 0x3C }
  - { offset: 0x8C861, size: 0x8, addend: 0x0, symName: __RNvYNtNvNtCslvhnBjKo0yW_26wasm_bindgen_macro_support6parser19assert_no_lifetimes4WalkNtNtNtCscwCr4GBBztI_3syn3gen5visit5Visit18visit_path_segmentB8_, symObjAddr: 0x1A350, symBinAddr: 0x61C54, symSize: 0x3C }
  - { offset: 0x8C8A3, size: 0x8, addend: 0x0, symName: __RNvYNtNvNtCslvhnBjKo0yW_26wasm_bindgen_macro_support6parser19assert_no_lifetimes4WalkNtNtNtCscwCr4GBBztI_3syn3gen5visit5Visit18visit_range_limitsB8_, symObjAddr: 0x1A38C, symBinAddr: 0x61C90, symSize: 0x3C }
  - { offset: 0x8C8E5, size: 0x8, addend: 0x0, symName: __RNvYNtNvNtCslvhnBjKo0yW_26wasm_bindgen_macro_support6parser19assert_no_lifetimes4WalkNtNtNtCscwCr4GBBztI_3syn3gen5visit5Visit18visit_token_streamB8_, symObjAddr: 0x1A3C8, symBinAddr: 0x61CCC, symSize: 0x24 }
  - { offset: 0x8C927, size: 0x8, addend: 0x0, symName: __RNvYNtNvNtCslvhnBjKo0yW_26wasm_bindgen_macro_support6parser19assert_no_lifetimes4WalkNtNtNtCscwCr4GBBztI_3syn3gen5visit5Visit18visit_type_bare_fnB8_, symObjAddr: 0x1A3EC, symBinAddr: 0x61CF0, symSize: 0x3C }
  - { offset: 0x8C969, size: 0x8, addend: 0x0, symName: __RNvYNtNvNtCslvhnBjKo0yW_26wasm_bindgen_macro_support6parser19assert_no_lifetimes4WalkNtNtNtCscwCr4GBBztI_3syn3gen5visit5Visit18visit_where_clauseB8_, symObjAddr: 0x1A428, symBinAddr: 0x61D2C, symSize: 0x3C }
  - { offset: 0x8C9AB, size: 0x8, addend: 0x0, symName: __RNvYNtNvNtCslvhnBjKo0yW_26wasm_bindgen_macro_support6parser19assert_no_lifetimes4WalkNtNtNtCscwCr4GBBztI_3syn3gen5visit5Visit19visit_bare_variadicB8_, symObjAddr: 0x1A464, symBinAddr: 0x61D68, symSize: 0x3C }
  - { offset: 0x8C9EA, size: 0x8, addend: 0x0, symName: __RNvYNtNvNtCslvhnBjKo0yW_26wasm_bindgen_macro_support6parser19assert_no_lifetimes4WalkNtNtNtCscwCr4GBBztI_3syn3gen5visit5Visit19visit_expr_continueB8_, symObjAddr: 0x1A4A0, symBinAddr: 0x61DA4, symSize: 0x3C }
  - { offset: 0x8CA29, size: 0x8, addend: 0x0, symName: __RNvYNtNvNtCslvhnBjKo0yW_26wasm_bindgen_macro_support6parser19assert_no_lifetimes4WalkNtNtNtCscwCr4GBBztI_3syn3gen5visit5Visit19visit_expr_for_loopB8_, symObjAddr: 0x1A4DC, symBinAddr: 0x61DE0, symSize: 0x3C }
  - { offset: 0x8CA68, size: 0x8, addend: 0x0, symName: __RNvYNtNvNtCslvhnBjKo0yW_26wasm_bindgen_macro_support6parser19assert_no_lifetimes4WalkNtNtNtCscwCr4GBBztI_3syn3gen5visit5Visit19visit_expr_raw_addrB8_, symObjAddr: 0x1A518, symBinAddr: 0x61E1C, symSize: 0x3C }
  - { offset: 0x8CAAA, size: 0x8, addend: 0x0, symName: __RNvYNtNvNtCslvhnBjKo0yW_26wasm_bindgen_macro_support6parser19assert_no_lifetimes4WalkNtNtNtCscwCr4GBBztI_3syn3gen5visit5Visit19visit_generic_paramB8_, symObjAddr: 0x1A554, symBinAddr: 0x61E58, symSize: 0x3C }
  - { offset: 0x8CAEC, size: 0x8, addend: 0x0, symName: __RNvYNtNvNtCslvhnBjKo0yW_26wasm_bindgen_macro_support6parser19assert_no_lifetimes4WalkNtNtNtCscwCr4GBBztI_3syn3gen5visit5Visit19visit_pat_referenceB8_, symObjAddr: 0x1A590, symBinAddr: 0x61E94, symSize: 0x3C }
  - { offset: 0x8CB2E, size: 0x8, addend: 0x0, symName: __RNvYNtNvNtCslvhnBjKo0yW_26wasm_bindgen_macro_support6parser19assert_no_lifetimes4WalkNtNtNtCscwCr4GBBztI_3syn3gen5visit5Visit19visit_trait_item_fnB8_, symObjAddr: 0x1A5CC, symBinAddr: 0x61ED0, symSize: 0x3C }
  - { offset: 0x8CB70, size: 0x8, addend: 0x0, symName: __RNvYNtNvNtCslvhnBjKo0yW_26wasm_bindgen_macro_support6parser19assert_no_lifetimes4WalkNtNtNtCscwCr4GBBztI_3syn3gen5visit5Visit20visit_captured_paramB8_, symObjAddr: 0x1A608, symBinAddr: 0x61F0C, symSize: 0x3C }
  - { offset: 0x8CBAF, size: 0x8, addend: 0x0, symName: __RNvYNtNvNtCslvhnBjKo0yW_26wasm_bindgen_macro_support6parser19assert_no_lifetimes4WalkNtNtNtCscwCr4GBBztI_3syn3gen5visit5Visit20visit_expr_referenceB8_, symObjAddr: 0x1A644, symBinAddr: 0x61F48, symSize: 0x3C }
  - { offset: 0x8CBF1, size: 0x8, addend: 0x0, symName: __RNvYNtNvNtCslvhnBjKo0yW_26wasm_bindgen_macro_support6parser19assert_no_lifetimes4WalkNtNtNtCscwCr4GBBztI_3syn3gen5visit5Visit20visit_expr_try_blockB8_, symObjAddr: 0x1A680, symBinAddr: 0x61F84, symSize: 0x3C }
  - { offset: 0x8CC33, size: 0x8, addend: 0x0, symName: __RNvYNtNvNtCslvhnBjKo0yW_26wasm_bindgen_macro_support6parser19assert_no_lifetimes4WalkNtNtNtCscwCr4GBBztI_3syn3gen5visit5Visit20visit_fields_unnamedB8_, symObjAddr: 0x1A6BC, symBinAddr: 0x61FC0, symSize: 0x3C }
  - { offset: 0x8CC75, size: 0x8, addend: 0x0, symName: __RNvYNtNvNtCslvhnBjKo0yW_26wasm_bindgen_macro_support6parser19assert_no_lifetimes4WalkNtNtNtCscwCr4GBBztI_3syn3gen5visit5Visit20visit_impl_item_typeB8_, symObjAddr: 0x1A6F8, symBinAddr: 0x61FFC, symSize: 0x3C }
  - { offset: 0x8CCB7, size: 0x8, addend: 0x0, symName: __RNvYNtNvNtCslvhnBjKo0yW_26wasm_bindgen_macro_support6parser19assert_no_lifetimes4WalkNtNtNtCscwCr4GBBztI_3syn3gen5visit5Visit20visit_lifetime_paramB8_, symObjAddr: 0x1A734, symBinAddr: 0x62038, symSize: 0x3C }
  - { offset: 0x8CCF9, size: 0x8, addend: 0x0, symName: __RNvYNtNvNtCslvhnBjKo0yW_26wasm_bindgen_macro_support6parser19assert_no_lifetimes4WalkNtNtNtCscwCr4GBBztI_3syn3gen5visit5Visit20visit_path_argumentsB8_, symObjAddr: 0x1A770, symBinAddr: 0x62074, symSize: 0x3C }
  - { offset: 0x8CD3B, size: 0x8, addend: 0x0, symName: __RNvYNtNvNtCslvhnBjKo0yW_26wasm_bindgen_macro_support6parser19assert_no_lifetimes4WalkNtNtNtCscwCr4GBBztI_3syn3gen5visit5Visit20visit_predicate_typeB8_, symObjAddr: 0x1A7AC, symBinAddr: 0x620B0, symSize: 0x3C }
  - { offset: 0x8CD7D, size: 0x8, addend: 0x0, symName: __RNvYNtNvNtCslvhnBjKo0yW_26wasm_bindgen_macro_support6parser19assert_no_lifetimes4WalkNtNtNtCscwCr4GBBztI_3syn3gen5visit5Visit20visit_type_referenceB8_, symObjAddr: 0x1A7E8, symBinAddr: 0x620EC, symSize: 0x3C }
  - { offset: 0x8CDBF, size: 0x8, addend: 0x0, symName: __RNvYNtNvNtCslvhnBjKo0yW_26wasm_bindgen_macro_support6parser19assert_no_lifetimes4WalkNtNtNtCscwCr4GBBztI_3syn3gen5visit5Visit20visit_vis_restrictedB8_, symObjAddr: 0x1A824, symBinAddr: 0x62128, symSize: 0x3C }
  - { offset: 0x8CE01, size: 0x8, addend: 0x0, symName: __RNvYNtNvNtCslvhnBjKo0yW_26wasm_bindgen_macro_support6parser19assert_no_lifetimes4WalkNtNtNtCscwCr4GBBztI_3syn3gen5visit5Visit21visit_bound_lifetimesB8_, symObjAddr: 0x1A860, symBinAddr: 0x62164, symSize: 0x3C }
  - { offset: 0x8CE40, size: 0x8, addend: 0x0, symName: __RNvYNtNvNtCslvhnBjKo0yW_26wasm_bindgen_macro_support6parser19assert_no_lifetimes4WalkNtNtNtCscwCr4GBBztI_3syn3gen5visit5Visit21visit_foreign_item_fnB8_, symObjAddr: 0x1A89C, symBinAddr: 0x621A0, symSize: 0x3C }
  - { offset: 0x8CE82, size: 0x8, addend: 0x0, symName: __RNvYNtNvNtCslvhnBjKo0yW_26wasm_bindgen_macro_support6parser19assert_no_lifetimes4WalkNtNtNtCscwCr4GBBztI_3syn3gen5visit5Visit21visit_impl_item_constB8_, symObjAddr: 0x1A8D8, symBinAddr: 0x621DC, symSize: 0x3C }
  - { offset: 0x8CEC4, size: 0x8, addend: 0x0, symName: __RNvYNtNvNtCslvhnBjKo0yW_26wasm_bindgen_macro_support6parser19assert_no_lifetimes4WalkNtNtNtCscwCr4GBBztI_3syn3gen5visit5Visit21visit_impl_item_macroB8_, symObjAddr: 0x1A914, symBinAddr: 0x62218, symSize: 0x3C }
  - { offset: 0x8CF06, size: 0x8, addend: 0x0, symName: __RNvYNtNvNtCslvhnBjKo0yW_26wasm_bindgen_macro_support6parser19assert_no_lifetimes4WalkNtNtNtCscwCr4GBBztI_3syn3gen5visit5Visit21visit_macro_delimiterB8_, symObjAddr: 0x1A950, symBinAddr: 0x62254, symSize: 0x3C }
  - { offset: 0x8CF48, size: 0x8, addend: 0x0, symName: __RNvYNtNvNtCslvhnBjKo0yW_26wasm_bindgen_macro_support6parser19assert_no_lifetimes4WalkNtNtNtCscwCr4GBBztI_3syn3gen5visit5Visit21visit_meta_name_valueB8_, symObjAddr: 0x1A98C, symBinAddr: 0x62290, symSize: 0x3C }
  - { offset: 0x8CF8A, size: 0x8, addend: 0x0, symName: __RNvYNtNvNtCslvhnBjKo0yW_26wasm_bindgen_macro_support6parser19assert_no_lifetimes4WalkNtNtNtCscwCr4GBBztI_3syn3gen5visit5Visit21visit_precise_captureB8_, symObjAddr: 0x1A9C8, symBinAddr: 0x622CC, symSize: 0x3C }
  - { offset: 0x8CFCC, size: 0x8, addend: 0x0, symName: __RNvYNtNvNtCslvhnBjKo0yW_26wasm_bindgen_macro_support6parser19assert_no_lifetimes4WalkNtNtNtCscwCr4GBBztI_3syn3gen5visit5Visit21visit_trait_item_typeB8_, symObjAddr: 0x1AA04, symBinAddr: 0x62308, symSize: 0x3C }
  - { offset: 0x8D00E, size: 0x8, addend: 0x0, symName: __RNvYNtNvNtCslvhnBjKo0yW_26wasm_bindgen_macro_support6parser19assert_no_lifetimes4WalkNtNtNtCscwCr4GBBztI_3syn3gen5visit5Visit21visit_type_impl_traitB8_, symObjAddr: 0x1AA40, symBinAddr: 0x62344, symSize: 0x3C }
  - { offset: 0x8D050, size: 0x8, addend: 0x0, symName: __RNvYNtNvNtCslvhnBjKo0yW_26wasm_bindgen_macro_support6parser19assert_no_lifetimes4WalkNtNtNtCscwCr4GBBztI_3syn3gen5visit5Visit21visit_where_predicateB8_, symObjAddr: 0x1AA7C, symBinAddr: 0x62380, symSize: 0x3C }
  - { offset: 0x8D092, size: 0x8, addend: 0x0, symName: __RNvYNtNvNtCslvhnBjKo0yW_26wasm_bindgen_macro_support6parser19assert_no_lifetimes4WalkNtNtNtCscwCr4GBBztI_3syn3gen5visit5Visit22visit_expr_method_callB8_, symObjAddr: 0x1AAB8, symBinAddr: 0x623BC, symSize: 0x3C }
  - { offset: 0x8D0D1, size: 0x8, addend: 0x0, symName: __RNvYNtNvNtCslvhnBjKo0yW_26wasm_bindgen_macro_support6parser19assert_no_lifetimes4WalkNtNtNtCscwCr4GBBztI_3syn3gen5visit5Visit22visit_field_mutabilityB8_, symObjAddr: 0x1AAF4, symBinAddr: 0x623F8, symSize: 0x3C }
  - { offset: 0x8D113, size: 0x8, addend: 0x0, symName: __RNvYNtNvNtCslvhnBjKo0yW_26wasm_bindgen_macro_support6parser19assert_no_lifetimes4WalkNtNtNtCscwCr4GBBztI_3syn3gen5visit5Visit22visit_generic_argumentB8_, symObjAddr: 0x1AB30, symBinAddr: 0x62434, symSize: 0x3C }
  - { offset: 0x8D155, size: 0x8, addend: 0x0, symName: __RNvYNtNvNtCslvhnBjKo0yW_26wasm_bindgen_macro_support6parser19assert_no_lifetimes4WalkNtNtNtCscwCr4GBBztI_3syn3gen5visit5Visit22visit_item_foreign_modB8_, symObjAddr: 0x1AB6C, symBinAddr: 0x62470, symSize: 0x3C }
  - { offset: 0x8D197, size: 0x8, addend: 0x0, symName: __RNvYNtNvNtCslvhnBjKo0yW_26wasm_bindgen_macro_support6parser19assert_no_lifetimes4WalkNtNtNtCscwCr4GBBztI_3syn3gen5visit5Visit22visit_item_trait_aliasB8_, symObjAddr: 0x1ABA8, symBinAddr: 0x624AC, symSize: 0x3C }
  - { offset: 0x8D1D9, size: 0x8, addend: 0x0, symName: __RNvYNtNvNtCslvhnBjKo0yW_26wasm_bindgen_macro_support6parser19assert_no_lifetimes4WalkNtNtNtCscwCr4GBBztI_3syn3gen5visit5Visit22visit_pat_tuple_structB8_, symObjAddr: 0x1ABE4, symBinAddr: 0x624E8, symSize: 0x3C }
  - { offset: 0x8D21B, size: 0x8, addend: 0x0, symName: __RNvYNtNvNtCslvhnBjKo0yW_26wasm_bindgen_macro_support6parser19assert_no_lifetimes4WalkNtNtNtCscwCr4GBBztI_3syn3gen5visit5Visit22visit_trait_item_constB8_, symObjAddr: 0x1AC20, symBinAddr: 0x62524, symSize: 0x3C }
  - { offset: 0x8D25D, size: 0x8, addend: 0x0, symName: __RNvYNtNvNtCslvhnBjKo0yW_26wasm_bindgen_macro_support6parser19assert_no_lifetimes4WalkNtNtNtCscwCr4GBBztI_3syn3gen5visit5Visit22visit_trait_item_macroB8_, symObjAddr: 0x1AC5C, symBinAddr: 0x62560, symSize: 0x3C }
  - { offset: 0x8D29F, size: 0x8, addend: 0x0, symName: __RNvYNtNvNtCslvhnBjKo0yW_26wasm_bindgen_macro_support6parser19assert_no_lifetimes4WalkNtNtNtCscwCr4GBBztI_3syn3gen5visit5Visit22visit_type_param_boundB8_, symObjAddr: 0x1AC98, symBinAddr: 0x6259C, symSize: 0x3C }
  - { offset: 0x8D2E1, size: 0x8, addend: 0x0, symName: __RNvYNtNvNtCslvhnBjKo0yW_26wasm_bindgen_macro_support6parser19assert_no_lifetimes4WalkNtNtNtCscwCr4GBBztI_3syn3gen5visit5Visit23visit_foreign_item_typeB8_, symObjAddr: 0x1ACD4, symBinAddr: 0x625D8, symSize: 0x3C }
  - { offset: 0x8D323, size: 0x8, addend: 0x0, symName: __RNvYNtNvNtCslvhnBjKo0yW_26wasm_bindgen_macro_support6parser19assert_no_lifetimes4WalkNtNtNtCscwCr4GBBztI_3syn3gen5visit5Visit23visit_item_extern_crateB8_, symObjAddr: 0x1AD10, symBinAddr: 0x62614, symSize: 0x3C }
  - { offset: 0x8D365, size: 0x8, addend: 0x0, symName: __RNvYNtNvNtCslvhnBjKo0yW_26wasm_bindgen_macro_support6parser19assert_no_lifetimes4WalkNtNtNtCscwCr4GBBztI_3syn3gen5visit5Visit23visit_static_mutabilityB8_, symObjAddr: 0x1AD4C, symBinAddr: 0x62650, symSize: 0x3C }
  - { offset: 0x8D3A7, size: 0x8, addend: 0x0, symName: __RNvYNtNvNtCslvhnBjKo0yW_26wasm_bindgen_macro_support6parser19assert_no_lifetimes4WalkNtNtNtCscwCr4GBBztI_3syn3gen5visit5Visit23visit_type_trait_objectB8_, symObjAddr: 0x1AD88, symBinAddr: 0x6268C, symSize: 0x3C }
  - { offset: 0x8D3E9, size: 0x8, addend: 0x0, symName: __RNvYNtNvNtCslvhnBjKo0yW_26wasm_bindgen_macro_support6parser19assert_no_lifetimes4WalkNtNtNtCscwCr4GBBztI_3syn3gen5visit5Visit24visit_foreign_item_macroB8_, symObjAddr: 0x1ADC4, symBinAddr: 0x626C8, symSize: 0x3C }
  - { offset: 0x8D42B, size: 0x8, addend: 0x0, symName: __RNvYNtNvNtCslvhnBjKo0yW_26wasm_bindgen_macro_support6parser19assert_no_lifetimes4WalkNtNtNtCscwCr4GBBztI_3syn3gen5visit5Visit24visit_pointer_mutabilityB8_, symObjAddr: 0x1AE00, symBinAddr: 0x62704, symSize: 0x3C }
  - { offset: 0x8D46D, size: 0x8, addend: 0x0, symName: __RNvYNtNvNtCslvhnBjKo0yW_26wasm_bindgen_macro_support6parser19assert_no_lifetimes4WalkNtNtNtCscwCr4GBBztI_3syn3gen5visit5Visit24visit_predicate_lifetimeB8_, symObjAddr: 0x1AE3C, symBinAddr: 0x62740, symSize: 0x3C }
  - { offset: 0x8D4AF, size: 0x8, addend: 0x0, symName: __RNvYNtNvNtCslvhnBjKo0yW_26wasm_bindgen_macro_support6parser19assert_no_lifetimes4WalkNtNtNtCscwCr4GBBztI_3syn3gen5visit5Visit25visit_foreign_item_staticB8_, symObjAddr: 0x1AE78, symBinAddr: 0x6277C, symSize: 0x3C }
  - { offset: 0x8D4F1, size: 0x8, addend: 0x0, symName: __RNvYNtNvNtCslvhnBjKo0yW_26wasm_bindgen_macro_support6parser19assert_no_lifetimes4WalkNtNtNtCscwCr4GBBztI_3syn3gen5visit5Visit26visit_trait_bound_modifierB8_, symObjAddr: 0x1AEB4, symBinAddr: 0x627B8, symSize: 0x3C }
  - { offset: 0x8D533, size: 0x8, addend: 0x0, symName: __RNvYNtNvNtCslvhnBjKo0yW_26wasm_bindgen_macro_support6parser19assert_no_lifetimes4WalkNtNtNtCscwCr4GBBztI_3syn3gen5visit5Visit37visit_parenthesized_generic_argumentsB8_, symObjAddr: 0x1AEF0, symBinAddr: 0x627F4, symSize: 0x3C }
  - { offset: 0x8D575, size: 0x8, addend: 0x0, symName: __RNvYNtNvNtCslvhnBjKo0yW_26wasm_bindgen_macro_support6parser19assert_no_lifetimes4WalkNtNtNtCscwCr4GBBztI_3syn3gen5visit5Visit39visit_angle_bracketed_generic_argumentsB8_, symObjAddr: 0x1AF2C, symBinAddr: 0x62830, symSize: 0x3C }
  - { offset: 0x8D5B4, size: 0x8, addend: 0x0, symName: __RNvYNtNvNtCslvhnBjKo0yW_26wasm_bindgen_macro_support6parser19assert_no_lifetimes4WalkNtNtNtCscwCr4GBBztI_3syn3gen5visit5Visit9visit_abiB8_, symObjAddr: 0x1AF68, symBinAddr: 0x6286C, symSize: 0x3C }
  - { offset: 0x8D5F3, size: 0x8, addend: 0x0, symName: __RNvYNtNvNtCslvhnBjKo0yW_26wasm_bindgen_macro_support6parser19assert_no_lifetimes4WalkNtNtNtCscwCr4GBBztI_3syn3gen5visit5Visit9visit_armB8_, symObjAddr: 0x1AFA4, symBinAddr: 0x628A8, symSize: 0x3C }
  - { offset: 0x8D632, size: 0x8, addend: 0x0, symName: __RNvYNtNvNtCslvhnBjKo0yW_26wasm_bindgen_macro_support6parser19assert_no_lifetimes4WalkNtNtNtCscwCr4GBBztI_3syn3gen5visit5Visit9visit_litB8_, symObjAddr: 0x1AFE0, symBinAddr: 0x628E4, symSize: 0x3C }
  - { offset: 0x8D674, size: 0x8, addend: 0x0, symName: __RNvYNtNvNtCslvhnBjKo0yW_26wasm_bindgen_macro_support6parser19assert_no_lifetimes4WalkNtNtNtCscwCr4GBBztI_3syn3gen5visit5Visit9visit_patB8_, symObjAddr: 0x1B01C, symBinAddr: 0x62920, symSize: 0x3C }
  - { offset: 0x9155D, size: 0x8, addend: 0x0, symName: __RNvMNtCs85QQFkKrybG_4core5sliceSNtNtCslvhnBjKo0yW_26wasm_bindgen_macro_support6parser11UnusedState4iterBy_, symObjAddr: 0x6FB0, symBinAddr: 0x4E8B4, symSize: 0x28 }
  - { offset: 0x920A5, size: 0x8, addend: 0x0, symName: __RNvXs1_NtNtNtCs85QQFkKrybG_4core3ops8function5implsQNCNCNvMNtCslvhnBjKo0yW_26wasm_bindgen_macro_support6parserNtBV_12BindgenAttrs10check_used00INtB7_5FnMutTRTINtNtBb_4cell4CellbENtBV_11BindgenAttrEEE8call_mutBX_, symObjAddr: 0x158A8, symBinAddr: 0x5D1AC, symSize: 0x30 }
  - { offset: 0x920F4, size: 0x8, addend: 0x0, symName: __RNvXs1_NtNtNtCs85QQFkKrybG_4core3ops8function5implsQNCNCNvNtCslvhnBjKo0yW_26wasm_bindgen_macro_support6parser20extract_doc_comments0s_0INtB7_5FnMutTNtCsfwj6t2KTYdc_11proc_macro29TokenTreeEE8call_mutBW_, symObjAddr: 0x158D8, symBinAddr: 0x5D1DC, symSize: 0x40 }
  - { offset: 0x940ED, size: 0x8, addend: 0x0, symName: __RNvNCNkNvNtCslvhnBjKo0yW_26wasm_bindgen_macro_support6parser5ATTRS003VAL, symObjAddr: 0x1EDF4, symBinAddr: 0x38C500, symSize: 0x0 }
  - { offset: 0x940FC, size: 0x8, addend: 0x0, symName: __RNCNkNvNtCslvhnBjKo0yW_26wasm_bindgen_macro_support6parser5ATTRS00B7_, symObjAddr: 0x2C00, symBinAddr: 0x4A504, symSize: 0x44 }
  - { offset: 0x9413A, size: 0x8, addend: 0x0, symName: __RNvNvNtCslvhnBjKo0yW_26wasm_bindgen_macro_support6parser5ATTRS6___initB5_, symObjAddr: 0xFAC0, symBinAddr: 0x573C4, symSize: 0x24 }
  - { offset: 0x941B5, size: 0x8, addend: 0x0, symName: __RNCNCNvMNtCslvhnBjKo0yW_26wasm_bindgen_macro_support6parserNtB6_12BindgenAttrs10check_used00B8_, symObjAddr: 0x0, symBinAddr: 0x47904, symSize: 0x88 }
  - { offset: 0x9420B, size: 0x8, addend: 0x0, symName: __RNCNCNvMNtCslvhnBjKo0yW_26wasm_bindgen_macro_support6parserNtB6_12BindgenAttrs10check_used0s_0B8_, symObjAddr: 0x88, symBinAddr: 0x4798C, symSize: 0x25EC }
  - { offset: 0x94EBA, size: 0x8, addend: 0x0, symName: __RNCNvMNtCslvhnBjKo0yW_26wasm_bindgen_macro_support6parserNtB4_12BindgenAttrs10check_used0B6_, symObjAddr: 0x2C44, symBinAddr: 0x4A548, symSize: 0x144 }
  - { offset: 0x94EF8, size: 0x8, addend: 0x0, symName: __RNCNvMNtCslvhnBjKo0yW_26wasm_bindgen_macro_support6parserNtB4_12BindgenAttrs10is_type_of0B6_, symObjAddr: 0x2D88, symBinAddr: 0x4A68C, symSize: 0xA0 }
  - { offset: 0x94F5C, size: 0x8, addend: 0x0, symName: __RNCNvMNtCslvhnBjKo0yW_26wasm_bindgen_macro_support6parserNtB4_12BindgenAttrs10raw_module0B6_, symObjAddr: 0x2E28, symBinAddr: 0x4A72C, symSize: 0xDC }
  - { offset: 0x94FD0, size: 0x8, addend: 0x0, symName: __RNCNvMNtCslvhnBjKo0yW_26wasm_bindgen_macro_support6parserNtB4_12BindgenAttrs10skip_jsdoc0B6_, symObjAddr: 0x2F04, symBinAddr: 0x4A808, symSize: 0xA0 }
  - { offset: 0x95034, size: 0x8, addend: 0x0, symName: __RNCNvMNtCslvhnBjKo0yW_26wasm_bindgen_macro_support6parserNtB4_12BindgenAttrs10structural0B6_, symObjAddr: 0x2FA4, symBinAddr: 0x4A8A8, symSize: 0xA0 }
  - { offset: 0x95098, size: 0x8, addend: 0x0, symName: __RNCNvMNtCslvhnBjKo0yW_26wasm_bindgen_macro_support6parserNtB4_12BindgenAttrs11constructor0B6_, symObjAddr: 0x3044, symBinAddr: 0x4A948, symSize: 0xA0 }
  - { offset: 0x950FC, size: 0x8, addend: 0x0, symName: __RNCNvMNtCslvhnBjKo0yW_26wasm_bindgen_macro_support6parserNtB4_12BindgenAttrs11inspectable0B6_, symObjAddr: 0x30E4, symBinAddr: 0x4A9E8, symSize: 0xA0 }
  - { offset: 0x95160, size: 0x8, addend: 0x0, symName: __RNCNvMNtCslvhnBjKo0yW_26wasm_bindgen_macro_support6parserNtB4_12BindgenAttrs12enforce_used0B6_, symObjAddr: 0x3184, symBinAddr: 0x4AA88, symSize: 0x68 }
  - { offset: 0x9519F, size: 0x8, addend: 0x0, symName: __RNCNvMNtCslvhnBjKo0yW_26wasm_bindgen_macro_support6parserNtB4_12BindgenAttrs12js_namespace0B6_, symObjAddr: 0x31EC, symBinAddr: 0x4AAF0, symSize: 0x130 }
  - { offset: 0x9520B, size: 0x8, addend: 0x0, symName: __RNCNvMNtCslvhnBjKo0yW_26wasm_bindgen_macro_support6parserNtB4_12BindgenAttrs12thread_local0B6_, symObjAddr: 0x331C, symBinAddr: 0x4AC20, symSize: 0xA0 }
  - { offset: 0x9526F, size: 0x8, addend: 0x0, symName: __RNCNvMNtCslvhnBjKo0yW_26wasm_bindgen_macro_support6parserNtB4_12BindgenAttrs12wasm_bindgen0B6_, symObjAddr: 0x33BC, symBinAddr: 0x4ACC0, symSize: 0xA0 }
  - { offset: 0x952D3, size: 0x8, addend: 0x0, symName: __RNCNvMNtCslvhnBjKo0yW_26wasm_bindgen_macro_support6parserNtB4_12BindgenAttrs13static_string0B6_, symObjAddr: 0x345C, symBinAddr: 0x4AD60, symSize: 0xA0 }
  - { offset: 0x95337, size: 0x8, addend: 0x0, symName: __RNCNvMNtCslvhnBjKo0yW_26wasm_bindgen_macro_support6parserNtB4_12BindgenAttrs14assert_no_shim0B6_, symObjAddr: 0x34FC, symBinAddr: 0x4AE00, symSize: 0xA0 }
  - { offset: 0x9539B, size: 0x8, addend: 0x0, symName: __RNCNvMNtCslvhnBjKo0yW_26wasm_bindgen_macro_support6parserNtB4_12BindgenAttrs15indexing_getter0B6_, symObjAddr: 0x359C, symBinAddr: 0x4AEA0, symSize: 0xA0 }
  - { offset: 0x953FF, size: 0x8, addend: 0x0, symName: __RNCNvMNtCslvhnBjKo0yW_26wasm_bindgen_macro_support6parserNtB4_12BindgenAttrs15indexing_setter0B6_, symObjAddr: 0x363C, symBinAddr: 0x4AF40, symSize: 0xA0 }
  - { offset: 0x95463, size: 0x8, addend: 0x0, symName: __RNCNvMNtCslvhnBjKo0yW_26wasm_bindgen_macro_support6parserNtB4_12BindgenAttrs15skip_typescript0B6_, symObjAddr: 0x36DC, symBinAddr: 0x4AFE0, symSize: 0xA0 }
  - { offset: 0x954C7, size: 0x8, addend: 0x0, symName: __RNCNvMNtCslvhnBjKo0yW_26wasm_bindgen_macro_support6parserNtB4_12BindgenAttrs15thread_local_v20B6_, symObjAddr: 0x377C, symBinAddr: 0x4B080, symSize: 0xA0 }
  - { offset: 0x9552B, size: 0x8, addend: 0x0, symName: __RNCNvMNtCslvhnBjKo0yW_26wasm_bindgen_macro_support6parserNtB4_12BindgenAttrs15typescript_type0B6_, symObjAddr: 0x381C, symBinAddr: 0x4B120, symSize: 0xDC }
  - { offset: 0x9559F, size: 0x8, addend: 0x0, symName: __RNCNvMNtCslvhnBjKo0yW_26wasm_bindgen_macro_support6parserNtB4_12BindgenAttrs16get_thread_local0B6_, symObjAddr: 0x38F8, symBinAddr: 0x4B1FC, symSize: 0x18 }
  - { offset: 0x955E1, size: 0x8, addend: 0x0, symName: __RNCNvMNtCslvhnBjKo0yW_26wasm_bindgen_macro_support6parserNtB4_12BindgenAttrs16indexing_deleter0B6_, symObjAddr: 0x3910, symBinAddr: 0x4B214, symSize: 0xA0 }
  - { offset: 0x95645, size: 0x8, addend: 0x0, symName: __RNCNvMNtCslvhnBjKo0yW_26wasm_bindgen_macro_support6parserNtB4_12BindgenAttrs16static_method_of0B6_, symObjAddr: 0x39B0, symBinAddr: 0x4B2B4, symSize: 0xA0 }
  - { offset: 0x956A9, size: 0x8, addend: 0x0, symName: __RNCNvMNtCslvhnBjKo0yW_26wasm_bindgen_macro_support6parserNtB4_12BindgenAttrs17getter_with_clone0B6_, symObjAddr: 0x3A50, symBinAddr: 0x4B354, symSize: 0xA0 }
  - { offset: 0x9570D, size: 0x8, addend: 0x0, symName: __RNCNvMNtCslvhnBjKo0yW_26wasm_bindgen_macro_support6parserNtB4_12BindgenAttrs17param_description0B6_, symObjAddr: 0x3AF0, symBinAddr: 0x4B3F4, symSize: 0xDC }
  - { offset: 0x95781, size: 0x8, addend: 0x0, symName: __RNCNvMNtCslvhnBjKo0yW_26wasm_bindgen_macro_support6parserNtB4_12BindgenAttrs18return_description0B6_, symObjAddr: 0x3BCC, symBinAddr: 0x4B4D0, symSize: 0xDC }
  - { offset: 0x957F5, size: 0x8, addend: 0x0, symName: __RNCNvMNtCslvhnBjKo0yW_26wasm_bindgen_macro_support6parserNtB4_12BindgenAttrs20unchecked_param_type0B6_, symObjAddr: 0x3CA8, symBinAddr: 0x4B5AC, symSize: 0xDC }
  - { offset: 0x95869, size: 0x8, addend: 0x0, symName: __RNCNvMNtCslvhnBjKo0yW_26wasm_bindgen_macro_support6parserNtB4_12BindgenAttrs20wasm_bindgen_futures0B6_, symObjAddr: 0x3D84, symBinAddr: 0x4B688, symSize: 0xA0 }
  - { offset: 0x958CD, size: 0x8, addend: 0x0, symName: __RNCNvMNtCslvhnBjKo0yW_26wasm_bindgen_macro_support6parserNtB4_12BindgenAttrs21unchecked_return_type0B6_, symObjAddr: 0x3E24, symBinAddr: 0x4B728, symSize: 0xDC }
  - { offset: 0x95941, size: 0x8, addend: 0x0, symName: __RNCNvMNtCslvhnBjKo0yW_26wasm_bindgen_macro_support6parserNtB4_12BindgenAttrs25typescript_custom_section0B6_, symObjAddr: 0x3F00, symBinAddr: 0x4B804, symSize: 0xA0 }
  - { offset: 0x959A5, size: 0x8, addend: 0x0, symName: __RNCNvMNtCslvhnBjKo0yW_26wasm_bindgen_macro_support6parserNtB4_12BindgenAttrs4find0B6_, symObjAddr: 0x3FA0, symBinAddr: 0x4B8A4, symSize: 0x60 }
  - { offset: 0x959F0, size: 0x8, addend: 0x0, symName: __RNCNvMNtCslvhnBjKo0yW_26wasm_bindgen_macro_support6parserNtB4_12BindgenAttrs4finds_0B6_, symObjAddr: 0x4000, symBinAddr: 0x4B904, symSize: 0x14 }
  - { offset: 0x95A3D, size: 0x8, addend: 0x0, symName: __RNCNvMNtCslvhnBjKo0yW_26wasm_bindgen_macro_support6parserNtB4_12BindgenAttrs4main0B6_, symObjAddr: 0x4014, symBinAddr: 0x4B918, symSize: 0xA0 }
  - { offset: 0x95AA1, size: 0x8, addend: 0x0, symName: __RNCNvMNtCslvhnBjKo0yW_26wasm_bindgen_macro_support6parserNtB4_12BindgenAttrs4skip0B6_, symObjAddr: 0x40B4, symBinAddr: 0x4B9B8, symSize: 0xA0 }
  - { offset: 0x95B05, size: 0x8, addend: 0x0, symName: __RNCNvMNtCslvhnBjKo0yW_26wasm_bindgen_macro_support6parserNtB4_12BindgenAttrs5catch0B6_, symObjAddr: 0x4154, symBinAddr: 0x4BA58, symSize: 0x9C }
  - { offset: 0x95B69, size: 0x8, addend: 0x0, symName: __RNCNvMNtCslvhnBjKo0yW_26wasm_bindgen_macro_support6parserNtB4_12BindgenAttrs5final0B6_, symObjAddr: 0x41F0, symBinAddr: 0x4BAF4, symSize: 0xA0 }
  - { offset: 0x95BCD, size: 0x8, addend: 0x0, symName: __RNCNvMNtCslvhnBjKo0yW_26wasm_bindgen_macro_support6parserNtB4_12BindgenAttrs5start0B6_, symObjAddr: 0x4290, symBinAddr: 0x4BB94, symSize: 0xA0 }
  - { offset: 0x95C31, size: 0x8, addend: 0x0, symName: __RNCNvMNtCslvhnBjKo0yW_26wasm_bindgen_macro_support6parserNtB4_12BindgenAttrs6getter0B6_, symObjAddr: 0x4330, symBinAddr: 0x4BC34, symSize: 0xA0 }
  - { offset: 0x95C95, size: 0x8, addend: 0x0, symName: __RNCNvMNtCslvhnBjKo0yW_26wasm_bindgen_macro_support6parserNtB4_12BindgenAttrs6js_sys0B6_, symObjAddr: 0x43D0, symBinAddr: 0x4BCD4, symSize: 0xA0 }
  - { offset: 0x95CF9, size: 0x8, addend: 0x0, symName: __RNCNvMNtCslvhnBjKo0yW_26wasm_bindgen_macro_support6parserNtB4_12BindgenAttrs6method0B6_, symObjAddr: 0x4470, symBinAddr: 0x4BD74, symSize: 0xA0 }
  - { offset: 0x95D5D, size: 0x8, addend: 0x0, symName: __RNCNvMNtCslvhnBjKo0yW_26wasm_bindgen_macro_support6parserNtB4_12BindgenAttrs6module0B6_, symObjAddr: 0x4510, symBinAddr: 0x4BE14, symSize: 0xDC }
  - { offset: 0x95DD1, size: 0x8, addend: 0x0, symName: __RNCNvMNtCslvhnBjKo0yW_26wasm_bindgen_macro_support6parserNtB4_12BindgenAttrs6setter0B6_, symObjAddr: 0x45EC, symBinAddr: 0x4BEF0, symSize: 0xA0 }
  - { offset: 0x95E35, size: 0x8, addend: 0x0, symName: __RNCNvMNtCslvhnBjKo0yW_26wasm_bindgen_macro_support6parserNtB4_12BindgenAttrs7js_name0B6_, symObjAddr: 0x468C, symBinAddr: 0x4BF90, symSize: 0xDC }
  - { offset: 0x95EA9, size: 0x8, addend: 0x0, symName: __RNCNvMNtCslvhnBjKo0yW_26wasm_bindgen_macro_support6parserNtB4_12BindgenAttrs8js_class0B6_, symObjAddr: 0x4768, symBinAddr: 0x4C06C, symSize: 0xDC }
  - { offset: 0x95F1D, size: 0x8, addend: 0x0, symName: __RNCNvMNtCslvhnBjKo0yW_26wasm_bindgen_macro_support6parserNtB4_12BindgenAttrs8no_deref0B6_, symObjAddr: 0x4844, symBinAddr: 0x4C148, symSize: 0xA0 }
  - { offset: 0x95F81, size: 0x8, addend: 0x0, symName: __RNCNvMNtCslvhnBjKo0yW_26wasm_bindgen_macro_support6parserNtB4_12BindgenAttrs8readonly0B6_, symObjAddr: 0x48E4, symBinAddr: 0x4C1E8, symSize: 0xA0 }
  - { offset: 0x95FE5, size: 0x8, addend: 0x0, symName: __RNCNvMNtCslvhnBjKo0yW_26wasm_bindgen_macro_support6parserNtB4_12BindgenAttrs8variadic0B6_, symObjAddr: 0x4984, symBinAddr: 0x4C288, symSize: 0xA0 }
  - { offset: 0x96049, size: 0x8, addend: 0x0, symName: __RNCNvMNtCslvhnBjKo0yW_26wasm_bindgen_macro_support6parserNtB4_12BindgenAttrs9inline_js0B6_, symObjAddr: 0x4A24, symBinAddr: 0x4C328, symSize: 0xDC }
  - { offset: 0x960C3, size: 0x8, addend: 0x0, symName: __RNCNCNvNtCslvhnBjKo0yW_26wasm_bindgen_macro_support6parser18check_unused_attrs00B7_, symObjAddr: 0x2674, symBinAddr: 0x49F78, symSize: 0x310 }
  - { offset: 0x961DE, size: 0x8, addend: 0x0, symName: __RNCNvNtCslvhnBjKo0yW_26wasm_bindgen_macro_support6parser18check_unused_attrs0B5_, symObjAddr: 0x4BE4, symBinAddr: 0x4C4E8, symSize: 0x390 }
  - { offset: 0x96362, size: 0x8, addend: 0x0, symName: __RNCNCNvNtCslvhnBjKo0yW_26wasm_bindgen_macro_support6parser20extract_doc_comments00B7_, symObjAddr: 0x2984, symBinAddr: 0x4A288, symSize: 0x40 }
  - { offset: 0x9639B, size: 0x8, addend: 0x0, symName: __RNCNCNvNtCslvhnBjKo0yW_26wasm_bindgen_macro_support6parser20extract_doc_comments0s_0B7_, symObjAddr: 0x29C4, symBinAddr: 0x4A2C8, symSize: 0x1AC }
  - { offset: 0x96410, size: 0x8, addend: 0x0, symName: __RNCNvNtCslvhnBjKo0yW_26wasm_bindgen_macro_support6parser20extract_doc_comments0B5_, symObjAddr: 0x59A8, symBinAddr: 0x4D2AC, symSize: 0x1F0 }
  - { offset: 0x9649C, size: 0x8, addend: 0x0, symName: __RNCNvNtCslvhnBjKo0yW_26wasm_bindgen_macro_support6parser20extract_doc_commentss_0B5_, symObjAddr: 0x5B98, symBinAddr: 0x4D49C, symSize: 0x90 }
  - { offset: 0x96504, size: 0x8, addend: 0x0, symName: __RNCNCNvXsd_NtCslvhnBjKo0yW_26wasm_bindgen_macro_support6parserNtNtCscwCr4GBBztI_3syn4item8ItemEnumINtB9_10MacroParseTQNtCsfwj6t2KTYdc_11proc_macro211TokenStreamNtB9_12BindgenAttrsEE11macro_parses2_00Bb_, symObjAddr: 0x2B70, symBinAddr: 0x4A474, symSize: 0x14 }
  - { offset: 0x9654B, size: 0x8, addend: 0x0, symName: __RNCNCNvXsd_NtCslvhnBjKo0yW_26wasm_bindgen_macro_support6parserNtNtCscwCr4GBBztI_3syn4item8ItemEnumINtB9_10MacroParseTQNtCsfwj6t2KTYdc_11proc_macro211TokenStreamNtB9_12BindgenAttrsEE11macro_parses3_00Bb_, symObjAddr: 0x2B84, symBinAddr: 0x4A488, symSize: 0x2C }
  - { offset: 0x96585, size: 0x8, addend: 0x0, symName: __RNCNCNvXsd_NtCslvhnBjKo0yW_26wasm_bindgen_macro_support6parserNtNtCscwCr4GBBztI_3syn4item8ItemEnumINtB9_10MacroParseTQNtCsfwj6t2KTYdc_11proc_macro211TokenStreamNtB9_12BindgenAttrsEE11macro_parses3_0s_0Bb_, symObjAddr: 0x2BB0, symBinAddr: 0x4A4B4, symSize: 0x50 }
  - { offset: 0x965CD, size: 0x8, addend: 0x0, symName: __RNCNvXsd_NtCslvhnBjKo0yW_26wasm_bindgen_macro_support6parserNtNtCscwCr4GBBztI_3syn4item8ItemEnumINtB7_10MacroParseTQNtCsfwj6t2KTYdc_11proc_macro211TokenStreamNtB7_12BindgenAttrsEE11macro_parse0B9_, symObjAddr: 0x65B0, symBinAddr: 0x4DEB4, symSize: 0x18 }
  - { offset: 0x96606, size: 0x8, addend: 0x0, symName: __RNCNvXsd_NtCslvhnBjKo0yW_26wasm_bindgen_macro_support6parserNtNtCscwCr4GBBztI_3syn4item8ItemEnumINtB7_10MacroParseTQNtCsfwj6t2KTYdc_11proc_macro211TokenStreamNtB7_12BindgenAttrsEE11macro_parses0_0B9_, symObjAddr: 0x65C8, symBinAddr: 0x4DECC, symSize: 0x38 }
  - { offset: 0x9663F, size: 0x8, addend: 0x0, symName: __RNCNvXsd_NtCslvhnBjKo0yW_26wasm_bindgen_macro_support6parserNtNtCscwCr4GBBztI_3syn4item8ItemEnumINtB7_10MacroParseTQNtCsfwj6t2KTYdc_11proc_macro211TokenStreamNtB7_12BindgenAttrsEE11macro_parses1_0B9_, symObjAddr: 0x6600, symBinAddr: 0x4DF04, symSize: 0xE8 }
  - { offset: 0x9668E, size: 0x8, addend: 0x0, symName: __RNCNvXsd_NtCslvhnBjKo0yW_26wasm_bindgen_macro_support6parserNtNtCscwCr4GBBztI_3syn4item8ItemEnumINtB7_10MacroParseTQNtCsfwj6t2KTYdc_11proc_macro211TokenStreamNtB7_12BindgenAttrsEE11macro_parses2_0B9_, symObjAddr: 0x66E8, symBinAddr: 0x4DFEC, symSize: 0xA4 }
  - { offset: 0x966E5, size: 0x8, addend: 0x0, symName: __RNCNvXsd_NtCslvhnBjKo0yW_26wasm_bindgen_macro_support6parserNtNtCscwCr4GBBztI_3syn4item8ItemEnumINtB7_10MacroParseTQNtCsfwj6t2KTYdc_11proc_macro211TokenStreamNtB7_12BindgenAttrsEE11macro_parses3_0B9_, symObjAddr: 0x678C, symBinAddr: 0x4E090, symSize: 0x688 }
  - { offset: 0x9693D, size: 0x8, addend: 0x0, symName: __RNCNvXsd_NtCslvhnBjKo0yW_26wasm_bindgen_macro_support6parserNtNtCscwCr4GBBztI_3syn4item8ItemEnumINtB7_10MacroParseTQNtCsfwj6t2KTYdc_11proc_macro211TokenStreamNtB7_12BindgenAttrsEE11macro_parses4_0B9_, symObjAddr: 0x6E14, symBinAddr: 0x4E718, symSize: 0x44 }
  - { offset: 0x9697D, size: 0x8, addend: 0x0, symName: __RNCNvXsd_NtCslvhnBjKo0yW_26wasm_bindgen_macro_support6parserNtNtCscwCr4GBBztI_3syn4item8ItemEnumINtB7_10MacroParseTQNtCsfwj6t2KTYdc_11proc_macro211TokenStreamNtB7_12BindgenAttrsEE11macro_parses_0B9_, symObjAddr: 0x6E58, symBinAddr: 0x4E75C, symSize: 0x34 }
  - { offset: 0x969D5, size: 0x8, addend: 0x0, symName: __RNCNvMsc_NtCslvhnBjKo0yW_26wasm_bindgen_macro_support6parserNtB7_12NumericValue9from_expr0B9_, symObjAddr: 0x4B00, symBinAddr: 0x4C404, symSize: 0x2C }
  - { offset: 0x96A1D, size: 0x8, addend: 0x0, symName: __RNCNvNtCslvhnBjKo0yW_26wasm_bindgen_macro_support6parser16reset_attrs_used0B5_, symObjAddr: 0x4B2C, symBinAddr: 0x4C430, symSize: 0xB8 }
  - { offset: 0x96A5F, size: 0x8, addend: 0x0, symName: __RNCNvNtCslvhnBjKo0yW_26wasm_bindgen_macro_support6parser18extract_args_attrs0B5_, symObjAddr: 0x4F74, symBinAddr: 0x4C878, symSize: 0x120 }
  - { offset: 0x96ABB, size: 0x8, addend: 0x0, symName: __RNCNvNtCslvhnBjKo0yW_26wasm_bindgen_macro_support6parser18extract_args_attrss0_0B5_, symObjAddr: 0x5094, symBinAddr: 0x4C998, symSize: 0x114 }
  - { offset: 0x96B36, size: 0x8, addend: 0x0, symName: __RNCNvNtCslvhnBjKo0yW_26wasm_bindgen_macro_support6parser18extract_args_attrss_0B5_, symObjAddr: 0x51A8, symBinAddr: 0x4CAAC, symSize: 0x114 }
  - { offset: 0x96BCC, size: 0x8, addend: 0x0, symName: __RNCNvNtCslvhnBjKo0yW_26wasm_bindgen_macro_support6parser18function_from_decl0B5_, symObjAddr: 0x52BC, symBinAddr: 0x4CBC0, symSize: 0x108 }
  - { offset: 0x96C41, size: 0x8, addend: 0x0, symName: __RNCNvNtCslvhnBjKo0yW_26wasm_bindgen_macro_support6parser18function_from_decls0_0B5_, symObjAddr: 0x53C4, symBinAddr: 0x4CCC8, symSize: 0x118 }
  - { offset: 0x96CBB, size: 0x8, addend: 0x0, symName: __RNCNvNtCslvhnBjKo0yW_26wasm_bindgen_macro_support6parser18function_from_decls1_0B5_, symObjAddr: 0x54DC, symBinAddr: 0x4CDE0, symSize: 0x118 }
  - { offset: 0x96D35, size: 0x8, addend: 0x0, symName: __RNCNvNtCslvhnBjKo0yW_26wasm_bindgen_macro_support6parser18function_from_decls2_0B5_, symObjAddr: 0x55F4, symBinAddr: 0x4CEF8, symSize: 0xF8 }
  - { offset: 0x96D92, size: 0x8, addend: 0x0, symName: __RNCNvNtCslvhnBjKo0yW_26wasm_bindgen_macro_support6parser18function_from_decls_0B5_, symObjAddr: 0x56EC, symBinAddr: 0x4CFF0, symSize: 0x2BC }
  - { offset: 0x96E3C, size: 0x8, addend: 0x0, symName: __RNvXNCNvNtCslvhnBjKo0yW_26wasm_bindgen_macro_support6parser18function_from_decl0NtB2_11SelfReplaceNtNtNtCscwCr4GBBztI_3syn3gen9visit_mut8VisitMut15visit_ident_mut, symObjAddr: 0xFAE4, symBinAddr: 0x573E8, symSize: 0xC4 }
  - { offset: 0x96EC1, size: 0x8, addend: 0x0, symName: __RNCNvNtCslvhnBjKo0yW_26wasm_bindgen_macro_support6parser22extract_first_ty_param0B5_, symObjAddr: 0x5C28, symBinAddr: 0x4D52C, symSize: 0x7C }
  - { offset: 0x96F0F, size: 0x8, addend: 0x0, symName: __RNCNvNtCslvhnBjKo0yW_26wasm_bindgen_macro_support6parser22extract_first_ty_params_0B5_, symObjAddr: 0x5CA4, symBinAddr: 0x4D5A8, symSize: 0x7C }
  - { offset: 0x96F63, size: 0x8, addend: 0x0, symName: __RNCNvNtCslvhnBjKo0yW_26wasm_bindgen_macro_support6parser26prepare_for_impl_recursion0B5_, symObjAddr: 0x5D20, symBinAddr: 0x4D624, symSize: 0x38 }
  - { offset: 0x96FAA, size: 0x8, addend: 0x0, symName: __RNCNvNtCslvhnBjKo0yW_26wasm_bindgen_macro_support6parser7link_to0B5_, symObjAddr: 0x5D58, symBinAddr: 0x4D65C, symSize: 0x48 }
  - { offset: 0x96FE6, size: 0x8, addend: 0x0, symName: __RNCNvXs0_NtCslvhnBjKo0yW_26wasm_bindgen_macro_support6parserNtB7_12BindgenAttrsNtNtCscwCr4GBBztI_3syn5parse5Parse5parse0B9_, symObjAddr: 0x5DA0, symBinAddr: 0x4D6A4, symSize: 0xB0 }
  - { offset: 0x97028, size: 0x8, addend: 0x0, symName: __RNvXs0_NtCslvhnBjKo0yW_26wasm_bindgen_macro_support6parserNtB5_12BindgenAttrsNtNtCscwCr4GBBztI_3syn5parse5Parse5parse, symObjAddr: 0xFC44, symBinAddr: 0x57548, symSize: 0x2AC }
  - { offset: 0x970CC, size: 0x8, addend: 0x0, symName: __RNCNvXs2_NtCslvhnBjKo0yW_26wasm_bindgen_macro_support6parserNtB7_8AnyIdentNtNtCscwCr4GBBztI_3syn5parse5Parse5parse0B9_, symObjAddr: 0x5E50, symBinAddr: 0x4D754, symSize: 0x158 }
  - { offset: 0x9713E, size: 0x8, addend: 0x0, symName: __RNvXs2_NtCslvhnBjKo0yW_26wasm_bindgen_macro_support6parserNtB5_8AnyIdentNtNtCscwCr4GBBztI_3syn5parse5Parse5parse, symObjAddr: 0x15918, symBinAddr: 0x5D21C, symSize: 0x34 }
  - { offset: 0x97177, size: 0x8, addend: 0x0, symName: __RNCNvXs3_NtCslvhnBjKo0yW_26wasm_bindgen_macro_support6parserQNtNtCscwCr4GBBztI_3syn4item10ItemStructINtB7_12ConvertToAstRNtNtB9_3ast7ProgramE7convert0B9_, symObjAddr: 0x5FA8, symBinAddr: 0x4D8AC, symSize: 0x38 }
  - { offset: 0x971C4, size: 0x8, addend: 0x0, symName: __RNCNvXs4_NtCslvhnBjKo0yW_26wasm_bindgen_macro_support6parserNtNtCscwCr4GBBztI_3syn4item13ForeignItemFnINtB7_12ConvertToAstTRNtNtB9_3ast7ProgramNtB7_12BindgenAttrsRINtNtCs85QQFkKrybG_4core6option6OptionNtB20_12ImportModuleEEE7convert0B9_, symObjAddr: 0x5FE0, symBinAddr: 0x4D8E4, symSize: 0x14 }
  - { offset: 0x971FD, size: 0x8, addend: 0x0, symName: __RNCNvXs4_NtCslvhnBjKo0yW_26wasm_bindgen_macro_support6parserNtNtCscwCr4GBBztI_3syn4item13ForeignItemFnINtB7_12ConvertToAstTRNtNtB9_3ast7ProgramNtB7_12BindgenAttrsRINtNtCs85QQFkKrybG_4core6option6OptionNtB20_12ImportModuleEEE7converts0_0B9_, symObjAddr: 0x5FF4, symBinAddr: 0x4D8F8, symSize: 0x7C }
  - { offset: 0x9724B, size: 0x8, addend: 0x0, symName: __RNCNvXs4_NtCslvhnBjKo0yW_26wasm_bindgen_macro_support6parserNtNtCscwCr4GBBztI_3syn4item13ForeignItemFnINtB7_12ConvertToAstTRNtNtB9_3ast7ProgramNtB7_12BindgenAttrsRINtNtCs85QQFkKrybG_4core6option6OptionNtB20_12ImportModuleEEE7converts1_0B9_, symObjAddr: 0x6070, symBinAddr: 0x4D974, symSize: 0x40 }
  - { offset: 0x97285, size: 0x8, addend: 0x0, symName: __RNCNvXs4_NtCslvhnBjKo0yW_26wasm_bindgen_macro_support6parserNtNtCscwCr4GBBztI_3syn4item13ForeignItemFnINtB7_12ConvertToAstTRNtNtB9_3ast7ProgramNtB7_12BindgenAttrsRINtNtCs85QQFkKrybG_4core6option6OptionNtB20_12ImportModuleEEE7converts2_0B9_, symObjAddr: 0x60B0, symBinAddr: 0x4D9B4, symSize: 0x34 }
  - { offset: 0x972B5, size: 0x8, addend: 0x0, symName: __RNCNvXs4_NtCslvhnBjKo0yW_26wasm_bindgen_macro_support6parserNtNtCscwCr4GBBztI_3syn4item13ForeignItemFnINtB7_12ConvertToAstTRNtNtB9_3ast7ProgramNtB7_12BindgenAttrsRINtNtCs85QQFkKrybG_4core6option6OptionNtB20_12ImportModuleEEE7converts3_0B9_, symObjAddr: 0x60E4, symBinAddr: 0x4D9E8, symSize: 0x40 }
  - { offset: 0x972EF, size: 0x8, addend: 0x0, symName: __RNCNvXs4_NtCslvhnBjKo0yW_26wasm_bindgen_macro_support6parserNtNtCscwCr4GBBztI_3syn4item13ForeignItemFnINtB7_12ConvertToAstTRNtNtB9_3ast7ProgramNtB7_12BindgenAttrsRINtNtCs85QQFkKrybG_4core6option6OptionNtB20_12ImportModuleEEE7converts4_0B9_, symObjAddr: 0x6124, symBinAddr: 0x4DA28, symSize: 0x34 }
  - { offset: 0x9731F, size: 0x8, addend: 0x0, symName: __RNCNvXs4_NtCslvhnBjKo0yW_26wasm_bindgen_macro_support6parserNtNtCscwCr4GBBztI_3syn4item13ForeignItemFnINtB7_12ConvertToAstTRNtNtB9_3ast7ProgramNtB7_12BindgenAttrsRINtNtCs85QQFkKrybG_4core6option6OptionNtB20_12ImportModuleEEE7converts5_0B9_, symObjAddr: 0x6158, symBinAddr: 0x4DA5C, symSize: 0x40 }
  - { offset: 0x97359, size: 0x8, addend: 0x0, symName: __RNCNvXs4_NtCslvhnBjKo0yW_26wasm_bindgen_macro_support6parserNtNtCscwCr4GBBztI_3syn4item13ForeignItemFnINtB7_12ConvertToAstTRNtNtB9_3ast7ProgramNtB7_12BindgenAttrsRINtNtCs85QQFkKrybG_4core6option6OptionNtB20_12ImportModuleEEE7converts6_0B9_, symObjAddr: 0x6198, symBinAddr: 0x4DA9C, symSize: 0x34 }
  - { offset: 0x97389, size: 0x8, addend: 0x0, symName: __RNCNvXs4_NtCslvhnBjKo0yW_26wasm_bindgen_macro_support6parserNtNtCscwCr4GBBztI_3syn4item13ForeignItemFnINtB7_12ConvertToAstTRNtNtB9_3ast7ProgramNtB7_12BindgenAttrsRINtNtCs85QQFkKrybG_4core6option6OptionNtB20_12ImportModuleEEE7converts7_0B9_, symObjAddr: 0x61CC, symBinAddr: 0x4DAD0, symSize: 0x164 }
  - { offset: 0x973DF, size: 0x8, addend: 0x0, symName: __RNCNvXs4_NtCslvhnBjKo0yW_26wasm_bindgen_macro_support6parserNtNtCscwCr4GBBztI_3syn4item13ForeignItemFnINtB7_12ConvertToAstTRNtNtB9_3ast7ProgramNtB7_12BindgenAttrsRINtNtCs85QQFkKrybG_4core6option6OptionNtB20_12ImportModuleEEE7converts8_0B9_, symObjAddr: 0x6330, symBinAddr: 0x4DC34, symSize: 0x88 }
  - { offset: 0x9742A, size: 0x8, addend: 0x0, symName: __RNCNvXs4_NtCslvhnBjKo0yW_26wasm_bindgen_macro_support6parserNtNtCscwCr4GBBztI_3syn4item13ForeignItemFnINtB7_12ConvertToAstTRNtNtB9_3ast7ProgramNtB7_12BindgenAttrsRINtNtCs85QQFkKrybG_4core6option6OptionNtB20_12ImportModuleEEE7converts_0B9_, symObjAddr: 0x63B8, symBinAddr: 0x4DCBC, symSize: 0x34 }
  - { offset: 0x97468, size: 0x8, addend: 0x0, symName: __RNvNCNvXs4_NtCslvhnBjKo0yW_26wasm_bindgen_macro_support6parserNtNtCscwCr4GBBztI_3syn4item13ForeignItemFnINtB9_12ConvertToAstTRNtNtBb_3ast7ProgramNtB9_12BindgenAttrsRINtNtCs85QQFkKrybG_4core6option6OptionNtB22_12ImportModuleEEE7converts7_08get_docs, symObjAddr: 0x901C, symBinAddr: 0x50920, symSize: 0x148 }
  - { offset: 0x974E3, size: 0x8, addend: 0x0, symName: __RNCNvXs5_NtCslvhnBjKo0yW_26wasm_bindgen_macro_support6parserNtNtCscwCr4GBBztI_3syn4item15ForeignItemTypeINtB7_12ConvertToAstTRNtNtB9_3ast7ProgramNtB7_12BindgenAttrsEE7convert0B9_, symObjAddr: 0x63EC, symBinAddr: 0x4DCF0, symSize: 0x18 }
  - { offset: 0x9751C, size: 0x8, addend: 0x0, symName: __RNCNvXs5_NtCslvhnBjKo0yW_26wasm_bindgen_macro_support6parserNtNtCscwCr4GBBztI_3syn4item15ForeignItemTypeINtB7_12ConvertToAstTRNtNtB9_3ast7ProgramNtB7_12BindgenAttrsEE7converts0_0B9_, symObjAddr: 0x6404, symBinAddr: 0x4DD08, symSize: 0x38 }
  - { offset: 0x97555, size: 0x8, addend: 0x0, symName: __RNCNvXs5_NtCslvhnBjKo0yW_26wasm_bindgen_macro_support6parserNtNtCscwCr4GBBztI_3syn4item15ForeignItemTypeINtB7_12ConvertToAstTRNtNtB9_3ast7ProgramNtB7_12BindgenAttrsEE7converts1_0B9_, symObjAddr: 0x643C, symBinAddr: 0x4DD40, symSize: 0x38 }
  - { offset: 0x9758F, size: 0x8, addend: 0x0, symName: __RNCNvXs5_NtCslvhnBjKo0yW_26wasm_bindgen_macro_support6parserNtNtCscwCr4GBBztI_3syn4item15ForeignItemTypeINtB7_12ConvertToAstTRNtNtB9_3ast7ProgramNtB7_12BindgenAttrsEE7converts2_0B9_, symObjAddr: 0x6474, symBinAddr: 0x4DD78, symSize: 0x30 }
  - { offset: 0x975E2, size: 0x8, addend: 0x0, symName: __RNCNvXs5_NtCslvhnBjKo0yW_26wasm_bindgen_macro_support6parserNtNtCscwCr4GBBztI_3syn4item15ForeignItemTypeINtB7_12ConvertToAstTRNtNtB9_3ast7ProgramNtB7_12BindgenAttrsEE7converts_0B9_, symObjAddr: 0x64A4, symBinAddr: 0x4DDA8, symSize: 0x34 }
  - { offset: 0x9763A, size: 0x8, addend: 0x0, symName: __RNCNvXs6_NtCslvhnBjKo0yW_26wasm_bindgen_macro_support6parserNtNtCscwCr4GBBztI_3syn4item17ForeignItemStaticINtB7_12ConvertToAstTRNtNtB9_3ast7ProgramNtB7_12BindgenAttrsRINtNtCs85QQFkKrybG_4core6option6OptionNtB24_12ImportModuleEEE7convert0B9_, symObjAddr: 0x64D8, symBinAddr: 0x4DDDC, symSize: 0x18 }
  - { offset: 0x97686, size: 0x8, addend: 0x0, symName: __RNCNvXs9_NtCslvhnBjKo0yW_26wasm_bindgen_macro_support6parserNtNtCscwCr4GBBztI_3syn4item4ItemINtB7_10MacroParseTINtNtCs85QQFkKrybG_4core6option6OptionNtB7_12BindgenAttrsEQNtCsfwj6t2KTYdc_11proc_macro211TokenStreamEE11macro_parse0B9_, symObjAddr: 0x64F0, symBinAddr: 0x4DDF4, symSize: 0x58 }
  - { offset: 0x976E4, size: 0x8, addend: 0x0, symName: __RNCNvXs_NtCslvhnBjKo0yW_26wasm_bindgen_macro_support6parserNtB6_12BindgenAttrsNtNtCs85QQFkKrybG_4core7default7Default7default0B8_, symObjAddr: 0x6548, symBinAddr: 0x4DE4C, symSize: 0x68 }
  - { offset: 0x97721, size: 0x8, addend: 0x0, symName: __RNvXs_NtCslvhnBjKo0yW_26wasm_bindgen_macro_support6parserNtB4_12BindgenAttrsNtNtCs85QQFkKrybG_4core7default7Default7default, symObjAddr: 0x1594C, symBinAddr: 0x5D250, symSize: 0x54 }
  - { offset: 0x9774A, size: 0x8, addend: 0x0, symName: __RNCNvXsf_NtCslvhnBjKo0yW_26wasm_bindgen_macro_support6parserNtNtCscwCr4GBBztI_3syn4item14ItemForeignModINtB7_10MacroParseNtB7_12BindgenAttrsE11macro_parse0B9_, symObjAddr: 0x6E8C, symBinAddr: 0x4E790, symSize: 0x88 }
  - { offset: 0x97783, size: 0x8, addend: 0x0, symName: __RNCNvXsf_NtCslvhnBjKo0yW_26wasm_bindgen_macro_support6parserNtNtCscwCr4GBBztI_3syn4item14ItemForeignModINtB7_10MacroParseNtB7_12BindgenAttrsE11macro_parses0_0B9_, symObjAddr: 0x6F14, symBinAddr: 0x4E818, symSize: 0x3C }
  - { offset: 0x977BF, size: 0x8, addend: 0x0, symName: __RNCNvXsf_NtCslvhnBjKo0yW_26wasm_bindgen_macro_support6parserNtNtCscwCr4GBBztI_3syn4item14ItemForeignModINtB7_10MacroParseNtB7_12BindgenAttrsE11macro_parses_0B9_, symObjAddr: 0x6F50, symBinAddr: 0x4E854, symSize: 0x20 }
  - { offset: 0x9780E, size: 0x8, addend: 0x0, symName: __RNCNvXsg_NtCslvhnBjKo0yW_26wasm_bindgen_macro_support6parserNtNtCscwCr4GBBztI_3syn4item11ForeignItemINtB7_10MacroParseNtB7_14ForeignItemCtxE11macro_parse0B9_, symObjAddr: 0x6F70, symBinAddr: 0x4E874, symSize: 0x20 }
  - { offset: 0x97843, size: 0x8, addend: 0x0, symName: __RNCNvXsg_NtCslvhnBjKo0yW_26wasm_bindgen_macro_support6parserNtNtCscwCr4GBBztI_3syn4item11ForeignItemINtB7_10MacroParseNtB7_14ForeignItemCtxE11macro_parses_0B9_, symObjAddr: 0x6F90, symBinAddr: 0x4E894, symSize: 0x20 }
  - { offset: 0x98451, size: 0x8, addend: 0x0, symName: __RNvNtCslvhnBjKo0yW_26wasm_bindgen_macro_support6parser11string_enum, symObjAddr: 0x9164, symBinAddr: 0x50A68, symSize: 0x7DC }
  - { offset: 0x985A2, size: 0x8, addend: 0x0, symName: __RNvNtCslvhnBjKo0yW_26wasm_bindgen_macro_support6parser12try_unescape, symObjAddr: 0x9940, symBinAddr: 0x51244, symSize: 0x4D8 }
  - { offset: 0x9867D, size: 0x8, addend: 0x0, symName: __RNvNtCslvhnBjKo0yW_26wasm_bindgen_macro_support6parser13is_js_keyword, symObjAddr: 0x9E18, symBinAddr: 0x5171C, symSize: 0x48 }
  - { offset: 0x986A9, size: 0x8, addend: 0x0, symName: __RNvNtCslvhnBjKo0yW_26wasm_bindgen_macro_support6parser14operation_kind, symObjAddr: 0x9E60, symBinAddr: 0x51764, symSize: 0x3D0 }
  - { offset: 0x9871A, size: 0x8, addend: 0x0, symName: __RNvNtCslvhnBjKo0yW_26wasm_bindgen_macro_support6parser15get_self_method, symObjAddr: 0xA230, symBinAddr: 0x51B34, symSize: 0x144 }
  - { offset: 0x9875F, size: 0x8, addend: 0x0, symName: __RNvNtCslvhnBjKo0yW_26wasm_bindgen_macro_support6parser16module_from_opts, symObjAddr: 0xA374, symBinAddr: 0x51C78, symSize: 0x774 }
  - { offset: 0x98908, size: 0x8, addend: 0x0, symName: __RNvNtCslvhnBjKo0yW_26wasm_bindgen_macro_support6parser16reset_attrs_used, symObjAddr: 0xAAE8, symBinAddr: 0x523EC, symSize: 0x2C }
  - { offset: 0x98922, size: 0x8, addend: 0x0, symName: __RNvNtCslvhnBjKo0yW_26wasm_bindgen_macro_support6parser16unescape_unicode, symObjAddr: 0xAB14, symBinAddr: 0x52418, symSize: 0x208 }
  - { offset: 0x989DE, size: 0x8, addend: 0x0, symName: __RNvNtCslvhnBjKo0yW_26wasm_bindgen_macro_support6parser18check_invalid_type, symObjAddr: 0xAD1C, symBinAddr: 0x52620, symSize: 0x140 }
  - { offset: 0x98A36, size: 0x8, addend: 0x0, symName: __RNvNtCslvhnBjKo0yW_26wasm_bindgen_macro_support6parser18check_unused_attrs, symObjAddr: 0xAE5C, symBinAddr: 0x52760, symSize: 0x40 }
  - { offset: 0x98A60, size: 0x8, addend: 0x0, symName: __RNvNtCslvhnBjKo0yW_26wasm_bindgen_macro_support6parser18extract_args_attrs, symObjAddr: 0xAE9C, symBinAddr: 0x527A0, symSize: 0x794 }
  - { offset: 0x98BFE, size: 0x8, addend: 0x0, symName: __RNvNtCslvhnBjKo0yW_26wasm_bindgen_macro_support6parser18extract_path_ident, symObjAddr: 0xB630, symBinAddr: 0x52F34, symSize: 0x2B4 }
  - { offset: 0x98CB4, size: 0x8, addend: 0x0, symName: __RNvNtCslvhnBjKo0yW_26wasm_bindgen_macro_support6parser18function_from_decl, symObjAddr: 0xB8E4, symBinAddr: 0x531E8, symSize: 0x1A64 }
  - { offset: 0x99087, size: 0x8, addend: 0x0, symName: __RNvNtCslvhnBjKo0yW_26wasm_bindgen_macro_support6parser19assert_no_lifetimes, symObjAddr: 0xD348, symBinAddr: 0x54C4C, symSize: 0xC4 }
  - { offset: 0x990CB, size: 0x8, addend: 0x0, symName: __RNvNtCslvhnBjKo0yW_26wasm_bindgen_macro_support6parser20extract_doc_comments, symObjAddr: 0xD40C, symBinAddr: 0x54D10, symSize: 0x68 }
  - { offset: 0x990F9, size: 0x8, addend: 0x0, symName: __RNvNtCslvhnBjKo0yW_26wasm_bindgen_macro_support6parser22check_js_comment_close, symObjAddr: 0xD474, symBinAddr: 0x54D78, symSize: 0xBC }
  - { offset: 0x99133, size: 0x8, addend: 0x0, symName: __RNvNtCslvhnBjKo0yW_26wasm_bindgen_macro_support6parser22extract_first_ty_param, symObjAddr: 0xD530, symBinAddr: 0x54E34, symSize: 0x558 }
  - { offset: 0x992E4, size: 0x8, addend: 0x0, symName: __RNvNtCslvhnBjKo0yW_26wasm_bindgen_macro_support6parser23is_non_value_js_keyword, symObjAddr: 0xDA88, symBinAddr: 0x5538C, symSize: 0xA0 }
  - { offset: 0x99310, size: 0x8, addend: 0x0, symName: __RNvNtCslvhnBjKo0yW_26wasm_bindgen_macro_support6parser26prepare_for_impl_recursion, symObjAddr: 0xDB28, symBinAddr: 0x5542C, symSize: 0x6C4 }
  - { offset: 0x994A5, size: 0x8, addend: 0x0, symName: __RNvNtCslvhnBjKo0yW_26wasm_bindgen_macro_support6parser4main, symObjAddr: 0xE1EC, symBinAddr: 0x55AF0, symSize: 0x11E8 }
  - { offset: 0x997A5, size: 0x8, addend: 0x0, symName: __RNvNtCslvhnBjKo0yW_26wasm_bindgen_macro_support6parser6get_ty, symObjAddr: 0xF3D4, symBinAddr: 0x56CD8, symSize: 0xD0 }
  - { offset: 0x997E9, size: 0x8, addend: 0x0, symName: __RNvNtCslvhnBjKo0yW_26wasm_bindgen_macro_support6parser7link_to, symObjAddr: 0xF4A4, symBinAddr: 0x56DA8, symSize: 0x558 }
  - { offset: 0x998D2, size: 0x8, addend: 0x0, symName: __RNvNtCslvhnBjKo0yW_26wasm_bindgen_macro_support6parser8get_expr, symObjAddr: 0xF9FC, symBinAddr: 0x57300, symSize: 0xC4 }
  - { offset: 0x99920, size: 0x8, addend: 0x0, symName: __RNvXNvNtCslvhnBjKo0yW_26wasm_bindgen_macro_support6parser19assert_no_lifetimesNtB2_4WalkNtNtNtCscwCr4GBBztI_3syn3gen5visit5Visit14visit_lifetime, symObjAddr: 0xFBA8, symBinAddr: 0x574AC, symSize: 0x9C }
  - { offset: 0x99993, size: 0x8, addend: 0x0, symName: __RNvXs1_NtCslvhnBjKo0yW_26wasm_bindgen_macro_support6parserNtB5_11BindgenAttrNtNtCscwCr4GBBztI_3syn5parse5Parse5parse, symObjAddr: 0xFEF0, symBinAddr: 0x577F4, symSize: 0x59B8 }
  - { offset: 0x9A46B, size: 0x8, addend: 0x0, symName: __RNvXsh_NtCslvhnBjKo0yW_26wasm_bindgen_macro_support6parserNtB5_19AttributeParseStateNtNtCs85QQFkKrybG_4core7default7Default7defaultB7_, symObjAddr: 0x159A0, symBinAddr: 0x5D2A4, symSize: 0x58 }
  - { offset: 0x9A48E, size: 0x8, addend: 0x0, symName: __RNvXsi_NtCslvhnBjKo0yW_26wasm_bindgen_macro_support6parserNtB5_11JsNamespaceNtNtCs85QQFkKrybG_4core5clone5Clone5cloneB7_, symObjAddr: 0x159F8, symBinAddr: 0x5D2FC, symSize: 0x48 }
  - { offset: 0x9A4C0, size: 0x8, addend: 0x0, symName: __RNvXsj_NtCslvhnBjKo0yW_26wasm_bindgen_macro_support6parserNtB5_10FnArgAttrsNtNtCs85QQFkKrybG_4core7default7Default7defaultB7_, symObjAddr: 0x15A40, symBinAddr: 0x5D344, symSize: 0xB4 }
  - { offset: 0x9A4E4, size: 0x8, addend: 0x0, symName: __RNvXsk_NtCslvhnBjKo0yW_26wasm_bindgen_macro_support6parserNtB5_10FnArgAttrsNtNtCs85QQFkKrybG_4core5clone5Clone5cloneB7_, symObjAddr: 0x15AF4, symBinAddr: 0x5D3F8, symSize: 0xCC }
  - { offset: 0x9B0E3, size: 0x8, addend: 0x0, symName: __RNvMNtCslvhnBjKo0yW_26wasm_bindgen_macro_support6parserNtB2_12BindgenAttrs10check_used, symObjAddr: 0x6FD8, symBinAddr: 0x4E8DC, symSize: 0x70 }
  - { offset: 0x9B113, size: 0x8, addend: 0x0, symName: __RNvMNtCslvhnBjKo0yW_26wasm_bindgen_macro_support6parserNtB2_12BindgenAttrs10is_type_of, symObjAddr: 0x7048, symBinAddr: 0x4E94C, symSize: 0x4C }
  - { offset: 0x9B172, size: 0x8, addend: 0x0, symName: __RNvMNtCslvhnBjKo0yW_26wasm_bindgen_macro_support6parserNtB2_12BindgenAttrs10raw_module, symObjAddr: 0x7094, symBinAddr: 0x4E998, symSize: 0x54 }
  - { offset: 0x9B1A1, size: 0x8, addend: 0x0, symName: __RNvMNtCslvhnBjKo0yW_26wasm_bindgen_macro_support6parserNtB2_12BindgenAttrs10skip_jsdoc, symObjAddr: 0x70E8, symBinAddr: 0x4E9EC, symSize: 0x4C }
  - { offset: 0x9B1C4, size: 0x8, addend: 0x0, symName: __RNvMNtCslvhnBjKo0yW_26wasm_bindgen_macro_support6parserNtB2_12BindgenAttrs10structural, symObjAddr: 0x7134, symBinAddr: 0x4EA38, symSize: 0x4C }
  - { offset: 0x9B1E7, size: 0x8, addend: 0x0, symName: __RNvMNtCslvhnBjKo0yW_26wasm_bindgen_macro_support6parserNtB2_12BindgenAttrs11constructor, symObjAddr: 0x7180, symBinAddr: 0x4EA84, symSize: 0x4C }
  - { offset: 0x9B20A, size: 0x8, addend: 0x0, symName: __RNvMNtCslvhnBjKo0yW_26wasm_bindgen_macro_support6parserNtB2_12BindgenAttrs11inspectable, symObjAddr: 0x71CC, symBinAddr: 0x4EAD0, symSize: 0x4C }
  - { offset: 0x9B24B, size: 0x8, addend: 0x0, symName: __RNvMNtCslvhnBjKo0yW_26wasm_bindgen_macro_support6parserNtB2_12BindgenAttrs12enforce_used, symObjAddr: 0x7218, symBinAddr: 0x4EB1C, symSize: 0x9B4 }
  - { offset: 0x9B827, size: 0x8, addend: 0x0, symName: __RNvMNtCslvhnBjKo0yW_26wasm_bindgen_macro_support6parserNtB2_12BindgenAttrs12js_namespace, symObjAddr: 0x7BCC, symBinAddr: 0x4F4D0, symSize: 0x54 }
  - { offset: 0x9B84A, size: 0x8, addend: 0x0, symName: __RNvMNtCslvhnBjKo0yW_26wasm_bindgen_macro_support6parserNtB2_12BindgenAttrs12thread_local, symObjAddr: 0x7C20, symBinAddr: 0x4F524, symSize: 0x4C }
  - { offset: 0x9B86D, size: 0x8, addend: 0x0, symName: __RNvMNtCslvhnBjKo0yW_26wasm_bindgen_macro_support6parserNtB2_12BindgenAttrs12wasm_bindgen, symObjAddr: 0x7C6C, symBinAddr: 0x4F570, symSize: 0x4C }
  - { offset: 0x9B890, size: 0x8, addend: 0x0, symName: __RNvMNtCslvhnBjKo0yW_26wasm_bindgen_macro_support6parserNtB2_12BindgenAttrs13static_string, symObjAddr: 0x7CB8, symBinAddr: 0x4F5BC, symSize: 0x4C }
  - { offset: 0x9B8B3, size: 0x8, addend: 0x0, symName: __RNvMNtCslvhnBjKo0yW_26wasm_bindgen_macro_support6parserNtB2_12BindgenAttrs14assert_no_shim, symObjAddr: 0x7D04, symBinAddr: 0x4F608, symSize: 0x4C }
  - { offset: 0x9B8D6, size: 0x8, addend: 0x0, symName: __RNvMNtCslvhnBjKo0yW_26wasm_bindgen_macro_support6parserNtB2_12BindgenAttrs15indexing_getter, symObjAddr: 0x7D50, symBinAddr: 0x4F654, symSize: 0x4C }
  - { offset: 0x9B8F9, size: 0x8, addend: 0x0, symName: __RNvMNtCslvhnBjKo0yW_26wasm_bindgen_macro_support6parserNtB2_12BindgenAttrs15indexing_setter, symObjAddr: 0x7D9C, symBinAddr: 0x4F6A0, symSize: 0x4C }
  - { offset: 0x9B91C, size: 0x8, addend: 0x0, symName: __RNvMNtCslvhnBjKo0yW_26wasm_bindgen_macro_support6parserNtB2_12BindgenAttrs15skip_typescript, symObjAddr: 0x7DE8, symBinAddr: 0x4F6EC, symSize: 0x4C }
  - { offset: 0x9B93F, size: 0x8, addend: 0x0, symName: __RNvMNtCslvhnBjKo0yW_26wasm_bindgen_macro_support6parserNtB2_12BindgenAttrs15thread_local_v2, symObjAddr: 0x7E34, symBinAddr: 0x4F738, symSize: 0x4C }
  - { offset: 0x9B962, size: 0x8, addend: 0x0, symName: __RNvMNtCslvhnBjKo0yW_26wasm_bindgen_macro_support6parserNtB2_12BindgenAttrs15typescript_type, symObjAddr: 0x7E80, symBinAddr: 0x4F784, symSize: 0x54 }
  - { offset: 0x9B984, size: 0x8, addend: 0x0, symName: __RNvMNtCslvhnBjKo0yW_26wasm_bindgen_macro_support6parserNtB2_12BindgenAttrs16get_thread_local, symObjAddr: 0x7ED4, symBinAddr: 0x4F7D8, symSize: 0x110 }
  - { offset: 0x9B9D3, size: 0x8, addend: 0x0, symName: __RNvMNtCslvhnBjKo0yW_26wasm_bindgen_macro_support6parserNtB2_12BindgenAttrs16indexing_deleter, symObjAddr: 0x7FE4, symBinAddr: 0x4F8E8, symSize: 0x4C }
  - { offset: 0x9B9F6, size: 0x8, addend: 0x0, symName: __RNvMNtCslvhnBjKo0yW_26wasm_bindgen_macro_support6parserNtB2_12BindgenAttrs16static_method_of, symObjAddr: 0x8030, symBinAddr: 0x4F934, symSize: 0x4C }
  - { offset: 0x9BA19, size: 0x8, addend: 0x0, symName: __RNvMNtCslvhnBjKo0yW_26wasm_bindgen_macro_support6parserNtB2_12BindgenAttrs17getter_with_clone, symObjAddr: 0x807C, symBinAddr: 0x4F980, symSize: 0x4C }
  - { offset: 0x9BA3C, size: 0x8, addend: 0x0, symName: __RNvMNtCslvhnBjKo0yW_26wasm_bindgen_macro_support6parserNtB2_12BindgenAttrs17param_description, symObjAddr: 0x80C8, symBinAddr: 0x4F9CC, symSize: 0x54 }
  - { offset: 0x9BA5E, size: 0x8, addend: 0x0, symName: __RNvMNtCslvhnBjKo0yW_26wasm_bindgen_macro_support6parserNtB2_12BindgenAttrs18return_description, symObjAddr: 0x811C, symBinAddr: 0x4FA20, symSize: 0x54 }
  - { offset: 0x9BA80, size: 0x8, addend: 0x0, symName: __RNvMNtCslvhnBjKo0yW_26wasm_bindgen_macro_support6parserNtB2_12BindgenAttrs20unchecked_param_type, symObjAddr: 0x8170, symBinAddr: 0x4FA74, symSize: 0x54 }
  - { offset: 0x9BAA2, size: 0x8, addend: 0x0, symName: __RNvMNtCslvhnBjKo0yW_26wasm_bindgen_macro_support6parserNtB2_12BindgenAttrs20wasm_bindgen_futures, symObjAddr: 0x81C4, symBinAddr: 0x4FAC8, symSize: 0x4C }
  - { offset: 0x9BAC5, size: 0x8, addend: 0x0, symName: __RNvMNtCslvhnBjKo0yW_26wasm_bindgen_macro_support6parserNtB2_12BindgenAttrs21unchecked_return_type, symObjAddr: 0x8210, symBinAddr: 0x4FB14, symSize: 0x54 }
  - { offset: 0x9BAE7, size: 0x8, addend: 0x0, symName: __RNvMNtCslvhnBjKo0yW_26wasm_bindgen_macro_support6parserNtB2_12BindgenAttrs25typescript_custom_section, symObjAddr: 0x8264, symBinAddr: 0x4FB68, symSize: 0x4C }
  - { offset: 0x9BB17, size: 0x8, addend: 0x0, symName: __RNvMNtCslvhnBjKo0yW_26wasm_bindgen_macro_support6parserNtB2_12BindgenAttrs4find, symObjAddr: 0x82B0, symBinAddr: 0x4FBB4, symSize: 0x5B0 }
  - { offset: 0x9BC1F, size: 0x8, addend: 0x0, symName: __RNvMNtCslvhnBjKo0yW_26wasm_bindgen_macro_support6parserNtB2_12BindgenAttrs4main, symObjAddr: 0x8860, symBinAddr: 0x50164, symSize: 0x4C }
  - { offset: 0x9BC42, size: 0x8, addend: 0x0, symName: __RNvMNtCslvhnBjKo0yW_26wasm_bindgen_macro_support6parserNtB2_12BindgenAttrs4skip, symObjAddr: 0x88AC, symBinAddr: 0x501B0, symSize: 0x4C }
  - { offset: 0x9BC65, size: 0x8, addend: 0x0, symName: __RNvMNtCslvhnBjKo0yW_26wasm_bindgen_macro_support6parserNtB2_12BindgenAttrs5catch, symObjAddr: 0x88F8, symBinAddr: 0x501FC, symSize: 0x4C }
  - { offset: 0x9BC88, size: 0x8, addend: 0x0, symName: __RNvMNtCslvhnBjKo0yW_26wasm_bindgen_macro_support6parserNtB2_12BindgenAttrs5final, symObjAddr: 0x8944, symBinAddr: 0x50248, symSize: 0x4C }
  - { offset: 0x9BCAB, size: 0x8, addend: 0x0, symName: __RNvMNtCslvhnBjKo0yW_26wasm_bindgen_macro_support6parserNtB2_12BindgenAttrs5start, symObjAddr: 0x8990, symBinAddr: 0x50294, symSize: 0x4C }
  - { offset: 0x9BCDB, size: 0x8, addend: 0x0, symName: __RNvMNtCslvhnBjKo0yW_26wasm_bindgen_macro_support6parserNtB2_12BindgenAttrs6getter, symObjAddr: 0x89DC, symBinAddr: 0x502E0, symSize: 0x4C }
  - { offset: 0x9BCFE, size: 0x8, addend: 0x0, symName: __RNvMNtCslvhnBjKo0yW_26wasm_bindgen_macro_support6parserNtB2_12BindgenAttrs6js_sys, symObjAddr: 0x8A28, symBinAddr: 0x5032C, symSize: 0x4C }
  - { offset: 0x9BD21, size: 0x8, addend: 0x0, symName: __RNvMNtCslvhnBjKo0yW_26wasm_bindgen_macro_support6parserNtB2_12BindgenAttrs6method, symObjAddr: 0x8A74, symBinAddr: 0x50378, symSize: 0x4C }
  - { offset: 0x9BD44, size: 0x8, addend: 0x0, symName: __RNvMNtCslvhnBjKo0yW_26wasm_bindgen_macro_support6parserNtB2_12BindgenAttrs6module, symObjAddr: 0x8AC0, symBinAddr: 0x503C4, symSize: 0x54 }
  - { offset: 0x9BD66, size: 0x8, addend: 0x0, symName: __RNvMNtCslvhnBjKo0yW_26wasm_bindgen_macro_support6parserNtB2_12BindgenAttrs6setter, symObjAddr: 0x8B14, symBinAddr: 0x50418, symSize: 0x4C }
  - { offset: 0x9BD89, size: 0x8, addend: 0x0, symName: __RNvMNtCslvhnBjKo0yW_26wasm_bindgen_macro_support6parserNtB2_12BindgenAttrs7js_name, symObjAddr: 0x8B60, symBinAddr: 0x50464, symSize: 0x54 }
  - { offset: 0x9BDAB, size: 0x8, addend: 0x0, symName: __RNvMNtCslvhnBjKo0yW_26wasm_bindgen_macro_support6parserNtB2_12BindgenAttrs8js_class, symObjAddr: 0x8BB4, symBinAddr: 0x504B8, symSize: 0x54 }
  - { offset: 0x9BDCD, size: 0x8, addend: 0x0, symName: __RNvMNtCslvhnBjKo0yW_26wasm_bindgen_macro_support6parserNtB2_12BindgenAttrs8no_deref, symObjAddr: 0x8C08, symBinAddr: 0x5050C, symSize: 0x4C }
  - { offset: 0x9BDF0, size: 0x8, addend: 0x0, symName: __RNvMNtCslvhnBjKo0yW_26wasm_bindgen_macro_support6parserNtB2_12BindgenAttrs8readonly, symObjAddr: 0x8C54, symBinAddr: 0x50558, symSize: 0x4C }
  - { offset: 0x9BE13, size: 0x8, addend: 0x0, symName: __RNvMNtCslvhnBjKo0yW_26wasm_bindgen_macro_support6parserNtB2_12BindgenAttrs8variadic, symObjAddr: 0x8CA0, symBinAddr: 0x505A4, symSize: 0x4C }
  - { offset: 0x9BE36, size: 0x8, addend: 0x0, symName: __RNvMNtCslvhnBjKo0yW_26wasm_bindgen_macro_support6parserNtB2_12BindgenAttrs9inline_js, symObjAddr: 0x8CEC, symBinAddr: 0x505F0, symSize: 0x54 }
  - { offset: 0x9BE58, size: 0x8, addend: 0x0, symName: __RNvMsc_NtCslvhnBjKo0yW_26wasm_bindgen_macro_support6parserNtB5_12NumericValue3neg, symObjAddr: 0x8D40, symBinAddr: 0x50644, symSize: 0x3C }
  - { offset: 0x9BE8F, size: 0x8, addend: 0x0, symName: __RNvMsc_NtCslvhnBjKo0yW_26wasm_bindgen_macro_support6parserNtB5_12NumericValue5parse, symObjAddr: 0x8D7C, symBinAddr: 0x50680, symSize: 0x118 }
  - { offset: 0x9BF04, size: 0x8, addend: 0x0, symName: __RNvMsc_NtCslvhnBjKo0yW_26wasm_bindgen_macro_support6parserNtB5_12NumericValue9from_expr, symObjAddr: 0x8E94, symBinAddr: 0x50798, symSize: 0x188 }
  - { offset: 0x9DB57, size: 0x8, addend: 0x0, symName: __RINvMs6_NtCsfieuf5LernF_9hashbrown3rawINtB6_8RawTableTNtNtCsdFlNUEO95cG_5alloc6string6StringNtCsfwj6t2KTYdc_11proc_macro25IdentEE14reserve_rehashNCINvNtB8_3map11make_hasherBQ_B1s_NtNtNtCswz7ZwgBZOU_3std4hash6random11RandomStateE0ECslvhnBjKo0yW_26wasm_bindgen_macro_support, symObjAddr: 0x0, symBinAddr: 0x239608, symSize: 0x7DC }
  - { offset: 0x9DB93, size: 0x8, addend: 0x0, symName: __RNCINvMs6_NtCsfieuf5LernF_9hashbrown3rawINtB8_8RawTableTNtNtCsdFlNUEO95cG_5alloc6string6StringNtCsfwj6t2KTYdc_11proc_macro25IdentEE14reserve_rehashNCINvNtBa_3map11make_hasherBS_B1u_NtNtNtCswz7ZwgBZOU_3std4hash6random11RandomStateE0E0CslvhnBjKo0yW_26wasm_bindgen_macro_support, symObjAddr: 0x42A8, symBinAddr: 0x64C84, symSize: 0xC8 }
  - { offset: 0x9DD58, size: 0x8, addend: 0x0, symName: __RNCINvMs6_NtCsfieuf5LernF_9hashbrown3rawINtB8_8RawTableTNtNtCsdFlNUEO95cG_5alloc6string6StringNtCsfwj6t2KTYdc_11proc_macro25IdentEE14reserve_rehashNCINvNtBa_3map11make_hasherBS_B1u_NtNtNtCswz7ZwgBZOU_3std4hash6random11RandomStateE0Es_0CslvhnBjKo0yW_26wasm_bindgen_macro_support, symObjAddr: 0x4370, symBinAddr: 0x64D4C, symSize: 0x30 }
  - { offset: 0x9DDA8, size: 0x8, addend: 0x0, symName: __RNCINvMs6_NtCsfieuf5LernF_9hashbrown3rawINtB8_8RawTableTNtNtCsdFlNUEO95cG_5alloc6string6StringNtNtCslvhnBjKo0yW_26wasm_bindgen_macro_support6encode9LocalFileEE14reserve_rehashNCINvNtBa_3map11make_hasherBS_B1u_NtNtNtCswz7ZwgBZOU_3std4hash6random11RandomStateE0E0B1y_, symObjAddr: 0x4538, symBinAddr: 0x64F14, symSize: 0xC8 }
  - { offset: 0x9DF6D, size: 0x8, addend: 0x0, symName: __RNCINvMs6_NtCsfieuf5LernF_9hashbrown3rawINtB8_8RawTableTNtNtCsdFlNUEO95cG_5alloc6string6StringNtNtCslvhnBjKo0yW_26wasm_bindgen_macro_support6encode9LocalFileEE14reserve_rehashNCINvNtBa_3map11make_hasherBS_B1u_NtNtNtCswz7ZwgBZOU_3std4hash6random11RandomStateE0Es_0B1y_, symObjAddr: 0x4600, symBinAddr: 0x64FDC, symSize: 0x30 }
  - { offset: 0x9DFBD, size: 0x8, addend: 0x0, symName: __RNCINvMs6_NtCsfieuf5LernF_9hashbrown3rawINtB8_8RawTableTNtNtCsdFlNUEO95cG_5alloc6string6StringuEE14reserve_rehashNCINvNtBa_3map11make_hasherBS_uNtNtNtCswz7ZwgBZOU_3std4hash6random11RandomStateE0E0CslvhnBjKo0yW_26wasm_bindgen_macro_support, symObjAddr: 0x47C8, symBinAddr: 0x651A4, symSize: 0xC8 }
  - { offset: 0x9E182, size: 0x8, addend: 0x0, symName: __RNCINvMs6_NtCsfieuf5LernF_9hashbrown3rawINtB8_8RawTableTNtNtCsdFlNUEO95cG_5alloc6string6StringuEE14reserve_rehashNCINvNtBa_3map11make_hasherBS_uNtNtNtCswz7ZwgBZOU_3std4hash6random11RandomStateE0Es_0CslvhnBjKo0yW_26wasm_bindgen_macro_support, symObjAddr: 0x4890, symBinAddr: 0x6526C, symSize: 0x30 }
  - { offset: 0x9E1D2, size: 0x8, addend: 0x0, symName: __RNCINvMs6_NtCsfieuf5LernF_9hashbrown3rawINtB8_8RawTableTxRNtNtCscwCr4GBBztI_3syn4data7VariantEE14reserve_rehashNCINvNtBa_3map11make_hasherxBT_NtNtNtCswz7ZwgBZOU_3std4hash6random11RandomStateE0E0CslvhnBjKo0yW_26wasm_bindgen_macro_support, symObjAddr: 0x498C, symBinAddr: 0x65368, symSize: 0xC8 }
  - { offset: 0x9E3B2, size: 0x8, addend: 0x0, symName: __RNCINvMs6_NtCsfieuf5LernF_9hashbrown3rawINtB8_8RawTableTNtNtCsdFlNUEO95cG_5alloc6string6StringNtCsfwj6t2KTYdc_11proc_macro25IdentEE24find_or_find_insert_slotNCINvNtBa_3map14equivalent_keyBS_BS_B1u_E0NCINvB2A_11make_hasherBS_B1u_NtNtNtCswz7ZwgBZOU_3std4hash6random11RandomStateE0E0CslvhnBjKo0yW_26wasm_bindgen_macro_support, symObjAddr: 0x43A0, symBinAddr: 0x64D7C, symSize: 0xCC }
  - { offset: 0x9E587, size: 0x8, addend: 0x0, symName: __RNCINvMs6_NtCsfieuf5LernF_9hashbrown3rawINtB8_8RawTableTNtNtCsdFlNUEO95cG_5alloc6string6StringNtNtCslvhnBjKo0yW_26wasm_bindgen_macro_support6encode9LocalFileEE24find_or_find_insert_slotNCINvNtBa_3map14equivalent_keyBS_BS_B1u_E0NCINvB32_11make_hasherBS_B1u_NtNtNtCswz7ZwgBZOU_3std4hash6random11RandomStateE0E0B1y_, symObjAddr: 0x4630, symBinAddr: 0x6500C, symSize: 0xCC }
  - { offset: 0x9E75C, size: 0x8, addend: 0x0, symName: __RNCINvMs6_NtCsfieuf5LernF_9hashbrown3rawINtB8_8RawTableTNtNtCsdFlNUEO95cG_5alloc6string6StringuEE24find_or_find_insert_slotNCINvNtBa_3map14equivalent_keyBS_BS_uE0NCINvB22_11make_hasherBS_uNtNtNtCswz7ZwgBZOU_3std4hash6random11RandomStateE0E0CslvhnBjKo0yW_26wasm_bindgen_macro_support, symObjAddr: 0x48C0, symBinAddr: 0x6529C, symSize: 0xCC }
  - { offset: 0x9E931, size: 0x8, addend: 0x0, symName: __RNCINvMs6_NtCsfieuf5LernF_9hashbrown3rawINtB8_8RawTableTxRNtNtCscwCr4GBBztI_3syn4data7VariantEE24find_or_find_insert_slotNCINvNtBa_3map14equivalent_keyxxBT_E0NCINvB20_11make_hasherxBT_NtNtNtCswz7ZwgBZOU_3std4hash6random11RandomStateE0E0CslvhnBjKo0yW_26wasm_bindgen_macro_support, symObjAddr: 0x4A54, symBinAddr: 0x65430, symSize: 0xCC }
  - { offset: 0x9EB0C, size: 0x8, addend: 0x0, symName: __RNCINvMs6_NtCsfieuf5LernF_9hashbrown3rawINtB8_8RawTableTNtNtCsdFlNUEO95cG_5alloc6string6StringNtCsfwj6t2KTYdc_11proc_macro25IdentEE4findNCINvNtBa_3map14equivalent_keyBS_BS_B1u_E0E0CslvhnBjKo0yW_26wasm_bindgen_macro_support, symObjAddr: 0x446C, symBinAddr: 0x64E48, symSize: 0xCC }
  - { offset: 0x9ECD8, size: 0x8, addend: 0x0, symName: __RNCINvMs6_NtCsfieuf5LernF_9hashbrown3rawINtB8_8RawTableTNtNtCsdFlNUEO95cG_5alloc6string6StringNtNtCslvhnBjKo0yW_26wasm_bindgen_macro_support6encode9LocalFileEE4findNCINvNtBa_3map14equivalent_keyeBS_B1u_E0E0B1y_, symObjAddr: 0x46FC, symBinAddr: 0x650D8, symSize: 0xCC }
  - { offset: 0x9EEA4, size: 0x8, addend: 0x0, symName: __RNCINvMs6_NtCsfieuf5LernF_9hashbrown3rawINtB8_8RawTableTxRNtNtCscwCr4GBBztI_3syn4data7VariantEE4findNCINvNtBa_3map14equivalent_keyxxBT_E0E0CslvhnBjKo0yW_26wasm_bindgen_macro_support, symObjAddr: 0x4B20, symBinAddr: 0x654FC, symSize: 0xCC }
  - { offset: 0x9FEDE, size: 0x8, addend: 0x0, symName: __RNCINvMsa_NtCsfieuf5LernF_9hashbrown3rawNtB8_13RawTableInner14prepare_resizeNtNtCsdFlNUEO95cG_5alloc5alloc6GlobalE0CslvhnBjKo0yW_26wasm_bindgen_macro_support, symObjAddr: 0x4BEC, symBinAddr: 0x655C8, symSize: 0xBC }
  - { offset: 0xA00C9, size: 0x8, addend: 0x0, symName: __RNCNvMsa_NtCsfieuf5LernF_9hashbrown3rawNtB7_13RawTableInner15rehash_in_place0CslvhnBjKo0yW_26wasm_bindgen_macro_support, symObjAddr: 0x4CA8, symBinAddr: 0x65684, symSize: 0x22C }
  - { offset: 0xA0B8F, size: 0x8, addend: 0x0, symName: __RNvNtCsfieuf5LernF_9hashbrown3raw19capacity_to_bucketsCslvhnBjKo0yW_26wasm_bindgen_macro_support, symObjAddr: 0x6604, symBinAddr: 0x66FE0, symSize: 0x218 }
  - { offset: 0xA0DA8, size: 0x8, addend: 0x0, symName: __RNvXsg_NtCsfieuf5LernF_9hashbrown3rawINtB5_8RawTableTNtNtCsdFlNUEO95cG_5alloc6string6StringNtCsfwj6t2KTYdc_11proc_macro25IdentEENtNtNtCs85QQFkKrybG_4core3ops4drop4Drop4dropCslvhnBjKo0yW_26wasm_bindgen_macro_support, symObjAddr: 0x681C, symBinAddr: 0x671F8, symSize: 0x3C }
  - { offset: 0xA0DE4, size: 0x8, addend: 0x0, symName: __RNvXsg_NtCsfieuf5LernF_9hashbrown3rawINtB5_8RawTableTNtNtCsdFlNUEO95cG_5alloc6string6StringNtNtCslvhnBjKo0yW_26wasm_bindgen_macro_support6encode9LocalFileEENtNtNtCs85QQFkKrybG_4core3ops4drop4Drop4dropB1v_, symObjAddr: 0x6858, symBinAddr: 0x67234, symSize: 0x3C }
  - { offset: 0xA0E20, size: 0x8, addend: 0x0, symName: __RNvXsg_NtCsfieuf5LernF_9hashbrown3rawINtB5_8RawTableTNtNtCsdFlNUEO95cG_5alloc6string6StringuEENtNtNtCs85QQFkKrybG_4core3ops4drop4Drop4dropCslvhnBjKo0yW_26wasm_bindgen_macro_support, symObjAddr: 0x6894, symBinAddr: 0x67270, symSize: 0x3C }
  - { offset: 0xA0E5C, size: 0x8, addend: 0x0, symName: __RNvXsg_NtCsfieuf5LernF_9hashbrown3rawINtB5_8RawTableTxRNtNtCscwCr4GBBztI_3syn4data7VariantEENtNtNtCs85QQFkKrybG_4core3ops4drop4Drop4dropCslvhnBjKo0yW_26wasm_bindgen_macro_support, symObjAddr: 0x68D0, symBinAddr: 0x672AC, symSize: 0x3C }
  - { offset: 0xADD6E, size: 0x8, addend: 0x0, symName: __RINvMs6_NtCsfieuf5LernF_9hashbrown3rawINtB6_8RawTableTNtNtCsdFlNUEO95cG_5alloc6string6StringNtCsfwj6t2KTYdc_11proc_macro25IdentEE14reserve_rehashNCINvNtB8_3map11make_hasherBQ_B1s_NtNtNtCswz7ZwgBZOU_3std4hash6random11RandomStateE0ECslvhnBjKo0yW_26wasm_bindgen_macro_support, symObjAddr: 0x0, symBinAddr: 0x239608, symSize: 0x7DC }
  - { offset: 0xAE7C0, size: 0x8, addend: 0x0, symName: __RINvMs6_NtCsfieuf5LernF_9hashbrown3rawINtB6_8RawTableTNtNtCsdFlNUEO95cG_5alloc6string6StringNtCsfwj6t2KTYdc_11proc_macro25IdentEE24find_or_find_insert_slotNCINvNtB8_3map14equivalent_keyBQ_BQ_B1s_E0NCINvB2y_11make_hasherBQ_B1s_NtNtNtCswz7ZwgBZOU_3std4hash6random11RandomStateE0ECslvhnBjKo0yW_26wasm_bindgen_macro_support, symObjAddr: 0x7DC, symBinAddr: 0x6295C, symSize: 0x140 }
  - { offset: 0xAEC4C, size: 0x8, addend: 0x0, symName: __RINvMs6_NtCsfieuf5LernF_9hashbrown3rawINtB6_8RawTableTNtNtCsdFlNUEO95cG_5alloc6string6StringNtCsfwj6t2KTYdc_11proc_macro25IdentEE4findNCINvNtB8_3map14equivalent_keyBQ_BQ_B1s_E0ECslvhnBjKo0yW_26wasm_bindgen_macro_support, symObjAddr: 0x91C, symBinAddr: 0x62A9C, symSize: 0x330 }
  - { offset: 0xAF12F, size: 0x8, addend: 0x0, symName: __RINvMs6_NtCsfieuf5LernF_9hashbrown3rawINtB6_8RawTableTNtNtCsdFlNUEO95cG_5alloc6string6StringNtCsfwj6t2KTYdc_11proc_macro25IdentEE7reserveNCINvNtB8_3map11make_hasherBQ_B1s_NtNtNtCswz7ZwgBZOU_3std4hash6random11RandomStateE0ECslvhnBjKo0yW_26wasm_bindgen_macro_support, symObjAddr: 0xC4C, symBinAddr: 0x62DCC, symSize: 0xCC }
  - { offset: 0xAF207, size: 0x8, addend: 0x0, symName: __RINvMs6_NtCsfieuf5LernF_9hashbrown3rawINtB6_8RawTableTNtNtCsdFlNUEO95cG_5alloc6string6StringNtNtCslvhnBjKo0yW_26wasm_bindgen_macro_support6encode9LocalFileEE14reserve_rehashNCINvNtB8_3map11make_hasherBQ_B1s_NtNtNtCswz7ZwgBZOU_3std4hash6random11RandomStateE0EB1w_, symObjAddr: 0xD18, symBinAddr: 0x239DE4, symSize: 0x7DC }
  - { offset: 0xAFC59, size: 0x8, addend: 0x0, symName: __RINvMs6_NtCsfieuf5LernF_9hashbrown3rawINtB6_8RawTableTNtNtCsdFlNUEO95cG_5alloc6string6StringNtNtCslvhnBjKo0yW_26wasm_bindgen_macro_support6encode9LocalFileEE24find_or_find_insert_slotNCINvNtB8_3map14equivalent_keyBQ_BQ_B1s_E0NCINvB30_11make_hasherBQ_B1s_NtNtNtCswz7ZwgBZOU_3std4hash6random11RandomStateE0EB1w_, symObjAddr: 0x14F4, symBinAddr: 0x62E98, symSize: 0x140 }
  - { offset: 0xAFEE5, size: 0x8, addend: 0x0, symName: __RINvMs6_NtCsfieuf5LernF_9hashbrown3rawINtB6_8RawTableTNtNtCsdFlNUEO95cG_5alloc6string6StringNtNtCslvhnBjKo0yW_26wasm_bindgen_macro_support6encode9LocalFileEE4findNCINvNtB8_3map14equivalent_keyeBQ_B1s_E0EB1w_, symObjAddr: 0x1634, symBinAddr: 0x62FD8, symSize: 0x334 }
  - { offset: 0xB03BB, size: 0x8, addend: 0x0, symName: __RINvMs6_NtCsfieuf5LernF_9hashbrown3rawINtB6_8RawTableTNtNtCsdFlNUEO95cG_5alloc6string6StringNtNtCslvhnBjKo0yW_26wasm_bindgen_macro_support6encode9LocalFileEE7reserveNCINvNtB8_3map11make_hasherBQ_B1s_NtNtNtCswz7ZwgBZOU_3std4hash6random11RandomStateE0EB1w_, symObjAddr: 0x1968, symBinAddr: 0x6330C, symSize: 0xCC }
  - { offset: 0xB0493, size: 0x8, addend: 0x0, symName: __RINvMs6_NtCsfieuf5LernF_9hashbrown3rawINtB6_8RawTableTNtNtCsdFlNUEO95cG_5alloc6string6StringuEE14reserve_rehashNCINvNtB8_3map11make_hasherBQ_uNtNtNtCswz7ZwgBZOU_3std4hash6random11RandomStateE0ECslvhnBjKo0yW_26wasm_bindgen_macro_support, symObjAddr: 0x1A34, symBinAddr: 0x23A5C0, symSize: 0x7EC }
  - { offset: 0xB0EE5, size: 0x8, addend: 0x0, symName: __RINvMs6_NtCsfieuf5LernF_9hashbrown3rawINtB6_8RawTableTNtNtCsdFlNUEO95cG_5alloc6string6StringuEE24find_or_find_insert_slotNCINvNtB8_3map14equivalent_keyBQ_BQ_uE0NCINvB20_11make_hasherBQ_uNtNtNtCswz7ZwgBZOU_3std4hash6random11RandomStateE0ECslvhnBjKo0yW_26wasm_bindgen_macro_support, symObjAddr: 0x2220, symBinAddr: 0x633D8, symSize: 0x140 }
  - { offset: 0xB10CC, size: 0x8, addend: 0x0, symName: __RINvMs6_NtCsfieuf5LernF_9hashbrown3rawINtB6_8RawTableTNtNtCsdFlNUEO95cG_5alloc6string6StringuEE7reserveNCINvNtB8_3map11make_hasherBQ_uNtNtNtCswz7ZwgBZOU_3std4hash6random11RandomStateE0ECslvhnBjKo0yW_26wasm_bindgen_macro_support, symObjAddr: 0x2360, symBinAddr: 0x63518, symSize: 0xCC }
  - { offset: 0xB11A4, size: 0x8, addend: 0x0, symName: __RINvMs6_NtCsfieuf5LernF_9hashbrown3rawINtB6_8RawTableTxRNtNtCscwCr4GBBztI_3syn4data7VariantEE14reserve_rehashNCINvNtB8_3map11make_hasherxBR_NtNtNtCswz7ZwgBZOU_3std4hash6random11RandomStateE0ECslvhnBjKo0yW_26wasm_bindgen_macro_support, symObjAddr: 0x242C, symBinAddr: 0x23ADAC, symSize: 0x7DC }
  - { offset: 0xB1BF6, size: 0x8, addend: 0x0, symName: __RINvMs6_NtCsfieuf5LernF_9hashbrown3rawINtB6_8RawTableTxRNtNtCscwCr4GBBztI_3syn4data7VariantEE24find_or_find_insert_slotNCINvNtB8_3map14equivalent_keyxxBR_E0NCINvB1Y_11make_hasherxBR_NtNtNtCswz7ZwgBZOU_3std4hash6random11RandomStateE0ECslvhnBjKo0yW_26wasm_bindgen_macro_support, symObjAddr: 0x2C08, symBinAddr: 0x635E4, symSize: 0x140 }
  - { offset: 0xB1E82, size: 0x8, addend: 0x0, symName: __RINvMs6_NtCsfieuf5LernF_9hashbrown3rawINtB6_8RawTableTxRNtNtCscwCr4GBBztI_3syn4data7VariantEE4findNCINvNtB8_3map14equivalent_keyxxBR_E0ECslvhnBjKo0yW_26wasm_bindgen_macro_support, symObjAddr: 0x2D48, symBinAddr: 0x63724, symSize: 0x330 }
  - { offset: 0xB2358, size: 0x8, addend: 0x0, symName: __RINvMs6_NtCsfieuf5LernF_9hashbrown3rawINtB6_8RawTableTxRNtNtCscwCr4GBBztI_3syn4data7VariantEE7reserveNCINvNtB8_3map11make_hasherxBR_NtNtNtCswz7ZwgBZOU_3std4hash6random11RandomStateE0ECslvhnBjKo0yW_26wasm_bindgen_macro_support, symObjAddr: 0x3078, symBinAddr: 0x63A54, symSize: 0xCC }
  - { offset: 0xB254A, size: 0x8, addend: 0x0, symName: __RINvMsa_NtCsfieuf5LernF_9hashbrown3rawNtB6_13RawTableInner13drop_elementsTNtNtCsdFlNUEO95cG_5alloc6string6StringNtCsfwj6t2KTYdc_11proc_macro25IdentEECslvhnBjKo0yW_26wasm_bindgen_macro_support, symObjAddr: 0x3144, symBinAddr: 0x63B20, symSize: 0x178 }
  - { offset: 0xB28A2, size: 0x8, addend: 0x0, symName: __RINvMsa_NtCsfieuf5LernF_9hashbrown3rawNtB6_13RawTableInner13drop_elementsTNtNtCsdFlNUEO95cG_5alloc6string6StringNtNtCslvhnBjKo0yW_26wasm_bindgen_macro_support6encode9LocalFileEEB1Q_, symObjAddr: 0x32BC, symBinAddr: 0x63C98, symSize: 0x178 }
  - { offset: 0xB2BFA, size: 0x8, addend: 0x0, symName: __RINvMsa_NtCsfieuf5LernF_9hashbrown3rawNtB6_13RawTableInner13drop_elementsTNtNtCsdFlNUEO95cG_5alloc6string6StringuEECslvhnBjKo0yW_26wasm_bindgen_macro_support, symObjAddr: 0x3434, symBinAddr: 0x63E10, symSize: 0x178 }
  - { offset: 0xB2ED4, size: 0x8, addend: 0x0, symName: __RINvMsa_NtCsfieuf5LernF_9hashbrown3rawNtB6_13RawTableInner13drop_elementsTxRNtNtCscwCr4GBBztI_3syn4data7VariantEECslvhnBjKo0yW_26wasm_bindgen_macro_support, symObjAddr: 0x35AC, symBinAddr: 0x63F88, symSize: 0x28 }
  - { offset: 0xB313E, size: 0x8, addend: 0x0, symName: __RINvMsa_NtCsfieuf5LernF_9hashbrown3rawNtB6_13RawTableInner16drop_inner_tableTNtNtCsdFlNUEO95cG_5alloc6string6StringNtCsfwj6t2KTYdc_11proc_macro25IdentENtNtB1h_5alloc6GlobalECslvhnBjKo0yW_26wasm_bindgen_macro_support, symObjAddr: 0x35D4, symBinAddr: 0x63FB0, symSize: 0xBC }
  - { offset: 0xB33E9, size: 0x8, addend: 0x0, symName: __RINvMsa_NtCsfieuf5LernF_9hashbrown3rawNtB6_13RawTableInner16drop_inner_tableTNtNtCsdFlNUEO95cG_5alloc6string6StringNtNtCslvhnBjKo0yW_26wasm_bindgen_macro_support6encode9LocalFileENtNtB1h_5alloc6GlobalEB1T_, symObjAddr: 0x3690, symBinAddr: 0x6406C, symSize: 0xBC }
  - { offset: 0xB3694, size: 0x8, addend: 0x0, symName: __RINvMsa_NtCsfieuf5LernF_9hashbrown3rawNtB6_13RawTableInner16drop_inner_tableTNtNtCsdFlNUEO95cG_5alloc6string6StringuENtNtB1h_5alloc6GlobalECslvhnBjKo0yW_26wasm_bindgen_macro_support, symObjAddr: 0x374C, symBinAddr: 0x64128, symSize: 0xBC }
  - { offset: 0xB393F, size: 0x8, addend: 0x0, symName: __RINvMsa_NtCsfieuf5LernF_9hashbrown3rawNtB6_13RawTableInner16drop_inner_tableTxRNtNtCscwCr4GBBztI_3syn4data7VariantENtNtCsdFlNUEO95cG_5alloc5alloc6GlobalECslvhnBjKo0yW_26wasm_bindgen_macro_support, symObjAddr: 0x3808, symBinAddr: 0x641E4, symSize: 0xBC }
  - { offset: 0xB3B5A, size: 0x8, addend: 0x0, symName: __RINvMsa_NtCsfieuf5LernF_9hashbrown3rawNtB6_13RawTableInner17new_uninitializedNtNtCsdFlNUEO95cG_5alloc5alloc6GlobalECslvhnBjKo0yW_26wasm_bindgen_macro_support, symObjAddr: 0x38C4, symBinAddr: 0x642A0, symSize: 0x1B0 }
  - { offset: 0xB3DAF, size: 0x8, addend: 0x0, symName: __RINvMsa_NtCsfieuf5LernF_9hashbrown3rawNtB6_13RawTableInner22fallible_with_capacityNtNtCsdFlNUEO95cG_5alloc5alloc6GlobalECslvhnBjKo0yW_26wasm_bindgen_macro_support, symObjAddr: 0x3A74, symBinAddr: 0x64450, symSize: 0x27C }
  - { offset: 0xB4241, size: 0x8, addend: 0x0, symName: __RINvMsi_NtCsfieuf5LernF_9hashbrown3rawINtB6_12RawIterRangeTNtNtCsdFlNUEO95cG_5alloc6string6StringNtCsfwj6t2KTYdc_11proc_macro25IdentEE9next_implKb0_ECslvhnBjKo0yW_26wasm_bindgen_macro_support, symObjAddr: 0x3CF0, symBinAddr: 0x646CC, symSize: 0x1E8 }
  - { offset: 0xB46D6, size: 0x8, addend: 0x0, symName: __RINvMsi_NtCsfieuf5LernF_9hashbrown3rawINtB6_12RawIterRangeTNtNtCsdFlNUEO95cG_5alloc6string6StringNtNtCslvhnBjKo0yW_26wasm_bindgen_macro_support6encode9LocalFileEE9next_implKb0_EB1B_, symObjAddr: 0x3ED8, symBinAddr: 0x648B4, symSize: 0x1E8 }
  - { offset: 0xB4B6B, size: 0x8, addend: 0x0, symName: __RINvMsi_NtCsfieuf5LernF_9hashbrown3rawINtB6_12RawIterRangeTNtNtCsdFlNUEO95cG_5alloc6string6StringuEE9next_implKb0_ECslvhnBjKo0yW_26wasm_bindgen_macro_support, symObjAddr: 0x40C0, symBinAddr: 0x64A9C, symSize: 0x1E8 }
  - { offset: 0xB5EE1, size: 0x8, addend: 0x0, symName: __RNvMs1_NtCsfieuf5LernF_9hashbrown3rawNtB5_11TableLayout20calculate_layout_forCslvhnBjKo0yW_26wasm_bindgen_macro_support, symObjAddr: 0x4ED4, symBinAddr: 0x658B0, symSize: 0x220 }
  - { offset: 0xB638C, size: 0x8, addend: 0x0, symName: __RNvMs6_NtCsfieuf5LernF_9hashbrown3rawINtB5_8RawTableTNtNtCsdFlNUEO95cG_5alloc6string6StringNtCsfwj6t2KTYdc_11proc_macro25IdentEE14insert_in_slotCslvhnBjKo0yW_26wasm_bindgen_macro_support, symObjAddr: 0x50F4, symBinAddr: 0x65AD0, symSize: 0x148 }
  - { offset: 0xB68E0, size: 0x8, addend: 0x0, symName: __RNvMs6_NtCsfieuf5LernF_9hashbrown3rawINtB5_8RawTableTNtNtCsdFlNUEO95cG_5alloc6string6StringNtNtCslvhnBjKo0yW_26wasm_bindgen_macro_support6encode9LocalFileEE14insert_in_slotB1v_, symObjAddr: 0x523C, symBinAddr: 0x65C18, symSize: 0x148 }
  - { offset: 0xB6E34, size: 0x8, addend: 0x0, symName: __RNvMs6_NtCsfieuf5LernF_9hashbrown3rawINtB5_8RawTableTNtNtCsdFlNUEO95cG_5alloc6string6StringuEE14insert_in_slotCslvhnBjKo0yW_26wasm_bindgen_macro_support, symObjAddr: 0x5384, symBinAddr: 0x65D60, symSize: 0x140 }
  - { offset: 0xB739B, size: 0x8, addend: 0x0, symName: __RNvMs6_NtCsfieuf5LernF_9hashbrown3rawINtB5_8RawTableTxRNtNtCscwCr4GBBztI_3syn4data7VariantEE14insert_in_slotCslvhnBjKo0yW_26wasm_bindgen_macro_support, symObjAddr: 0x54C4, symBinAddr: 0x65EA0, symSize: 0x148 }
  - { offset: 0xB7857, size: 0x8, addend: 0x0, symName: __RNvMsa_NtCsfieuf5LernF_9hashbrown3rawNtB5_13RawTableInner15fix_insert_slotCslvhnBjKo0yW_26wasm_bindgen_macro_support, symObjAddr: 0x560C, symBinAddr: 0x65FE8, symSize: 0x124 }
  - { offset: 0xB7BDD, size: 0x8, addend: 0x0, symName: __RNvMsa_NtCsfieuf5LernF_9hashbrown3rawNtB5_13RawTableInner15rehash_in_placeCslvhnBjKo0yW_26wasm_bindgen_macro_support, symObjAddr: 0x5730, symBinAddr: 0x6610C, symSize: 0x4AC }
  - { offset: 0xB83E9, size: 0x8, addend: 0x0, symName: __RNvMsa_NtCsfieuf5LernF_9hashbrown3rawNtB5_13RawTableInner16find_insert_slotCslvhnBjKo0yW_26wasm_bindgen_macro_support, symObjAddr: 0x5BDC, symBinAddr: 0x665B8, symSize: 0x10C }
  - { offset: 0xB85E2, size: 0x8, addend: 0x0, symName: __RNvMsa_NtCsfieuf5LernF_9hashbrown3rawNtB5_13RawTableInner19prepare_insert_slotCslvhnBjKo0yW_26wasm_bindgen_macro_support, symObjAddr: 0x5CE8, symBinAddr: 0x666C4, symSize: 0x74 }
  - { offset: 0xB88D3, size: 0x8, addend: 0x0, symName: __RNvMsa_NtCsfieuf5LernF_9hashbrown3rawNtB5_13RawTableInner23prepare_rehash_in_placeCslvhnBjKo0yW_26wasm_bindgen_macro_support, symObjAddr: 0x5D5C, symBinAddr: 0x66738, symSize: 0x254 }
  - { offset: 0xB8FF3, size: 0x8, addend: 0x0, symName: __RNvMsa_NtCsfieuf5LernF_9hashbrown3rawNtB5_13RawTableInner25find_insert_slot_in_groupCslvhnBjKo0yW_26wasm_bindgen_macro_support, symObjAddr: 0x5FB0, symBinAddr: 0x6698C, symSize: 0x15C }
  - { offset: 0xB9295, size: 0x8, addend: 0x0, symName: __RNvMsa_NtCsfieuf5LernF_9hashbrown3rawNtB5_13RawTableInner30find_or_find_insert_slot_innerCslvhnBjKo0yW_26wasm_bindgen_macro_support, symObjAddr: 0x610C, symBinAddr: 0x66AE8, symSize: 0x2B8 }
  - { offset: 0xB9696, size: 0x8, addend: 0x0, symName: __RNvMsi_NtCsfieuf5LernF_9hashbrown3rawINtB5_12RawIterRangeTNtNtCsdFlNUEO95cG_5alloc6string6StringNtCsfwj6t2KTYdc_11proc_macro25IdentEE3newCslvhnBjKo0yW_26wasm_bindgen_macro_support, symObjAddr: 0x63C4, symBinAddr: 0x66DA0, symSize: 0xC0 }
  - { offset: 0xB9936, size: 0x8, addend: 0x0, symName: __RNvMsi_NtCsfieuf5LernF_9hashbrown3rawINtB5_12RawIterRangeTNtNtCsdFlNUEO95cG_5alloc6string6StringNtNtCslvhnBjKo0yW_26wasm_bindgen_macro_support6encode9LocalFileEE3newB1A_, symObjAddr: 0x6484, symBinAddr: 0x66E60, symSize: 0xC0 }
  - { offset: 0xB9BD6, size: 0x8, addend: 0x0, symName: __RNvMsi_NtCsfieuf5LernF_9hashbrown3rawINtB5_12RawIterRangeTNtNtCsdFlNUEO95cG_5alloc6string6StringuEE3newCslvhnBjKo0yW_26wasm_bindgen_macro_support, symObjAddr: 0x6544, symBinAddr: 0x66F20, symSize: 0xC0 }
  - { offset: 0xB9E7B, size: 0x8, addend: 0x0, symName: __RINvNtNtCscwCr4GBBztI_3syn3gen5visit10visit_exprNtNvNtCslvhnBjKo0yW_26wasm_bindgen_macro_support6parser19assert_no_lifetimes4WalkEBQ_, symObjAddr: 0x0, symBinAddr: 0x672E8, symSize: 0x7D8 }
  - { offset: 0xBA7D2, size: 0x8, addend: 0x0, symName: __RINvNtNtCscwCr4GBBztI_3syn3gen5visit10visit_exprNtNvNtCslvhnBjKo0yW_26wasm_bindgen_macro_support6parser19assert_no_lifetimes4WalkEBQ_, symObjAddr: 0x0, symBinAddr: 0x672E8, symSize: 0x7D8 }
  - { offset: 0xBACDC, size: 0x8, addend: 0x0, symName: __RINvNtNtCscwCr4GBBztI_3syn3gen5visit10visit_itemNtNvNtCslvhnBjKo0yW_26wasm_bindgen_macro_support6parser19assert_no_lifetimes4WalkEBQ_, symObjAddr: 0x7D8, symBinAddr: 0x67AC0, symSize: 0x35C }
  - { offset: 0xBAEFC, size: 0x8, addend: 0x0, symName: __RINvNtNtCscwCr4GBBztI_3syn3gen5visit10visit_metaNtNvNtCslvhnBjKo0yW_26wasm_bindgen_macro_support6parser19assert_no_lifetimes4WalkEBQ_, symObjAddr: 0xB34, symBinAddr: 0x67E1C, symSize: 0xE8 }
  - { offset: 0xBAF90, size: 0x8, addend: 0x0, symName: __RINvNtNtCscwCr4GBBztI_3syn3gen5visit10visit_pathNtNvNtCslvhnBjKo0yW_26wasm_bindgen_macro_support6parser19assert_no_lifetimes4WalkEBQ_, symObjAddr: 0xC1C, symBinAddr: 0x67F04, symSize: 0xC8 }
  - { offset: 0xBB02D, size: 0x8, addend: 0x0, symName: __RINvNtNtCscwCr4GBBztI_3syn3gen5visit10visit_stmtNtNvNtCslvhnBjKo0yW_26wasm_bindgen_macro_support6parser19assert_no_lifetimes4WalkEBQ_, symObjAddr: 0xCE4, symBinAddr: 0x67FCC, symSize: 0x12C }
  - { offset: 0xBB0EF, size: 0x8, addend: 0x0, symName: __RINvNtNtCscwCr4GBBztI_3syn3gen5visit10visit_typeNtNvNtCslvhnBjKo0yW_26wasm_bindgen_macro_support6parser19assert_no_lifetimes4WalkEBQ_, symObjAddr: 0xE10, symBinAddr: 0x680F8, symSize: 0x328 }
  - { offset: 0xBB2EF, size: 0x8, addend: 0x0, symName: __RINvNtNtCscwCr4GBBztI_3syn3gen5visit11visit_blockNtNvNtCslvhnBjKo0yW_26wasm_bindgen_macro_support6parser19assert_no_lifetimes4WalkEBR_, symObjAddr: 0x1138, symBinAddr: 0x68420, symSize: 0x98 }
  - { offset: 0xBB36D, size: 0x8, addend: 0x0, symName: __RINvNtNtCscwCr4GBBztI_3syn3gen5visit11visit_fieldNtNvNtCslvhnBjKo0yW_26wasm_bindgen_macro_support6parser19assert_no_lifetimes4WalkEBR_, symObjAddr: 0x11D0, symBinAddr: 0x684B8, symSize: 0x114 }
  - { offset: 0xBB409, size: 0x8, addend: 0x0, symName: __RINvNtNtCscwCr4GBBztI_3syn3gen5visit11visit_identNtNvNtCslvhnBjKo0yW_26wasm_bindgen_macro_support6parser19assert_no_lifetimes4WalkEBR_, symObjAddr: 0x12E4, symBinAddr: 0x685CC, symSize: 0x58 }
  - { offset: 0xBB44B, size: 0x8, addend: 0x0, symName: __RINvNtNtCscwCr4GBBztI_3syn3gen5visit11visit_indexNtNvNtCslvhnBjKo0yW_26wasm_bindgen_macro_support6parser19assert_no_lifetimes4WalkEBR_, symObjAddr: 0x133C, symBinAddr: 0x68624, symSize: 0x3C }
  - { offset: 0xBB48D, size: 0x8, addend: 0x0, symName: __RINvNtNtCscwCr4GBBztI_3syn3gen5visit11visit_labelNtNvNtCslvhnBjKo0yW_26wasm_bindgen_macro_support6parser19assert_no_lifetimes4WalkEBR_, symObjAddr: 0x1378, symBinAddr: 0x68660, symSize: 0x3C }
  - { offset: 0xBB4CF, size: 0x8, addend: 0x0, symName: __RINvNtNtCscwCr4GBBztI_3syn3gen5visit11visit_localNtNvNtCslvhnBjKo0yW_26wasm_bindgen_macro_support6parser19assert_no_lifetimes4WalkEBR_, symObjAddr: 0x13B4, symBinAddr: 0x6869C, symSize: 0xFC }
  - { offset: 0xBB56B, size: 0x8, addend: 0x0, symName: __RINvNtNtCscwCr4GBBztI_3syn3gen5visit11visit_macroNtNvNtCslvhnBjKo0yW_26wasm_bindgen_macro_support6parser19assert_no_lifetimes4WalkEBR_, symObjAddr: 0x14B0, symBinAddr: 0x68798, symSize: 0x60 }
  - { offset: 0xBB5AD, size: 0x8, addend: 0x0, symName: __RINvNtNtCscwCr4GBBztI_3syn3gen5visit11visit_qselfNtNvNtCslvhnBjKo0yW_26wasm_bindgen_macro_support6parser19assert_no_lifetimes4WalkEBR_, symObjAddr: 0x1510, symBinAddr: 0x687F8, symSize: 0x90 }
  - { offset: 0xBB5EF, size: 0x8, addend: 0x0, symName: __RINvNtNtCscwCr4GBBztI_3syn3gen5visit11visit_un_opNtNvNtCslvhnBjKo0yW_26wasm_bindgen_macro_support6parser19assert_no_lifetimes4WalkEBR_, symObjAddr: 0x15A0, symBinAddr: 0x68888, symSize: 0xA8 }
  - { offset: 0xBB631, size: 0x8, addend: 0x0, symName: __RINvNtNtCscwCr4GBBztI_3syn3gen5visit12visit_bin_opNtNvNtCslvhnBjKo0yW_26wasm_bindgen_macro_support6parser19assert_no_lifetimes4WalkEBS_, symObjAddr: 0x1648, symBinAddr: 0x68930, symSize: 0x438 }
  - { offset: 0xBB673, size: 0x8, addend: 0x0, symName: __RINvNtNtCscwCr4GBBztI_3syn3gen5visit12visit_fieldsNtNvNtCslvhnBjKo0yW_26wasm_bindgen_macro_support6parser19assert_no_lifetimes4WalkEBS_, symObjAddr: 0x1A80, symBinAddr: 0x68D68, symSize: 0xC4 }
  - { offset: 0xBB6F1, size: 0x8, addend: 0x0, symName: __RINvNtNtCscwCr4GBBztI_3syn3gen5visit12visit_fn_argNtNvNtCslvhnBjKo0yW_26wasm_bindgen_macro_support6parser19assert_no_lifetimes4WalkEBS_, symObjAddr: 0x1B44, symBinAddr: 0x68E2C, symSize: 0xA0 }
  - { offset: 0xBB767, size: 0x8, addend: 0x0, symName: __RINvNtNtCscwCr4GBBztI_3syn3gen5visit12visit_memberNtNvNtCslvhnBjKo0yW_26wasm_bindgen_macro_support6parser19assert_no_lifetimes4WalkEBS_, symObjAddr: 0x1BE4, symBinAddr: 0x68ECC, symSize: 0x98 }
  - { offset: 0xBB7DD, size: 0x8, addend: 0x0, symName: __RINvNtNtCscwCr4GBBztI_3syn3gen5visit12visit_pat_orNtNvNtCslvhnBjKo0yW_26wasm_bindgen_macro_support6parser19assert_no_lifetimes4WalkEBS_, symObjAddr: 0x1C7C, symBinAddr: 0x68F64, symSize: 0x128 }
  - { offset: 0xBB8B6, size: 0x8, addend: 0x0, symName: __RINvNtNtCscwCr4GBBztI_3syn3gen5visit13visit_expr_ifNtNvNtCslvhnBjKo0yW_26wasm_bindgen_macro_support6parser19assert_no_lifetimes4WalkEBT_, symObjAddr: 0x1DA4, symBinAddr: 0x6908C, symSize: 0x1A8 }
  - { offset: 0xBB94A, size: 0x8, addend: 0x0, symName: __RINvNtNtCscwCr4GBBztI_3syn3gen5visit13visit_item_fnNtNvNtCslvhnBjKo0yW_26wasm_bindgen_macro_support6parser19assert_no_lifetimes4WalkEBT_, symObjAddr: 0x1F4C, symBinAddr: 0x69234, symSize: 0x110 }
  - { offset: 0xBB9C8, size: 0x8, addend: 0x0, symName: __RINvNtNtCscwCr4GBBztI_3syn3gen5visit13visit_lit_intNtNvNtCslvhnBjKo0yW_26wasm_bindgen_macro_support6parser19assert_no_lifetimes4WalkEBT_, symObjAddr: 0x205C, symBinAddr: 0x69344, symSize: 0x24 }
  - { offset: 0xBBA0A, size: 0x8, addend: 0x0, symName: __RINvNtNtCscwCr4GBBztI_3syn3gen5visit13visit_lit_strNtNvNtCslvhnBjKo0yW_26wasm_bindgen_macro_support6parser19assert_no_lifetimes4WalkEBT_, symObjAddr: 0x2080, symBinAddr: 0x69368, symSize: 0x24 }
  - { offset: 0xBBA4C, size: 0x8, addend: 0x0, symName: __RINvNtNtCscwCr4GBBztI_3syn3gen5visit13visit_variantNtNvNtCslvhnBjKo0yW_26wasm_bindgen_macro_support6parser19assert_no_lifetimes4WalkEBT_, symObjAddr: 0x20A4, symBinAddr: 0x6938C, symSize: 0x108 }
  - { offset: 0xBBAE8, size: 0x8, addend: 0x0, symName: __RINvNtNtCscwCr4GBBztI_3syn3gen5visit14visit_expr_letNtNvNtCslvhnBjKo0yW_26wasm_bindgen_macro_support6parser19assert_no_lifetimes4WalkEBU_, symObjAddr: 0x21AC, symBinAddr: 0x69494, symSize: 0x154 }
  - { offset: 0xBBB66, size: 0x8, addend: 0x0, symName: __RINvNtNtCscwCr4GBBztI_3syn3gen5visit14visit_expr_litNtNvNtCslvhnBjKo0yW_26wasm_bindgen_macro_support6parser19assert_no_lifetimes4WalkEBU_, symObjAddr: 0x2300, symBinAddr: 0x695E8, symSize: 0xA8 }
  - { offset: 0xBBBE4, size: 0x8, addend: 0x0, symName: __RINvNtNtCscwCr4GBBztI_3syn3gen5visit14visit_expr_tryNtNvNtCslvhnBjKo0yW_26wasm_bindgen_macro_support6parser19assert_no_lifetimes4WalkEBU_, symObjAddr: 0x23A8, symBinAddr: 0x69690, symSize: 0xF8 }
  - { offset: 0xBBC62, size: 0x8, addend: 0x0, symName: __RINvNtNtCscwCr4GBBztI_3syn3gen5visit14visit_genericsNtNvNtCslvhnBjKo0yW_26wasm_bindgen_macro_support6parser19assert_no_lifetimes4WalkEBU_, symObjAddr: 0x24A0, symBinAddr: 0x69788, symSize: 0x120 }
  - { offset: 0xBBD1D, size: 0x8, addend: 0x0, symName: __RINvNtNtCscwCr4GBBztI_3syn3gen5visit14visit_item_modNtNvNtCslvhnBjKo0yW_26wasm_bindgen_macro_support6parser19assert_no_lifetimes4WalkEBU_, symObjAddr: 0x25C0, symBinAddr: 0x698A8, symSize: 0x164 }
  - { offset: 0xBBDE5, size: 0x8, addend: 0x0, symName: __RINvNtNtCscwCr4GBBztI_3syn3gen5visit14visit_item_useNtNvNtCslvhnBjKo0yW_26wasm_bindgen_macro_support6parser19assert_no_lifetimes4WalkEBU_, symObjAddr: 0x2724, symBinAddr: 0x69A0C, symSize: 0xB8 }
  - { offset: 0xBBE63, size: 0x8, addend: 0x0, symName: __RINvNtNtCscwCr4GBBztI_3syn3gen5visit14visit_lit_boolNtNvNtCslvhnBjKo0yW_26wasm_bindgen_macro_support6parser19assert_no_lifetimes4WalkEBU_, symObjAddr: 0x27DC, symBinAddr: 0x69AC4, symSize: 0x3C }
  - { offset: 0xBBEA5, size: 0x8, addend: 0x0, symName: __RINvNtNtCscwCr4GBBztI_3syn3gen5visit14visit_lit_byteNtNvNtCslvhnBjKo0yW_26wasm_bindgen_macro_support6parser19assert_no_lifetimes4WalkEBU_, symObjAddr: 0x2818, symBinAddr: 0x69B00, symSize: 0x24 }
  - { offset: 0xBBEE7, size: 0x8, addend: 0x0, symName: __RINvNtNtCscwCr4GBBztI_3syn3gen5visit14visit_lit_charNtNvNtCslvhnBjKo0yW_26wasm_bindgen_macro_support6parser19assert_no_lifetimes4WalkEBU_, symObjAddr: 0x283C, symBinAddr: 0x69B24, symSize: 0x24 }
  - { offset: 0xBBF29, size: 0x8, addend: 0x0, symName: __RINvNtNtCscwCr4GBBztI_3syn3gen5visit14visit_lit_cstrNtNvNtCslvhnBjKo0yW_26wasm_bindgen_macro_support6parser19assert_no_lifetimes4WalkEBU_, symObjAddr: 0x2860, symBinAddr: 0x69B48, symSize: 0x24 }
  - { offset: 0xBBF6B, size: 0x8, addend: 0x0, symName: __RINvNtNtCscwCr4GBBztI_3syn3gen5visit14visit_pat_restNtNvNtCslvhnBjKo0yW_26wasm_bindgen_macro_support6parser19assert_no_lifetimes4WalkEBU_, symObjAddr: 0x2884, symBinAddr: 0x69B6C, symSize: 0x98 }
  - { offset: 0xBBFE9, size: 0x8, addend: 0x0, symName: __RINvNtNtCscwCr4GBBztI_3syn3gen5visit14visit_pat_typeNtNvNtCslvhnBjKo0yW_26wasm_bindgen_macro_support6parser19assert_no_lifetimes4WalkEBU_, symObjAddr: 0x291C, symBinAddr: 0x69C04, symSize: 0x154 }
  - { offset: 0xBC067, size: 0x8, addend: 0x0, symName: __RINvNtNtCscwCr4GBBztI_3syn3gen5visit14visit_pat_wildNtNvNtCslvhnBjKo0yW_26wasm_bindgen_macro_support6parser19assert_no_lifetimes4WalkEBU_, symObjAddr: 0x2A70, symBinAddr: 0x69D58, symSize: 0x98 }
  - { offset: 0xBC0E5, size: 0x8, addend: 0x0, symName: __RINvNtNtCscwCr4GBBztI_3syn3gen5visit14visit_receiverNtNvNtCslvhnBjKo0yW_26wasm_bindgen_macro_support6parser19assert_no_lifetimes4WalkEBU_, symObjAddr: 0x2B08, symBinAddr: 0x69DF0, symSize: 0x18C }
  - { offset: 0xBC18F, size: 0x8, addend: 0x0, symName: __RINvNtNtCscwCr4GBBztI_3syn3gen5visit14visit_type_ptrNtNvNtCslvhnBjKo0yW_26wasm_bindgen_macro_support6parser19assert_no_lifetimes4WalkEBU_, symObjAddr: 0x2C94, symBinAddr: 0x69F7C, symSize: 0x90 }
  - { offset: 0xBC1D1, size: 0x8, addend: 0x0, symName: __RINvNtNtCscwCr4GBBztI_3syn3gen5visit14visit_use_globNtNvNtCslvhnBjKo0yW_26wasm_bindgen_macro_support6parser19assert_no_lifetimes4WalkEBU_, symObjAddr: 0x2D24, symBinAddr: 0x6A00C, symSize: 0x24 }
  - { offset: 0xBC213, size: 0x8, addend: 0x0, symName: __RINvNtNtCscwCr4GBBztI_3syn3gen5visit14visit_use_nameNtNvNtCslvhnBjKo0yW_26wasm_bindgen_macro_support6parser19assert_no_lifetimes4WalkEBU_, symObjAddr: 0x2D48, symBinAddr: 0x6A030, symSize: 0x3C }
  - { offset: 0xBC255, size: 0x8, addend: 0x0, symName: __RINvNtNtCscwCr4GBBztI_3syn3gen5visit14visit_use_pathNtNvNtCslvhnBjKo0yW_26wasm_bindgen_macro_support6parser19assert_no_lifetimes4WalkEBU_, symObjAddr: 0x2D84, symBinAddr: 0x6A06C, symSize: 0xA4 }
  - { offset: 0xBC297, size: 0x8, addend: 0x0, symName: __RINvNtNtCscwCr4GBBztI_3syn3gen5visit14visit_use_treeNtNvNtCslvhnBjKo0yW_26wasm_bindgen_macro_support6parser19assert_no_lifetimes4WalkEBU_, symObjAddr: 0x2E28, symBinAddr: 0x6A110, symSize: 0x15C }
  - { offset: 0xBC367, size: 0x8, addend: 0x0, symName: __RINvNtNtCscwCr4GBBztI_3syn3gen5visit14visit_variadicNtNvNtCslvhnBjKo0yW_26wasm_bindgen_macro_support6parser19assert_no_lifetimes4WalkEBU_, symObjAddr: 0x2F84, symBinAddr: 0x6A26C, symSize: 0x13C }
  - { offset: 0xBC3FB, size: 0x8, addend: 0x0, symName: __RINvNtNtCscwCr4GBBztI_3syn3gen5visit15visit_attributeNtNvNtCslvhnBjKo0yW_26wasm_bindgen_macro_support6parser19assert_no_lifetimes4WalkEBV_, symObjAddr: 0x30C0, symBinAddr: 0x6A3A8, symSize: 0x50 }
  - { offset: 0xBC43D, size: 0x8, addend: 0x0, symName: __RINvNtNtCscwCr4GBBztI_3syn3gen5visit15visit_expr_callNtNvNtCslvhnBjKo0yW_26wasm_bindgen_macro_support6parser19assert_no_lifetimes4WalkEBV_, symObjAddr: 0x3110, symBinAddr: 0x6A3F8, symSize: 0x188 }
  - { offset: 0xBC50E, size: 0x8, addend: 0x0, symName: __RINvNtNtCscwCr4GBBztI_3syn3gen5visit15visit_expr_castNtNvNtCslvhnBjKo0yW_26wasm_bindgen_macro_support6parser19assert_no_lifetimes4WalkEBV_, symObjAddr: 0x3298, symBinAddr: 0x6A580, symSize: 0x154 }
  - { offset: 0xBC58C, size: 0x8, addend: 0x0, symName: __RINvNtNtCscwCr4GBBztI_3syn3gen5visit15visit_expr_loopNtNvNtCslvhnBjKo0yW_26wasm_bindgen_macro_support6parser19assert_no_lifetimes4WalkEBV_, symObjAddr: 0x33EC, symBinAddr: 0x6A6D4, symSize: 0xFC }
  - { offset: 0xBC628, size: 0x8, addend: 0x0, symName: __RINvNtNtCscwCr4GBBztI_3syn3gen5visit15visit_expr_pathNtNvNtCslvhnBjKo0yW_26wasm_bindgen_macro_support6parser19assert_no_lifetimes4WalkEBV_, symObjAddr: 0x34E8, symBinAddr: 0x6A7D0, symSize: 0xFC }
  - { offset: 0xBC6C4, size: 0x8, addend: 0x0, symName: __RINvNtNtCscwCr4GBBztI_3syn3gen5visit15visit_field_patNtNvNtCslvhnBjKo0yW_26wasm_bindgen_macro_support6parser19assert_no_lifetimes4WalkEBV_, symObjAddr: 0x35E4, symBinAddr: 0x6A8CC, symSize: 0x108 }
  - { offset: 0xBC742, size: 0x8, addend: 0x0, symName: __RINvNtNtCscwCr4GBBztI_3syn3gen5visit15visit_impl_itemNtNvNtCslvhnBjKo0yW_26wasm_bindgen_macro_support6parser19assert_no_lifetimes4WalkEBV_, symObjAddr: 0x36EC, symBinAddr: 0x6A9D4, symSize: 0x168 }
  - { offset: 0xBC812, size: 0x8, addend: 0x0, symName: __RINvNtNtCscwCr4GBBztI_3syn3gen5visit15visit_item_enumNtNvNtCslvhnBjKo0yW_26wasm_bindgen_macro_support6parser19assert_no_lifetimes4WalkEBV_, symObjAddr: 0x3854, symBinAddr: 0x6AB3C, symSize: 0x158 }
  - { offset: 0xBC8EB, size: 0x8, addend: 0x0, symName: __RINvNtNtCscwCr4GBBztI_3syn3gen5visit15visit_item_implNtNvNtCslvhnBjKo0yW_26wasm_bindgen_macro_support6parser19assert_no_lifetimes4WalkEBV_, symObjAddr: 0x39AC, symBinAddr: 0x6AC94, symSize: 0x1BC }
  - { offset: 0xBC9BC, size: 0x8, addend: 0x0, symName: __RINvNtNtCscwCr4GBBztI_3syn3gen5visit15visit_item_typeNtNvNtCslvhnBjKo0yW_26wasm_bindgen_macro_support6parser19assert_no_lifetimes4WalkEBV_, symObjAddr: 0x3B68, symBinAddr: 0x6AE50, symSize: 0x128 }
  - { offset: 0xBCA3A, size: 0x8, addend: 0x0, symName: __RINvNtNtCscwCr4GBBztI_3syn3gen5visit15visit_lit_floatNtNvNtCslvhnBjKo0yW_26wasm_bindgen_macro_support6parser19assert_no_lifetimes4WalkEBV_, symObjAddr: 0x3C90, symBinAddr: 0x6AF78, symSize: 0x24 }
  - { offset: 0xBCA7C, size: 0x8, addend: 0x0, symName: __RINvNtNtCscwCr4GBBztI_3syn3gen5visit15visit_meta_listNtNvNtCslvhnBjKo0yW_26wasm_bindgen_macro_support6parser19assert_no_lifetimes4WalkEBV_, symObjAddr: 0x3CB4, symBinAddr: 0x6AF9C, symSize: 0x60 }
  - { offset: 0xBCABE, size: 0x8, addend: 0x0, symName: __RINvNtNtCscwCr4GBBztI_3syn3gen5visit15visit_pat_identNtNvNtCslvhnBjKo0yW_26wasm_bindgen_macro_support6parser19assert_no_lifetimes4WalkEBV_, symObjAddr: 0x3D14, symBinAddr: 0x6AFFC, symSize: 0x14C }
  - { offset: 0xBCB52, size: 0x8, addend: 0x0, symName: __RINvNtNtCscwCr4GBBztI_3syn3gen5visit15visit_pat_parenNtNvNtCslvhnBjKo0yW_26wasm_bindgen_macro_support6parser19assert_no_lifetimes4WalkEBV_, symObjAddr: 0x3E60, symBinAddr: 0x6B148, symSize: 0xF8 }
  - { offset: 0xBCBD0, size: 0x8, addend: 0x0, symName: __RINvNtNtCscwCr4GBBztI_3syn3gen5visit15visit_pat_sliceNtNvNtCslvhnBjKo0yW_26wasm_bindgen_macro_support6parser19assert_no_lifetimes4WalkEBV_, symObjAddr: 0x3F58, symBinAddr: 0x6B240, symSize: 0x128 }
  - { offset: 0xBCCA9, size: 0x8, addend: 0x0, symName: __RINvNtNtCscwCr4GBBztI_3syn3gen5visit15visit_pat_tupleNtNvNtCslvhnBjKo0yW_26wasm_bindgen_macro_support6parser19assert_no_lifetimes4WalkEBV_, symObjAddr: 0x4080, symBinAddr: 0x6B368, symSize: 0x128 }
  - { offset: 0xBCD82, size: 0x8, addend: 0x0, symName: __RINvNtNtCscwCr4GBBztI_3syn3gen5visit15visit_signatureNtNvNtCslvhnBjKo0yW_26wasm_bindgen_macro_support6parser19assert_no_lifetimes4WalkEBV_, symObjAddr: 0x41A8, symBinAddr: 0x6B490, symSize: 0x190 }
  - { offset: 0xBCE5B, size: 0x8, addend: 0x0, symName: __RINvNtNtCscwCr4GBBztI_3syn3gen5visit15visit_type_pathNtNvNtCslvhnBjKo0yW_26wasm_bindgen_macro_support6parser19assert_no_lifetimes4WalkEBV_, symObjAddr: 0x4338, symBinAddr: 0x6B620, symSize: 0x90 }
  - { offset: 0xBCEBB, size: 0x8, addend: 0x0, symName: __RINvNtNtCscwCr4GBBztI_3syn3gen5visit15visit_use_groupNtNvNtCslvhnBjKo0yW_26wasm_bindgen_macro_support6parser19assert_no_lifetimes4WalkEBV_, symObjAddr: 0x43C8, symBinAddr: 0x6B6B0, symSize: 0xC8 }
  - { offset: 0xBCF58, size: 0x8, addend: 0x0, symName: __RINvNtNtCscwCr4GBBztI_3syn3gen5visit16visit_assoc_typeNtNvNtCslvhnBjKo0yW_26wasm_bindgen_macro_support6parser19assert_no_lifetimes4WalkEBW_, symObjAddr: 0x4490, symBinAddr: 0x6B778, symSize: 0xA4 }
  - { offset: 0xBCFB8, size: 0x8, addend: 0x0, symName: __RINvNtNtCscwCr4GBBztI_3syn3gen5visit16visit_attr_styleNtNvNtCslvhnBjKo0yW_26wasm_bindgen_macro_support6parser19assert_no_lifetimes4WalkEBW_, symObjAddr: 0x4534, symBinAddr: 0x6B81C, symSize: 0x68 }
  - { offset: 0xBCFFA, size: 0x8, addend: 0x0, symName: __RINvNtNtCscwCr4GBBztI_3syn3gen5visit16visit_constraintNtNvNtCslvhnBjKo0yW_26wasm_bindgen_macro_support6parser19assert_no_lifetimes4WalkEBW_, symObjAddr: 0x459C, symBinAddr: 0x6B884, symSize: 0x124 }
  - { offset: 0xBD0B5, size: 0x8, addend: 0x0, symName: __RINvNtNtCscwCr4GBBztI_3syn3gen5visit16visit_expr_arrayNtNvNtCslvhnBjKo0yW_26wasm_bindgen_macro_support6parser19assert_no_lifetimes4WalkEBW_, symObjAddr: 0x46C0, symBinAddr: 0x6B9A8, symSize: 0x128 }
  - { offset: 0xBD18E, size: 0x8, addend: 0x0, symName: __RINvNtNtCscwCr4GBBztI_3syn3gen5visit16visit_expr_asyncNtNvNtCslvhnBjKo0yW_26wasm_bindgen_macro_support6parser19assert_no_lifetimes4WalkEBW_, symObjAddr: 0x47E8, symBinAddr: 0x6BAD0, symSize: 0xA8 }
  - { offset: 0xBD20C, size: 0x8, addend: 0x0, symName: __RINvNtNtCscwCr4GBBztI_3syn3gen5visit16visit_expr_awaitNtNvNtCslvhnBjKo0yW_26wasm_bindgen_macro_support6parser19assert_no_lifetimes4WalkEBW_, symObjAddr: 0x4890, symBinAddr: 0x6BB78, symSize: 0xF8 }
  - { offset: 0xBD28A, size: 0x8, addend: 0x0, symName: __RINvNtNtCscwCr4GBBztI_3syn3gen5visit16visit_expr_blockNtNvNtCslvhnBjKo0yW_26wasm_bindgen_macro_support6parser19assert_no_lifetimes4WalkEBW_, symObjAddr: 0x4988, symBinAddr: 0x6BC70, symSize: 0xFC }
  - { offset: 0xBD326, size: 0x8, addend: 0x0, symName: __RINvNtNtCscwCr4GBBztI_3syn3gen5visit16visit_expr_breakNtNvNtCslvhnBjKo0yW_26wasm_bindgen_macro_support6parser19assert_no_lifetimes4WalkEBW_, symObjAddr: 0x4A84, symBinAddr: 0x6BD6C, symSize: 0x18C }
  - { offset: 0xBD3D8, size: 0x8, addend: 0x0, symName: __RINvNtNtCscwCr4GBBztI_3syn3gen5visit16visit_expr_constNtNvNtCslvhnBjKo0yW_26wasm_bindgen_macro_support6parser19assert_no_lifetimes4WalkEBW_, symObjAddr: 0x4C10, symBinAddr: 0x6BEF8, symSize: 0xA8 }
  - { offset: 0xBD456, size: 0x8, addend: 0x0, symName: __RINvNtNtCscwCr4GBBztI_3syn3gen5visit16visit_expr_fieldNtNvNtCslvhnBjKo0yW_26wasm_bindgen_macro_support6parser19assert_no_lifetimes4WalkEBW_, symObjAddr: 0x4CB8, symBinAddr: 0x6BFA0, symSize: 0x108 }
  - { offset: 0xBD4D4, size: 0x8, addend: 0x0, symName: __RINvNtNtCscwCr4GBBztI_3syn3gen5visit16visit_expr_groupNtNvNtCslvhnBjKo0yW_26wasm_bindgen_macro_support6parser19assert_no_lifetimes4WalkEBW_, symObjAddr: 0x4DC0, symBinAddr: 0x6C0A8, symSize: 0xF8 }
  - { offset: 0xBD552, size: 0x8, addend: 0x0, symName: __RINvNtNtCscwCr4GBBztI_3syn3gen5visit16visit_expr_indexNtNvNtCslvhnBjKo0yW_26wasm_bindgen_macro_support6parser19assert_no_lifetimes4WalkEBW_, symObjAddr: 0x4EB8, symBinAddr: 0x6C1A0, symSize: 0x154 }
  - { offset: 0xBD5D0, size: 0x8, addend: 0x0, symName: __RINvNtNtCscwCr4GBBztI_3syn3gen5visit16visit_expr_inferNtNvNtCslvhnBjKo0yW_26wasm_bindgen_macro_support6parser19assert_no_lifetimes4WalkEBW_, symObjAddr: 0x500C, symBinAddr: 0x6C2F4, symSize: 0x98 }
  - { offset: 0xBD64E, size: 0x8, addend: 0x0, symName: __RINvNtNtCscwCr4GBBztI_3syn3gen5visit16visit_expr_macroNtNvNtCslvhnBjKo0yW_26wasm_bindgen_macro_support6parser19assert_no_lifetimes4WalkEBW_, symObjAddr: 0x50A4, symBinAddr: 0x6C38C, symSize: 0xA8 }
  - { offset: 0xBD6CC, size: 0x8, addend: 0x0, symName: __RINvNtNtCscwCr4GBBztI_3syn3gen5visit16visit_expr_matchNtNvNtCslvhnBjKo0yW_26wasm_bindgen_macro_support6parser19assert_no_lifetimes4WalkEBW_, symObjAddr: 0x514C, symBinAddr: 0x6C434, symSize: 0x158 }
  - { offset: 0xBD77E, size: 0x8, addend: 0x0, symName: __RINvNtNtCscwCr4GBBztI_3syn3gen5visit16visit_expr_parenNtNvNtCslvhnBjKo0yW_26wasm_bindgen_macro_support6parser19assert_no_lifetimes4WalkEBW_, symObjAddr: 0x52A4, symBinAddr: 0x6C58C, symSize: 0xF8 }
  - { offset: 0xBD7FC, size: 0x8, addend: 0x0, symName: __RINvNtNtCscwCr4GBBztI_3syn3gen5visit16visit_expr_rangeNtNvNtCslvhnBjKo0yW_26wasm_bindgen_macro_support6parser19assert_no_lifetimes4WalkEBW_, symObjAddr: 0x539C, symBinAddr: 0x6C684, symSize: 0x1EC }
  - { offset: 0xBD8A6, size: 0x8, addend: 0x0, symName: __RINvNtNtCscwCr4GBBztI_3syn3gen5visit16visit_expr_tupleNtNvNtCslvhnBjKo0yW_26wasm_bindgen_macro_support6parser19assert_no_lifetimes4WalkEBW_, symObjAddr: 0x5588, symBinAddr: 0x6C870, symSize: 0x128 }
  - { offset: 0xBD97F, size: 0x8, addend: 0x0, symName: __RINvNtNtCscwCr4GBBztI_3syn3gen5visit16visit_expr_unaryNtNvNtCslvhnBjKo0yW_26wasm_bindgen_macro_support6parser19assert_no_lifetimes4WalkEBW_, symObjAddr: 0x56B0, symBinAddr: 0x6C998, symSize: 0x108 }
  - { offset: 0xBD9FD, size: 0x8, addend: 0x0, symName: __RINvNtNtCscwCr4GBBztI_3syn3gen5visit16visit_expr_whileNtNvNtCslvhnBjKo0yW_26wasm_bindgen_macro_support6parser19assert_no_lifetimes4WalkEBW_, symObjAddr: 0x57B8, symBinAddr: 0x6CAA0, symSize: 0x158 }
  - { offset: 0xBDA99, size: 0x8, addend: 0x0, symName: __RINvNtNtCscwCr4GBBztI_3syn3gen5visit16visit_expr_yieldNtNvNtCslvhnBjKo0yW_26wasm_bindgen_macro_support6parser19assert_no_lifetimes4WalkEBW_, symObjAddr: 0x5910, symBinAddr: 0x6CBF8, symSize: 0x13C }
  - { offset: 0xBDB2D, size: 0x8, addend: 0x0, symName: __RINvNtNtCscwCr4GBBztI_3syn3gen5visit16visit_item_constNtNvNtCslvhnBjKo0yW_26wasm_bindgen_macro_support6parser19assert_no_lifetimes4WalkEBW_, symObjAddr: 0x5A4C, symBinAddr: 0x6CD34, symSize: 0x184 }
  - { offset: 0xBDBAB, size: 0x8, addend: 0x0, symName: __RINvNtNtCscwCr4GBBztI_3syn3gen5visit16visit_item_macroNtNvNtCslvhnBjKo0yW_26wasm_bindgen_macro_support6parser19assert_no_lifetimes4WalkEBW_, symObjAddr: 0x5BD0, symBinAddr: 0x6CEB8, symSize: 0xFC }
  - { offset: 0xBDC47, size: 0x8, addend: 0x0, symName: __RINvNtNtCscwCr4GBBztI_3syn3gen5visit16visit_item_traitNtNvNtCslvhnBjKo0yW_26wasm_bindgen_macro_support6parser19assert_no_lifetimes4WalkEBW_, symObjAddr: 0x5CCC, symBinAddr: 0x6CFB4, symSize: 0x1BC }
  - { offset: 0xBDD78, size: 0x8, addend: 0x0, symName: __RINvNtNtCscwCr4GBBztI_3syn3gen5visit16visit_item_unionNtNvNtCslvhnBjKo0yW_26wasm_bindgen_macro_support6parser19assert_no_lifetimes4WalkEBW_, symObjAddr: 0x5E88, symBinAddr: 0x6D170, symSize: 0xD8 }
  - { offset: 0xBDDF6, size: 0x8, addend: 0x0, symName: __RINvNtNtCscwCr4GBBztI_3syn3gen5visit16visit_local_initNtNvNtCslvhnBjKo0yW_26wasm_bindgen_macro_support6parser19assert_no_lifetimes4WalkEBW_, symObjAddr: 0x5F60, symBinAddr: 0x6D248, symSize: 0x134 }
  - { offset: 0xBDE4E, size: 0x8, addend: 0x0, symName: __RINvNtNtCscwCr4GBBztI_3syn3gen5visit16visit_pat_structNtNvNtCslvhnBjKo0yW_26wasm_bindgen_macro_support6parser19assert_no_lifetimes4WalkEBW_, symObjAddr: 0x6094, symBinAddr: 0x6D37C, symSize: 0x1E0 }
  - { offset: 0xBDF63, size: 0x8, addend: 0x0, symName: __RINvNtNtCscwCr4GBBztI_3syn3gen5visit16visit_stmt_macroNtNvNtCslvhnBjKo0yW_26wasm_bindgen_macro_support6parser19assert_no_lifetimes4WalkEBW_, symObjAddr: 0x6274, symBinAddr: 0x6D55C, symSize: 0xA8 }
  - { offset: 0xBDFE1, size: 0x8, addend: 0x0, symName: __RINvNtNtCscwCr4GBBztI_3syn3gen5visit16visit_trait_itemNtNvNtCslvhnBjKo0yW_26wasm_bindgen_macro_support6parser19assert_no_lifetimes4WalkEBW_, symObjAddr: 0x631C, symBinAddr: 0x6D604, symSize: 0x168 }
  - { offset: 0xBE0B1, size: 0x8, addend: 0x0, symName: __RINvNtNtCscwCr4GBBztI_3syn3gen5visit16visit_type_arrayNtNvNtCslvhnBjKo0yW_26wasm_bindgen_macro_support6parser19assert_no_lifetimes4WalkEBW_, symObjAddr: 0x6484, symBinAddr: 0x6D76C, symSize: 0xA0 }
  - { offset: 0xBE0F3, size: 0x8, addend: 0x0, symName: __RINvNtNtCscwCr4GBBztI_3syn3gen5visit16visit_type_groupNtNvNtCslvhnBjKo0yW_26wasm_bindgen_macro_support6parser19assert_no_lifetimes4WalkEBW_, symObjAddr: 0x6524, symBinAddr: 0x6D80C, symSize: 0x90 }
  - { offset: 0xBE135, size: 0x8, addend: 0x0, symName: __RINvNtNtCscwCr4GBBztI_3syn3gen5visit16visit_type_inferNtNvNtCslvhnBjKo0yW_26wasm_bindgen_macro_support6parser19assert_no_lifetimes4WalkEBW_, symObjAddr: 0x65B4, symBinAddr: 0x6D89C, symSize: 0x24 }
  - { offset: 0xBE177, size: 0x8, addend: 0x0, symName: __RINvNtNtCscwCr4GBBztI_3syn3gen5visit16visit_type_macroNtNvNtCslvhnBjKo0yW_26wasm_bindgen_macro_support6parser19assert_no_lifetimes4WalkEBW_, symObjAddr: 0x65D8, symBinAddr: 0x6D8C0, symSize: 0x3C }
  - { offset: 0xBE1B9, size: 0x8, addend: 0x0, symName: __RINvNtNtCscwCr4GBBztI_3syn3gen5visit16visit_type_neverNtNvNtCslvhnBjKo0yW_26wasm_bindgen_macro_support6parser19assert_no_lifetimes4WalkEBW_, symObjAddr: 0x6614, symBinAddr: 0x6D8FC, symSize: 0x24 }
  - { offset: 0xBE1FB, size: 0x8, addend: 0x0, symName: __RINvNtNtCscwCr4GBBztI_3syn3gen5visit16visit_type_paramNtNvNtCslvhnBjKo0yW_26wasm_bindgen_macro_support6parser19assert_no_lifetimes4WalkEBW_, symObjAddr: 0x6638, symBinAddr: 0x6D920, symSize: 0x180 }
  - { offset: 0xBE2F2, size: 0x8, addend: 0x0, symName: __RINvNtNtCscwCr4GBBztI_3syn3gen5visit16visit_type_parenNtNvNtCslvhnBjKo0yW_26wasm_bindgen_macro_support6parser19assert_no_lifetimes4WalkEBW_, symObjAddr: 0x67B8, symBinAddr: 0x6DAA0, symSize: 0x90 }
  - { offset: 0xBE334, size: 0x8, addend: 0x0, symName: __RINvNtNtCscwCr4GBBztI_3syn3gen5visit16visit_type_sliceNtNvNtCslvhnBjKo0yW_26wasm_bindgen_macro_support6parser19assert_no_lifetimes4WalkEBW_, symObjAddr: 0x6848, symBinAddr: 0x6DB30, symSize: 0x90 }
  - { offset: 0xBE376, size: 0x8, addend: 0x0, symName: __RINvNtNtCscwCr4GBBztI_3syn3gen5visit16visit_type_tupleNtNvNtCslvhnBjKo0yW_26wasm_bindgen_macro_support6parser19assert_no_lifetimes4WalkEBW_, symObjAddr: 0x68D8, symBinAddr: 0x6DBC0, symSize: 0xC8 }
  - { offset: 0xBE413, size: 0x8, addend: 0x0, symName: __RINvNtNtCscwCr4GBBztI_3syn3gen5visit16visit_use_renameNtNvNtCslvhnBjKo0yW_26wasm_bindgen_macro_support6parser19assert_no_lifetimes4WalkEBW_, symObjAddr: 0x69A0, symBinAddr: 0x6DC88, symSize: 0x50 }
  - { offset: 0xBE455, size: 0x8, addend: 0x0, symName: __RINvNtNtCscwCr4GBBztI_3syn3gen5visit16visit_visibilityNtNvNtCslvhnBjKo0yW_26wasm_bindgen_macro_support6parser19assert_no_lifetimes4WalkEBW_, symObjAddr: 0x69F0, symBinAddr: 0x6DCD8, symSize: 0xC4 }
  - { offset: 0xBE4B5, size: 0x8, addend: 0x0, symName: __RINvNtNtCscwCr4GBBztI_3syn3gen5visit17visit_assoc_constNtNvNtCslvhnBjKo0yW_26wasm_bindgen_macro_support6parser19assert_no_lifetimes4WalkEBX_, symObjAddr: 0x6AB4, symBinAddr: 0x6DD9C, symSize: 0xA4 }
  - { offset: 0xBE515, size: 0x8, addend: 0x0, symName: __RINvNtNtCscwCr4GBBztI_3syn3gen5visit17visit_bare_fn_argNtNvNtCslvhnBjKo0yW_26wasm_bindgen_macro_support6parser19assert_no_lifetimes4WalkEBX_, symObjAddr: 0x6B58, symBinAddr: 0x6DE40, symSize: 0xF4 }
  - { offset: 0xBE5B1, size: 0x8, addend: 0x0, symName: __RINvNtNtCscwCr4GBBztI_3syn3gen5visit17visit_const_paramNtNvNtCslvhnBjKo0yW_26wasm_bindgen_macro_support6parser19assert_no_lifetimes4WalkEBX_, symObjAddr: 0x6C4C, symBinAddr: 0x6DF34, symSize: 0x104 }
  - { offset: 0xBE64D, size: 0x8, addend: 0x0, symName: __RINvNtNtCscwCr4GBBztI_3syn3gen5visit17visit_expr_assignNtNvNtCslvhnBjKo0yW_26wasm_bindgen_macro_support6parser19assert_no_lifetimes4WalkEBX_, symObjAddr: 0x6D50, symBinAddr: 0x6E038, symSize: 0x154 }
  - { offset: 0xBE6CB, size: 0x8, addend: 0x0, symName: __RINvNtNtCscwCr4GBBztI_3syn3gen5visit17visit_expr_binaryNtNvNtCslvhnBjKo0yW_26wasm_bindgen_macro_support6parser19assert_no_lifetimes4WalkEBX_, symObjAddr: 0x6EA4, symBinAddr: 0x6E18C, symSize: 0x164 }
  - { offset: 0xBE749, size: 0x8, addend: 0x0, symName: __RINvNtNtCscwCr4GBBztI_3syn3gen5visit17visit_expr_repeatNtNvNtCslvhnBjKo0yW_26wasm_bindgen_macro_support6parser19assert_no_lifetimes4WalkEBX_, symObjAddr: 0x7008, symBinAddr: 0x6E2F0, symSize: 0x154 }
  - { offset: 0xBE7C7, size: 0x8, addend: 0x0, symName: __RINvNtNtCscwCr4GBBztI_3syn3gen5visit17visit_expr_returnNtNvNtCslvhnBjKo0yW_26wasm_bindgen_macro_support6parser19assert_no_lifetimes4WalkEBX_, symObjAddr: 0x715C, symBinAddr: 0x6E444, symSize: 0x13C }
  - { offset: 0xBE85B, size: 0x8, addend: 0x0, symName: __RINvNtNtCscwCr4GBBztI_3syn3gen5visit17visit_expr_structNtNvNtCslvhnBjKo0yW_26wasm_bindgen_macro_support6parser19assert_no_lifetimes4WalkEBX_, symObjAddr: 0x7298, symBinAddr: 0x6E580, symSize: 0x234 }
  - { offset: 0xBE969, size: 0x8, addend: 0x0, symName: __RINvNtNtCscwCr4GBBztI_3syn3gen5visit17visit_expr_unsafeNtNvNtCslvhnBjKo0yW_26wasm_bindgen_macro_support6parser19assert_no_lifetimes4WalkEBX_, symObjAddr: 0x74CC, symBinAddr: 0x6E7B4, symSize: 0xA8 }
  - { offset: 0xBE9E7, size: 0x8, addend: 0x0, symName: __RINvNtNtCscwCr4GBBztI_3syn3gen5visit17visit_field_valueNtNvNtCslvhnBjKo0yW_26wasm_bindgen_macro_support6parser19assert_no_lifetimes4WalkEBX_, symObjAddr: 0x7574, symBinAddr: 0x6E85C, symSize: 0xB0 }
  - { offset: 0xBEA65, size: 0x8, addend: 0x0, symName: __RINvNtNtCscwCr4GBBztI_3syn3gen5visit17visit_item_staticNtNvNtCslvhnBjKo0yW_26wasm_bindgen_macro_support6parser19assert_no_lifetimes4WalkEBX_, symObjAddr: 0x7624, symBinAddr: 0x6E90C, symSize: 0x184 }
  - { offset: 0xBEAE3, size: 0x8, addend: 0x0, symName: __RINvNtNtCscwCr4GBBztI_3syn3gen5visit17visit_item_structNtNvNtCslvhnBjKo0yW_26wasm_bindgen_macro_support6parser19assert_no_lifetimes4WalkEBX_, symObjAddr: 0x77A8, symBinAddr: 0x6EA90, symSize: 0xD0 }
  - { offset: 0xBEB61, size: 0x8, addend: 0x0, symName: __RINvNtNtCscwCr4GBBztI_3syn3gen5visit17visit_return_typeNtNvNtCslvhnBjKo0yW_26wasm_bindgen_macro_support6parser19assert_no_lifetimes4WalkEBX_, symObjAddr: 0x7878, symBinAddr: 0x6EB60, symSize: 0xD8 }
  - { offset: 0xBEBC9, size: 0x8, addend: 0x0, symName: __RINvNtNtCscwCr4GBBztI_3syn3gen5visit17visit_trait_boundNtNvNtCslvhnBjKo0yW_26wasm_bindgen_macro_support6parser19assert_no_lifetimes4WalkEBX_, symObjAddr: 0x7950, symBinAddr: 0x6EC38, symSize: 0xA4 }
  - { offset: 0xBEC29, size: 0x8, addend: 0x0, symName: __RINvNtNtCscwCr4GBBztI_3syn3gen5visit18visit_expr_closureNtNvNtCslvhnBjKo0yW_26wasm_bindgen_macro_support6parser19assert_no_lifetimes4WalkEBY_, symObjAddr: 0x79F4, symBinAddr: 0x6ECDC, symSize: 0x1EC }
  - { offset: 0xBED20, size: 0x8, addend: 0x0, symName: __RINvNtNtCscwCr4GBBztI_3syn3gen5visit18visit_fields_namedNtNvNtCslvhnBjKo0yW_26wasm_bindgen_macro_support6parser19assert_no_lifetimes4WalkEBY_, symObjAddr: 0x7BE0, symBinAddr: 0x6EEC8, symSize: 0xC8 }
  - { offset: 0xBEDBD, size: 0x8, addend: 0x0, symName: __RINvNtNtCscwCr4GBBztI_3syn3gen5visit18visit_foreign_itemNtNvNtCslvhnBjKo0yW_26wasm_bindgen_macro_support6parser19assert_no_lifetimes4WalkEBY_, symObjAddr: 0x7CA8, symBinAddr: 0x6EF90, symSize: 0x168 }
  - { offset: 0xBEE8D, size: 0x8, addend: 0x0, symName: __RINvNtNtCscwCr4GBBztI_3syn3gen5visit18visit_impl_item_fnNtNvNtCslvhnBjKo0yW_26wasm_bindgen_macro_support6parser19assert_no_lifetimes4WalkEBY_, symObjAddr: 0x7E10, symBinAddr: 0x6F0F8, symSize: 0xC0 }
  - { offset: 0xBEF0B, size: 0x8, addend: 0x0, symName: __RINvNtNtCscwCr4GBBztI_3syn3gen5visit18visit_lit_byte_strNtNvNtCslvhnBjKo0yW_26wasm_bindgen_macro_support6parser19assert_no_lifetimes4WalkEBY_, symObjAddr: 0x7ED0, symBinAddr: 0x6F1B8, symSize: 0x24 }
  - { offset: 0xBEF4D, size: 0x8, addend: 0x0, symName: __RINvNtNtCscwCr4GBBztI_3syn3gen5visit18visit_path_segmentNtNvNtCslvhnBjKo0yW_26wasm_bindgen_macro_support6parser19assert_no_lifetimes4WalkEBY_, symObjAddr: 0x7EF4, symBinAddr: 0x6F1DC, symSize: 0x50 }
  - { offset: 0xBEF8F, size: 0x8, addend: 0x0, symName: __RINvNtNtCscwCr4GBBztI_3syn3gen5visit18visit_range_limitsNtNvNtCslvhnBjKo0yW_26wasm_bindgen_macro_support6parser19assert_no_lifetimes4WalkEBY_, symObjAddr: 0x7F44, symBinAddr: 0x6F22C, symSize: 0x74 }
  - { offset: 0xBEFD1, size: 0x8, addend: 0x0, symName: __RINvNtNtCscwCr4GBBztI_3syn3gen5visit18visit_type_bare_fnNtNvNtCslvhnBjKo0yW_26wasm_bindgen_macro_support6parser19assert_no_lifetimes4WalkEBY_, symObjAddr: 0x7FB8, symBinAddr: 0x6F2A0, symSize: 0x1C0 }
  - { offset: 0xBF0C8, size: 0x8, addend: 0x0, symName: __RINvNtNtCscwCr4GBBztI_3syn3gen5visit18visit_where_clauseNtNvNtCslvhnBjKo0yW_26wasm_bindgen_macro_support6parser19assert_no_lifetimes4WalkEBY_, symObjAddr: 0x8178, symBinAddr: 0x6F460, symSize: 0xC8 }
  - { offset: 0xBF165, size: 0x8, addend: 0x0, symName: __RINvNtNtCscwCr4GBBztI_3syn3gen5visit19visit_bare_variadicNtNvNtCslvhnBjKo0yW_26wasm_bindgen_macro_support6parser19assert_no_lifetimes4WalkEBZ_, symObjAddr: 0x8240, symBinAddr: 0x6F528, symSize: 0xEC }
  - { offset: 0xBF201, size: 0x8, addend: 0x0, symName: __RINvNtNtCscwCr4GBBztI_3syn3gen5visit19visit_expr_continueNtNvNtCslvhnBjKo0yW_26wasm_bindgen_macro_support6parser19assert_no_lifetimes4WalkEBZ_, symObjAddr: 0x832C, symBinAddr: 0x6F614, symSize: 0xEC }
  - { offset: 0xBF29D, size: 0x8, addend: 0x0, symName: __RINvNtNtCscwCr4GBBztI_3syn3gen5visit19visit_expr_for_loopNtNvNtCslvhnBjKo0yW_26wasm_bindgen_macro_support6parser19assert_no_lifetimes4WalkEBZ_, symObjAddr: 0x8418, symBinAddr: 0x6F700, symSize: 0x1B4 }
  - { offset: 0xBF339, size: 0x8, addend: 0x0, symName: __RINvNtNtCscwCr4GBBztI_3syn3gen5visit19visit_expr_raw_addrNtNvNtCslvhnBjKo0yW_26wasm_bindgen_macro_support6parser19assert_no_lifetimes4WalkEBZ_, symObjAddr: 0x85CC, symBinAddr: 0x6F8B4, symSize: 0x108 }
  - { offset: 0xBF3B7, size: 0x8, addend: 0x0, symName: __RINvNtNtCscwCr4GBBztI_3syn3gen5visit19visit_generic_paramNtNvNtCslvhnBjKo0yW_26wasm_bindgen_macro_support6parser19assert_no_lifetimes4WalkEBZ_, symObjAddr: 0x86D4, symBinAddr: 0x6F9BC, symSize: 0xE8 }
  - { offset: 0xBF44B, size: 0x8, addend: 0x0, symName: __RINvNtNtCscwCr4GBBztI_3syn3gen5visit19visit_pat_referenceNtNvNtCslvhnBjKo0yW_26wasm_bindgen_macro_support6parser19assert_no_lifetimes4WalkEBZ_, symObjAddr: 0x87BC, symBinAddr: 0x6FAA4, symSize: 0xF8 }
  - { offset: 0xBF4C9, size: 0x8, addend: 0x0, symName: __RINvNtNtCscwCr4GBBztI_3syn3gen5visit19visit_trait_item_fnNtNvNtCslvhnBjKo0yW_26wasm_bindgen_macro_support6parser19assert_no_lifetimes4WalkEBZ_, symObjAddr: 0x88B4, symBinAddr: 0x6FB9C, symSize: 0xF8 }
  - { offset: 0xBF565, size: 0x8, addend: 0x0, symName: __RINvNtNtCscwCr4GBBztI_3syn3gen5visit20visit_captured_paramNtNvNtCslvhnBjKo0yW_26wasm_bindgen_macro_support6parser19assert_no_lifetimes4WalkEB10_, symObjAddr: 0x89AC, symBinAddr: 0x6FC94, symSize: 0x94 }
  - { offset: 0xBF5DB, size: 0x8, addend: 0x0, symName: __RINvNtNtCscwCr4GBBztI_3syn3gen5visit20visit_expr_referenceNtNvNtCslvhnBjKo0yW_26wasm_bindgen_macro_support6parser19assert_no_lifetimes4WalkEB10_, symObjAddr: 0x8A40, symBinAddr: 0x6FD28, symSize: 0xF8 }
  - { offset: 0xBF659, size: 0x8, addend: 0x0, symName: __RINvNtNtCscwCr4GBBztI_3syn3gen5visit20visit_expr_try_blockNtNvNtCslvhnBjKo0yW_26wasm_bindgen_macro_support6parser19assert_no_lifetimes4WalkEB10_, symObjAddr: 0x8B38, symBinAddr: 0x6FE20, symSize: 0xA8 }
  - { offset: 0xBF6D7, size: 0x8, addend: 0x0, symName: __RINvNtNtCscwCr4GBBztI_3syn3gen5visit20visit_fields_unnamedNtNvNtCslvhnBjKo0yW_26wasm_bindgen_macro_support6parser19assert_no_lifetimes4WalkEB10_, symObjAddr: 0x8BE0, symBinAddr: 0x6FEC8, symSize: 0xC8 }
  - { offset: 0xBF774, size: 0x8, addend: 0x0, symName: __RINvNtNtCscwCr4GBBztI_3syn3gen5visit20visit_impl_item_typeNtNvNtCslvhnBjKo0yW_26wasm_bindgen_macro_support6parser19assert_no_lifetimes4WalkEB10_, symObjAddr: 0x8CA8, symBinAddr: 0x6FF90, symSize: 0xD0 }
  - { offset: 0xBF7F2, size: 0x8, addend: 0x0, symName: __RINvNtNtCscwCr4GBBztI_3syn3gen5visit20visit_lifetime_paramNtNvNtCslvhnBjKo0yW_26wasm_bindgen_macro_support6parser19assert_no_lifetimes4WalkEB10_, symObjAddr: 0x8D78, symBinAddr: 0x70060, symSize: 0x138 }
  - { offset: 0xBF8CB, size: 0x8, addend: 0x0, symName: __RINvNtNtCscwCr4GBBztI_3syn3gen5visit20visit_path_argumentsNtNvNtCslvhnBjKo0yW_26wasm_bindgen_macro_support6parser19assert_no_lifetimes4WalkEB10_, symObjAddr: 0x8EB0, symBinAddr: 0x70198, symSize: 0xD8 }
  - { offset: 0xBF941, size: 0x8, addend: 0x0, symName: __RINvNtNtCscwCr4GBBztI_3syn3gen5visit20visit_predicate_typeNtNvNtCslvhnBjKo0yW_26wasm_bindgen_macro_support6parser19assert_no_lifetimes4WalkEB10_, symObjAddr: 0x8F88, symBinAddr: 0x70270, symSize: 0x124 }
  - { offset: 0xBF9FC, size: 0x8, addend: 0x0, symName: __RINvNtNtCscwCr4GBBztI_3syn3gen5visit20visit_type_referenceNtNvNtCslvhnBjKo0yW_26wasm_bindgen_macro_support6parser19assert_no_lifetimes4WalkEB10_, symObjAddr: 0x90AC, symBinAddr: 0x70394, symSize: 0xE0 }
  - { offset: 0xBFA5C, size: 0x8, addend: 0x0, symName: __RINvNtNtCscwCr4GBBztI_3syn3gen5visit20visit_vis_restrictedNtNvNtCslvhnBjKo0yW_26wasm_bindgen_macro_support6parser19assert_no_lifetimes4WalkEB10_, symObjAddr: 0x918C, symBinAddr: 0x70474, symSize: 0x90 }
  - { offset: 0xBFA9E, size: 0x8, addend: 0x0, symName: __RINvNtNtCscwCr4GBBztI_3syn3gen5visit21visit_bound_lifetimesNtNvNtCslvhnBjKo0yW_26wasm_bindgen_macro_support6parser19assert_no_lifetimes4WalkEB11_, symObjAddr: 0x921C, symBinAddr: 0x70504, symSize: 0xC8 }
  - { offset: 0xBFB3B, size: 0x8, addend: 0x0, symName: __RINvNtNtCscwCr4GBBztI_3syn3gen5visit21visit_foreign_item_fnNtNvNtCslvhnBjKo0yW_26wasm_bindgen_macro_support6parser19assert_no_lifetimes4WalkEB11_, symObjAddr: 0x92E4, symBinAddr: 0x705CC, symSize: 0xB0 }
  - { offset: 0xBFBB9, size: 0x8, addend: 0x0, symName: __RINvNtNtCscwCr4GBBztI_3syn3gen5visit21visit_impl_item_constNtNvNtCslvhnBjKo0yW_26wasm_bindgen_macro_support6parser19assert_no_lifetimes4WalkEB11_, symObjAddr: 0x9394, symBinAddr: 0x7067C, symSize: 0xE0 }
  - { offset: 0xBFC37, size: 0x8, addend: 0x0, symName: __RINvNtNtCscwCr4GBBztI_3syn3gen5visit21visit_impl_item_macroNtNvNtCslvhnBjKo0yW_26wasm_bindgen_macro_support6parser19assert_no_lifetimes4WalkEB11_, symObjAddr: 0x9474, symBinAddr: 0x7075C, symSize: 0xA8 }
  - { offset: 0xBFCB5, size: 0x8, addend: 0x0, symName: __RINvNtNtCscwCr4GBBztI_3syn3gen5visit21visit_macro_delimiterNtNvNtCslvhnBjKo0yW_26wasm_bindgen_macro_support6parser19assert_no_lifetimes4WalkEB11_, symObjAddr: 0x951C, symBinAddr: 0x70804, symSize: 0xA8 }
  - { offset: 0xBFCF7, size: 0x8, addend: 0x0, symName: __RINvNtNtCscwCr4GBBztI_3syn3gen5visit21visit_meta_name_valueNtNvNtCslvhnBjKo0yW_26wasm_bindgen_macro_support6parser19assert_no_lifetimes4WalkEB11_, symObjAddr: 0x95C4, symBinAddr: 0x708AC, symSize: 0x50 }
  - { offset: 0xBFD39, size: 0x8, addend: 0x0, symName: __RINvNtNtCscwCr4GBBztI_3syn3gen5visit21visit_precise_captureNtNvNtCslvhnBjKo0yW_26wasm_bindgen_macro_support6parser19assert_no_lifetimes4WalkEB11_, symObjAddr: 0x9614, symBinAddr: 0x708FC, symSize: 0xC8 }
  - { offset: 0xBFDD6, size: 0x8, addend: 0x0, symName: __RINvNtNtCscwCr4GBBztI_3syn3gen5visit21visit_trait_item_typeNtNvNtCslvhnBjKo0yW_26wasm_bindgen_macro_support6parser19assert_no_lifetimes4WalkEB11_, symObjAddr: 0x96DC, symBinAddr: 0x709C4, symSize: 0x194 }
  - { offset: 0xBFECD, size: 0x8, addend: 0x0, symName: __RINvNtNtCscwCr4GBBztI_3syn3gen5visit21visit_type_impl_traitNtNvNtCslvhnBjKo0yW_26wasm_bindgen_macro_support6parser19assert_no_lifetimes4WalkEB11_, symObjAddr: 0x9870, symBinAddr: 0x70B58, symSize: 0xC8 }
  - { offset: 0xBFF6A, size: 0x8, addend: 0x0, symName: __RINvNtNtCscwCr4GBBztI_3syn3gen5visit21visit_where_predicateNtNvNtCslvhnBjKo0yW_26wasm_bindgen_macro_support6parser19assert_no_lifetimes4WalkEB11_, symObjAddr: 0x9938, symBinAddr: 0x70C20, symSize: 0x98 }
  - { offset: 0xBFFE0, size: 0x8, addend: 0x0, symName: __RINvNtNtCscwCr4GBBztI_3syn3gen5visit22visit_expr_method_callNtNvNtCslvhnBjKo0yW_26wasm_bindgen_macro_support6parser19assert_no_lifetimes4WalkEB12_, symObjAddr: 0x99D0, symBinAddr: 0x70CB8, symSize: 0x1EC }
  - { offset: 0xC00CF, size: 0x8, addend: 0x0, symName: __RINvNtNtCscwCr4GBBztI_3syn3gen5visit22visit_field_mutabilityNtNvNtCslvhnBjKo0yW_26wasm_bindgen_macro_support6parser19assert_no_lifetimes4WalkEB12_, symObjAddr: 0x9BBC, symBinAddr: 0x70EA4, symSize: 0x24 }
  - { offset: 0xC0111, size: 0x8, addend: 0x0, symName: __RINvNtNtCscwCr4GBBztI_3syn3gen5visit22visit_generic_argumentNtNvNtCslvhnBjKo0yW_26wasm_bindgen_macro_support6parser19assert_no_lifetimes4WalkEB12_, symObjAddr: 0x9BE0, symBinAddr: 0x70EC8, symSize: 0x1A8 }
  - { offset: 0xC01FF, size: 0x8, addend: 0x0, symName: __RINvNtNtCscwCr4GBBztI_3syn3gen5visit22visit_item_foreign_modNtNvNtCslvhnBjKo0yW_26wasm_bindgen_macro_support6parser19assert_no_lifetimes4WalkEB12_, symObjAddr: 0x9D88, symBinAddr: 0x71070, symSize: 0x108 }
  - { offset: 0xC02B9, size: 0x8, addend: 0x0, symName: __RINvNtNtCscwCr4GBBztI_3syn3gen5visit22visit_item_trait_aliasNtNvNtCslvhnBjKo0yW_26wasm_bindgen_macro_support6parser19assert_no_lifetimes4WalkEB12_, symObjAddr: 0x9E90, symBinAddr: 0x71178, symSize: 0x158 }
  - { offset: 0xC0392, size: 0x8, addend: 0x0, symName: __RINvNtNtCscwCr4GBBztI_3syn3gen5visit22visit_pat_tuple_structNtNvNtCslvhnBjKo0yW_26wasm_bindgen_macro_support6parser19assert_no_lifetimes4WalkEB12_, symObjAddr: 0x9FE8, symBinAddr: 0x712D0, symSize: 0x18C }
  - { offset: 0xC0489, size: 0x8, addend: 0x0, symName: __RINvNtNtCscwCr4GBBztI_3syn3gen5visit22visit_trait_item_constNtNvNtCslvhnBjKo0yW_26wasm_bindgen_macro_support6parser19assert_no_lifetimes4WalkEB12_, symObjAddr: 0xA174, symBinAddr: 0x7145C, symSize: 0x118 }
  - { offset: 0xC0525, size: 0x8, addend: 0x0, symName: __RINvNtNtCscwCr4GBBztI_3syn3gen5visit22visit_trait_item_macroNtNvNtCslvhnBjKo0yW_26wasm_bindgen_macro_support6parser19assert_no_lifetimes4WalkEB12_, symObjAddr: 0xA28C, symBinAddr: 0x71574, symSize: 0xA8 }
  - { offset: 0xC05A3, size: 0x8, addend: 0x0, symName: __RINvNtNtCscwCr4GBBztI_3syn3gen5visit22visit_type_param_boundNtNvNtCslvhnBjKo0yW_26wasm_bindgen_macro_support6parser19assert_no_lifetimes4WalkEB12_, symObjAddr: 0xA334, symBinAddr: 0x7161C, symSize: 0x130 }
  - { offset: 0xC0655, size: 0x8, addend: 0x0, symName: __RINvNtNtCscwCr4GBBztI_3syn3gen5visit23visit_foreign_item_typeNtNvNtCslvhnBjKo0yW_26wasm_bindgen_macro_support6parser19assert_no_lifetimes4WalkEB13_, symObjAddr: 0xA464, symBinAddr: 0x7174C, symSize: 0xC8 }
  - { offset: 0xC06D3, size: 0x8, addend: 0x0, symName: __RINvNtNtCscwCr4GBBztI_3syn3gen5visit23visit_item_extern_crateNtNvNtCslvhnBjKo0yW_26wasm_bindgen_macro_support6parser19assert_no_lifetimes4WalkEB13_, symObjAddr: 0xA52C, symBinAddr: 0x71814, symSize: 0x110 }
  - { offset: 0xC076F, size: 0x8, addend: 0x0, symName: __RINvNtNtCscwCr4GBBztI_3syn3gen5visit23visit_static_mutabilityNtNvNtCslvhnBjKo0yW_26wasm_bindgen_macro_support6parser19assert_no_lifetimes4WalkEB13_, symObjAddr: 0xA63C, symBinAddr: 0x71924, symSize: 0x68 }
  - { offset: 0xC07B1, size: 0x8, addend: 0x0, symName: __RINvNtNtCscwCr4GBBztI_3syn3gen5visit23visit_type_trait_objectNtNvNtCslvhnBjKo0yW_26wasm_bindgen_macro_support6parser19assert_no_lifetimes4WalkEB13_, symObjAddr: 0xA6A4, symBinAddr: 0x7198C, symSize: 0xC8 }
  - { offset: 0xC084E, size: 0x8, addend: 0x0, symName: __RINvNtNtCscwCr4GBBztI_3syn3gen5visit24visit_foreign_item_macroNtNvNtCslvhnBjKo0yW_26wasm_bindgen_macro_support6parser19assert_no_lifetimes4WalkEB14_, symObjAddr: 0xA76C, symBinAddr: 0x71A54, symSize: 0xA8 }
  - { offset: 0xC08CC, size: 0x8, addend: 0x0, symName: __RINvNtNtCscwCr4GBBztI_3syn3gen5visit24visit_pointer_mutabilityNtNvNtCslvhnBjKo0yW_26wasm_bindgen_macro_support6parser19assert_no_lifetimes4WalkEB14_, symObjAddr: 0xA814, symBinAddr: 0x71AFC, symSize: 0x74 }
  - { offset: 0xC090E, size: 0x8, addend: 0x0, symName: __RINvNtNtCscwCr4GBBztI_3syn3gen5visit24visit_predicate_lifetimeNtNvNtCslvhnBjKo0yW_26wasm_bindgen_macro_support6parser19assert_no_lifetimes4WalkEB14_, symObjAddr: 0xA888, symBinAddr: 0x71B70, symSize: 0xD0 }
  - { offset: 0xC09AB, size: 0x8, addend: 0x0, symName: __RINvNtNtCscwCr4GBBztI_3syn3gen5visit25visit_foreign_item_staticNtNvNtCslvhnBjKo0yW_26wasm_bindgen_macro_support6parser19assert_no_lifetimes4WalkEB15_, symObjAddr: 0xA958, symBinAddr: 0x71C40, symSize: 0x128 }
  - { offset: 0xC0A29, size: 0x8, addend: 0x0, symName: __RINvNtNtCscwCr4GBBztI_3syn3gen5visit26visit_trait_bound_modifierNtNvNtCslvhnBjKo0yW_26wasm_bindgen_macro_support6parser19assert_no_lifetimes4WalkEB16_, symObjAddr: 0xAA80, symBinAddr: 0x71D68, symSize: 0x68 }
  - { offset: 0xC0A6B, size: 0x8, addend: 0x0, symName: __RINvNtNtCscwCr4GBBztI_3syn3gen5visit37visit_parenthesized_generic_argumentsNtNvNtCslvhnBjKo0yW_26wasm_bindgen_macro_support6parser19assert_no_lifetimes4WalkEB1h_, symObjAddr: 0xAAE8, symBinAddr: 0x71DD0, symSize: 0xD8 }
  - { offset: 0xC0B08, size: 0x8, addend: 0x0, symName: __RINvNtNtCscwCr4GBBztI_3syn3gen5visit39visit_angle_bracketed_generic_argumentsNtNvNtCslvhnBjKo0yW_26wasm_bindgen_macro_support6parser19assert_no_lifetimes4WalkEB1j_, symObjAddr: 0xABC0, symBinAddr: 0x71EA8, symSize: 0xC8 }
  - { offset: 0xC0BA5, size: 0x8, addend: 0x0, symName: __RINvNtNtCscwCr4GBBztI_3syn3gen5visit9visit_abiNtNvNtCslvhnBjKo0yW_26wasm_bindgen_macro_support6parser19assert_no_lifetimes4WalkEBO_, symObjAddr: 0xAC88, symBinAddr: 0x71F70, symSize: 0x80 }
  - { offset: 0xC0C05, size: 0x8, addend: 0x0, symName: __RINvNtNtCscwCr4GBBztI_3syn3gen5visit9visit_armNtNvNtCslvhnBjKo0yW_26wasm_bindgen_macro_support6parser19assert_no_lifetimes4WalkEBO_, symObjAddr: 0xAD08, symBinAddr: 0x71FF0, symSize: 0x1A8 }
  - { offset: 0xC0C99, size: 0x8, addend: 0x0, symName: __RINvNtNtCscwCr4GBBztI_3syn3gen5visit9visit_litNtNvNtCslvhnBjKo0yW_26wasm_bindgen_macro_support6parser19assert_no_lifetimes4WalkEBO_, symObjAddr: 0xAEB0, symBinAddr: 0x72198, symSize: 0x268 }
  - { offset: 0xC0DCB, size: 0x8, addend: 0x0, symName: __RINvNtNtCscwCr4GBBztI_3syn3gen5visit9visit_patNtNvNtCslvhnBjKo0yW_26wasm_bindgen_macro_support6parser19assert_no_lifetimes4WalkEBO_, symObjAddr: 0xB118, symBinAddr: 0x72400, symSize: 0x394 }
  - { offset: 0xCBEA6, size: 0x8, addend: 0x0, symName: __RINvCsdnTMdUSrcJY_7bumpalo21is_pointer_aligned_tohECslvhnBjKo0yW_26wasm_bindgen_macro_support, symObjAddr: 0x0, symBinAddr: 0x72794, symSize: 0xAC }
  - { offset: 0xCC1C4, size: 0x8, addend: 0x0, symName: __RINvNtCswz7ZwgBZOU_3std3env3varReECslvhnBjKo0yW_26wasm_bindgen_macro_support, symObjAddr: 0xAC, symBinAddr: 0x72840, symSize: 0x68 }
  - { offset: 0xCC1F9, size: 0x8, addend: 0x0, symName: __RINvNtCswz7ZwgBZOU_3std3env6var_osReECslvhnBjKo0yW_26wasm_bindgen_macro_support, symObjAddr: 0x114, symBinAddr: 0x728A8, symSize: 0x68 }
  - { offset: 0xCC235, size: 0x8, addend: 0x0, symName: __RNvXsk_NtCswz7ZwgBZOU_3std3envNtB5_8VarErrorNtNtCs85QQFkKrybG_4core3fmt5Debug3fmtCslvhnBjKo0yW_26wasm_bindgen_macro_support, symObjAddr: 0x9858, symBinAddr: 0x7B444, symSize: 0xA0 }
  - { offset: 0xD2082, size: 0x8, addend: 0x0, symName: __RINvXs9_NtNtNtCs85QQFkKrybG_4core4iter8adapters4fuseINtB6_4FuseINtNtBc_6option8IntoIterNtCsfwj6t2KTYdc_11proc_macro211TokenStreamEEINtB6_8FuseImplBZ_E8try_folduNCINvNvMsg_NtB8_7flattenINtB2J_13FlattenCompatppE13iter_try_fold7flattenB1n_uINtNtNtBc_3ops12control_flow11ControlFlowNtNtCsdFlNUEO95cG_5alloc6string6StringENCINvNvXsi_B2J_B2W_NtNtNtBa_6traits8iterator8Iterator8try_fold7flattenNtNtB1p_12token_stream8IntoIteruB3N_NCINvNvB5o_8find_map5checkNtB1p_9TokenTreeB4s_QNCNCNvNtCslvhnBjKo0yW_26wasm_bindgen_macro_support6parser20extract_doc_comments0s_0E0E0E0B3N_EB7G_, symObjAddr: 0x2B8, symBinAddr: 0x72A4C, symSize: 0x120 }
  - { offset: 0xD2127, size: 0x8, addend: 0x0, symName: __RNvXs9_NtNtNtCs85QQFkKrybG_4core4iter8adapters4fuseINtB5_4FuseINtNtB7_3map3MapIBZ_IBZ_INtNtNtBb_5slice4iter4IterRNtNtCscwCr4GBBztI_3syn2ty4TypeENCNvXs2_NtCslvhnBjKo0yW_26wasm_bindgen_macro_support7codegenNtNtB2s_3ast6ExportNtB2q_11TryToTokens13try_to_tokenss0_0ENCINvXs7_Csfwj6t2KTYdc_11proc_macro2NtB4l_11TokenStreamINtNtNtB9_6traits7collect12FromIteratorB4M_E9from_iterB1i_E0ENCINvXs6_NtB4l_3impNtB6d_11TokenStreamIB56_B6n_E9from_iterB1e_Es_0EEINtB5_8FuseImplBY_E4nextB2s_, symObjAddr: 0x8BDC, symBinAddr: 0x7A7C8, symSize: 0x80 }
  - { offset: 0xD21FA, size: 0x8, addend: 0x0, symName: __RNvXs9_NtNtNtCs85QQFkKrybG_4core4iter8adapters4fuseINtB5_4FuseINtNtBb_6option8IntoIterINtNtCsdFlNUEO95cG_5alloc3vec3VecNtNtCslvhnBjKo0yW_26wasm_bindgen_macro_support6parser10FnArgAttrsEEEINtB5_8FuseImplBY_E4nextB1X_, symObjAddr: 0x8C5C, symBinAddr: 0x7A848, symSize: 0x8C }
  - { offset: 0xD2310, size: 0x8, addend: 0x0, symName: __RINvNtNtNtCs85QQFkKrybG_4core4iter8adapters5chain17and_then_or_clearINtNtB4_7flatten7FlattenINtNtB8_6option8IntoIterINtNtCsdFlNUEO95cG_5alloc3vec3VecNtNtCslvhnBjKo0yW_26wasm_bindgen_macro_support6parser10FnArgAttrsEEEB2n_NvYB14_NtNtNtB6_6traits8iterator8Iterator4nextEB2r_, symObjAddr: 0x17C, symBinAddr: 0x72910, symSize: 0x13C }
  - { offset: 0xD2465, size: 0x8, addend: 0x0, symName: __RNCNvXs_NtNtNtCs85QQFkKrybG_4core4iter8adapters5chainINtB6_5ChainINtNtB8_7flatten7FlattenINtNtBc_6option8IntoIterINtNtCsdFlNUEO95cG_5alloc3vec3VecNtNtCslvhnBjKo0yW_26wasm_bindgen_macro_support6parser10FnArgAttrsEEEINtNtNtBa_7sources6repeat6RepeatB2k_EENtNtNtBa_6traits8iterator8Iterator4next0B2o_, symObjAddr: 0x1DA8, symBinAddr: 0x7453C, symSize: 0x8C }
  - { offset: 0xD253E, size: 0x8, addend: 0x0, symName: __RNvXs_NtNtNtCs85QQFkKrybG_4core4iter8adapters5chainINtB4_5ChainINtNtB6_7flatten7FlattenINtNtBa_6option8IntoIterINtNtCsdFlNUEO95cG_5alloc3vec3VecNtNtCslvhnBjKo0yW_26wasm_bindgen_macro_support6parser10FnArgAttrsEEEINtNtNtB8_7sources6repeat6RepeatB2i_EENtNtNtB8_6traits8iterator8Iterator4nextB2m_, symObjAddr: 0x8E18, symBinAddr: 0x7AA04, symSize: 0x44 }
  - { offset: 0xD257C, size: 0x8, addend: 0x0, symName: __RNvXs_NtNtNtCs85QQFkKrybG_4core4iter8adapters5chainINtB4_5ChainINtNtB6_7flatten7FlattenINtNtBa_6option8IntoIterINtNtCsdFlNUEO95cG_5alloc3vec3VecNtNtCslvhnBjKo0yW_26wasm_bindgen_macro_support6parser10FnArgAttrsEEEINtNtNtB8_7sources6repeat6RepeatB2i_EENtNtNtB8_6traits8iterator8Iterator9size_hintB2m_, symObjAddr: 0x8E5C, symBinAddr: 0x7AA48, symSize: 0x22C }
  - { offset: 0xD281D, size: 0x8, addend: 0x0, symName: __RNCINvNvNtNtNtNtCs85QQFkKrybG_4core4iter6traits8iterator8Iterator12try_for_each4callNtNtCslvhnBjKo0yW_26wasm_bindgen_macro_support3ast7VariantINtNtNtBe_3ops12control_flow11ControlFlowB1k_ENcNtB2g_5Break0E0B1o_, symObjAddr: 0x3D8, symBinAddr: 0x72B6C, symSize: 0x48 }
  - { offset: 0xD2883, size: 0x8, addend: 0x0, symName: __RNCINvNvNtNtNtNtCs85QQFkKrybG_4core4iter6traits8iterator8Iterator12try_for_each4callNtNtCslvhnBjKo0yW_26wasm_bindgen_macro_support6encode11LocalModuleINtNtNtBe_3ops12control_flow11ControlFlowB1k_ENcNtB2o_5Break0E0B1o_, symObjAddr: 0x420, symBinAddr: 0x72BB4, symSize: 0x48 }
  - { offset: 0xD28E9, size: 0x8, addend: 0x0, symName: __RNCINvNvNtNtNtNtCs85QQFkKrybG_4core4iter6traits8iterator8Iterator12try_for_each4callNtNtCslvhnBjKo0yW_26wasm_bindgen_macro_support6encode12LinkedModuleINtNtNtBe_3ops12control_flow11ControlFlowB1k_ENcNtB2p_5Break0E0B1o_, symObjAddr: 0x468, symBinAddr: 0x72BFC, symSize: 0x48 }
  - { offset: 0xD294F, size: 0x8, addend: 0x0, symName: __RNCINvNvNtNtNtNtCs85QQFkKrybG_4core4iter6traits8iterator8Iterator12try_for_each4callNtNtCslvhnBjKo0yW_26wasm_bindgen_macro_support6encode6ExportINtNtNtBe_3ops12control_flow11ControlFlowB1k_ENcNtB2i_5Break0E0B1o_, symObjAddr: 0x4B0, symBinAddr: 0x72C44, symSize: 0x48 }
  - { offset: 0xD29B5, size: 0x8, addend: 0x0, symName: __RNCINvNvNtNtNtNtCs85QQFkKrybG_4core4iter6traits8iterator8Iterator12try_for_each4callNtNtCslvhnBjKo0yW_26wasm_bindgen_macro_support6encode6ImportINtNtNtBe_3ops12control_flow11ControlFlowB1k_ENcNtB2i_5Break0E0B1o_, symObjAddr: 0x4F8, symBinAddr: 0x72C8C, symSize: 0x50 }
  - { offset: 0xD2A27, size: 0x8, addend: 0x0, symName: __RNCINvNvNtNtNtNtCs85QQFkKrybG_4core4iter6traits8iterator8Iterator3any5checkRNtNtCscwCr4GBBztI_3syn4data7VariantNCNvXsd_NtCslvhnBjKo0yW_26wasm_bindgen_macro_support6parserNtNtB1g_4item8ItemEnumINtB1T_10MacroParseTQNtCsfwj6t2KTYdc_11proc_macro211TokenStreamNtB1T_12BindgenAttrsEE11macro_parses1_0E0B1V_, symObjAddr: 0x548, symBinAddr: 0x72CDC, symSize: 0x50 }
  - { offset: 0xD2A83, size: 0x8, addend: 0x0, symName: __RNCINvNvNtNtNtNtCs85QQFkKrybG_4core4iter6traits8iterator8Iterator3any5checkRNtNtCscwCr4GBBztI_3syn4data7VariantNCNvXsd_NtCslvhnBjKo0yW_26wasm_bindgen_macro_support6parserNtNtB1g_4item8ItemEnumINtB1T_10MacroParseTQNtCsfwj6t2KTYdc_11proc_macro211TokenStreamNtB1T_12BindgenAttrsEE11macro_parses2_0E0B1V_, symObjAddr: 0x598, symBinAddr: 0x72D2C, symSize: 0x50 }
  - { offset: 0xD2ADF, size: 0x8, addend: 0x0, symName: __RNCINvNvNtNtNtNtCs85QQFkKrybG_4core4iter6traits8iterator8Iterator3any5checkRNtNtCscwCr4GBBztI_3syn4path11PathSegmentNCNCNvNtCslvhnBjKo0yW_26wasm_bindgen_macro_support6parser20extract_doc_comments00E0B1Y_, symObjAddr: 0x5E8, symBinAddr: 0x72D7C, symSize: 0x50 }
  - { offset: 0xD2B47, size: 0x8, addend: 0x0, symName: __RNCINvNvNtNtNtNtCs85QQFkKrybG_4core4iter6traits8iterator8Iterator4find5checkTjRNtNtCscwCr4GBBztI_3syn4attr9AttributeENCNvMNtCslvhnBjKo0yW_26wasm_bindgen_macro_support6parserNtB1W_12BindgenAttrs4find0E0B1Y_, symObjAddr: 0x638, symBinAddr: 0x72DCC, symSize: 0x84 }
  - { offset: 0xD2BA3, size: 0x8, addend: 0x0, symName: __RNCINvNvNtNtNtNtCs85QQFkKrybG_4core4iter6traits8iterator8Iterator4find5checkTjRNtNtCscwCr4GBBztI_3syn4attr9AttributeENCNvXs9_NtCslvhnBjKo0yW_26wasm_bindgen_macro_support6parserNtNtB1j_4item4ItemINtB1Z_10MacroParseTINtNtBe_6option6OptionNtB1Z_12BindgenAttrsEQNtCsfwj6t2KTYdc_11proc_macro211TokenStreamEE11macro_parse0E0B21_, symObjAddr: 0x6BC, symBinAddr: 0x72E50, symSize: 0x84 }
  - { offset: 0xD2BFF, size: 0x8, addend: 0x0, symName: __RNCINvNvNtNtNtNtCs85QQFkKrybG_4core4iter6traits8iterator8Iterator4find5checkxNCNvXsd_NtCslvhnBjKo0yW_26wasm_bindgen_macro_support6parserNtNtCscwCr4GBBztI_3syn4item8ItemEnumINtB1l_10MacroParseTQNtCsfwj6t2KTYdc_11proc_macro211TokenStreamNtB1l_12BindgenAttrsEE11macro_parses4_0E0B1n_, symObjAddr: 0x740, symBinAddr: 0x72ED4, symSize: 0x80 }
  - { offset: 0xD2C67, size: 0x8, addend: 0x0, symName: __RNCINvNvNtNtNtNtCs85QQFkKrybG_4core4iter6traits8iterator8Iterator8find_map5checkNtCsdnTMdUSrcJY_7bumpalo21NewChunkMemoryDetailsINtNtNtBe_3ptr8non_null7NonNullNtB1i_11ChunkFooterEQNCNvMs7_B1i_NtB1i_4Bump17alloc_layout_slows_0E0CslvhnBjKo0yW_26wasm_bindgen_macro_support, symObjAddr: 0x7C0, symBinAddr: 0x72F54, symSize: 0x70 }
  - { offset: 0xD2CEB, size: 0x8, addend: 0x0, symName: __RNCINvNvNtNtNtNtCs85QQFkKrybG_4core4iter6traits8iterator8Iterator8find_map5checkNtCsfwj6t2KTYdc_11proc_macro29TokenTreeNtNtCsdFlNUEO95cG_5alloc6string6StringQNCNCNvNtCslvhnBjKo0yW_26wasm_bindgen_macro_support6parser20extract_doc_comments0s_0E0B2E_, symObjAddr: 0x830, symBinAddr: 0x72FC4, symSize: 0x94 }
  - { offset: 0xD2D8E, size: 0x8, addend: 0x0, symName: __RNCINvNvNtNtNtNtCs85QQFkKrybG_4core4iter6traits8iterator8Iterator8for_each4callNtCs9bTl5rSDVcL_10proc_macro11TokenStreamNCINvXsj_B1h_B1f_INtNtBa_7collect6ExtendB1f_E6extendINtNtNtBc_8adapters3map3MapIB2L_IB2L_INtNtNtBe_5slice4iter4IterRNtNtCscwCr4GBBztI_3syn2ty4TypeENCNvXs2_NtCslvhnBjKo0yW_26wasm_bindgen_macro_support7codegenNtNtB4r_3ast6ExportNtB4p_11TryToTokens13try_to_tokenss0_0ENCINvXs7_Csfwj6t2KTYdc_11proc_macro2NtB6k_11TokenStreamINtB2e_12FromIteratorB6L_E9from_iterB3g_E0ENCINvXs6_NtB6k_3impNtB7U_11TokenStreamIB75_B84_E9from_iterB3b_E0EE0E0B4r_, symObjAddr: 0x8C4, symBinAddr: 0x73058, symSize: 0x28 }
  - { offset: 0xD2DE6, size: 0x8, addend: 0x0, symName: __RNCINvNvNtNtNtNtCs85QQFkKrybG_4core4iter6traits8iterator8Iterator8for_each4callNtCs9bTl5rSDVcL_10proc_macro9TokenTreeNCINvXsg_B1h_NtB1h_11TokenStreamINtNtBa_7collect12FromIteratorB1f_E9from_iterINtNtNtBc_8adapters3map3MapINtNtNtCsdFlNUEO95cG_5alloc3vec9into_iter8IntoIterNtCsfwj6t2KTYdc_11proc_macro29TokenTreeENvNtB4n_3imp19into_compiler_tokenEE0E0CslvhnBjKo0yW_26wasm_bindgen_macro_support, symObjAddr: 0x8EC, symBinAddr: 0x73080, symSize: 0x3C }
  - { offset: 0xD2E3F, size: 0x8, addend: 0x0, symName: __RNCINvNvNtNtNtNtCs85QQFkKrybG_4core4iter6traits8iterator8Iterator8for_each4callNtCsfwj6t2KTYdc_11proc_macro211TokenStreamNCINvMsi_NtCsdFlNUEO95cG_5alloc3vecINtB24_3VecB1f_E14extend_trustedINtNtNtBc_8adapters3map3MapINtNtNtBe_5slice4iter4IterNtB1h_5IdentENCNvXs5_NtCslvhnBjKo0yW_26wasm_bindgen_macro_support7codegenNtNtB4e_3ast10StringEnumNtNtCshi3DZH3dfhk_5quote9to_tokens8ToTokens9to_tokens0EE0E0B4e_, symObjAddr: 0x928, symBinAddr: 0x730BC, symSize: 0x3C }
  - { offset: 0xD2E98, size: 0x8, addend: 0x0, symName: __RNCINvNvNtNtNtNtCs85QQFkKrybG_4core4iter6traits8iterator8Iterator8for_each4callNtCsfwj6t2KTYdc_11proc_macro211TokenStreamNCINvMsi_NtCsdFlNUEO95cG_5alloc3vecINtB24_3VecB1f_E14extend_trustedINtNtNtBc_8adapters3map3MapINtNtNtBe_5slice4iter4IterNtNtCslvhnBjKo0yW_26wasm_bindgen_macro_support6encode11EncodeChunkENCNvXNtB3V_7codegenNtNtB3V_3ast7ProgramNtB51_11TryToTokens13try_to_tokenss_0EE0E0B3V_, symObjAddr: 0x964, symBinAddr: 0x730F8, symSize: 0x3C }
  - { offset: 0xD2EF1, size: 0x8, addend: 0x0, symName: __RNCINvNvNtNtNtNtCs85QQFkKrybG_4core4iter6traits8iterator8Iterator8for_each4callNtCsfwj6t2KTYdc_11proc_macro25IdentNCINvMsi_NtCsdFlNUEO95cG_5alloc3vecINtB1X_3VecB1f_E14extend_trustedINtNtNtBc_8adapters6cloned6ClonedINtNtNtBe_5slice4iter4IterB1f_EEE0E0CslvhnBjKo0yW_26wasm_bindgen_macro_support, symObjAddr: 0x9A0, symBinAddr: 0x73134, symSize: 0x3C }
  - { offset: 0xD2F4A, size: 0x8, addend: 0x0, symName: __RNCINvNvNtNtNtNtCs85QQFkKrybG_4core4iter6traits8iterator8Iterator8for_each4callNtCsfwj6t2KTYdc_11proc_macro29TokenTreeNCINvXsa_NtB1h_8fallbackNtB21_11TokenStreamINtNtBa_7collect6ExtendB1f_E6extendINtNtNtCsdFlNUEO95cG_5alloc3vec9into_iter8IntoIterB1f_EE0E0CslvhnBjKo0yW_26wasm_bindgen_macro_support, symObjAddr: 0x9DC, symBinAddr: 0x73170, symSize: 0x3C }
  - { offset: 0xD2FA3, size: 0x8, addend: 0x0, symName: __RNCINvNvNtNtNtNtCs85QQFkKrybG_4core4iter6traits8iterator8Iterator8for_each4callNtCsfwj6t2KTYdc_11proc_macro29TokenTreeNCINvXsa_NtB1h_8fallbackNtB21_11TokenStreamINtNtBa_7collect6ExtendB1f_E6extendNtB1h_11TokenStreamE0E0CslvhnBjKo0yW_26wasm_bindgen_macro_support, symObjAddr: 0xA18, symBinAddr: 0x731AC, symSize: 0x3C }
  - { offset: 0xD2FFC, size: 0x8, addend: 0x0, symName: __RNCINvNvNtNtNtNtCs85QQFkKrybG_4core4iter6traits8iterator8Iterator8for_each4callNtNtCslvhnBjKo0yW_26wasm_bindgen_macro_support6encode11EnumVariantNCINvMsi_NtCsdFlNUEO95cG_5alloc3vecINtB2s_3VecB1f_E14extend_trustedINtNtNtBc_8adapters3map3MapINtNtNtBe_5slice4iter4IterNtNtB1j_3ast7VariantENCNvB1h_11shared_enum0EE0E0B1j_, symObjAddr: 0xA54, symBinAddr: 0x731E8, symSize: 0x40 }
  - { offset: 0xD3055, size: 0x8, addend: 0x0, symName: __RNCINvNvNtNtNtNtCs85QQFkKrybG_4core4iter6traits8iterator8Iterator8for_each4callNtNtCslvhnBjKo0yW_26wasm_bindgen_macro_support6encode11StructFieldNCINvMsi_NtCsdFlNUEO95cG_5alloc3vecINtB2s_3VecB1f_E14extend_trustedINtNtNtBc_8adapters3map3MapINtNtNtBe_5slice4iter4IterNtNtB1j_3ast11StructFieldENCNvB1h_13shared_struct0EE0E0B1j_, symObjAddr: 0xA94, symBinAddr: 0x73228, symSize: 0x40 }
  - { offset: 0xD30AE, size: 0x8, addend: 0x0, symName: __RNCINvNvNtNtNtNtCs85QQFkKrybG_4core4iter6traits8iterator8Iterator8for_each4callNtNtCslvhnBjKo0yW_26wasm_bindgen_macro_support6encode20FunctionArgumentDataNCINvMsi_NtCsdFlNUEO95cG_5alloc3vecINtB2B_3VecB1f_E14extend_trustedINtNtNtBc_8adapters3map3MapINtNtB3C_9enumerate9EnumerateINtNtNtBe_5slice4iter4IterNtNtB1j_3ast20FunctionArgumentDataEENCNvB1h_15shared_function0EE0E0B1j_, symObjAddr: 0xAD4, symBinAddr: 0x73268, symSize: 0x40 }
  - { offset: 0xD3107, size: 0x8, addend: 0x0, symName: __RNCINvNvNtNtNtNtCs85QQFkKrybG_4core4iter6traits8iterator8Iterator8for_each4callNtNtCslvhnBjKo0yW_26wasm_bindgen_macro_support6encode4EnumNCINvMsi_NtCsdFlNUEO95cG_5alloc3vecINtB2k_3VecB1f_E14extend_trustedINtNtNtBc_8adapters3map3MapINtNtNtBe_5slice4iter4IterNtNtB1j_3ast4EnumENCNvB1h_14shared_programs0_0EE0E0B1j_, symObjAddr: 0xB14, symBinAddr: 0x732A8, symSize: 0x40 }
  - { offset: 0xD3160, size: 0x8, addend: 0x0, symName: __RNCINvNvNtNtNtNtCs85QQFkKrybG_4core4iter6traits8iterator8Iterator8for_each4callNtNtCslvhnBjKo0yW_26wasm_bindgen_macro_support6encode6StructNCINvMsi_NtCsdFlNUEO95cG_5alloc3vecINtB2m_3VecB1f_E14extend_trustedINtNtNtBc_8adapters3map3MapINtNtNtBe_5slice4iter4IterNtNtB1j_3ast6StructENCNvB1h_14shared_programs_0EE0E0B1j_, symObjAddr: 0xB54, symBinAddr: 0x732E8, symSize: 0x40 }
  - { offset: 0xD31B9, size: 0x8, addend: 0x0, symName: __RNCINvNvNtNtNtNtCs85QQFkKrybG_4core4iter6traits8iterator8Iterator8for_each4callNtNtCslvhnBjKo0yW_26wasm_bindgen_macro_support6encode9LitOrExprNCINvMsi_NtCsdFlNUEO95cG_5alloc3vecINtB2p_3VecB1f_E14extend_trustedINtNtNtBc_8adapters3map3MapINtNtNtBe_5slice4iter4IterNtNtB1j_3ast9LitOrExprENCNvB1h_14shared_programs2_0EE0E0B1j_, symObjAddr: 0xB94, symBinAddr: 0x73328, symSize: 0x30 }
  - { offset: 0xD3212, size: 0x8, addend: 0x0, symName: __RNCINvNvNtNtNtNtCs85QQFkKrybG_4core4iter6traits8iterator8Iterator8for_each4callReNCINvMsi_NtCsdFlNUEO95cG_5alloc3vecINtB1q_3VecB1f_E14extend_trustedINtNtNtBc_8adapters3map3MapINtNtNtBe_5slice4iter4IterNtCsfwj6t2KTYdc_11proc_macro25IdentENCNvNtCslvhnBjKo0yW_26wasm_bindgen_macro_support6encode18shared_import_type0EE0E0B3T_, symObjAddr: 0xBC4, symBinAddr: 0x73358, symSize: 0x30 }
  - { offset: 0xD326A, size: 0x8, addend: 0x0, symName: __RNCINvNvNtNtNtNtCs85QQFkKrybG_4core4iter6traits8iterator8Iterator8for_each4callReNCINvMsi_NtCsdFlNUEO95cG_5alloc3vecINtB1q_3VecB1f_E14extend_trustedINtNtNtBc_8adapters3map3MapINtNtNtBe_5slice4iter4IterNtNtB1s_6string6StringENCNvNtCslvhnBjKo0yW_26wasm_bindgen_macro_support6encode11shared_enums_0EE0E0B3G_, symObjAddr: 0xBF4, symBinAddr: 0x73388, symSize: 0x30 }
  - { offset: 0xD32C2, size: 0x8, addend: 0x0, symName: __RNCINvNvNtNtNtNtCs85QQFkKrybG_4core4iter6traits8iterator8Iterator8for_each4callReNCINvMsi_NtCsdFlNUEO95cG_5alloc3vecINtB1q_3VecB1f_E14extend_trustedINtNtNtBc_8adapters3map3MapINtNtNtBe_5slice4iter4IterNtNtB1s_6string6StringENCNvNtCslvhnBjKo0yW_26wasm_bindgen_macro_support6encode13shared_export0EE0E0B3G_, symObjAddr: 0xC24, symBinAddr: 0x733B8, symSize: 0x30 }
  - { offset: 0xD331A, size: 0x8, addend: 0x0, symName: __RNCINvNvNtNtNtNtCs85QQFkKrybG_4core4iter6traits8iterator8Iterator8for_each4callReNCINvMsi_NtCsdFlNUEO95cG_5alloc3vecINtB1q_3VecB1f_E14extend_trustedINtNtNtBc_8adapters3map3MapINtNtNtBe_5slice4iter4IterNtNtB1s_6string6StringENCNvNtCslvhnBjKo0yW_26wasm_bindgen_macro_support6encode13shared_structs_0EE0E0B3G_, symObjAddr: 0xC54, symBinAddr: 0x733E8, symSize: 0x30 }
  - { offset: 0xD3372, size: 0x8, addend: 0x0, symName: __RNCINvNvNtNtNtNtCs85QQFkKrybG_4core4iter6traits8iterator8Iterator8for_each4callReNCINvMsi_NtCsdFlNUEO95cG_5alloc3vecINtB1q_3VecB1f_E14extend_trustedINtNtNtBc_8adapters3map3MapINtNtNtBe_5slice4iter4IterNtNtB1s_6string6StringENCNvNtCslvhnBjKo0yW_26wasm_bindgen_macro_support6encode14shared_programs5_0EE0E0B3G_, symObjAddr: 0xC84, symBinAddr: 0x73418, symSize: 0x30 }
  - { offset: 0xD33CA, size: 0x8, addend: 0x0, symName: __RNCINvNvNtNtNtNtCs85QQFkKrybG_4core4iter6traits8iterator8Iterator8for_each4callReNCINvMsi_NtCsdFlNUEO95cG_5alloc3vecINtB1q_3VecB1f_E14extend_trustedINtNtNtBc_8adapters3map3MapINtNtNtBe_5slice4iter4IterNtNtB1s_6string6StringENCNvNtCslvhnBjKo0yW_26wasm_bindgen_macro_support6encode14shared_variant0EE0E0B3G_, symObjAddr: 0xCB4, symBinAddr: 0x73448, symSize: 0x30 }
  - { offset: 0xD3422, size: 0x8, addend: 0x0, symName: __RNCINvNvNtNtNtNtCs85QQFkKrybG_4core4iter6traits8iterator8Iterator8for_each4callReNCINvMsi_NtCsdFlNUEO95cG_5alloc3vecINtB1q_3VecB1f_E14extend_trustedINtNtNtBc_8adapters3map3MapINtNtNtBe_5slice4iter4IterNtNtB1s_6string6StringENCNvNtCslvhnBjKo0yW_26wasm_bindgen_macro_support6encode18shared_import_enum0EE0E0B3G_, symObjAddr: 0xCE4, symBinAddr: 0x73478, symSize: 0x30 }
  - { offset: 0xD347A, size: 0x8, addend: 0x0, symName: __RNCINvNvNtNtNtNtCs85QQFkKrybG_4core4iter6traits8iterator8Iterator8for_each4callReNCINvMsi_NtCsdFlNUEO95cG_5alloc3vecINtB1q_3VecB1f_E14extend_trustedINtNtNtBc_8adapters3map3MapINtNtNtBe_5slice4iter4IterNtNtB1s_6string6StringENCNvNtCslvhnBjKo0yW_26wasm_bindgen_macro_support6encode18shared_import_enums_0EE0E0B3G_, symObjAddr: 0xD14, symBinAddr: 0x734A8, symSize: 0x30 }
  - { offset: 0xD34D2, size: 0x8, addend: 0x0, symName: __RNCINvNvNtNtNtNtCs85QQFkKrybG_4core4iter6traits8iterator8Iterator8for_each4callReNCINvMsi_NtCsdFlNUEO95cG_5alloc3vecINtB1q_3VecB1f_E14extend_trustedINtNtNtBc_8adapters3map3MapINtNtNtBe_5slice4iter4IterNtNtB1s_6string6StringENCNvNtCslvhnBjKo0yW_26wasm_bindgen_macro_support6encode19shared_struct_field0EE0E0B3G_, symObjAddr: 0xD44, symBinAddr: 0x734D8, symSize: 0x30 }
  - { offset: 0xD352A, size: 0x8, addend: 0x0, symName: __RNCINvNvNtNtNtNtCs85QQFkKrybG_4core4iter6traits8iterator8Iterator8for_each4callcNCINvXsb_NtCsdFlNUEO95cG_5alloc6stringNtB1p_6StringINtNtBa_7collect6ExtendcE6extendINtNtNtBc_8adapters6filter6FilterNtNtNtBe_3str4iter5CharsNCNvXs4_NtCslvhnBjKo0yW_26wasm_bindgen_macro_support6parserNtNtCscwCr4GBBztI_3syn4item13ForeignItemFnINtB3E_12ConvertToAstTRNtNtB3G_3ast7ProgramNtB3E_12BindgenAttrsRINtNtBe_6option6OptionNtB5y_12ImportModuleEEE7converts8_0EE0E0B3G_, symObjAddr: 0xD74, symBinAddr: 0x73508, symSize: 0x28 }
  - { offset: 0xD3582, size: 0x8, addend: 0x0, symName: __RNCINvNvNtNtNtNtCs85QQFkKrybG_4core4iter6traits8iterator8Iterator8for_each4callmNCINvMsi_NtCsdFlNUEO95cG_5alloc3vecINtB1p_3VecmE14extend_trustedINtNtNtBe_3ops5range5RangemEE0E0CslvhnBjKo0yW_26wasm_bindgen_macro_support, symObjAddr: 0xD9C, symBinAddr: 0x73530, symSize: 0x28 }
  - { offset: 0xD35EB, size: 0x8, addend: 0x0, symName: __RNCNvXs_NvNtNtNtNtCs85QQFkKrybG_4core4iter6traits8iterator8Iterator10advance_byINtNtCscwCr4GBBztI_3syn10punctuated11PrivateIterNtNtB1k_4data7VariantNtNtB1k_5token5CommaENtB6_13SpecAdvanceBy15spec_advance_by0CslvhnBjKo0yW_26wasm_bindgen_macro_support, symObjAddr: 0x1E34, symBinAddr: 0x745C8, symSize: 0x20 }
  - { offset: 0xD3638, size: 0x8, addend: 0x0, symName: __RNCNvXs_NvNtNtNtNtCs85QQFkKrybG_4core4iter6traits8iterator8Iterator10advance_byINtNtCscwCr4GBBztI_3syn10punctuated11PrivateIterNtNtB1k_4expr4ExprNtNtB1k_5token5CommaENtB6_13SpecAdvanceBy15spec_advance_by0CslvhnBjKo0yW_26wasm_bindgen_macro_support, symObjAddr: 0x1E54, symBinAddr: 0x745E8, symSize: 0x20 }
  - { offset: 0xD3685, size: 0x8, addend: 0x0, symName: __RNCNvXs_NvNtNtNtNtCs85QQFkKrybG_4core4iter6traits8iterator8Iterator10advance_byINtNtCscwCr4GBBztI_3syn10punctuated11PrivateIterNtNtB1k_4path15GenericArgumentNtNtB1k_5token5CommaENtB6_13SpecAdvanceBy15spec_advance_by0CslvhnBjKo0yW_26wasm_bindgen_macro_support, symObjAddr: 0x1E74, symBinAddr: 0x74608, symSize: 0x20 }
  - { offset: 0xD36D2, size: 0x8, addend: 0x0, symName: __RNCNvXs_NvNtNtNtNtCs85QQFkKrybG_4core4iter6traits8iterator8Iterator10advance_byINtNtCscwCr4GBBztI_3syn10punctuated14PrivateIterMutNtNtB1k_4item5FnArgNtNtB1k_5token5CommaENtB6_13SpecAdvanceBy15spec_advance_by0CslvhnBjKo0yW_26wasm_bindgen_macro_support, symObjAddr: 0x1E94, symBinAddr: 0x74628, symSize: 0x20 }
  - { offset: 0xD374A, size: 0x8, addend: 0x0, symName: __RNvXNtNtNtCs85QQFkKrybG_4core4iter6traits7collectINtNtNtB6_8adapters5chain5ChainINtNtBQ_7flatten7FlattenINtNtB8_6option8IntoIterINtNtCsdFlNUEO95cG_5alloc3vec3VecNtNtCslvhnBjKo0yW_26wasm_bindgen_macro_support6parser10FnArgAttrsEEEINtNtNtB6_7sources6repeat6RepeatB2z_EENtB2_12IntoIterator9into_iterB2D_, symObjAddr: 0x7E90, symBinAddr: 0x79AAC, symSize: 0x30 }
  - { offset: 0xD409B, size: 0x8, addend: 0x0, symName: __RNvXs1_NtNtNtCs85QQFkKrybG_4core3ops8function5implsQNCINvNvNtNtNtNtBb_4iter6traits8iterator8Iterator8find_map5checkNtCsfwj6t2KTYdc_11proc_macro29TokenTreeNtNtCsdFlNUEO95cG_5alloc6string6StringQNCNCNvNtCslvhnBjKo0yW_26wasm_bindgen_macro_support6parser20extract_doc_comments0s_0E0INtB7_5FnMutTuB1P_EE8call_mutB3d_, symObjAddr: 0x7FEC, symBinAddr: 0x79C08, symSize: 0x40 }
  - { offset: 0xD40EA, size: 0x8, addend: 0x0, symName: __RNvXs1_NtNtNtCs85QQFkKrybG_4core3ops8function5implsQNCNvMs7_CsdnTMdUSrcJY_7bumpaloNtBW_4Bump17alloc_layout_slows_0INtB7_5FnMutTNtBW_21NewChunkMemoryDetailsEE8call_mutCslvhnBjKo0yW_26wasm_bindgen_macro_support, symObjAddr: 0x802C, symBinAddr: 0x79C48, symSize: 0x40 }
  - { offset: 0xD49A1, size: 0x8, addend: 0x0, symName: __RNvXs1_NtCs85QQFkKrybG_4core4cellINtB5_4CelljENtNtB7_7default7Default7defaultCslvhnBjKo0yW_26wasm_bindgen_macro_support, symObjAddr: 0x7F8C, symBinAddr: 0x79BA8, symSize: 0x14 }
  - { offset: 0xD49CF, size: 0x8, addend: 0x0, symName: __RNvXsF_NtCs85QQFkKrybG_4core4cellINtB5_6RefMutINtNtNtNtCswz7ZwgBZOU_3std11collections4hash3map7HashMapNtNtCsdFlNUEO95cG_5alloc6string6StringNtNtCslvhnBjKo0yW_26wasm_bindgen_macro_support6encode9LocalFileEENtNtNtB7_3ops5deref5Deref5derefB2i_, symObjAddr: 0x8CE8, symBinAddr: 0x7A8D4, symSize: 0x18 }
  - { offset: 0xD4A21, size: 0x8, addend: 0x0, symName: __RNvXsG_NtCs85QQFkKrybG_4core4cellINtB5_6RefMutINtNtCsdFlNUEO95cG_5alloc3vec3VecNtNtCslvhnBjKo0yW_26wasm_bindgen_macro_support6parser11UnusedStateEENtNtNtB7_3ops5deref8DerefMut9deref_mutB1j_, symObjAddr: 0x8D00, symBinAddr: 0x7A8EC, symSize: 0x18 }
  - { offset: 0xD4A6D, size: 0x8, addend: 0x0, symName: __RNvXsG_NtCs85QQFkKrybG_4core4cellINtB5_6RefMutINtNtNtNtCswz7ZwgBZOU_3std11collections4hash3map7HashMapNtNtCsdFlNUEO95cG_5alloc6string6StringNtNtCslvhnBjKo0yW_26wasm_bindgen_macro_support6encode9LocalFileEENtNtNtB7_3ops5deref8DerefMut9deref_mutB2i_, symObjAddr: 0x8D18, symBinAddr: 0x7A904, symSize: 0x18 }
  - { offset: 0xD4AB9, size: 0x8, addend: 0x0, symName: __RNvXsG_NtCs85QQFkKrybG_4core4cellINtB5_6RefMutINtNtNtNtCswz7ZwgBZOU_3std11collections4hash3set7HashSetNtNtCsdFlNUEO95cG_5alloc6string6StringEENtNtNtB7_3ops5deref8DerefMut9deref_mutCslvhnBjKo0yW_26wasm_bindgen_macro_support, symObjAddr: 0x8D30, symBinAddr: 0x7A91C, symSize: 0x18 }
  - { offset: 0xD4B0B, size: 0x8, addend: 0x0, symName: __RNvXsn_NtCs85QQFkKrybG_4core4cellINtB5_7RefCellINtNtCsdFlNUEO95cG_5alloc3vec3VecNtNtCslvhnBjKo0yW_26wasm_bindgen_macro_support6parser11UnusedStateEENtNtB7_7default7Default7defaultB1k_, symObjAddr: 0x99A8, symBinAddr: 0x7B594, symSize: 0x4C }
  - { offset: 0xD4B66, size: 0x8, addend: 0x0, symName: __RNvXsn_NtCs85QQFkKrybG_4core4cellINtB5_7RefCellINtNtNtNtCswz7ZwgBZOU_3std11collections4hash3set7HashSetNtNtCsdFlNUEO95cG_5alloc6string6StringEENtNtB7_7default7Default7defaultCslvhnBjKo0yW_26wasm_bindgen_macro_support, symObjAddr: 0x99F4, symBinAddr: 0x7B5E0, symSize: 0x5C }
  - { offset: 0xD4BC7, size: 0x8, addend: 0x0, symName: __RNvXsv_NtCs85QQFkKrybG_4core4cellNtB5_9BorrowRefNtNtNtB7_3ops4drop4Drop4dropCslvhnBjKo0yW_26wasm_bindgen_macro_support, symObjAddr: 0x9E40, symBinAddr: 0x7BA2C, symSize: 0x28 }
