---
triple:          'arm64-apple-darwin'
binary-path:     '/Users/johnhjediny/Documents/GitHub/json-schema-x-graphql/converters/rust/target/debug/deps/librustversion-8d92fbc52c3ab91a.dylib'
relocations:
  - { offset: 0x1E, size: 0x8, addend: 0x0, symName: __RINvMs3_NtNtCs9bTl5rSDVcL_10proc_macro6bridge6bufferNtB6_6Buffer17extend_from_arrayKj4_ECshA2YSdBGE45_11rustversion, symObjAddr: 0x0, symBinAddr: 0xC60, symSize: 0x16C }
  - { offset: 0x8DA, size: 0x8, addend: 0x0, symName: __RNvXs7_NtNtCs85QQFkKrybG_4core3cmp5implsRNtNtCshA2YSdBGE45_11rustversion4date4DateNtB7_9PartialEq2eqBH_, symObjAddr: 0x54F8, symBinAddr: 0x6150, symSize: 0x34 }
  - { offset: 0xB7C, size: 0x8, addend: 0x0, symName: __RNvYNtNtCshA2YSdBGE45_11rustversion7version7VersionINtNtCs85QQFkKrybG_4core3cmp10PartialOrdNtNtB6_5bound5BoundE2geB6_, symObjAddr: 0x65D8, symBinAddr: 0x7230, symSize: 0x70 }
  - { offset: 0xC3E, size: 0x8, addend: 0x0, symName: __RNvYNtNtCshA2YSdBGE45_11rustversion7version7VersionINtNtCs85QQFkKrybG_4core3cmp10PartialOrdNtNtB6_5bound5BoundE2ltB6_, symObjAddr: 0x6648, symBinAddr: 0x72A0, symSize: 0x70 }
  - { offset: 0x101B, size: 0x8, addend: 0x0, symName: __RNvMNtCs85QQFkKrybG_4core5sliceSh15copy_from_sliceCshA2YSdBGE45_11rustversion, symObjAddr: 0x1448, symBinAddr: 0x20A8, symSize: 0xAC }
  - { offset: 0x120E, size: 0x8, addend: 0x0, symName: __RNvNvNtNtCs85QQFkKrybG_4core5slice3raw14from_raw_parts18precondition_checkCshA2YSdBGE45_11rustversion, symObjAddr: 0x4938, symBinAddr: 0x5598, symSize: 0x1D8 }
  - { offset: 0x13AC, size: 0x8, addend: 0x0, symName: __RNvNvNtNtCs85QQFkKrybG_4core5slice3raw18from_raw_parts_mut18precondition_checkCshA2YSdBGE45_11rustversion, symObjAddr: 0x4B10, symBinAddr: 0x5770, symSize: 0x1D8 }
  - { offset: 0x1AC0, size: 0x8, addend: 0x0, symName: __RINvYINtNtNtCsdFlNUEO95cG_5alloc3vec9into_iter8IntoIterNtCs9bTl5rSDVcL_10proc_macro9TokenTreeENtNtNtNtCs85QQFkKrybG_4core4iter6traits8iterator8Iterator5chainNtBT_11TokenStreamECshA2YSdBGE45_11rustversion, symObjAddr: 0x10A0, symBinAddr: 0x1D00, symSize: 0xB0 }
  - { offset: 0x1B36, size: 0x8, addend: 0x0, symName: __RINvYINtNtNtCsdFlNUEO95cG_5alloc3vec9into_iter8IntoIterNtCs9bTl5rSDVcL_10proc_macro9TokenTreeENtNtNtNtCs85QQFkKrybG_4core4iter6traits8iterator8Iterator8for_eachNCINvXsg_BT_NtBT_11TokenStreamINtNtB1y_7collect12FromIteratorBR_E9from_iterINtB8_3VecBR_EE0ECshA2YSdBGE45_11rustversion, symObjAddr: 0x1150, symBinAddr: 0x1DB0, symSize: 0x24 }
  - { offset: 0x1B82, size: 0x8, addend: 0x0, symName: __RINvYINtNtNtCsdFlNUEO95cG_5alloc3vec9into_iter8IntoIterNtCs9bTl5rSDVcL_10proc_macro9TokenTreeENtNtNtNtCs85QQFkKrybG_4core4iter6traits8iterator8Iterator8for_eachNCINvXsi_BT_NtBT_11TokenStreamINtNtB1y_7collect6ExtendBR_E6extendINtB8_3VecBR_EE0ECshA2YSdBGE45_11rustversion, symObjAddr: 0x1174, symBinAddr: 0x1DD4, symSize: 0x24 }
  - { offset: 0x1BCE, size: 0x8, addend: 0x0, symName: __RINvYINtNtNtCsdFlNUEO95cG_5alloc3vec9into_iter8IntoIterNtNtCshA2YSdBGE45_11rustversion4expr4ExprENtNtNtNtCs85QQFkKrybG_4core4iter6traits8iterator8Iterator7collectINtB8_3VecBR_EEBV_, symObjAddr: 0x1198, symBinAddr: 0x1DF8, symSize: 0x68 }
  - { offset: 0x1CDB, size: 0x8, addend: 0x0, symName: __RNvXNtNtNtCs85QQFkKrybG_4core4iter6traits7collectINtNtNtCsdFlNUEO95cG_5alloc3vec9into_iter8IntoIterNtNtCshA2YSdBGE45_11rustversion4expr4ExprENtB2_12IntoIterator9into_iterB1D_, symObjAddr: 0x4DB8, symBinAddr: 0x5A18, symSize: 0x14 }
  - { offset: 0x1D93, size: 0x8, addend: 0x0, symName: __RNvYINtNtNtCsdFlNUEO95cG_5alloc3vec9into_iter8IntoIterINtNtCs9bTl5rSDVcL_10proc_macro6bridge9TokenTreeNtNtBT_6client11TokenStreamNtB1E_4SpanNtNtBT_6symbol6SymbolEENtNtNtNtCs85QQFkKrybG_4core4iter6traits10exact_size17ExactSizeIterator3lenCshA2YSdBGE45_11rustversion, symObjAddr: 0x638C, symBinAddr: 0x6FE4, symSize: 0xC4 }
  - { offset: 0x1E92, size: 0x8, addend: 0x0, symName: __RNvYINtNtNtCsdFlNUEO95cG_5alloc3vec9into_iter8IntoIterNtCs9bTl5rSDVcL_10proc_macro9TokenTreeENtNtNtNtCs85QQFkKrybG_4core4iter6traits10exact_size17ExactSizeIterator3lenCshA2YSdBGE45_11rustversion, symObjAddr: 0x6450, symBinAddr: 0x70A8, symSize: 0xC4 }
  - { offset: 0x1F91, size: 0x8, addend: 0x0, symName: __RNvYINtNtNtCsdFlNUEO95cG_5alloc3vec9into_iter8IntoIterNtNtCshA2YSdBGE45_11rustversion4expr4ExprENtNtNtNtCs85QQFkKrybG_4core4iter6traits10exact_size17ExactSizeIterator3lenBU_, symObjAddr: 0x6514, symBinAddr: 0x716C, symSize: 0xC4 }
  - { offset: 0x2A14, size: 0x8, addend: 0x0, symName: __RNCINvMNtNtCs85QQFkKrybG_4core3ops9try_traitINtB5_17NeverShortCircuituE10wrap_mut_2uNtCs9bTl5rSDVcL_10proc_macro9TokenTreeNCINvNvNtNtNtNtB9_4iter6traits8iterator8Iterator8for_each4callB1k_NCINvXsg_B1m_NtB1m_11TokenStreamINtNtB27_7collect12FromIteratorB1k_E9from_iterQNtNtCshA2YSdBGE45_11rustversion4iter8IterImplE0E0E0B4l_, symObjAddr: 0x1200, symBinAddr: 0x1E60, symSize: 0x3C }
  - { offset: 0x2A83, size: 0x8, addend: 0x0, symName: __RNCINvMNtNtCs85QQFkKrybG_4core3ops9try_traitINtB5_17NeverShortCircuituE10wrap_mut_2uNtCs9bTl5rSDVcL_10proc_macro9TokenTreeNCINvNvNtNtNtNtB9_4iter6traits8iterator8Iterator8for_each4callB1k_NCINvXsi_B1m_NtB1m_11TokenStreamINtNtB27_7collect6ExtendB1k_E6extendQNtNtCshA2YSdBGE45_11rustversion4iter8IterImplE0E0E0B4b_, symObjAddr: 0x123C, symBinAddr: 0x1E9C, symSize: 0x3C }
  - { offset: 0x2AF9, size: 0x8, addend: 0x0, symName: __RNvXs_NtNtCs85QQFkKrybG_4core3ops9try_traitINtB4_17NeverShortCircuituENtB4_3Try11from_outputCshA2YSdBGE45_11rustversion, symObjAddr: 0x5864, symBinAddr: 0x64BC, symSize: 0xC }
  - { offset: 0x2B2C, size: 0x8, addend: 0x0, symName: __RNvXs_NtNtCs85QQFkKrybG_4core3ops9try_traitINtB4_17NeverShortCircuituENtB4_3Try6branchCshA2YSdBGE45_11rustversion, symObjAddr: 0x5870, symBinAddr: 0x64C8, symSize: 0xC }
  - { offset: 0x302A, size: 0x8, addend: 0x0, symName: __RNvXs2_NtNtCs85QQFkKrybG_4core3str7patterncNtB5_7Pattern15is_contained_inCshA2YSdBGE45_11rustversion, symObjAddr: 0x4F48, symBinAddr: 0x5BA0, symSize: 0xD8 }
  - { offset: 0x313B, size: 0x8, addend: 0x0, symName: __RNvXs3_NtNtCs85QQFkKrybG_4core3str7patternNCNvNtCshA2YSdBGE45_11rustversion5bound5parse0NtB5_11MultiCharEq7matchesBK_, symObjAddr: 0x51D4, symBinAddr: 0x5E2C, symSize: 0x28 }
  - { offset: 0x3187, size: 0x8, addend: 0x0, symName: __RNvXs7_NtNtCs85QQFkKrybG_4core3str7patternINtB5_18MultiCharEqPatternNCNvNtCshA2YSdBGE45_11rustversion5bound5parse0ENtB5_7Pattern13into_searcherB1a_, symObjAddr: 0x552C, symBinAddr: 0x6184, symSize: 0x90 }
  - { offset: 0x31E9, size: 0x8, addend: 0x0, symName: __RNvXs8_NtNtCs85QQFkKrybG_4core3str7patternINtB5_19MultiCharEqSearcherNCNvNtCshA2YSdBGE45_11rustversion5bound5parse0ENtB5_8Searcher4nextB1b_, symObjAddr: 0x55BC, symBinAddr: 0x6214, symSize: 0x138 }
  - { offset: 0x3317, size: 0x8, addend: 0x0, symName: __RNvXsr_NtNtCs85QQFkKrybG_4core3str7patternNCNvNtCshA2YSdBGE45_11rustversion5bound5parse0NtB5_7Pattern12is_prefix_ofBK_, symObjAddr: 0x5A44, symBinAddr: 0x669C, symSize: 0x28 }
  - { offset: 0x3363, size: 0x8, addend: 0x0, symName: __RNvXst_NtNtCs85QQFkKrybG_4core3str7patternReNtB5_7Pattern12is_prefix_ofCshA2YSdBGE45_11rustversion, symObjAddr: 0x5A6C, symBinAddr: 0x66C4, symSize: 0x4C }
  - { offset: 0x33CA, size: 0x8, addend: 0x0, symName: __RNvXst_NtNtCs85QQFkKrybG_4core3str7patternReNtB5_7Pattern15is_contained_inCshA2YSdBGE45_11rustversion, symObjAddr: 0x5AB8, symBinAddr: 0x6710, symSize: 0x210 }
  - { offset: 0x375E, size: 0x8, addend: 0x0, symName: __RNvXsv_NtNtCs85QQFkKrybG_4core3str7patternNtB5_11StrSearcherNtB5_8Searcher10next_matchCshA2YSdBGE45_11rustversion, symObjAddr: 0x5CC8, symBinAddr: 0x6920, symSize: 0x148 }
  - { offset: 0x37EA, size: 0x8, addend: 0x0, symName: __RNvXsv_NtNtCs85QQFkKrybG_4core3str7patternNtB5_11StrSearcherNtB5_8Searcher4nextCshA2YSdBGE45_11rustversion, symObjAddr: 0x5E10, symBinAddr: 0x6A68, symSize: 0x454 }
  - { offset: 0x3AFD, size: 0x8, addend: 0x0, symName: __RNvXsy_NtNtCs85QQFkKrybG_4core3str7patternNtB5_9MatchOnlyNtB5_14TwoWayStrategy16use_early_rejectCshA2YSdBGE45_11rustversion, symObjAddr: 0x6264, symBinAddr: 0x6EBC, symSize: 0xC }
  - { offset: 0x3B1B, size: 0x8, addend: 0x0, symName: __RNvXsy_NtNtCs85QQFkKrybG_4core3str7patternNtB5_9MatchOnlyNtB5_14TwoWayStrategy8matchingCshA2YSdBGE45_11rustversion, symObjAddr: 0x6270, symBinAddr: 0x6EC8, symSize: 0x28 }
  - { offset: 0x3B58, size: 0x8, addend: 0x0, symName: __RNvXsy_NtNtCs85QQFkKrybG_4core3str7patternNtB5_9MatchOnlyNtB5_14TwoWayStrategy9rejectingCshA2YSdBGE45_11rustversion, symObjAddr: 0x6298, symBinAddr: 0x6EF0, symSize: 0x18 }
  - { offset: 0x3B9B, size: 0x8, addend: 0x0, symName: __RNvXsz_NtNtCs85QQFkKrybG_4core3str7patternNtB5_14RejectAndMatchNtB5_14TwoWayStrategy16use_early_rejectCshA2YSdBGE45_11rustversion, symObjAddr: 0x62B0, symBinAddr: 0x6F08, symSize: 0xC }
  - { offset: 0x3BB9, size: 0x8, addend: 0x0, symName: __RNvXsz_NtNtCs85QQFkKrybG_4core3str7patternNtB5_14RejectAndMatchNtB5_14TwoWayStrategy8matchingCshA2YSdBGE45_11rustversion, symObjAddr: 0x62BC, symBinAddr: 0x6F14, symSize: 0x20 }
  - { offset: 0x3BF6, size: 0x8, addend: 0x0, symName: __RNvXsz_NtNtCs85QQFkKrybG_4core3str7patternNtB5_14RejectAndMatchNtB5_14TwoWayStrategy9rejectingCshA2YSdBGE45_11rustversion, symObjAddr: 0x62DC, symBinAddr: 0x6F34, symSize: 0x28 }
  - { offset: 0x3C39, size: 0x8, addend: 0x0, symName: __RNvYINtNtNtCs85QQFkKrybG_4core3str7pattern18MultiCharEqPatternNCNvNtCshA2YSdBGE45_11rustversion5bound5parse0ENtB5_7Pattern12is_prefix_ofB14_, symObjAddr: 0x6304, symBinAddr: 0x6F5C, symSize: 0x88 }
  - { offset: 0x3E54, size: 0x8, addend: 0x0, symName: __RNvXs3_NtNtCs85QQFkKrybG_4core3str4iterNtB5_11CharIndicesNtNtNtNtB9_4iter6traits8iterator8Iterator4nextCshA2YSdBGE45_11rustversion, symObjAddr: 0x50A4, symBinAddr: 0x5CFC, symSize: 0x130 }
  - { offset: 0x48A4, size: 0x8, addend: 0x0, symName: __RNvNvNtCs85QQFkKrybG_4core4hint16assert_unchecked18precondition_checkCshA2YSdBGE45_11rustversion, symObjAddr: 0x4738, symBinAddr: 0x5398, symSize: 0xA4 }
  - { offset: 0x4904, size: 0x8, addend: 0x0, symName: __RNvNvNtCs85QQFkKrybG_4core4hint21unreachable_unchecked18precondition_checkCshA2YSdBGE45_11rustversion, symObjAddr: 0x47DC, symBinAddr: 0x543C, symSize: 0x84 }
  - { offset: 0x49CD, size: 0x8, addend: 0x0, symName: __RNvNvNtCs85QQFkKrybG_4core9ub_checks23maybe_is_nonoverlapping7runtimeCshA2YSdBGE45_11rustversion, symObjAddr: 0x4860, symBinAddr: 0x54C0, symSize: 0xD8 }
  - { offset: 0x4FB5, size: 0x8, addend: 0x0, symName: __RNvXs5_NtNtCs9bTl5rSDVcL_10proc_macro6bridge6bufferNtB5_6BufferNtNtNtCs85QQFkKrybG_4core3ops4drop4Drop4dropCshA2YSdBGE45_11rustversion, symObjAddr: 0x5310, symBinAddr: 0x5F68, symSize: 0x8C }
  - { offset: 0x56E1, size: 0x8, addend: 0x0, symName: __RINvMs3_NtNtCs9bTl5rSDVcL_10proc_macro6bridge6bufferNtB6_6Buffer17extend_from_arrayKj4_ECshA2YSdBGE45_11rustversion, symObjAddr: 0x0, symBinAddr: 0xC60, symSize: 0x16C }
  - { offset: 0x5869, size: 0x8, addend: 0x0, symName: __RINvMs3_NtNtCs9bTl5rSDVcL_10proc_macro6bridge6bufferNtB6_6Buffer17extend_from_arrayKj8_ECshA2YSdBGE45_11rustversion, symObjAddr: 0x16C, symBinAddr: 0xDCC, symSize: 0x16C }
  - { offset: 0x5A49, size: 0x8, addend: 0x0, symName: __RINvMsx_NtNtCs85QQFkKrybG_4core3str7patternNtB6_14TwoWaySearcher4nextNtB6_14RejectAndMatchECshA2YSdBGE45_11rustversion, symObjAddr: 0x2D8, symBinAddr: 0xF38, symSize: 0x540 }
  - { offset: 0x5DE9, size: 0x8, addend: 0x0, symName: __RINvMsx_NtNtCs85QQFkKrybG_4core3str7patternNtB6_14TwoWaySearcher4nextNtB6_9MatchOnlyECshA2YSdBGE45_11rustversion, symObjAddr: 0x818, symBinAddr: 0x1478, symSize: 0x540 }
  - { offset: 0x61FA, size: 0x8, addend: 0x0, symName: __RINvXs3_NtNtCsdFlNUEO95cG_5alloc3vec9into_iterINtB6_8IntoIterNtCs9bTl5rSDVcL_10proc_macro9TokenTreeENtNtNtNtCs85QQFkKrybG_4core4iter6traits8iterator8Iterator4folduNCINvNvB1A_8for_each4callBX_NCINvXsg_BZ_NtBZ_11TokenStreamINtNtB1E_7collect12FromIteratorBX_E9from_iterINtB8_3VecBX_EE0E0ECshA2YSdBGE45_11rustversion, symObjAddr: 0xD58, symBinAddr: 0x19B8, symSize: 0x118 }
  - { offset: 0x63C7, size: 0x8, addend: 0x0, symName: __RINvXs3_NtNtCsdFlNUEO95cG_5alloc3vec9into_iterINtB6_8IntoIterNtCs9bTl5rSDVcL_10proc_macro9TokenTreeENtNtNtNtCs85QQFkKrybG_4core4iter6traits8iterator8Iterator4folduNCINvNvB1A_8for_each4callBX_NCINvXsi_BZ_NtBZ_11TokenStreamINtNtB1E_7collect6ExtendBX_E6extendINtB8_3VecBX_EE0E0ECshA2YSdBGE45_11rustversion, symObjAddr: 0xE70, symBinAddr: 0x1AD0, symSize: 0x118 }
  - { offset: 0x6594, size: 0x8, addend: 0x0, symName: __RINvXs3_NtNtCsdFlNUEO95cG_5alloc3vec9into_iterINtB6_8IntoIterNtCs9bTl5rSDVcL_10proc_macro9TokenTreeENtNtNtNtCs85QQFkKrybG_4core4iter6traits8iterator8Iterator4folduQNCINvNvB1A_8for_each4callBX_NCINvXsg_BZ_NtBZ_11TokenStreamINtNtB1E_7collect12FromIteratorBX_E9from_iterINtNtNtB1G_8adapters5chain5ChainBI_NtNtBZ_12token_stream8IntoIterEE0E0ECshA2YSdBGE45_11rustversion, symObjAddr: 0xF88, symBinAddr: 0x1BE8, symSize: 0x118 }
  - { offset: 0x6761, size: 0x8, addend: 0x0, symName: __RNvXs3_NtNtCsdFlNUEO95cG_5alloc3vec9into_iterINtB5_8IntoIterINtNtCs9bTl5rSDVcL_10proc_macro6bridge9TokenTreeNtNtBZ_6client11TokenStreamNtB1K_4SpanNtNtBZ_6symbol6SymbolEENtNtNtNtCs85QQFkKrybG_4core4iter6traits8iterator8Iterator9size_hintCshA2YSdBGE45_11rustversion, symObjAddr: 0x51FC, symBinAddr: 0x5E54, symSize: 0x5C }
  - { offset: 0x67BC, size: 0x8, addend: 0x0, symName: __RNvXs3_NtNtCsdFlNUEO95cG_5alloc3vec9into_iterINtB5_8IntoIterNtCs9bTl5rSDVcL_10proc_macro9TokenTreeENtNtNtNtCs85QQFkKrybG_4core4iter6traits8iterator8Iterator9size_hintCshA2YSdBGE45_11rustversion, symObjAddr: 0x5258, symBinAddr: 0x5EB0, symSize: 0x5C }
  - { offset: 0x6817, size: 0x8, addend: 0x0, symName: __RNvXs3_NtNtCsdFlNUEO95cG_5alloc3vec9into_iterINtB5_8IntoIterNtNtCshA2YSdBGE45_11rustversion4expr4ExprENtNtNtNtCs85QQFkKrybG_4core4iter6traits8iterator8Iterator9size_hintB10_, symObjAddr: 0x52B4, symBinAddr: 0x5F0C, symSize: 0x5C }
  - { offset: 0x6A47, size: 0x8, addend: 0x0, symName: __RNvXNvXsd_NtNtCsdFlNUEO95cG_5alloc3vec9into_iterINtB8_8IntoIterppENtNtNtCs85QQFkKrybG_4core3ops4drop4Drop4dropINtB2_9DropGuardINtNtCs9bTl5rSDVcL_10proc_macro6bridge9TokenTreeNtNtB23_6client11TokenStreamNtB2O_4SpanNtNtB23_6symbol6SymbolENtNtBc_5alloc6GlobalEB12_4dropCshA2YSdBGE45_11rustversion, symObjAddr: 0x4DCC, symBinAddr: 0x5A2C, symSize: 0x7C }
  - { offset: 0x6B5C, size: 0x8, addend: 0x0, symName: __RNvXNvXsd_NtNtCsdFlNUEO95cG_5alloc3vec9into_iterINtB8_8IntoIterppENtNtNtCs85QQFkKrybG_4core3ops4drop4Drop4dropINtB2_9DropGuardNtCs9bTl5rSDVcL_10proc_macro9TokenTreeNtNtBc_5alloc6GlobalEB12_4dropCshA2YSdBGE45_11rustversion, symObjAddr: 0x4E48, symBinAddr: 0x5AA8, symSize: 0x7C }
  - { offset: 0x6C71, size: 0x8, addend: 0x0, symName: __RNvXNvXsd_NtNtCsdFlNUEO95cG_5alloc3vec9into_iterINtB8_8IntoIterppENtNtNtCs85QQFkKrybG_4core3ops4drop4Drop4dropINtB2_9DropGuardNtNtCshA2YSdBGE45_11rustversion4expr4ExprNtNtBc_5alloc6GlobalEB12_4dropB24_, symObjAddr: 0x4EC4, symBinAddr: 0x5B24, symSize: 0x7C }
  - { offset: 0x6DFD, size: 0x8, addend: 0x0, symName: __RNvXsd_NtNtCsdFlNUEO95cG_5alloc3vec9into_iterINtB5_8IntoIterINtNtCs9bTl5rSDVcL_10proc_macro6bridge9TokenTreeNtNtBZ_6client11TokenStreamNtB1K_4SpanNtNtBZ_6symbol6SymbolEENtNtNtCs85QQFkKrybG_4core3ops4drop4Drop4dropCshA2YSdBGE45_11rustversion, symObjAddr: 0x587C, symBinAddr: 0x64D4, symSize: 0x98 }
  - { offset: 0x6E97, size: 0x8, addend: 0x0, symName: __RNvXsd_NtNtCsdFlNUEO95cG_5alloc3vec9into_iterINtB5_8IntoIterNtCs9bTl5rSDVcL_10proc_macro9TokenTreeENtNtNtCs85QQFkKrybG_4core3ops4drop4Drop4dropCshA2YSdBGE45_11rustversion, symObjAddr: 0x5914, symBinAddr: 0x656C, symSize: 0x98 }
  - { offset: 0x6F31, size: 0x8, addend: 0x0, symName: __RNvXsd_NtNtCsdFlNUEO95cG_5alloc3vec9into_iterINtB5_8IntoIterNtNtCshA2YSdBGE45_11rustversion4expr4ExprENtNtNtCs85QQFkKrybG_4core3ops4drop4Drop4dropB10_, symObjAddr: 0x59AC, symBinAddr: 0x6604, symSize: 0x98 }
  - { offset: 0x7589, size: 0x8, addend: 0x0, symName: __RNCNvNtCshA2YSdBGE45_11rustversion4date5parse0B5_, symObjAddr: 0x1278, symBinAddr: 0x1ED8, symSize: 0x10C }
  - { offset: 0x7647, size: 0x8, addend: 0x0, symName: __RNvNtCshA2YSdBGE45_11rustversion4date5parse, symObjAddr: 0x17FC, symBinAddr: 0x245C, symSize: 0xF0 }
  - { offset: 0x7682, size: 0x8, addend: 0x0, symName: __RNvNtCshA2YSdBGE45_11rustversion4date9try_parse, symObjAddr: 0x18EC, symBinAddr: 0x254C, symSize: 0x6D8 }
  - { offset: 0x786A, size: 0x8, addend: 0x0, symName: __RNvXNtCshA2YSdBGE45_11rustversion4dateNtB2_4DateNtNtCs85QQFkKrybG_4core3fmt7Display3fmt, symObjAddr: 0x4CE8, symBinAddr: 0x5948, symSize: 0xD0 }
  - { offset: 0x78DE, size: 0x8, addend: 0x0, symName: __RNvXs3_NtCshA2YSdBGE45_11rustversion4dateNtB5_4DateNtNtCs85QQFkKrybG_4core3cmp9PartialEq2eqB7_, symObjAddr: 0x5020, symBinAddr: 0x5C78, symSize: 0x84 }
  - { offset: 0x791E, size: 0x8, addend: 0x0, symName: __RNvXs6_NtCshA2YSdBGE45_11rustversion4dateNtB5_4DateNtNtCs85QQFkKrybG_4core3cmp3Ord3cmpB7_, symObjAddr: 0x539C, symBinAddr: 0x5FF4, symSize: 0xA0 }
  - { offset: 0x799E, size: 0x8, addend: 0x0, symName: __RNCNvNtCshA2YSdBGE45_11rustversion5bound5parse0B5_, symObjAddr: 0x1384, symBinAddr: 0x1FE4, symSize: 0x3C }
  - { offset: 0x79E6, size: 0x8, addend: 0x0, symName: __RNcNtNtNtCshA2YSdBGE45_11rustversion5bound5Bound6Stable0B7_, symObjAddr: 0x13C0, symBinAddr: 0x2020, symSize: 0x4C }
  - { offset: 0x7A14, size: 0x8, addend: 0x0, symName: __RNcNtNtNtCshA2YSdBGE45_11rustversion5bound5Bound7Nightly0B7_, symObjAddr: 0x140C, symBinAddr: 0x206C, symSize: 0x3C }
  - { offset: 0x7A99, size: 0x8, addend: 0x0, symName: __RNvNtCshA2YSdBGE45_11rustversion5bound5parse, symObjAddr: 0x2540, symBinAddr: 0x31A0, symSize: 0x318 }
  - { offset: 0x7B5E, size: 0x8, addend: 0x0, symName: __RNvXs_NtCshA2YSdBGE45_11rustversion5boundNtNtB6_7version7VersionINtNtCs85QQFkKrybG_4core3cmp10PartialOrdNtB4_5BoundE11partial_cmp, symObjAddr: 0x56F4, symBinAddr: 0x634C, symSize: 0x170 }
  - { offset: 0x7D9A, size: 0x8, addend: 0x0, symName: __RNvNtCshA2YSdBGE45_11rustversion4time5today, symObjAddr: 0x1FC4, symBinAddr: 0x2C24, symSize: 0xAC }
  - { offset: 0x7DCD, size: 0x8, addend: 0x0, symName: __RNvNtCshA2YSdBGE45_11rustversion4time9try_today, symObjAddr: 0x2070, symBinAddr: 0x2CD0, symSize: 0x4D0 }
  - { offset: 0x7F59, size: 0x8, addend: 0x0, symName: __RNvNtCshA2YSdBGE45_11rustversion5token11parse_paren, symObjAddr: 0x2858, symBinAddr: 0x34B8, symSize: 0x2A0 }
  - { offset: 0x8037, size: 0x8, addend: 0x0, symName: __RNvNtCshA2YSdBGE45_11rustversion5token11parse_punct, symObjAddr: 0x2AF8, symBinAddr: 0x3758, symSize: 0x234 }
  - { offset: 0x810C, size: 0x8, addend: 0x0, symName: __RNvNtCshA2YSdBGE45_11rustversion5token13parse_literal, symObjAddr: 0x2D2C, symBinAddr: 0x398C, symSize: 0x1E0 }
  - { offset: 0x8188, size: 0x8, addend: 0x0, symName: __RNvNtCshA2YSdBGE45_11rustversion5token20parse_optional_paren, symObjAddr: 0x2F0C, symBinAddr: 0x3B6C, symSize: 0x1AC }
  - { offset: 0x81FD, size: 0x8, addend: 0x0, symName: __RNvNtCshA2YSdBGE45_11rustversion5token20parse_optional_punct, symObjAddr: 0x30B8, symBinAddr: 0x3D18, symSize: 0x10C }
  - { offset: 0x8263, size: 0x8, addend: 0x0, symName: __RNvNtCshA2YSdBGE45_11rustversion5token22parse_optional_keyword, symObjAddr: 0x31C4, symBinAddr: 0x3E24, symSize: 0x1B4 }
  - { offset: 0x82DF, size: 0x8, addend: 0x0, symName: __RNvNtCshA2YSdBGE45_11rustversion5token9parse_end, symObjAddr: 0x3378, symBinAddr: 0x3FD8, symSize: 0xFC }
  - { offset: 0x8326, size: 0x8, addend: 0x0, symName: __RNvNtCshA2YSdBGE45_11rustversion6expand23allow_incompatible_msrv, symObjAddr: 0x3474, symBinAddr: 0x40D4, symSize: 0x614 }
  - { offset: 0x8353, size: 0x8, addend: 0x0, symName: __RNvNtCshA2YSdBGE45_11rustversion6expand3cfg, symObjAddr: 0x3A88, symBinAddr: 0x46E8, symSize: 0x58 }
  - { offset: 0x839B, size: 0x8, addend: 0x0, symName: __RNvNtCshA2YSdBGE45_11rustversion6expand7try_cfg, symObjAddr: 0x3AE0, symBinAddr: 0x4740, symSize: 0x448 }
  - { offset: 0x848F, size: 0x8, addend: 0x0, symName: __RNvNtCshA2YSdBGE45_11rustversion6expand8try_attr, symObjAddr: 0x3F28, symBinAddr: 0x4B88, symSize: 0x810 }
  - { offset: 0x854A, size: 0x8, addend: 0x0, symName: __RNvXs7_NtCshA2YSdBGE45_11rustversion7versionNtB5_7ChannelNtNtCs85QQFkKrybG_4core3cmp9PartialEq2eqB7_, symObjAddr: 0x543C, symBinAddr: 0x6094, symSize: 0xBC }
  - { offset: 0x8792, size: 0x8, addend: 0x0, symName: __RNvMs3_NtNtCs9bTl5rSDVcL_10proc_macro6bridge6bufferNtB5_6Buffer17extend_from_sliceCshA2YSdBGE45_11rustversion, symObjAddr: 0x14F4, symBinAddr: 0x2154, symSize: 0x164 }
  - { offset: 0x8910, size: 0x8, addend: 0x0, symName: __RNvMs3_NtNtCs9bTl5rSDVcL_10proc_macro6bridge6bufferNtB5_6Buffer4pushCshA2YSdBGE45_11rustversion, symObjAddr: 0x1658, symBinAddr: 0x22B8, symSize: 0x134 }
  - { offset: 0x8A25, size: 0x8, addend: 0x0, symName: __RNvMs_NtNtCsdFlNUEO95cG_5alloc3vec9into_iterINtB4_8IntoIterNtNtCshA2YSdBGE45_11rustversion4expr4ExprE8as_sliceBZ_, symObjAddr: 0x178C, symBinAddr: 0x23EC, symSize: 0x70 }
  - { offset: 0x93CB, size: 0x8, addend: 0x0, symName: __RINvMNtCs85QQFkKrybG_4core3stre11starts_withNCNvNtCshA2YSdBGE45_11rustversion5bound5parse0EBM_, symObjAddr: 0x0, symBinAddr: 0x7310, symSize: 0x28 }
  - { offset: 0x94DB, size: 0x8, addend: 0x0, symName: __RNvXss_NtCsdFlNUEO95cG_5alloc6stringNtB5_6StringNtNtNtCs85QQFkKrybG_4core3ops5deref5Deref5derefCshA2YSdBGE45_11rustversion, symObjAddr: 0x6E7C, symBinAddr: 0xE18C, symSize: 0x24 }
  - { offset: 0x956F, size: 0x8, addend: 0x0, symName: __RNvXs1I_NtCsdFlNUEO95cG_5alloc6stringNtB6_6StringNtB6_12SpecToString14spec_to_stringCshA2YSdBGE45_11rustversion, symObjAddr: 0x5D6C, symBinAddr: 0xD07C, symSize: 0xA8 }
  - { offset: 0x97DB, size: 0x8, addend: 0x0, symName: __RNvXs1U_NtCsdFlNUEO95cG_5alloc6stringReNtB6_12SpecToString14spec_to_stringCshA2YSdBGE45_11rustversion, symObjAddr: 0x5EC4, symBinAddr: 0xD1D4, symSize: 0x5C }
  - { offset: 0x9938, size: 0x8, addend: 0x0, symName: __RNvXsq_NtCsdFlNUEO95cG_5alloc6stringNtB5_6StringINtNtNtCs85QQFkKrybG_4core3ops5index5IndexINtNtBP_5range9RangeFromjEE5indexCshA2YSdBGE45_11rustversion, symObjAddr: 0x6DEC, symBinAddr: 0xE0FC, symSize: 0x90 }
  - { offset: 0x9A88, size: 0x8, addend: 0x0, symName: __RNvXs1n_NtCsdFlNUEO95cG_5alloc6stringNtB6_6StringINtNtCs85QQFkKrybG_4core3cmp9PartialEqReE2eqCshA2YSdBGE45_11rustversion, symObjAddr: 0x6020, symBinAddr: 0xD330, symSize: 0x12C }
  - { offset: 0x9D63, size: 0x8, addend: 0x0, symName: __RNvXsA_NtCsdFlNUEO95cG_5alloc6stringbNtB5_12SpecToString14spec_to_stringCshA2YSdBGE45_11rustversion, symObjAddr: 0x6854, symBinAddr: 0xDB64, symSize: 0x8C }
  - { offset: 0x9E6E, size: 0x8, addend: 0x0, symName: __RNvXsT_NtCsdFlNUEO95cG_5alloc6stringNtB5_6StringNtNtCs85QQFkKrybG_4core3fmt5Write10write_charCshA2YSdBGE45_11rustversion, symObjAddr: 0x68E0, symBinAddr: 0xDBF0, symSize: 0x38 }
  - { offset: 0x9EAB, size: 0x8, addend: 0x0, symName: __RNvXsT_NtCsdFlNUEO95cG_5alloc6stringNtB5_6StringNtNtCs85QQFkKrybG_4core3fmt5Write9write_strCshA2YSdBGE45_11rustversion, symObjAddr: 0x6918, symBinAddr: 0xDC28, symSize: 0x40 }
  - { offset: 0x9EEE, size: 0x8, addend: 0x0, symName: __RNvXsw_NtCsdFlNUEO95cG_5alloc6stringNtB5_6StringNtB5_8ToString9to_stringCshA2YSdBGE45_11rustversion, symObjAddr: 0x6EA0, symBinAddr: 0xE1B0, symSize: 0x24 }
  - { offset: 0x9F25, size: 0x8, addend: 0x0, symName: __RNvXsw_NtCsdFlNUEO95cG_5alloc6stringNtCs9bTl5rSDVcL_10proc_macro5IdentNtB5_8ToString9to_stringCshA2YSdBGE45_11rustversion, symObjAddr: 0x6EC4, symBinAddr: 0xE1D4, symSize: 0x24 }
  - { offset: 0x9F5C, size: 0x8, addend: 0x0, symName: __RNvXsw_NtCsdFlNUEO95cG_5alloc6stringNtCs9bTl5rSDVcL_10proc_macro7LiteralNtB5_8ToString9to_stringCshA2YSdBGE45_11rustversion, symObjAddr: 0x6EE8, symBinAddr: 0xE1F8, symSize: 0x24 }
  - { offset: 0x9F93, size: 0x8, addend: 0x0, symName: __RNvXsw_NtCsdFlNUEO95cG_5alloc6stringReNtB5_8ToString9to_stringCshA2YSdBGE45_11rustversion, symObjAddr: 0x6F0C, symBinAddr: 0xE21C, symSize: 0x24 }
  - { offset: 0x9FCA, size: 0x8, addend: 0x0, symName: __RNvXsw_NtCsdFlNUEO95cG_5alloc6stringbNtB5_8ToString9to_stringCshA2YSdBGE45_11rustversion, symObjAddr: 0x6F30, symBinAddr: 0xE240, symSize: 0x24 }
  - { offset: 0xA007, size: 0x8, addend: 0x0, symName: __RNvXsx_NtCsdFlNUEO95cG_5alloc6stringNtCs9bTl5rSDVcL_10proc_macro5IdentNtB5_12SpecToString14spec_to_stringCshA2YSdBGE45_11rustversion, symObjAddr: 0x6F54, symBinAddr: 0xE264, symSize: 0xF4 }
  - { offset: 0xA0D1, size: 0x8, addend: 0x0, symName: __RNvXsx_NtCsdFlNUEO95cG_5alloc6stringNtCs9bTl5rSDVcL_10proc_macro7LiteralNtB5_12SpecToString14spec_to_stringCshA2YSdBGE45_11rustversion, symObjAddr: 0x7048, symBinAddr: 0xE358, symSize: 0xF4 }
  - { offset: 0xA54F, size: 0x8, addend: 0x0, symName: __RNvXNvXs5_NtNtCsdFlNUEO95cG_5alloc3vec5drainINtB8_5DrainppENtNtNtCs85QQFkKrybG_4core3ops4drop4Drop4dropINtB2_9DropGuardNtCs9bTl5rSDVcL_10proc_macro9TokenTreeNtNtBc_5alloc6GlobalEBV_4dropCshA2YSdBGE45_11rustversion, symObjAddr: 0x5B58, symBinAddr: 0xCE68, symSize: 0x1B0 }
  - { offset: 0xA886, size: 0x8, addend: 0x0, symName: __RNvXs5_NtNtCsdFlNUEO95cG_5alloc3vec5drainINtB5_5DrainNtCs9bTl5rSDVcL_10proc_macro9TokenTreeENtNtNtCs85QQFkKrybG_4core3ops4drop4Drop4dropCshA2YSdBGE45_11rustversion, symObjAddr: 0x62CC, symBinAddr: 0xD5DC, symSize: 0x258 }
  - { offset: 0xAD85, size: 0x8, addend: 0x0, symName: __RNvXs3_NtNtCsdFlNUEO95cG_5alloc3vec5drainINtB5_5DrainNtCs9bTl5rSDVcL_10proc_macro9TokenTreeENtNtNtNtCs85QQFkKrybG_4core4iter6traits8iterator8Iterator4nextCshA2YSdBGE45_11rustversion, symObjAddr: 0x614C, symBinAddr: 0xD45C, symSize: 0x84 }
  - { offset: 0xAE3D, size: 0x8, addend: 0x0, symName: __RNvXs3_NtNtCsdFlNUEO95cG_5alloc3vec5drainINtB5_5DrainNtCs9bTl5rSDVcL_10proc_macro9TokenTreeENtNtNtNtCs85QQFkKrybG_4core4iter6traits8iterator8Iterator9size_hintCshA2YSdBGE45_11rustversion, symObjAddr: 0x61D0, symBinAddr: 0xD4E0, symSize: 0x68 }
  - { offset: 0xB32B, size: 0x8, addend: 0x0, symName: __RNvXs1_NtCsdFlNUEO95cG_5alloc7raw_vecINtB5_6RawVecINtNtCs9bTl5rSDVcL_10proc_macro6bridge9TokenTreeNtNtBP_6client11TokenStreamNtB1A_4SpanNtNtBP_6symbol6SymbolEENtNtNtCs85QQFkKrybG_4core3ops4drop4Drop4dropCshA2YSdBGE45_11rustversion, symObjAddr: 0x5F20, symBinAddr: 0xD230, symSize: 0x34 }
  - { offset: 0xB367, size: 0x8, addend: 0x0, symName: __RNvXs1_NtCsdFlNUEO95cG_5alloc7raw_vecINtB5_6RawVecNtCs9bTl5rSDVcL_10proc_macro9TokenTreeENtNtNtCs85QQFkKrybG_4core3ops4drop4Drop4dropCshA2YSdBGE45_11rustversion, symObjAddr: 0x5F54, symBinAddr: 0xD264, symSize: 0x34 }
  - { offset: 0xB3A3, size: 0x8, addend: 0x0, symName: __RNvXs1_NtCsdFlNUEO95cG_5alloc7raw_vecINtB5_6RawVecNtNtCs9bTl5rSDVcL_10proc_macro12token_stream8IntoIterENtNtNtCs85QQFkKrybG_4core3ops4drop4Drop4dropCshA2YSdBGE45_11rustversion, symObjAddr: 0x5F88, symBinAddr: 0xD298, symSize: 0x34 }
  - { offset: 0xB3DF, size: 0x8, addend: 0x0, symName: __RNvXs1_NtCsdFlNUEO95cG_5alloc7raw_vecINtB5_6RawVecNtNtCshA2YSdBGE45_11rustversion4expr4ExprENtNtNtCs85QQFkKrybG_4core3ops4drop4Drop4dropBQ_, symObjAddr: 0x5FBC, symBinAddr: 0xD2CC, symSize: 0x34 }
  - { offset: 0xB4C4, size: 0x8, addend: 0x0, symName: __RINvMNtCsdFlNUEO95cG_5alloc5sliceSNtCs9bTl5rSDVcL_10proc_macro9TokenTree8into_vecNtNtB5_5alloc6GlobalECshA2YSdBGE45_11rustversion, symObjAddr: 0x118, symBinAddr: 0x7428, symSize: 0x4C }
  - { offset: 0xB578, size: 0x8, addend: 0x0, symName: __RINvXs_NvMNtCsdFlNUEO95cG_5alloc5sliceSp9to_vec_inhNtB5_10ConvertVec6to_vecNtNtBa_5alloc6GlobalECshA2YSdBGE45_11rustversion, symObjAddr: 0x1328, symBinAddr: 0x8638, symSize: 0x12C }
  - { offset: 0xC149, size: 0x8, addend: 0x0, symName: __RNvNvMNtNtCs85QQFkKrybG_4core3ptr9const_ptrPp20offset_from_unsigned18precondition_checkCshA2YSdBGE45_11rustversion, symObjAddr: 0x5188, symBinAddr: 0xC498, symSize: 0xAC }
  - { offset: 0xC61E, size: 0x8, addend: 0x0, symName: __RNvNvNtCs85QQFkKrybG_4core3ptr19copy_nonoverlapping18precondition_checkCshA2YSdBGE45_11rustversion, symObjAddr: 0x52F0, symBinAddr: 0xC600, symSize: 0x36C }
  - { offset: 0xC8FE, size: 0x8, addend: 0x0, symName: __RNvNvNtCs85QQFkKrybG_4core3ptr4copy18precondition_checkCshA2YSdBGE45_11rustversion, symObjAddr: 0x565C, symBinAddr: 0xC96C, symSize: 0x240 }
  - { offset: 0xCFD7, size: 0x8, addend: 0x0, symName: __RNvXs16_NtNtCs85QQFkKrybG_4core3cmp5implsiNtB8_10PartialOrd11partial_cmpCshA2YSdBGE45_11rustversion, symObjAddr: 0x5D34, symBinAddr: 0xD044, symSize: 0x38 }
  - { offset: 0xD056, size: 0x8, addend: 0x0, symName: __RNvXs7_NtNtCs85QQFkKrybG_4core3cmp5implsReNtB7_9PartialEq2eqCshA2YSdBGE45_11rustversion, symObjAddr: 0x6524, symBinAddr: 0xD834, symSize: 0x44 }
  - { offset: 0xD0AB, size: 0x8, addend: 0x0, symName: __RNvXsX_NtNtCs85QQFkKrybG_4core3cmp5implshNtB7_3Ord3cmpCshA2YSdBGE45_11rustversion, symObjAddr: 0x6958, symBinAddr: 0xDC68, symSize: 0x3C }
  - { offset: 0xD0EE, size: 0x8, addend: 0x0, symName: __RNvXsZ_NtNtCs85QQFkKrybG_4core3cmp5implstNtB7_3Ord3cmpCshA2YSdBGE45_11rustversion, symObjAddr: 0x6994, symBinAddr: 0xDCA4, symSize: 0x3C }
  - { offset: 0xD138, size: 0x8, addend: 0x0, symName: __RINvMNtCs85QQFkKrybG_4core3stre11starts_withNCNvNtCshA2YSdBGE45_11rustversion5bound5parse0EBM_, symObjAddr: 0x0, symBinAddr: 0x7310, symSize: 0x28 }
  - { offset: 0xD17E, size: 0x8, addend: 0x0, symName: __RINvMNtCs85QQFkKrybG_4core3stre11starts_withReECshA2YSdBGE45_11rustversion, symObjAddr: 0x28, symBinAddr: 0x7338, symSize: 0x4C }
  - { offset: 0xD1C4, size: 0x8, addend: 0x0, symName: __RINvMNtCs85QQFkKrybG_4core3stre5parsetECshA2YSdBGE45_11rustversion, symObjAddr: 0x74, symBinAddr: 0x7384, symSize: 0x38 }
  - { offset: 0xD1FB, size: 0x8, addend: 0x0, symName: __RINvMNtCs85QQFkKrybG_4core3stre5parseyECshA2YSdBGE45_11rustversion, symObjAddr: 0xAC, symBinAddr: 0x73BC, symSize: 0x28 }
  - { offset: 0xD232, size: 0x8, addend: 0x0, symName: __RINvMNtCs85QQFkKrybG_4core3stre8containscECshA2YSdBGE45_11rustversion, symObjAddr: 0xD4, symBinAddr: 0x73E4, symSize: 0x44 }
  - { offset: 0xD278, size: 0x8, addend: 0x0, symName: __RNvMNtCs85QQFkKrybG_4core3stre5charsCshA2YSdBGE45_11rustversion, symObjAddr: 0x2174, symBinAddr: 0x9484, symSize: 0x20 }
  - { offset: 0xD472, size: 0x8, addend: 0x0, symName: __RNvXs9_NtNtCs85QQFkKrybG_4core3str6traitsINtNtNtB9_3ops5range9RangeFromjEINtNtNtB9_5slice5index10SliceIndexeE3getCshA2YSdBGE45_11rustversion, symObjAddr: 0x6568, symBinAddr: 0xD878, symSize: 0x150 }
  - { offset: 0xD5ED, size: 0x8, addend: 0x0, symName: __RNvXs9_NtNtCs85QQFkKrybG_4core3str6traitsINtNtNtB9_3ops5range9RangeFromjEINtNtNtB9_5slice5index10SliceIndexeE5indexCshA2YSdBGE45_11rustversion, symObjAddr: 0x66B8, symBinAddr: 0xD9C8, symSize: 0x88 }
  - { offset: 0xDDA1, size: 0x8, addend: 0x0, symName: __RINvNtNtCs85QQFkKrybG_4core5slice5index5rangeNtNtNtB6_3ops5range9RangeFullECshA2YSdBGE45_11rustversion, symObjAddr: 0x644, symBinAddr: 0x7954, symSize: 0x23C }
  - { offset: 0xDF73, size: 0x8, addend: 0x0, symName: __RNvNvXs2_NtNtCs85QQFkKrybG_4core5slice5indexINtNtNtBb_3ops5range5RangejEINtB7_10SliceIndexSpE13get_unchecked18precondition_checkCshA2YSdBGE45_11rustversion, symObjAddr: 0x59A0, symBinAddr: 0xCCB0, symSize: 0xCC }
  - { offset: 0xE067, size: 0x8, addend: 0x0, symName: __RNvXs5_NtNtCs85QQFkKrybG_4core5slice5indexINtNtNtB9_3ops5range9RangeFromjEINtB5_10SliceIndexShE5indexCshA2YSdBGE45_11rustversion, symObjAddr: 0x6238, symBinAddr: 0xD548, symSize: 0x94 }
  - { offset: 0xE1BB, size: 0x8, addend: 0x0, symName: __RNvMNtCs85QQFkKrybG_4core5sliceSNtNtCshA2YSdBGE45_11rustversion4expr4Expr4iterBy_, symObjAddr: 0x2194, symBinAddr: 0x94A4, symSize: 0x28 }
  - { offset: 0xE604, size: 0x8, addend: 0x0, symName: __RINvNtNtNtCs85QQFkKrybG_4core4iter7sources4once4onceNtCs9bTl5rSDVcL_10proc_macro9TokenTreeECshA2YSdBGE45_11rustversion, symObjAddr: 0x880, symBinAddr: 0x7B90, symSize: 0x50 }
  - { offset: 0xE652, size: 0x8, addend: 0x0, symName: __RNvXNtNtNtCs85QQFkKrybG_4core4iter7sources4onceINtB2_4OnceNtCs9bTl5rSDVcL_10proc_macro9TokenTreeENtNtNtB6_6traits8iterator8Iterator4nextCshA2YSdBGE45_11rustversion, symObjAddr: 0x5AE4, symBinAddr: 0xCDF4, symSize: 0x40 }
  - { offset: 0xE6DD, size: 0x8, addend: 0x0, symName: __RNvXNtNtNtCs85QQFkKrybG_4core4iter7sources4onceINtB2_4OnceNtCs9bTl5rSDVcL_10proc_macro9TokenTreeENtNtNtB6_6traits8iterator8Iterator9size_hintCshA2YSdBGE45_11rustversion, symObjAddr: 0x5B24, symBinAddr: 0xCE34, symSize: 0x34 }
  - { offset: 0xE798, size: 0x8, addend: 0x0, symName: __RINvXs_NtNtNtCs85QQFkKrybG_4core4iter8adapters5chainINtB5_5ChainINtNtNtCsdFlNUEO95cG_5alloc3vec9into_iter8IntoIterNtCs9bTl5rSDVcL_10proc_macro9TokenTreeENtNtB1Q_12token_stream8IntoIterENtNtNtB9_6traits8iterator8Iterator4folduNCINvNvB2X_8for_each4callB1O_NCINvXsg_B1Q_NtB1Q_11TokenStreamINtNtB31_7collect12FromIteratorB1O_E9from_iterBO_E0E0ECshA2YSdBGE45_11rustversion, symObjAddr: 0x1204, symBinAddr: 0x8514, symSize: 0x124 }
  - { offset: 0xE833, size: 0x8, addend: 0x0, symName: __RNvXs_NtNtNtCs85QQFkKrybG_4core4iter8adapters5chainINtB4_5ChainINtNtNtCsdFlNUEO95cG_5alloc3vec9into_iter8IntoIterNtCs9bTl5rSDVcL_10proc_macro9TokenTreeENtNtB1P_12token_stream8IntoIterENtNtNtB8_6traits8iterator8Iterator9size_hintCshA2YSdBGE45_11rustversion, symObjAddr: 0x69D0, symBinAddr: 0xDCE0, symSize: 0x220 }
  - { offset: 0xEA2C, size: 0x8, addend: 0x0, symName: __RINvYINtNtNtCsdFlNUEO95cG_5alloc3vec5drain5DrainNtCs9bTl5rSDVcL_10proc_macro9TokenTreeENtNtNtNtCs85QQFkKrybG_4core4iter6traits8iterator8Iterator4folduNCINvNvB1n_8for_each4callBK_NCINvXsi_BM_NtBM_11TokenStreamINtNtB1r_7collect6ExtendBK_E6extendB3_E0E0ECshA2YSdBGE45_11rustversion, symObjAddr: 0x1B74, symBinAddr: 0x8E84, symSize: 0xD8 }
  - { offset: 0xEABC, size: 0x8, addend: 0x0, symName: __RINvYINtNtNtCsdFlNUEO95cG_5alloc3vec5drain5DrainNtCs9bTl5rSDVcL_10proc_macro9TokenTreeENtNtNtNtCs85QQFkKrybG_4core4iter6traits8iterator8Iterator8for_eachNCINvXsi_BM_NtBM_11TokenStreamINtNtB1r_7collect6ExtendBK_E6extendB3_E0ECshA2YSdBGE45_11rustversion, symObjAddr: 0x1C4C, symBinAddr: 0x8F5C, symSize: 0x24 }
  - { offset: 0xEB08, size: 0x8, addend: 0x0, symName: __RINvYINtNtNtNtCs85QQFkKrybG_4core4iter7sources4once4OnceNtCs9bTl5rSDVcL_10proc_macro9TokenTreeENtNtNtBa_6traits8iterator8Iterator4folduNCINvNvB1v_8for_each4callBS_NCINvXsi_BU_NtBU_11TokenStreamINtNtB1z_7collect6ExtendBS_E6extendB3_E0E0ECshA2YSdBGE45_11rustversion, symObjAddr: 0x1C70, symBinAddr: 0x8F80, symSize: 0xD8 }
  - { offset: 0xEB98, size: 0x8, addend: 0x0, symName: __RINvYINtNtNtNtCs85QQFkKrybG_4core4iter7sources4once4OnceNtCs9bTl5rSDVcL_10proc_macro9TokenTreeENtNtNtBa_6traits8iterator8Iterator8for_eachNCINvXsi_BU_NtBU_11TokenStreamINtNtB1z_7collect6ExtendBS_E6extendB3_E0ECshA2YSdBGE45_11rustversion, symObjAddr: 0x1D48, symBinAddr: 0x9058, symSize: 0x24 }
  - { offset: 0xEBE4, size: 0x8, addend: 0x0, symName: __RINvYINtNtNtNtCs85QQFkKrybG_4core4iter8adapters5chain5ChainINtNtNtCsdFlNUEO95cG_5alloc3vec9into_iter8IntoIterNtCs9bTl5rSDVcL_10proc_macro9TokenTreeENtNtB1L_12token_stream8IntoIterENtNtNtBa_6traits8iterator8Iterator8for_eachNCINvXsg_B1L_NtB1L_11TokenStreamINtNtB2W_7collect12FromIteratorB1J_E9from_iterB3_E0ECshA2YSdBGE45_11rustversion, symObjAddr: 0x1D6C, symBinAddr: 0x907C, symSize: 0x24 }
  - { offset: 0xEC81, size: 0x8, addend: 0x0, symName: __RNvXNtNtNtCs85QQFkKrybG_4core4iter6traits7collectINtNtNtB6_7sources4once4OnceNtCs9bTl5rSDVcL_10proc_macro9TokenTreeENtB2_12IntoIterator9into_iterCshA2YSdBGE45_11rustversion, symObjAddr: 0x5A6C, symBinAddr: 0xCD7C, symSize: 0x18 }
  - { offset: 0xECB8, size: 0x8, addend: 0x0, symName: __RNvXNtNtNtCs85QQFkKrybG_4core4iter6traits7collectINtNtNtB6_8adapters5chain5ChainINtNtNtCsdFlNUEO95cG_5alloc3vec9into_iter8IntoIterNtCs9bTl5rSDVcL_10proc_macro9TokenTreeENtNtB26_12token_stream8IntoIterENtB2_12IntoIterator9into_iterCshA2YSdBGE45_11rustversion, symObjAddr: 0x5A84, symBinAddr: 0xCD94, symSize: 0x30 }
  - { offset: 0xECF0, size: 0x8, addend: 0x0, symName: __RNvXNtNtNtCs85QQFkKrybG_4core4iter6traits7collectINtNtNtCsdFlNUEO95cG_5alloc3vec5drain5DrainNtCs9bTl5rSDVcL_10proc_macro9TokenTreeENtB2_12IntoIterator9into_iterCshA2YSdBGE45_11rustversion, symObjAddr: 0x5AB4, symBinAddr: 0xCDC4, symSize: 0x30 }
  - { offset: 0xEFD6, size: 0x8, addend: 0x0, symName: __RNvNvNtNtCs85QQFkKrybG_4core4char7convert18from_u32_unchecked18precondition_checkCshA2YSdBGE45_11rustversion, symObjAddr: 0x589C, symBinAddr: 0xCBAC, symSize: 0x104 }
  - { offset: 0xF0D4, size: 0x8, addend: 0x0, symName: __RNvNvMNtNtCs85QQFkKrybG_4core5alloc6layoutNtB4_6Layout25from_size_align_unchecked18precondition_checkCshA2YSdBGE45_11rustversion, symObjAddr: 0x5234, symBinAddr: 0xC544, symSize: 0xBC }
  - { offset: 0xF390, size: 0x8, addend: 0x0, symName: __RNvXs1b_NtCs85QQFkKrybG_4core3fmtRNtCs9bTl5rSDVcL_10proc_macro5IdentNtB6_7Display3fmtCshA2YSdBGE45_11rustversion, symObjAddr: 0x5FF0, symBinAddr: 0xD300, symSize: 0x30 }
  - { offset: 0xF3E6, size: 0x8, addend: 0x0, symName: __RNvXs_NvNtNtCs85QQFkKrybG_4core3fmt5Write9write_fmtQNtNtCsdFlNUEO95cG_5alloc6string6StringNtB4_12SpecWriteFmt14spec_write_fmtCshA2YSdBGE45_11rustversion, symObjAddr: 0x6BF0, symBinAddr: 0xDF00, symSize: 0x160 }
  - { offset: 0xF49D, size: 0x8, addend: 0x0, symName: __RNvYNtNtCsdFlNUEO95cG_5alloc6string6StringNtNtCs85QQFkKrybG_4core3fmt5Write9write_fmtCshA2YSdBGE45_11rustversion, symObjAddr: 0x713C, symBinAddr: 0xE44C, symSize: 0x24 }
  - { offset: 0xFAB9, size: 0x8, addend: 0x0, symName: __RNvXse_NtNtCs85QQFkKrybG_4core3ops5rangeNtB5_9RangeFullINtB5_11RangeBoundsjE11start_boundCshA2YSdBGE45_11rustversion, symObjAddr: 0x6DBC, symBinAddr: 0xE0CC, symSize: 0x18 }
  - { offset: 0xFAF0, size: 0x8, addend: 0x0, symName: __RNvXse_NtNtCs85QQFkKrybG_4core3ops5rangeNtB5_9RangeFullINtB5_11RangeBoundsjE9end_boundCshA2YSdBGE45_11rustversion, symObjAddr: 0x6DD4, symBinAddr: 0xE0E4, symSize: 0x18 }
  - { offset: 0xFC38, size: 0x8, addend: 0x0, symName: __RNvXse_NtCs85QQFkKrybG_4core5tupleTttENtNtB7_3cmp3Ord3cmpCshA2YSdBGE45_11rustversion, symObjAddr: 0x6D50, symBinAddr: 0xE060, symSize: 0x6C }
  - { offset: 0xFEB6, size: 0x8, addend: 0x0, symName: __RINvNtNtNtCs9bTl5rSDVcL_10proc_macro6bridge6client5state3setINtNtCs85QQFkKrybG_4core6option6OptionNtB4_11TokenStreamENCNCINvB4_10run_clientB1y_BW_NCNCINvMs6_B4_INtB4_6ClientNtB8_11TokenStreamB2L_E7expand1NvCshA2YSdBGE45_11rustversion3cfgE00E00EB3i_, symObjAddr: 0x8D0, symBinAddr: 0x7BE0, symSize: 0xE8 }
  - { offset: 0xFF8B, size: 0x8, addend: 0x0, symName: __RINvNtNtNtCs9bTl5rSDVcL_10proc_macro6bridge6client5state3setINtNtCs85QQFkKrybG_4core6option6OptionNtB4_11TokenStreamENCNCINvB4_10run_clientTB1y_B1y_EBW_NCNCINvMs7_B4_INtB4_6ClientTNtB8_11TokenStreamB2S_EB2S_E7expand2NvCshA2YSdBGE45_11rustversion3allE00E00EB3u_, symObjAddr: 0x9B8, symBinAddr: 0x7CC8, symSize: 0xEC }
  - { offset: 0x10061, size: 0x8, addend: 0x0, symName: __RINvNtNtNtCs9bTl5rSDVcL_10proc_macro6bridge6client5state3setINtNtCs85QQFkKrybG_4core6option6OptionNtB4_11TokenStreamENCNCINvB4_10run_clientTB1y_B1y_EBW_NCNCINvMs7_B4_INtB4_6ClientTNtB8_11TokenStreamB2S_EB2S_E7expand2NvCshA2YSdBGE45_11rustversion3anyE00E00EB3u_, symObjAddr: 0xAA4, symBinAddr: 0x7DB4, symSize: 0xEC }
  - { offset: 0x10137, size: 0x8, addend: 0x0, symName: __RINvNtNtNtCs9bTl5rSDVcL_10proc_macro6bridge6client5state3setINtNtCs85QQFkKrybG_4core6option6OptionNtB4_11TokenStreamENCNCINvB4_10run_clientTB1y_B1y_EBW_NCNCINvMs7_B4_INtB4_6ClientTNtB8_11TokenStreamB2S_EB2S_E7expand2NvCshA2YSdBGE45_11rustversion3notE00E00EB3u_, symObjAddr: 0xB90, symBinAddr: 0x7EA0, symSize: 0xEC }
  - { offset: 0x1020D, size: 0x8, addend: 0x0, symName: __RINvNtNtNtCs9bTl5rSDVcL_10proc_macro6bridge6client5state3setINtNtCs85QQFkKrybG_4core6option6OptionNtB4_11TokenStreamENCNCINvB4_10run_clientTB1y_B1y_EBW_NCNCINvMs7_B4_INtB4_6ClientTNtB8_11TokenStreamB2S_EB2S_E7expand2NvCshA2YSdBGE45_11rustversion4attrE00E00EB3u_, symObjAddr: 0xC7C, symBinAddr: 0x7F8C, symSize: 0xEC }
  - { offset: 0x102E3, size: 0x8, addend: 0x0, symName: __RINvNtNtNtCs9bTl5rSDVcL_10proc_macro6bridge6client5state3setINtNtCs85QQFkKrybG_4core6option6OptionNtB4_11TokenStreamENCNCINvB4_10run_clientTB1y_B1y_EBW_NCNCINvMs7_B4_INtB4_6ClientTNtB8_11TokenStreamB2S_EB2S_E7expand2NvCshA2YSdBGE45_11rustversion4betaE00E00EB3u_, symObjAddr: 0xD68, symBinAddr: 0x8078, symSize: 0xEC }
  - { offset: 0x103B9, size: 0x8, addend: 0x0, symName: __RINvNtNtNtCs9bTl5rSDVcL_10proc_macro6bridge6client5state3setINtNtCs85QQFkKrybG_4core6option6OptionNtB4_11TokenStreamENCNCINvB4_10run_clientTB1y_B1y_EBW_NCNCINvMs7_B4_INtB4_6ClientTNtB8_11TokenStreamB2S_EB2S_E7expand2NvCshA2YSdBGE45_11rustversion5sinceE00E00EB3u_, symObjAddr: 0xE54, symBinAddr: 0x8164, symSize: 0xEC }
  - { offset: 0x1048F, size: 0x8, addend: 0x0, symName: __RINvNtNtNtCs9bTl5rSDVcL_10proc_macro6bridge6client5state3setINtNtCs85QQFkKrybG_4core6option6OptionNtB4_11TokenStreamENCNCINvB4_10run_clientTB1y_B1y_EBW_NCNCINvMs7_B4_INtB4_6ClientTNtB8_11TokenStreamB2S_EB2S_E7expand2NvCshA2YSdBGE45_11rustversion6beforeE00E00EB3u_, symObjAddr: 0xF40, symBinAddr: 0x8250, symSize: 0xEC }
  - { offset: 0x10565, size: 0x8, addend: 0x0, symName: __RINvNtNtNtCs9bTl5rSDVcL_10proc_macro6bridge6client5state3setINtNtCs85QQFkKrybG_4core6option6OptionNtB4_11TokenStreamENCNCINvB4_10run_clientTB1y_B1y_EBW_NCNCINvMs7_B4_INtB4_6ClientTNtB8_11TokenStreamB2S_EB2S_E7expand2NvCshA2YSdBGE45_11rustversion6stableE00E00EB3u_, symObjAddr: 0x102C, symBinAddr: 0x833C, symSize: 0xEC }
  - { offset: 0x1063B, size: 0x8, addend: 0x0, symName: __RINvNtNtNtCs9bTl5rSDVcL_10proc_macro6bridge6client5state3setINtNtCs85QQFkKrybG_4core6option6OptionNtB4_11TokenStreamENCNCINvB4_10run_clientTB1y_B1y_EBW_NCNCINvMs7_B4_INtB4_6ClientTNtB8_11TokenStreamB2S_EB2S_E7expand2NvCshA2YSdBGE45_11rustversion7nightlyE00E00EB3u_, symObjAddr: 0x1118, symBinAddr: 0x8428, symSize: 0xEC }
  - { offset: 0x1071B, size: 0x8, addend: 0x0, symName: __RNCNkNvNtNtNtCs9bTl5rSDVcL_10proc_macro6bridge6client5state12BRIDGE_STATE0s_0CshA2YSdBGE45_11rustversion, symObjAddr: 0x2058, symBinAddr: 0x9368, symSize: 0x30 }
  - { offset: 0x10DCC, size: 0x8, addend: 0x0, symName: __RNvXs1J_NtCs9bTl5rSDVcL_10proc_macro6bridgeINtB6_11ExpnGlobalsNtNtB6_6client4SpanEINtNtB6_3rpc9DecodeMutuE6decodeCshA2YSdBGE45_11rustversion, symObjAddr: 0x5E14, symBinAddr: 0xD124, symSize: 0xB0 }
  - { offset: 0x10E23, size: 0x8, addend: 0x0, symName: __RNvXs9_NtNtCs9bTl5rSDVcL_10proc_macro6bridge3rpcTINtB7_11ExpnGlobalsNtNtB7_6client4SpanENtB16_11TokenStreamEINtB5_9DecodeMutuE6decodeCshA2YSdBGE45_11rustversion, symObjAddr: 0x6740, symBinAddr: 0xDA50, symSize: 0x84 }
  - { offset: 0x10E78, size: 0x8, addend: 0x0, symName: __RNvXs9_NtNtCs9bTl5rSDVcL_10proc_macro6bridge3rpcTINtB7_11ExpnGlobalsNtNtB7_6client4SpanETNtB16_11TokenStreamB1p_EEINtB5_9DecodeMutuE6decodeCshA2YSdBGE45_11rustversion, symObjAddr: 0x67C4, symBinAddr: 0xDAD4, symSize: 0x90 }
  - { offset: 0x10FAF, size: 0x8, addend: 0x0, symName: __RINvXsg_Cs9bTl5rSDVcL_10proc_macroNtB6_11TokenStreamINtNtNtNtCs85QQFkKrybG_4core4iter6traits7collect12FromIteratorNtB6_9TokenTreeE9from_iterINtNtCsdFlNUEO95cG_5alloc3vec3VecB1O_EECshA2YSdBGE45_11rustversion, symObjAddr: 0x1454, symBinAddr: 0x8764, symSize: 0xFC }
  - { offset: 0x11013, size: 0x8, addend: 0x0, symName: __RINvXsg_Cs9bTl5rSDVcL_10proc_macroNtB6_11TokenStreamINtNtNtNtCs85QQFkKrybG_4core4iter6traits7collect12FromIteratorNtB6_9TokenTreeE9from_iterINtNtNtBV_8adapters5chain5ChainINtNtNtCsdFlNUEO95cG_5alloc3vec9into_iter8IntoIterB1O_ENtNtB6_12token_stream8IntoIterEECshA2YSdBGE45_11rustversion, symObjAddr: 0x1550, symBinAddr: 0x8860, symSize: 0x10C }
  - { offset: 0x11078, size: 0x8, addend: 0x0, symName: __RINvXsg_Cs9bTl5rSDVcL_10proc_macroNtB6_11TokenStreamINtNtNtNtCs85QQFkKrybG_4core4iter6traits7collect12FromIteratorNtB6_9TokenTreeE9from_iterQNtNtCshA2YSdBGE45_11rustversion4iter8IterImplEB2j_, symObjAddr: 0x165C, symBinAddr: 0x896C, symSize: 0xEC }
  - { offset: 0x110E0, size: 0x8, addend: 0x0, symName: __RNCINvXsg_Cs9bTl5rSDVcL_10proc_macroNtB8_11TokenStreamINtNtNtNtCs85QQFkKrybG_4core4iter6traits7collect12FromIteratorNtB8_9TokenTreeE9from_iterINtNtCsdFlNUEO95cG_5alloc3vec3VecB1Q_EE0CshA2YSdBGE45_11rustversion, symObjAddr: 0x1F40, symBinAddr: 0x9250, symSize: 0x28 }
  - { offset: 0x11126, size: 0x8, addend: 0x0, symName: __RNCINvXsg_Cs9bTl5rSDVcL_10proc_macroNtB8_11TokenStreamINtNtNtNtCs85QQFkKrybG_4core4iter6traits7collect12FromIteratorNtB8_9TokenTreeE9from_iterINtNtNtBX_8adapters5chain5ChainINtNtNtCsdFlNUEO95cG_5alloc3vec9into_iter8IntoIterB1Q_ENtNtB8_12token_stream8IntoIterEE0CshA2YSdBGE45_11rustversion, symObjAddr: 0x1F68, symBinAddr: 0x9278, symSize: 0x28 }
  - { offset: 0x1116C, size: 0x8, addend: 0x0, symName: __RNCINvXsg_Cs9bTl5rSDVcL_10proc_macroNtB8_11TokenStreamINtNtNtNtCs85QQFkKrybG_4core4iter6traits7collect12FromIteratorNtB8_9TokenTreeE9from_iterQNtNtCshA2YSdBGE45_11rustversion4iter8IterImplE0B2l_, symObjAddr: 0x1F90, symBinAddr: 0x92A0, symSize: 0x28 }
  - { offset: 0x111CC, size: 0x8, addend: 0x0, symName: __RINvXsi_Cs9bTl5rSDVcL_10proc_macroNtB6_11TokenStreamINtNtNtNtCs85QQFkKrybG_4core4iter6traits7collect6ExtendNtB6_9TokenTreeE6extendINtNtCsdFlNUEO95cG_5alloc3vec3VecB1H_EECshA2YSdBGE45_11rustversion, symObjAddr: 0x1748, symBinAddr: 0x8A58, symSize: 0x108 }
  - { offset: 0x1123B, size: 0x8, addend: 0x0, symName: __RINvXsi_Cs9bTl5rSDVcL_10proc_macroNtB6_11TokenStreamINtNtNtNtCs85QQFkKrybG_4core4iter6traits7collect6ExtendNtB6_9TokenTreeE6extendINtNtNtBV_7sources4once4OnceB1H_EECshA2YSdBGE45_11rustversion, symObjAddr: 0x1850, symBinAddr: 0x8B60, symSize: 0x11C }
  - { offset: 0x112AA, size: 0x8, addend: 0x0, symName: __RINvXsi_Cs9bTl5rSDVcL_10proc_macroNtB6_11TokenStreamINtNtNtNtCs85QQFkKrybG_4core4iter6traits7collect6ExtendNtB6_9TokenTreeE6extendINtNtNtCsdFlNUEO95cG_5alloc3vec5drain5DrainB1H_EECshA2YSdBGE45_11rustversion, symObjAddr: 0x196C, symBinAddr: 0x8C7C, symSize: 0x110 }
  - { offset: 0x1131A, size: 0x8, addend: 0x0, symName: __RINvXsi_Cs9bTl5rSDVcL_10proc_macroNtB6_11TokenStreamINtNtNtNtCs85QQFkKrybG_4core4iter6traits7collect6ExtendNtB6_9TokenTreeE6extendQNtNtCshA2YSdBGE45_11rustversion4iter8IterImplEB29_, symObjAddr: 0x1A7C, symBinAddr: 0x8D8C, symSize: 0xF8 }
  - { offset: 0x1138D, size: 0x8, addend: 0x0, symName: __RNCINvXsi_Cs9bTl5rSDVcL_10proc_macroNtB8_11TokenStreamINtNtNtNtCs85QQFkKrybG_4core4iter6traits7collect6ExtendNtB8_9TokenTreeE6extendINtNtCsdFlNUEO95cG_5alloc3vec3VecB1J_EE0CshA2YSdBGE45_11rustversion, symObjAddr: 0x1FB8, symBinAddr: 0x92C8, symSize: 0x28 }
  - { offset: 0x113D3, size: 0x8, addend: 0x0, symName: __RNCINvXsi_Cs9bTl5rSDVcL_10proc_macroNtB8_11TokenStreamINtNtNtNtCs85QQFkKrybG_4core4iter6traits7collect6ExtendNtB8_9TokenTreeE6extendINtNtNtBX_7sources4once4OnceB1J_EE0CshA2YSdBGE45_11rustversion, symObjAddr: 0x1FE0, symBinAddr: 0x92F0, symSize: 0x28 }
  - { offset: 0x11419, size: 0x8, addend: 0x0, symName: __RNCINvXsi_Cs9bTl5rSDVcL_10proc_macroNtB8_11TokenStreamINtNtNtNtCs85QQFkKrybG_4core4iter6traits7collect6ExtendNtB8_9TokenTreeE6extendINtNtNtCsdFlNUEO95cG_5alloc3vec5drain5DrainB1J_EE0CshA2YSdBGE45_11rustversion, symObjAddr: 0x2008, symBinAddr: 0x9318, symSize: 0x28 }
  - { offset: 0x1145F, size: 0x8, addend: 0x0, symName: __RNCINvXsi_Cs9bTl5rSDVcL_10proc_macroNtB8_11TokenStreamINtNtNtNtCs85QQFkKrybG_4core4iter6traits7collect6ExtendNtB8_9TokenTreeE6extendQNtNtCshA2YSdBGE45_11rustversion4iter8IterImplE0B2b_, symObjAddr: 0x2030, symBinAddr: 0x9340, symSize: 0x28 }
  - { offset: 0x11511, size: 0x8, addend: 0x0, symName: __RNvXs15_Cs9bTl5rSDVcL_10proc_macroNtB6_9DelimiterNtNtCs85QQFkKrybG_4core3cmp9PartialEq2eqCshA2YSdBGE45_11rustversion, symObjAddr: 0x5D08, symBinAddr: 0xD018, symSize: 0x2C }
  - { offset: 0x11723, size: 0x8, addend: 0x0, symName: __RNCINvMNtCshA2YSdBGE45_11rustversion5errorNtB5_5Error5groupNtNtCsdFlNUEO95cG_5alloc6string6StringE0B7_, symObjAddr: 0x1D90, symBinAddr: 0x90A0, symSize: 0x6C }
  - { offset: 0x11763, size: 0x8, addend: 0x0, symName: __RNCINvMNtCshA2YSdBGE45_11rustversion5errorNtB5_5Error5groupNtNtCsdFlNUEO95cG_5alloc6string6StringEs_0B7_, symObjAddr: 0x1DFC, symBinAddr: 0x910C, symSize: 0x6C }
  - { offset: 0x117A3, size: 0x8, addend: 0x0, symName: __RNCINvMNtCshA2YSdBGE45_11rustversion5errorNtB5_5Error5groupReE0B7_, symObjAddr: 0x1E68, symBinAddr: 0x9178, symSize: 0x6C }
  - { offset: 0x117E3, size: 0x8, addend: 0x0, symName: __RNCINvMNtCshA2YSdBGE45_11rustversion5errorNtB5_5Error5groupReEs_0B7_, symObjAddr: 0x1ED4, symBinAddr: 0x91E4, symSize: 0x6C }
  - { offset: 0x11851, size: 0x8, addend: 0x0, symName: __RNCNvMNtCshA2YSdBGE45_11rustversion4exprNtB4_4Expr4eval0B6_, symObjAddr: 0x2088, symBinAddr: 0x9398, symSize: 0x34 }
  - { offset: 0x1188D, size: 0x8, addend: 0x0, symName: __RNCNvMNtCshA2YSdBGE45_11rustversion4exprNtB4_4Expr4evals0_0B6_, symObjAddr: 0x20BC, symBinAddr: 0x93CC, symSize: 0x5C }
  - { offset: 0x118CA, size: 0x8, addend: 0x0, symName: __RNCNvMNtCshA2YSdBGE45_11rustversion4exprNtB4_4Expr4evals_0B6_, symObjAddr: 0x2118, symBinAddr: 0x9428, symSize: 0x5C }
  - { offset: 0x11A70, size: 0x8, addend: 0x0, symName: __RNvNtCshA2YSdBGE45_11rustversion4expr11parse_since, symObjAddr: 0x3384, symBinAddr: 0xA694, symSize: 0x2E8 }
  - { offset: 0x11B52, size: 0x8, addend: 0x0, symName: __RNvNtCshA2YSdBGE45_11rustversion4expr12parse_before, symObjAddr: 0x366C, symBinAddr: 0xA97C, symSize: 0x2E8 }
  - { offset: 0x11C34, size: 0x8, addend: 0x0, symName: __RNvNtCshA2YSdBGE45_11rustversion4expr12parse_stable, symObjAddr: 0x3954, symBinAddr: 0xAC64, symSize: 0x2B4 }
  - { offset: 0x11CEA, size: 0x8, addend: 0x0, symName: __RNvNtCshA2YSdBGE45_11rustversion4expr13parse_nightly, symObjAddr: 0x3C08, symBinAddr: 0xAF18, symSize: 0x2A8 }
  - { offset: 0x11DA0, size: 0x8, addend: 0x0, symName: __RNvNtCshA2YSdBGE45_11rustversion4expr21parse_comma_separated, symObjAddr: 0x3EB0, symBinAddr: 0xB1C0, symSize: 0x30C }
  - { offset: 0x11E42, size: 0x8, addend: 0x0, symName: __RNvNtCshA2YSdBGE45_11rustversion4expr5parse, symObjAddr: 0x41BC, symBinAddr: 0xB4CC, symSize: 0x6CC }
  - { offset: 0x1200D, size: 0x8, addend: 0x0, symName: __RNvNtCshA2YSdBGE45_11rustversion4expr9parse_all, symObjAddr: 0x4888, symBinAddr: 0xBB98, symSize: 0x2BC }
  - { offset: 0x120FF, size: 0x8, addend: 0x0, symName: __RNvNtCshA2YSdBGE45_11rustversion4expr9parse_any, symObjAddr: 0x4B44, symBinAddr: 0xBE54, symSize: 0x2BC }
  - { offset: 0x121F1, size: 0x8, addend: 0x0, symName: __RNvNtCshA2YSdBGE45_11rustversion4expr9parse_not, symObjAddr: 0x4E00, symBinAddr: 0xC110, symSize: 0x388 }
  - { offset: 0x12495, size: 0x8, addend: 0x0, symName: __RNvNtCshA2YSdBGE45_11rustversion4attr5parse, symObjAddr: 0x2FD0, symBinAddr: 0xA2E0, symSize: 0x3B4 }
  - { offset: 0x1263B, size: 0x8, addend: 0x0, symName: __RINvMNtCshA2YSdBGE45_11rustversion5errorNtB3_5Error3newNtNtCsdFlNUEO95cG_5alloc6string6StringEB5_, symObjAddr: 0x164, symBinAddr: 0x7474, symSize: 0x40 }
  - { offset: 0x1269C, size: 0x8, addend: 0x0, symName: __RINvMNtCshA2YSdBGE45_11rustversion5errorNtB3_5Error3newReEB5_, symObjAddr: 0x1A4, symBinAddr: 0x74B4, symSize: 0x58 }
  - { offset: 0x126D5, size: 0x8, addend: 0x0, symName: __RINvMNtCshA2YSdBGE45_11rustversion5errorNtB3_5Error4new2NtNtCsdFlNUEO95cG_5alloc6string6StringEB5_, symObjAddr: 0x1FC, symBinAddr: 0x750C, symSize: 0xA8 }
  - { offset: 0x1271D, size: 0x8, addend: 0x0, symName: __RINvMNtCshA2YSdBGE45_11rustversion5errorNtB3_5Error4new2ReEB5_, symObjAddr: 0x2A4, symBinAddr: 0x75B4, symSize: 0x94 }
  - { offset: 0x12764, size: 0x8, addend: 0x0, symName: __RINvMNtCshA2YSdBGE45_11rustversion5errorNtB3_5Error5groupNtNtCsdFlNUEO95cG_5alloc6string6StringEB5_, symObjAddr: 0x338, symBinAddr: 0x7648, symSize: 0x18C }
  - { offset: 0x1280B, size: 0x8, addend: 0x0, symName: __RINvMNtCshA2YSdBGE45_11rustversion5errorNtB3_5Error5groupReEB5_, symObjAddr: 0x4C4, symBinAddr: 0x77D4, symSize: 0x180 }
  - { offset: 0x12F33, size: 0x8, addend: 0x0, symName: __RNvMNtCsdFlNUEO95cG_5alloc6stringNtB2_6String4pushCshA2YSdBGE45_11rustversion, symObjAddr: 0x21BC, symBinAddr: 0x94CC, symSize: 0x13C }
  - { offset: 0x13213, size: 0x8, addend: 0x0, symName: __RNvMNtCsdFlNUEO95cG_5alloc6stringNtB2_6String6as_strCshA2YSdBGE45_11rustversion, symObjAddr: 0x22F8, symBinAddr: 0x9608, symSize: 0x78 }
  - { offset: 0x133D4, size: 0x8, addend: 0x0, symName: __RNvMNtCsdFlNUEO95cG_5alloc6stringNtB2_6String8push_strCshA2YSdBGE45_11rustversion, symObjAddr: 0x2370, symBinAddr: 0x9680, symSize: 0x50 }
  - { offset: 0x1353A, size: 0x8, addend: 0x0, symName: __RNvMNtCshA2YSdBGE45_11rustversion4exprNtB2_4Expr4eval, symObjAddr: 0x23C0, symBinAddr: 0x96D0, symSize: 0x3F4 }
  - { offset: 0x13635, size: 0x8, addend: 0x0, symName: __RNvMNtCshA2YSdBGE45_11rustversion5errorNtB2_5Error18into_compile_error, symObjAddr: 0x27B4, symBinAddr: 0x9AC4, symSize: 0x3BC }
  - { offset: 0x136FB, size: 0x8, addend: 0x0, symName: __RNvMs0_NtCsdFlNUEO95cG_5alloc7raw_vecINtB5_6RawVecNtCs9bTl5rSDVcL_10proc_macro9TokenTreeE8grow_oneCshA2YSdBGE45_11rustversion, symObjAddr: 0x2B70, symBinAddr: 0x9E80, symSize: 0x90 }
  - { offset: 0x137BA, size: 0x8, addend: 0x0, symName: __RNvMs0_NtCsdFlNUEO95cG_5alloc7raw_vecINtB5_6RawVecNtNtCs9bTl5rSDVcL_10proc_macro12token_stream8IntoIterE8grow_oneCshA2YSdBGE45_11rustversion, symObjAddr: 0x2C00, symBinAddr: 0x9F10, symSize: 0x90 }
  - { offset: 0x1386C, size: 0x8, addend: 0x0, symName: __RNvMs0_NtCsdFlNUEO95cG_5alloc7raw_vecINtB5_6RawVecNtNtCshA2YSdBGE45_11rustversion4expr4ExprE8grow_oneBQ_, symObjAddr: 0x2C90, symBinAddr: 0x9FA0, symSize: 0x90 }
  - { offset: 0x13973, size: 0x8, addend: 0x0, symName: __RNvMs2_NtCsdFlNUEO95cG_5alloc7raw_vecNtB5_11RawVecInner16with_capacity_inCshA2YSdBGE45_11rustversion, symObjAddr: 0x2D20, symBinAddr: 0xA030, symSize: 0x110 }
  - { offset: 0x13AC5, size: 0x8, addend: 0x0, symName: __RNvMs8_Cs9bTl5rSDVcL_10proc_macroNtB5_11TokenStream3newCshA2YSdBGE45_11rustversion, symObjAddr: 0x2E30, symBinAddr: 0xA140, symSize: 0x8 }
  - { offset: 0x13AE5, size: 0x8, addend: 0x0, symName: __RNvMsE_Cs9bTl5rSDVcL_10proc_macroNtB5_5Punct7as_charCshA2YSdBGE45_11rustversion, symObjAddr: 0x2E38, symBinAddr: 0xA148, symSize: 0x18 }
  - { offset: 0x13B15, size: 0x8, addend: 0x0, symName: __RNvMsE_Cs9bTl5rSDVcL_10proc_macroNtB5_5Punct8set_spanCshA2YSdBGE45_11rustversion, symObjAddr: 0x2E50, symBinAddr: 0xA160, symSize: 0x1C }
  - { offset: 0x13B54, size: 0x8, addend: 0x0, symName: __RNvMsJ_Cs9bTl5rSDVcL_10proc_macroNtB5_5Ident4spanCshA2YSdBGE45_11rustversion, symObjAddr: 0x2E6C, symBinAddr: 0xA17C, symSize: 0x18 }
  - { offset: 0x13B84, size: 0x8, addend: 0x0, symName: __RNvMsM_Cs9bTl5rSDVcL_10proc_macroNtB5_7Literal8set_spanCshA2YSdBGE45_11rustversion, symObjAddr: 0x2E84, symBinAddr: 0xA194, symSize: 0x1C }
  - { offset: 0x13C29, size: 0x8, addend: 0x0, symName: __RNvMsq_Cs9bTl5rSDVcL_10proc_macroNtB5_9TokenTree4spanCshA2YSdBGE45_11rustversion, symObjAddr: 0x2EA0, symBinAddr: 0xA1B0, symSize: 0xCC }
  - { offset: 0x13D3C, size: 0x8, addend: 0x0, symName: __RNvMsz_Cs9bTl5rSDVcL_10proc_macroNtB5_5Group4spanCshA2YSdBGE45_11rustversion, symObjAddr: 0x2F6C, symBinAddr: 0xA27C, symSize: 0x18 }
  - { offset: 0x13D7C, size: 0x8, addend: 0x0, symName: __RNvMsz_Cs9bTl5rSDVcL_10proc_macroNtB5_5Group8set_spanCshA2YSdBGE45_11rustversion, symObjAddr: 0x2F84, symBinAddr: 0xA294, symSize: 0x34 }
  - { offset: 0x13DC3, size: 0x8, addend: 0x0, symName: __RNvMsz_Cs9bTl5rSDVcL_10proc_macroNtB5_5Group9delimiterCshA2YSdBGE45_11rustversion, symObjAddr: 0x2FB8, symBinAddr: 0xA2C8, symSize: 0x18 }
  - { offset: 0x149D5, size: 0x8, addend: 0x0, symName: __RINvMNtCs85QQFkKrybG_4core6optionINtB3_6OptionNtCs9bTl5rSDVcL_10proc_macro9TokenTreeE3mapuINvNtB5_3mem4dropBI_EECshA2YSdBGE45_11rustversion, symObjAddr: 0x0, symBinAddr: 0xE470, symSize: 0x78 }
  - { offset: 0x14AB1, size: 0x8, addend: 0x0, symName: __RNCNvXs1_NtNtNtCswz7ZwgBZOU_3std2io5error14repr_bitpackedNtB7_4ReprNtNtNtCs85QQFkKrybG_4core3ops4drop4Drop4drop0CshA2YSdBGE45_11rustversion, symObjAddr: 0x31E4, symBinAddr: 0x115F4, symSize: 0x3C }
  - { offset: 0x14B66, size: 0x8, addend: 0x0, symName: __RNvXs1_NtNtNtCswz7ZwgBZOU_3std2io5error14repr_bitpackedNtB5_4ReprNtNtNtCs85QQFkKrybG_4core3ops4drop4Drop4dropCshA2YSdBGE45_11rustversion, symObjAddr: 0x4F64, symBinAddr: 0x13370, symSize: 0x38 }
  - { offset: 0x14B8F, size: 0x8, addend: 0x0, symName: __RINvNtNtNtCswz7ZwgBZOU_3std2io5error14repr_bitpacked11decode_reprINtNtCsdFlNUEO95cG_5alloc5boxed3BoxNtB4_6CustomENCNvXs1_B2_NtB2_4ReprNtNtNtCs85QQFkKrybG_4core3ops4drop4Drop4drop0ECshA2YSdBGE45_11rustversion, symObjAddr: 0x1BD0, symBinAddr: 0xFFE0, symSize: 0x1DC }
  - { offset: 0x14DEB, size: 0x8, addend: 0x0, symName: __RNvNtNtNtCswz7ZwgBZOU_3std2io5error14repr_bitpacked14kind_from_primCshA2YSdBGE45_11rustversion, symObjAddr: 0x479C, symBinAddr: 0x12BA8, symSize: 0x608 }
  - { offset: 0x1588D, size: 0x8, addend: 0x0, symName: __RNCNvMs3_NtNtCswz7ZwgBZOU_3std6thread5localINtB7_8LocalKeyINtNtCs85QQFkKrybG_4core4cell4CellPuEE7replace0CshA2YSdBGE45_11rustversion, symObjAddr: 0x3120, symBinAddr: 0x11530, symSize: 0x28 }
  - { offset: 0x15918, size: 0x8, addend: 0x0, symName: __RINvNtCswz7ZwgBZOU_3std3env6var_osReECshA2YSdBGE45_11rustversion, symObjAddr: 0x1944, symBinAddr: 0xFD54, symSize: 0x68 }
  - { offset: 0x1595A, size: 0x8, addend: 0x0, symName: __RINvNvNtCswz7ZwgBZOU_3std9panicking12catch_unwind7do_callINtNtNtCs85QQFkKrybG_4core5panic11unwind_safe16AssertUnwindSafeNCINvNtNtCs9bTl5rSDVcL_10proc_macro6bridge6client10run_clientNtB1Z_11TokenStreamINtNtB10_6option6OptionB2T_ENCNCINvMs6_B1Z_INtB1Z_6ClientNtB23_11TokenStreamB47_E7expand1NvCshA2YSdBGE45_11rustversion3cfgE00E0EuEB4F_, symObjAddr: 0x1DAC, symBinAddr: 0x101BC, symSize: 0x50 }
  - { offset: 0x15A22, size: 0x8, addend: 0x0, symName: __RINvNvNtCswz7ZwgBZOU_3std9panicking12catch_unwind7do_callINtNtNtCs85QQFkKrybG_4core5panic11unwind_safe16AssertUnwindSafeNCINvNtNtCs9bTl5rSDVcL_10proc_macro6bridge6client10run_clientTNtB1Z_11TokenStreamB2U_EINtNtB10_6option6OptionB2U_ENCNCINvMs7_B1Z_INtB1Z_6ClientTNtB23_11TokenStreamB4e_EB4e_E7expand2NvCshA2YSdBGE45_11rustversion3allE00E0EuEB4R_, symObjAddr: 0x1DFC, symBinAddr: 0x1020C, symSize: 0x50 }
  - { offset: 0x15AEA, size: 0x8, addend: 0x0, symName: __RINvNvNtCswz7ZwgBZOU_3std9panicking12catch_unwind7do_callINtNtNtCs85QQFkKrybG_4core5panic11unwind_safe16AssertUnwindSafeNCINvNtNtCs9bTl5rSDVcL_10proc_macro6bridge6client10run_clientTNtB1Z_11TokenStreamB2U_EINtNtB10_6option6OptionB2U_ENCNCINvMs7_B1Z_INtB1Z_6ClientTNtB23_11TokenStreamB4e_EB4e_E7expand2NvCshA2YSdBGE45_11rustversion3anyE00E0EuEB4R_, symObjAddr: 0x1E4C, symBinAddr: 0x1025C, symSize: 0x50 }
  - { offset: 0x15BB2, size: 0x8, addend: 0x0, symName: __RINvNvNtCswz7ZwgBZOU_3std9panicking12catch_unwind7do_callINtNtNtCs85QQFkKrybG_4core5panic11unwind_safe16AssertUnwindSafeNCINvNtNtCs9bTl5rSDVcL_10proc_macro6bridge6client10run_clientTNtB1Z_11TokenStreamB2U_EINtNtB10_6option6OptionB2U_ENCNCINvMs7_B1Z_INtB1Z_6ClientTNtB23_11TokenStreamB4e_EB4e_E7expand2NvCshA2YSdBGE45_11rustversion3notE00E0EuEB4R_, symObjAddr: 0x1E9C, symBinAddr: 0x102AC, symSize: 0x50 }
  - { offset: 0x15C7A, size: 0x8, addend: 0x0, symName: __RINvNvNtCswz7ZwgBZOU_3std9panicking12catch_unwind7do_callINtNtNtCs85QQFkKrybG_4core5panic11unwind_safe16AssertUnwindSafeNCINvNtNtCs9bTl5rSDVcL_10proc_macro6bridge6client10run_clientTNtB1Z_11TokenStreamB2U_EINtNtB10_6option6OptionB2U_ENCNCINvMs7_B1Z_INtB1Z_6ClientTNtB23_11TokenStreamB4e_EB4e_E7expand2NvCshA2YSdBGE45_11rustversion4attrE00E0EuEB4R_, symObjAddr: 0x1EEC, symBinAddr: 0x102FC, symSize: 0x50 }
  - { offset: 0x15D42, size: 0x8, addend: 0x0, symName: __RINvNvNtCswz7ZwgBZOU_3std9panicking12catch_unwind7do_callINtNtNtCs85QQFkKrybG_4core5panic11unwind_safe16AssertUnwindSafeNCINvNtNtCs9bTl5rSDVcL_10proc_macro6bridge6client10run_clientTNtB1Z_11TokenStreamB2U_EINtNtB10_6option6OptionB2U_ENCNCINvMs7_B1Z_INtB1Z_6ClientTNtB23_11TokenStreamB4e_EB4e_E7expand2NvCshA2YSdBGE45_11rustversion4betaE00E0EuEB4R_, symObjAddr: 0x1F3C, symBinAddr: 0x1034C, symSize: 0x50 }
  - { offset: 0x15E0A, size: 0x8, addend: 0x0, symName: __RINvNvNtCswz7ZwgBZOU_3std9panicking12catch_unwind7do_callINtNtNtCs85QQFkKrybG_4core5panic11unwind_safe16AssertUnwindSafeNCINvNtNtCs9bTl5rSDVcL_10proc_macro6bridge6client10run_clientTNtB1Z_11TokenStreamB2U_EINtNtB10_6option6OptionB2U_ENCNCINvMs7_B1Z_INtB1Z_6ClientTNtB23_11TokenStreamB4e_EB4e_E7expand2NvCshA2YSdBGE45_11rustversion5sinceE00E0EuEB4R_, symObjAddr: 0x1F8C, symBinAddr: 0x1039C, symSize: 0x50 }
  - { offset: 0x15ED2, size: 0x8, addend: 0x0, symName: __RINvNvNtCswz7ZwgBZOU_3std9panicking12catch_unwind7do_callINtNtNtCs85QQFkKrybG_4core5panic11unwind_safe16AssertUnwindSafeNCINvNtNtCs9bTl5rSDVcL_10proc_macro6bridge6client10run_clientTNtB1Z_11TokenStreamB2U_EINtNtB10_6option6OptionB2U_ENCNCINvMs7_B1Z_INtB1Z_6ClientTNtB23_11TokenStreamB4e_EB4e_E7expand2NvCshA2YSdBGE45_11rustversion6beforeE00E0EuEB4R_, symObjAddr: 0x1FDC, symBinAddr: 0x103EC, symSize: 0x50 }
  - { offset: 0x15F9A, size: 0x8, addend: 0x0, symName: __RINvNvNtCswz7ZwgBZOU_3std9panicking12catch_unwind7do_callINtNtNtCs85QQFkKrybG_4core5panic11unwind_safe16AssertUnwindSafeNCINvNtNtCs9bTl5rSDVcL_10proc_macro6bridge6client10run_clientTNtB1Z_11TokenStreamB2U_EINtNtB10_6option6OptionB2U_ENCNCINvMs7_B1Z_INtB1Z_6ClientTNtB23_11TokenStreamB4e_EB4e_E7expand2NvCshA2YSdBGE45_11rustversion6stableE00E0EuEB4R_, symObjAddr: 0x202C, symBinAddr: 0x1043C, symSize: 0x50 }
  - { offset: 0x16062, size: 0x8, addend: 0x0, symName: __RINvNvNtCswz7ZwgBZOU_3std9panicking12catch_unwind7do_callINtNtNtCs85QQFkKrybG_4core5panic11unwind_safe16AssertUnwindSafeNCINvNtNtCs9bTl5rSDVcL_10proc_macro6bridge6client10run_clientTNtB1Z_11TokenStreamB2U_EINtNtB10_6option6OptionB2U_ENCNCINvMs7_B1Z_INtB1Z_6ClientTNtB23_11TokenStreamB4e_EB4e_E7expand2NvCshA2YSdBGE45_11rustversion7nightlyE00E0EuEB4R_, symObjAddr: 0x207C, symBinAddr: 0x1048C, symSize: 0x50 }
  - { offset: 0x1612A, size: 0x8, addend: 0x0, symName: __RINvNvNtCswz7ZwgBZOU_3std9panicking12catch_unwind8do_catchINtNtNtCs85QQFkKrybG_4core5panic11unwind_safe16AssertUnwindSafeNCINvNtNtCs9bTl5rSDVcL_10proc_macro6bridge6client10run_clientNtB20_11TokenStreamINtNtB11_6option6OptionB2U_ENCNCINvMs6_B20_INtB20_6ClientNtB24_11TokenStreamB48_E7expand1NvCshA2YSdBGE45_11rustversion3cfgE00E0EuEB4G_, symObjAddr: 0x20CC, symBinAddr: 0x104DC, symSize: 0x70 }
  - { offset: 0x161BF, size: 0x8, addend: 0x0, symName: __RINvNvNtCswz7ZwgBZOU_3std9panicking12catch_unwind8do_catchINtNtNtCs85QQFkKrybG_4core5panic11unwind_safe16AssertUnwindSafeNCINvNtNtCs9bTl5rSDVcL_10proc_macro6bridge6client10run_clientTNtB20_11TokenStreamB2V_EINtNtB11_6option6OptionB2V_ENCNCINvMs7_B20_INtB20_6ClientTNtB24_11TokenStreamB4f_EB4f_E7expand2NvCshA2YSdBGE45_11rustversion3allE00E0EuEB4S_, symObjAddr: 0x213C, symBinAddr: 0x1054C, symSize: 0x70 }
  - { offset: 0x16254, size: 0x8, addend: 0x0, symName: __RINvNvNtCswz7ZwgBZOU_3std9panicking12catch_unwind8do_catchINtNtNtCs85QQFkKrybG_4core5panic11unwind_safe16AssertUnwindSafeNCINvNtNtCs9bTl5rSDVcL_10proc_macro6bridge6client10run_clientTNtB20_11TokenStreamB2V_EINtNtB11_6option6OptionB2V_ENCNCINvMs7_B20_INtB20_6ClientTNtB24_11TokenStreamB4f_EB4f_E7expand2NvCshA2YSdBGE45_11rustversion3anyE00E0EuEB4S_, symObjAddr: 0x21AC, symBinAddr: 0x105BC, symSize: 0x70 }
  - { offset: 0x162E9, size: 0x8, addend: 0x0, symName: __RINvNvNtCswz7ZwgBZOU_3std9panicking12catch_unwind8do_catchINtNtNtCs85QQFkKrybG_4core5panic11unwind_safe16AssertUnwindSafeNCINvNtNtCs9bTl5rSDVcL_10proc_macro6bridge6client10run_clientTNtB20_11TokenStreamB2V_EINtNtB11_6option6OptionB2V_ENCNCINvMs7_B20_INtB20_6ClientTNtB24_11TokenStreamB4f_EB4f_E7expand2NvCshA2YSdBGE45_11rustversion3notE00E0EuEB4S_, symObjAddr: 0x221C, symBinAddr: 0x1062C, symSize: 0x70 }
  - { offset: 0x1637E, size: 0x8, addend: 0x0, symName: __RINvNvNtCswz7ZwgBZOU_3std9panicking12catch_unwind8do_catchINtNtNtCs85QQFkKrybG_4core5panic11unwind_safe16AssertUnwindSafeNCINvNtNtCs9bTl5rSDVcL_10proc_macro6bridge6client10run_clientTNtB20_11TokenStreamB2V_EINtNtB11_6option6OptionB2V_ENCNCINvMs7_B20_INtB20_6ClientTNtB24_11TokenStreamB4f_EB4f_E7expand2NvCshA2YSdBGE45_11rustversion4attrE00E0EuEB4S_, symObjAddr: 0x228C, symBinAddr: 0x1069C, symSize: 0x70 }
  - { offset: 0x16413, size: 0x8, addend: 0x0, symName: __RINvNvNtCswz7ZwgBZOU_3std9panicking12catch_unwind8do_catchINtNtNtCs85QQFkKrybG_4core5panic11unwind_safe16AssertUnwindSafeNCINvNtNtCs9bTl5rSDVcL_10proc_macro6bridge6client10run_clientTNtB20_11TokenStreamB2V_EINtNtB11_6option6OptionB2V_ENCNCINvMs7_B20_INtB20_6ClientTNtB24_11TokenStreamB4f_EB4f_E7expand2NvCshA2YSdBGE45_11rustversion4betaE00E0EuEB4S_, symObjAddr: 0x22FC, symBinAddr: 0x1070C, symSize: 0x70 }
  - { offset: 0x164A8, size: 0x8, addend: 0x0, symName: __RINvNvNtCswz7ZwgBZOU_3std9panicking12catch_unwind8do_catchINtNtNtCs85QQFkKrybG_4core5panic11unwind_safe16AssertUnwindSafeNCINvNtNtCs9bTl5rSDVcL_10proc_macro6bridge6client10run_clientTNtB20_11TokenStreamB2V_EINtNtB11_6option6OptionB2V_ENCNCINvMs7_B20_INtB20_6ClientTNtB24_11TokenStreamB4f_EB4f_E7expand2NvCshA2YSdBGE45_11rustversion5sinceE00E0EuEB4S_, symObjAddr: 0x236C, symBinAddr: 0x1077C, symSize: 0x70 }
  - { offset: 0x1653D, size: 0x8, addend: 0x0, symName: __RINvNvNtCswz7ZwgBZOU_3std9panicking12catch_unwind8do_catchINtNtNtCs85QQFkKrybG_4core5panic11unwind_safe16AssertUnwindSafeNCINvNtNtCs9bTl5rSDVcL_10proc_macro6bridge6client10run_clientTNtB20_11TokenStreamB2V_EINtNtB11_6option6OptionB2V_ENCNCINvMs7_B20_INtB20_6ClientTNtB24_11TokenStreamB4f_EB4f_E7expand2NvCshA2YSdBGE45_11rustversion6beforeE00E0EuEB4S_, symObjAddr: 0x23DC, symBinAddr: 0x107EC, symSize: 0x70 }
  - { offset: 0x165D2, size: 0x8, addend: 0x0, symName: __RINvNvNtCswz7ZwgBZOU_3std9panicking12catch_unwind8do_catchINtNtNtCs85QQFkKrybG_4core5panic11unwind_safe16AssertUnwindSafeNCINvNtNtCs9bTl5rSDVcL_10proc_macro6bridge6client10run_clientTNtB20_11TokenStreamB2V_EINtNtB11_6option6OptionB2V_ENCNCINvMs7_B20_INtB20_6ClientTNtB24_11TokenStreamB4f_EB4f_E7expand2NvCshA2YSdBGE45_11rustversion6stableE00E0EuEB4S_, symObjAddr: 0x244C, symBinAddr: 0x1085C, symSize: 0x70 }
  - { offset: 0x16667, size: 0x8, addend: 0x0, symName: __RINvNvNtCswz7ZwgBZOU_3std9panicking12catch_unwind8do_catchINtNtNtCs85QQFkKrybG_4core5panic11unwind_safe16AssertUnwindSafeNCINvNtNtCs9bTl5rSDVcL_10proc_macro6bridge6client10run_clientTNtB20_11TokenStreamB2V_EINtNtB11_6option6OptionB2V_ENCNCINvMs7_B20_INtB20_6ClientTNtB24_11TokenStreamB4f_EB4f_E7expand2NvCshA2YSdBGE45_11rustversion7nightlyE00E0EuEB4S_, symObjAddr: 0x24BC, symBinAddr: 0x108CC, symSize: 0x70 }
  - { offset: 0x16D92, size: 0x8, addend: 0x0, symName: __RNvNvMs1_NtNtCs85QQFkKrybG_4core3ptr8non_nullINtB7_7NonNullpE13new_unchecked18precondition_checkCshA2YSdBGE45_11rustversion, symObjAddr: 0x4DA4, symBinAddr: 0x131B0, symSize: 0xA4 }
  - { offset: 0x178D9, size: 0x8, addend: 0x0, symName: __RINvNtCs85QQFkKrybG_4core3ptr13drop_in_placeINtNtB4_4cell10UnsafeCellNtNtNtCs9bTl5rSDVcL_10proc_macro6bridge6client6BridgeEECshA2YSdBGE45_11rustversion, symObjAddr: 0x8A4, symBinAddr: 0xECB4, symSize: 0x24 }
  - { offset: 0x17908, size: 0x8, addend: 0x0, symName: __RINvNtCs85QQFkKrybG_4core3ptr13drop_in_placeINtNtB4_4cell7RefCellNtNtNtCs9bTl5rSDVcL_10proc_macro6bridge6client6BridgeEECshA2YSdBGE45_11rustversion, symObjAddr: 0x8C8, symBinAddr: 0xECD8, symSize: 0x24 }
  - { offset: 0x17937, size: 0x8, addend: 0x0, symName: __RINvNtCs85QQFkKrybG_4core3ptr13drop_in_placeINtNtB4_6option4ItemNtCs9bTl5rSDVcL_10proc_macro9TokenTreeEECshA2YSdBGE45_11rustversion, symObjAddr: 0x8EC, symBinAddr: 0xECFC, symSize: 0x24 }
  - { offset: 0x17966, size: 0x8, addend: 0x0, symName: __RINvNtCs85QQFkKrybG_4core3ptr13drop_in_placeINtNtB4_6option6OptionINtNtNtCsdFlNUEO95cG_5alloc3vec9into_iter8IntoIterNtCs9bTl5rSDVcL_10proc_macro9TokenTreeEEECshA2YSdBGE45_11rustversion, symObjAddr: 0x910, symBinAddr: 0xED20, symSize: 0x44 }
  - { offset: 0x17995, size: 0x8, addend: 0x0, symName: __RINvNtCs85QQFkKrybG_4core3ptr13drop_in_placeINtNtB4_6option6OptionNtCs9bTl5rSDVcL_10proc_macro9TokenTreeEECshA2YSdBGE45_11rustversion, symObjAddr: 0x954, symBinAddr: 0xED64, symSize: 0x44 }
  - { offset: 0x179C4, size: 0x8, addend: 0x0, symName: __RINvNtCs85QQFkKrybG_4core3ptr13drop_in_placeINtNtB4_6option6OptionNtNtCs9bTl5rSDVcL_10proc_macro12token_stream8IntoIterEECshA2YSdBGE45_11rustversion, symObjAddr: 0x998, symBinAddr: 0xEDA8, symSize: 0x44 }
  - { offset: 0x179F3, size: 0x8, addend: 0x0, symName: __RINvNtCs85QQFkKrybG_4core3ptr13drop_in_placeINtNtB4_6option6OptionNtNtNtCs9bTl5rSDVcL_10proc_macro6bridge6client11TokenStreamEECshA2YSdBGE45_11rustversion, symObjAddr: 0x9DC, symBinAddr: 0xEDEC, symSize: 0x44 }
  - { offset: 0x17A22, size: 0x8, addend: 0x0, symName: __RINvNtCs85QQFkKrybG_4core3ptr13drop_in_placeINtNtB4_6option8IntoIterNtCs9bTl5rSDVcL_10proc_macro9TokenTreeEECshA2YSdBGE45_11rustversion, symObjAddr: 0xA20, symBinAddr: 0xEE30, symSize: 0x24 }
  - { offset: 0x17A51, size: 0x8, addend: 0x0, symName: __RINvNtCs85QQFkKrybG_4core3ptr13drop_in_placeINtNtCs9bTl5rSDVcL_10proc_macro6bridge5GroupNtNtBJ_6client11TokenStreamNtB1q_4SpanEECshA2YSdBGE45_11rustversion, symObjAddr: 0xA44, symBinAddr: 0xEE54, symSize: 0x24 }
  - { offset: 0x17A80, size: 0x8, addend: 0x0, symName: __RINvNtCs85QQFkKrybG_4core3ptr13drop_in_placeINtNtCs9bTl5rSDVcL_10proc_macro6bridge9TokenTreeNtNtBJ_6client11TokenStreamNtB1u_4SpanNtNtBJ_6symbol6SymbolEECshA2YSdBGE45_11rustversion, symObjAddr: 0xA68, symBinAddr: 0xEE78, symSize: 0x58 }
  - { offset: 0x17AAF, size: 0x8, addend: 0x0, symName: __RINvNtCs85QQFkKrybG_4core3ptr13drop_in_placeINtNtCsdFlNUEO95cG_5alloc3vec3VecINtNtCs9bTl5rSDVcL_10proc_macro6bridge9TokenTreeNtNtB1g_6client11TokenStreamNtB21_4SpanNtNtB1g_6symbol6SymbolEEECshA2YSdBGE45_11rustversion, symObjAddr: 0xAC0, symBinAddr: 0xEED0, symSize: 0x5C }
  - { offset: 0x17ADE, size: 0x8, addend: 0x0, symName: __RINvNtCs85QQFkKrybG_4core3ptr13drop_in_placeINtNtCsdFlNUEO95cG_5alloc3vec3VecNtCs9bTl5rSDVcL_10proc_macro9TokenTreeEECshA2YSdBGE45_11rustversion, symObjAddr: 0xB1C, symBinAddr: 0xEF2C, symSize: 0x5C }
  - { offset: 0x17B0D, size: 0x8, addend: 0x0, symName: __RINvNtCs85QQFkKrybG_4core3ptr13drop_in_placeINtNtCsdFlNUEO95cG_5alloc3vec3VecNtNtCs9bTl5rSDVcL_10proc_macro12token_stream8IntoIterEECshA2YSdBGE45_11rustversion, symObjAddr: 0xB78, symBinAddr: 0xEF88, symSize: 0x5C }
  - { offset: 0x17B3C, size: 0x8, addend: 0x0, symName: __RINvNtCs85QQFkKrybG_4core3ptr13drop_in_placeINtNtCsdFlNUEO95cG_5alloc3vec3VecNtNtCshA2YSdBGE45_11rustversion4expr4ExprEEB1h_, symObjAddr: 0xBD4, symBinAddr: 0xEFE4, symSize: 0x5C }
  - { offset: 0x17B6B, size: 0x8, addend: 0x0, symName: __RINvNtCs85QQFkKrybG_4core3ptr13drop_in_placeINtNtCsdFlNUEO95cG_5alloc3vec3VechEECshA2YSdBGE45_11rustversion, symObjAddr: 0xC30, symBinAddr: 0xF040, symSize: 0x5C }
  - { offset: 0x17B9A, size: 0x8, addend: 0x0, symName: __RINvNtCs85QQFkKrybG_4core3ptr13drop_in_placeINtNtCsdFlNUEO95cG_5alloc5boxed3BoxDNtNtB4_5error5ErrorNtNtB4_6marker4SyncNtB1B_4SendEL_EECshA2YSdBGE45_11rustversion, symObjAddr: 0xC8C, symBinAddr: 0xF09C, symSize: 0x80 }
  - { offset: 0x17BC9, size: 0x8, addend: 0x0, symName: __RINvNtCs85QQFkKrybG_4core3ptr13drop_in_placeINtNtCsdFlNUEO95cG_5alloc5boxed3BoxNtNtCshA2YSdBGE45_11rustversion4expr4ExprEEB1j_, symObjAddr: 0xD0C, symBinAddr: 0xF11C, symSize: 0x60 }
  - { offset: 0x17BF8, size: 0x8, addend: 0x0, symName: __RINvNtCs85QQFkKrybG_4core3ptr13drop_in_placeINtNtCsdFlNUEO95cG_5alloc5boxed3BoxNtNtNtCswz7ZwgBZOU_3std2io5error6CustomEECshA2YSdBGE45_11rustversion, symObjAddr: 0xD6C, symBinAddr: 0xF17C, symSize: 0x60 }
  - { offset: 0x17C27, size: 0x8, addend: 0x0, symName: __RINvNtCs85QQFkKrybG_4core3ptr13drop_in_placeINtNtCsdFlNUEO95cG_5alloc7raw_vec6RawVecINtNtCs9bTl5rSDVcL_10proc_macro6bridge9TokenTreeNtNtB1n_6client11TokenStreamNtB28_4SpanNtNtB1n_6symbol6SymbolEEECshA2YSdBGE45_11rustversion, symObjAddr: 0xDCC, symBinAddr: 0xF1DC, symSize: 0x24 }
  - { offset: 0x17C56, size: 0x8, addend: 0x0, symName: __RINvNtCs85QQFkKrybG_4core3ptr13drop_in_placeINtNtCsdFlNUEO95cG_5alloc7raw_vec6RawVecNtCs9bTl5rSDVcL_10proc_macro9TokenTreeEECshA2YSdBGE45_11rustversion, symObjAddr: 0xDF0, symBinAddr: 0xF200, symSize: 0x24 }
  - { offset: 0x17C85, size: 0x8, addend: 0x0, symName: __RINvNtCs85QQFkKrybG_4core3ptr13drop_in_placeINtNtCsdFlNUEO95cG_5alloc7raw_vec6RawVecNtNtCs9bTl5rSDVcL_10proc_macro12token_stream8IntoIterEECshA2YSdBGE45_11rustversion, symObjAddr: 0xE14, symBinAddr: 0xF224, symSize: 0x24 }
  - { offset: 0x17CB4, size: 0x8, addend: 0x0, symName: __RINvNtCs85QQFkKrybG_4core3ptr13drop_in_placeINtNtCsdFlNUEO95cG_5alloc7raw_vec6RawVecNtNtCshA2YSdBGE45_11rustversion4expr4ExprEEB1o_, symObjAddr: 0xE38, symBinAddr: 0xF248, symSize: 0x24 }
  - { offset: 0x17CE3, size: 0x8, addend: 0x0, symName: __RINvNtCs85QQFkKrybG_4core3ptr13drop_in_placeINtNtCsdFlNUEO95cG_5alloc7raw_vec6RawVechEECshA2YSdBGE45_11rustversion, symObjAddr: 0xE5C, symBinAddr: 0xF26C, symSize: 0x24 }
  - { offset: 0x17D12, size: 0x8, addend: 0x0, symName: __RINvNtCs85QQFkKrybG_4core3ptr13drop_in_placeINtNtNtCsdFlNUEO95cG_5alloc3vec5drain5DrainNtCs9bTl5rSDVcL_10proc_macro9TokenTreeEECshA2YSdBGE45_11rustversion, symObjAddr: 0xE80, symBinAddr: 0xF290, symSize: 0x24 }
  - { offset: 0x17D41, size: 0x8, addend: 0x0, symName: __RINvNtCs85QQFkKrybG_4core3ptr13drop_in_placeINtNtNtCsdFlNUEO95cG_5alloc3vec9into_iter8IntoIterINtNtCs9bTl5rSDVcL_10proc_macro6bridge9TokenTreeNtNtB1x_6client11TokenStreamNtB2i_4SpanNtNtB1x_6symbol6SymbolEEECshA2YSdBGE45_11rustversion, symObjAddr: 0xEA4, symBinAddr: 0xF2B4, symSize: 0x24 }
  - { offset: 0x17D70, size: 0x8, addend: 0x0, symName: __RINvNtCs85QQFkKrybG_4core3ptr13drop_in_placeINtNtNtCsdFlNUEO95cG_5alloc3vec9into_iter8IntoIterNtCs9bTl5rSDVcL_10proc_macro9TokenTreeEECshA2YSdBGE45_11rustversion, symObjAddr: 0xEC8, symBinAddr: 0xF2D8, symSize: 0x24 }
  - { offset: 0x17D9F, size: 0x8, addend: 0x0, symName: __RINvNtCs85QQFkKrybG_4core3ptr13drop_in_placeINtNtNtCsdFlNUEO95cG_5alloc3vec9into_iter8IntoIterNtNtCshA2YSdBGE45_11rustversion4expr4ExprEEB1y_, symObjAddr: 0xEEC, symBinAddr: 0xF2FC, symSize: 0x24 }
  - { offset: 0x17DCE, size: 0x8, addend: 0x0, symName: __RINvNtCs85QQFkKrybG_4core3ptr13drop_in_placeINtNtNtCswz7ZwgBZOU_3std2io5error9ErrorDataINtNtCsdFlNUEO95cG_5alloc5boxed3BoxNtBJ_6CustomEEECshA2YSdBGE45_11rustversion, symObjAddr: 0xF10, symBinAddr: 0xF320, symSize: 0x48 }
  - { offset: 0x17DFD, size: 0x8, addend: 0x0, symName: __RINvNtCs85QQFkKrybG_4core3ptr13drop_in_placeINtNtNtNtB4_4iter7sources4once4OnceNtCs9bTl5rSDVcL_10proc_macro9TokenTreeEECshA2YSdBGE45_11rustversion, symObjAddr: 0xF58, symBinAddr: 0xF368, symSize: 0x24 }
  - { offset: 0x17E2C, size: 0x8, addend: 0x0, symName: __RINvNtCs85QQFkKrybG_4core3ptr13drop_in_placeINtNtNtNtB4_4iter8adapters5chain5ChainINtNtNtCsdFlNUEO95cG_5alloc3vec9into_iter8IntoIterNtCs9bTl5rSDVcL_10proc_macro9TokenTreeENtNtB28_12token_stream8IntoIterEECshA2YSdBGE45_11rustversion, symObjAddr: 0xF7C, symBinAddr: 0xF38C, symSize: 0x60 }
  - { offset: 0x17E5B, size: 0x8, addend: 0x0, symName: __RINvNtCs85QQFkKrybG_4core3ptr13drop_in_placeINtNvXs5_NtNtCsdFlNUEO95cG_5alloc3vec5drainINtBP_5DrainppENtNtNtB4_3ops4drop4Drop4drop9DropGuardNtCs9bTl5rSDVcL_10proc_macro9TokenTreeNtNtBT_5alloc6GlobalEECshA2YSdBGE45_11rustversion, symObjAddr: 0xFDC, symBinAddr: 0xF3EC, symSize: 0x24 }
  - { offset: 0x17E8A, size: 0x8, addend: 0x0, symName: __RINvNtCs85QQFkKrybG_4core3ptr13drop_in_placeINtNvXsd_NtNtCsdFlNUEO95cG_5alloc3vec9into_iterINtBP_8IntoIterppENtNtNtB4_3ops4drop4Drop4drop9DropGuardINtNtCs9bTl5rSDVcL_10proc_macro6bridge9TokenTreeNtNtB2o_6client11TokenStreamNtB39_4SpanNtNtB2o_6symbol6SymbolENtNtBT_5alloc6GlobalEECshA2YSdBGE45_11rustversion, symObjAddr: 0x1000, symBinAddr: 0xF410, symSize: 0x24 }
  - { offset: 0x17EB9, size: 0x8, addend: 0x0, symName: __RINvNtCs85QQFkKrybG_4core3ptr13drop_in_placeINtNvXsd_NtNtCsdFlNUEO95cG_5alloc3vec9into_iterINtBP_8IntoIterppENtNtNtB4_3ops4drop4Drop4drop9DropGuardNtCs9bTl5rSDVcL_10proc_macro9TokenTreeNtNtBT_5alloc6GlobalEECshA2YSdBGE45_11rustversion, symObjAddr: 0x1024, symBinAddr: 0xF434, symSize: 0x24 }
  - { offset: 0x17EE8, size: 0x8, addend: 0x0, symName: __RINvNtCs85QQFkKrybG_4core3ptr13drop_in_placeINtNvXsd_NtNtCsdFlNUEO95cG_5alloc3vec9into_iterINtBP_8IntoIterppENtNtNtB4_3ops4drop4Drop4drop9DropGuardNtNtCshA2YSdBGE45_11rustversion4expr4ExprNtNtBT_5alloc6GlobalEEB2p_, symObjAddr: 0x1048, symBinAddr: 0xF458, symSize: 0x24 }
  - { offset: 0x17F17, size: 0x8, addend: 0x0, symName: __RINvNtCs85QQFkKrybG_4core3ptr13drop_in_placeNCNCINvNtNtCs9bTl5rSDVcL_10proc_macro6bridge6client10run_clientNtBN_11TokenStreamINtNtB4_6option6OptionB1H_ENCNCINvMs6_BN_INtBN_6ClientNtBR_11TokenStreamB2R_E7expand1NvCshA2YSdBGE45_11rustversion3cfgE00E00EB3o_, symObjAddr: 0x106C, symBinAddr: 0xF47C, symSize: 0x24 }
  - { offset: 0x17F46, size: 0x8, addend: 0x0, symName: __RINvNtCs85QQFkKrybG_4core3ptr13drop_in_placeNCNCINvNtNtCs9bTl5rSDVcL_10proc_macro6bridge6client10run_clientTNtBN_11TokenStreamB1I_EINtNtB4_6option6OptionB1I_ENCNCINvMs7_BN_INtBN_6ClientTNtBR_11TokenStreamB2Y_EB2Y_E7expand2NvCshA2YSdBGE45_11rustversion3allE00E00EB3A_, symObjAddr: 0x1090, symBinAddr: 0xF4A0, symSize: 0x24 }
  - { offset: 0x17F75, size: 0x8, addend: 0x0, symName: __RINvNtCs85QQFkKrybG_4core3ptr13drop_in_placeNCNCINvNtNtCs9bTl5rSDVcL_10proc_macro6bridge6client10run_clientTNtBN_11TokenStreamB1I_EINtNtB4_6option6OptionB1I_ENCNCINvMs7_BN_INtBN_6ClientTNtBR_11TokenStreamB2Y_EB2Y_E7expand2NvCshA2YSdBGE45_11rustversion3anyE00E00EB3A_, symObjAddr: 0x10B4, symBinAddr: 0xF4C4, symSize: 0x24 }
  - { offset: 0x17FA4, size: 0x8, addend: 0x0, symName: __RINvNtCs85QQFkKrybG_4core3ptr13drop_in_placeNCNCINvNtNtCs9bTl5rSDVcL_10proc_macro6bridge6client10run_clientTNtBN_11TokenStreamB1I_EINtNtB4_6option6OptionB1I_ENCNCINvMs7_BN_INtBN_6ClientTNtBR_11TokenStreamB2Y_EB2Y_E7expand2NvCshA2YSdBGE45_11rustversion3notE00E00EB3A_, symObjAddr: 0x10D8, symBinAddr: 0xF4E8, symSize: 0x24 }
  - { offset: 0x17FD3, size: 0x8, addend: 0x0, symName: __RINvNtCs85QQFkKrybG_4core3ptr13drop_in_placeNCNCINvNtNtCs9bTl5rSDVcL_10proc_macro6bridge6client10run_clientTNtBN_11TokenStreamB1I_EINtNtB4_6option6OptionB1I_ENCNCINvMs7_BN_INtBN_6ClientTNtBR_11TokenStreamB2Y_EB2Y_E7expand2NvCshA2YSdBGE45_11rustversion4attrE00E00EB3A_, symObjAddr: 0x10FC, symBinAddr: 0xF50C, symSize: 0x24 }
  - { offset: 0x18002, size: 0x8, addend: 0x0, symName: __RINvNtCs85QQFkKrybG_4core3ptr13drop_in_placeNCNCINvNtNtCs9bTl5rSDVcL_10proc_macro6bridge6client10run_clientTNtBN_11TokenStreamB1I_EINtNtB4_6option6OptionB1I_ENCNCINvMs7_BN_INtBN_6ClientTNtBR_11TokenStreamB2Y_EB2Y_E7expand2NvCshA2YSdBGE45_11rustversion4betaE00E00EB3A_, symObjAddr: 0x1120, symBinAddr: 0xF530, symSize: 0x24 }
  - { offset: 0x18031, size: 0x8, addend: 0x0, symName: __RINvNtCs85QQFkKrybG_4core3ptr13drop_in_placeNCNCINvNtNtCs9bTl5rSDVcL_10proc_macro6bridge6client10run_clientTNtBN_11TokenStreamB1I_EINtNtB4_6option6OptionB1I_ENCNCINvMs7_BN_INtBN_6ClientTNtBR_11TokenStreamB2Y_EB2Y_E7expand2NvCshA2YSdBGE45_11rustversion5sinceE00E00EB3A_, symObjAddr: 0x1144, symBinAddr: 0xF554, symSize: 0x24 }
  - { offset: 0x18060, size: 0x8, addend: 0x0, symName: __RINvNtCs85QQFkKrybG_4core3ptr13drop_in_placeNCNCINvNtNtCs9bTl5rSDVcL_10proc_macro6bridge6client10run_clientTNtBN_11TokenStreamB1I_EINtNtB4_6option6OptionB1I_ENCNCINvMs7_BN_INtBN_6ClientTNtBR_11TokenStreamB2Y_EB2Y_E7expand2NvCshA2YSdBGE45_11rustversion6beforeE00E00EB3A_, symObjAddr: 0x1168, symBinAddr: 0xF578, symSize: 0x24 }
  - { offset: 0x1808F, size: 0x8, addend: 0x0, symName: __RINvNtCs85QQFkKrybG_4core3ptr13drop_in_placeNCNCINvNtNtCs9bTl5rSDVcL_10proc_macro6bridge6client10run_clientTNtBN_11TokenStreamB1I_EINtNtB4_6option6OptionB1I_ENCNCINvMs7_BN_INtBN_6ClientTNtBR_11TokenStreamB2Y_EB2Y_E7expand2NvCshA2YSdBGE45_11rustversion6stableE00E00EB3A_, symObjAddr: 0x118C, symBinAddr: 0xF59C, symSize: 0x24 }
  - { offset: 0x180BE, size: 0x8, addend: 0x0, symName: __RINvNtCs85QQFkKrybG_4core3ptr13drop_in_placeNCNCINvNtNtCs9bTl5rSDVcL_10proc_macro6bridge6client10run_clientTNtBN_11TokenStreamB1I_EINtNtB4_6option6OptionB1I_ENCNCINvMs7_BN_INtBN_6ClientTNtBR_11TokenStreamB2Y_EB2Y_E7expand2NvCshA2YSdBGE45_11rustversion7nightlyE00E00EB3A_, symObjAddr: 0x11B0, symBinAddr: 0xF5C0, symSize: 0x24 }
  - { offset: 0x180ED, size: 0x8, addend: 0x0, symName: __RINvNtCs85QQFkKrybG_4core3ptr13drop_in_placeNCNvCshA2YSdBGE45_11rustversion4attr0EBK_, symObjAddr: 0x11D4, symBinAddr: 0xF5E4, symSize: 0x24 }
  - { offset: 0x1811C, size: 0x8, addend: 0x0, symName: __RINvNtCs85QQFkKrybG_4core3ptr13drop_in_placeNCNvNtCshA2YSdBGE45_11rustversion4date5parse0EBM_, symObjAddr: 0x11F8, symBinAddr: 0xF608, symSize: 0x24 }
  - { offset: 0x1814B, size: 0x8, addend: 0x0, symName: __RINvNtCs85QQFkKrybG_4core3ptr13drop_in_placeNCNvNtCshA2YSdBGE45_11rustversion7release5parse0EBM_, symObjAddr: 0x121C, symBinAddr: 0xF62C, symSize: 0x24 }
  - { offset: 0x1817A, size: 0x8, addend: 0x0, symName: __RINvNtCs85QQFkKrybG_4core3ptr13drop_in_placeNtCs9bTl5rSDVcL_10proc_macro11TokenStreamECshA2YSdBGE45_11rustversion, symObjAddr: 0x1240, symBinAddr: 0xF650, symSize: 0x24 }
  - { offset: 0x181A9, size: 0x8, addend: 0x0, symName: __RINvNtCs85QQFkKrybG_4core3ptr13drop_in_placeNtCs9bTl5rSDVcL_10proc_macro17ConcatTreesHelperECshA2YSdBGE45_11rustversion, symObjAddr: 0x1264, symBinAddr: 0xF674, symSize: 0x24 }
  - { offset: 0x181D8, size: 0x8, addend: 0x0, symName: __RINvNtCs85QQFkKrybG_4core3ptr13drop_in_placeNtCs9bTl5rSDVcL_10proc_macro5GroupECshA2YSdBGE45_11rustversion, symObjAddr: 0x1288, symBinAddr: 0xF698, symSize: 0x24 }
  - { offset: 0x18207, size: 0x8, addend: 0x0, symName: __RINvNtCs85QQFkKrybG_4core3ptr13drop_in_placeNtCs9bTl5rSDVcL_10proc_macro9TokenTreeECshA2YSdBGE45_11rustversion, symObjAddr: 0x12AC, symBinAddr: 0xF6BC, symSize: 0x58 }
  - { offset: 0x18236, size: 0x8, addend: 0x0, symName: __RINvNtCs85QQFkKrybG_4core3ptr13drop_in_placeNtNtCs9bTl5rSDVcL_10proc_macro12token_stream8IntoIterECshA2YSdBGE45_11rustversion, symObjAddr: 0x1304, symBinAddr: 0xF714, symSize: 0x24 }
  - { offset: 0x18265, size: 0x8, addend: 0x0, symName: __RINvNtCs85QQFkKrybG_4core3ptr13drop_in_placeNtNtCsdFlNUEO95cG_5alloc6string6StringECshA2YSdBGE45_11rustversion, symObjAddr: 0x1328, symBinAddr: 0xF738, symSize: 0x24 }
  - { offset: 0x18294, size: 0x8, addend: 0x0, symName: __RINvNtCs85QQFkKrybG_4core3ptr13drop_in_placeNtNtCshA2YSdBGE45_11rustversion4expr4ExprEBK_, symObjAddr: 0x134C, symBinAddr: 0xF75C, symSize: 0x8C }
  - { offset: 0x182C3, size: 0x8, addend: 0x0, symName: __RINvNtCs85QQFkKrybG_4core3ptr13drop_in_placeNtNtCshA2YSdBGE45_11rustversion4iter8IterImplEBK_, symObjAddr: 0x13D8, symBinAddr: 0xF7E8, symSize: 0x60 }
  - { offset: 0x182F2, size: 0x8, addend: 0x0, symName: __RINvNtCs85QQFkKrybG_4core3ptr13drop_in_placeNtNtCshA2YSdBGE45_11rustversion5error5ErrorEBK_, symObjAddr: 0x1438, symBinAddr: 0xF848, symSize: 0x24 }
  - { offset: 0x18321, size: 0x8, addend: 0x0, symName: __RINvNtCs85QQFkKrybG_4core3ptr13drop_in_placeNtNtNtCs9bTl5rSDVcL_10proc_macro6bridge3rpc12PanicMessageECshA2YSdBGE45_11rustversion, symObjAddr: 0x145C, symBinAddr: 0xF86C, symSize: 0x54 }
  - { offset: 0x18350, size: 0x8, addend: 0x0, symName: __RINvNtCs85QQFkKrybG_4core3ptr13drop_in_placeNtNtNtCs9bTl5rSDVcL_10proc_macro6bridge6buffer6BufferECshA2YSdBGE45_11rustversion, symObjAddr: 0x14B0, symBinAddr: 0xF8C0, symSize: 0x24 }
  - { offset: 0x1837F, size: 0x8, addend: 0x0, symName: __RINvNtCs85QQFkKrybG_4core3ptr13drop_in_placeNtNtNtCs9bTl5rSDVcL_10proc_macro6bridge6client11TokenStreamECshA2YSdBGE45_11rustversion, symObjAddr: 0x14D4, symBinAddr: 0xF8E4, symSize: 0x24 }
  - { offset: 0x183AE, size: 0x8, addend: 0x0, symName: __RINvNtCs85QQFkKrybG_4core3ptr13drop_in_placeNtNtNtCs9bTl5rSDVcL_10proc_macro6bridge6client6BridgeECshA2YSdBGE45_11rustversion, symObjAddr: 0x14F8, symBinAddr: 0xF908, symSize: 0x24 }
  - { offset: 0x183DD, size: 0x8, addend: 0x0, symName: __RINvNtCs85QQFkKrybG_4core3ptr13drop_in_placeNtNtNtCswz7ZwgBZOU_3std2io5error5ErrorECshA2YSdBGE45_11rustversion, symObjAddr: 0x151C, symBinAddr: 0xF92C, symSize: 0x24 }
  - { offset: 0x1840C, size: 0x8, addend: 0x0, symName: __RINvNtCs85QQFkKrybG_4core3ptr13drop_in_placeNtNtNtCswz7ZwgBZOU_3std2io5error6CustomECshA2YSdBGE45_11rustversion, symObjAddr: 0x1540, symBinAddr: 0xF950, symSize: 0x24 }
  - { offset: 0x1843B, size: 0x8, addend: 0x0, symName: __RINvNtCs85QQFkKrybG_4core3ptr13drop_in_placeNtNtNtCswz7ZwgBZOU_3std3ffi6os_str8OsStringECshA2YSdBGE45_11rustversion, symObjAddr: 0x1564, symBinAddr: 0xF974, symSize: 0x24 }
  - { offset: 0x1846A, size: 0x8, addend: 0x0, symName: __RINvNtCs85QQFkKrybG_4core3ptr13drop_in_placeNtNtNtNtCswz7ZwgBZOU_3std2io5error14repr_bitpacked4ReprECshA2YSdBGE45_11rustversion, symObjAddr: 0x1588, symBinAddr: 0xF998, symSize: 0x24 }
  - { offset: 0x18499, size: 0x8, addend: 0x0, symName: __RINvNtCs85QQFkKrybG_4core3ptr13drop_in_placeNtNtNtNtCswz7ZwgBZOU_3std3sys6os_str5bytes3BufECshA2YSdBGE45_11rustversion, symObjAddr: 0x15AC, symBinAddr: 0xF9BC, symSize: 0x24 }
  - { offset: 0x184C8, size: 0x8, addend: 0x0, symName: __RINvNtCs85QQFkKrybG_4core3ptr13drop_in_placeNtNvNtNtNtCs9bTl5rSDVcL_10proc_macro6bridge6client5state3set13RestoreOnDropECshA2YSdBGE45_11rustversion, symObjAddr: 0x15D0, symBinAddr: 0xF9E0, symSize: 0x24 }
  - { offset: 0x184F7, size: 0x8, addend: 0x0, symName: __RINvNtCs85QQFkKrybG_4core3ptr13drop_in_placeSINtNtCs9bTl5rSDVcL_10proc_macro6bridge9TokenTreeNtNtBK_6client11TokenStreamNtB1v_4SpanNtNtBK_6symbol6SymbolEECshA2YSdBGE45_11rustversion, symObjAddr: 0x15F4, symBinAddr: 0xFA04, symSize: 0xC4 }
  - { offset: 0x18526, size: 0x8, addend: 0x0, symName: __RINvNtCs85QQFkKrybG_4core3ptr13drop_in_placeSNtCs9bTl5rSDVcL_10proc_macro9TokenTreeECshA2YSdBGE45_11rustversion, symObjAddr: 0x16B8, symBinAddr: 0xFAC8, symSize: 0xC4 }
  - { offset: 0x18555, size: 0x8, addend: 0x0, symName: __RINvNtCs85QQFkKrybG_4core3ptr13drop_in_placeSNtNtCs9bTl5rSDVcL_10proc_macro12token_stream8IntoIterECshA2YSdBGE45_11rustversion, symObjAddr: 0x177C, symBinAddr: 0xFB8C, symSize: 0xB4 }
  - { offset: 0x18584, size: 0x8, addend: 0x0, symName: __RINvNtCs85QQFkKrybG_4core3ptr13drop_in_placeSNtNtCshA2YSdBGE45_11rustversion4expr4ExprEBL_, symObjAddr: 0x1830, symBinAddr: 0xFC40, symSize: 0xB4 }
  - { offset: 0x185B3, size: 0x8, addend: 0x0, symName: __RINvNtCs85QQFkKrybG_4core3ptr13drop_in_placeTNtNtNtCs9bTl5rSDVcL_10proc_macro6bridge6client11TokenStreamBH_EECshA2YSdBGE45_11rustversion, symObjAddr: 0x18E4, symBinAddr: 0xFCF4, symSize: 0x60 }
  - { offset: 0x1930C, size: 0x8, addend: 0x0, symName: __RNvXsC_NtCs85QQFkKrybG_4core6optionINtB5_6OptionNtNtB7_4time8DurationENtNtNtB7_3ops9try_trait3Try6branchCshA2YSdBGE45_11rustversion, symObjAddr: 0x5814, symBinAddr: 0x13C20, symSize: 0x64 }
  - { offset: 0x19361, size: 0x8, addend: 0x0, symName: __RNvXsC_NtCs85QQFkKrybG_4core6optionINtB5_6OptionQNtNtCs9bTl5rSDVcL_10proc_macro12token_stream8IntoIterENtNtNtB7_3ops9try_trait3Try6branchCshA2YSdBGE45_11rustversion, symObjAddr: 0x5878, symBinAddr: 0x13C84, symSize: 0x40 }
  - { offset: 0x193B6, size: 0x8, addend: 0x0, symName: __RNvXsC_NtCs85QQFkKrybG_4core6optionINtB5_6OptionyENtNtNtB7_3ops9try_trait3Try6branchCshA2YSdBGE45_11rustversion, symObjAddr: 0x58B8, symBinAddr: 0x13CC4, symSize: 0x48 }
  - { offset: 0x19506, size: 0x8, addend: 0x0, symName: __RNvXsD_NtCs85QQFkKrybG_4core6optionINtB5_6OptionNtCs9bTl5rSDVcL_10proc_macro9TokenTreeEINtNtNtB7_3ops9try_trait12FromResidualIBy_NtNtB7_7convert10InfallibleEE13from_residualCshA2YSdBGE45_11rustversion, symObjAddr: 0x5900, symBinAddr: 0x13D0C, symSize: 0x18 }
  - { offset: 0x19539, size: 0x8, addend: 0x0, symName: __RNvXsD_NtCs85QQFkKrybG_4core6optionINtB5_6OptionNtNtCshA2YSdBGE45_11rustversion4date4DateEINtNtNtB7_3ops9try_trait12FromResidualIBy_NtNtB7_7convert10InfallibleEE13from_residualBO_, symObjAddr: 0x5918, symBinAddr: 0x13D24, symSize: 0x20 }
  - { offset: 0x197D4, size: 0x8, addend: 0x0, symName: __RNvXsd_NtCs85QQFkKrybG_4core6optionINtB5_6OptionReENtNtB7_3cmp9PartialEq2eqCshA2YSdBGE45_11rustversion, symObjAddr: 0x5F9C, symBinAddr: 0x143A8, symSize: 0xAC }
  - { offset: 0x1AAC6, size: 0x8, addend: 0x0, symName: __RNvYINvNtCs85QQFkKrybG_4core3mem4dropNtCs9bTl5rSDVcL_10proc_macro9TokenTreeEINtNtNtB7_3ops8function6FnOnceTBz_EE9call_onceCshA2YSdBGE45_11rustversion, symObjAddr: 0x64A0, symBinAddr: 0x148AC, symSize: 0x34 }
  - { offset: 0x1AB06, size: 0x8, addend: 0x0, symName: __RNvYINvNtCs85QQFkKrybG_4core3mem4dropNtNtCshA2YSdBGE45_11rustversion5error5ErrorEINtNtNtB7_3ops8function6FnOnceTBz_EE9call_onceBD_, symObjAddr: 0x64D4, symBinAddr: 0x148E0, symSize: 0x34 }
  - { offset: 0x1AB46, size: 0x8, addend: 0x0, symName: __RNvYINvNtCs85QQFkKrybG_4core3mem4dropNtNtNtB7_3num5error13ParseIntErrorEINtNtNtB7_3ops8function6FnOnceTBz_EE9call_onceCshA2YSdBGE45_11rustversion, symObjAddr: 0x6508, symBinAddr: 0x14914, symSize: 0x24 }
  - { offset: 0x1AB86, size: 0x8, addend: 0x0, symName: __RNvYNCNkNvNtNtNtCs9bTl5rSDVcL_10proc_macro6bridge6client5state12BRIDGE_STATE0s_0INtNtNtCs85QQFkKrybG_4core3ops8function6FnOnceTINtNtB1n_6option6OptionQIB22_INtNtB1n_4cell4CellPuEEEEE9call_onceCshA2YSdBGE45_11rustversion, symObjAddr: 0x6578, symBinAddr: 0x14984, symSize: 0x4C }
  - { offset: 0x1ABCA, size: 0x8, addend: 0x0, symName: __RNvYNcNtNtNtCshA2YSdBGE45_11rustversion5bound5Bound6Stable0INtNtNtCs85QQFkKrybG_4core3ops8function6FnOnceTNtNtBa_7release7ReleaseEE9call_onceBa_, symObjAddr: 0x65C4, symBinAddr: 0x149D0, symSize: 0x8C }
  - { offset: 0x1AC0E, size: 0x8, addend: 0x0, symName: __RNvYNcNtNtNtCshA2YSdBGE45_11rustversion5bound5Bound7Nightly0INtNtNtCs85QQFkKrybG_4core3ops8function6FnOnceTNtNtBa_4date4DateEE9call_onceBa_, symObjAddr: 0x6650, symBinAddr: 0x14A5C, symSize: 0x64 }
  - { offset: 0x1AC52, size: 0x8, addend: 0x0, symName: __RNvYNvMNtCshA2YSdBGE45_11rustversion5errorNtB5_5Error18into_compile_errorINtNtNtCs85QQFkKrybG_4core3ops8function6FnOnceTBE_EE9call_onceB7_, symObjAddr: 0x68C0, symBinAddr: 0x14CCC, symSize: 0x34 }
  - { offset: 0x1AC96, size: 0x8, addend: 0x0, symName: __RNvYNvMsm_Cs9bTl5rSDVcL_10proc_macroNtB8_4Span9call_siteINtNtNtCs85QQFkKrybG_4core3ops8function6FnOnceuE9call_onceCshA2YSdBGE45_11rustversion, symObjAddr: 0x68F4, symBinAddr: 0x14D00, symSize: 0x1C }
  - { offset: 0x1ACDA, size: 0x8, addend: 0x0, symName: __RNvYNvMsq_Cs9bTl5rSDVcL_10proc_macroNtB8_9TokenTree4spanINtNtNtCs85QQFkKrybG_4core3ops8function6FnOnceTRBy_EE9call_onceCshA2YSdBGE45_11rustversion, symObjAddr: 0x6910, symBinAddr: 0x14D1C, symSize: 0x24 }
  - { offset: 0x1AD1E, size: 0x8, addend: 0x0, symName: __RNvYNvYeNtNtCsdFlNUEO95cG_5alloc6borrow7ToOwned8to_ownedINtNtNtCs85QQFkKrybG_4core3ops8function6FnOnceTReEE9call_onceCshA2YSdBGE45_11rustversion, symObjAddr: 0x6934, symBinAddr: 0x14D40, symSize: 0x2C }
  - { offset: 0x1AD68, size: 0x8, addend: 0x0, symName: __RNvYINvNvNtNtNtNtCs85QQFkKrybG_4core4iter6traits8iterator8Iterator4last4someNtCs9bTl5rSDVcL_10proc_macro9TokenTreeEINtNtNtBf_3ops8function5FnMutTINtNtBf_6option6OptionB1c_EB1c_EE8call_mutCshA2YSdBGE45_11rustversion, symObjAddr: 0x652C, symBinAddr: 0x14938, symSize: 0x4C }
  - { offset: 0x1ADB2, size: 0x8, addend: 0x0, symName: __RNvYNvCshA2YSdBGE45_11rustversion3allINtNtNtCs85QQFkKrybG_4core3ops8function2FnTNtCs9bTl5rSDVcL_10proc_macro11TokenStreamB1g_EE4callB4_, symObjAddr: 0x66E8, symBinAddr: 0x14AF4, symSize: 0x30 }
  - { offset: 0x1ADF6, size: 0x8, addend: 0x0, symName: __RNvYNvCshA2YSdBGE45_11rustversion3anyINtNtNtCs85QQFkKrybG_4core3ops8function2FnTNtCs9bTl5rSDVcL_10proc_macro11TokenStreamB1g_EE4callB4_, symObjAddr: 0x6718, symBinAddr: 0x14B24, symSize: 0x30 }
  - { offset: 0x1AE3A, size: 0x8, addend: 0x0, symName: __RNvYNvCshA2YSdBGE45_11rustversion3cfgINtNtNtCs85QQFkKrybG_4core3ops8function2FnTNtCs9bTl5rSDVcL_10proc_macro11TokenStreamEE4callB4_, symObjAddr: 0x6748, symBinAddr: 0x14B54, symSize: 0x28 }
  - { offset: 0x1AE7E, size: 0x8, addend: 0x0, symName: __RNvYNvCshA2YSdBGE45_11rustversion3notINtNtNtCs85QQFkKrybG_4core3ops8function2FnTNtCs9bTl5rSDVcL_10proc_macro11TokenStreamB1g_EE4callB4_, symObjAddr: 0x6770, symBinAddr: 0x14B7C, symSize: 0x30 }
  - { offset: 0x1AEC2, size: 0x8, addend: 0x0, symName: __RNvYNvCshA2YSdBGE45_11rustversion4attrINtNtNtCs85QQFkKrybG_4core3ops8function2FnTNtCs9bTl5rSDVcL_10proc_macro11TokenStreamB1h_EE4callB4_, symObjAddr: 0x67A0, symBinAddr: 0x14BAC, symSize: 0x30 }
  - { offset: 0x1AF06, size: 0x8, addend: 0x0, symName: __RNvYNvCshA2YSdBGE45_11rustversion4betaINtNtNtCs85QQFkKrybG_4core3ops8function2FnTNtCs9bTl5rSDVcL_10proc_macro11TokenStreamB1h_EE4callB4_, symObjAddr: 0x67D0, symBinAddr: 0x14BDC, symSize: 0x30 }
  - { offset: 0x1AF4A, size: 0x8, addend: 0x0, symName: __RNvYNvCshA2YSdBGE45_11rustversion5sinceINtNtNtCs85QQFkKrybG_4core3ops8function2FnTNtCs9bTl5rSDVcL_10proc_macro11TokenStreamB1i_EE4callB4_, symObjAddr: 0x6800, symBinAddr: 0x14C0C, symSize: 0x30 }
  - { offset: 0x1AF8E, size: 0x8, addend: 0x0, symName: __RNvYNvCshA2YSdBGE45_11rustversion6beforeINtNtNtCs85QQFkKrybG_4core3ops8function2FnTNtCs9bTl5rSDVcL_10proc_macro11TokenStreamB1j_EE4callB4_, symObjAddr: 0x6830, symBinAddr: 0x14C3C, symSize: 0x30 }
  - { offset: 0x1AFD2, size: 0x8, addend: 0x0, symName: __RNvYNvCshA2YSdBGE45_11rustversion6stableINtNtNtCs85QQFkKrybG_4core3ops8function2FnTNtCs9bTl5rSDVcL_10proc_macro11TokenStreamB1j_EE4callB4_, symObjAddr: 0x6860, symBinAddr: 0x14C6C, symSize: 0x30 }
  - { offset: 0x1B016, size: 0x8, addend: 0x0, symName: __RNvYNvCshA2YSdBGE45_11rustversion7nightlyINtNtNtCs85QQFkKrybG_4core3ops8function2FnTNtCs9bTl5rSDVcL_10proc_macro11TokenStreamB1k_EE4callB4_, symObjAddr: 0x6890, symBinAddr: 0x14C9C, symSize: 0x30 }
  - { offset: 0x1B062, size: 0x8, addend: 0x0, symName: __RINvNtCs85QQFkKrybG_4core3mem4dropINtNtB4_6option6OptionNtNtCs9bTl5rSDVcL_10proc_macro12token_stream8IntoIterEECshA2YSdBGE45_11rustversion, symObjAddr: 0x810, symBinAddr: 0xEC68, symSize: 0x14 }
  - { offset: 0x1B096, size: 0x8, addend: 0x0, symName: __RINvNtCs85QQFkKrybG_4core3mem4dropNtCs9bTl5rSDVcL_10proc_macro9TokenTreeECshA2YSdBGE45_11rustversion, symObjAddr: 0x824, symBinAddr: 0xEC7C, symSize: 0x14 }
  - { offset: 0x1B0CA, size: 0x8, addend: 0x0, symName: __RINvNtCs85QQFkKrybG_4core3mem4dropNtNtCshA2YSdBGE45_11rustversion5error5ErrorEBA_, symObjAddr: 0x838, symBinAddr: 0xEC90, symSize: 0x14 }
  - { offset: 0x1B0FE, size: 0x8, addend: 0x0, symName: __RINvNtCs85QQFkKrybG_4core3mem4dropNtNtNtB4_3num5error13ParseIntErrorECshA2YSdBGE45_11rustversion, symObjAddr: 0x84C, symBinAddr: 0xECA4, symSize: 0x10 }
  - { offset: 0x1BB80, size: 0x8, addend: 0x0, symName: __RINvNtNtCs85QQFkKrybG_4core3str11validations15next_code_pointINtNtNtB6_5slice4iter4IterhEECshA2YSdBGE45_11rustversion, symObjAddr: 0x19AC, symBinAddr: 0xFDBC, symSize: 0x224 }
  - { offset: 0x1BDDB, size: 0x8, addend: 0x0, symName: __RNvNvXs5_NtNtCs85QQFkKrybG_4core3str6traitsINtNtNtBb_3ops5range5RangejEINtNtNtBb_5slice5index10SliceIndexeE13get_unchecked18precondition_checkCshA2YSdBGE45_11rustversion, symObjAddr: 0x4E48, symBinAddr: 0x13254, symSize: 0xCC }
  - { offset: 0x1BE58, size: 0x8, addend: 0x0, symName: __RNvXs_NtNtCs85QQFkKrybG_4core3str6traitseNtNtB8_3cmp9PartialEq2eqCshA2YSdBGE45_11rustversion, symObjAddr: 0x5DE0, symBinAddr: 0x141EC, symSize: 0xAC }
  - { offset: 0x1C16C, size: 0x8, addend: 0x0, symName: __RNvXsn_NtNtCs85QQFkKrybG_4core5panic11unwind_safeINtB5_16AssertUnwindSafeNCINvNtNtCs9bTl5rSDVcL_10proc_macro6bridge6client10run_clientNtB1e_11TokenStreamINtNtB9_6option6OptionB28_ENCNCINvMs6_B1e_INtB1e_6ClientNtB1i_11TokenStreamB3l_E7expand1NvCshA2YSdBGE45_11rustversion3cfgE00E0EINtNtNtB9_3ops8function6FnOnceuE9call_onceB3T_, symObjAddr: 0x6174, symBinAddr: 0x14580, symSize: 0x38 }
  - { offset: 0x1C1C4, size: 0x8, addend: 0x0, symName: __RNvXsn_NtNtCs85QQFkKrybG_4core5panic11unwind_safeINtB5_16AssertUnwindSafeNCINvNtNtCs9bTl5rSDVcL_10proc_macro6bridge6client10run_clientTNtB1e_11TokenStreamB29_EINtNtB9_6option6OptionB29_ENCNCINvMs7_B1e_INtB1e_6ClientTNtB1i_11TokenStreamB3s_EB3s_E7expand2NvCshA2YSdBGE45_11rustversion3allE00E0EINtNtNtB9_3ops8function6FnOnceuE9call_onceB45_, symObjAddr: 0x61AC, symBinAddr: 0x145B8, symSize: 0x38 }
  - { offset: 0x1C21C, size: 0x8, addend: 0x0, symName: __RNvXsn_NtNtCs85QQFkKrybG_4core5panic11unwind_safeINtB5_16AssertUnwindSafeNCINvNtNtCs9bTl5rSDVcL_10proc_macro6bridge6client10run_clientTNtB1e_11TokenStreamB29_EINtNtB9_6option6OptionB29_ENCNCINvMs7_B1e_INtB1e_6ClientTNtB1i_11TokenStreamB3s_EB3s_E7expand2NvCshA2YSdBGE45_11rustversion3anyE00E0EINtNtNtB9_3ops8function6FnOnceuE9call_onceB45_, symObjAddr: 0x61E4, symBinAddr: 0x145F0, symSize: 0x38 }
  - { offset: 0x1C274, size: 0x8, addend: 0x0, symName: __RNvXsn_NtNtCs85QQFkKrybG_4core5panic11unwind_safeINtB5_16AssertUnwindSafeNCINvNtNtCs9bTl5rSDVcL_10proc_macro6bridge6client10run_clientTNtB1e_11TokenStreamB29_EINtNtB9_6option6OptionB29_ENCNCINvMs7_B1e_INtB1e_6ClientTNtB1i_11TokenStreamB3s_EB3s_E7expand2NvCshA2YSdBGE45_11rustversion3notE00E0EINtNtNtB9_3ops8function6FnOnceuE9call_onceB45_, symObjAddr: 0x621C, symBinAddr: 0x14628, symSize: 0x38 }
  - { offset: 0x1C2CC, size: 0x8, addend: 0x0, symName: __RNvXsn_NtNtCs85QQFkKrybG_4core5panic11unwind_safeINtB5_16AssertUnwindSafeNCINvNtNtCs9bTl5rSDVcL_10proc_macro6bridge6client10run_clientTNtB1e_11TokenStreamB29_EINtNtB9_6option6OptionB29_ENCNCINvMs7_B1e_INtB1e_6ClientTNtB1i_11TokenStreamB3s_EB3s_E7expand2NvCshA2YSdBGE45_11rustversion4attrE00E0EINtNtNtB9_3ops8function6FnOnceuE9call_onceB45_, symObjAddr: 0x6254, symBinAddr: 0x14660, symSize: 0x38 }
  - { offset: 0x1C324, size: 0x8, addend: 0x0, symName: __RNvXsn_NtNtCs85QQFkKrybG_4core5panic11unwind_safeINtB5_16AssertUnwindSafeNCINvNtNtCs9bTl5rSDVcL_10proc_macro6bridge6client10run_clientTNtB1e_11TokenStreamB29_EINtNtB9_6option6OptionB29_ENCNCINvMs7_B1e_INtB1e_6ClientTNtB1i_11TokenStreamB3s_EB3s_E7expand2NvCshA2YSdBGE45_11rustversion4betaE00E0EINtNtNtB9_3ops8function6FnOnceuE9call_onceB45_, symObjAddr: 0x628C, symBinAddr: 0x14698, symSize: 0x38 }
  - { offset: 0x1C37C, size: 0x8, addend: 0x0, symName: __RNvXsn_NtNtCs85QQFkKrybG_4core5panic11unwind_safeINtB5_16AssertUnwindSafeNCINvNtNtCs9bTl5rSDVcL_10proc_macro6bridge6client10run_clientTNtB1e_11TokenStreamB29_EINtNtB9_6option6OptionB29_ENCNCINvMs7_B1e_INtB1e_6ClientTNtB1i_11TokenStreamB3s_EB3s_E7expand2NvCshA2YSdBGE45_11rustversion5sinceE00E0EINtNtNtB9_3ops8function6FnOnceuE9call_onceB45_, symObjAddr: 0x62C4, symBinAddr: 0x146D0, symSize: 0x38 }
  - { offset: 0x1C3D4, size: 0x8, addend: 0x0, symName: __RNvXsn_NtNtCs85QQFkKrybG_4core5panic11unwind_safeINtB5_16AssertUnwindSafeNCINvNtNtCs9bTl5rSDVcL_10proc_macro6bridge6client10run_clientTNtB1e_11TokenStreamB29_EINtNtB9_6option6OptionB29_ENCNCINvMs7_B1e_INtB1e_6ClientTNtB1i_11TokenStreamB3s_EB3s_E7expand2NvCshA2YSdBGE45_11rustversion6beforeE00E0EINtNtNtB9_3ops8function6FnOnceuE9call_onceB45_, symObjAddr: 0x62FC, symBinAddr: 0x14708, symSize: 0x38 }
  - { offset: 0x1C42C, size: 0x8, addend: 0x0, symName: __RNvXsn_NtNtCs85QQFkKrybG_4core5panic11unwind_safeINtB5_16AssertUnwindSafeNCINvNtNtCs9bTl5rSDVcL_10proc_macro6bridge6client10run_clientTNtB1e_11TokenStreamB29_EINtNtB9_6option6OptionB29_ENCNCINvMs7_B1e_INtB1e_6ClientTNtB1i_11TokenStreamB3s_EB3s_E7expand2NvCshA2YSdBGE45_11rustversion6stableE00E0EINtNtNtB9_3ops8function6FnOnceuE9call_onceB45_, symObjAddr: 0x6334, symBinAddr: 0x14740, symSize: 0x38 }
  - { offset: 0x1C484, size: 0x8, addend: 0x0, symName: __RNvXsn_NtNtCs85QQFkKrybG_4core5panic11unwind_safeINtB5_16AssertUnwindSafeNCINvNtNtCs9bTl5rSDVcL_10proc_macro6bridge6client10run_clientTNtB1e_11TokenStreamB29_EINtNtB9_6option6OptionB29_ENCNCINvMs7_B1e_INtB1e_6ClientTNtB1i_11TokenStreamB3s_EB3s_E7expand2NvCshA2YSdBGE45_11rustversion7nightlyE00E0EINtNtNtB9_3ops8function6FnOnceuE9call_onceB45_, symObjAddr: 0x636C, symBinAddr: 0x14778, symSize: 0x38 }
  - { offset: 0x1C511, size: 0x8, addend: 0x0, symName: __RINvXNtNtNtCs85QQFkKrybG_4core4iter6traits8iteratorQNtNtCshA2YSdBGE45_11rustversion4iter8IterImplNtB3_8Iterator4folduNCINvNvB1x_8for_each4callNtCs9bTl5rSDVcL_10proc_macro9TokenTreeNCINvXsg_B2i_NtB2i_11TokenStreamINtNtB5_7collect12FromIteratorB2g_E9from_iterBN_E0E0EBS_, symObjAddr: 0x2964, symBinAddr: 0x10D74, symSize: 0x2C }
  - { offset: 0x1C574, size: 0x8, addend: 0x0, symName: __RINvXNtNtNtCs85QQFkKrybG_4core4iter6traits8iteratorQNtNtCshA2YSdBGE45_11rustversion4iter8IterImplNtB3_8Iterator4folduNCINvNvB1x_8for_each4callNtCs9bTl5rSDVcL_10proc_macro9TokenTreeNCINvXsi_B2i_NtB2i_11TokenStreamINtNtB5_7collect6ExtendB2g_E6extendBN_E0E0EBS_, symObjAddr: 0x2990, symBinAddr: 0x10DA0, symSize: 0x2C }
  - { offset: 0x1C5D7, size: 0x8, addend: 0x0, symName: __RNvXNtNtNtCs85QQFkKrybG_4core4iter6traits8iteratorQNtNtCshA2YSdBGE45_11rustversion4iter8IterImplNtB2_8Iterator9size_hintBR_, symObjAddr: 0x4F3C, symBinAddr: 0x13348, symSize: 0x28 }
  - { offset: 0x1C646, size: 0x8, addend: 0x0, symName: __RINvYNtNtCshA2YSdBGE45_11rustversion4iter8IterImplNtNtNtNtCs85QQFkKrybG_4core4iter6traits8iterator8Iterator8try_folduNCINvMNtNtBU_3ops9try_traitINtB1X_17NeverShortCircuituE10wrap_mut_2uNtCs9bTl5rSDVcL_10proc_macro9TokenTreeNCINvNvBM_8for_each4callB2X_NCINvXsg_B2Z_NtB2Z_11TokenStreamINtNtBQ_7collect12FromIteratorB2X_E9from_iterQB3_E0E0E0B2i_EB7_, symObjAddr: 0x2B94, symBinAddr: 0x10FA4, symSize: 0xFC }
  - { offset: 0x1C6DF, size: 0x8, addend: 0x0, symName: __RINvYNtNtCshA2YSdBGE45_11rustversion4iter8IterImplNtNtNtNtCs85QQFkKrybG_4core4iter6traits8iterator8Iterator8try_folduNCINvMNtNtBU_3ops9try_traitINtB1X_17NeverShortCircuituE10wrap_mut_2uNtCs9bTl5rSDVcL_10proc_macro9TokenTreeNCINvNvBM_8for_each4callB2X_NCINvXsi_B2Z_NtB2Z_11TokenStreamINtNtBQ_7collect6ExtendB2X_E6extendQB3_E0E0E0B2i_EB7_, symObjAddr: 0x2C90, symBinAddr: 0x110A0, symSize: 0xFC }
  - { offset: 0x1C778, size: 0x8, addend: 0x0, symName: __RINvYQNtNtCshA2YSdBGE45_11rustversion4iter8IterImplNtNtNtNtCs85QQFkKrybG_4core4iter6traits8iterator8Iterator7collectNtCs9bTl5rSDVcL_10proc_macro11TokenStreamEB8_, symObjAddr: 0x2D8C, symBinAddr: 0x1119C, symSize: 0x58 }
  - { offset: 0x1C80D, size: 0x8, addend: 0x0, symName: __RINvYQNtNtCshA2YSdBGE45_11rustversion4iter8IterImplNtNtNtNtCs85QQFkKrybG_4core4iter6traits8iterator8Iterator8for_eachNCINvXsg_Cs9bTl5rSDVcL_10proc_macroNtB20_11TokenStreamINtNtBR_7collect12FromIteratorNtB20_9TokenTreeE9from_iterB3_E0EB8_, symObjAddr: 0x2DE4, symBinAddr: 0x111F4, symSize: 0x2C }
  - { offset: 0x1C858, size: 0x8, addend: 0x0, symName: __RINvYQNtNtCshA2YSdBGE45_11rustversion4iter8IterImplNtNtNtNtCs85QQFkKrybG_4core4iter6traits8iterator8Iterator8for_eachNCINvXsi_Cs9bTl5rSDVcL_10proc_macroNtB20_11TokenStreamINtNtBR_7collect6ExtendNtB20_9TokenTreeE6extendB3_E0EB8_, symObjAddr: 0x2E10, symBinAddr: 0x11220, symSize: 0x2C }
  - { offset: 0x1C8A3, size: 0x8, addend: 0x0, symName: __RNvYNtNtCshA2YSdBGE45_11rustversion4iter8IterImplNtNtNtNtCs85QQFkKrybG_4core4iter6traits8iterator8Iterator9size_hintB6_, symObjAddr: 0x66B4, symBinAddr: 0x14AC0, symSize: 0x34 }
  - { offset: 0x1C934, size: 0x8, addend: 0x0, symName: __RINvXs0_NtNtNtCs85QQFkKrybG_4core4iter6traits8iteratorQNtNtCshA2YSdBGE45_11rustversion4iter8IterImplNtB6_15IteratorRefSpec9spec_folduNCINvNvNtB6_8Iterator8for_each4callNtCs9bTl5rSDVcL_10proc_macro9TokenTreeNCINvXsg_B2I_NtB2I_11TokenStreamINtNtB8_7collect12FromIteratorB2G_E9from_iterBQ_E0E0EBV_, symObjAddr: 0x29BC, symBinAddr: 0x10DCC, symSize: 0x3C }
  - { offset: 0x1CA39, size: 0x8, addend: 0x0, symName: __RINvXs0_NtNtNtCs85QQFkKrybG_4core4iter6traits8iteratorQNtNtCshA2YSdBGE45_11rustversion4iter8IterImplNtB6_15IteratorRefSpec9spec_folduNCINvNvNtB6_8Iterator8for_each4callNtCs9bTl5rSDVcL_10proc_macro9TokenTreeNCINvXsi_B2I_NtB2I_11TokenStreamINtNtB8_7collect6ExtendB2G_E6extendBQ_E0E0EBV_, symObjAddr: 0x29F8, symBinAddr: 0x10E08, symSize: 0x3C }
  - { offset: 0x1CAF4, size: 0x8, addend: 0x0, symName: __RNvXNtNtNtCs85QQFkKrybG_4core4iter6traits7collectQNtNtCshA2YSdBGE45_11rustversion4iter8IterImplNtB2_12IntoIterator9into_iterBQ_, symObjAddr: 0x4F28, symBinAddr: 0x13334, symSize: 0x14 }
  - { offset: 0x1CBA7, size: 0x8, addend: 0x0, symName: __RINvXs2E_NtNtCs85QQFkKrybG_4core5slice4iterINtB7_4IterNtNtCshA2YSdBGE45_11rustversion4expr4ExprENtNtNtNtBb_4iter6traits8iterator8Iterator3allNCNvMBS_BQ_4evals0_0EBU_, symObjAddr: 0x2A34, symBinAddr: 0x10E44, symSize: 0xB0 }
  - { offset: 0x1CC0C, size: 0x8, addend: 0x0, symName: __RINvXs2E_NtNtCs85QQFkKrybG_4core5slice4iterINtB7_4IterNtNtCshA2YSdBGE45_11rustversion4expr4ExprENtNtNtNtBb_4iter6traits8iterator8Iterator3anyNCNvMBS_BQ_4evals_0EBU_, symObjAddr: 0x2AE4, symBinAddr: 0x10EF4, symSize: 0xB0 }
  - { offset: 0x1CC71, size: 0x8, addend: 0x0, symName: __RNvXs2E_NtNtCs85QQFkKrybG_4core5slice4iterINtB6_4IterNtCs9bTl5rSDVcL_10proc_macro9TokenTreeENtNtNtNtBa_4iter6traits8iterator8Iterator4nextCshA2YSdBGE45_11rustversion, symObjAddr: 0x4F9C, symBinAddr: 0x133A8, symSize: 0xA8 }
  - { offset: 0x1CDAB, size: 0x8, addend: 0x0, symName: __RNvXs2E_NtNtCs85QQFkKrybG_4core5slice4iterINtB6_4IterNtNtCshA2YSdBGE45_11rustversion4expr4ExprENtNtNtNtBa_4iter6traits8iterator8Iterator4nextBT_, symObjAddr: 0x5044, symBinAddr: 0x13450, symSize: 0xA8 }
  - { offset: 0x1CEE5, size: 0x8, addend: 0x0, symName: __RNvXs2E_NtNtCs85QQFkKrybG_4core5slice4iterINtB6_4IterhENtNtNtNtBa_4iter6traits8iterator8Iterator4nextCshA2YSdBGE45_11rustversion, symObjAddr: 0x50EC, symBinAddr: 0x134F8, symSize: 0xA8 }
  - { offset: 0x1D1D5, size: 0x8, addend: 0x0, symName: __RNvNtNtCs85QQFkKrybG_4core5slice6memchr6memchrCshA2YSdBGE45_11rustversion, symObjAddr: 0x4688, symBinAddr: 0x12A94, symSize: 0x114 }
  - { offset: 0x1D41F, size: 0x8, addend: 0x0, symName: __RNvMNtNtCs85QQFkKrybG_4core4char7methodsc14is_ascii_digitCshA2YSdBGE45_11rustversion, symObjAddr: 0x37D0, symBinAddr: 0x11BE0, symSize: 0x64 }
  - { offset: 0x1D44D, size: 0x8, addend: 0x0, symName: __RNvMNtNtCs85QQFkKrybG_4core4char7methodsc8to_digitCshA2YSdBGE45_11rustversion, symObjAddr: 0x3834, symBinAddr: 0x11C44, symSize: 0x14C }
  - { offset: 0x1D54D, size: 0x8, addend: 0x0, symName: __RNvNtNtCs85QQFkKrybG_4core4char7methods15encode_utf8_rawCshA2YSdBGE45_11rustversion, symObjAddr: 0x43F0, symBinAddr: 0x127FC, symSize: 0x110 }
  - { offset: 0x1D64D, size: 0x8, addend: 0x0, symName: __RNvNtNtCs85QQFkKrybG_4core4char7methods25encode_utf8_raw_uncheckedCshA2YSdBGE45_11rustversion, symObjAddr: 0x4500, symBinAddr: 0x1290C, symSize: 0x188 }
  - { offset: 0x1DA5E, size: 0x8, addend: 0x0, symName: ___rustc_proc_macro_decls_ccc81c635e9d807f__, symObjAddr: 0x7948, symBinAddr: 0x7CE98, symSize: 0x0 }
  - { offset: 0x1DD94, size: 0x8, addend: 0x0, symName: __RNvNtCshA2YSdBGE45_11rustversion4iter3new, symObjAddr: 0x3C98, symBinAddr: 0x120A4, symSize: 0x170 }
  - { offset: 0x1DDC5, size: 0x8, addend: 0x0, symName: __RNvXs_NtCshA2YSdBGE45_11rustversion4iterNtB4_8IterImplNtNtNtNtCs85QQFkKrybG_4core4iter6traits8iterator8Iterator4next, symObjAddr: 0x5ADC, symBinAddr: 0x13EE8, symSize: 0x304 }
  - { offset: 0x1DE93, size: 0x8, addend: 0x0, symName: __RNCNvCshA2YSdBGE45_11rustversion3cfg0B3_, symObjAddr: 0x2E3C, symBinAddr: 0x1124C, symSize: 0x2A8 }
  - { offset: 0x1DF88, size: 0x8, addend: 0x0, symName: __RNCNvCshA2YSdBGE45_11rustversion4attr0B3_, symObjAddr: 0x30E4, symBinAddr: 0x114F4, symSize: 0x3C }
  - { offset: 0x1E062, size: 0x8, addend: 0x0, symName: __RNCNvNtCshA2YSdBGE45_11rustversion7release5parse0B5_, symObjAddr: 0x3190, symBinAddr: 0x115A0, symSize: 0x54 }
  - { offset: 0x1E0CF, size: 0x8, addend: 0x0, symName: __RNvNtCshA2YSdBGE45_11rustversion7release5parse, symObjAddr: 0x3E08, symBinAddr: 0x12214, symSize: 0xF0 }
  - { offset: 0x1E10A, size: 0x8, addend: 0x0, symName: __RNvNtCshA2YSdBGE45_11rustversion7release9try_parse, symObjAddr: 0x3EF8, symBinAddr: 0x12304, symSize: 0x4F8 }
  - { offset: 0x1E249, size: 0x8, addend: 0x0, symName: __RNvCshA2YSdBGE45_11rustversion3all, symObjAddr: 0x3220, symBinAddr: 0x11630, symSize: 0x4C }
  - { offset: 0x1E286, size: 0x8, addend: 0x0, symName: __RNvCshA2YSdBGE45_11rustversion3any, symObjAddr: 0x326C, symBinAddr: 0x1167C, symSize: 0x4C }
  - { offset: 0x1E2C0, size: 0x8, addend: 0x0, symName: __RNvCshA2YSdBGE45_11rustversion3cfg, symObjAddr: 0x32B8, symBinAddr: 0x116C8, symSize: 0x48 }
  - { offset: 0x1E2EE, size: 0x8, addend: 0x0, symName: __RNvCshA2YSdBGE45_11rustversion3not, symObjAddr: 0x3300, symBinAddr: 0x11710, symSize: 0x4C }
  - { offset: 0x1E328, size: 0x8, addend: 0x0, symName: __RNvCshA2YSdBGE45_11rustversion4attr, symObjAddr: 0x334C, symBinAddr: 0x1175C, symSize: 0xB0 }
  - { offset: 0x1E365, size: 0x8, addend: 0x0, symName: __RNvCshA2YSdBGE45_11rustversion4beta, symObjAddr: 0x33FC, symBinAddr: 0x1180C, symSize: 0x4C }
  - { offset: 0x1E39F, size: 0x8, addend: 0x0, symName: __RNvCshA2YSdBGE45_11rustversion5since, symObjAddr: 0x3448, symBinAddr: 0x11858, symSize: 0x4C }
  - { offset: 0x1E3D9, size: 0x8, addend: 0x0, symName: __RNvCshA2YSdBGE45_11rustversion6before, symObjAddr: 0x3494, symBinAddr: 0x118A4, symSize: 0x4C }
  - { offset: 0x1E413, size: 0x8, addend: 0x0, symName: __RNvCshA2YSdBGE45_11rustversion6stable, symObjAddr: 0x34E0, symBinAddr: 0x118F0, symSize: 0x4C }
  - { offset: 0x1E44D, size: 0x8, addend: 0x0, symName: __RNvCshA2YSdBGE45_11rustversion7nightly, symObjAddr: 0x352C, symBinAddr: 0x1193C, symSize: 0x4C }
  - { offset: 0x1EF84, size: 0x8, addend: 0x0, symName: __RINvNvNtNtCs9bTl5rSDVcL_10proc_macro6bridge14selfless_reify31reify_to_extern_c_fn_hrt_bridge7wrapperNtNtB6_6buffer6BufferNCINvMs6_NtB6_6clientINtB24_6ClientNtB8_11TokenStreamB2u_E7expand1NvCshA2YSdBGE45_11rustversion3cfgE0EB31_, symObjAddr: 0x252C, symBinAddr: 0x1093C, symSize: 0x6C }
  - { offset: 0x1F01B, size: 0x8, addend: 0x0, symName: __RINvNvNtNtCs9bTl5rSDVcL_10proc_macro6bridge14selfless_reify31reify_to_extern_c_fn_hrt_bridge7wrapperNtNtB6_6buffer6BufferNCINvMs7_NtB6_6clientINtB24_6ClientTNtB8_11TokenStreamB2v_EB2v_E7expand2NvCshA2YSdBGE45_11rustversion3allE0EB37_, symObjAddr: 0x2598, symBinAddr: 0x109A8, symSize: 0x6C }
  - { offset: 0x1F0B2, size: 0x8, addend: 0x0, symName: __RINvNvNtNtCs9bTl5rSDVcL_10proc_macro6bridge14selfless_reify31reify_to_extern_c_fn_hrt_bridge7wrapperNtNtB6_6buffer6BufferNCINvMs7_NtB6_6clientINtB24_6ClientTNtB8_11TokenStreamB2v_EB2v_E7expand2NvCshA2YSdBGE45_11rustversion3anyE0EB37_, symObjAddr: 0x2604, symBinAddr: 0x10A14, symSize: 0x6C }
  - { offset: 0x1F149, size: 0x8, addend: 0x0, symName: __RINvNvNtNtCs9bTl5rSDVcL_10proc_macro6bridge14selfless_reify31reify_to_extern_c_fn_hrt_bridge7wrapperNtNtB6_6buffer6BufferNCINvMs7_NtB6_6clientINtB24_6ClientTNtB8_11TokenStreamB2v_EB2v_E7expand2NvCshA2YSdBGE45_11rustversion3notE0EB37_, symObjAddr: 0x2670, symBinAddr: 0x10A80, symSize: 0x6C }
  - { offset: 0x1F1E0, size: 0x8, addend: 0x0, symName: __RINvNvNtNtCs9bTl5rSDVcL_10proc_macro6bridge14selfless_reify31reify_to_extern_c_fn_hrt_bridge7wrapperNtNtB6_6buffer6BufferNCINvMs7_NtB6_6clientINtB24_6ClientTNtB8_11TokenStreamB2v_EB2v_E7expand2NvCshA2YSdBGE45_11rustversion4attrE0EB37_, symObjAddr: 0x26DC, symBinAddr: 0x10AEC, symSize: 0x6C }
  - { offset: 0x1F277, size: 0x8, addend: 0x0, symName: __RINvNvNtNtCs9bTl5rSDVcL_10proc_macro6bridge14selfless_reify31reify_to_extern_c_fn_hrt_bridge7wrapperNtNtB6_6buffer6BufferNCINvMs7_NtB6_6clientINtB24_6ClientTNtB8_11TokenStreamB2v_EB2v_E7expand2NvCshA2YSdBGE45_11rustversion4betaE0EB37_, symObjAddr: 0x2748, symBinAddr: 0x10B58, symSize: 0x6C }
  - { offset: 0x1F30E, size: 0x8, addend: 0x0, symName: __RINvNvNtNtCs9bTl5rSDVcL_10proc_macro6bridge14selfless_reify31reify_to_extern_c_fn_hrt_bridge7wrapperNtNtB6_6buffer6BufferNCINvMs7_NtB6_6clientINtB24_6ClientTNtB8_11TokenStreamB2v_EB2v_E7expand2NvCshA2YSdBGE45_11rustversion5sinceE0EB37_, symObjAddr: 0x27B4, symBinAddr: 0x10BC4, symSize: 0x6C }
  - { offset: 0x1F3A5, size: 0x8, addend: 0x0, symName: __RINvNvNtNtCs9bTl5rSDVcL_10proc_macro6bridge14selfless_reify31reify_to_extern_c_fn_hrt_bridge7wrapperNtNtB6_6buffer6BufferNCINvMs7_NtB6_6clientINtB24_6ClientTNtB8_11TokenStreamB2v_EB2v_E7expand2NvCshA2YSdBGE45_11rustversion6beforeE0EB37_, symObjAddr: 0x2820, symBinAddr: 0x10C30, symSize: 0x6C }
  - { offset: 0x1F43C, size: 0x8, addend: 0x0, symName: __RINvNvNtNtCs9bTl5rSDVcL_10proc_macro6bridge14selfless_reify31reify_to_extern_c_fn_hrt_bridge7wrapperNtNtB6_6buffer6BufferNCINvMs7_NtB6_6clientINtB24_6ClientTNtB8_11TokenStreamB2v_EB2v_E7expand2NvCshA2YSdBGE45_11rustversion6stableE0EB37_, symObjAddr: 0x288C, symBinAddr: 0x10C9C, symSize: 0x6C }
  - { offset: 0x1F4D3, size: 0x8, addend: 0x0, symName: __RINvNvNtNtCs9bTl5rSDVcL_10proc_macro6bridge14selfless_reify31reify_to_extern_c_fn_hrt_bridge7wrapperNtNtB6_6buffer6BufferNCINvMs7_NtB6_6clientINtB24_6ClientTNtB8_11TokenStreamB2v_EB2v_E7expand2NvCshA2YSdBGE45_11rustversion7nightlyE0EB37_, symObjAddr: 0x28F8, symBinAddr: 0x10D08, symSize: 0x6C }
  - { offset: 0x1F683, size: 0x8, addend: 0x0, symName: __RNvXNtNtCs9bTl5rSDVcL_10proc_macro6bridge3rpcuINtB2_6EncodeuE6encodeCshA2YSdBGE45_11rustversion, symObjAddr: 0x4F14, symBinAddr: 0x13320, symSize: 0x14 }
  - { offset: 0x1F6CA, size: 0x8, addend: 0x0, symName: __RNvXs7_NtNtCs9bTl5rSDVcL_10proc_macro6bridge3rpcINtNtNtCs85QQFkKrybG_4core3num7nonzero7NonZeromEINtB5_9DecodeMutuE6decodeCshA2YSdBGE45_11rustversion, symObjAddr: 0x57B8, symBinAddr: 0x13BC4, symSize: 0x5C }
  - { offset: 0x1F7D7, size: 0x8, addend: 0x0, symName: __RNvXsa_NtNtCs9bTl5rSDVcL_10proc_macro6bridge3rpcRShINtB5_6EncodeuE6encodeCshA2YSdBGE45_11rustversion, symObjAddr: 0x5E8C, symBinAddr: 0x14298, symSize: 0xD8 }
  - { offset: 0x1F8DD, size: 0x8, addend: 0x0, symName: __RNvXsc_NtNtCs9bTl5rSDVcL_10proc_macro6bridge3rpcReINtB5_6EncodeuE6encodeCshA2YSdBGE45_11rustversion, symObjAddr: 0x5F64, symBinAddr: 0x14370, symSize: 0x38 }
  - { offset: 0x1F9C5, size: 0x8, addend: 0x0, symName: __RNvXsl_NtNtCs9bTl5rSDVcL_10proc_macro6bridge3rpcNtB5_12PanicMessageINtB5_6EncodeuE6encodeCshA2YSdBGE45_11rustversion, symObjAddr: 0x6048, symBinAddr: 0x14454, symSize: 0x12C }
  - { offset: 0x1FB93, size: 0x8, addend: 0x0, symName: __RNvXso_NtNtCs9bTl5rSDVcL_10proc_macro6bridge3rpcmINtB5_9DecodeMutuE6decodeCshA2YSdBGE45_11rustversion, symObjAddr: 0x63A4, symBinAddr: 0x147B0, symSize: 0xFC }
  - { offset: 0x1FCFF, size: 0x8, addend: 0x0, symName: __RNvXsR_NtCs9bTl5rSDVcL_10proc_macro6bridgeINtNtCs85QQFkKrybG_4core6option6OptionNtNtB5_6client11TokenStreamEINtNtB5_3rpc6EncodeuE6encodeCshA2YSdBGE45_11rustversion, symObjAddr: 0x5938, symBinAddr: 0x13D44, symSize: 0xCC }
  - { offset: 0x1FDA5, size: 0x8, addend: 0x0, symName: __RNvXsR_NtCs9bTl5rSDVcL_10proc_macro6bridgeINtNtCs85QQFkKrybG_4core6option6OptionReEINtNtB5_3rpc6EncodeuE6encodeCshA2YSdBGE45_11rustversion, symObjAddr: 0x5A04, symBinAddr: 0x13E10, symSize: 0xD8 }
  - { offset: 0x20187, size: 0x8, addend: 0x0, symName: __RINvMNtCs85QQFkKrybG_4core6optionINtB3_6OptionNtCs9bTl5rSDVcL_10proc_macro9TokenTreeE3mapuINvNtB5_3mem4dropBI_EECshA2YSdBGE45_11rustversion, symObjAddr: 0x0, symBinAddr: 0xE470, symSize: 0x78 }
  - { offset: 0x201F3, size: 0x8, addend: 0x0, symName: __RINvMNtCs85QQFkKrybG_4core6optionINtB3_6OptionNtCs9bTl5rSDVcL_10proc_macro9TokenTreeE6map_orNtBK_4SpanNCINvMNtCshA2YSdBGE45_11rustversion5errorNtB1I_5Error5groupNtNtCsdFlNUEO95cG_5alloc6string6StringE0EB1K_, symObjAddr: 0x78, symBinAddr: 0xE4E8, symSize: 0xC8 }
  - { offset: 0x20266, size: 0x8, addend: 0x0, symName: __RINvMNtCs85QQFkKrybG_4core6optionINtB3_6OptionNtCs9bTl5rSDVcL_10proc_macro9TokenTreeE6map_orNtBK_4SpanNCINvMNtCshA2YSdBGE45_11rustversion5errorNtB1I_5Error5groupNtNtCsdFlNUEO95cG_5alloc6string6StringEs_0EB1K_, symObjAddr: 0x140, symBinAddr: 0xE5B0, symSize: 0xC8 }
  - { offset: 0x202D9, size: 0x8, addend: 0x0, symName: __RINvMNtCs85QQFkKrybG_4core6optionINtB3_6OptionNtCs9bTl5rSDVcL_10proc_macro9TokenTreeE6map_orNtBK_4SpanNCINvMNtCshA2YSdBGE45_11rustversion5errorNtB1I_5Error5groupReE0EB1K_, symObjAddr: 0x208, symBinAddr: 0xE678, symSize: 0xC8 }
  - { offset: 0x2034C, size: 0x8, addend: 0x0, symName: __RINvMNtCs85QQFkKrybG_4core6optionINtB3_6OptionNtCs9bTl5rSDVcL_10proc_macro9TokenTreeE6map_orNtBK_4SpanNCINvMNtCshA2YSdBGE45_11rustversion5errorNtB1I_5Error5groupReEs_0EB1K_, symObjAddr: 0x2D0, symBinAddr: 0xE740, symSize: 0xC8 }
  - { offset: 0x203F6, size: 0x8, addend: 0x0, symName: __RINvMNtCs85QQFkKrybG_4core6optionINtB3_6OptionRNtCs9bTl5rSDVcL_10proc_macro9TokenTreeE11map_or_elseNtBL_4SpanNvMsm_BL_B1z_9call_siteNvMsq_BL_BJ_4spanECshA2YSdBGE45_11rustversion, symObjAddr: 0x398, symBinAddr: 0xE808, symSize: 0xC4 }
  - { offset: 0x20A48, size: 0x8, addend: 0x0, symName: __RNCNvNtCsdFlNUEO95cG_5alloc3fmt6format0CshA2YSdBGE45_11rustversion, symObjAddr: 0x3148, symBinAddr: 0x11558, symSize: 0x48 }
  - { offset: 0x20A79, size: 0x8, addend: 0x0, symName: __RNvNtCsdFlNUEO95cG_5alloc3fmt6formatCshA2YSdBGE45_11rustversion, symObjAddr: 0x3BC4, symBinAddr: 0x11FD0, symSize: 0xD4 }
  - { offset: 0x20B53, size: 0x8, addend: 0x0, symName: __RNvXs6_NtCsdFlNUEO95cG_5alloc5boxedINtB5_3BoxANtCs9bTl5rSDVcL_10proc_macro9TokenTreej1_ENtNtNtCs85QQFkKrybG_4core3ops4drop4Drop4dropCshA2YSdBGE45_11rustversion, symObjAddr: 0x51E4, symBinAddr: 0x135F0, symSize: 0xB8 }
  - { offset: 0x20C8E, size: 0x8, addend: 0x0, symName: __RNvXs6_NtCsdFlNUEO95cG_5alloc5boxedINtB5_3BoxANtCs9bTl5rSDVcL_10proc_macro9TokenTreej2_ENtNtNtCs85QQFkKrybG_4core3ops4drop4Drop4dropCshA2YSdBGE45_11rustversion, symObjAddr: 0x529C, symBinAddr: 0x136A8, symSize: 0xB8 }
  - { offset: 0x20DC9, size: 0x8, addend: 0x0, symName: __RNvXs6_NtCsdFlNUEO95cG_5alloc5boxedINtB5_3BoxANtCs9bTl5rSDVcL_10proc_macro9TokenTreej3_ENtNtNtCs85QQFkKrybG_4core3ops4drop4Drop4dropCshA2YSdBGE45_11rustversion, symObjAddr: 0x5354, symBinAddr: 0x13760, symSize: 0xB8 }
  - { offset: 0x20F04, size: 0x8, addend: 0x0, symName: __RNvXs6_NtCsdFlNUEO95cG_5alloc5boxedINtB5_3BoxANtCs9bTl5rSDVcL_10proc_macro9TokenTreej4_ENtNtNtCs85QQFkKrybG_4core3ops4drop4Drop4dropCshA2YSdBGE45_11rustversion, symObjAddr: 0x540C, symBinAddr: 0x13818, symSize: 0xB8 }
  - { offset: 0x2103F, size: 0x8, addend: 0x0, symName: __RNvXs6_NtCsdFlNUEO95cG_5alloc5boxedINtB5_3BoxANtNtCs9bTl5rSDVcL_10proc_macro12token_stream8IntoIterj1_ENtNtNtCs85QQFkKrybG_4core3ops4drop4Drop4dropCshA2YSdBGE45_11rustversion, symObjAddr: 0x54C4, symBinAddr: 0x138D0, symSize: 0xB8 }
  - { offset: 0x2117A, size: 0x8, addend: 0x0, symName: __RNvXs6_NtCsdFlNUEO95cG_5alloc5boxedINtB5_3BoxDNtNtCs85QQFkKrybG_4core5error5ErrorNtNtBM_6marker4SyncNtB1j_4SendEL_ENtNtNtBM_3ops4drop4Drop4dropCshA2YSdBGE45_11rustversion, symObjAddr: 0x557C, symBinAddr: 0x13988, symSize: 0xCC }
  - { offset: 0x212B5, size: 0x8, addend: 0x0, symName: __RNvXs6_NtCsdFlNUEO95cG_5alloc5boxedINtB5_3BoxNtNtCshA2YSdBGE45_11rustversion4expr4ExprENtNtNtCs85QQFkKrybG_4core3ops4drop4Drop4dropBL_, symObjAddr: 0x5648, symBinAddr: 0x13A54, symSize: 0xB8 }
  - { offset: 0x213F0, size: 0x8, addend: 0x0, symName: __RNvXs6_NtCsdFlNUEO95cG_5alloc5boxedINtB5_3BoxNtNtNtCswz7ZwgBZOU_3std2io5error6CustomENtNtNtCs85QQFkKrybG_4core3ops4drop4Drop4dropCshA2YSdBGE45_11rustversion, symObjAddr: 0x5700, symBinAddr: 0x13B0C, symSize: 0xB8 }
  - { offset: 0x215D4, size: 0x8, addend: 0x0, symName: __RNvXs2_NtCsdFlNUEO95cG_5alloc3streNtNtB7_6borrow7ToOwned8to_ownedCshA2YSdBGE45_11rustversion, symObjAddr: 0x5194, symBinAddr: 0x135A0, symSize: 0x50 }
  - { offset: 0x217A4, size: 0x8, addend: 0x0, symName: __RINvMNtCs85QQFkKrybG_4core6optionINtB3_6OptionReE11map_or_elseNtNtCsdFlNUEO95cG_5alloc6string6StringNCNvNtB12_3fmt6format0NvYeNtNtB12_6borrow7ToOwned8to_ownedECshA2YSdBGE45_11rustversion, symObjAddr: 0x45C, symBinAddr: 0xE8CC, symSize: 0xCC }
  - { offset: 0x21834, size: 0x8, addend: 0x0, symName: __RINvMNtCs85QQFkKrybG_4core6optionINtB3_6OptiontE6map_orbNCNvMNtCshA2YSdBGE45_11rustversion4exprNtBX_4Expr4eval0EBZ_, symObjAddr: 0x528, symBinAddr: 0xE998, symSize: 0xBC }
  - { offset: 0x218B3, size: 0x8, addend: 0x0, symName: __RINvMNtNtCs85QQFkKrybG_4core3fmt2rtNtB3_8Argument11new_displayNtNtCshA2YSdBGE45_11rustversion4date4DateEB12_, symObjAddr: 0x5E4, symBinAddr: 0xEA54, symSize: 0x2C }
  - { offset: 0x218F8, size: 0x8, addend: 0x0, symName: __RINvMNtNtCs85QQFkKrybG_4core3fmt2rtNtB3_8Argument11new_displayRNtCs9bTl5rSDVcL_10proc_macro5IdentECshA2YSdBGE45_11rustversion, symObjAddr: 0x610, symBinAddr: 0xEA80, symSize: 0x2C }
  - { offset: 0x21937, size: 0x8, addend: 0x0, symName: __RINvMNtNtCs85QQFkKrybG_4core3fmt2rtNtB3_8Argument11new_displaycECshA2YSdBGE45_11rustversion, symObjAddr: 0x63C, symBinAddr: 0xEAAC, symSize: 0x2C }
  - { offset: 0x2196F, size: 0x8, addend: 0x0, symName: __RINvMNtNtCs85QQFkKrybG_4core3fmt2rtNtB3_8Argument11new_displayhECshA2YSdBGE45_11rustversion, symObjAddr: 0x668, symBinAddr: 0xEAD8, symSize: 0x2C }
  - { offset: 0x219A7, size: 0x8, addend: 0x0, symName: __RINvMNtNtCs85QQFkKrybG_4core3fmt2rtNtB3_8Argument11new_displaytECshA2YSdBGE45_11rustversion, symObjAddr: 0x694, symBinAddr: 0xEB04, symSize: 0x2C }
  - { offset: 0x21A11, size: 0x8, addend: 0x0, symName: __RINvMs2_NtNtCswz7ZwgBZOU_3std6thread5localINtB6_8LocalKeyINtNtCs85QQFkKrybG_4core4cell4CellPuEE4withNCNvMs3_B6_BE_7replace0B1r_ECshA2YSdBGE45_11rustversion, symObjAddr: 0x6C0, symBinAddr: 0xEB30, symSize: 0x54 }
  - { offset: 0x21ACA, size: 0x8, addend: 0x0, symName: __RINvMs2_NtNtCswz7ZwgBZOU_3std6thread5localINtB6_8LocalKeyINtNtCs85QQFkKrybG_4core4cell4CellPuEE8try_withNCNvMs3_B6_BE_7replace0B1r_ECshA2YSdBGE45_11rustversion, symObjAddr: 0x714, symBinAddr: 0xEB84, symSize: 0xE4 }
  - { offset: 0x22299, size: 0x8, addend: 0x0, symName: __RNvMNtCs85QQFkKrybG_4core6optionINtB2_6OptionNtCs9bTl5rSDVcL_10proc_macro9TokenTreeE4takeCshA2YSdBGE45_11rustversion, symObjAddr: 0x3578, symBinAddr: 0x11988, symSize: 0x40 }
  - { offset: 0x222F0, size: 0x8, addend: 0x0, symName: __RNvMNtCs85QQFkKrybG_4core6optionINtB2_6OptionNtCs9bTl5rSDVcL_10proc_macro9TokenTreeE6as_refCshA2YSdBGE45_11rustversion, symObjAddr: 0x35B8, symBinAddr: 0x119C8, symSize: 0x4C }
  - { offset: 0x2233A, size: 0x8, addend: 0x0, symName: __RNvMNtCs85QQFkKrybG_4core6optionINtB2_6OptionNtNtCshA2YSdBGE45_11rustversion4date4DateE9unwrap_orBL_, symObjAddr: 0x3604, symBinAddr: 0x11A14, symSize: 0x74 }
  - { offset: 0x223BC, size: 0x8, addend: 0x0, symName: __RNvMNtCs85QQFkKrybG_4core6optionINtB2_6OptionRNtCs9bTl5rSDVcL_10proc_macro9TokenTreeE7is_noneCshA2YSdBGE45_11rustversion, symObjAddr: 0x3678, symBinAddr: 0x11A88, symSize: 0x28 }
  - { offset: 0x22406, size: 0x8, addend: 0x0, symName: __RNvMNtCs85QQFkKrybG_4core6optionINtB2_6OptionRNtCs9bTl5rSDVcL_10proc_macro9TokenTreeE7is_someCshA2YSdBGE45_11rustversion, symObjAddr: 0x36A0, symBinAddr: 0x11AB0, symSize: 0x28 }
  - { offset: 0x22432, size: 0x8, addend: 0x0, symName: __RNvMNtCs85QQFkKrybG_4core6optionINtB2_6OptiontE9unwrap_orCshA2YSdBGE45_11rustversion, symObjAddr: 0x36C8, symBinAddr: 0x11AD8, symSize: 0x50 }
  - { offset: 0x22498, size: 0x8, addend: 0x0, symName: __RNvMNtCs85QQFkKrybG_4core6optionINtB2_6OptionuE7is_someCshA2YSdBGE45_11rustversion, symObjAddr: 0x3718, symBinAddr: 0x11B28, symSize: 0x24 }
  - { offset: 0x224C4, size: 0x8, addend: 0x0, symName: __RNvMNtCshA2YSdBGE45_11rustversion4iterNtB2_8IterImpl4peek, symObjAddr: 0x373C, symBinAddr: 0x11B4C, symSize: 0x94 }
  - { offset: 0x22522, size: 0x8, addend: 0x0, symName: __RNvMs1_NtNtCs85QQFkKrybG_4core3ptr8non_nullINtB5_7NonNullINtNtCs9bTl5rSDVcL_10proc_macro6bridge9TokenTreeNtNtBW_6client11TokenStreamNtB1H_4SpanNtNtBW_6symbol6SymbolEE20offset_from_unsignedCshA2YSdBGE45_11rustversion, symObjAddr: 0x3980, symBinAddr: 0x11D90, symSize: 0x7C }
  - { offset: 0x2262C, size: 0x8, addend: 0x0, symName: __RNvMs1_NtNtCs85QQFkKrybG_4core3ptr8non_nullINtB5_7NonNullNtCs9bTl5rSDVcL_10proc_macro9TokenTreeE20offset_from_unsignedCshA2YSdBGE45_11rustversion, symObjAddr: 0x39FC, symBinAddr: 0x11E0C, symSize: 0x7C }
  - { offset: 0x22743, size: 0x8, addend: 0x0, symName: __RNvMs1_NtNtCs85QQFkKrybG_4core3ptr8non_nullINtB5_7NonNullNtNtCshA2YSdBGE45_11rustversion4expr4ExprE20offset_from_unsignedBX_, symObjAddr: 0x3A78, symBinAddr: 0x11E88, symSize: 0x7C }
  - { offset: 0x22833, size: 0x8, addend: 0x0, symName: __RNvMs1_NtNtCs85QQFkKrybG_4core3ptr8non_nullINtB5_7NonNullhE20offset_from_unsignedCshA2YSdBGE45_11rustversion, symObjAddr: 0x3AF4, symBinAddr: 0x11F04, symSize: 0x7C }
  - { offset: 0x229B6, size: 0x8, addend: 0x0, symName: __RNvMs4_NtNtCs85QQFkKrybG_4core5slice4iterINtB5_4IterNtNtCshA2YSdBGE45_11rustversion4expr4ExprE3newBS_, symObjAddr: 0x3B70, symBinAddr: 0x11F80, symSize: 0x50 }
  - { offset: 0x23B5B, size: 0x8, addend: 0x0, symName: __RINvMNtCs85QQFkKrybG_4core6resultINtB3_6ResultNtCs9bTl5rSDVcL_10proc_macro11TokenStreamNtNtCshA2YSdBGE45_11rustversion5error5ErrorE14unwrap_or_elseNvMB1p_B1n_18into_compile_errorEB1r_, symObjAddr: 0x0, symBinAddr: 0x14D6C, symSize: 0x80 }
  - { offset: 0x23DFD, size: 0x8, addend: 0x0, symName: __RNvXsH_NtCs85QQFkKrybG_4core3fmtNtB5_5ErrorNtB5_5Debug3fmtCshA2YSdBGE45_11rustversion, symObjAddr: 0x33A8, symBinAddr: 0x18114, symSize: 0x40 }
  - { offset: 0x23F4E, size: 0x8, addend: 0x0, symName: __RNvMs7_NtCs85QQFkKrybG_4core3numy11checked_subCshA2YSdBGE45_11rustversion, symObjAddr: 0x11D0, symBinAddr: 0x15F3C, symSize: 0x6C }
  - { offset: 0x24087, size: 0x8, addend: 0x0, symName: __RNvMsC_NtCs85QQFkKrybG_4core3numy16from_ascii_radixCshA2YSdBGE45_11rustversion, symObjAddr: 0x13B8, symBinAddr: 0x16124, symSize: 0x57C }
  - { offset: 0x24359, size: 0x8, addend: 0x0, symName: __RNvNvMs9_NtCs85QQFkKrybG_4core3numj13unchecked_add18precondition_checkCshA2YSdBGE45_11rustversion, symObjAddr: 0x2DE8, symBinAddr: 0x17B54, symSize: 0xB0 }
  - { offset: 0x243ED, size: 0x8, addend: 0x0, symName: __RNvNvMs9_NtCs85QQFkKrybG_4core3numj13unchecked_sub18precondition_checkCshA2YSdBGE45_11rustversion, symObjAddr: 0x2E98, symBinAddr: 0x17C04, symSize: 0xAC }
  - { offset: 0x24558, size: 0x8, addend: 0x0, symName: __RNvMsy_NtCs85QQFkKrybG_4core3numt16from_ascii_radixCshA2YSdBGE45_11rustversion, symObjAddr: 0x2244, symBinAddr: 0x16FB0, symSize: 0x548 }
  - { offset: 0x247CE, size: 0x8, addend: 0x0, symName: __RNvXsB_NtCs85QQFkKrybG_4core3numyNtNtNtB7_3str6traits7FromStr8from_strCshA2YSdBGE45_11rustversion, symObjAddr: 0x3378, symBinAddr: 0x180E4, symSize: 0x30 }
  - { offset: 0x24828, size: 0x8, addend: 0x0, symName: __RNvXsx_NtCs85QQFkKrybG_4core3numtNtNtNtB7_3str6traits7FromStr8from_strCshA2YSdBGE45_11rustversion, symObjAddr: 0x43A0, symBinAddr: 0x1910C, symSize: 0x40 }
  - { offset: 0x2548D, size: 0x8, addend: 0x0, symName: __RNvYNtNtCshA2YSdBGE45_11rustversion7constfn10QualifiersNtNtCs85QQFkKrybG_4core3cmp10PartialOrd2gtB6_, symObjAddr: 0x4408, symBinAddr: 0x19174, symSize: 0x70 }
  - { offset: 0x2558B, size: 0x8, addend: 0x0, symName: __RNvYjNtNtCs85QQFkKrybG_4core3cmp3Ord3maxCshA2YSdBGE45_11rustversion, symObjAddr: 0x4478, symBinAddr: 0x191E4, symSize: 0x80 }
  - { offset: 0x26236, size: 0x8, addend: 0x0, symName: __RNvXsq_NtCs85QQFkKrybG_4core6resultINtB5_6ResultINtNtCsdFlNUEO95cG_5alloc3vec3VecNtNtCshA2YSdBGE45_11rustversion4expr4ExprENtNtB1l_5error5ErrorEINtNtNtB7_3ops9try_trait12FromResidualIBy_NtNtB7_7convert10InfallibleB1X_EE13from_residualB1l_, symObjAddr: 0x4250, symBinAddr: 0x18FBC, symSize: 0x3C }
  - { offset: 0x262BB, size: 0x8, addend: 0x0, symName: __RNvXsq_NtCs85QQFkKrybG_4core6resultINtB5_6ResultNtCs9bTl5rSDVcL_10proc_macro11TokenStreamNtNtCshA2YSdBGE45_11rustversion5error5ErrorEINtNtNtB7_3ops9try_trait12FromResidualIBy_NtNtB7_7convert10InfallibleB1p_EE13from_residualB1t_, symObjAddr: 0x428C, symBinAddr: 0x18FF8, symSize: 0x3C }
  - { offset: 0x26340, size: 0x8, addend: 0x0, symName: __RNvXsq_NtCs85QQFkKrybG_4core6resultINtB5_6ResultNtNtCshA2YSdBGE45_11rustversion4attr4ArgsNtNtBO_5error5ErrorEINtNtNtB7_3ops9try_trait12FromResidualIBy_NtNtB7_7convert10InfallibleB1p_EE13from_residualBO_, symObjAddr: 0x42C8, symBinAddr: 0x19034, symSize: 0x48 }
  - { offset: 0x263C5, size: 0x8, addend: 0x0, symName: __RNvXsq_NtCs85QQFkKrybG_4core6resultINtB5_6ResultNtNtCshA2YSdBGE45_11rustversion4date4DateuEINtNtNtB7_3ops9try_trait12FromResidualIBy_NtNtB7_7convert10InfallibleuEE13from_residualBO_, symObjAddr: 0x4310, symBinAddr: 0x1907C, symSize: 0x24 }
  - { offset: 0x2642C, size: 0x8, addend: 0x0, symName: __RNvXsq_NtCs85QQFkKrybG_4core6resultINtB5_6ResultNtNtCshA2YSdBGE45_11rustversion4expr4ExprNtNtBO_5error5ErrorEINtNtNtB7_3ops9try_trait12FromResidualIBy_NtNtB7_7convert10InfallibleB1p_EE13from_residualBO_, symObjAddr: 0x4334, symBinAddr: 0x190A0, symSize: 0x48 }
  - { offset: 0x264B1, size: 0x8, addend: 0x0, symName: __RNvXsq_NtCs85QQFkKrybG_4core6resultINtB5_6ResultNtNtCshA2YSdBGE45_11rustversion7release7ReleaseuEINtNtNtB7_3ops9try_trait12FromResidualIBy_NtNtB7_7convert10InfallibleuEE13from_residualBO_, symObjAddr: 0x437C, symBinAddr: 0x190E8, symSize: 0x24 }
  - { offset: 0x2665E, size: 0x8, addend: 0x0, symName: __RNvXsp_NtCs85QQFkKrybG_4core6resultINtB5_6ResultINtNtCsdFlNUEO95cG_5alloc3vec3VecNtNtCshA2YSdBGE45_11rustversion4expr4ExprENtNtB1l_5error5ErrorENtNtNtB7_3ops9try_trait3Try6branchB1l_, symObjAddr: 0x3C98, symBinAddr: 0x18A04, symSize: 0x9C }
  - { offset: 0x266DB, size: 0x8, addend: 0x0, symName: __RNvXsp_NtCs85QQFkKrybG_4core6resultINtB5_6ResultNtCs9bTl5rSDVcL_10proc_macro11TokenStreamNtNtCshA2YSdBGE45_11rustversion5error5ErrorENtNtNtB7_3ops9try_trait3Try6branchB1t_, symObjAddr: 0x3D34, symBinAddr: 0x18AA0, symSize: 0x88 }
  - { offset: 0x26759, size: 0x8, addend: 0x0, symName: __RNvXsp_NtCs85QQFkKrybG_4core6resultINtB5_6ResultNtCs9bTl5rSDVcL_10proc_macro5GroupNtNtCshA2YSdBGE45_11rustversion5error5ErrorENtNtNtB7_3ops9try_trait3Try6branchB1m_, symObjAddr: 0x3DBC, symBinAddr: 0x18B28, symSize: 0x9C }
  - { offset: 0x267D6, size: 0x8, addend: 0x0, symName: __RNvXsp_NtCs85QQFkKrybG_4core6resultINtB5_6ResultNtCs9bTl5rSDVcL_10proc_macro7LiteraluENtNtNtB7_3ops9try_trait3Try6branchCshA2YSdBGE45_11rustversion, symObjAddr: 0x3E58, symBinAddr: 0x18BC4, symSize: 0x58 }
  - { offset: 0x26853, size: 0x8, addend: 0x0, symName: __RNvXsp_NtCs85QQFkKrybG_4core6resultINtB5_6ResultNtNtCshA2YSdBGE45_11rustversion4date4DateNtNtBO_5error5ErrorENtNtNtB7_3ops9try_trait3Try6branchBO_, symObjAddr: 0x3EB0, symBinAddr: 0x18C1C, symSize: 0x8C }
  - { offset: 0x268D0, size: 0x8, addend: 0x0, symName: __RNvXsp_NtCs85QQFkKrybG_4core6resultINtB5_6ResultNtNtCshA2YSdBGE45_11rustversion4expr4ExprNtNtBO_5error5ErrorENtNtNtB7_3ops9try_trait3Try6branchBO_, symObjAddr: 0x3F3C, symBinAddr: 0x18CA8, symSize: 0x94 }
  - { offset: 0x2694D, size: 0x8, addend: 0x0, symName: __RNvXsp_NtCs85QQFkKrybG_4core6resultINtB5_6ResultNtNtCshA2YSdBGE45_11rustversion5bound5BoundNtNtBO_5error5ErrorENtNtNtB7_3ops9try_trait3Try6branchBO_, symObjAddr: 0x3FD0, symBinAddr: 0x18D3C, symSize: 0x9C }
  - { offset: 0x269CA, size: 0x8, addend: 0x0, symName: __RNvXsp_NtCs85QQFkKrybG_4core6resultINtB5_6ResultNtNtCshA2YSdBGE45_11rustversion7release7ReleaseNtNtBO_5error5ErrorENtNtNtB7_3ops9try_trait3Try6branchBO_, symObjAddr: 0x406C, symBinAddr: 0x18DD8, symSize: 0x9C }
  - { offset: 0x26A47, size: 0x8, addend: 0x0, symName: __RNvXsp_NtCs85QQFkKrybG_4core6resultINtB5_6ResulttuENtNtNtB7_3ops9try_trait3Try6branchCshA2YSdBGE45_11rustversion, symObjAddr: 0x4108, symBinAddr: 0x18E74, symSize: 0x50 }
  - { offset: 0x26AC3, size: 0x8, addend: 0x0, symName: __RNvXsp_NtCs85QQFkKrybG_4core6resultINtB5_6ResultuNtNtCshA2YSdBGE45_11rustversion5error5ErrorENtNtNtB7_3ops9try_trait3Try6branchBP_, symObjAddr: 0x4158, symBinAddr: 0x18EC4, symSize: 0x78 }
  - { offset: 0x26B41, size: 0x8, addend: 0x0, symName: __RNvXsp_NtCs85QQFkKrybG_4core6resultINtB5_6ResultuuENtNtNtB7_3ops9try_trait3Try6branchCshA2YSdBGE45_11rustversion, symObjAddr: 0x41D0, symBinAddr: 0x18F3C, symSize: 0x38 }
  - { offset: 0x26BBD, size: 0x8, addend: 0x0, symName: __RNvXsp_NtCs85QQFkKrybG_4core6resultINtB5_6ResultyuENtNtNtB7_3ops9try_trait3Try6branchCshA2YSdBGE45_11rustversion, symObjAddr: 0x4208, symBinAddr: 0x18F74, symSize: 0x48 }
  - { offset: 0x279DB, size: 0x8, addend: 0x0, symName: __RNvMNtCs85QQFkKrybG_4core5sliceSNtNtCs9bTl5rSDVcL_10proc_macro12token_stream8IntoIter8last_mutCshA2YSdBGE45_11rustversion, symObjAddr: 0xD00, symBinAddr: 0x15A6C, symSize: 0x50 }
  - { offset: 0x280FA, size: 0x8, addend: 0x0, symName: __RNvXs1_NtNtNtCs85QQFkKrybG_4core3ops8function5implsQNCINvNvNtNtNtNtBb_4iter6traits8iterator8Iterator8for_each4callNtCs9bTl5rSDVcL_10proc_macro9TokenTreeNCINvXsg_B1Q_NtB1Q_11TokenStreamINtNtBZ_7collect12FromIteratorB1O_E9from_iterINtNtNtB11_8adapters5chain5ChainINtNtNtCsdFlNUEO95cG_5alloc3vec9into_iter8IntoIterB1O_ENtNtB1Q_12token_stream8IntoIterEE0E0INtB7_5FnMutTuB1O_EE8call_mutCshA2YSdBGE45_11rustversion, symObjAddr: 0x3244, symBinAddr: 0x17FB0, symSize: 0x40 }
  - { offset: 0x2818B, size: 0x8, addend: 0x0, symName: __RINvNvNtNtNtNtCs85QQFkKrybG_4core4iter6traits8iterator8Iterator4last4someNtCs9bTl5rSDVcL_10proc_macro9TokenTreeECshA2YSdBGE45_11rustversion, symObjAddr: 0x8B8, symBinAddr: 0x15624, symSize: 0x28 }
  - { offset: 0x281CD, size: 0x8, addend: 0x0, symName: __RINvYNtNtCs9bTl5rSDVcL_10proc_macro12token_stream8IntoIterNtNtNtNtCs85QQFkKrybG_4core4iter6traits8iterator8Iterator4foldINtNtB12_6option6OptionNtB7_9TokenTreeEINvNvBU_4last4someB2h_EECshA2YSdBGE45_11rustversion, symObjAddr: 0x91C, symBinAddr: 0x15688, symSize: 0x150 }
  - { offset: 0x28263, size: 0x8, addend: 0x0, symName: __RINvYNtNtCs9bTl5rSDVcL_10proc_macro12token_stream8IntoIterNtNtNtNtCs85QQFkKrybG_4core4iter6traits8iterator8Iterator4folduNCINvNvBU_8for_each4callNtB7_9TokenTreeNCINvXsg_B7_NtB7_11TokenStreamINtNtBY_7collect12FromIteratorB2j_E9from_iterINtNtNtB10_8adapters5chain5ChainINtNtNtCsdFlNUEO95cG_5alloc3vec9into_iter8IntoIterB2j_EB3_EE0E0ECshA2YSdBGE45_11rustversion, symObjAddr: 0xA6C, symBinAddr: 0x157D8, symSize: 0xD8 }
  - { offset: 0x282FD, size: 0x8, addend: 0x0, symName: __RNCINvNvNtNtNtNtCs85QQFkKrybG_4core4iter6traits8iterator8Iterator8for_each4callNtCs9bTl5rSDVcL_10proc_macro9TokenTreeNCINvXsg_B1h_NtB1h_11TokenStreamINtNtBa_7collect12FromIteratorB1f_E9from_iterINtNtCsdFlNUEO95cG_5alloc3vec3VecB1f_EE0E0CshA2YSdBGE45_11rustversion, symObjAddr: 0xB44, symBinAddr: 0x158B0, symSize: 0x3C }
  - { offset: 0x28356, size: 0x8, addend: 0x0, symName: __RNCINvNvNtNtNtNtCs85QQFkKrybG_4core4iter6traits8iterator8Iterator8for_each4callNtCs9bTl5rSDVcL_10proc_macro9TokenTreeNCINvXsg_B1h_NtB1h_11TokenStreamINtNtBa_7collect12FromIteratorB1f_E9from_iterINtNtNtBc_8adapters5chain5ChainINtNtNtCsdFlNUEO95cG_5alloc3vec9into_iter8IntoIterB1f_ENtNtB1h_12token_stream8IntoIterEE0E0CshA2YSdBGE45_11rustversion, symObjAddr: 0xB80, symBinAddr: 0x158EC, symSize: 0x3C }
  - { offset: 0x283AF, size: 0x8, addend: 0x0, symName: __RNCINvNvNtNtNtNtCs85QQFkKrybG_4core4iter6traits8iterator8Iterator8for_each4callNtCs9bTl5rSDVcL_10proc_macro9TokenTreeNCINvXsg_B1h_NtB1h_11TokenStreamINtNtBa_7collect12FromIteratorB1f_E9from_iterQNtNtCshA2YSdBGE45_11rustversion4iter8IterImplE0E0B3b_, symObjAddr: 0xBBC, symBinAddr: 0x15928, symSize: 0x3C }
  - { offset: 0x28408, size: 0x8, addend: 0x0, symName: __RNCINvNvNtNtNtNtCs85QQFkKrybG_4core4iter6traits8iterator8Iterator8for_each4callNtCs9bTl5rSDVcL_10proc_macro9TokenTreeNCINvXsi_B1h_NtB1h_11TokenStreamINtNtBa_7collect6ExtendB1f_E6extendINtNtCsdFlNUEO95cG_5alloc3vec3VecB1f_EE0E0CshA2YSdBGE45_11rustversion, symObjAddr: 0xBF8, symBinAddr: 0x15964, symSize: 0x3C }
  - { offset: 0x28461, size: 0x8, addend: 0x0, symName: __RNCINvNvNtNtNtNtCs85QQFkKrybG_4core4iter6traits8iterator8Iterator8for_each4callNtCs9bTl5rSDVcL_10proc_macro9TokenTreeNCINvXsi_B1h_NtB1h_11TokenStreamINtNtBa_7collect6ExtendB1f_E6extendINtNtNtBc_7sources4once4OnceB1f_EE0E0CshA2YSdBGE45_11rustversion, symObjAddr: 0xC34, symBinAddr: 0x159A0, symSize: 0x3C }
  - { offset: 0x284BA, size: 0x8, addend: 0x0, symName: __RNCINvNvNtNtNtNtCs85QQFkKrybG_4core4iter6traits8iterator8Iterator8for_each4callNtCs9bTl5rSDVcL_10proc_macro9TokenTreeNCINvXsi_B1h_NtB1h_11TokenStreamINtNtBa_7collect6ExtendB1f_E6extendINtNtNtCsdFlNUEO95cG_5alloc3vec5drain5DrainB1f_EE0E0CshA2YSdBGE45_11rustversion, symObjAddr: 0xC70, symBinAddr: 0x159DC, symSize: 0x3C }
  - { offset: 0x28513, size: 0x8, addend: 0x0, symName: __RNCINvNvNtNtNtNtCs85QQFkKrybG_4core4iter6traits8iterator8Iterator8for_each4callNtCs9bTl5rSDVcL_10proc_macro9TokenTreeNCINvXsi_B1h_NtB1h_11TokenStreamINtNtBa_7collect6ExtendB1f_E6extendQNtNtCshA2YSdBGE45_11rustversion4iter8IterImplE0E0B31_, symObjAddr: 0xCAC, symBinAddr: 0x15A18, symSize: 0x3C }
  - { offset: 0x28581, size: 0x8, addend: 0x0, symName: __RNvYNtNtCs9bTl5rSDVcL_10proc_macro12token_stream8IntoIterNtNtNtNtCs85QQFkKrybG_4core4iter6traits8iterator8Iterator4lastCshA2YSdBGE45_11rustversion, symObjAddr: 0x43E0, symBinAddr: 0x1914C, symSize: 0x28 }
  - { offset: 0x2869F, size: 0x8, addend: 0x0, symName: __RNvXNtCs85QQFkKrybG_4core7convertReINtB2_5AsRefNtNtNtCswz7ZwgBZOU_3std3ffi6os_str5OsStrE6as_refCshA2YSdBGE45_11rustversion, symObjAddr: 0x3148, symBinAddr: 0x17EB4, symSize: 0x30 }
  - { offset: 0x28CE8, size: 0x8, addend: 0x0, symName: __RNvXsV_NtCs9bTl5rSDVcL_10proc_macro6bridgeINtNtCs85QQFkKrybG_4core6result6ResultINtNtBJ_6option6OptionNtNtB5_6client11TokenStreamEuEINtNtB5_3rpc6EncodeuE6encodeCshA2YSdBGE45_11rustversion, symObjAddr: 0x33E8, symBinAddr: 0x18154, symSize: 0x110 }
  - { offset: 0x28DAC, size: 0x8, addend: 0x0, symName: __RNvXsV_NtCs9bTl5rSDVcL_10proc_macro6bridgeINtNtCs85QQFkKrybG_4core6result6ResultuNtNtB5_3rpc12PanicMessageEINtB1j_6EncodeuE6encodeCshA2YSdBGE45_11rustversion, symObjAddr: 0x34F8, symBinAddr: 0x18264, symSize: 0x12C }
  - { offset: 0x290A2, size: 0x8, addend: 0x0, symName: __RNvNtCshA2YSdBGE45_11rustversion7constfn12insert_const, symObjAddr: 0x2838, symBinAddr: 0x175A4, symSize: 0x5B0 }
  - { offset: 0x291C6, size: 0x8, addend: 0x0, symName: __RNvXs1_NtCshA2YSdBGE45_11rustversion7constfnNtB5_10QualifiersNtNtCs85QQFkKrybG_4core3cmp9PartialEq2eqB7_, symObjAddr: 0x3210, symBinAddr: 0x17F7C, symSize: 0x34 }
  - { offset: 0x29240, size: 0x8, addend: 0x0, symName: __RNvXs_NtCshA2YSdBGE45_11rustversion7constfnNtB4_10QualifiersNtNtCs85QQFkKrybG_4core3cmp10PartialOrd11partial_cmpB6_, symObjAddr: 0x36BC, symBinAddr: 0x18428, symSize: 0x44 }
  - { offset: 0x29C3E, size: 0x8, addend: 0x0, symName: __RINvXsd_NtCsdFlNUEO95cG_5alloc3vecINtB6_3VecNtNtCshA2YSdBGE45_11rustversion4expr4ExprEINtNtNtNtCs85QQFkKrybG_4core4iter6traits7collect12FromIteratorBG_E9from_iterINtNtB6_9into_iter8IntoIterBG_EEBK_, symObjAddr: 0x8E0, symBinAddr: 0x1564C, symSize: 0x3C }
  - { offset: 0x29E44, size: 0x8, addend: 0x0, symName: __RNvNvMs_NtCsdFlNUEO95cG_5alloc3vecINtB6_3VecppE13from_parts_in18precondition_checkCshA2YSdBGE45_11rustversion, symObjAddr: 0x2F44, symBinAddr: 0x17CB0, symSize: 0xAC }
  - { offset: 0x29EB2, size: 0x8, addend: 0x0, symName: __RNvNvMs_NtCsdFlNUEO95cG_5alloc3vecINtB6_3VecppE17from_raw_parts_in18precondition_checkCshA2YSdBGE45_11rustversion, symObjAddr: 0x2FF0, symBinAddr: 0x17D5C, symSize: 0xAC }
  - { offset: 0x29F20, size: 0x8, addend: 0x0, symName: __RNvNvMs_NtCsdFlNUEO95cG_5alloc3vecINtB6_3VecppE7set_len18precondition_checkCshA2YSdBGE45_11rustversion, symObjAddr: 0x309C, symBinAddr: 0x17E08, symSize: 0xAC }
  - { offset: 0x29F94, size: 0x8, addend: 0x0, symName: __RNvXs0_NtNtCsdFlNUEO95cG_5alloc3vec11spec_extendINtB7_3VecNtNtCshA2YSdBGE45_11rustversion4expr4ExprEINtB5_10SpecExtendBU_INtNtB7_9into_iter8IntoIterBU_EE11spec_extendBY_, symObjAddr: 0x3178, symBinAddr: 0x17EE4, symSize: 0x98 }
  - { offset: 0x2A001, size: 0x8, addend: 0x0, symName: __RNvXs6_NtCsdFlNUEO95cG_5alloc3vecINtB5_3VecNtNtCshA2YSdBGE45_11rustversion4expr4ExprENtNtNtCs85QQFkKrybG_4core3ops5deref5Deref5derefBJ_, symObjAddr: 0x3330, symBinAddr: 0x1809C, symSize: 0x24 }
  - { offset: 0x2A047, size: 0x8, addend: 0x0, symName: __RNvXs7_NtCsdFlNUEO95cG_5alloc3vecINtB5_3VecNtNtCs9bTl5rSDVcL_10proc_macro12token_stream8IntoIterENtNtNtCs85QQFkKrybG_4core3ops5deref8DerefMut9deref_mutCshA2YSdBGE45_11rustversion, symObjAddr: 0x3354, symBinAddr: 0x180C0, symSize: 0x24 }
  - { offset: 0x2A092, size: 0x8, addend: 0x0, symName: __RNvXs_NtNtCsdFlNUEO95cG_5alloc3vec14spec_from_iterINtB6_3VecNtNtCshA2YSdBGE45_11rustversion4expr4ExprEINtB4_12SpecFromIterBW_INtNtB6_9into_iter8IntoIterBW_EE9from_iterB10_, symObjAddr: 0x3700, symBinAddr: 0x1846C, symSize: 0x2F8 }
  - { offset: 0x2A2FD, size: 0x8, addend: 0x0, symName: __RNvXse_NtCsdFlNUEO95cG_5alloc3vecINtB5_3VecNtCs9bTl5rSDVcL_10proc_macro9TokenTreeENtNtNtNtCs85QQFkKrybG_4core4iter6traits7collect12IntoIterator9into_iterCshA2YSdBGE45_11rustversion, symObjAddr: 0x39F8, symBinAddr: 0x18764, symSize: 0xE4 }
  - { offset: 0x2A58F, size: 0x8, addend: 0x0, symName: __RNvXse_NtCsdFlNUEO95cG_5alloc3vecINtB5_3VecNtNtCshA2YSdBGE45_11rustversion4expr4ExprENtNtNtNtCs85QQFkKrybG_4core4iter6traits7collect12IntoIterator9into_iterBJ_, symObjAddr: 0x3ADC, symBinAddr: 0x18848, symSize: 0xDC }
  - { offset: 0x2A882, size: 0x8, addend: 0x0, symName: __RNvXsn_NtCsdFlNUEO95cG_5alloc3vecINtB5_3VecINtNtCs9bTl5rSDVcL_10proc_macro6bridge9TokenTreeNtNtBI_6client11TokenStreamNtB1t_4SpanNtNtBI_6symbol6SymbolEENtNtNtCs85QQFkKrybG_4core3ops4drop4Drop4dropCshA2YSdBGE45_11rustversion, symObjAddr: 0x3BB8, symBinAddr: 0x18924, symSize: 0x38 }
  - { offset: 0x2A932, size: 0x8, addend: 0x0, symName: __RNvXsn_NtCsdFlNUEO95cG_5alloc3vecINtB5_3VecNtCs9bTl5rSDVcL_10proc_macro9TokenTreeENtNtNtCs85QQFkKrybG_4core3ops4drop4Drop4dropCshA2YSdBGE45_11rustversion, symObjAddr: 0x3BF0, symBinAddr: 0x1895C, symSize: 0x38 }
  - { offset: 0x2A9E2, size: 0x8, addend: 0x0, symName: __RNvXsn_NtCsdFlNUEO95cG_5alloc3vecINtB5_3VecNtNtCs9bTl5rSDVcL_10proc_macro12token_stream8IntoIterENtNtNtCs85QQFkKrybG_4core3ops4drop4Drop4dropCshA2YSdBGE45_11rustversion, symObjAddr: 0x3C28, symBinAddr: 0x18994, symSize: 0x38 }
  - { offset: 0x2AA92, size: 0x8, addend: 0x0, symName: __RNvXsn_NtCsdFlNUEO95cG_5alloc3vecINtB5_3VecNtNtCshA2YSdBGE45_11rustversion4expr4ExprENtNtNtCs85QQFkKrybG_4core3ops4drop4Drop4dropBJ_, symObjAddr: 0x3C60, symBinAddr: 0x189CC, symSize: 0x38 }
  - { offset: 0x2ABD6, size: 0x8, addend: 0x0, symName: __RNvXs_NtCsdFlNUEO95cG_5alloc5allocNtB4_6GlobalNtNtCs85QQFkKrybG_4core5alloc9Allocator10deallocateCshA2YSdBGE45_11rustversion, symObjAddr: 0x363C, symBinAddr: 0x183A8, symSize: 0x80 }
  - { offset: 0x2AC9E, size: 0x8, addend: 0x0, symName: __RNvNtCsdFlNUEO95cG_5alloc5alloc15exchange_mallocCshA2YSdBGE45_11rustversion, symObjAddr: 0x278C, symBinAddr: 0x174F8, symSize: 0xAC }
  - { offset: 0x2B3DB, size: 0x8, addend: 0x0, symName: __RINvMNtCsdFlNUEO95cG_5alloc5sliceSNtNtCs9bTl5rSDVcL_10proc_macro12token_stream8IntoIter8into_vecNtNtB5_5alloc6GlobalECshA2YSdBGE45_11rustversion, symObjAddr: 0x644, symBinAddr: 0x153B0, symSize: 0x4C }
  - { offset: 0x2B4FF, size: 0x8, addend: 0x0, symName: __RINvMNtCs85QQFkKrybG_4core6resultINtB3_6ResultNtCs9bTl5rSDVcL_10proc_macro11TokenStreamNtNtCshA2YSdBGE45_11rustversion5error5ErrorE14unwrap_or_elseNvMB1p_B1n_18into_compile_errorEB1r_, symObjAddr: 0x0, symBinAddr: 0x14D6C, symSize: 0x80 }
  - { offset: 0x2B59D, size: 0x8, addend: 0x0, symName: __RINvMNtCs85QQFkKrybG_4core6resultINtB3_6ResultNtCs9bTl5rSDVcL_10proc_macro7LiteralNtNtCshA2YSdBGE45_11rustversion5error5ErrorE7map_erruINvNtB5_3mem4dropB1i_EEB1m_, symObjAddr: 0x80, symBinAddr: 0x14DEC, symSize: 0x90 }
  - { offset: 0x2B644, size: 0x8, addend: 0x0, symName: __RINvMNtCs85QQFkKrybG_4core6resultINtB3_6ResultNtNtCshA2YSdBGE45_11rustversion4attr4ArgsNtNtBM_5error5ErrorE8and_thenNtCs9bTl5rSDVcL_10proc_macro11TokenStreamNCNvBM_4attr0EBM_, symObjAddr: 0x110, symBinAddr: 0x14E7C, symSize: 0xBC }
  - { offset: 0x2B6F0, size: 0x8, addend: 0x0, symName: __RINvMNtCs85QQFkKrybG_4core6resultINtB3_6ResultNtNtCshA2YSdBGE45_11rustversion4date4DateNtNtBM_5error5ErrorE3mapNtNtBM_5bound5BoundNcNtB1L_7Nightly0EBM_, symObjAddr: 0x1CC, symBinAddr: 0x14F38, symSize: 0xC8 }
  - { offset: 0x2B783, size: 0x8, addend: 0x0, symName: __RINvMNtCs85QQFkKrybG_4core6resultINtB3_6ResultNtNtCshA2YSdBGE45_11rustversion4date4DateuE7map_errNtNtBM_5error5ErrorNCNvBK_5parse0EBM_, symObjAddr: 0x294, symBinAddr: 0x15000, symSize: 0xB8 }
  - { offset: 0x2B82E, size: 0x8, addend: 0x0, symName: __RINvMNtCs85QQFkKrybG_4core6resultINtB3_6ResultNtNtCshA2YSdBGE45_11rustversion7release7ReleaseNtNtBM_5error5ErrorE3mapNtNtBM_5bound5BoundNcNtB1R_6Stable0EBM_, symObjAddr: 0x34C, symBinAddr: 0x150B8, symSize: 0xEC }
  - { offset: 0x2B8C1, size: 0x8, addend: 0x0, symName: __RINvMNtCs85QQFkKrybG_4core6resultINtB3_6ResultNtNtCshA2YSdBGE45_11rustversion7release7ReleaseuE7map_errNtNtBM_5error5ErrorNCNvBK_5parse0EBM_, symObjAddr: 0x438, symBinAddr: 0x151A4, symSize: 0xC8 }
  - { offset: 0x2B968, size: 0x8, addend: 0x0, symName: __RINvMNtCs85QQFkKrybG_4core6resultINtB3_6ResulttNtNtNtB5_3num5error13ParseIntErrorE7map_erruINvNtB5_3mem4dropBJ_EECshA2YSdBGE45_11rustversion, symObjAddr: 0x500, symBinAddr: 0x1526C, symSize: 0x64 }
  - { offset: 0x2B9FA, size: 0x8, addend: 0x0, symName: __RINvMNtCs85QQFkKrybG_4core6resultINtB3_6ResultuNtNtCshA2YSdBGE45_11rustversion5error5ErrorE7map_erruINvNtB5_3mem4dropBJ_EEBN_, symObjAddr: 0x564, symBinAddr: 0x152D0, symSize: 0x7C }
  - { offset: 0x2BA8D, size: 0x8, addend: 0x0, symName: __RINvMNtCs85QQFkKrybG_4core6resultINtB3_6ResultyNtNtNtB5_3num5error13ParseIntErrorE7map_erruINvNtB5_3mem4dropBJ_EECshA2YSdBGE45_11rustversion, symObjAddr: 0x5E0, symBinAddr: 0x1534C, symSize: 0x64 }
  - { offset: 0x2BE15, size: 0x8, addend: 0x0, symName: __RINvMs_NtCsdFlNUEO95cG_5alloc3vecINtB5_3VecNtCs9bTl5rSDVcL_10proc_macro9TokenTreeE5drainNtNtNtCs85QQFkKrybG_4core3ops5range9RangeFullECshA2YSdBGE45_11rustversion, symObjAddr: 0x690, symBinAddr: 0x153FC, symSize: 0x184 }
  - { offset: 0x2C2BB, size: 0x8, addend: 0x0, symName: __RINvMs_NtNtCs85QQFkKrybG_4core3fmt2rtNtB7_9Arguments6new_v1Kj1_KBW_ECshA2YSdBGE45_11rustversion, symObjAddr: 0x814, symBinAddr: 0x15580, symSize: 0x50 }
  - { offset: 0x2C305, size: 0x8, addend: 0x0, symName: __RINvMs_NtNtCs85QQFkKrybG_4core3fmt2rtNtB7_9Arguments6new_v1Kj2_Kj1_ECshA2YSdBGE45_11rustversion, symObjAddr: 0x864, symBinAddr: 0x155D0, symSize: 0x54 }
  - { offset: 0x2C342, size: 0x8, addend: 0x0, symName: __RNvMNtCs85QQFkKrybG_4core4timeNtB2_8Duration7as_secsCshA2YSdBGE45_11rustversion, symObjAddr: 0xCE8, symBinAddr: 0x15A54, symSize: 0x18 }
  - { offset: 0x2C426, size: 0x8, addend: 0x0, symName: __RNvXs3_NtNtCswz7ZwgBZOU_3std3ffi6os_strNtB5_8OsStringINtNtNtCs85QQFkKrybG_4core3ops5index5IndexNtNtBU_5range9RangeFullE5indexCshA2YSdBGE45_11rustversion, symObjAddr: 0x3284, symBinAddr: 0x17FF0, symSize: 0x80 }
  - { offset: 0x2C535, size: 0x8, addend: 0x0, symName: __RNvXs5_NtNtCswz7ZwgBZOU_3std3ffi6os_strNtB5_8OsStringNtNtNtCs85QQFkKrybG_4core3ops5deref5Deref5derefCshA2YSdBGE45_11rustversion, symObjAddr: 0x3304, symBinAddr: 0x18070, symSize: 0x2C }
  - { offset: 0x2C569, size: 0x8, addend: 0x0, symName: __RNvXsW_NtNtCswz7ZwgBZOU_3std3ffi6os_streINtNtCs85QQFkKrybG_4core7convert5AsRefNtB5_5OsStrE6as_refCshA2YSdBGE45_11rustversion, symObjAddr: 0x3624, symBinAddr: 0x18390, symSize: 0x18 }
  - { offset: 0x2C5B0, size: 0x8, addend: 0x0, symName: __RNvMNtCs85QQFkKrybG_4core6resultINtB2_6ResultNtNtB4_4time8DurationNtNtCswz7ZwgBZOU_3std4time15SystemTimeErrorE2okCshA2YSdBGE45_11rustversion, symObjAddr: 0xD50, symBinAddr: 0x15ABC, symSize: 0x68 }
  - { offset: 0x2C604, size: 0x8, addend: 0x0, symName: __RNvMNtCs85QQFkKrybG_4core6resultINtB2_6ResultuNtNtB4_3fmt5ErrorE6expectCshA2YSdBGE45_11rustversion, symObjAddr: 0xDB8, symBinAddr: 0x15B24, symSize: 0x78 }
  - { offset: 0x2C666, size: 0x8, addend: 0x0, symName: __RNvMNtCsdFlNUEO95cG_5alloc3vecINtB2_3VecNtCs9bTl5rSDVcL_10proc_macro9TokenTreeE3newCshA2YSdBGE45_11rustversion, symObjAddr: 0xE30, symBinAddr: 0x15B9C, symSize: 0x14 }
  - { offset: 0x2C683, size: 0x8, addend: 0x0, symName: __RNvMNtCsdFlNUEO95cG_5alloc3vecINtB2_3VecNtNtCshA2YSdBGE45_11rustversion4expr4ExprE3newBG_, symObjAddr: 0xE44, symBinAddr: 0x15BB0, symSize: 0x14 }
  - { offset: 0x2C82D, size: 0x8, addend: 0x0, symName: __RNvMNtCsdFlNUEO95cG_5alloc5allocNtB2_6Global10alloc_implCshA2YSdBGE45_11rustversion, symObjAddr: 0xE58, symBinAddr: 0x15BC4, symSize: 0x1FC }
  - { offset: 0x2CBCC, size: 0x8, addend: 0x0, symName: __RNvMNtCshA2YSdBGE45_11rustversion7constfnNtB2_10Qualifiers10from_ident, symObjAddr: 0x1054, symBinAddr: 0x15DC0, symSize: 0x17C }
  - { offset: 0x2CC4C, size: 0x8, addend: 0x0, symName: __RNvMs9_NtCs85QQFkKrybG_4core3fmtNtB5_9Formatter9write_fmtCshA2YSdBGE45_11rustversion, symObjAddr: 0x123C, symBinAddr: 0x15FA8, symSize: 0x17C }
  - { offset: 0x2CE02, size: 0x8, addend: 0x0, symName: __RNvMs_NtCsdFlNUEO95cG_5alloc3vecINtB4_3VecNtCs9bTl5rSDVcL_10proc_macro9TokenTreeE17from_raw_parts_inCshA2YSdBGE45_11rustversion, symObjAddr: 0x1934, symBinAddr: 0x166A0, symSize: 0xA8 }
  - { offset: 0x2CF88, size: 0x8, addend: 0x0, symName: __RNvMs_NtCsdFlNUEO95cG_5alloc3vecINtB4_3VecNtCs9bTl5rSDVcL_10proc_macro9TokenTreeE4pushCshA2YSdBGE45_11rustversion, symObjAddr: 0x19DC, symBinAddr: 0x16748, symSize: 0x24 }
  - { offset: 0x2D0B9, size: 0x8, addend: 0x0, symName: __RNvMs_NtCsdFlNUEO95cG_5alloc3vecINtB4_3VecNtCs9bTl5rSDVcL_10proc_macro9TokenTreeE8push_mutCshA2YSdBGE45_11rustversion, symObjAddr: 0x1A00, symBinAddr: 0x1676C, symSize: 0x108 }
  - { offset: 0x2D33F, size: 0x8, addend: 0x0, symName: __RNvMs_NtCsdFlNUEO95cG_5alloc3vecINtB4_3VecNtNtCs9bTl5rSDVcL_10proc_macro12token_stream8IntoIterE12as_mut_sliceCshA2YSdBGE45_11rustversion, symObjAddr: 0x1B08, symBinAddr: 0x16874, symSize: 0x6C }
  - { offset: 0x2D4E2, size: 0x8, addend: 0x0, symName: __RNvMs_NtCsdFlNUEO95cG_5alloc3vecINtB4_3VecNtNtCs9bTl5rSDVcL_10proc_macro12token_stream8IntoIterE17from_raw_parts_inCshA2YSdBGE45_11rustversion, symObjAddr: 0x1B74, symBinAddr: 0x168E0, symSize: 0xA8 }
  - { offset: 0x2D78E, size: 0x8, addend: 0x0, symName: __RNvMs_NtCsdFlNUEO95cG_5alloc3vecINtB4_3VecNtNtCs9bTl5rSDVcL_10proc_macro12token_stream8IntoIterE3popCshA2YSdBGE45_11rustversion, symObjAddr: 0x1C1C, symBinAddr: 0x16988, symSize: 0xFC }
  - { offset: 0x2D923, size: 0x8, addend: 0x0, symName: __RNvMs_NtCsdFlNUEO95cG_5alloc3vecINtB4_3VecNtNtCs9bTl5rSDVcL_10proc_macro12token_stream8IntoIterE4pushCshA2YSdBGE45_11rustversion, symObjAddr: 0x1D18, symBinAddr: 0x16A84, symSize: 0x24 }
  - { offset: 0x2DA54, size: 0x8, addend: 0x0, symName: __RNvMs_NtCsdFlNUEO95cG_5alloc3vecINtB4_3VecNtNtCs9bTl5rSDVcL_10proc_macro12token_stream8IntoIterE8push_mutCshA2YSdBGE45_11rustversion, symObjAddr: 0x1D3C, symBinAddr: 0x16AA8, symSize: 0x100 }
  - { offset: 0x2DD15, size: 0x8, addend: 0x0, symName: __RNvMs_NtCsdFlNUEO95cG_5alloc3vecINtB4_3VecNtNtCshA2YSdBGE45_11rustversion4expr4ExprE15append_elementsBI_, symObjAddr: 0x1E3C, symBinAddr: 0x16BA8, symSize: 0xE0 }
  - { offset: 0x2DEA7, size: 0x8, addend: 0x0, symName: __RNvMs_NtCsdFlNUEO95cG_5alloc3vecINtB4_3VecNtNtCshA2YSdBGE45_11rustversion4expr4ExprE4pushBI_, symObjAddr: 0x1F1C, symBinAddr: 0x16C88, symSize: 0x24 }
  - { offset: 0x2E00F, size: 0x8, addend: 0x0, symName: __RNvMs_NtCsdFlNUEO95cG_5alloc3vecINtB4_3VecNtNtCshA2YSdBGE45_11rustversion4expr4ExprE7reserveBI_, symObjAddr: 0x1F40, symBinAddr: 0x16CAC, symSize: 0xC8 }
  - { offset: 0x2E204, size: 0x8, addend: 0x0, symName: __RNvMs_NtCsdFlNUEO95cG_5alloc3vecINtB4_3VecNtNtCshA2YSdBGE45_11rustversion4expr4ExprE8as_sliceBI_, symObjAddr: 0x2008, symBinAddr: 0x16D74, symSize: 0x6C }
  - { offset: 0x2E3AA, size: 0x8, addend: 0x0, symName: __RNvMs_NtCsdFlNUEO95cG_5alloc3vecINtB4_3VecNtNtCshA2YSdBGE45_11rustversion4expr4ExprE8push_mutBI_, symObjAddr: 0x2074, symBinAddr: 0x16DE0, symSize: 0x100 }
  - { offset: 0x2E55E, size: 0x8, addend: 0x0, symName: __RNvMs_NtNtCs85QQFkKrybG_4core3fmt2rtNtB6_9Arguments16new_v1_formattedCshA2YSdBGE45_11rustversion, symObjAddr: 0x2174, symBinAddr: 0x16EE0, symSize: 0x48 }
  - { offset: 0x2E631, size: 0x8, addend: 0x0, symName: __RNvMsl_NtNtCswz7ZwgBZOU_3std3ffi6os_strNtB5_5OsStr6to_strCshA2YSdBGE45_11rustversion, symObjAddr: 0x21BC, symBinAddr: 0x16F28, symSize: 0x88 }
  - { offset: 0x2F044, size: 0x8, addend: 0x0, symName: __RINvNtNtCs9bTl5rSDVcL_10proc_macro6bridge6client10run_clientNtB2_11TokenStreamINtNtCs85QQFkKrybG_4core6option6OptionBW_ENCNCINvMs6_B2_INtB2_6ClientNtB6_11TokenStreamB2l_E7expand1NvCshA2YSdBGE45_11rustversion3cfgE00EB2S_, symObjAddr: 0x0, symBinAddr: 0x19264, symSize: 0x21C }
  - { offset: 0x30830, size: 0x8, addend: 0x0, symName: __RNCINvNtNtCs9bTl5rSDVcL_10proc_macro6bridge6client10run_clientNtB4_11TokenStreamINtNtCs85QQFkKrybG_4core6option6OptionBY_ENCNCINvMs6_B4_INtB4_6ClientNtB8_11TokenStreamB2n_E7expand1NvCshA2YSdBGE45_11rustversion3cfgE00E0B2U_, symObjAddr: 0x16F8, symBinAddr: 0x1A95C, symSize: 0x318 }
  - { offset: 0x30A55, size: 0x8, addend: 0x0, symName: __RNCINvNtNtCs9bTl5rSDVcL_10proc_macro6bridge6client10run_clientTNtB4_11TokenStreamBZ_EINtNtCs85QQFkKrybG_4core6option6OptionBZ_ENCNCINvMs7_B4_INtB4_6ClientTNtB8_11TokenStreamB2t_EB2t_E7expand2NvCshA2YSdBGE45_11rustversion3allE00E0B35_, symObjAddr: 0x1A10, symBinAddr: 0x1AC74, symSize: 0x338 }
  - { offset: 0x30C7A, size: 0x8, addend: 0x0, symName: __RNCINvNtNtCs9bTl5rSDVcL_10proc_macro6bridge6client10run_clientTNtB4_11TokenStreamBZ_EINtNtCs85QQFkKrybG_4core6option6OptionBZ_ENCNCINvMs7_B4_INtB4_6ClientTNtB8_11TokenStreamB2t_EB2t_E7expand2NvCshA2YSdBGE45_11rustversion3anyE00E0B35_, symObjAddr: 0x1D48, symBinAddr: 0x1AFAC, symSize: 0x338 }
  - { offset: 0x30E9F, size: 0x8, addend: 0x0, symName: __RNCINvNtNtCs9bTl5rSDVcL_10proc_macro6bridge6client10run_clientTNtB4_11TokenStreamBZ_EINtNtCs85QQFkKrybG_4core6option6OptionBZ_ENCNCINvMs7_B4_INtB4_6ClientTNtB8_11TokenStreamB2t_EB2t_E7expand2NvCshA2YSdBGE45_11rustversion3notE00E0B35_, symObjAddr: 0x2080, symBinAddr: 0x1B2E4, symSize: 0x338 }
  - { offset: 0x310C4, size: 0x8, addend: 0x0, symName: __RNCINvNtNtCs9bTl5rSDVcL_10proc_macro6bridge6client10run_clientTNtB4_11TokenStreamBZ_EINtNtCs85QQFkKrybG_4core6option6OptionBZ_ENCNCINvMs7_B4_INtB4_6ClientTNtB8_11TokenStreamB2t_EB2t_E7expand2NvCshA2YSdBGE45_11rustversion4attrE00E0B35_, symObjAddr: 0x23B8, symBinAddr: 0x1B61C, symSize: 0x338 }
  - { offset: 0x312E9, size: 0x8, addend: 0x0, symName: __RNCINvNtNtCs9bTl5rSDVcL_10proc_macro6bridge6client10run_clientTNtB4_11TokenStreamBZ_EINtNtCs85QQFkKrybG_4core6option6OptionBZ_ENCNCINvMs7_B4_INtB4_6ClientTNtB8_11TokenStreamB2t_EB2t_E7expand2NvCshA2YSdBGE45_11rustversion4betaE00E0B35_, symObjAddr: 0x26F0, symBinAddr: 0x1B954, symSize: 0x338 }
  - { offset: 0x3150E, size: 0x8, addend: 0x0, symName: __RNCINvNtNtCs9bTl5rSDVcL_10proc_macro6bridge6client10run_clientTNtB4_11TokenStreamBZ_EINtNtCs85QQFkKrybG_4core6option6OptionBZ_ENCNCINvMs7_B4_INtB4_6ClientTNtB8_11TokenStreamB2t_EB2t_E7expand2NvCshA2YSdBGE45_11rustversion5sinceE00E0B35_, symObjAddr: 0x2A28, symBinAddr: 0x1BC8C, symSize: 0x338 }
  - { offset: 0x31733, size: 0x8, addend: 0x0, symName: __RNCINvNtNtCs9bTl5rSDVcL_10proc_macro6bridge6client10run_clientTNtB4_11TokenStreamBZ_EINtNtCs85QQFkKrybG_4core6option6OptionBZ_ENCNCINvMs7_B4_INtB4_6ClientTNtB8_11TokenStreamB2t_EB2t_E7expand2NvCshA2YSdBGE45_11rustversion6beforeE00E0B35_, symObjAddr: 0x2D60, symBinAddr: 0x1BFC4, symSize: 0x338 }
  - { offset: 0x31958, size: 0x8, addend: 0x0, symName: __RNCINvNtNtCs9bTl5rSDVcL_10proc_macro6bridge6client10run_clientTNtB4_11TokenStreamBZ_EINtNtCs85QQFkKrybG_4core6option6OptionBZ_ENCNCINvMs7_B4_INtB4_6ClientTNtB8_11TokenStreamB2t_EB2t_E7expand2NvCshA2YSdBGE45_11rustversion6stableE00E0B35_, symObjAddr: 0x3098, symBinAddr: 0x1C2FC, symSize: 0x338 }
  - { offset: 0x31B7D, size: 0x8, addend: 0x0, symName: __RNCINvNtNtCs9bTl5rSDVcL_10proc_macro6bridge6client10run_clientTNtB4_11TokenStreamBZ_EINtNtCs85QQFkKrybG_4core6option6OptionBZ_ENCNCINvMs7_B4_INtB4_6ClientTNtB8_11TokenStreamB2t_EB2t_E7expand2NvCshA2YSdBGE45_11rustversion7nightlyE00E0B35_, symObjAddr: 0x33D0, symBinAddr: 0x1C634, symSize: 0x338 }
  - { offset: 0x31DA7, size: 0x8, addend: 0x0, symName: __RNCNCINvNtNtCs9bTl5rSDVcL_10proc_macro6bridge6client10run_clientNtB6_11TokenStreamINtNtCs85QQFkKrybG_4core6option6OptionB10_ENCNCINvMs6_B6_INtB6_6ClientNtBa_11TokenStreamB2q_E7expand1NvCshA2YSdBGE45_11rustversion3cfgE00E00B2X_, symObjAddr: 0x3904, symBinAddr: 0x1CB68, symSize: 0x28 }
  - { offset: 0x31E01, size: 0x8, addend: 0x0, symName: __RNCNCINvNtNtCs9bTl5rSDVcL_10proc_macro6bridge6client10run_clientTNtB6_11TokenStreamB11_EINtNtCs85QQFkKrybG_4core6option6OptionB11_ENCNCINvMs7_B6_INtB6_6ClientTNtBa_11TokenStreamB2x_EB2x_E7expand2NvCshA2YSdBGE45_11rustversion3allE00E00B39_, symObjAddr: 0x392C, symBinAddr: 0x1CB90, symSize: 0x24 }
  - { offset: 0x31E5D, size: 0x8, addend: 0x0, symName: __RNCNCINvNtNtCs9bTl5rSDVcL_10proc_macro6bridge6client10run_clientTNtB6_11TokenStreamB11_EINtNtCs85QQFkKrybG_4core6option6OptionB11_ENCNCINvMs7_B6_INtB6_6ClientTNtBa_11TokenStreamB2x_EB2x_E7expand2NvCshA2YSdBGE45_11rustversion3anyE00E00B39_, symObjAddr: 0x3950, symBinAddr: 0x1CBB4, symSize: 0x24 }
  - { offset: 0x31EB9, size: 0x8, addend: 0x0, symName: __RNCNCINvNtNtCs9bTl5rSDVcL_10proc_macro6bridge6client10run_clientTNtB6_11TokenStreamB11_EINtNtCs85QQFkKrybG_4core6option6OptionB11_ENCNCINvMs7_B6_INtB6_6ClientTNtBa_11TokenStreamB2x_EB2x_E7expand2NvCshA2YSdBGE45_11rustversion3notE00E00B39_, symObjAddr: 0x3974, symBinAddr: 0x1CBD8, symSize: 0x24 }
  - { offset: 0x31F15, size: 0x8, addend: 0x0, symName: __RNCNCINvNtNtCs9bTl5rSDVcL_10proc_macro6bridge6client10run_clientTNtB6_11TokenStreamB11_EINtNtCs85QQFkKrybG_4core6option6OptionB11_ENCNCINvMs7_B6_INtB6_6ClientTNtBa_11TokenStreamB2x_EB2x_E7expand2NvCshA2YSdBGE45_11rustversion4attrE00E00B39_, symObjAddr: 0x3998, symBinAddr: 0x1CBFC, symSize: 0x24 }
  - { offset: 0x31F71, size: 0x8, addend: 0x0, symName: __RNCNCINvNtNtCs9bTl5rSDVcL_10proc_macro6bridge6client10run_clientTNtB6_11TokenStreamB11_EINtNtCs85QQFkKrybG_4core6option6OptionB11_ENCNCINvMs7_B6_INtB6_6ClientTNtBa_11TokenStreamB2x_EB2x_E7expand2NvCshA2YSdBGE45_11rustversion4betaE00E00B39_, symObjAddr: 0x39BC, symBinAddr: 0x1CC20, symSize: 0x24 }
  - { offset: 0x31FCD, size: 0x8, addend: 0x0, symName: __RNCNCINvNtNtCs9bTl5rSDVcL_10proc_macro6bridge6client10run_clientTNtB6_11TokenStreamB11_EINtNtCs85QQFkKrybG_4core6option6OptionB11_ENCNCINvMs7_B6_INtB6_6ClientTNtBa_11TokenStreamB2x_EB2x_E7expand2NvCshA2YSdBGE45_11rustversion5sinceE00E00B39_, symObjAddr: 0x39E0, symBinAddr: 0x1CC44, symSize: 0x24 }
  - { offset: 0x32029, size: 0x8, addend: 0x0, symName: __RNCNCINvNtNtCs9bTl5rSDVcL_10proc_macro6bridge6client10run_clientTNtB6_11TokenStreamB11_EINtNtCs85QQFkKrybG_4core6option6OptionB11_ENCNCINvMs7_B6_INtB6_6ClientTNtBa_11TokenStreamB2x_EB2x_E7expand2NvCshA2YSdBGE45_11rustversion6beforeE00E00B39_, symObjAddr: 0x3A04, symBinAddr: 0x1CC68, symSize: 0x24 }
  - { offset: 0x32085, size: 0x8, addend: 0x0, symName: __RNCNCINvNtNtCs9bTl5rSDVcL_10proc_macro6bridge6client10run_clientTNtB6_11TokenStreamB11_EINtNtCs85QQFkKrybG_4core6option6OptionB11_ENCNCINvMs7_B6_INtB6_6ClientTNtBa_11TokenStreamB2x_EB2x_E7expand2NvCshA2YSdBGE45_11rustversion6stableE00E00B39_, symObjAddr: 0x3A28, symBinAddr: 0x1CC8C, symSize: 0x24 }
  - { offset: 0x320E1, size: 0x8, addend: 0x0, symName: __RNCNCINvNtNtCs9bTl5rSDVcL_10proc_macro6bridge6client10run_clientTNtB6_11TokenStreamB11_EINtNtCs85QQFkKrybG_4core6option6OptionB11_ENCNCINvMs7_B6_INtB6_6ClientTNtBa_11TokenStreamB2x_EB2x_E7expand2NvCshA2YSdBGE45_11rustversion7nightlyE00E00B39_, symObjAddr: 0x3A4C, symBinAddr: 0x1CCB0, symSize: 0x24 }
  - { offset: 0x32161, size: 0x8, addend: 0x0, symName: __RNCNCINvMs6_NtNtCs9bTl5rSDVcL_10proc_macro6bridge6clientINtBa_6ClientNtBe_11TokenStreamB15_E7expand1NvCshA2YSdBGE45_11rustversion3cfgE00B1C_, symObjAddr: 0x3708, symBinAddr: 0x1C96C, symSize: 0x28 }
  - { offset: 0x321AA, size: 0x8, addend: 0x0, symName: __RNCINvMs6_NtNtCs9bTl5rSDVcL_10proc_macro6bridge6clientINtB8_6ClientNtBc_11TokenStreamB13_E7expand1NvCshA2YSdBGE45_11rustversion3cfgE0B1A_, symObjAddr: 0x1518, symBinAddr: 0x1A77C, symSize: 0x30 }
  - { offset: 0x32216, size: 0x8, addend: 0x0, symName: __RINvNtNtCs9bTl5rSDVcL_10proc_macro6bridge6client10run_clientNtB2_11TokenStreamINtNtCs85QQFkKrybG_4core6option6OptionBW_ENCNCINvMs6_B2_INtB2_6ClientNtB6_11TokenStreamB2l_E7expand1NvCshA2YSdBGE45_11rustversion3cfgE00EB2S_, symObjAddr: 0x0, symBinAddr: 0x19264, symSize: 0x21C }
  - { offset: 0x324B9, size: 0x8, addend: 0x0, symName: __RNCNCINvMs7_NtNtCs9bTl5rSDVcL_10proc_macro6bridge6clientINtBa_6ClientTNtBe_11TokenStreamB16_EB16_E7expand2NvCshA2YSdBGE45_11rustversion3allE00B1I_, symObjAddr: 0x3730, symBinAddr: 0x1C994, symSize: 0x34 }
  - { offset: 0x3252B, size: 0x8, addend: 0x0, symName: __RNCNCINvMs7_NtNtCs9bTl5rSDVcL_10proc_macro6bridge6clientINtBa_6ClientTNtBe_11TokenStreamB16_EB16_E7expand2NvCshA2YSdBGE45_11rustversion3anyE00B1I_, symObjAddr: 0x3764, symBinAddr: 0x1C9C8, symSize: 0x34 }
  - { offset: 0x3259D, size: 0x8, addend: 0x0, symName: __RNCNCINvMs7_NtNtCs9bTl5rSDVcL_10proc_macro6bridge6clientINtBa_6ClientTNtBe_11TokenStreamB16_EB16_E7expand2NvCshA2YSdBGE45_11rustversion3notE00B1I_, symObjAddr: 0x3798, symBinAddr: 0x1C9FC, symSize: 0x34 }
  - { offset: 0x3260F, size: 0x8, addend: 0x0, symName: __RNCNCINvMs7_NtNtCs9bTl5rSDVcL_10proc_macro6bridge6clientINtBa_6ClientTNtBe_11TokenStreamB16_EB16_E7expand2NvCshA2YSdBGE45_11rustversion4attrE00B1I_, symObjAddr: 0x37CC, symBinAddr: 0x1CA30, symSize: 0x34 }
  - { offset: 0x32681, size: 0x8, addend: 0x0, symName: __RNCNCINvMs7_NtNtCs9bTl5rSDVcL_10proc_macro6bridge6clientINtBa_6ClientTNtBe_11TokenStreamB16_EB16_E7expand2NvCshA2YSdBGE45_11rustversion4betaE00B1I_, symObjAddr: 0x3800, symBinAddr: 0x1CA64, symSize: 0x34 }
  - { offset: 0x326F3, size: 0x8, addend: 0x0, symName: __RNCNCINvMs7_NtNtCs9bTl5rSDVcL_10proc_macro6bridge6clientINtBa_6ClientTNtBe_11TokenStreamB16_EB16_E7expand2NvCshA2YSdBGE45_11rustversion5sinceE00B1I_, symObjAddr: 0x3834, symBinAddr: 0x1CA98, symSize: 0x34 }
  - { offset: 0x32765, size: 0x8, addend: 0x0, symName: __RNCNCINvMs7_NtNtCs9bTl5rSDVcL_10proc_macro6bridge6clientINtBa_6ClientTNtBe_11TokenStreamB16_EB16_E7expand2NvCshA2YSdBGE45_11rustversion6beforeE00B1I_, symObjAddr: 0x3868, symBinAddr: 0x1CACC, symSize: 0x34 }
  - { offset: 0x327D7, size: 0x8, addend: 0x0, symName: __RNCNCINvMs7_NtNtCs9bTl5rSDVcL_10proc_macro6bridge6clientINtBa_6ClientTNtBe_11TokenStreamB16_EB16_E7expand2NvCshA2YSdBGE45_11rustversion6stableE00B1I_, symObjAddr: 0x389C, symBinAddr: 0x1CB00, symSize: 0x34 }
  - { offset: 0x32849, size: 0x8, addend: 0x0, symName: __RNCNCINvMs7_NtNtCs9bTl5rSDVcL_10proc_macro6bridge6clientINtBa_6ClientTNtBe_11TokenStreamB16_EB16_E7expand2NvCshA2YSdBGE45_11rustversion7nightlyE00B1I_, symObjAddr: 0x38D0, symBinAddr: 0x1CB34, symSize: 0x34 }
  - { offset: 0x328BC, size: 0x8, addend: 0x0, symName: __RNCINvMs7_NtNtCs9bTl5rSDVcL_10proc_macro6bridge6clientINtB8_6ClientTNtBc_11TokenStreamB14_EB14_E7expand2NvCshA2YSdBGE45_11rustversion3allE0B1G_, symObjAddr: 0x1548, symBinAddr: 0x1A7AC, symSize: 0x30 }
  - { offset: 0x32905, size: 0x8, addend: 0x0, symName: __RNCINvMs7_NtNtCs9bTl5rSDVcL_10proc_macro6bridge6clientINtB8_6ClientTNtBc_11TokenStreamB14_EB14_E7expand2NvCshA2YSdBGE45_11rustversion3anyE0B1G_, symObjAddr: 0x1578, symBinAddr: 0x1A7DC, symSize: 0x30 }
  - { offset: 0x3294E, size: 0x8, addend: 0x0, symName: __RNCINvMs7_NtNtCs9bTl5rSDVcL_10proc_macro6bridge6clientINtB8_6ClientTNtBc_11TokenStreamB14_EB14_E7expand2NvCshA2YSdBGE45_11rustversion3notE0B1G_, symObjAddr: 0x15A8, symBinAddr: 0x1A80C, symSize: 0x30 }
  - { offset: 0x32997, size: 0x8, addend: 0x0, symName: __RNCINvMs7_NtNtCs9bTl5rSDVcL_10proc_macro6bridge6clientINtB8_6ClientTNtBc_11TokenStreamB14_EB14_E7expand2NvCshA2YSdBGE45_11rustversion4attrE0B1G_, symObjAddr: 0x15D8, symBinAddr: 0x1A83C, symSize: 0x30 }
  - { offset: 0x329E0, size: 0x8, addend: 0x0, symName: __RNCINvMs7_NtNtCs9bTl5rSDVcL_10proc_macro6bridge6clientINtB8_6ClientTNtBc_11TokenStreamB14_EB14_E7expand2NvCshA2YSdBGE45_11rustversion4betaE0B1G_, symObjAddr: 0x1608, symBinAddr: 0x1A86C, symSize: 0x30 }
  - { offset: 0x32A29, size: 0x8, addend: 0x0, symName: __RNCINvMs7_NtNtCs9bTl5rSDVcL_10proc_macro6bridge6clientINtB8_6ClientTNtBc_11TokenStreamB14_EB14_E7expand2NvCshA2YSdBGE45_11rustversion5sinceE0B1G_, symObjAddr: 0x1638, symBinAddr: 0x1A89C, symSize: 0x30 }
  - { offset: 0x32A72, size: 0x8, addend: 0x0, symName: __RNCINvMs7_NtNtCs9bTl5rSDVcL_10proc_macro6bridge6clientINtB8_6ClientTNtBc_11TokenStreamB14_EB14_E7expand2NvCshA2YSdBGE45_11rustversion6beforeE0B1G_, symObjAddr: 0x1668, symBinAddr: 0x1A8CC, symSize: 0x30 }
  - { offset: 0x32ABB, size: 0x8, addend: 0x0, symName: __RNCINvMs7_NtNtCs9bTl5rSDVcL_10proc_macro6bridge6clientINtB8_6ClientTNtBc_11TokenStreamB14_EB14_E7expand2NvCshA2YSdBGE45_11rustversion6stableE0B1G_, symObjAddr: 0x1698, symBinAddr: 0x1A8FC, symSize: 0x30 }
  - { offset: 0x32B04, size: 0x8, addend: 0x0, symName: __RNCINvMs7_NtNtCs9bTl5rSDVcL_10proc_macro6bridge6clientINtB8_6ClientTNtBc_11TokenStreamB14_EB14_E7expand2NvCshA2YSdBGE45_11rustversion7nightlyE0B1G_, symObjAddr: 0x16C8, symBinAddr: 0x1A92C, symSize: 0x30 }
  - { offset: 0x32B4F, size: 0x8, addend: 0x0, symName: __RINvNtNtCs9bTl5rSDVcL_10proc_macro6bridge6client10run_clientTNtB2_11TokenStreamBX_EINtNtCs85QQFkKrybG_4core6option6OptionBX_ENCNCINvMs7_B2_INtB2_6ClientTNtB6_11TokenStreamB2r_EB2r_E7expand2NvCshA2YSdBGE45_11rustversion3allE00EB33_, symObjAddr: 0x21C, symBinAddr: 0x19480, symSize: 0x21C }
  - { offset: 0x32D38, size: 0x8, addend: 0x0, symName: __RINvNtNtCs9bTl5rSDVcL_10proc_macro6bridge6client10run_clientTNtB2_11TokenStreamBX_EINtNtCs85QQFkKrybG_4core6option6OptionBX_ENCNCINvMs7_B2_INtB2_6ClientTNtB6_11TokenStreamB2r_EB2r_E7expand2NvCshA2YSdBGE45_11rustversion3anyE00EB33_, symObjAddr: 0x438, symBinAddr: 0x1969C, symSize: 0x21C }
  - { offset: 0x32F21, size: 0x8, addend: 0x0, symName: __RINvNtNtCs9bTl5rSDVcL_10proc_macro6bridge6client10run_clientTNtB2_11TokenStreamBX_EINtNtCs85QQFkKrybG_4core6option6OptionBX_ENCNCINvMs7_B2_INtB2_6ClientTNtB6_11TokenStreamB2r_EB2r_E7expand2NvCshA2YSdBGE45_11rustversion3notE00EB33_, symObjAddr: 0x654, symBinAddr: 0x198B8, symSize: 0x21C }
  - { offset: 0x3310A, size: 0x8, addend: 0x0, symName: __RINvNtNtCs9bTl5rSDVcL_10proc_macro6bridge6client10run_clientTNtB2_11TokenStreamBX_EINtNtCs85QQFkKrybG_4core6option6OptionBX_ENCNCINvMs7_B2_INtB2_6ClientTNtB6_11TokenStreamB2r_EB2r_E7expand2NvCshA2YSdBGE45_11rustversion4attrE00EB33_, symObjAddr: 0x870, symBinAddr: 0x19AD4, symSize: 0x21C }
  - { offset: 0x332F3, size: 0x8, addend: 0x0, symName: __RINvNtNtCs9bTl5rSDVcL_10proc_macro6bridge6client10run_clientTNtB2_11TokenStreamBX_EINtNtCs85QQFkKrybG_4core6option6OptionBX_ENCNCINvMs7_B2_INtB2_6ClientTNtB6_11TokenStreamB2r_EB2r_E7expand2NvCshA2YSdBGE45_11rustversion4betaE00EB33_, symObjAddr: 0xA8C, symBinAddr: 0x19CF0, symSize: 0x21C }
  - { offset: 0x334DC, size: 0x8, addend: 0x0, symName: __RINvNtNtCs9bTl5rSDVcL_10proc_macro6bridge6client10run_clientTNtB2_11TokenStreamBX_EINtNtCs85QQFkKrybG_4core6option6OptionBX_ENCNCINvMs7_B2_INtB2_6ClientTNtB6_11TokenStreamB2r_EB2r_E7expand2NvCshA2YSdBGE45_11rustversion5sinceE00EB33_, symObjAddr: 0xCA8, symBinAddr: 0x19F0C, symSize: 0x21C }
  - { offset: 0x336C5, size: 0x8, addend: 0x0, symName: __RINvNtNtCs9bTl5rSDVcL_10proc_macro6bridge6client10run_clientTNtB2_11TokenStreamBX_EINtNtCs85QQFkKrybG_4core6option6OptionBX_ENCNCINvMs7_B2_INtB2_6ClientTNtB6_11TokenStreamB2r_EB2r_E7expand2NvCshA2YSdBGE45_11rustversion6beforeE00EB33_, symObjAddr: 0xEC4, symBinAddr: 0x1A128, symSize: 0x21C }
  - { offset: 0x338AE, size: 0x8, addend: 0x0, symName: __RINvNtNtCs9bTl5rSDVcL_10proc_macro6bridge6client10run_clientTNtB2_11TokenStreamBX_EINtNtCs85QQFkKrybG_4core6option6OptionBX_ENCNCINvMs7_B2_INtB2_6ClientTNtB6_11TokenStreamB2r_EB2r_E7expand2NvCshA2YSdBGE45_11rustversion6stableE00EB33_, symObjAddr: 0x10E0, symBinAddr: 0x1A344, symSize: 0x21C }
  - { offset: 0x33A97, size: 0x8, addend: 0x0, symName: __RINvNtNtCs9bTl5rSDVcL_10proc_macro6bridge6client10run_clientTNtB2_11TokenStreamBX_EINtNtCs85QQFkKrybG_4core6option6OptionBX_ENCNCINvMs7_B2_INtB2_6ClientTNtB6_11TokenStreamB2r_EB2r_E7expand2NvCshA2YSdBGE45_11rustversion7nightlyE00EB33_, symObjAddr: 0x12FC, symBinAddr: 0x1A560, symSize: 0x21C }
  - { offset: 0x33CD3, size: 0x8, addend: 0x0, symName: __RNvXsf_NtNtCs9bTl5rSDVcL_10proc_macro6bridge6clientNtB5_11TokenStreamINtNtB7_3rpc6EncodeuE6encodeCshA2YSdBGE45_11rustversion, symObjAddr: 0x3AF0, symBinAddr: 0x1CD54, symSize: 0x50 }
  - { offset: 0x33DE4, size: 0x8, addend: 0x0, symName: __RNvXsi_NtNtCs9bTl5rSDVcL_10proc_macro6bridge6clientNtB5_11TokenStreamINtNtB7_3rpc9DecodeMutuE6decodeCshA2YSdBGE45_11rustversion, symObjAddr: 0x3B40, symBinAddr: 0x1CDA4, symSize: 0x2C }
  - { offset: 0x33E2D, size: 0x8, addend: 0x0, symName: __RNvXsk_NtNtCs9bTl5rSDVcL_10proc_macro6bridge6clientNtB5_4SpanINtNtB7_3rpc9DecodeMutuE6decodeCshA2YSdBGE45_11rustversion, symObjAddr: 0x3B6C, symBinAddr: 0x1CDD0, symSize: 0x2C }
  - { offset: 0x34223, size: 0x8, addend: 0x0, symName: __RNvXs9_NtNtCs9bTl5rSDVcL_10proc_macro6bridge3rpcTNtNtB7_6client11TokenStreamBL_EINtB5_9DecodeMutuE6decodeCshA2YSdBGE45_11rustversion, symObjAddr: 0x3A70, symBinAddr: 0x1CCD4, symSize: 0x80 }
  - { offset: 0x35ABF, size: 0x8, addend: 0x0, symName: ___llvm_profile_get_magic, symObjAddr: 0x28, symBinAddr: 0x1CE70, symSize: 0x14 }
  - { offset: 0x35AE0, size: 0x8, addend: 0x0, symName: ___llvm_profile_get_num_padding_bytes, symObjAddr: 0x44, symBinAddr: 0x1CE84, symSize: 0xC }
  - { offset: 0x35AE8, size: 0x8, addend: 0x0, symName: ___llvm_profile_get_version, symObjAddr: 0x50, symBinAddr: 0x1CE90, symSize: 0xC }
  - { offset: 0x35B11, size: 0x8, addend: 0x0, symName: ___llvm_profile_get_version, symObjAddr: 0x50, symBinAddr: 0x1CE90, symSize: 0xC }
  - { offset: 0x35B86, size: 0x8, addend: 0x0, symName: ___llvm_profile_is_continuous_mode_enabled, symObjAddr: 0x0, symBinAddr: 0x1CE9C, symSize: 0x20 }
  - { offset: 0x35BA3, size: 0x8, addend: 0x0, symName: __MergedGlobals, symObjAddr: 0x3F10, symBinAddr: 0x89700, symSize: 0x0 }
  - { offset: 0x35BC5, size: 0x8, addend: 0x0, symName: __MergedGlobals, symObjAddr: 0x3F10, symBinAddr: 0x89700, symSize: 0x0 }
  - { offset: 0x35BF5, size: 0x8, addend: 0x0, symName: ___llvm_profile_is_continuous_mode_enabled, symObjAddr: 0x0, symBinAddr: 0x1CE9C, symSize: 0x20 }
  - { offset: 0x35BFD, size: 0x8, addend: 0x0, symName: ___llvm_profile_enable_continuous_mode, symObjAddr: 0x20, symBinAddr: 0x1CEBC, symSize: 0x10 }
  - { offset: 0x35C0D, size: 0x8, addend: 0x0, symName: ___llvm_profile_enable_continuous_mode, symObjAddr: 0x20, symBinAddr: 0x1CEBC, symSize: 0x10 }
  - { offset: 0x35C15, size: 0x8, addend: 0x0, symName: ___llvm_profile_disable_continuous_mode, symObjAddr: 0x30, symBinAddr: 0x1CECC, symSize: 0xC }
  - { offset: 0x35C2A, size: 0x8, addend: 0x0, symName: ___llvm_profile_disable_continuous_mode, symObjAddr: 0x30, symBinAddr: 0x1CECC, symSize: 0xC }
  - { offset: 0x35C32, size: 0x8, addend: 0x0, symName: ___llvm_profile_set_page_size, symObjAddr: 0x3C, symBinAddr: 0x1CED8, symSize: 0xC }
  - { offset: 0x35C47, size: 0x8, addend: 0x0, symName: ___llvm_profile_set_page_size, symObjAddr: 0x3C, symBinAddr: 0x1CED8, symSize: 0xC }
  - { offset: 0x35C4F, size: 0x8, addend: 0x0, symName: ___llvm_profile_get_size_for_buffer, symObjAddr: 0x48, symBinAddr: 0x1CEE4, symSize: 0xC4 }
  - { offset: 0x35C72, size: 0x8, addend: 0x0, symName: ___llvm_profile_get_size_for_buffer, symObjAddr: 0x48, symBinAddr: 0x1CEE4, symSize: 0xC4 }
  - { offset: 0x35C7A, size: 0x8, addend: 0x0, symName: ___llvm_profile_get_size_for_buffer_internal, symObjAddr: 0x10C, symBinAddr: 0x1CFA8, symSize: 0x1C0 }
  - { offset: 0x360DD, size: 0x8, addend: 0x0, symName: ___llvm_profile_get_size_for_buffer_internal, symObjAddr: 0x10C, symBinAddr: 0x1CFA8, symSize: 0x1C0 }
  - { offset: 0x360E5, size: 0x8, addend: 0x0, symName: ___llvm_profile_get_num_data, symObjAddr: 0x2CC, symBinAddr: 0x1D168, symSize: 0x10 }
  - { offset: 0x364D4, size: 0x8, addend: 0x0, symName: ___llvm_profile_get_num_data, symObjAddr: 0x2CC, symBinAddr: 0x1D168, symSize: 0x10 }
  - { offset: 0x364DC, size: 0x8, addend: 0x0, symName: ___llvm_profile_get_data_size, symObjAddr: 0x2DC, symBinAddr: 0x1D178, symSize: 0x10 }
  - { offset: 0x3650D, size: 0x8, addend: 0x0, symName: ___llvm_profile_get_data_size, symObjAddr: 0x2DC, symBinAddr: 0x1D178, symSize: 0x10 }
  - { offset: 0x36515, size: 0x8, addend: 0x0, symName: ___llvm_profile_get_num_vtable, symObjAddr: 0x2EC, symBinAddr: 0x1D188, symSize: 0x18 }
  - { offset: 0x36539, size: 0x8, addend: 0x0, symName: ___llvm_profile_get_data_size, symObjAddr: 0x2DC, symBinAddr: 0x1D178, symSize: 0x10 }
  - { offset: 0x3656B, size: 0x8, addend: 0x0, symName: ___llvm_profile_get_num_vtable, symObjAddr: 0x2EC, symBinAddr: 0x1D188, symSize: 0x18 }
  - { offset: 0x36573, size: 0x8, addend: 0x0, symName: ___llvm_profile_get_vtable_section_size, symObjAddr: 0x304, symBinAddr: 0x1D1A0, symSize: 0x8 }
  - { offset: 0x365C5, size: 0x8, addend: 0x0, symName: ___llvm_profile_get_vtable_section_size, symObjAddr: 0x304, symBinAddr: 0x1D1A0, symSize: 0x8 }
  - { offset: 0x365CD, size: 0x8, addend: 0x0, symName: ___llvm_profile_counter_entry_size, symObjAddr: 0x30C, symBinAddr: 0x1D1A8, symSize: 0x1C }
  - { offset: 0x365EE, size: 0x8, addend: 0x0, symName: ___llvm_profile_counter_entry_size, symObjAddr: 0x30C, symBinAddr: 0x1D1A8, symSize: 0x1C }
  - { offset: 0x365F6, size: 0x8, addend: 0x0, symName: ___llvm_profile_get_num_counters, symObjAddr: 0x328, symBinAddr: 0x1D1C4, symSize: 0x48 }
  - { offset: 0x36606, size: 0x8, addend: 0x0, symName: ___llvm_profile_get_num_counters, symObjAddr: 0x328, symBinAddr: 0x1D1C4, symSize: 0x48 }
  - { offset: 0x3660E, size: 0x8, addend: 0x0, symName: ___llvm_profile_get_counters_size, symObjAddr: 0x370, symBinAddr: 0x1D20C, symSize: 0x5C }
  - { offset: 0x36673, size: 0x8, addend: 0x0, symName: ___llvm_profile_get_counters_size, symObjAddr: 0x370, symBinAddr: 0x1D20C, symSize: 0x5C }
  - { offset: 0x3667B, size: 0x8, addend: 0x0, symName: ___llvm_profile_get_num_bitmap_bytes, symObjAddr: 0x3CC, symBinAddr: 0x1D268, symSize: 0x8 }
  - { offset: 0x3671F, size: 0x8, addend: 0x0, symName: ___llvm_profile_get_num_bitmap_bytes, symObjAddr: 0x3CC, symBinAddr: 0x1D268, symSize: 0x8 }
  - { offset: 0x36727, size: 0x8, addend: 0x0, symName: ___llvm_profile_get_name_size, symObjAddr: 0x3D4, symBinAddr: 0x1D270, symSize: 0x8 }
  - { offset: 0x36748, size: 0x8, addend: 0x0, symName: ___llvm_profile_get_name_size, symObjAddr: 0x3D4, symBinAddr: 0x1D270, symSize: 0x8 }
  - { offset: 0x36750, size: 0x8, addend: 0x0, symName: ___llvm_profile_get_padding_sizes_for_counters, symObjAddr: 0x3DC, symBinAddr: 0x1D278, symSize: 0x15C }
  - { offset: 0x36771, size: 0x8, addend: 0x0, symName: ___llvm_profile_get_padding_sizes_for_counters, symObjAddr: 0x3DC, symBinAddr: 0x1D278, symSize: 0x15C }
  - { offset: 0x36779, size: 0x8, addend: 0x0, symName: _initBufferWriter, symObjAddr: 0x538, symBinAddr: 0x1D3D4, symSize: 0x10 }
  - { offset: 0x368CD, size: 0x8, addend: 0x0, symName: _initBufferWriter, symObjAddr: 0x538, symBinAddr: 0x1D3D4, symSize: 0x10 }
  - { offset: 0x36A39, size: 0x8, addend: 0x0, symName: __MergedGlobals, symObjAddr: 0xA750, symBinAddr: 0x89710, symSize: 0x0 }
  - { offset: 0x36B66, size: 0x8, addend: 0x0, symName: __MergedGlobals, symObjAddr: 0xA750, symBinAddr: 0x89710, symSize: 0x0 }
  - { offset: 0x36D9B, size: 0x8, addend: 0x0, symName: __MergedGlobals, symObjAddr: 0xA750, symBinAddr: 0x89710, symSize: 0x0 }
  - { offset: 0x36F43, size: 0x8, addend: 0x0, symName: _getCurFilenameLength, symObjAddr: 0x1C8, symBinAddr: 0x1D3E4, symSize: 0x104 }
  - { offset: 0x36F4B, size: 0x8, addend: 0x0, symName: _getCurFilename, symObjAddr: 0x2CC, symBinAddr: 0x1D4E8, symSize: 0x31C }
  - { offset: 0x36FCE, size: 0x8, addend: 0x0, symName: _getCurFilename, symObjAddr: 0x2CC, symBinAddr: 0x1D4E8, symSize: 0x31C }
  - { offset: 0x3723F, size: 0x8, addend: 0x0, symName: _parseAndSetFilename, symObjAddr: 0x6F0, symBinAddr: 0x1D804, symSize: 0x510 }
  - { offset: 0x37247, size: 0x8, addend: 0x0, symName: ___llvm_profile_initialize, symObjAddr: 0xC00, symBinAddr: 0x1DD14, symSize: 0xB8 }
  - { offset: 0x37438, size: 0x8, addend: 0x0, symName: ___llvm_profile_initialize, symObjAddr: 0xC00, symBinAddr: 0x1DD14, symSize: 0xB8 }
  - { offset: 0x374B4, size: 0x8, addend: 0x0, symName: ___llvm_profile_write_file, symObjAddr: 0xD34, symBinAddr: 0x1DDCC, symSize: 0x1B4 }
  - { offset: 0x374BC, size: 0x8, addend: 0x0, symName: _writeFile, symObjAddr: 0xEE8, symBinAddr: 0x1DF80, symSize: 0x2E4 }
  - { offset: 0x37697, size: 0x8, addend: 0x0, symName: _writeFile, symObjAddr: 0xEE8, symBinAddr: 0x1DF80, symSize: 0x2E4 }
  - { offset: 0x37832, size: 0x8, addend: 0x0, symName: _writeFileWithoutReturn, symObjAddr: 0x1238, symBinAddr: 0x1E264, symSize: 0x4 }
  - { offset: 0x37869, size: 0x8, addend: 0x0, symName: _getProfileFileSizeForMerging, symObjAddr: 0x148C, symBinAddr: 0x1E268, symSize: 0x110 }
  - { offset: 0x37871, size: 0x8, addend: 0x0, symName: _mmapForContinuousMode, symObjAddr: 0x159C, symBinAddr: 0x1E378, symSize: 0x264 }
  - { offset: 0x378AE, size: 0x8, addend: 0x0, symName: _mmapForContinuousMode, symObjAddr: 0x159C, symBinAddr: 0x1E378, symSize: 0x264 }
  - { offset: 0x378B6, size: 0x8, addend: 0x0, symName: _fileWriter, symObjAddr: 0x1800, symBinAddr: 0x1E5DC, symSize: 0x140 }
  - { offset: 0x37A75, size: 0x8, addend: 0x0, symName: _fileWriter, symObjAddr: 0x1800, symBinAddr: 0x1E5DC, symSize: 0x140 }
  - { offset: 0x37A7D, size: 0x8, addend: 0x0, symName: _binaryIdsStringWriter, symObjAddr: 0x1940, symBinAddr: 0x1E71C, symSize: 0xD4 }
  - { offset: 0x37B45, size: 0x8, addend: 0x0, symName: _binaryIdsStringWriter, symObjAddr: 0x1940, symBinAddr: 0x1E71C, symSize: 0xD4 }
  - { offset: 0x37B4D, size: 0x8, addend: 0x0, symName: _truncateCurrentFile, symObjAddr: 0x1A14, symBinAddr: 0x1E7F0, symSize: 0xD8 }
  - { offset: 0x37BE6, size: 0x8, addend: 0x0, symName: _truncateCurrentFile, symObjAddr: 0x1A14, symBinAddr: 0x1E7F0, symSize: 0xD8 }
  - { offset: 0x37BEE, size: 0x8, addend: 0x0, symName: _initializeProfileForContinuousMode, symObjAddr: 0x1AEC, symBinAddr: 0x1E8C8, symSize: 0x2BC }
  - { offset: 0x37C8C, size: 0x8, addend: 0x0, symName: _initializeProfileForContinuousMode, symObjAddr: 0x1AEC, symBinAddr: 0x1E8C8, symSize: 0x2BC }
  - { offset: 0x37C94, size: 0x8, addend: 0x0, symName: _createProfileDir, symObjAddr: 0x1DA8, symBinAddr: 0x1EB84, symSize: 0xA4 }
  - { offset: 0x37E7C, size: 0x8, addend: 0x0, symName: _createProfileDir, symObjAddr: 0x1DA8, symBinAddr: 0x1EB84, symSize: 0xA4 }
  - { offset: 0x37E84, size: 0x8, addend: 0x0, symName: _parseAndSetFilename.cold.1, symObjAddr: 0x1E4C, symBinAddr: 0x56D84, symSize: 0x24 }
  - { offset: 0x37EE1, size: 0x8, addend: 0x0, symName: _parseAndSetFilename.cold.1, symObjAddr: 0x1E4C, symBinAddr: 0x56D84, symSize: 0x24 }
  - { offset: 0x37EE9, size: 0x8, addend: 0x0, symName: _parseAndSetFilename.cold.2, symObjAddr: 0x1E70, symBinAddr: 0x56DA8, symSize: 0x24 }
  - { offset: 0x37F0B, size: 0x8, addend: 0x0, symName: _parseAndSetFilename.cold.2, symObjAddr: 0x1E70, symBinAddr: 0x56DA8, symSize: 0x24 }
  - { offset: 0x37F25, size: 0x8, addend: 0x0, symName: _parseAndSetFilename.cold.2, symObjAddr: 0x1E70, symBinAddr: 0x56DA8, symSize: 0x24 }
  - { offset: 0x37F35, size: 0x8, addend: 0x0, symName: _parseAndSetFilename.cold.2, symObjAddr: 0x1E70, symBinAddr: 0x56DA8, symSize: 0x24 }
  - { offset: 0x38095, size: 0x8, addend: 0x0, symName: _lprofProfileDumped, symObjAddr: 0x0, symBinAddr: 0x1EC28, symSize: 0xC }
  - { offset: 0x380B2, size: 0x8, addend: 0x0, symName: _ProfileDumped, symObjAddr: 0x4E0, symBinAddr: 0x897E8, symSize: 0x0 }
  - { offset: 0x380C2, size: 0x8, addend: 0x0, symName: _lprofProfileDumped, symObjAddr: 0x0, symBinAddr: 0x1EC28, symSize: 0xC }
  - { offset: 0x3810A, size: 0x8, addend: 0x0, symName: _lprofGetLoadModuleSignature, symObjAddr: 0x0, symBinAddr: 0x1EC34, symSize: 0xD0 }
  - { offset: 0x38137, size: 0x8, addend: 0x0, symName: _VPMergeHook, symBinAddr: 0x8BA20, symSize: 0x0 }
  - { offset: 0x3839F, size: 0x8, addend: 0x0, symName: _lprofGetLoadModuleSignature, symObjAddr: 0x0, symBinAddr: 0x1EC34, symSize: 0xD0 }
  - { offset: 0x383A7, size: 0x8, addend: 0x0, symName: ___llvm_profile_check_compatibility, symObjAddr: 0xD0, symBinAddr: 0x1ED04, symSize: 0x1CC }
  - { offset: 0x38417, size: 0x8, addend: 0x0, symName: ___llvm_profile_check_compatibility, symObjAddr: 0xD0, symBinAddr: 0x1ED04, symSize: 0x1CC }
  - { offset: 0x3841F, size: 0x8, addend: 0x0, symName: ___llvm_profile_merge_from_buffer, symObjAddr: 0x29C, symBinAddr: 0x1EED0, symSize: 0x3E8 }
  - { offset: 0x384F7, size: 0x8, addend: 0x0, symName: ___llvm_profile_merge_from_buffer, symObjAddr: 0x29C, symBinAddr: 0x1EED0, symSize: 0x3E8 }
  - { offset: 0x38769, size: 0x8, addend: 0x0, symName: _lprofMergeValueProfData, symObjAddr: 0x0, symBinAddr: 0x1F2B8, symSize: 0xF0 }
  - { offset: 0x3877A, size: 0x8, addend: 0x0, symName: _lprofMergeValueProfData, symObjAddr: 0x0, symBinAddr: 0x1F2B8, symSize: 0xF0 }
  - { offset: 0x38A45, size: 0x8, addend: 0x0, symName: ___llvm_profile_begin_data, symObjAddr: 0x0, symBinAddr: 0x1F3A8, symSize: 0xC }
  - { offset: 0x38A4D, size: 0x8, addend: 0x0, symName: _CurrentVNode, symObjAddr: 0xB0, symBinAddr: 0x88B80, symSize: 0x0 }
  - { offset: 0x38A64, size: 0x8, addend: 0x0, symName: _CurrentVNode, symObjAddr: 0xB0, symBinAddr: 0x88B80, symSize: 0x0 }
  - { offset: 0x38AE0, size: 0x8, addend: 0x0, symName: _EndVNode, symObjAddr: 0xB8, symBinAddr: 0x88B88, symSize: 0x0 }
  - { offset: 0x38AE9, size: 0x8, addend: 0x0, symName: ___llvm_profile_begin_data, symObjAddr: 0x0, symBinAddr: 0x1F3A8, symSize: 0xC }
  - { offset: 0x38AF1, size: 0x8, addend: 0x0, symName: ___llvm_profile_end_data, symObjAddr: 0xC, symBinAddr: 0x1F3B4, symSize: 0xC }
  - { offset: 0x38B0A, size: 0x8, addend: 0x0, symName: ___llvm_profile_end_data, symObjAddr: 0xC, symBinAddr: 0x1F3B4, symSize: 0xC }
  - { offset: 0x38B12, size: 0x8, addend: 0x0, symName: ___llvm_profile_begin_names, symObjAddr: 0x18, symBinAddr: 0x1F3C0, symSize: 0xC }
  - { offset: 0x38B2B, size: 0x8, addend: 0x0, symName: ___llvm_profile_begin_names, symObjAddr: 0x18, symBinAddr: 0x1F3C0, symSize: 0xC }
  - { offset: 0x38B33, size: 0x8, addend: 0x0, symName: ___llvm_profile_end_names, symObjAddr: 0x24, symBinAddr: 0x1F3CC, symSize: 0xC }
  - { offset: 0x38B4C, size: 0x8, addend: 0x0, symName: ___llvm_profile_end_names, symObjAddr: 0x24, symBinAddr: 0x1F3CC, symSize: 0xC }
  - { offset: 0x38B54, size: 0x8, addend: 0x0, symName: ___llvm_profile_begin_counters, symObjAddr: 0x30, symBinAddr: 0x1F3D8, symSize: 0xC }
  - { offset: 0x38B6D, size: 0x8, addend: 0x0, symName: ___llvm_profile_begin_counters, symObjAddr: 0x30, symBinAddr: 0x1F3D8, symSize: 0xC }
  - { offset: 0x38B75, size: 0x8, addend: 0x0, symName: ___llvm_profile_end_counters, symObjAddr: 0x3C, symBinAddr: 0x1F3E4, symSize: 0xC }
  - { offset: 0x38B8E, size: 0x8, addend: 0x0, symName: ___llvm_profile_end_counters, symObjAddr: 0x3C, symBinAddr: 0x1F3E4, symSize: 0xC }
  - { offset: 0x38B96, size: 0x8, addend: 0x0, symName: ___llvm_profile_begin_bitmap, symObjAddr: 0x48, symBinAddr: 0x1F3F0, symSize: 0xC }
  - { offset: 0x38BAF, size: 0x8, addend: 0x0, symName: ___llvm_profile_begin_bitmap, symObjAddr: 0x48, symBinAddr: 0x1F3F0, symSize: 0xC }
  - { offset: 0x38BB7, size: 0x8, addend: 0x0, symName: ___llvm_profile_end_bitmap, symObjAddr: 0x54, symBinAddr: 0x1F3FC, symSize: 0xC }
  - { offset: 0x38BD0, size: 0x8, addend: 0x0, symName: ___llvm_profile_end_bitmap, symObjAddr: 0x54, symBinAddr: 0x1F3FC, symSize: 0xC }
  - { offset: 0x38BD8, size: 0x8, addend: 0x0, symName: ___llvm_profile_begin_vtables, symObjAddr: 0x60, symBinAddr: 0x1F408, symSize: 0xC }
  - { offset: 0x38BF1, size: 0x8, addend: 0x0, symName: ___llvm_profile_begin_vtables, symObjAddr: 0x60, symBinAddr: 0x1F408, symSize: 0xC }
  - { offset: 0x38BF9, size: 0x8, addend: 0x0, symName: ___llvm_profile_end_vtables, symObjAddr: 0x6C, symBinAddr: 0x1F414, symSize: 0xC }
  - { offset: 0x38C12, size: 0x8, addend: 0x0, symName: ___llvm_profile_end_vtables, symObjAddr: 0x6C, symBinAddr: 0x1F414, symSize: 0xC }
  - { offset: 0x38C1A, size: 0x8, addend: 0x0, symName: ___llvm_profile_begin_vtabnames, symObjAddr: 0x78, symBinAddr: 0x1F420, symSize: 0xC }
  - { offset: 0x38C33, size: 0x8, addend: 0x0, symName: ___llvm_profile_begin_vtabnames, symObjAddr: 0x78, symBinAddr: 0x1F420, symSize: 0xC }
  - { offset: 0x38C3B, size: 0x8, addend: 0x0, symName: ___llvm_profile_end_vtabnames, symObjAddr: 0x84, symBinAddr: 0x1F42C, symSize: 0xC }
  - { offset: 0x38C54, size: 0x8, addend: 0x0, symName: ___llvm_profile_end_vtabnames, symObjAddr: 0x84, symBinAddr: 0x1F42C, symSize: 0xC }
  - { offset: 0x38C5C, size: 0x8, addend: 0x0, symName: ___llvm_profile_begin_vnodes, symObjAddr: 0x90, symBinAddr: 0x1F438, symSize: 0xC }
  - { offset: 0x38C75, size: 0x8, addend: 0x0, symName: ___llvm_profile_begin_vnodes, symObjAddr: 0x90, symBinAddr: 0x1F438, symSize: 0xC }
  - { offset: 0x38C7D, size: 0x8, addend: 0x0, symName: ___llvm_profile_end_vnodes, symObjAddr: 0x9C, symBinAddr: 0x1F444, symSize: 0xC }
  - { offset: 0x38C96, size: 0x8, addend: 0x0, symName: ___llvm_profile_end_vnodes, symObjAddr: 0x9C, symBinAddr: 0x1F444, symSize: 0xC }
  - { offset: 0x38C9E, size: 0x8, addend: 0x0, symName: ___llvm_write_binary_ids, symObjAddr: 0xA8, symBinAddr: 0x1F450, symSize: 0x8 }
  - { offset: 0x38CB7, size: 0x8, addend: 0x0, symName: ___llvm_write_binary_ids, symObjAddr: 0xA8, symBinAddr: 0x1F450, symSize: 0x8 }
  - { offset: 0x38CBF, size: 0x8, addend: 0x0, symName: _CurrentVNode, symObjAddr: 0xB0, symBinAddr: 0x88B80, symSize: 0x0 }
  - { offset: 0x38F3F, size: 0x8, addend: 0x0, symName: __GLOBAL__sub_I_InstrProfilingRuntime.cpp, symObjAddr: 0x0, symBinAddr: 0x1F458, symSize: 0x18 }
  - { offset: 0x38F62, size: 0x8, addend: 0x0, symName: ___llvm_profile_runtime, symObjAddr: 0x590, symBinAddr: 0x8B9D0, symSize: 0x0 }
  - { offset: 0x38F92, size: 0x8, addend: 0x0, symName: __GLOBAL__sub_I_InstrProfilingRuntime.cpp, symObjAddr: 0x0, symBinAddr: 0x1F458, symSize: 0x18 }
  - { offset: 0x3900E, size: 0x8, addend: 0x0, symName: ___llvm_profile_recursive_mkdir, symObjAddr: 0x0, symBinAddr: 0x1F470, symSize: 0x58 }
  - { offset: 0x39016, size: 0x8, addend: 0x0, symName: _lprofDirMode, symObjAddr: 0x850, symBinAddr: 0x88B90, symSize: 0x0 }
  - { offset: 0x3902D, size: 0x8, addend: 0x0, symName: _lprofDirMode, symObjAddr: 0x850, symBinAddr: 0x88B90, symSize: 0x0 }
  - { offset: 0x39099, size: 0x8, addend: 0x0, symName: ___llvm_profile_recursive_mkdir, symObjAddr: 0x0, symBinAddr: 0x1F470, symSize: 0x58 }
  - { offset: 0x39118, size: 0x8, addend: 0x0, symName: _lprofGetHostName, symObjAddr: 0x70, symBinAddr: 0x1F4C8, symSize: 0x80 }
  - { offset: 0x3924D, size: 0x8, addend: 0x0, symName: _lprofLockFileHandle, symObjAddr: 0x208, symBinAddr: 0x1F548, symSize: 0x90 }
  - { offset: 0x39255, size: 0x8, addend: 0x0, symName: _lprofUnlockFileHandle, symObjAddr: 0x298, symBinAddr: 0x1F5D8, symSize: 0x90 }
  - { offset: 0x392DB, size: 0x8, addend: 0x0, symName: _lprofUnlockFileHandle, symObjAddr: 0x298, symBinAddr: 0x1F5D8, symSize: 0x90 }
  - { offset: 0x392E3, size: 0x8, addend: 0x0, symName: _lprofOpenFileEx, symObjAddr: 0x328, symBinAddr: 0x1F668, symSize: 0xD0 }
  - { offset: 0x39343, size: 0x8, addend: 0x0, symName: _lprofOpenFileEx, symObjAddr: 0x328, symBinAddr: 0x1F668, symSize: 0xD0 }
  - { offset: 0x3934B, size: 0x8, addend: 0x0, symName: _lprofGetFileContentBuffer, symObjAddr: 0x3F8, symBinAddr: 0x1F738, symSize: 0x204 }
  - { offset: 0x393D8, size: 0x8, addend: 0x0, symName: _lprofGetFileContentBuffer, symObjAddr: 0x3F8, symBinAddr: 0x1F738, symSize: 0x204 }
  - { offset: 0x393E0, size: 0x8, addend: 0x0, symName: _lprofReleaseBuffer, symObjAddr: 0x5FC, symBinAddr: 0x1F93C, symSize: 0xA0 }
  - { offset: 0x39467, size: 0x8, addend: 0x0, symName: _lprofReleaseBuffer, symObjAddr: 0x5FC, symBinAddr: 0x1F93C, symSize: 0xA0 }
  - { offset: 0x394A9, size: 0x8, addend: 0x0, symName: _lprofFindFirstDirSeparator, symObjAddr: 0x7DC, symBinAddr: 0x1F9DC, symSize: 0x8 }
  - { offset: 0x394E9, size: 0x8, addend: 0x0, symName: _lprofSuspendSigKill, symObjAddr: 0x7EC, symBinAddr: 0x1F9E4, symSize: 0x8 }
  - { offset: 0x394F1, size: 0x8, addend: 0x0, symName: _lprofRestoreSigKill, symObjAddr: 0x7F4, symBinAddr: 0x1F9EC, symSize: 0x4 }
  - { offset: 0x3950C, size: 0x8, addend: 0x0, symName: _lprofRestoreSigKill, symObjAddr: 0x7F4, symBinAddr: 0x1F9EC, symSize: 0x4 }
  - { offset: 0x3952B, size: 0x8, addend: 0x0, symName: _lprofAtExit, symObjAddr: 0x84C, symBinAddr: 0x1F9F0, symSize: 0x4 }
  - { offset: 0x39533, size: 0x8, addend: 0x0, symName: _lprofDirMode, symObjAddr: 0x850, symBinAddr: 0x88B90, symSize: 0x0 }
  - { offset: 0x39841, size: 0x8, addend: 0x0, symName: _getValueProfRecordHeaderSize, symObjAddr: 0x0, symBinAddr: 0x1F9F4, symSize: 0xC }
  - { offset: 0x39860, size: 0x8, addend: 0x0, symName: _VPMaxNumValsPerSite, symObjAddr: 0x1740, symBinAddr: 0x88B98, symSize: 0x0 }
  - { offset: 0x398F5, size: 0x8, addend: 0x0, symName: __MergedGlobals, symObjAddr: 0xEF50, symBinAddr: 0x89818, symSize: 0x0 }
  - { offset: 0x3991C, size: 0x8, addend: 0x0, symName: __MergedGlobals, symObjAddr: 0xEF50, symBinAddr: 0x89818, symSize: 0x0 }
  - { offset: 0x39933, size: 0x8, addend: 0x0, symName: __MergedGlobals, symObjAddr: 0xEF50, symBinAddr: 0x89818, symSize: 0x0 }
  - { offset: 0x39953, size: 0x8, addend: 0x0, symName: _TheVPDataReader, symObjAddr: 0x1748, symBinAddr: 0x88BA0, symSize: 0x0 }
  - { offset: 0x39BF9, size: 0x8, addend: 0x0, symName: _RTRecord, symObjAddr: 0xEF28, symBinAddr: 0x897F0, symSize: 0x0 }
  - { offset: 0x39DF3, size: 0x8, addend: 0x0, symName: _getValueProfRecordHeaderSize, symObjAddr: 0x0, symBinAddr: 0x1F9F4, symSize: 0xC }
  - { offset: 0x39E49, size: 0x8, addend: 0x0, symName: _getValueProfRecordValueData, symObjAddr: 0x1C, symBinAddr: 0x1FA00, symSize: 0x14 }
  - { offset: 0x39EF7, size: 0x8, addend: 0x0, symName: _getValueProfRecordNext, symObjAddr: 0x1B4, symBinAddr: 0x1FA14, symSize: 0x1A4 }
  - { offset: 0x39EFF, size: 0x8, addend: 0x0, symName: _getFirstValueProfRecord, symObjAddr: 0x358, symBinAddr: 0x1FBB8, symSize: 0x8 }
  - { offset: 0x39F66, size: 0x8, addend: 0x0, symName: _getFirstValueProfRecord, symObjAddr: 0x358, symBinAddr: 0x1FBB8, symSize: 0x8 }
  - { offset: 0x3A048, size: 0x8, addend: 0x0, symName: _lprofSetupValueProfiler, symObjAddr: 0xB38, symBinAddr: 0x1FBC0, symSize: 0x64 }
  - { offset: 0x3A15A, size: 0x8, addend: 0x0, symName: ___llvm_profile_instrument_target_value, symObjAddr: 0xE30, symBinAddr: 0x1FC24, symSize: 0x290 }
  - { offset: 0x3A278, size: 0x8, addend: 0x0, symName: _lprofGetVPDataReader, symObjAddr: 0x1108, symBinAddr: 0x1FEB4, symSize: 0xC }
  - { offset: 0x3A280, size: 0x8, addend: 0x0, symName: _initializeValueProfRuntimeRecord, symObjAddr: 0x1114, symBinAddr: 0x1FEC0, symSize: 0x210 }
  - { offset: 0x3A29B, size: 0x8, addend: 0x0, symName: _initializeValueProfRuntimeRecord, symObjAddr: 0x1114, symBinAddr: 0x1FEC0, symSize: 0x210 }
  - { offset: 0x3A2A3, size: 0x8, addend: 0x0, symName: _getNumValueDataForSiteWrapper, symObjAddr: 0x1324, symBinAddr: 0x200D0, symSize: 0x14 }
  - { offset: 0x3A3BE, size: 0x8, addend: 0x0, symName: _getNumValueDataForSiteWrapper, symObjAddr: 0x1324, symBinAddr: 0x200D0, symSize: 0x14 }
  - { offset: 0x3A3C6, size: 0x8, addend: 0x0, symName: _getValueProfDataSizeWrapper, symObjAddr: 0x1338, symBinAddr: 0x200E4, symSize: 0xDC }
  - { offset: 0x3A404, size: 0x8, addend: 0x0, symName: _getNumValueDataForSiteWrapper, symObjAddr: 0x1324, symBinAddr: 0x200D0, symSize: 0x14 }
  - { offset: 0x3A42A, size: 0x8, addend: 0x0, symName: _getValueProfDataSizeWrapper, symObjAddr: 0x1338, symBinAddr: 0x200E4, symSize: 0xDC }
  - { offset: 0x3A432, size: 0x8, addend: 0x0, symName: _getNextNValueData, symObjAddr: 0x1414, symBinAddr: 0x201C0, symSize: 0x44 }
  - { offset: 0x3A4C9, size: 0x8, addend: 0x0, symName: _getNextNValueData, symObjAddr: 0x1414, symBinAddr: 0x201C0, symSize: 0x44 }
  - { offset: 0x3A4D1, size: 0x8, addend: 0x0, symName: _getNumValueSitesRT, symObjAddr: 0x1458, symBinAddr: 0x20204, symSize: 0x10 }
  - { offset: 0x3A55F, size: 0x8, addend: 0x0, symName: _getNumValueSitesRT, symObjAddr: 0x1458, symBinAddr: 0x20204, symSize: 0x10 }
  - { offset: 0x3A567, size: 0x8, addend: 0x0, symName: _getNumValueDataRT, symObjAddr: 0x1468, symBinAddr: 0x20214, symSize: 0x190 }
  - { offset: 0x3A5A2, size: 0x8, addend: 0x0, symName: _getNumValueDataRT, symObjAddr: 0x1468, symBinAddr: 0x20214, symSize: 0x190 }
  - { offset: 0x3A618, size: 0x8, addend: 0x0, symName: ___llvm_profile_instrument_target_value.cold.1, symObjAddr: 0x161C, symBinAddr: 0x56DCC, symSize: 0x24 }
  - { offset: 0x3A6A8, size: 0x8, addend: 0x0, symName: ___llvm_profile_raw_version, symObjAddr: 0x0, symBinAddr: 0x88BD0, symSize: 0x0 }
  - { offset: 0x3A6EA, size: 0x8, addend: 0x0, symName: _lprofBufferWriter, symObjAddr: 0x0, symBinAddr: 0x203A4, symSize: 0x6C }
  - { offset: 0x3A709, size: 0x8, addend: 0x0, symName: _FreeHook, symObjAddr: 0x4F98, symBinAddr: 0x8B9D8, symSize: 0x0 }
  - { offset: 0x3A72F, size: 0x8, addend: 0x0, symName: _DynamicBufferIOBuffer, symObjAddr: 0x4FA0, symBinAddr: 0x8B9E0, symSize: 0x0 }
  - { offset: 0x3A75D, size: 0x8, addend: 0x0, symName: _VPBufferSize, symObjAddr: 0x4FA8, symBinAddr: 0x8B9E8, symSize: 0x0 }
  - { offset: 0x3A784, size: 0x8, addend: 0x0, symName: __MergedGlobals, symObjAddr: 0x6FB0, symBinAddr: 0x8B828, symSize: 0x0 }
  - { offset: 0x3A8D0, size: 0x8, addend: 0x0, symName: _BufferIOBuffer, symObjAddr: 0x4FB0, symBinAddr: 0x89828, symSize: 0x0 }
  - { offset: 0x3A8FA, size: 0x8, addend: 0x0, symName: __MergedGlobals, symObjAddr: 0x6FB0, symBinAddr: 0x8B828, symSize: 0x0 }
  - { offset: 0x3A976, size: 0x8, addend: 0x0, symName: _lprofBufferWriter, symObjAddr: 0x0, symBinAddr: 0x203A4, symSize: 0x6C }
  - { offset: 0x3AA8E, size: 0x8, addend: 0x0, symName: _lprofBufferIOWrite, symObjAddr: 0x100, symBinAddr: 0x20410, symSize: 0x134 }
  - { offset: 0x3AB8F, size: 0x8, addend: 0x0, symName: _lprofWriteData, symObjAddr: 0x2F4, symBinAddr: 0x20544, symSize: 0xE0 }
  - { offset: 0x3AB97, size: 0x8, addend: 0x0, symName: _lprofWriteDataImpl, symObjAddr: 0x3D4, symBinAddr: 0x20624, symSize: 0x474 }
  - { offset: 0x3AFD3, size: 0x8, addend: 0x0, symName: _lprofWriteDataImpl, symObjAddr: 0x3D4, symBinAddr: 0x20624, symSize: 0x474 }
  - { offset: 0x3B30E, size: 0x8, addend: 0x0, symName: _writeOneValueProfData, symObjAddr: 0x8D4, symBinAddr: 0x20A98, symSize: 0x4A8 }
  - { offset: 0x3B75E, size: 0x8, addend: 0x0, symName: '__ZN107_$LT$proc_macro..bridge..buffer..Buffer$u20$as$u20$core..convert..From$LT$alloc..vec..Vec$LT$u8$GT$$GT$$GT$4from4drop17hde39b8ebc9f7f4b9E', symObjAddr: 0x888, symBinAddr: 0x210CC, symSize: 0x18 }
  - { offset: 0x3B80B, size: 0x8, addend: 0x0, symName: '__ZN107_$LT$proc_macro..bridge..buffer..Buffer$u20$as$u20$core..convert..From$LT$alloc..vec..Vec$LT$u8$GT$$GT$$GT$4from7reserve17h98a0760eccbfb88bE', symObjAddr: 0x8A0, symBinAddr: 0x210E4, symSize: 0x80 }
  - { offset: 0x3BB77, size: 0x8, addend: 0x0, symName: '__ZN71_$LT$$RF$str$u20$as$u20$proc_macro..bridge..rpc..DecodeMut$LT$S$GT$$GT$6decode17h357463748c74b2f6E', symObjAddr: 0x2072C, symBinAddr: 0x26778, symSize: 0xB0 }
  - { offset: 0x3BD1B, size: 0x8, addend: 0x0, symName: '__ZN10proc_macro6bridge3rpc165_$LT$impl$u20$core..convert..From$LT$proc_macro..bridge..rpc..PanicMessage$GT$$u20$for$u20$alloc..boxed..Box$LT$dyn$u20$core..any..Any$u2b$core..marker..Send$GT$$GT$4from17h5a0ddc5d1939fc5bE', symObjAddr: 0x131EC, symBinAddr: 0x22584, symSize: 0xD8 }
  - { offset: 0x3BEC1, size: 0x8, addend: 0x0, symName: '__ZN155_$LT$proc_macro..bridge..rpc..PanicMessage$u20$as$u20$core..convert..From$LT$alloc..boxed..Box$LT$dyn$u20$core..any..Any$u2b$core..marker..Send$GT$$GT$$GT$4from17h4e80eedbb69bad53E', symObjAddr: 0x1BB60, symBinAddr: 0x25988, symSize: 0x190 }
  - { offset: 0x3C1CF, size: 0x8, addend: 0x0, symName: '__ZN95_$LT$proc_macro..bridge..client..state..set..RestoreOnDrop$u20$as$u20$core..ops..drop..Drop$GT$4drop17h8e4a25c2ff6d9af4E', symObjAddr: 0x21A28, symBinAddr: 0x26F8C, symSize: 0x28 }
  - { offset: 0x3C333, size: 0x8, addend: 0x0, symName: __ZN10proc_macro6bridge6client11TokenStream12concat_trees17hfa8adfbaffce83acE, symObjAddr: 0x133FC, symBinAddr: 0x2265C, symSize: 0x3C8 }
  - { offset: 0x3C93F, size: 0x8, addend: 0x0, symName: '__ZN81_$LT$proc_macro..bridge..client..TokenStream$u20$as$u20$core..ops..drop..Drop$GT$4drop17had25423bf49b0b0fE', symObjAddr: 0x211B0, symBinAddr: 0x26B9C, symSize: 0x2C }
  - { offset: 0x3CA3D, size: 0x8, addend: 0x0, symName: '__ZN10proc_macro6bridge6client6Bridge4with28_$u7b$$u7b$closure$u7d$$u7d$17h988ec76941debd6eE', symObjAddr: 0x14C0C, symBinAddr: 0x22AD4, symSize: 0x354 }
  - { offset: 0x3D248, size: 0x8, addend: 0x0, symName: __ZN10proc_macro6bridge6client24maybe_install_panic_hook17h5f1f9ee39f29092cE, symObjAddr: 0x148A8, symBinAddr: 0x22A24, symSize: 0x64 }
  - { offset: 0x3D2BB, size: 0x8, addend: 0x0, symName: '__ZN10proc_macro6bridge6client24maybe_install_panic_hook28_$u7b$$u7b$closure$u7d$$u7d$28_$u7b$$u7b$closure$u7d$$u7d$17hbb082fa97f89c5deE', symObjAddr: 0x1490C, symBinAddr: 0x22A88, symSize: 0x4C }
  - { offset: 0x3D3CA, size: 0x8, addend: 0x0, symName: '__ZN78_$LT$proc_macro..bridge..client..TokenStream$u20$as$u20$core..clone..Clone$GT$5clone17ha080f9e406aae191E', symObjAddr: 0x20F3C, symBinAddr: 0x26928, symSize: 0x274 }
  - { offset: 0x3D98F, size: 0x8, addend: 0x0, symName: __ZN10proc_macro6bridge6symbol6Symbol14invalidate_all17h4090ed2c68f28131E, symObjAddr: 0x14FC4, symBinAddr: 0x22E28, symSize: 0x154 }
  - { offset: 0x3DE70, size: 0x8, addend: 0x0, symName: __ZN10proc_macro6bridge6symbol6Symbol3new17h77d83fa5a8b31dd7E, symObjAddr: 0x15118, symBinAddr: 0x22F7C, symSize: 0x570 }
  - { offset: 0x3F10A, size: 0x8, addend: 0x0, symName: __ZN10proc_macro6bridge6symbol6Symbol9new_ident17h32d4eada0aa200f4E, symObjAddr: 0x15688, symBinAddr: 0x234EC, symSize: 0x674 }
  - { offset: 0x3FDD6, size: 0x8, addend: 0x0, symName: '__ZN73_$LT$proc_macro..bridge..symbol..Symbol$u20$as$u20$core..fmt..Display$GT$3fmt17h48b4f5782bbee8fbE', symObjAddr: 0x20B80, symBinAddr: 0x26828, symSize: 0x100 }
  - { offset: 0x40124, size: 0x8, addend: 0x0, symName: '__ZN95_$LT$proc_macro..bridge..symbol..Symbol$u20$as$u20$proc_macro..bridge..rpc..Encode$LT$S$GT$$GT$6encode17hd1f94841f24477deE', symObjAddr: 0x21A50, symBinAddr: 0x26FB4, symSize: 0x230 }
  - { offset: 0x406B4, size: 0x8, addend: 0x0, symName: '__ZN10proc_macro6bridge103_$LT$impl$u20$proc_macro..bridge..rpc..DecodeMut$LT$S$GT$$u20$for$u20$core..option..Option$LT$T$GT$$GT$6decode17hf5a3a5757b493ae5E', symObjAddr: 0x12A14, symBinAddr: 0x22394, symSize: 0xF4 }
  - { offset: 0x408C8, size: 0x8, addend: 0x0, symName: '__ZN106_$LT$proc_macro..bridge..Literal$LT$Sp$C$Sy$GT$$u20$as$u20$proc_macro..bridge..rpc..DecodeMut$LT$S$GT$$GT$6decode17hb3fae290204123c6E', symObjAddr: 0x6FC, symBinAddr: 0x20F40, symSize: 0x18C }
  - { offset: 0x40BE8, size: 0x8, addend: 0x0, symName: '__ZN10proc_macro6bridge107_$LT$impl$u20$proc_macro..bridge..rpc..DecodeMut$LT$S$GT$$u20$for$u20$core..result..Result$LT$T$C$E$GT$$GT$6decode17h91e9ce4ce0120cbcE', symObjAddr: 0x12E7C, symBinAddr: 0x22488, symSize: 0xFC }
  - { offset: 0x40DF5, size: 0x8, addend: 0x0, symName: '__ZN10proc_macro6bridge100_$LT$impl$u20$proc_macro..bridge..rpc..Encode$LT$S$GT$$u20$for$u20$core..option..Option$LT$T$GT$$GT$6encode17h2f2ad5f0f434b0b2E', symObjAddr: 0x1283C, symBinAddr: 0x221BC, symSize: 0x1D8 }
  - { offset: 0x410F6, size: 0x8, addend: 0x0, symName: __ZN10proc_macro6bridge5arena5Arena4grow17hceaa33a394f83dc0E, symObjAddr: 0x132C4, symBinAddr: 0x56DF0, symSize: 0x138 }
  - { offset: 0x4166D, size: 0x8, addend: 0x0, symName: '__ZN125_$LT$proc_macro..bridge..TokenTree$LT$TokenStream$C$Span$C$Symbol$GT$$u20$as$u20$proc_macro..bridge..rpc..Encode$LT$S$GT$$GT$6encode17h38ae75ed73055cbeE', symObjAddr: 0x1A8C4, symBinAddr: 0x246EC, symSize: 0x129C }
  - { offset: 0x432E6, size: 0x8, addend: 0x0, symName: '__ZN97_$LT$proc_macro..bridge..api_tags..Method$u20$as$u20$proc_macro..bridge..rpc..Encode$LT$S$GT$$GT$6encode17h5e6f3388f1d91b81E', symObjAddr: 0x21C80, symBinAddr: 0x271E4, symSize: 0xC28 }
  - { offset: 0x43C18, size: 0x8, addend: 0x0, symName: __ZN10proc_macro17ConcatTreesHelper3new17h1453aabf215c038cE, symObjAddr: 0x1DB4, symBinAddr: 0x21CCC, symSize: 0x8C }
  - { offset: 0x43D53, size: 0x8, addend: 0x0, symName: __ZN10proc_macro17ConcatTreesHelper4push17h0d4f4aac9b7eaa5dE, symObjAddr: 0x1E40, symBinAddr: 0x21D58, symSize: 0x168 }
  - { offset: 0x43F4E, size: 0x8, addend: 0x0, symName: __ZN10proc_macro17ConcatTreesHelper5build17heb2946400a30a97eE, symObjAddr: 0x1FA8, symBinAddr: 0x21EC0, symSize: 0x30 }
  - { offset: 0x43F8E, size: 0x8, addend: 0x0, symName: __ZN10proc_macro17ConcatTreesHelper9append_to17hf5006429b7404fcbE, symObjAddr: 0x1FD8, symBinAddr: 0x21EF0, symSize: 0x44 }
  - { offset: 0x44022, size: 0x8, addend: 0x0, symName: __ZN10proc_macro11TokenStream8is_empty17hbc51659fc250b130E, symObjAddr: 0x1220, symBinAddr: 0x21164, symSize: 0x32C }
  - { offset: 0x445E2, size: 0x8, addend: 0x0, symName: '__ZN10proc_macro12token_stream95_$LT$impl$u20$core..iter..traits..collect..IntoIterator$u20$for$u20$proc_macro..TokenStream$GT$9into_iter17hc5d18987894b4ee9E', symObjAddr: 0x1578, symBinAddr: 0x21490, symSize: 0x83C }
  - { offset: 0x45ADE, size: 0x8, addend: 0x0, symName: '__ZN93_$LT$proc_macro..token_stream..IntoIter$u20$as$u20$core..iter..traits..iterator..Iterator$GT$4next17hde95f60ba4d597e4E', symObjAddr: 0x21918, symBinAddr: 0x26EB8, symSize: 0xA8 }
  - { offset: 0x45AF5, size: 0x8, addend: 0x0, symName: '__ZN93_$LT$proc_macro..token_stream..IntoIter$u20$as$u20$core..iter..traits..iterator..Iterator$GT$4next17hde95f60ba4d597e4E', symObjAddr: 0x21918, symBinAddr: 0x26EB8, symSize: 0xA8 }
  - { offset: 0x45B7E, size: 0x8, addend: 0x0, symName: '__ZN93_$LT$proc_macro..token_stream..IntoIter$u20$as$u20$core..iter..traits..iterator..Iterator$GT$9size_hint17h811f6f1b907db8c4E', symObjAddr: 0x219FC, symBinAddr: 0x26F60, symSize: 0x2C }
  - { offset: 0x45B95, size: 0x8, addend: 0x0, symName: '__ZN93_$LT$proc_macro..token_stream..IntoIter$u20$as$u20$core..iter..traits..iterator..Iterator$GT$9size_hint17h811f6f1b907db8c4E', symObjAddr: 0x219FC, symBinAddr: 0x26F60, symSize: 0x2C }
  - { offset: 0x45BFD, size: 0x8, addend: 0x0, symName: __ZN10proc_macro4Span9call_site17h39faa9cda0403912E, symObjAddr: 0x45B4, symBinAddr: 0x21F34, symSize: 0x78 }
  - { offset: 0x45D27, size: 0x8, addend: 0x0, symName: __ZN10proc_macro5Group3new17h5e592a5d9c708a95E, symObjAddr: 0x4890, symBinAddr: 0x21FAC, symSize: 0xC0 }
  - { offset: 0x45F0C, size: 0x8, addend: 0x0, symName: __ZN10proc_macro5Group6stream17h6b111a97468d8ed2E, symObjAddr: 0x4950, symBinAddr: 0x2206C, symSize: 0x14 }
  - { offset: 0x45F23, size: 0x8, addend: 0x0, symName: __ZN10proc_macro5Group6stream17h6b111a97468d8ed2E, symObjAddr: 0x4950, symBinAddr: 0x2206C, symSize: 0x14 }
  - { offset: 0x45F58, size: 0x8, addend: 0x0, symName: __ZN10proc_macro5Ident3new17hbca272f326ad7bf3E, symObjAddr: 0x4964, symBinAddr: 0x22080, symSize: 0x30 }
  - { offset: 0x45F80, size: 0x8, addend: 0x0, symName: __ZN10proc_macro5Punct3new17hb4e2d5005cf0960dE, symObjAddr: 0x49D0, symBinAddr: 0x220B0, symSize: 0x10C }
  - { offset: 0x460F8, size: 0x8, addend: 0x0, symName: '__ZN56_$LT$proc_macro..Ident$u20$as$u20$core..fmt..Display$GT$3fmt17hdefb08034b5d8a5dE', symObjAddr: 0x1E7C0, symBinAddr: 0x2630C, symSize: 0x58 }
  - { offset: 0x46136, size: 0x8, addend: 0x0, symName: __ZN10proc_macro7Literal6string17hd3fa026d04652cc2E, symObjAddr: 0x19D94, symBinAddr: 0x245EC, symSize: 0x100 }
  - { offset: 0x464A0, size: 0x8, addend: 0x0, symName: __ZN10proc_macro6escape12escape_bytes17hb6fab8cd91de4f3cE, symObjAddr: 0x15D58, symBinAddr: 0x23B60, symSize: 0x858 }
  - { offset: 0x476CB, size: 0x8, addend: 0x0, symName: '__ZN10proc_macro7Literal20with_stringify_parts28_$u7b$$u7b$closure$u7d$$u7d$17hb475e8a4d3894e90E', symObjAddr: 0x19B60, symBinAddr: 0x243B8, symSize: 0x234 }
  - { offset: 0x478F9, size: 0x8, addend: 0x0, symName: '__ZN58_$LT$proc_macro..Literal$u20$as$u20$core..fmt..Display$GT$3fmt17h87a74350b2da2e6aE', symObjAddr: 0x1EC98, symBinAddr: 0x26364, symSize: 0x224 }
  - { offset: 0x47F5D, size: 0x8, addend: 0x0, symName: '__ZN92_$LT$proc_macro..TokenStream$u20$as$u20$core..convert..From$LT$proc_macro..TokenTree$GT$$GT$4from17h6cef9e6359163a52E', symObjAddr: 0x21604, symBinAddr: 0x26BC8, symSize: 0x2F0 }
  - { offset: 0x48CC2, size: 0x8, addend: 0x0, symName: '__ZN4core3ptr103drop_in_place$LT$proc_macro..bridge..client..TokenStream..concat_trees..$u7b$$u7b$closure$u7d$$u7d$$GT$17h92969c47ad5a4ba8E', symObjAddr: 0x1C7F0, symBinAddr: 0x25E40, symSize: 0x84 }
  - { offset: 0x48EB6, size: 0x8, addend: 0x0, symName: '__ZN4core3ptr131drop_in_place$LT$proc_macro..bridge..client..maybe_install_panic_hook..$u7b$$u7b$closure$u7d$$u7d$..$u7b$$u7b$closure$u7d$$u7d$$GT$17h9725a2323842d416E', symObjAddr: 0x1C980, symBinAddr: 0x25EC4, symSize: 0x6C }
  - { offset: 0x48FCB, size: 0x8, addend: 0x0, symName: '__ZN4core3ptr192drop_in_place$LT$alloc..vec..Vec$LT$proc_macro..bridge..TokenTree$LT$proc_macro..bridge..client..TokenStream$C$proc_macro..bridge..client..Span$C$proc_macro..bridge..symbol..Symbol$GT$$GT$$GT$17h5600c5748487c2fcE', symObjAddr: 0x1CAE4, symBinAddr: 0x25F30, symSize: 0x12C }
  - { offset: 0x4931B, size: 0x8, addend: 0x0, symName: '__ZN4core3ptr208drop_in_place$LT$alloc..vec..into_iter..IntoIter$LT$proc_macro..bridge..TokenTree$LT$proc_macro..bridge..client..TokenStream$C$proc_macro..bridge..client..Span$C$proc_macro..bridge..symbol..Symbol$GT$$GT$$GT$17hd9a38520a98c5dd1E', symObjAddr: 0x1CC10, symBinAddr: 0x2605C, symSize: 0x134 }
  - { offset: 0x4970A, size: 0x8, addend: 0x0, symName: '__ZN4core3ptr42drop_in_place$LT$alloc..string..String$GT$17h03ca33bb84b48e18E', symObjAddr: 0x1CD44, symBinAddr: 0x26190, symSize: 0x18 }
  - { offset: 0x49797, size: 0x8, addend: 0x0, symName: '__ZN4core3ptr46drop_in_place$LT$alloc..vec..Vec$LT$u8$GT$$GT$17hd3c0169e9a918be0E', symObjAddr: 0x1CDD0, symBinAddr: 0x261A8, symSize: 0x1C }
  - { offset: 0x497AE, size: 0x8, addend: 0x0, symName: '__ZN4core3ptr46drop_in_place$LT$alloc..vec..Vec$LT$u8$GT$$GT$17hd3c0169e9a918be0E', symObjAddr: 0x1CDD0, symBinAddr: 0x261A8, symSize: 0x1C }
  - { offset: 0x497C3, size: 0x8, addend: 0x0, symName: '__ZN4core3ptr46drop_in_place$LT$alloc..vec..Vec$LT$u8$GT$$GT$17hd3c0169e9a918be0E', symObjAddr: 0x1CDD0, symBinAddr: 0x261A8, symSize: 0x1C }
  - { offset: 0x497D8, size: 0x8, addend: 0x0, symName: '__ZN4core3ptr46drop_in_place$LT$alloc..vec..Vec$LT$u8$GT$$GT$17hd3c0169e9a918be0E', symObjAddr: 0x1CDD0, symBinAddr: 0x261A8, symSize: 0x1C }
  - { offset: 0x497ED, size: 0x8, addend: 0x0, symName: '__ZN4core3ptr46drop_in_place$LT$alloc..vec..Vec$LT$u8$GT$$GT$17hd3c0169e9a918be0E', symObjAddr: 0x1CDD0, symBinAddr: 0x261A8, symSize: 0x1C }
  - { offset: 0x49890, size: 0x8, addend: 0x0, symName: '__ZN4core3ptr84drop_in_place$LT$core..cell..RefCell$LT$proc_macro..bridge..symbol..Interner$GT$$GT$17h4717b84f4defe4d5E', symObjAddr: 0x1D18C, symBinAddr: 0x261C4, symSize: 0xD0 }
  - { offset: 0x49BAF, size: 0x8, addend: 0x0, symName: '__ZN4core3ptr91drop_in_place$LT$alloc..boxed..Box$LT$dyn$u20$core..any..Any$u2b$core..marker..Send$GT$$GT$17h3d37b2f1a0a5e556E', symObjAddr: 0x1D334, symBinAddr: 0x26294, symSize: 0x78 }
  - { offset: 0x4A5A2, size: 0x8, addend: 0x0, symName: '__ZN4core3ops8function6FnOnce40call_once$u7b$$u7b$vtable.shim$u7d$$u7d$17h5ecd279e6adf71fcE', symObjAddr: 0x1C4EC, symBinAddr: 0x25CC8, symSize: 0xA0 }
  - { offset: 0x4A693, size: 0x8, addend: 0x0, symName: '__ZN4core3ops8function6FnOnce40call_once$u7b$$u7b$vtable.shim$u7d$$u7d$17h5fedf7e4c7c617ccE', symObjAddr: 0x1C58C, symBinAddr: 0x25D68, symSize: 0xD8 }
  - { offset: 0x4AC27, size: 0x8, addend: 0x0, symName: '__ZN63_$LT$core..cell..BorrowMutError$u20$as$u20$core..fmt..Debug$GT$3fmt17haa284dfbe509a93dE', symObjAddr: 0x1FA60, symBinAddr: 0x266F4, symSize: 0x14 }
  - { offset: 0x4AF79, size: 0x8, addend: 0x0, symName: '__ZN44_$LT$$RF$T$u20$as$u20$core..fmt..Display$GT$3fmt17h84892a1f3c640dabE', symObjAddr: 0x1C420, symBinAddr: 0x25CA0, symSize: 0x10 }
  - { offset: 0x4AFB2, size: 0x8, addend: 0x0, symName: '__ZN4core3fmt3num52_$LT$impl$u20$core..fmt..Debug$u20$for$u20$usize$GT$3fmt17hecd777b1c3510085E', symObjAddr: 0x1C49C, symBinAddr: 0x25CB0, symSize: 0x18 }
  - { offset: 0x4AFCF, size: 0x8, addend: 0x0, symName: '__ZN4core3fmt3num52_$LT$impl$u20$core..fmt..Debug$u20$for$u20$usize$GT$3fmt17hecd777b1c3510085E', symObjAddr: 0x1C49C, symBinAddr: 0x25CB0, symSize: 0x18 }
  - { offset: 0x4AFE8, size: 0x8, addend: 0x0, symName: '__ZN42_$LT$$RF$T$u20$as$u20$core..fmt..Debug$GT$3fmt17h5139d40c8d93e007E', symObjAddr: 0x1C32C, symBinAddr: 0x25C10, symSize: 0x1C }
  - { offset: 0x4B02E, size: 0x8, addend: 0x0, symName: '__ZN42_$LT$$RF$T$u20$as$u20$core..fmt..Debug$GT$3fmt17hd7dbecece4c7be1eE', symObjAddr: 0x1C350, symBinAddr: 0x25C2C, symSize: 0x10 }
  - { offset: 0x4B049, size: 0x8, addend: 0x0, symName: '__ZN42_$LT$$RF$T$u20$as$u20$core..fmt..Debug$GT$3fmt17hf33047dd42f88635E', symObjAddr: 0x1C360, symBinAddr: 0x25C3C, symSize: 0x64 }
  - { offset: 0x4B145, size: 0x8, addend: 0x0, symName: '__ZN64_$LT$core..str..error..Utf8Error$u20$as$u20$core..fmt..Debug$GT$3fmt17h79557e929f64eed5E', symObjAddr: 0x1FA74, symBinAddr: 0x26708, symSize: 0x70 }
  - { offset: 0x4B4CE, size: 0x8, addend: 0x0, symName: '__ZN36_$LT$T$u20$as$u20$core..any..Any$GT$7type_id17h0244dd7b7727b516E', symObjAddr: 0x1C134, symBinAddr: 0x25B18, symSize: 0x14 }
  - { offset: 0x4B4EB, size: 0x8, addend: 0x0, symName: '__ZN36_$LT$T$u20$as$u20$core..any..Any$GT$7type_id17h0244dd7b7727b516E', symObjAddr: 0x1C134, symBinAddr: 0x25B18, symSize: 0x14 }
  - { offset: 0x4B4FD, size: 0x8, addend: 0x0, symName: '__ZN36_$LT$T$u20$as$u20$core..any..Any$GT$7type_id17h7b98e3c3dae1cf7fE', symObjAddr: 0x1C148, symBinAddr: 0x25B2C, symSize: 0x14 }
  - { offset: 0x4B51A, size: 0x8, addend: 0x0, symName: '__ZN36_$LT$T$u20$as$u20$core..any..Any$GT$7type_id17h7b98e3c3dae1cf7fE', symObjAddr: 0x1C148, symBinAddr: 0x25B2C, symSize: 0x14 }
  - { offset: 0x4B52C, size: 0x8, addend: 0x0, symName: '__ZN36_$LT$T$u20$as$u20$core..any..Any$GT$7type_id17hf74b35b68801d915E', symObjAddr: 0x1C15C, symBinAddr: 0x25B40, symSize: 0x14 }
  - { offset: 0x4B549, size: 0x8, addend: 0x0, symName: '__ZN36_$LT$T$u20$as$u20$core..any..Any$GT$7type_id17hf74b35b68801d915E', symObjAddr: 0x1C15C, symBinAddr: 0x25B40, symSize: 0x14 }
  - { offset: 0x4B83E, size: 0x8, addend: 0x0, symName: '__ZN5alloc7raw_vec19RawVec$LT$T$C$A$GT$8grow_one17h24647387054bb67aE', symObjAddr: 0x1F114, symBinAddr: 0x26588, symSize: 0xB4 }
  - { offset: 0x4B969, size: 0x8, addend: 0x0, symName: '__ZN5alloc7raw_vec19RawVec$LT$T$C$A$GT$8grow_one17h414fc11beaa2621fE', symObjAddr: 0x1F280, symBinAddr: 0x2663C, symSize: 0xB8 }
  - { offset: 0x4BA8E, size: 0x8, addend: 0x0, symName: __ZN5alloc7raw_vec11finish_grow17hac5f3af9f209d634E, symObjAddr: 0x1F094, symBinAddr: 0x57028, symSize: 0x80 }
  - { offset: 0x4BB1B, size: 0x8, addend: 0x0, symName: '__ZN5alloc7raw_vec20RawVecInner$LT$A$GT$7reserve21do_reserve_and_handle17h118bc6818a52e890E', symObjAddr: 0x1F3EC, symBinAddr: 0x570A8, symSize: 0xAC }
  - { offset: 0x4C4E8, size: 0x8, addend: 0x0, symName: '__ZN3std3sys12thread_local6native4lazy20Storage$LT$T$C$D$GT$16get_or_init_slow17hea82ee3d0ff30f44E', symObjAddr: 0x1C170, symBinAddr: 0x56F28, symSize: 0x100 }
  - { offset: 0x4C505, size: 0x8, addend: 0x0, symName: '__ZN3std3sys12thread_local6native4lazy20Storage$LT$T$C$D$GT$16get_or_init_slow17hea82ee3d0ff30f44E', symObjAddr: 0x1C170, symBinAddr: 0x56F28, symSize: 0x100 }
  - { offset: 0x4C665, size: 0x8, addend: 0x0, symName: __ZN3std3sys12thread_local6native4lazy7destroy17h3fbcfd3350979e8eE, symObjAddr: 0x1C270, symBinAddr: 0x25B54, symSize: 0x1C }
  - { offset: 0x4C682, size: 0x8, addend: 0x0, symName: __ZN3std3sys12thread_local6native4lazy7destroy17h3fbcfd3350979e8eE, symObjAddr: 0x1C270, symBinAddr: 0x25B54, symSize: 0x1C }
  - { offset: 0x4C696, size: 0x8, addend: 0x0, symName: __ZN3std3sys12thread_local6native4lazy7destroy17h3fbcfd3350979e8eE, symObjAddr: 0x1C270, symBinAddr: 0x25B54, symSize: 0x1C }
  - { offset: 0x4C6AA, size: 0x8, addend: 0x0, symName: __ZN3std3sys12thread_local6native4lazy7destroy17h3fbcfd3350979e8eE, symObjAddr: 0x1C270, symBinAddr: 0x25B54, symSize: 0x1C }
  - { offset: 0x4C6BE, size: 0x8, addend: 0x0, symName: __ZN3std3sys12thread_local6native4lazy7destroy17h3fbcfd3350979e8eE, symObjAddr: 0x1C270, symBinAddr: 0x25B54, symSize: 0x1C }
  - { offset: 0x4C725, size: 0x8, addend: 0x0, symName: '__ZN3std4sync6poison4once4Once9call_once28_$u7b$$u7b$closure$u7d$$u7d$17h4b5a573b970e794fE', symObjAddr: 0x1C28C, symBinAddr: 0x25B70, symSize: 0xA0 }
  - { offset: 0x4C901, size: 0x8, addend: 0x0, symName: '__ZN9hashbrown3raw21RawTable$LT$T$C$A$GT$14reserve_rehash17hf809b42aff5c6db1E', symObjAddr: 0x228A8, symBinAddr: 0x57154, symSize: 0x608 }
  - { offset: 0x4E5BA, size: 0x8, addend: 0x0, symName: __RNvCskdKJRKLKjqM_7___rustc10rust_panic, symObjAddr: 0x0, symBinAddr: 0x5775C, symSize: 0x60 }
  - { offset: 0x4E865, size: 0x8, addend: 0x0, symName: '__ZN42_$LT$$RF$T$u20$as$u20$core..fmt..Debug$GT$3fmt17h1657bda62079795fE', symObjAddr: 0x22C30, symBinAddr: 0x32CC0, symSize: 0x74 }
  - { offset: 0x4E97C, size: 0x8, addend: 0x0, symName: '__ZN42_$LT$$RF$T$u20$as$u20$core..fmt..Debug$GT$3fmt17h1afb9163f1905b06E', symObjAddr: 0x22CA4, symBinAddr: 0x32D34, symSize: 0x10 }
  - { offset: 0x4E9AD, size: 0x8, addend: 0x0, symName: '__ZN42_$LT$$RF$T$u20$as$u20$core..fmt..Debug$GT$3fmt17h624b3b1b2bc3ccaaE', symObjAddr: 0x230F0, symBinAddr: 0x32D44, symSize: 0x10 }
  - { offset: 0x4E9C1, size: 0x8, addend: 0x0, symName: '__ZN42_$LT$$RF$T$u20$as$u20$core..fmt..Debug$GT$3fmt17h962ee5d805df0a43E', symObjAddr: 0x232AC, symBinAddr: 0x32D54, symSize: 0x1C }
  - { offset: 0x4EA15, size: 0x8, addend: 0x0, symName: '__ZN42_$LT$$RF$T$u20$as$u20$core..fmt..Debug$GT$3fmt17hbd1e035ac7e08f25E', symObjAddr: 0x23400, symBinAddr: 0x32D70, symSize: 0x1C }
  - { offset: 0x4EA6F, size: 0x8, addend: 0x0, symName: '__ZN44_$LT$$RF$T$u20$as$u20$core..fmt..Display$GT$3fmt17h42b41cde78dd7a40E', symObjAddr: 0x23740, symBinAddr: 0x32D8C, symSize: 0x10 }
  - { offset: 0x4EA8A, size: 0x8, addend: 0x0, symName: '__ZN44_$LT$$RF$T$u20$as$u20$core..fmt..Display$GT$3fmt17h97ddbbc1a338291fE', symObjAddr: 0x23760, symBinAddr: 0x32D9C, symSize: 0x74 }
  - { offset: 0x4EB35, size: 0x8, addend: 0x0, symName: '__ZN4core3fmt3num50_$LT$impl$u20$core..fmt..Debug$u20$for$u20$i32$GT$3fmt17h0ee72d503607d7feE', symObjAddr: 0x23AE0, symBinAddr: 0x32E10, symSize: 0x18 }
  - { offset: 0x4EB4C, size: 0x8, addend: 0x0, symName: '__ZN4core3fmt3num50_$LT$impl$u20$core..fmt..Debug$u20$for$u20$i32$GT$3fmt17h0ee72d503607d7feE', symObjAddr: 0x23AE0, symBinAddr: 0x32E10, symSize: 0x18 }
  - { offset: 0x4EB77, size: 0x8, addend: 0x0, symName: '__ZN4core3fmt3num52_$LT$impl$u20$core..fmt..Debug$u20$for$u20$usize$GT$3fmt17hecd777b1c3510085E', symObjAddr: 0x23B40, symBinAddr: 0x32E28, symSize: 0x18 }
  - { offset: 0x4EB8E, size: 0x8, addend: 0x0, symName: '__ZN4core3fmt3num52_$LT$impl$u20$core..fmt..Debug$u20$for$u20$usize$GT$3fmt17hecd777b1c3510085E', symObjAddr: 0x23B40, symBinAddr: 0x32E28, symSize: 0x18 }
  - { offset: 0x4EBB4, size: 0x8, addend: 0x0, symName: __ZN4core3fmt5Write10write_char17h69d96c692ad3d067E, symObjAddr: 0x23DE8, symBinAddr: 0x32E40, symSize: 0x168 }
  - { offset: 0x4ED2F, size: 0x8, addend: 0x0, symName: __ZN4core3fmt5Write10write_char17hca427d9223c5b6e1E, symObjAddr: 0x23F50, symBinAddr: 0x32FA8, symSize: 0x138 }
  - { offset: 0x4EEBF, size: 0x8, addend: 0x0, symName: __ZN4core3fmt5Write10write_char17he9318f738a0331ecE, symObjAddr: 0x24088, symBinAddr: 0x330E0, symSize: 0x110 }
  - { offset: 0x4F0B3, size: 0x8, addend: 0x0, symName: __ZN4core3fmt5Write9write_fmt17h0e54e39e3cec6689E, symObjAddr: 0x242F8, symBinAddr: 0x331F0, symSize: 0x38 }
  - { offset: 0x4F0E2, size: 0x8, addend: 0x0, symName: __ZN4core3fmt5Write9write_fmt17h19fd30b4ad025d60E, symObjAddr: 0x24330, symBinAddr: 0x33228, symSize: 0x38 }
  - { offset: 0x4F111, size: 0x8, addend: 0x0, symName: __ZN4core3fmt5Write9write_fmt17h2a94cca2598c1fb1E, symObjAddr: 0x243A0, symBinAddr: 0x33260, symSize: 0x38 }
  - { offset: 0x4F140, size: 0x8, addend: 0x0, symName: __ZN4core3fmt5Write9write_fmt17heb18d397fb6127d0E, symObjAddr: 0x24410, symBinAddr: 0x33298, symSize: 0x38 }
  - { offset: 0x4F19D, size: 0x8, addend: 0x0, symName: '__ZN50_$LT$$BP$mut$u20$T$u20$as$u20$core..fmt..Debug$GT$3fmt17hc506ef24e45fcfffE', symObjAddr: 0x31FD4, symBinAddr: 0x3CA1C, symSize: 0x8 }
  - { offset: 0x4F1BB, size: 0x8, addend: 0x0, symName: '__ZN50_$LT$$BP$mut$u20$T$u20$as$u20$core..fmt..Debug$GT$3fmt17hc506ef24e45fcfffE', symObjAddr: 0x31FD4, symBinAddr: 0x3CA1C, symSize: 0x8 }
  - { offset: 0x4F1EA, size: 0x8, addend: 0x0, symName: '__ZN52_$LT$$RF$mut$u20$T$u20$as$u20$core..fmt..Display$GT$3fmt17hbaf30795b8d3c4d8E', symObjAddr: 0x3262C, symBinAddr: 0x3CA24, symSize: 0x10 }
  - { offset: 0x50E18, size: 0x8, addend: 0x0, symName: '__ZN4core3ptr107drop_in_place$LT$core..pin..Pin$LT$alloc..boxed..Box$LT$std..sys..pal..unix..sync..mutex..Mutex$GT$$GT$$GT$17hbd21784a02a2f8d1E', symObjAddr: 0x24A20, symBinAddr: 0x333A0, symSize: 0x2C }
  - { offset: 0x50EAF, size: 0x8, addend: 0x0, symName: '__ZN4core3ptr109drop_in_place$LT$alloc..sync..Arc$LT$std..sync..poison..mutex..Mutex$LT$alloc..vec..Vec$LT$u8$GT$$GT$$GT$$GT$17h5646c21d902a9b21E', symObjAddr: 0x24A4C, symBinAddr: 0x333CC, symSize: 0x20 }
  - { offset: 0x50EC6, size: 0x8, addend: 0x0, symName: '__ZN4core3ptr109drop_in_place$LT$alloc..sync..Arc$LT$std..sync..poison..mutex..Mutex$LT$alloc..vec..Vec$LT$u8$GT$$GT$$GT$$GT$17h5646c21d902a9b21E', symObjAddr: 0x24A4C, symBinAddr: 0x333CC, symSize: 0x20 }
  - { offset: 0x50EDB, size: 0x8, addend: 0x0, symName: '__ZN4core3ptr109drop_in_place$LT$alloc..sync..Arc$LT$std..sync..poison..mutex..Mutex$LT$alloc..vec..Vec$LT$u8$GT$$GT$$GT$$GT$17h5646c21d902a9b21E', symObjAddr: 0x24A4C, symBinAddr: 0x333CC, symSize: 0x20 }
  - { offset: 0x50EF0, size: 0x8, addend: 0x0, symName: '__ZN4core3ptr109drop_in_place$LT$alloc..sync..Arc$LT$std..sync..poison..mutex..Mutex$LT$alloc..vec..Vec$LT$u8$GT$$GT$$GT$$GT$17h5646c21d902a9b21E', symObjAddr: 0x24A4C, symBinAddr: 0x333CC, symSize: 0x20 }
  - { offset: 0x50F44, size: 0x8, addend: 0x0, symName: '__ZN4core3ptr119drop_in_place$LT$std..io..default_write_fmt..Adapter$LT$std..io..cursor..Cursor$LT$$RF$mut$u20$$u5b$u8$u5d$$GT$$GT$$GT$17hd94de8f89bec7782E', symObjAddr: 0x24AE8, symBinAddr: 0x333EC, symSize: 0x10 }
  - { offset: 0x50F5B, size: 0x8, addend: 0x0, symName: '__ZN4core3ptr119drop_in_place$LT$std..io..default_write_fmt..Adapter$LT$std..io..cursor..Cursor$LT$$RF$mut$u20$$u5b$u8$u5d$$GT$$GT$$GT$17hd94de8f89bec7782E', symObjAddr: 0x24AE8, symBinAddr: 0x333EC, symSize: 0x10 }
  - { offset: 0x50F6E, size: 0x8, addend: 0x0, symName: '__ZN4core3ptr123drop_in_place$LT$addr2line..Context$LT$gimli..read..endian_slice..EndianSlice$LT$gimli..endianity..LittleEndian$GT$$GT$$GT$17h60120d8b61f786aeE', symObjAddr: 0x24AF8, symBinAddr: 0x333FC, symSize: 0x70 }
  - { offset: 0x51027, size: 0x8, addend: 0x0, symName: '__ZN4core3ptr128drop_in_place$LT$core..result..Result$LT$$RF$std..thread..Thread$C$$LP$$RF$std..thread..Thread$C$std..thread..Thread$RP$$GT$$GT$17h75718b8337910809E', symObjAddr: 0x24B68, symBinAddr: 0x3346C, symSize: 0x28 }
  - { offset: 0x5117D, size: 0x8, addend: 0x0, symName: '__ZN4core3ptr129drop_in_place$LT$addr2line..unit..ResUnit$LT$gimli..read..endian_slice..EndianSlice$LT$gimli..endianity..LittleEndian$GT$$GT$$GT$17h61db7baa14403ae7E', symObjAddr: 0x24B90, symBinAddr: 0x33494, symSize: 0xE4 }
  - { offset: 0x5139F, size: 0x8, addend: 0x0, symName: '__ZN4core3ptr129drop_in_place$LT$addr2line..unit..SupUnit$LT$gimli..read..endian_slice..EndianSlice$LT$gimli..endianity..LittleEndian$GT$$GT$$GT$17hbd87d71db3a78ec7E', symObjAddr: 0x24C74, symBinAddr: 0x33578, symSize: 0x54 }
  - { offset: 0x5145E, size: 0x8, addend: 0x0, symName: '__ZN4core3ptr130drop_in_place$LT$addr2line..unit..ResUnits$LT$gimli..read..endian_slice..EndianSlice$LT$gimli..endianity..LittleEndian$GT$$GT$$GT$17hb2ce511d8969e07fE', symObjAddr: 0x24CC8, symBinAddr: 0x335CC, symSize: 0xD0 }
  - { offset: 0x51607, size: 0x8, addend: 0x0, symName: '__ZN4core3ptr130drop_in_place$LT$addr2line..unit..SupUnits$LT$gimli..read..endian_slice..EndianSlice$LT$gimli..endianity..LittleEndian$GT$$GT$$GT$17h3d17c95ef0deb2d2E', symObjAddr: 0x24D98, symBinAddr: 0x3369C, symSize: 0xE4 }
  - { offset: 0x517B7, size: 0x8, addend: 0x0, symName: '__ZN4core3ptr130drop_in_place$LT$gimli..read..dwarf..Dwarf$LT$gimli..read..endian_slice..EndianSlice$LT$gimli..endianity..LittleEndian$GT$$GT$$GT$17hc9e7ef4be229448fE', symObjAddr: 0x24E7C, symBinAddr: 0x33780, symSize: 0x58 }
  - { offset: 0x5184D, size: 0x8, addend: 0x0, symName: '__ZN4core3ptr131drop_in_place$LT$$u5b$core..option..Option$LT$core..option..Option$LT$std..backtrace_rs..symbolize..gimli..Mapping$GT$$GT$$u5d$$GT$17hbc1f61e360e1245cE', symObjAddr: 0x24ED4, symBinAddr: 0x337D8, symSize: 0xCC }
  - { offset: 0x518F7, size: 0x8, addend: 0x0, symName: '__ZN4core3ptr131drop_in_place$LT$alloc..boxed..Box$LT$dyn$u20$core..ops..function..FnOnce$LT$$LP$$RP$$GT$$u2b$Output$u20$$u3d$$u20$$LP$$RP$$GT$$GT$17hcd6787f4796be228E', symObjAddr: 0x24FA0, symBinAddr: 0x338A4, symSize: 0x78 }
  - { offset: 0x519E2, size: 0x8, addend: 0x0, symName: '__ZN4core3ptr137drop_in_place$LT$gimli..read..dwarf..Unit$LT$gimli..read..endian_slice..EndianSlice$LT$gimli..endianity..LittleEndian$GT$$C$usize$GT$$GT$17ha92b70ae8706df64E', symObjAddr: 0x25018, symBinAddr: 0x3391C, symSize: 0x54 }
  - { offset: 0x51ADF, size: 0x8, addend: 0x0, symName: '__ZN4core3ptr138drop_in_place$LT$addr2line..function..LazyFunction$LT$gimli..read..endian_slice..EndianSlice$LT$gimli..endianity..LittleEndian$GT$$GT$$GT$17h5b1532da9ccb5096E', symObjAddr: 0x2506C, symBinAddr: 0x33970, symSize: 0x64 }
  - { offset: 0x51AF6, size: 0x8, addend: 0x0, symName: '__ZN4core3ptr138drop_in_place$LT$addr2line..function..LazyFunction$LT$gimli..read..endian_slice..EndianSlice$LT$gimli..endianity..LittleEndian$GT$$GT$$GT$17h5b1532da9ccb5096E', symObjAddr: 0x2506C, symBinAddr: 0x33970, symSize: 0x64 }
  - { offset: 0x51B0B, size: 0x8, addend: 0x0, symName: '__ZN4core3ptr138drop_in_place$LT$addr2line..function..LazyFunction$LT$gimli..read..endian_slice..EndianSlice$LT$gimli..endianity..LittleEndian$GT$$GT$$GT$17h5b1532da9ccb5096E', symObjAddr: 0x2506C, symBinAddr: 0x33970, symSize: 0x64 }
  - { offset: 0x51B20, size: 0x8, addend: 0x0, symName: '__ZN4core3ptr138drop_in_place$LT$addr2line..function..LazyFunction$LT$gimli..read..endian_slice..EndianSlice$LT$gimli..endianity..LittleEndian$GT$$GT$$GT$17h5b1532da9ccb5096E', symObjAddr: 0x2506C, symBinAddr: 0x33970, symSize: 0x64 }
  - { offset: 0x51C54, size: 0x8, addend: 0x0, symName: '__ZN4core3ptr144drop_in_place$LT$alloc..vec..Vec$LT$core..option..Option$LT$core..option..Option$LT$std..backtrace_rs..symbolize..gimli..Mapping$GT$$GT$$GT$$GT$17h76825e3abe87d450E', symObjAddr: 0x250D0, symBinAddr: 0x339D4, symSize: 0x78 }
  - { offset: 0x51DAE, size: 0x8, addend: 0x0, symName: '__ZN4core3ptr152drop_in_place$LT$alloc..vec..Vec$LT$addr2line..unit..ResUnit$LT$gimli..read..endian_slice..EndianSlice$LT$gimli..endianity..LittleEndian$GT$$GT$$GT$$GT$17h6c57a6c544237a87E', symObjAddr: 0x25204, symBinAddr: 0x33A4C, symSize: 0xC4 }
  - { offset: 0x51F1D, size: 0x8, addend: 0x0, symName: '__ZN4core3ptr152drop_in_place$LT$alloc..vec..Vec$LT$addr2line..unit..SupUnit$LT$gimli..read..endian_slice..EndianSlice$LT$gimli..endianity..LittleEndian$GT$$GT$$GT$$GT$17h5ad4c72a1632250dE', symObjAddr: 0x252C8, symBinAddr: 0x33B10, symSize: 0xF4 }
  - { offset: 0x52135, size: 0x8, addend: 0x0, symName: '__ZN4core3ptr156drop_in_place$LT$alloc..boxed..Box$LT$$u5b$core..option..Option$LT$core..option..Option$LT$std..backtrace_rs..symbolize..gimli..Mapping$GT$$GT$$u5d$$GT$$GT$17hcb1b2da851a6d067E', symObjAddr: 0x253BC, symBinAddr: 0x33C04, symSize: 0xF8 }
  - { offset: 0x5225F, size: 0x8, addend: 0x0, symName: '__ZN4core3ptr159drop_in_place$LT$alloc..sync..ArcInner$LT$gimli..read..dwarf..Dwarf$LT$gimli..read..endian_slice..EndianSlice$LT$gimli..endianity..LittleEndian$GT$$GT$$GT$$GT$17h7de780a0c68b30e9E', symObjAddr: 0x25544, symBinAddr: 0x33CFC, symSize: 0x5C }
  - { offset: 0x52324, size: 0x8, addend: 0x0, symName: '__ZN4core3ptr161drop_in_place$LT$alloc..vec..Vec$LT$addr2line..function..LazyFunction$LT$gimli..read..endian_slice..EndianSlice$LT$gimli..endianity..LittleEndian$GT$$GT$$GT$$GT$17h3d6d53657b9c2934E', symObjAddr: 0x255A0, symBinAddr: 0x33D58, symSize: 0xAC }
  - { offset: 0x52561, size: 0x8, addend: 0x0, symName: '__ZN4core3ptr172drop_in_place$LT$core..result..Result$LT$addr2line..Context$LT$gimli..read..endian_slice..EndianSlice$LT$gimli..endianity..LittleEndian$GT$$GT$$C$gimli..read..Error$GT$$GT$17h4bff534e67e3d6dbE', symObjAddr: 0x256F8, symBinAddr: 0x33E04, symSize: 0x80 }
  - { offset: 0x525F6, size: 0x8, addend: 0x0, symName: '__ZN4core3ptr173drop_in_place$LT$alloc..boxed..Box$LT$$u5b$addr2line..function..LazyFunction$LT$gimli..read..endian_slice..EndianSlice$LT$gimli..endianity..LittleEndian$GT$$GT$$u5d$$GT$$GT$17h2cad5765df2f5de8E', symObjAddr: 0x25778, symBinAddr: 0x33E84, symSize: 0x9C }
  - { offset: 0x5260D, size: 0x8, addend: 0x0, symName: '__ZN4core3ptr173drop_in_place$LT$alloc..boxed..Box$LT$$u5b$addr2line..function..LazyFunction$LT$gimli..read..endian_slice..EndianSlice$LT$gimli..endianity..LittleEndian$GT$$GT$$u5d$$GT$$GT$17h2cad5765df2f5de8E', symObjAddr: 0x25778, symBinAddr: 0x33E84, symSize: 0x9C }
  - { offset: 0x527E2, size: 0x8, addend: 0x0, symName: '__ZN4core3ptr181drop_in_place$LT$core..option..Option$LT$gimli..read..line..IncompleteLineProgram$LT$gimli..read..endian_slice..EndianSlice$LT$gimli..endianity..LittleEndian$GT$$C$usize$GT$$GT$$GT$17h4072838a3a3bc029E', symObjAddr: 0x25884, symBinAddr: 0x33F20, symSize: 0x98 }
  - { offset: 0x52A3B, size: 0x8, addend: 0x0, symName: '__ZN4core3ptr181drop_in_place$LT$core..result..Result$LT$addr2line..frame..FrameIter$LT$gimli..read..endian_slice..EndianSlice$LT$gimli..endianity..LittleEndian$GT$$GT$$C$gimli..read..Error$GT$$GT$17h1a8da6a3f705e13bE', symObjAddr: 0x2591C, symBinAddr: 0x33FB8, symSize: 0x34 }
  - { offset: 0x52B79, size: 0x8, addend: 0x0, symName: '__ZN4core3ptr184drop_in_place$LT$core..result..Result$LT$addr2line..function..Functions$LT$gimli..read..endian_slice..EndianSlice$LT$gimli..endianity..LittleEndian$GT$$GT$$C$gimli..read..Error$GT$$GT$17h9a3bad25e1bdcbe6E', symObjAddr: 0x25950, symBinAddr: 0x33FEC, symSize: 0xD8 }
  - { offset: 0x52E33, size: 0x8, addend: 0x0, symName: '__ZN4core3ptr231drop_in_place$LT$core..result..Result$LT$core..option..Option$LT$alloc..boxed..Box$LT$addr2line..unit..DwoUnit$LT$gimli..read..endian_slice..EndianSlice$LT$gimli..endianity..LittleEndian$GT$$GT$$GT$$GT$$C$gimli..read..Error$GT$$GT$17h6cb514b393938b83E', symObjAddr: 0x25AE8, symBinAddr: 0x340C4, symSize: 0xD4 }
  - { offset: 0x5300E, size: 0x8, addend: 0x0, symName: '__ZN4core3ptr238drop_in_place$LT$alloc..boxed..convert..$LT$impl$u20$core..convert..From$LT$alloc..string..String$GT$$u20$for$u20$alloc..boxed..Box$LT$dyn$u20$core..error..Error$u2b$core..marker..Sync$u2b$core..marker..Send$GT$$GT$..from..StringError$GT$17h021cfce481c078aaE', symObjAddr: 0x25BBC, symBinAddr: 0x34198, symSize: 0x18 }
  - { offset: 0x53025, size: 0x8, addend: 0x0, symName: '__ZN4core3ptr238drop_in_place$LT$alloc..boxed..convert..$LT$impl$u20$core..convert..From$LT$alloc..string..String$GT$$u20$for$u20$alloc..boxed..Box$LT$dyn$u20$core..error..Error$u2b$core..marker..Sync$u2b$core..marker..Send$GT$$GT$..from..StringError$GT$17h021cfce481c078aaE', symObjAddr: 0x25BBC, symBinAddr: 0x34198, symSize: 0x18 }
  - { offset: 0x5303A, size: 0x8, addend: 0x0, symName: '__ZN4core3ptr238drop_in_place$LT$alloc..boxed..convert..$LT$impl$u20$core..convert..From$LT$alloc..string..String$GT$$u20$for$u20$alloc..boxed..Box$LT$dyn$u20$core..error..Error$u2b$core..marker..Sync$u2b$core..marker..Send$GT$$GT$..from..StringError$GT$17h021cfce481c078aaE', symObjAddr: 0x25BBC, symBinAddr: 0x34198, symSize: 0x18 }
  - { offset: 0x530B9, size: 0x8, addend: 0x0, symName: '__ZN4core3ptr275drop_in_place$LT$gimli..read..line..LineRows$LT$gimli..read..endian_slice..EndianSlice$LT$gimli..endianity..LittleEndian$GT$$C$gimli..read..line..IncompleteLineProgram$LT$gimli..read..endian_slice..EndianSlice$LT$gimli..endianity..LittleEndian$GT$$C$usize$GT$$C$usize$GT$$GT$17h53f25b84add21487E', symObjAddr: 0x25BD4, symBinAddr: 0x341B0, symSize: 0x8C }
  - { offset: 0x5332E, size: 0x8, addend: 0x0, symName: '__ZN4core3ptr280drop_in_place$LT$$LT$alloc..collections..btree..map..IntoIter$LT$K$C$V$C$A$GT$$u20$as$u20$core..ops..drop..Drop$GT$..drop..DropGuard$LT$u64$C$core..result..Result$LT$alloc..sync..Arc$LT$gimli..read..abbrev..Abbreviations$GT$$C$gimli..read..Error$GT$$C$alloc..alloc..Global$GT$$GT$17hcc27088c1e07f147E', symObjAddr: 0x25C60, symBinAddr: 0x3423C, symSize: 0x84 }
  - { offset: 0x5349E, size: 0x8, addend: 0x0, symName: '__ZN4core3ptr284drop_in_place$LT$core..result..Result$LT$$RF$core..result..Result$LT$addr2line..line..Lines$C$gimli..read..Error$GT$$C$$LP$$RF$core..result..Result$LT$addr2line..line..Lines$C$gimli..read..Error$GT$$C$core..result..Result$LT$addr2line..line..Lines$C$gimli..read..Error$GT$$RP$$GT$$GT$17hb193a9c217a4a4c1E', symObjAddr: 0x25CE4, symBinAddr: 0x342C0, symSize: 0x10 }
  - { offset: 0x534CF, size: 0x8, addend: 0x0, symName: '__ZN4core3ptr41drop_in_place$LT$std..panicking..Hook$GT$17h512d5021f809466aE', symObjAddr: 0x25E2C, symBinAddr: 0x342D0, symSize: 0x7C }
  - { offset: 0x535C8, size: 0x8, addend: 0x0, symName: '__ZN4core3ptr42drop_in_place$LT$alloc..string..String$GT$17hf6a0412a3add09b1E', symObjAddr: 0x25EA8, symBinAddr: 0x3434C, symSize: 0x18 }
  - { offset: 0x535DF, size: 0x8, addend: 0x0, symName: '__ZN4core3ptr42drop_in_place$LT$alloc..string..String$GT$17hf6a0412a3add09b1E', symObjAddr: 0x25EA8, symBinAddr: 0x3434C, symSize: 0x18 }
  - { offset: 0x5365D, size: 0x8, addend: 0x0, symName: '__ZN4core3ptr42drop_in_place$LT$std..io..error..Error$GT$17hf851d76d73342388E', symObjAddr: 0x25EC0, symBinAddr: 0x34364, symSize: 0xAC }
  - { offset: 0x53841, size: 0x8, addend: 0x0, symName: '__ZN4core3ptr44drop_in_place$LT$object..read..ObjectMap$GT$17h0847af56bc5df22dE', symObjAddr: 0x25F6C, symBinAddr: 0x34410, symSize: 0x58 }
  - { offset: 0x53970, size: 0x8, addend: 0x0, symName: '__ZN4core3ptr46drop_in_place$LT$alloc..vec..Vec$LT$u8$GT$$GT$17hba5d5d275589670eE', symObjAddr: 0x26030, symBinAddr: 0x34468, symSize: 0x18 }
  - { offset: 0x539EF, size: 0x8, addend: 0x0, symName: '__ZN4core3ptr46drop_in_place$LT$std..io..stdio..StdinLock$GT$17h0f6294c31e8bd6fbE', symObjAddr: 0x26048, symBinAddr: 0x34480, symSize: 0x54 }
  - { offset: 0x53A06, size: 0x8, addend: 0x0, symName: '__ZN4core3ptr46drop_in_place$LT$std..io..stdio..StdinLock$GT$17h0f6294c31e8bd6fbE', symObjAddr: 0x26048, symBinAddr: 0x34480, symSize: 0x54 }
  - { offset: 0x53A1B, size: 0x8, addend: 0x0, symName: '__ZN4core3ptr46drop_in_place$LT$std..io..stdio..StdinLock$GT$17h0f6294c31e8bd6fbE', symObjAddr: 0x26048, symBinAddr: 0x34480, symSize: 0x54 }
  - { offset: 0x53AFF, size: 0x8, addend: 0x0, symName: '__ZN4core3ptr48drop_in_place$LT$alloc..ffi..c_str..NulError$GT$17h4b149f15bda11918E', symObjAddr: 0x26180, symBinAddr: 0x344D4, symSize: 0x18 }
  - { offset: 0x53B16, size: 0x8, addend: 0x0, symName: '__ZN4core3ptr48drop_in_place$LT$alloc..ffi..c_str..NulError$GT$17h4b149f15bda11918E', symObjAddr: 0x26180, symBinAddr: 0x344D4, symSize: 0x18 }
  - { offset: 0x53BA2, size: 0x8, addend: 0x0, symName: '__ZN4core3ptr557drop_in_place$LT$core..result..Result$LT$$RF$core..result..Result$LT$addr2line..function..Function$LT$gimli..read..endian_slice..EndianSlice$LT$gimli..endianity..LittleEndian$GT$$GT$$C$gimli..read..Error$GT$$C$$LP$$RF$core..result..Result$LT$addr2line..function..Function$LT$gimli..read..endian_slice..EndianSlice$LT$gimli..endianity..LittleEndian$GT$$GT$$C$gimli..read..Error$GT$$C$core..result..Result$LT$addr2line..function..Function$LT$gimli..read..endian_slice..EndianSlice$LT$gimli..endianity..LittleEndian$GT$$GT$$C$gimli..read..Error$GT$$RP$$GT$$GT$17hddd2d7300f8297eaE', symObjAddr: 0x26458, symBinAddr: 0x344EC, symSize: 0x64 }
  - { offset: 0x53D8C, size: 0x8, addend: 0x0, symName: '__ZN4core3ptr55drop_in_place$LT$gimli..read..abbrev..Abbreviations$GT$17h8587e1680933f2fcE', symObjAddr: 0x264BC, symBinAddr: 0x34550, symSize: 0x118 }
  - { offset: 0x540FD, size: 0x8, addend: 0x0, symName: '__ZN4core3ptr560drop_in_place$LT$core..result..Result$LT$$RF$core..result..Result$LT$addr2line..function..Functions$LT$gimli..read..endian_slice..EndianSlice$LT$gimli..endianity..LittleEndian$GT$$GT$$C$gimli..read..Error$GT$$C$$LP$$RF$core..result..Result$LT$addr2line..function..Functions$LT$gimli..read..endian_slice..EndianSlice$LT$gimli..endianity..LittleEndian$GT$$GT$$C$gimli..read..Error$GT$$C$core..result..Result$LT$addr2line..function..Functions$LT$gimli..read..endian_slice..EndianSlice$LT$gimli..endianity..LittleEndian$GT$$GT$$C$gimli..read..Error$GT$$RP$$GT$$GT$17he4dc02a625b1da45E', symObjAddr: 0x266E4, symBinAddr: 0x34668, symSize: 0x10 }
  - { offset: 0x54158, size: 0x8, addend: 0x0, symName: '__ZN4core3ptr60drop_in_place$LT$gimli..read..abbrev..AbbreviationsCache$GT$17h05dc331b510e23d9E', symObjAddr: 0x266F4, symBinAddr: 0x34678, symSize: 0xCC }
  - { offset: 0x54303, size: 0x8, addend: 0x0, symName: '__ZN4core3ptr61drop_in_place$LT$std..panicking..resume_unwind..RewrapBox$GT$17hee7b0556d18824b4E', symObjAddr: 0x267C0, symBinAddr: 0x34744, symSize: 0x6C }
  - { offset: 0x543FC, size: 0x8, addend: 0x0, symName: '__ZN4core3ptr64drop_in_place$LT$std..sys..pal..unix..sync..mutex..AttrGuard$GT$17he7e52a9dfb22022eE', symObjAddr: 0x2682C, symBinAddr: 0x347B0, symSize: 0x48 }
  - { offset: 0x5443B, size: 0x8, addend: 0x0, symName: '__ZN4core3ptr65drop_in_place$LT$alloc..vec..Vec$LT$alloc..string..String$GT$$GT$17h1a875569544aab8bE', symObjAddr: 0x26940, symBinAddr: 0x347F8, symSize: 0x80 }
  - { offset: 0x545A1, size: 0x8, addend: 0x0, symName: '__ZN4core3ptr65drop_in_place$LT$std..backtrace_rs..symbolize..gimli..Context$GT$17h29923633989d7a97E', symObjAddr: 0x269C0, symBinAddr: 0x34878, symSize: 0xE8 }
  - { offset: 0x54833, size: 0x8, addend: 0x0, symName: '__ZN4core3ptr66drop_in_place$LT$std..backtrace_rs..backtrace..libunwind..Bomb$GT$17hf3cf99a2a39305f3E', symObjAddr: 0x26AA8, symBinAddr: 0x34960, symSize: 0x40 }
  - { offset: 0x5487F, size: 0x8, addend: 0x0, symName: '__ZN4core3ptr701drop_in_place$LT$core..result..Result$LT$$RF$core..result..Result$LT$core..option..Option$LT$alloc..boxed..Box$LT$addr2line..unit..DwoUnit$LT$gimli..read..endian_slice..EndianSlice$LT$gimli..endianity..LittleEndian$GT$$GT$$GT$$GT$$C$gimli..read..Error$GT$$C$$LP$$RF$core..result..Result$LT$core..option..Option$LT$alloc..boxed..Box$LT$addr2line..unit..DwoUnit$LT$gimli..read..endian_slice..EndianSlice$LT$gimli..endianity..LittleEndian$GT$$GT$$GT$$GT$$C$gimli..read..Error$GT$$C$core..result..Result$LT$core..option..Option$LT$alloc..boxed..Box$LT$addr2line..unit..DwoUnit$LT$gimli..read..endian_slice..EndianSlice$LT$gimli..endianity..LittleEndian$GT$$GT$$GT$$GT$$C$gimli..read..Error$GT$$RP$$GT$$GT$17hf93357a84d00fc7eE', symObjAddr: 0x26AE8, symBinAddr: 0x349A0, symSize: 0x14 }
  - { offset: 0x54920, size: 0x8, addend: 0x0, symName: '__ZN4core3ptr70drop_in_place$LT$std..backtrace_rs..symbolize..gimli..stash..Stash$GT$17hed8a877d9cede334E', symObjAddr: 0x26AFC, symBinAddr: 0x349B4, symSize: 0xB8 }
  - { offset: 0x54BC6, size: 0x8, addend: 0x0, symName: '__ZN4core3ptr71drop_in_place$LT$std..backtrace_rs..symbolize..gimli..macho..Object$GT$17h869151e7b414cfd4E', symObjAddr: 0x26BB4, symBinAddr: 0x34A6C, symSize: 0xD8 }
  - { offset: 0x54E8B, size: 0x8, addend: 0x0, symName: '__ZN4core3ptr71drop_in_place$LT$std..panicking..panic_handler..FormatStringPayload$GT$17h837459f0acb2901dE', symObjAddr: 0x26C8C, symBinAddr: 0x34B44, symSize: 0x1C }
  - { offset: 0x54F47, size: 0x8, addend: 0x0, symName: '__ZN4core3ptr72drop_in_place$LT$core..option..Option$LT$object..read..ObjectMap$GT$$GT$17h379eb7351ada8367E', symObjAddr: 0x26CA8, symBinAddr: 0x34B60, symSize: 0x64 }
  - { offset: 0x550C4, size: 0x8, addend: 0x0, symName: '__ZN4core3ptr73drop_in_place$LT$alloc..vec..Vec$LT$addr2line..line..LineSequence$GT$$GT$17h677f3e6952565af2E', symObjAddr: 0x26D0C, symBinAddr: 0x34BC4, symSize: 0x84 }
  - { offset: 0x5521C, size: 0x8, addend: 0x0, symName: '__ZN4core3ptr77drop_in_place$LT$alloc..boxed..Box$LT$$u5b$alloc..string..String$u5d$$GT$$GT$17h78b274672de7575aE', symObjAddr: 0x26DC8, symBinAddr: 0x34C48, symSize: 0x70 }
  - { offset: 0x55233, size: 0x8, addend: 0x0, symName: '__ZN4core3ptr77drop_in_place$LT$alloc..boxed..Box$LT$$u5b$alloc..string..String$u5d$$GT$$GT$17h78b274672de7575aE', symObjAddr: 0x26DC8, symBinAddr: 0x34C48, symSize: 0x70 }
  - { offset: 0x55331, size: 0x8, addend: 0x0, symName: '__ZN4core3ptr79drop_in_place$LT$std..sync..poison..rwlock..RwLockReadGuard$LT$$LP$$RP$$GT$$GT$17ha956672fedf200a4E', symObjAddr: 0x26E48, symBinAddr: 0x34CB8, symSize: 0x58 }
  - { offset: 0x553CD, size: 0x8, addend: 0x0, symName: '__ZN4core3ptr81drop_in_place$LT$core..result..Result$LT$$LP$$RP$$C$std..io..error..Error$GT$$GT$17h655ff33c339b6cb1E', symObjAddr: 0x26F48, symBinAddr: 0x34D10, symSize: 0x10 }
  - { offset: 0x553FD, size: 0x8, addend: 0x0, symName: '__ZN4core3ptr82drop_in_place$LT$alloc..sync..ArcInner$LT$std..sys..fs..unix..InnerReadDir$GT$$GT$17hef996e0988305eb0E', symObjAddr: 0x27028, symBinAddr: 0x34D20, symSize: 0x60 }
  - { offset: 0x555CA, size: 0x8, addend: 0x0, symName: '__ZN4core3ptr92drop_in_place$LT$core..result..Result$LT$addr2line..line..Lines$C$gimli..read..Error$GT$$GT$17ha1897ab6fc371eb0E', symObjAddr: 0x271BC, symBinAddr: 0x34D80, symSize: 0xE4 }
  - { offset: 0x55810, size: 0x8, addend: 0x0, symName: '__ZN4core3ptr93drop_in_place$LT$core..option..Option$LT$std..backtrace_rs..symbolize..gimli..Mapping$GT$$GT$17hd2c3071a4d1fdf1cE', symObjAddr: 0x272A0, symBinAddr: 0x34E64, symSize: 0x6C }
  - { offset: 0x56F9B, size: 0x8, addend: 0x0, symName: __ZN4core5panic12PanicPayload6as_str17h1071335dd01dc3a9E, symObjAddr: 0x2A418, symBinAddr: 0x34F00, symSize: 0x8 }
  - { offset: 0x58855, size: 0x8, addend: 0x0, symName: __ZN4core5slice4sort8unstable7ipnsort17h5d7543a75d941cffE, symObjAddr: 0x310D0, symBinAddr: 0x3BBB8, symSize: 0xEC }
  - { offset: 0x58997, size: 0x8, addend: 0x0, symName: __ZN4core5slice4sort8unstable7ipnsort17h62c8a47683a638f3E, symObjAddr: 0x311BC, symBinAddr: 0x3BCA4, symSize: 0x1A8 }
  - { offset: 0x58C72, size: 0x8, addend: 0x0, symName: __ZN4core5slice4sort8unstable8heapsort8heapsort17h301a034dfcc890faE, symObjAddr: 0x31364, symBinAddr: 0x3BE4C, symSize: 0x100 }
  - { offset: 0x58E6E, size: 0x8, addend: 0x0, symName: __ZN4core5slice4sort8unstable8heapsort8heapsort17h5ff97107d3f154adE, symObjAddr: 0x31464, symBinAddr: 0x3BF4C, symSize: 0x160 }
  - { offset: 0x59212, size: 0x8, addend: 0x0, symName: __ZN4core5slice4sort8unstable9quicksort9quicksort17h0ba40b7285a59f52E, symObjAddr: 0x315C4, symBinAddr: 0x3C0AC, symSize: 0x3F8 }
  - { offset: 0x59AD6, size: 0x8, addend: 0x0, symName: __ZN4core5slice4sort8unstable9quicksort9quicksort17h98476d76dc825101E, symObjAddr: 0x319BC, symBinAddr: 0x3C4A4, symSize: 0x578 }
  - { offset: 0x5A6E1, size: 0x8, addend: 0x0, symName: __ZN4core5slice4sort6stable14driftsort_main17h7ade04ab22cdd8f2E, symObjAddr: 0x2BCA0, symBinAddr: 0x36788, symSize: 0x140 }
  - { offset: 0x5A999, size: 0x8, addend: 0x0, symName: __ZN4core5slice4sort6stable14driftsort_main17h7b5faaae84c7cbb7E, symObjAddr: 0x2BDE0, symBinAddr: 0x368C8, symSize: 0x140 }
  - { offset: 0x5ABCF, size: 0x8, addend: 0x0, symName: __ZN4core5slice4sort6stable14driftsort_main17ha9c3ec71caecf83fE, symObjAddr: 0x2BF20, symBinAddr: 0x36A08, symSize: 0x140 }
  - { offset: 0x5AE87, size: 0x8, addend: 0x0, symName: __ZN4core5slice4sort6stable14driftsort_main17had35389d5dd234b1E, symObjAddr: 0x2C060, symBinAddr: 0x36B48, symSize: 0x158 }
  - { offset: 0x5B1B5, size: 0x8, addend: 0x0, symName: __ZN4core5slice4sort6stable14driftsort_main17hda7ba3b19d6fc900E, symObjAddr: 0x2C1B8, symBinAddr: 0x36CA0, symSize: 0x158 }
  - { offset: 0x5B4E3, size: 0x8, addend: 0x0, symName: __ZN4core5slice4sort6stable14driftsort_main17he0ade99dc0cb88f1E, symObjAddr: 0x2C310, symBinAddr: 0x36DF8, symSize: 0x140 }
  - { offset: 0x5B9AF, size: 0x8, addend: 0x0, symName: __ZN4core5slice4sort6stable5drift4sort17h085f3b0b9c131daaE, symObjAddr: 0x2C450, symBinAddr: 0x36F38, symSize: 0x53C }
  - { offset: 0x5C0B9, size: 0x8, addend: 0x0, symName: __ZN4core5slice4sort6stable5drift4sort17h0b0941fd53d2eb36E, symObjAddr: 0x2C98C, symBinAddr: 0x37474, symSize: 0x5EC }
  - { offset: 0x5C7EB, size: 0x8, addend: 0x0, symName: __ZN4core5slice4sort6stable5drift4sort17h6874b5ff9a1e9842E, symObjAddr: 0x2CF78, symBinAddr: 0x37A60, symSize: 0x4F4 }
  - { offset: 0x5CEDF, size: 0x8, addend: 0x0, symName: __ZN4core5slice4sort6stable5drift4sort17hacafb250fe287f02E, symObjAddr: 0x2D46C, symBinAddr: 0x37F54, symSize: 0x4F4 }
  - { offset: 0x5D5D3, size: 0x8, addend: 0x0, symName: __ZN4core5slice4sort6stable5drift4sort17hb5c3f298be29b63dE, symObjAddr: 0x2D960, symBinAddr: 0x38448, symSize: 0x4D8 }
  - { offset: 0x5DC33, size: 0x8, addend: 0x0, symName: __ZN4core5slice4sort6stable5drift4sort17hd24339b1ba8572adE, symObjAddr: 0x2DE38, symBinAddr: 0x38920, symSize: 0x538 }
  - { offset: 0x5E53A, size: 0x8, addend: 0x0, symName: __ZN4core5slice4sort6stable9quicksort9quicksort17h6b022558501172b1E, symObjAddr: 0x2E370, symBinAddr: 0x38E58, symSize: 0x820 }
  - { offset: 0x5F52C, size: 0x8, addend: 0x0, symName: __ZN4core5slice4sort6stable9quicksort9quicksort17h77925009546caf48E, symObjAddr: 0x2EB90, symBinAddr: 0x39678, symSize: 0x834 }
  - { offset: 0x60177, size: 0x8, addend: 0x0, symName: __ZN4core5slice4sort6stable9quicksort9quicksort17h99c833017676aa53E, symObjAddr: 0x2F3C4, symBinAddr: 0x39EAC, symSize: 0x6D8 }
  - { offset: 0x60C85, size: 0x8, addend: 0x0, symName: __ZN4core5slice4sort6stable9quicksort9quicksort17h9b2801c31f3c9e70E, symObjAddr: 0x2FA9C, symBinAddr: 0x3A584, symSize: 0x810 }
  - { offset: 0x618C3, size: 0x8, addend: 0x0, symName: __ZN4core5slice4sort6stable9quicksort9quicksort17ha3ab17a848a79a77E, symObjAddr: 0x302AC, symBinAddr: 0x3AD94, symSize: 0x6E0 }
  - { offset: 0x623D1, size: 0x8, addend: 0x0, symName: __ZN4core5slice4sort6stable9quicksort9quicksort17hd0cb711591baa19cE, symObjAddr: 0x3098C, symBinAddr: 0x3B474, symSize: 0x744 }
  - { offset: 0x62C30, size: 0x8, addend: 0x0, symName: __ZN4core5slice4sort6shared9smallsort12sort4_stable17h0da1ce099c210ce9E, symObjAddr: 0x2AB44, symBinAddr: 0x3562C, symSize: 0x180 }
  - { offset: 0x6301A, size: 0x8, addend: 0x0, symName: __ZN4core5slice4sort6shared9smallsort12sort4_stable17h139ca5c859589941E, symObjAddr: 0x2ACC4, symBinAddr: 0x357AC, symSize: 0x194 }
  - { offset: 0x631FF, size: 0x8, addend: 0x0, symName: __ZN4core5slice4sort6shared9smallsort12sort8_stable17h18703b6069e9c4ebE, symObjAddr: 0x2AE58, symBinAddr: 0x35940, symSize: 0x2B8 }
  - { offset: 0x636E8, size: 0x8, addend: 0x0, symName: __ZN4core5slice4sort6shared9smallsort18small_sort_general17h80ae0a6b297f62c8E, symObjAddr: 0x2B110, symBinAddr: 0x35BF8, symSize: 0x4A0 }
  - { offset: 0x63DFB, size: 0x8, addend: 0x0, symName: __ZN4core5slice4sort6shared9smallsort18small_sort_general17haab78fd802d5e9baE, symObjAddr: 0x2B5B0, symBinAddr: 0x36098, symSize: 0x408 }
  - { offset: 0x64323, size: 0x8, addend: 0x0, symName: __ZN4core5slice4sort6shared9smallsort25insertion_sort_shift_left17h739d96d2d11fa27bE, symObjAddr: 0x2B9B8, symBinAddr: 0x364A0, symSize: 0x94 }
  - { offset: 0x643FB, size: 0x8, addend: 0x0, symName: __ZN4core5slice4sort6shared9smallsort25insertion_sort_shift_left17hc977fb5c0688bf20E, symObjAddr: 0x2BA4C, symBinAddr: 0x36534, symSize: 0xB8 }
  - { offset: 0x6451B, size: 0x8, addend: 0x0, symName: __ZN4core5slice4sort6shared9smallsort25insertion_sort_shift_left17hcc529bd7abac8e25E, symObjAddr: 0x2BB04, symBinAddr: 0x365EC, symSize: 0xF4 }
  - { offset: 0x646E1, size: 0x8, addend: 0x0, symName: __ZN4core5slice4sort6shared9smallsort25insertion_sort_shift_left17hdfffd6f60b981efdE, symObjAddr: 0x2BBF8, symBinAddr: 0x366E0, symSize: 0xA8 }
  - { offset: 0x649AB, size: 0x8, addend: 0x0, symName: __ZN4core5slice4sort6shared5pivot11median3_rec17h134b703ff6d407b9E, symObjAddr: 0x2A420, symBinAddr: 0x34F08, symSize: 0xCC }
  - { offset: 0x64AB6, size: 0x8, addend: 0x0, symName: __ZN4core5slice4sort6shared5pivot11median3_rec17h1e6e6b5a8f0d3c9dE, symObjAddr: 0x2A4EC, symBinAddr: 0x34FD4, symSize: 0xD0 }
  - { offset: 0x64BC3, size: 0x8, addend: 0x0, symName: __ZN4core5slice4sort6shared5pivot11median3_rec17h4d263b5d0566d045E, symObjAddr: 0x2A5BC, symBinAddr: 0x350A4, symSize: 0x11C }
  - { offset: 0x64CD3, size: 0x8, addend: 0x0, symName: __ZN4core5slice4sort6shared5pivot11median3_rec17h6d7ff4f508e12b82E, symObjAddr: 0x2A6D8, symBinAddr: 0x351C0, symSize: 0xD0 }
  - { offset: 0x64DDE, size: 0x8, addend: 0x0, symName: __ZN4core5slice4sort6shared5pivot11median3_rec17h988b88348782b889E, symObjAddr: 0x2A7A8, symBinAddr: 0x35290, symSize: 0xD0 }
  - { offset: 0x64EE9, size: 0x8, addend: 0x0, symName: __ZN4core5slice4sort6shared5pivot11median3_rec17hb44c311f8a001b16E, symObjAddr: 0x2A878, symBinAddr: 0x35360, symSize: 0x134 }
  - { offset: 0x65124, size: 0x8, addend: 0x0, symName: __ZN4core5slice4sort6shared5pivot11median3_rec17hd942f779595c303fE, symObjAddr: 0x2A9AC, symBinAddr: 0x35494, symSize: 0xCC }
  - { offset: 0x6522F, size: 0x8, addend: 0x0, symName: __ZN4core5slice4sort6shared5pivot11median3_rec17hdd0991ed80ab6e2dE, symObjAddr: 0x2AA78, symBinAddr: 0x35560, symSize: 0xCC }
  - { offset: 0x65467, size: 0x8, addend: 0x0, symName: '__ZN55_$LT$$RF$str$u20$as$u20$core..str..pattern..Pattern$GT$15is_contained_in17hc0a7ac267447aa23E', symObjAddr: 0x32C18, symBinAddr: 0x3CA34, symSize: 0x3C0 }
  - { offset: 0x66B07, size: 0x8, addend: 0x0, symName: '__ZN4core3ops8function6FnOnce40call_once$u7b$$u7b$vtable.shim$u7d$$u7d$17h08bb94a3fe447d9cE', symObjAddr: 0x246FC, symBinAddr: 0x332E0, symSize: 0xC }
  - { offset: 0x66B58, size: 0x8, addend: 0x0, symName: '__ZN4core3ops8function6FnOnce40call_once$u7b$$u7b$vtable.shim$u7d$$u7d$17h26c3c42f9f96ed46E', symObjAddr: 0x24730, symBinAddr: 0x332EC, symSize: 0x98 }
  - { offset: 0x66C9E, size: 0x8, addend: 0x0, symName: '__ZN4core3ops8function6FnOnce40call_once$u7b$$u7b$vtable.shim$u7d$$u7d$17h38e4241864c84f10E', symObjAddr: 0x247C8, symBinAddr: 0x33384, symSize: 0x4 }
  - { offset: 0x66CBB, size: 0x8, addend: 0x0, symName: '__ZN4core3ops8function6FnOnce40call_once$u7b$$u7b$vtable.shim$u7d$$u7d$17h38e4241864c84f10E', symObjAddr: 0x247C8, symBinAddr: 0x33384, symSize: 0x4 }
  - { offset: 0x66CDA, size: 0x8, addend: 0x0, symName: '__ZN4core3ops8function6FnOnce40call_once$u7b$$u7b$vtable.shim$u7d$$u7d$17h4e80488631bce74bE', symObjAddr: 0x2482C, symBinAddr: 0x33388, symSize: 0xC }
  - { offset: 0x66D2B, size: 0x8, addend: 0x0, symName: '__ZN4core3ops8function6FnOnce40call_once$u7b$$u7b$vtable.shim$u7d$$u7d$17h57a7baf643098919E', symObjAddr: 0x24838, symBinAddr: 0x33394, symSize: 0x4 }
  - { offset: 0x66D48, size: 0x8, addend: 0x0, symName: '__ZN4core3ops8function6FnOnce40call_once$u7b$$u7b$vtable.shim$u7d$$u7d$17h57a7baf643098919E', symObjAddr: 0x24838, symBinAddr: 0x33394, symSize: 0x4 }
  - { offset: 0x66D67, size: 0x8, addend: 0x0, symName: '__ZN4core3ops8function6FnOnce40call_once$u7b$$u7b$vtable.shim$u7d$$u7d$17h7e5ea19e27048712E', symObjAddr: 0x248DC, symBinAddr: 0x33398, symSize: 0x8 }
  - { offset: 0x66E86, size: 0x8, addend: 0x0, symName: __ZN4core3ops8function2Fn4call17hf66840ac2721f842E, symObjAddr: 0x246C4, symBinAddr: 0x332D0, symSize: 0x8 }
  - { offset: 0x66EC0, size: 0x8, addend: 0x0, symName: __ZN4core3ops8function5FnMut8call_mut17h65969b906cfd5aaaE, symObjAddr: 0x246CC, symBinAddr: 0x332D8, symSize: 0x8 }
  - { offset: 0x67A1A, size: 0x8, addend: 0x0, symName: '__ZN36_$LT$T$u20$as$u20$core..any..Any$GT$7type_id17h3037b93a9e8ef4a5E', symObjAddr: 0x1014, symBinAddr: 0x28288, symSize: 0x14 }
  - { offset: 0x67A37, size: 0x8, addend: 0x0, symName: '__ZN36_$LT$T$u20$as$u20$core..any..Any$GT$7type_id17h3037b93a9e8ef4a5E', symObjAddr: 0x1014, symBinAddr: 0x28288, symSize: 0x14 }
  - { offset: 0x67A49, size: 0x8, addend: 0x0, symName: '__ZN36_$LT$T$u20$as$u20$core..any..Any$GT$7type_id17ha81a52e3b43c77a4E', symObjAddr: 0x1028, symBinAddr: 0x2829C, symSize: 0x14 }
  - { offset: 0x67A66, size: 0x8, addend: 0x0, symName: '__ZN36_$LT$T$u20$as$u20$core..any..Any$GT$7type_id17ha81a52e3b43c77a4E', symObjAddr: 0x1028, symBinAddr: 0x2829C, symSize: 0x14 }
  - { offset: 0x67A78, size: 0x8, addend: 0x0, symName: '__ZN36_$LT$T$u20$as$u20$core..any..Any$GT$7type_id17hb44d4c6033683273E', symObjAddr: 0x103C, symBinAddr: 0x282B0, symSize: 0x14 }
  - { offset: 0x67A95, size: 0x8, addend: 0x0, symName: '__ZN36_$LT$T$u20$as$u20$core..any..Any$GT$7type_id17hb44d4c6033683273E', symObjAddr: 0x103C, symBinAddr: 0x282B0, symSize: 0x14 }
  - { offset: 0x68899, size: 0x8, addend: 0x0, symName: '__ZN4core4cell4once17OnceCell$LT$T$GT$8try_init17h096ee8d6ab5f9ab5E', symObjAddr: 0x27404, symBinAddr: 0x581A0, symSize: 0x640 }
  - { offset: 0x6944F, size: 0x8, addend: 0x0, symName: '__ZN4core4cell4once17OnceCell$LT$T$GT$8try_init17h0fe3646e0b88f6ceE', symObjAddr: 0x27A44, symBinAddr: 0x587E0, symSize: 0x80 }
  - { offset: 0x69502, size: 0x8, addend: 0x0, symName: '__ZN4core4cell4once17OnceCell$LT$T$GT$8try_init17h4233e7fefa30ef91E', symObjAddr: 0x27AC4, symBinAddr: 0x58860, symSize: 0x1A64 }
  - { offset: 0x6C95E, size: 0x8, addend: 0x0, symName: '__ZN4core4cell4once17OnceCell$LT$T$GT$8try_init17hc6312a19a1a77d35E', symObjAddr: 0x29528, symBinAddr: 0x5A2C4, symSize: 0xC24 }
  - { offset: 0x6E2BB, size: 0x8, addend: 0x0, symName: '__ZN4core4cell4once17OnceCell$LT$T$GT$8try_init17hcb2a62d93e38dee1E', symObjAddr: 0x2A14C, symBinAddr: 0x5AEE8, symSize: 0x60 }
  - { offset: 0x6E2D9, size: 0x8, addend: 0x0, symName: '__ZN4core4cell4once17OnceCell$LT$T$GT$8try_init17hcb2a62d93e38dee1E', symObjAddr: 0x2A14C, symBinAddr: 0x5AEE8, symSize: 0x60 }
  - { offset: 0x6E2EE, size: 0x8, addend: 0x0, symName: '__ZN4core4cell4once17OnceCell$LT$T$GT$8try_init17hcb2a62d93e38dee1E', symObjAddr: 0x2A14C, symBinAddr: 0x5AEE8, symSize: 0x60 }
  - { offset: 0x6E302, size: 0x8, addend: 0x0, symName: '__ZN4core4cell4once17OnceCell$LT$T$GT$8try_init17hcb2a62d93e38dee1E', symObjAddr: 0x2A14C, symBinAddr: 0x5AEE8, symSize: 0x60 }
  - { offset: 0x6E359, size: 0x8, addend: 0x0, symName: '__ZN4core4cell4once17OnceCell$LT$T$GT$8try_init17hf4832393ad19d4f9E', symObjAddr: 0x2A1AC, symBinAddr: 0x5AF48, symSize: 0x110 }
  - { offset: 0x6EA39, size: 0x8, addend: 0x0, symName: __ZN4core5error5Error11description17hcf90faf3be666b0fE, symObjAddr: 0x2A3C8, symBinAddr: 0x34ED0, symSize: 0x10 }
  - { offset: 0x6EA54, size: 0x8, addend: 0x0, symName: __ZN4core5error5Error5cause17h9d8e707b615b1dccE, symObjAddr: 0x2A3D8, symBinAddr: 0x34EE0, symSize: 0x8 }
  - { offset: 0x6EA6F, size: 0x8, addend: 0x0, symName: __ZN4core5error5Error7provide17hf6f11971797fe577E, symObjAddr: 0x2A3EC, symBinAddr: 0x34EE8, symSize: 0x4 }
  - { offset: 0x6EA8A, size: 0x8, addend: 0x0, symName: __ZN4core5error5Error7type_id17hcfbfefb73a50f493E, symObjAddr: 0x2A404, symBinAddr: 0x34EEC, symSize: 0x14 }
  - { offset: 0x6EAA9, size: 0x8, addend: 0x0, symName: __ZN4core5error5Error7type_id17hcfbfefb73a50f493E, symObjAddr: 0x2A404, symBinAddr: 0x34EEC, symSize: 0x14 }
  - { offset: 0x6EAC3, size: 0x8, addend: 0x0, symName: __ZN4core9panicking13assert_failed17h380ae13b39a456adE, symObjAddr: 0x31F68, symBinAddr: 0x5B058, symSize: 0x24 }
  - { offset: 0x6EAEB, size: 0x8, addend: 0x0, symName: __RNvCskdKJRKLKjqM_7___rustc10rust_panic, symObjAddr: 0x0, symBinAddr: 0x5775C, symSize: 0x60 }
  - { offset: 0x6EB1C, size: 0x8, addend: 0x0, symName: __RNvCskdKJRKLKjqM_7___rustc17___rust_drop_panic, symObjAddr: 0x1B0, symBinAddr: 0x27F50, symSize: 0xBC }
  - { offset: 0x6ED11, size: 0x8, addend: 0x0, symName: __RNvCskdKJRKLKjqM_7___rustc17rust_begin_unwind, symObjAddr: 0x26C, symBinAddr: 0x2800C, symSize: 0x20 }
  - { offset: 0x6ED42, size: 0x8, addend: 0x0, symName: __RNvCskdKJRKLKjqM_7___rustc24___rust_foreign_exception, symObjAddr: 0x31C, symBinAddr: 0x280BC, symSize: 0xBC }
  - { offset: 0x6EFA7, size: 0x8, addend: 0x0, symName: __ZN3std9panicking11panic_count17is_zero_slow_path17h24290651bb572e96E, symObjAddr: 0x21B78, symBinAddr: 0x5807C, symSize: 0x2C }
  - { offset: 0x6F056, size: 0x8, addend: 0x0, symName: __ZN3std9panicking11panic_count8increase17h90668b12758c90deE, symObjAddr: 0x21C08, symBinAddr: 0x31E34, symSize: 0x64 }
  - { offset: 0x6F06D, size: 0x8, addend: 0x0, symName: __ZN3std9panicking11panic_count8increase17h90668b12758c90deE, symObjAddr: 0x21C08, symBinAddr: 0x31E34, symSize: 0x64 }
  - { offset: 0x6F082, size: 0x8, addend: 0x0, symName: __ZN3std9panicking11panic_count8increase17h90668b12758c90deE, symObjAddr: 0x21C08, symBinAddr: 0x31E34, symSize: 0x64 }
  - { offset: 0x6F1BD, size: 0x8, addend: 0x0, symName: __ZN3std9panicking12catch_unwind7cleanup17h32fb21e19649bccbE, symObjAddr: 0x21C90, symBinAddr: 0x580A8, symSize: 0x40 }
  - { offset: 0x6F2BA, size: 0x8, addend: 0x0, symName: __ZN3std9panicking12default_hook17hff9145c2c6e89cdfE, symObjAddr: 0x21CD0, symBinAddr: 0x31E98, symSize: 0x13C }
  - { offset: 0x6F447, size: 0x8, addend: 0x0, symName: '__ZN3std9panicking12default_hook28_$u7b$$u7b$closure$u7d$$u7d$17hbcaf474e707f3b7dE', symObjAddr: 0x21E0C, symBinAddr: 0x31FD4, symSize: 0x19C }
  - { offset: 0x6F61E, size: 0x8, addend: 0x0, symName: '__ZN3std9panicking12default_hook28_$u7b$$u7b$closure$u7d$$u7d$28_$u7b$$u7b$closure$u7d$$u7d$17he4e4856f72e7e2dfE', symObjAddr: 0x21FA8, symBinAddr: 0x32170, symSize: 0x314 }
  - { offset: 0x6FC4B, size: 0x8, addend: 0x0, symName: __ZN3std9panicking13panic_handler19FormatStringPayload4fill17h49f06b785e976a61E, symObjAddr: 0x222BC, symBinAddr: 0x32484, symSize: 0xB8 }
  - { offset: 0x6FD68, size: 0x8, addend: 0x0, symName: '__ZN3std9panicking13panic_handler28_$u7b$$u7b$closure$u7d$$u7d$17h42f8d27eb97efb5cE', symObjAddr: 0x22374, symBinAddr: 0x3253C, symSize: 0xC0 }
  - { offset: 0x6FEC4, size: 0x8, addend: 0x0, symName: '__ZN86_$LT$std..panicking..panic_handler..StaticStrPayload$u20$as$u20$core..fmt..Display$GT$3fmt17h23daa1d361c20ad8E', symObjAddr: 0x4B230, symBinAddr: 0x46448, symSize: 0x10 }
  - { offset: 0x6FEE5, size: 0x8, addend: 0x0, symName: '__ZN89_$LT$std..panicking..panic_handler..FormatStringPayload$u20$as$u20$core..fmt..Display$GT$3fmt17h96c36f262cceff4fE', symObjAddr: 0x4B5E4, symBinAddr: 0x46480, symSize: 0x6C }
  - { offset: 0x6FFD9, size: 0x8, addend: 0x0, symName: '__ZN93_$LT$std..panicking..panic_handler..StaticStrPayload$u20$as$u20$core..panic..PanicPayload$GT$3get17h9446d3bfcd75a0d7E', symObjAddr: 0x4BC54, symBinAddr: 0x46554, symSize: 0xC }
  - { offset: 0x6FFF4, size: 0x8, addend: 0x0, symName: '__ZN93_$LT$std..panicking..panic_handler..StaticStrPayload$u20$as$u20$core..panic..PanicPayload$GT$6as_str17hdc3733a5b5cc28baE', symObjAddr: 0x4BC60, symBinAddr: 0x46560, symSize: 0xC }
  - { offset: 0x7000F, size: 0x8, addend: 0x0, symName: '__ZN93_$LT$std..panicking..panic_handler..StaticStrPayload$u20$as$u20$core..panic..PanicPayload$GT$8take_box17h6400803d1e475458E', symObjAddr: 0x4BC6C, symBinAddr: 0x4656C, symSize: 0x48 }
  - { offset: 0x7008C, size: 0x8, addend: 0x0, symName: '__ZN96_$LT$std..panicking..panic_handler..FormatStringPayload$u20$as$u20$core..panic..PanicPayload$GT$3get17he69c34545aa12e4dE', symObjAddr: 0x4C2D4, symBinAddr: 0x46914, symSize: 0x1C }
  - { offset: 0x700A7, size: 0x8, addend: 0x0, symName: '__ZN96_$LT$std..panicking..panic_handler..FormatStringPayload$u20$as$u20$core..panic..PanicPayload$GT$8take_box17hb2deabfa34b702e6E', symObjAddr: 0x4C2F0, symBinAddr: 0x46930, symSize: 0x8C }
  - { offset: 0x701F9, size: 0x8, addend: 0x0, symName: __ZN3std9panicking13resume_unwind17h7733a55bb39204d3E, symObjAddr: 0x22434, symBinAddr: 0x580E8, symSize: 0xB8 }
  - { offset: 0x70413, size: 0x8, addend: 0x0, symName: __ZN3std9panicking14payload_as_str17ha2e19316e5057f13E, symObjAddr: 0x224EC, symBinAddr: 0x325FC, symSize: 0xC8 }
  - { offset: 0x70558, size: 0x8, addend: 0x0, symName: __ZN3std9panicking15panic_with_hook17he6431e171a67d1a5E, symObjAddr: 0x225B4, symBinAddr: 0x326C4, symSize: 0x390 }
  - { offset: 0x70D6A, size: 0x8, addend: 0x0, symName: __ZN3std9panicking8set_hook17h38280afb69302fc7E, symObjAddr: 0x22958, symBinAddr: 0x32A54, symSize: 0x178 }
  - { offset: 0x71023, size: 0x8, addend: 0x0, symName: __ZN3std9panicking9take_hook17h0b7463708eab9e01E, symObjAddr: 0x22AD0, symBinAddr: 0x32BCC, symSize: 0xF4 }
  - { offset: 0x711F0, size: 0x8, addend: 0x0, symName: '__ZN79_$LT$std..panicking..resume_unwind..RewrapBox$u20$as$u20$core..fmt..Display$GT$3fmt17h9dba1ff092c99152E', symObjAddr: 0x49A38, symBinAddr: 0x45E00, symSize: 0x14 }
  - { offset: 0x71211, size: 0x8, addend: 0x0, symName: '__ZN86_$LT$std..panicking..resume_unwind..RewrapBox$u20$as$u20$core..panic..PanicPayload$GT$3get17h248bbda19e982d4eE', symObjAddr: 0x4B240, symBinAddr: 0x46458, symSize: 0xC }
  - { offset: 0x7122C, size: 0x8, addend: 0x0, symName: '__ZN86_$LT$std..panicking..resume_unwind..RewrapBox$u20$as$u20$core..panic..PanicPayload$GT$8take_box17h84506983667acf49E', symObjAddr: 0x4B24C, symBinAddr: 0x46464, symSize: 0x1C }
  - { offset: 0x7124A, size: 0x8, addend: 0x0, symName: '__ZN86_$LT$std..panicking..resume_unwind..RewrapBox$u20$as$u20$core..panic..PanicPayload$GT$8take_box17h84506983667acf49E', symObjAddr: 0x4B24C, symBinAddr: 0x46464, symSize: 0x1C }
  - { offset: 0x71357, size: 0x8, addend: 0x0, symName: __ZN3std3sys3pal6common14small_c_string24run_with_cstr_allocating17h798411b79b11fd56E, symObjAddr: 0x16B5C, symBinAddr: 0x578C4, symSize: 0xA4 }
  - { offset: 0x714AE, size: 0x8, addend: 0x0, symName: __ZN3std3sys3pal6common14small_c_string24run_with_cstr_allocating17h99e236d7e8506142E, symObjAddr: 0x16C00, symBinAddr: 0x57968, symSize: 0xB4 }
  - { offset: 0x71677, size: 0x8, addend: 0x0, symName: __ZN3std3sys3pal6common14small_c_string24run_with_cstr_allocating17hee1175bf1c9e834cE, symObjAddr: 0x16EFC, symBinAddr: 0x57A1C, symSize: 0xC0 }
  - { offset: 0x718CF, size: 0x8, addend: 0x0, symName: __ZN3std3sys3pal4unix4time8Timespec12sub_timespec17he739490ae09bd578E, symObjAddr: 0x167F0, symBinAddr: 0x30314, symSize: 0xDC }
  - { offset: 0x7198A, size: 0x8, addend: 0x0, symName: __ZN3std3sys3pal4unix4time8Timespec3now17h1c483c896060ee01E, symObjAddr: 0x168CC, symBinAddr: 0x303F0, symSize: 0x114 }
  - { offset: 0x71A94, size: 0x8, addend: 0x0, symName: __ZN3std3sys3pal4unix4sync5mutex5Mutex4init17h3dc7e68cdddb15ffE, symObjAddr: 0x16564, symBinAddr: 0x301A8, symSize: 0x16C }
  - { offset: 0x71B65, size: 0x8, addend: 0x0, symName: __ZN3std3sys3pal4unix4sync5mutex5Mutex4lock4fail17h626389f0d772d537E, symObjAddr: 0x166EC, symBinAddr: 0x577E0, symSize: 0xE4 }
  - { offset: 0x71DC9, size: 0x8, addend: 0x0, symName: __ZN3std3sys3pal4unix14abort_internal17h8d76cac37bc1e660E, symObjAddr: 0x14CF4, symBinAddr: 0x577D4, symSize: 0xC }
  - { offset: 0x71DE4, size: 0x8, addend: 0x0, symName: __ZN3std3sys3pal4unix17decode_error_kind17hb6d24ea5e3e2f6a1E, symObjAddr: 0x15ED0, symBinAddr: 0x30058, symSize: 0x150 }
  - { offset: 0x71E50, size: 0x8, addend: 0x0, symName: __ZN3std3sys12thread_local6native5eager7destroy17h30ed59e6126037efE, symObjAddr: 0xF88C, symBinAddr: 0x2F978, symSize: 0x2C }
  - { offset: 0x71FE6, size: 0x8, addend: 0x0, symName: __ZN3std3sys12thread_local5guard5apple6enable9run_dtors17h8979e0b3d1187c7fE, symObjAddr: 0xF794, symBinAddr: 0x2F880, symSize: 0xF8 }
  - { offset: 0x724BB, size: 0x8, addend: 0x0, symName: __ZN3std3sys12thread_local11destructors4list8register17he85c11a1c2ed5827E, symObjAddr: 0xF67C, symBinAddr: 0x2F768, symSize: 0x118 }
  - { offset: 0x727D4, size: 0x8, addend: 0x0, symName: __ZN3std3sys3env4unix13env_read_lock17h0f43be51d1951982E, symObjAddr: 0x1398C, symBinAddr: 0x2FCE0, symSize: 0x230 }
  - { offset: 0x72EBE, size: 0x8, addend: 0x0, symName: '__ZN3std3sys3env4unix6getenv28_$u7b$$u7b$closure$u7d$$u7d$17h8142d75fd75589c4E', symObjAddr: 0x13BBC, symBinAddr: 0x2FF10, symSize: 0x148 }
  - { offset: 0x73143, size: 0x8, addend: 0x0, symName: __ZN3std3sys2fs4unix4File6open_c17h8b4308debc18b247E, symObjAddr: 0x12348, symBinAddr: 0x2F9A4, symSize: 0x1A0 }
  - { offset: 0x732C6, size: 0x8, addend: 0x0, symName: '__ZN65_$LT$std..sys..fs..unix..Dir$u20$as$u20$core..ops..drop..Drop$GT$4drop17hb27d2dcfbde0f4f8E', symObjAddr: 0x45A50, symBinAddr: 0x4523C, symSize: 0xC8 }
  - { offset: 0x733A5, size: 0x8, addend: 0x0, symName: __ZN3std3sys2fs8read_dir17h01b537fe6e853e47E, symObjAddr: 0x13500, symBinAddr: 0x2FB44, symSize: 0x19C }
  - { offset: 0x7378E, size: 0x8, addend: 0x0, symName: '__ZN64_$LT$std..sys..stdio..unix..Stderr$u20$as$u20$std..io..Write$GT$14write_vectored17hc6a0fe94280856b7E', symObjAddr: 0x457B4, symBinAddr: 0x45184, symSize: 0x54 }
  - { offset: 0x73864, size: 0x8, addend: 0x0, symName: '__ZN64_$LT$std..sys..stdio..unix..Stderr$u20$as$u20$std..io..Write$GT$17is_write_vectored17ha5fe1632aa356e69E', symObjAddr: 0x45808, symBinAddr: 0x451D8, symSize: 0x8 }
  - { offset: 0x7387E, size: 0x8, addend: 0x0, symName: '__ZN64_$LT$std..sys..stdio..unix..Stderr$u20$as$u20$std..io..Write$GT$5flush17h9c44c0bc84723652E', symObjAddr: 0x45810, symBinAddr: 0x451E0, symSize: 0x8 }
  - { offset: 0x73898, size: 0x8, addend: 0x0, symName: '__ZN64_$LT$std..sys..stdio..unix..Stderr$u20$as$u20$std..io..Write$GT$5write17hb65269e8ba794fd5E', symObjAddr: 0x45818, symBinAddr: 0x451E8, symSize: 0x54 }
  - { offset: 0x739D9, size: 0x8, addend: 0x0, symName: '__ZN3std3sys4sync8once_box16OnceBox$LT$T$GT$10initialize17hb710239f2ab0be2bE', symObjAddr: 0x18054, symBinAddr: 0x57D74, symSize: 0xE4 }
  - { offset: 0x73C26, size: 0x8, addend: 0x0, symName: __ZN3std3sys4sync4once5queue4Once4call17hd1bb46051256f23fE, symObjAddr: 0x1736C, symBinAddr: 0x57ADC, symSize: 0x218 }
  - { offset: 0x73EEE, size: 0x8, addend: 0x0, symName: '__ZN82_$LT$std..sys..sync..once..queue..WaiterQueue$u20$as$u20$core..ops..drop..Drop$GT$4drop17h7f1d4befd79eb70eE', symObjAddr: 0x4AD40, symBinAddr: 0x46368, symSize: 0xE0 }
  - { offset: 0x740E5, size: 0x8, addend: 0x0, symName: __ZN3std3sys4sync4once5queue4wait17hfd76cbd9a064ab39E, symObjAddr: 0x17764, symBinAddr: 0x30504, symSize: 0x184 }
  - { offset: 0x7467A, size: 0x8, addend: 0x0, symName: __ZN3std3sys4sync6rwlock5queue6RwLock12unlock_queue17h6341a139252af1a4E, symObjAddr: 0x178FC, symBinAddr: 0x30688, symSize: 0x1CC }
  - { offset: 0x74CDC, size: 0x8, addend: 0x0, symName: __ZN3std3sys4sync6rwlock5queue6RwLock16unlock_contended17hd5d9b4bea5b136d5E, symObjAddr: 0x17DC4, symBinAddr: 0x57CF4, symSize: 0x40 }
  - { offset: 0x74DA3, size: 0x8, addend: 0x0, symName: __ZN3std3sys4sync6rwlock5queue6RwLock21read_unlock_contended17hf10ad3e8d16e983dE, symObjAddr: 0x17E04, symBinAddr: 0x57D34, symSize: 0x40 }
  - { offset: 0x74DC1, size: 0x8, addend: 0x0, symName: __ZN3std3sys4sync6rwlock5queue6RwLock21read_unlock_contended17hf10ad3e8d16e983dE, symObjAddr: 0x17E04, symBinAddr: 0x57D34, symSize: 0x40 }
  - { offset: 0x74DD6, size: 0x8, addend: 0x0, symName: __ZN3std3sys4sync6rwlock5queue6RwLock21read_unlock_contended17hf10ad3e8d16e983dE, symObjAddr: 0x17E04, symBinAddr: 0x57D34, symSize: 0x40 }
  - { offset: 0x75025, size: 0x8, addend: 0x0, symName: __ZN3std3sys4sync6rwlock5queue9read_lock17he5ccf40565f845d6E, symObjAddr: 0x17E44, symBinAddr: 0x30854, symSize: 0x20 }
  - { offset: 0x7504B, size: 0x8, addend: 0x0, symName: '__ZN83_$LT$std..sys..sync..rwlock..queue..PanicGuard$u20$as$u20$core..ops..drop..Drop$GT$4drop17h5297df96adf6f25aE', symObjAddr: 0x4AFC0, symBinAddr: 0x5B1F4, symSize: 0x44 }
  - { offset: 0x750F4, size: 0x8, addend: 0x0, symName: '__ZN3std3sys11personality3gcc14find_eh_action28_$u7b$$u7b$closure$u7d$$u7d$17h3ded5c67f5e06d18E', symObjAddr: 0xF51C, symBinAddr: 0x2F608, symSize: 0xC }
  - { offset: 0x75108, size: 0x8, addend: 0x0, symName: '__ZN3std3sys11personality3gcc14find_eh_action28_$u7b$$u7b$closure$u7d$$u7d$17hc6e49a652099b2faE', symObjAddr: 0xF528, symBinAddr: 0x2F614, symSize: 0xC }
  - { offset: 0x75154, size: 0x8, addend: 0x0, symName: _rust_eh_personality, symObjAddr: 0x4F004, symBinAddr: 0x4936C, symSize: 0x378 }
  - { offset: 0x7549E, size: 0x8, addend: 0x0, symName: __ZN3std3sys11personality5dwarf2eh19read_encoded_offset17h4247a370d6a78c9aE, symObjAddr: 0xF534, symBinAddr: 0x2F620, symSize: 0x148 }
  - { offset: 0x755F4, size: 0x8, addend: 0x0, symName: '__ZN3std3sys9backtrace10_print_fmt28_$u7b$$u7b$closure$u7d$$u7d$17h64c635585236989fE', symObjAddr: 0x1B278, symBinAddr: 0x30874, symSize: 0x24 }
  - { offset: 0x7561D, size: 0x8, addend: 0x0, symName: '__ZN3std3sys9backtrace10_print_fmt28_$u7b$$u7b$closure$u7d$$u7d$17ha7bccce4e6c2a239E', symObjAddr: 0x1B29C, symBinAddr: 0x30898, symSize: 0x134 }
  - { offset: 0x75731, size: 0x8, addend: 0x0, symName: '__ZN3std3sys9backtrace10_print_fmt28_$u7b$$u7b$closure$u7d$$u7d$28_$u7b$$u7b$closure$u7d$$u7d$17h98603fdd5adbbfdcE', symObjAddr: 0x1B3D0, symBinAddr: 0x309CC, symSize: 0x25C }
  - { offset: 0x7594E, size: 0x8, addend: 0x0, symName: __ZN3std3sys9backtrace13BacktraceLock5print17hea663f6050de4073E, symObjAddr: 0x1B62C, symBinAddr: 0x30C28, symSize: 0x54 }
  - { offset: 0x7597F, size: 0x8, addend: 0x0, symName: __ZN3std3sys9backtrace15output_filename17h6da850852b2497bfE, symObjAddr: 0x1B680, symBinAddr: 0x30C7C, symSize: 0xF4 }
  - { offset: 0x75ACD, size: 0x8, addend: 0x0, symName: __ZN3std3sys9backtrace26__rust_end_short_backtrace17h0de35f7407a5e0d8E, symObjAddr: 0x1B774, symBinAddr: 0x30D70, symSize: 0xC }
  - { offset: 0x75AE7, size: 0x8, addend: 0x0, symName: __ZN3std3sys9backtrace4lock17h2199d00fb77a2766E, symObjAddr: 0x1B78C, symBinAddr: 0x30D7C, symSize: 0x70 }
  - { offset: 0x75C54, size: 0x8, addend: 0x0, symName: '__ZN98_$LT$std..sys..backtrace..BacktraceLock..print..DisplayBacktrace$u20$as$u20$core..fmt..Display$GT$3fmt17hfd528c9d14c1136fE', symObjAddr: 0x4C548, symBinAddr: 0x469BC, symSize: 0x210 }
  - { offset: 0x76145, size: 0x8, addend: 0x0, symName: __RNvCskdKJRKLKjqM_7___rustc11___rdl_alloc, symObjAddr: 0x60, symBinAddr: 0x27E0C, symSize: 0x6C }
  - { offset: 0x761C3, size: 0x8, addend: 0x0, symName: __RNvCskdKJRKLKjqM_7___rustc13___rdl_dealloc, symObjAddr: 0xD8, symBinAddr: 0x27E78, symSize: 0x4 }
  - { offset: 0x761E1, size: 0x8, addend: 0x0, symName: __RNvCskdKJRKLKjqM_7___rustc13___rdl_dealloc, symObjAddr: 0xD8, symBinAddr: 0x27E78, symSize: 0x4 }
  - { offset: 0x761F4, size: 0x8, addend: 0x0, symName: __RNvCskdKJRKLKjqM_7___rustc13___rdl_realloc, symObjAddr: 0xDC, symBinAddr: 0x27E7C, symSize: 0xD4 }
  - { offset: 0x762C8, size: 0x8, addend: 0x0, symName: __RNvCskdKJRKLKjqM_7___rustc18___rdl_alloc_zeroed, symObjAddr: 0x28C, symBinAddr: 0x2802C, symSize: 0x90 }
  - { offset: 0x7636D, size: 0x8, addend: 0x0, symName: __RNvCskdKJRKLKjqM_7___rustc8___rg_oom, symObjAddr: 0x3D8, symBinAddr: 0x577BC, symSize: 0x18 }
  - { offset: 0x76389, size: 0x8, addend: 0x0, symName: __ZN3std5alloc24default_alloc_error_hook17hda855b09bf8ce5bfE, symObjAddr: 0x1F3C0, symBinAddr: 0x31A80, symSize: 0x140 }
  - { offset: 0x765C0, size: 0x8, addend: 0x0, symName: __ZN3std5alloc8rust_oom17h64a98ce1b291034bE, symObjAddr: 0x1F500, symBinAddr: 0x57E58, symSize: 0x2C }
  - { offset: 0x766FC, size: 0x8, addend: 0x0, symName: __ZN3std2io5error5Error3new17hb0366e1179bed02aE, symObjAddr: 0x9E70, symBinAddr: 0x2EA70, symSize: 0x128 }
  - { offset: 0x76AE8, size: 0x8, addend: 0x0, symName: '__ZN3std2io5error83_$LT$impl$u20$core..fmt..Debug$u20$for$u20$std..io..error..repr_bitpacked..Repr$GT$3fmt17hc5e272b72661a34bE', symObjAddr: 0xA014, symBinAddr: 0x2EB98, symSize: 0x294 }
  - { offset: 0x76D40, size: 0x8, addend: 0x0, symName: '__ZN58_$LT$std..io..error..Error$u20$as$u20$core..fmt..Debug$GT$3fmt17h4bd0f28bf79564b3E', symObjAddr: 0x34100, symBinAddr: 0x3CFA4, symSize: 0x4 }
  - { offset: 0x76D5A, size: 0x8, addend: 0x0, symName: '__ZN60_$LT$std..io..error..Error$u20$as$u20$core..fmt..Display$GT$3fmt17h96a3add2cd05308dE', symObjAddr: 0x419AC, symBinAddr: 0x44D28, symSize: 0x208 }
  - { offset: 0x76F8D, size: 0x8, addend: 0x0, symName: '__ZN62_$LT$std..io..error..ErrorKind$u20$as$u20$core..fmt..Debug$GT$3fmt17hcbf070d750c729a3E', symObjAddr: 0x445F0, symBinAddr: 0x45064, symSize: 0x28 }
  - { offset: 0x76FAE, size: 0x8, addend: 0x0, symName: __ZN3std2io5Write18write_all_vectored17he688a1b06e8bbb4fE, symObjAddr: 0x9744, symBinAddr: 0x2E468, symSize: 0x1B4 }
  - { offset: 0x77208, size: 0x8, addend: 0x0, symName: __ZN3std2io5Write9write_all17hfca7eea50e527240E, symObjAddr: 0x98F8, symBinAddr: 0x2E61C, symSize: 0xAC }
  - { offset: 0x772F8, size: 0x8, addend: 0x0, symName: __ZN3std2io5Write9write_fmt17h0a4c2886d71240f6E, symObjAddr: 0x99A4, symBinAddr: 0x2E6C8, symSize: 0x138 }
  - { offset: 0x77542, size: 0x8, addend: 0x0, symName: __ZN3std2io5Write9write_fmt17h93365632ab64a6f8E, symObjAddr: 0x9ADC, symBinAddr: 0x2E800, symSize: 0x138 }
  - { offset: 0x7778C, size: 0x8, addend: 0x0, symName: __ZN3std2io5Write9write_fmt17hc70e63382e9f29d2E, symObjAddr: 0x9C14, symBinAddr: 0x2E938, symSize: 0x138 }
  - { offset: 0x77A25, size: 0x8, addend: 0x0, symName: __ZN3std2io5stdio22try_set_output_capture17h95074c90c7962b08E, symObjAddr: 0xA79C, symBinAddr: 0x2F21C, symSize: 0xEC }
  - { offset: 0x77CA9, size: 0x8, addend: 0x0, symName: '__ZN3std2io5impls74_$LT$impl$u20$std..io..Write$u20$for$u20$alloc..vec..Vec$LT$u8$C$A$GT$$GT$14write_vectored17h98b0b37e86837edcE', symObjAddr: 0xA2A8, symBinAddr: 0x2EE2C, symSize: 0x174 }
  - { offset: 0x77EF6, size: 0x8, addend: 0x0, symName: '__ZN3std2io5impls74_$LT$impl$u20$std..io..Write$u20$for$u20$alloc..vec..Vec$LT$u8$C$A$GT$$GT$17is_write_vectored17h87e7f9fb9fdbeb17E', symObjAddr: 0xA41C, symBinAddr: 0x2EFA0, symSize: 0x8 }
  - { offset: 0x77F1F, size: 0x8, addend: 0x0, symName: '__ZN3std2io5impls74_$LT$impl$u20$std..io..Write$u20$for$u20$alloc..vec..Vec$LT$u8$C$A$GT$$GT$18write_all_vectored17h61357489be1d2a24E', symObjAddr: 0xA424, symBinAddr: 0x2EFA8, symSize: 0x168 }
  - { offset: 0x77F4A, size: 0x8, addend: 0x0, symName: '__ZN3std2io5impls74_$LT$impl$u20$std..io..Write$u20$for$u20$alloc..vec..Vec$LT$u8$C$A$GT$$GT$18write_all_vectored17h61357489be1d2a24E', symObjAddr: 0xA424, symBinAddr: 0x2EFA8, symSize: 0x168 }
  - { offset: 0x77F5F, size: 0x8, addend: 0x0, symName: '__ZN3std2io5impls74_$LT$impl$u20$std..io..Write$u20$for$u20$alloc..vec..Vec$LT$u8$C$A$GT$$GT$18write_all_vectored17h61357489be1d2a24E', symObjAddr: 0xA424, symBinAddr: 0x2EFA8, symSize: 0x168 }
  - { offset: 0x77F74, size: 0x8, addend: 0x0, symName: '__ZN3std2io5impls74_$LT$impl$u20$std..io..Write$u20$for$u20$alloc..vec..Vec$LT$u8$C$A$GT$$GT$18write_all_vectored17h61357489be1d2a24E', symObjAddr: 0xA424, symBinAddr: 0x2EFA8, symSize: 0x168 }
  - { offset: 0x77F88, size: 0x8, addend: 0x0, symName: '__ZN3std2io5impls74_$LT$impl$u20$std..io..Write$u20$for$u20$alloc..vec..Vec$LT$u8$C$A$GT$$GT$18write_all_vectored17h61357489be1d2a24E', symObjAddr: 0xA424, symBinAddr: 0x2EFA8, symSize: 0x168 }
  - { offset: 0x781A1, size: 0x8, addend: 0x0, symName: '__ZN3std2io5impls74_$LT$impl$u20$std..io..Write$u20$for$u20$alloc..vec..Vec$LT$u8$C$A$GT$$GT$5flush17h7f80fd90e7fc18cdE', symObjAddr: 0xA58C, symBinAddr: 0x2F110, symSize: 0x8 }
  - { offset: 0x781BC, size: 0x8, addend: 0x0, symName: '__ZN3std2io5impls74_$LT$impl$u20$std..io..Write$u20$for$u20$alloc..vec..Vec$LT$u8$C$A$GT$$GT$5write17h4a6ebd7f00c1e3b6E', symObjAddr: 0xA594, symBinAddr: 0x2F118, symSize: 0x84 }
  - { offset: 0x78301, size: 0x8, addend: 0x0, symName: '__ZN3std2io5impls74_$LT$impl$u20$std..io..Write$u20$for$u20$alloc..vec..Vec$LT$u8$C$A$GT$$GT$9write_all17h7a06a95410051fe1E', symObjAddr: 0xA618, symBinAddr: 0x2F19C, symSize: 0x80 }
  - { offset: 0x7855B, size: 0x8, addend: 0x0, symName: '__ZN81_$LT$std..io..default_write_fmt..Adapter$LT$T$GT$$u20$as$u20$core..fmt..Write$GT$9write_str17h284da73b654d1506E', symObjAddr: 0x4A1B8, symBinAddr: 0x46170, symSize: 0xD8 }
  - { offset: 0x7866E, size: 0x8, addend: 0x0, symName: '__ZN81_$LT$std..io..default_write_fmt..Adapter$LT$T$GT$$u20$as$u20$core..fmt..Write$GT$9write_str17h2db7b0298947a58eE', symObjAddr: 0x4A290, symBinAddr: 0x46248, symSize: 0xA0 }
  - { offset: 0x78796, size: 0x8, addend: 0x0, symName: '__ZN81_$LT$std..io..default_write_fmt..Adapter$LT$T$GT$$u20$as$u20$core..fmt..Write$GT$9write_str17h5b7b94f2f70b6cc9E', symObjAddr: 0x4A330, symBinAddr: 0x462E8, symSize: 0x80 }
  - { offset: 0x789CF, size: 0x8, addend: 0x0, symName: __ZN3std4path4Path13_strip_prefix17h649cdf7fe52a9ca4E, symObjAddr: 0x1C7DC, symBinAddr: 0x313C8, symSize: 0x21C }
  - { offset: 0x78ADF, size: 0x8, addend: 0x0, symName: __ZN3std4path4Path5_join17h54f095185b763ad9E, symObjAddr: 0x1D0D4, symBinAddr: 0x315E4, symSize: 0x1A4 }
  - { offset: 0x790B7, size: 0x8, addend: 0x0, symName: __ZN3std4path10Components15len_before_body17h183e6460ce02202dE, symObjAddr: 0x1B7FC, symBinAddr: 0x30DEC, symSize: 0x18C }
  - { offset: 0x790CE, size: 0x8, addend: 0x0, symName: __ZN3std4path10Components15len_before_body17h183e6460ce02202dE, symObjAddr: 0x1B7FC, symBinAddr: 0x30DEC, symSize: 0x18C }
  - { offset: 0x790E3, size: 0x8, addend: 0x0, symName: __ZN3std4path10Components15len_before_body17h183e6460ce02202dE, symObjAddr: 0x1B7FC, symBinAddr: 0x30DEC, symSize: 0x18C }
  - { offset: 0x79271, size: 0x8, addend: 0x0, symName: __ZN3std4path10Components25parse_next_component_back17h96bead52961e5974E, symObjAddr: 0x1B988, symBinAddr: 0x30F78, symSize: 0x12C }
  - { offset: 0x793D6, size: 0x8, addend: 0x0, symName: __ZN3std4path10Components7as_path17h8b47be53b7bb02abE, symObjAddr: 0x1BAB4, symBinAddr: 0x310A4, symSize: 0x324 }
  - { offset: 0x7976E, size: 0x8, addend: 0x0, symName: '__ZN61_$LT$std..path..Component$u20$as$u20$core..cmp..PartialEq$GT$2eq17hcac4c67d1f006796E', symObjAddr: 0x43C18, symBinAddr: 0x44F30, symSize: 0x134 }
  - { offset: 0x798C8, size: 0x8, addend: 0x0, symName: '__ZN80_$LT$std..path..Components$u20$as$u20$core..iter..traits..iterator..Iterator$GT$4next17hcff4524e130e7a04E', symObjAddr: 0x49B0C, symBinAddr: 0x45E14, symSize: 0x35C }
  - { offset: 0x79BDD, size: 0x8, addend: 0x0, symName: '__ZN95_$LT$std..path..Components$u20$as$u20$core..iter..traits..double_ended..DoubleEndedIterator$GT$9next_back17hbbb48aeb24b30ac1E', symObjAddr: 0x4BF38, symBinAddr: 0x465B4, symSize: 0x360 }
  - { offset: 0x79D99, size: 0x8, addend: 0x0, symName: __ZN3std7process5abort17he872d13fc606be41E, symObjAddr: 0x20DA8, symBinAddr: 0x58070, symSize: 0xC }
  - { offset: 0x79DC4, size: 0x8, addend: 0x0, symName: '__ZN118_$LT$std..thread..thread_name_string..ThreadNameString$u20$as$u20$core..convert..From$LT$alloc..string..String$GT$$GT$4from17h3cd36efdc78dbcc3E', symObjAddr: 0xEC0, symBinAddr: 0x28178, symSize: 0x110 }
  - { offset: 0x7A048, size: 0x8, addend: 0x0, symName: __ZN3std6thread5local18panic_access_error17h2216af0f25787575E, symObjAddr: 0x1F9B4, symBinAddr: 0x57E90, symSize: 0x44 }
  - { offset: 0x7A07D, size: 0x8, addend: 0x0, symName: '__ZN68_$LT$std..thread..local..AccessError$u20$as$u20$core..fmt..Debug$GT$3fmt17h56cbf97f51b65d82E', symObjAddr: 0x46588, symBinAddr: 0x45304, symSize: 0x38 }
  - { offset: 0x7A149, size: 0x8, addend: 0x0, symName: __ZN3std6thread7current12init_current17h76e9942ca4b6363dE, symObjAddr: 0x1FF38, symBinAddr: 0x57ED4, symSize: 0x164 }
  - { offset: 0x7A4E1, size: 0x8, addend: 0x0, symName: __ZN3std6thread6Thread3new17hbf5aeb1736bec1e3E, symObjAddr: 0x1FB40, symBinAddr: 0x31CDC, symSize: 0x158 }
  - { offset: 0x7A810, size: 0x8, addend: 0x0, symName: __ZN3std6thread8ThreadId3new9exhausted17ha73a828480ec4fa2E, symObjAddr: 0x2026C, symBinAddr: 0x58038, symSize: 0x38 }
  - { offset: 0x7A8AC, size: 0x8, addend: 0x0, symName: __ZN3std12backtrace_rs5print17BacktraceFrameFmt21print_raw_with_column17h3c81486fb0007567E, symObjAddr: 0x1050, symBinAddr: 0x282C4, symSize: 0x438 }
  - { offset: 0x7AAB4, size: 0x8, addend: 0x0, symName: __ZN3std12backtrace_rs9backtrace9libunwind5trace8trace_fn17h03c27b8c72497427E, symObjAddr: 0x1488, symBinAddr: 0x286FC, symSize: 0x48 }
  - { offset: 0x7AB6F, size: 0x8, addend: 0x0, symName: __ZN3std12backtrace_rs9symbolize5gimli4mmap17h8dd225413c7073a4E, symObjAddr: 0x14D0, symBinAddr: 0x28744, symSize: 0x1DC }
  - { offset: 0x7B06A, size: 0x8, addend: 0x0, symName: __ZN3std12backtrace_rs9symbolize5gimli5macho11find_header17h057a153a1489d815E, symObjAddr: 0x16AC, symBinAddr: 0x28920, symSize: 0x1D4 }
  - { offset: 0x7B087, size: 0x8, addend: 0x0, symName: __ZN3std12backtrace_rs9symbolize5gimli5macho11find_header17h057a153a1489d815E, symObjAddr: 0x16AC, symBinAddr: 0x28920, symSize: 0x1D4 }
  - { offset: 0x7B09B, size: 0x8, addend: 0x0, symName: __ZN3std12backtrace_rs9symbolize5gimli5macho11find_header17h057a153a1489d815E, symObjAddr: 0x16AC, symBinAddr: 0x28920, symSize: 0x1D4 }
  - { offset: 0x7B0AF, size: 0x8, addend: 0x0, symName: __ZN3std12backtrace_rs9symbolize5gimli5macho11find_header17h057a153a1489d815E, symObjAddr: 0x16AC, symBinAddr: 0x28920, symSize: 0x1D4 }
  - { offset: 0x7B0C3, size: 0x8, addend: 0x0, symName: __ZN3std12backtrace_rs9symbolize5gimli5macho11find_header17h057a153a1489d815E, symObjAddr: 0x16AC, symBinAddr: 0x28920, symSize: 0x1D4 }
  - { offset: 0x7B0D8, size: 0x8, addend: 0x0, symName: __ZN3std12backtrace_rs9symbolize5gimli5macho11find_header17h057a153a1489d815E, symObjAddr: 0x16AC, symBinAddr: 0x28920, symSize: 0x1D4 }
  - { offset: 0x7B0ED, size: 0x8, addend: 0x0, symName: __ZN3std12backtrace_rs9symbolize5gimli5macho11find_header17h057a153a1489d815E, symObjAddr: 0x16AC, symBinAddr: 0x28920, symSize: 0x1D4 }
  - { offset: 0x7B7DA, size: 0x8, addend: 0x0, symName: __ZN3std12backtrace_rs9symbolize5gimli5macho6Object5parse17hbc26463257d20f2aE, symObjAddr: 0x1880, symBinAddr: 0x28AF4, symSize: 0xBFC }
  - { offset: 0x7D5B2, size: 0x8, addend: 0x0, symName: __ZN3std12backtrace_rs9symbolize5gimli5macho6Object7section17he22847e43a23fe6bE, symObjAddr: 0x247C, symBinAddr: 0x296F0, symSize: 0x154 }
  - { offset: 0x7D9CB, size: 0x8, addend: 0x0, symName: __ZN3std12backtrace_rs9symbolize5gimli7Context11find_frames17h73caac78ce26352aE, symObjAddr: 0x25D0, symBinAddr: 0x29844, symSize: 0x394 }
  - { offset: 0x7DDB0, size: 0x8, addend: 0x0, symName: __ZN3std12backtrace_rs9symbolize5gimli7Context3new17h2384661d7d9b1f78E, symObjAddr: 0x2964, symBinAddr: 0x29BD8, symSize: 0x2034 }
  - { offset: 0x81D47, size: 0x8, addend: 0x0, symName: __ZN3std12backtrace_rs9symbolize5gimli7resolve17hf73b30071e9ea483E, symObjAddr: 0x4998, symBinAddr: 0x2BC0C, symSize: 0x2778 }
  - { offset: 0x876F5, size: 0x8, addend: 0x0, symName: __ZN3std12backtrace_rs9symbolize6Symbol4name17h06b8fd10d9b9a257E, symObjAddr: 0x7148, symBinAddr: 0x2E384, symSize: 0xE4 }
  - { offset: 0x878A7, size: 0x8, addend: 0x0, symName: '__ZN79_$LT$std..backtrace_rs..symbolize..SymbolName$u20$as$u20$core..fmt..Display$GT$3fmt17hb783e3698fc7e9b5E', symObjAddr: 0x492D0, symBinAddr: 0x45CFC, symSize: 0x104 }
  - { offset: 0x87A1D, size: 0x8, addend: 0x0, symName: '__ZN75_$LT$std..fs..ReadDir$u20$as$u20$core..iter..traits..iterator..Iterator$GT$4next17h1265719e5d52e8c4E', symObjAddr: 0x47B60, symBinAddr: 0x45B70, symSize: 0x18C }
  - { offset: 0x87E0F, size: 0x8, addend: 0x0, symName: '__ZN64_$LT$std..ffi..os_str..Display$u20$as$u20$core..fmt..Display$GT$3fmt17h85b477a581a14f44E', symObjAddr: 0x45488, symBinAddr: 0x450D8, symSize: 0xAC }
  - { offset: 0x87E94, size: 0x8, addend: 0x0, symName: '__ZN3std4sync6poison5mutex14Mutex$LT$T$GT$4lock17haf609da69215fe08E', symObjAddr: 0x1E94C, symBinAddr: 0x31788, symSize: 0x78 }
  - { offset: 0x880B9, size: 0x8, addend: 0x0, symName: '__ZN3std4sync6poison6rwlock15RwLock$LT$T$GT$5write17h64747a9009546d00E', symObjAddr: 0x1E9C4, symBinAddr: 0x31800, symSize: 0x228 }
  - { offset: 0x8880B, size: 0x8, addend: 0x0, symName: __ZN3std5panic13resume_unwind17h544eab57042a23ebE, symObjAddr: 0x1F52C, symBinAddr: 0x57E84, symSize: 0xC }
  - { offset: 0x8883A, size: 0x8, addend: 0x0, symName: __ZN3std5panic19get_backtrace_style17h31f0dac9c1426532E, symObjAddr: 0x1F538, symBinAddr: 0x31BC0, symSize: 0x11C }
  - { offset: 0x88858, size: 0x8, addend: 0x0, symName: __ZN3std5panic19get_backtrace_style17h31f0dac9c1426532E, symObjAddr: 0x1F538, symBinAddr: 0x31BC0, symSize: 0x11C }
  - { offset: 0x8886D, size: 0x8, addend: 0x0, symName: __ZN3std5panic19get_backtrace_style17h31f0dac9c1426532E, symObjAddr: 0x1F538, symBinAddr: 0x31BC0, symSize: 0x11C }
  - { offset: 0x88CD4, size: 0x8, addend: 0x0, symName: __ZN3std3env11current_dir17hc37cdc7315eb81a1E, symObjAddr: 0xCE2C, symBinAddr: 0x2F308, symSize: 0x19C }
  - { offset: 0x890AD, size: 0x8, addend: 0x0, symName: __ZN3std3env7_var_os17he408374094189780E, symObjAddr: 0xD13C, symBinAddr: 0x2F4A4, symSize: 0x164 }
  - { offset: 0x89344, size: 0x8, addend: 0x0, symName: __ZN3std4time10SystemTime14duration_since17h79c1f2fbb278ea33E, symObjAddr: 0x1F1E0, symBinAddr: 0x31A28, symSize: 0x50 }
  - { offset: 0x89383, size: 0x8, addend: 0x0, symName: __ZN3std4time10SystemTime3now17hf4ea8c96237d54c2E, symObjAddr: 0x1F230, symBinAddr: 0x31A78, symSize: 0x8 }
  - { offset: 0x8939A, size: 0x8, addend: 0x0, symName: __ZN3std4time10SystemTime3now17hf4ea8c96237d54c2E, symObjAddr: 0x1F230, symBinAddr: 0x31A78, symSize: 0x8 }
  - { offset: 0x89686, size: 0x8, addend: 0x0, symName: __ZN5alloc5alloc15exchange_malloc17h7a64f5364f308ae6E, symObjAddr: 0x39D7C, symBinAddr: 0x3D72C, symSize: 0x48 }
  - { offset: 0x8A54A, size: 0x8, addend: 0x0, symName: '__ZN64_$LT$alloc..ffi..c_str..NulError$u20$as$u20$core..fmt..Debug$GT$3fmt17hb528bfe231df95daE', symObjAddr: 0x44ED8, symBinAddr: 0x4508C, symSize: 0x4C }
  - { offset: 0x8A9F2, size: 0x8, addend: 0x0, symName: '__ZN5alloc11collections5btree3map25IntoIter$LT$K$C$V$C$A$GT$10dying_next17h22b1c64eb370863dE', symObjAddr: 0x36C50, symBinAddr: 0x3CFA8, symSize: 0x208 }
  - { offset: 0x8ADAE, size: 0x8, addend: 0x0, symName: '__ZN5alloc11collections5btree3map25IntoIter$LT$K$C$V$C$A$GT$10dying_next17h80944ebf24a3bbadE', symObjAddr: 0x36E58, symBinAddr: 0x3D1B0, symSize: 0x208 }
  - { offset: 0x8BD88, size: 0x8, addend: 0x0, symName: '__ZN5alloc7raw_vec19RawVec$LT$T$C$A$GT$8grow_one17h09f72ff2edcb7145E', symObjAddr: 0x39E44, symBinAddr: 0x3D774, symSize: 0xB4 }
  - { offset: 0x8BEB3, size: 0x8, addend: 0x0, symName: '__ZN5alloc7raw_vec19RawVec$LT$T$C$A$GT$8grow_one17h0a83f3c2f81107feE', symObjAddr: 0x39EF8, symBinAddr: 0x3D828, symSize: 0xC0 }
  - { offset: 0x8BFC9, size: 0x8, addend: 0x0, symName: '__ZN5alloc7raw_vec19RawVec$LT$T$C$A$GT$8grow_one17h0b8cc8aaa4ca2627E', symObjAddr: 0x39FB8, symBinAddr: 0x3D8E8, symSize: 0xB8 }
  - { offset: 0x8C0DF, size: 0x8, addend: 0x0, symName: '__ZN5alloc7raw_vec19RawVec$LT$T$C$A$GT$8grow_one17h2538c3a76f8332d4E', symObjAddr: 0x3A070, symBinAddr: 0x3D9A0, symSize: 0xB4 }
  - { offset: 0x8C20A, size: 0x8, addend: 0x0, symName: '__ZN5alloc7raw_vec19RawVec$LT$T$C$A$GT$8grow_one17h35b443c82a84d8f5E', symObjAddr: 0x3A124, symBinAddr: 0x3DA54, symSize: 0xC0 }
  - { offset: 0x8C320, size: 0x8, addend: 0x0, symName: '__ZN5alloc7raw_vec19RawVec$LT$T$C$A$GT$8grow_one17h3f245f84b3ab39cdE', symObjAddr: 0x3A1E4, symBinAddr: 0x3DB14, symSize: 0xB4 }
  - { offset: 0x8C44B, size: 0x8, addend: 0x0, symName: '__ZN5alloc7raw_vec19RawVec$LT$T$C$A$GT$8grow_one17h6539c0c099fe1986E', symObjAddr: 0x3A358, symBinAddr: 0x3DBC8, symSize: 0xB4 }
  - { offset: 0x8C576, size: 0x8, addend: 0x0, symName: '__ZN5alloc7raw_vec19RawVec$LT$T$C$A$GT$8grow_one17h94e06e2249cf7166E', symObjAddr: 0x3A40C, symBinAddr: 0x3DC7C, symSize: 0xB8 }
  - { offset: 0x8C68C, size: 0x8, addend: 0x0, symName: '__ZN5alloc7raw_vec19RawVec$LT$T$C$A$GT$8grow_one17hae47f4ea8854854fE', symObjAddr: 0x3A4C4, symBinAddr: 0x3DD34, symSize: 0xC0 }
  - { offset: 0x8C7A2, size: 0x8, addend: 0x0, symName: '__ZN5alloc7raw_vec19RawVec$LT$T$C$A$GT$8grow_one17hb2be22af9cda6662E', symObjAddr: 0x3A584, symBinAddr: 0x3DDF4, symSize: 0xC0 }
  - { offset: 0x8C8B8, size: 0x8, addend: 0x0, symName: '__ZN5alloc7raw_vec19RawVec$LT$T$C$A$GT$8grow_one17hbb242b5a27216b95E', symObjAddr: 0x3A644, symBinAddr: 0x3DEB4, symSize: 0xB8 }
  - { offset: 0x8CC3C, size: 0x8, addend: 0x0, symName: __ZN5alloc7raw_vec11finish_grow17h1fe80a46fbbf8c9aE, symObjAddr: 0x39DC4, symBinAddr: 0x5B07C, symSize: 0x80 }
  - { offset: 0x8CCC8, size: 0x8, addend: 0x0, symName: '__ZN5alloc7raw_vec20RawVecInner$LT$A$GT$7reserve21do_reserve_and_handle17h27d899f8eb2799c8E', symObjAddr: 0x3A6FC, symBinAddr: 0x5B0FC, symSize: 0xF8 }
  - { offset: 0x8CF80, size: 0x8, addend: 0x0, symName: '__ZN58_$LT$alloc..string..String$u20$as$u20$core..fmt..Debug$GT$3fmt17h762f034d0b19a212E', symObjAddr: 0x33F2C, symBinAddr: 0x3CDF4, symSize: 0x10 }
  - { offset: 0x8D03B, size: 0x8, addend: 0x0, symName: '__ZN58_$LT$alloc..string..String$u20$as$u20$core..fmt..Write$GT$10write_char17hf5eb0556627f32e1E', symObjAddr: 0x33F3C, symBinAddr: 0x3CE04, symSize: 0x120 }
  - { offset: 0x8D1DE, size: 0x8, addend: 0x0, symName: '__ZN58_$LT$alloc..string..String$u20$as$u20$core..fmt..Write$GT$9write_str17h4f289a0bc5411d70E', symObjAddr: 0x3405C, symBinAddr: 0x3CF24, symSize: 0x80 }
  - { offset: 0x8D337, size: 0x8, addend: 0x0, symName: '__ZN60_$LT$alloc..string..String$u20$as$u20$core..fmt..Display$GT$3fmt17h40cb6c2d63a0400fE', symObjAddr: 0x415A0, symBinAddr: 0x44D18, symSize: 0x10 }
  - { offset: 0x8D79C, size: 0x8, addend: 0x0, symName: '__ZN5alloc4sync16Arc$LT$T$C$A$GT$9drop_slow17h0590c51487cc0e78E', symObjAddr: 0x39970, symBinAddr: 0x3D3B8, symSize: 0x78 }
  - { offset: 0x8D96A, size: 0x8, addend: 0x0, symName: '__ZN5alloc4sync16Arc$LT$T$C$A$GT$9drop_slow17h455f000bacbe8778E', symObjAddr: 0x399E8, symBinAddr: 0x3D430, symSize: 0x98 }
  - { offset: 0x8DB0C, size: 0x8, addend: 0x0, symName: '__ZN5alloc4sync16Arc$LT$T$C$A$GT$9drop_slow17h58bfec597942d7c0E', symObjAddr: 0x39A80, symBinAddr: 0x3D4C8, symSize: 0xC0 }
  - { offset: 0x8DE35, size: 0x8, addend: 0x0, symName: '__ZN5alloc4sync16Arc$LT$T$C$A$GT$9drop_slow17h71ce5645e9f4e2faE', symObjAddr: 0x39BD8, symBinAddr: 0x3D588, symSize: 0xD0 }
  - { offset: 0x8E04E, size: 0x8, addend: 0x0, symName: '__ZN5alloc4sync16Arc$LT$T$C$A$GT$9drop_slow17hc514d4cb9a32a567E', symObjAddr: 0x39CA8, symBinAddr: 0x3D658, symSize: 0x34 }
  - { offset: 0x8E12D, size: 0x8, addend: 0x0, symName: '__ZN5alloc4sync16Arc$LT$T$C$A$GT$9drop_slow17hed6f5b3a05cf41fbE', symObjAddr: 0x39CDC, symBinAddr: 0x3D68C, symSize: 0xA0 }
  - { offset: 0x8EC0C, size: 0x8, addend: 0x0, symName: __ZN6object4read7archive13ArchiveMember5parse17h0cf35c47a3262c28E, symObjAddr: 0x46924, symBinAddr: 0x45598, symSize: 0x30C }
  - { offset: 0x8F2CD, size: 0x8, addend: 0x0, symName: __ZN6object4read7archive23parse_bsd_extended_name17hc2fd94417d200a20E, symObjAddr: 0x46C30, symBinAddr: 0x458A4, symSize: 0x2CC }
  - { offset: 0x8FC6C, size: 0x8, addend: 0x0, symName: '__ZN6memchr6memchr6memchr28_$u7b$$u7b$closure$u7d$$u7d$17h397791b73b81e986E', symObjAddr: 0x466C8, symBinAddr: 0x4533C, symSize: 0x25C }
  - { offset: 0x90437, size: 0x8, addend: 0x0, symName: '__ZN9addr2line4unit16ResUnit$LT$R$GT$25find_function_or_location28_$u7b$$u7b$closure$u7d$$u7d$17h0b2560d358ac4418E', symObjAddr: 0x4D0B0, symBinAddr: 0x47524, symSize: 0x30C }
  - { offset: 0x907CC, size: 0x8, addend: 0x0, symName: '__ZN9addr2line4unit16ResUnit$LT$R$GT$25find_function_or_location17hb8c2717196c051f4E', symObjAddr: 0x4CD44, symBinAddr: 0x471B8, symSize: 0x36C }
  - { offset: 0x90CF5, size: 0x8, addend: 0x0, symName: '__ZN9addr2line16Context$LT$R$GT$9find_unit17h6f93650cf3288060E', symObjAddr: 0x4C758, symBinAddr: 0x46BCC, symSize: 0x15C }
  - { offset: 0x90E77, size: 0x8, addend: 0x0, symName: '__ZN9addr2line6lookup30LoopingLookup$LT$T$C$L$C$F$GT$10new_lookup17h7be4a3ff02a5568bE', symObjAddr: 0x4D67C, symBinAddr: 0x47AF0, symSize: 0x438 }
  - { offset: 0x913DA, size: 0x8, addend: 0x0, symName: __ZN9addr2line4line11render_file17h6d17362951bb3a0fE, symObjAddr: 0x4C8B4, symBinAddr: 0x46D28, symSize: 0x490 }
  - { offset: 0x91D87, size: 0x8, addend: 0x0, symName: '__ZN9addr2line8function17Function$LT$R$GT$14parse_children17h94e2fbb278f6f4afE', symObjAddr: 0x4DE18, symBinAddr: 0x4828C, symSize: 0xF20 }
  - { offset: 0x93682, size: 0x8, addend: 0x0, symName: __ZN9addr2line8function10name_entry17hdcd9d55faa5b8559E, symObjAddr: 0x4DAB4, symBinAddr: 0x47F28, symSize: 0x364 }
  - { offset: 0x93B5B, size: 0x8, addend: 0x0, symName: __ZN9addr2line8function9name_attr17h005d1ad1ee1bd9b3E, symObjAddr: 0x4ED38, symBinAddr: 0x491AC, symSize: 0x1C0 }
  - { offset: 0x93D47, size: 0x8, addend: 0x0, symName: '__ZN9addr2line5frame18FrameIter$LT$R$GT$4next17h9c99cb3977d75464E', symObjAddr: 0x4D3BC, symBinAddr: 0x47830, symSize: 0x2C0 }
  - { offset: 0x945D7, size: 0x8, addend: 0x0, symName: '__ZN5gimli4read5dwarf14Dwarf$LT$R$GT$11attr_string17h61d81fbcbee62996E', symObjAddr: 0x3F804, symBinAddr: 0x42F7C, symSize: 0x220 }
  - { offset: 0x94D71, size: 0x8, addend: 0x0, symName: '__ZN5gimli4read5dwarf13Unit$LT$R$GT$3new17h58a22d42e2b88249E', symObjAddr: 0x3DB64, symBinAddr: 0x412DC, symSize: 0x1CA0 }
  - { offset: 0x9853C, size: 0x8, addend: 0x0, symName: '__ZN5gimli4read7aranges30ArangeHeader$LT$R$C$Offset$GT$5parse17h18ec296afb75f086E', symObjAddr: 0x40688, symBinAddr: 0x43E00, symSize: 0x2A8 }
  - { offset: 0x98FAA, size: 0x8, addend: 0x0, symName: '__ZN5gimli4read4unit18Attribute$LT$R$GT$5value17hd84235d5f0589f1bE', symObjAddr: 0x3CD78, symBinAddr: 0x404F0, symSize: 0x598 }
  - { offset: 0x993B5, size: 0x8, addend: 0x0, symName: '__ZN90_$LT$gimli..read..unit..AttributeValue$LT$R$C$Offset$GT$$u20$as$u20$core..clone..Clone$GT$5clone17h73aa6ddc12793aa1E', symObjAddr: 0x4B650, symBinAddr: 0x464EC, symSize: 0x68 }
  - { offset: 0x99415, size: 0x8, addend: 0x0, symName: '__ZN5gimli4read4unit32AttributeValue$LT$R$C$Offset$GT$11udata_value17ha8d2cb136f47175bE', symObjAddr: 0x3D5C8, symBinAddr: 0x40D40, symSize: 0x84 }
  - { offset: 0x99470, size: 0x8, addend: 0x0, symName: __ZN5gimli4read4unit15parse_attribute17hc1d74b8eec228250E, symObjAddr: 0x3B990, symBinAddr: 0x3F108, symSize: 0xF74 }
  - { offset: 0x9C01A, size: 0x8, addend: 0x0, symName: __ZN5gimli4read4unit15skip_attributes17hdc6142efc7264c05E, symObjAddr: 0x3C904, symBinAddr: 0x4007C, symSize: 0x474 }
  - { offset: 0x9CA04, size: 0x8, addend: 0x0, symName: '__ZN5gimli4read4unit22EntriesCursor$LT$R$GT$10next_entry17h8f756747ff1f8396E', symObjAddr: 0x3D310, symBinAddr: 0x40A88, symSize: 0x2B8 }
  - { offset: 0x9CFC8, size: 0x8, addend: 0x0, symName: '__ZN5gimli4read4unit33DebugInfoUnitHeadersIter$LT$R$GT$4next17hb26e96162b5603e4E', symObjAddr: 0x3D64C, symBinAddr: 0x40DC4, symSize: 0x518 }
  - { offset: 0x9E2B0, size: 0x8, addend: 0x0, symName: __ZN5gimli4read6reader6Reader11read_offset17ha6198688e6a6cc43E, symObjAddr: 0x401D4, symBinAddr: 0x4394C, symSize: 0xB4 }
  - { offset: 0x9E4CF, size: 0x8, addend: 0x0, symName: __ZN5gimli4read6reader6Reader12read_sleb12817he7622149ed2ba8f3E, symObjAddr: 0x40288, symBinAddr: 0x43A00, symSize: 0x23C }
  - { offset: 0x9E5AB, size: 0x8, addend: 0x0, symName: __ZN5gimli4read6reader6Reader12read_uleb12817hd0ba7762d4f5272cE, symObjAddr: 0x404C4, symBinAddr: 0x43C3C, symSize: 0xB8 }
  - { offset: 0x9E652, size: 0x8, addend: 0x0, symName: __ZN5gimli4read6reader6Reader17read_sized_offset17h56144a8ee82a97f2E, symObjAddr: 0x4057C, symBinAddr: 0x43CF4, symSize: 0x10C }
  - { offset: 0x9ECC9, size: 0x8, addend: 0x0, symName: '__ZN5gimli4read8rnglists20RngListIter$LT$R$GT$4next17hbfe62e2e23855b41E', symObjAddr: 0x40930, symBinAddr: 0x440A8, symSize: 0xC70 }
  - { offset: 0xA1640, size: 0x8, addend: 0x0, symName: '__ZN5gimli4read5index18UnitIndex$LT$R$GT$5parse17hf42bddb15b37e4adE', symObjAddr: 0x3FA24, symBinAddr: 0x4319C, symSize: 0x7B0 }
  - { offset: 0xA1D20, size: 0x8, addend: 0x0, symName: '__ZN5gimli4read4line27FileEntry$LT$R$C$Offset$GT$5parse17h809629ae1f90afdcE', symObjAddr: 0x3B774, symBinAddr: 0x3EEEC, symSize: 0x21C }
  - { offset: 0xA1F88, size: 0x8, addend: 0x0, symName: __ZN5gimli4read4line13parse_file_v517h46b7dbdd20cc86bdE, symObjAddr: 0x3A7F4, symBinAddr: 0x3DF6C, symSize: 0x2B4 }
  - { offset: 0xA2110, size: 0x8, addend: 0x0, symName: __ZN5gimli4read4line15FileEntryFormat5parse17h8d770897394a1285E, symObjAddr: 0x3AAA8, symBinAddr: 0x3E220, symSize: 0x370 }
  - { offset: 0xA2908, size: 0x8, addend: 0x0, symName: __ZN5gimli4read4line15parse_attribute17h8f693dd0ab51bc26E, symObjAddr: 0x3AE18, symBinAddr: 0x3E590, symSize: 0x874 }
  - { offset: 0xA410B, size: 0x8, addend: 0x0, symName: __ZN5gimli4read4line18parse_directory_v517hb83c7405e582bcc2E, symObjAddr: 0x3B68C, symBinAddr: 0x3EE04, symSize: 0xE8 }
  - { offset: 0xA4370, size: 0x8, addend: 0x0, symName: _OUTLINED_FUNCTION_0, symObjAddr: 0x4F37C, symBinAddr: 0x496E4, symSize: 0x8 }
  - { offset: 0xA4388, size: 0x8, addend: 0x0, symName: _OUTLINED_FUNCTION_1, symObjAddr: 0x4F384, symBinAddr: 0x496EC, symSize: 0xC }
  - { offset: 0xA43A0, size: 0x8, addend: 0x0, symName: _OUTLINED_FUNCTION_2, symObjAddr: 0x4F390, symBinAddr: 0x496F8, symSize: 0xC }
  - { offset: 0xA43B8, size: 0x8, addend: 0x0, symName: _OUTLINED_FUNCTION_3, symObjAddr: 0x4F39C, symBinAddr: 0x49704, symSize: 0x10 }
  - { offset: 0xA43D0, size: 0x8, addend: 0x0, symName: _OUTLINED_FUNCTION_4, symObjAddr: 0x4F3AC, symBinAddr: 0x49714, symSize: 0x10 }
  - { offset: 0xA43E8, size: 0x8, addend: 0x0, symName: _OUTLINED_FUNCTION_5, symObjAddr: 0x4F3BC, symBinAddr: 0x49724, symSize: 0xC }
  - { offset: 0xA4400, size: 0x8, addend: 0x0, symName: _OUTLINED_FUNCTION_6, symObjAddr: 0x4F3C8, symBinAddr: 0x49730, symSize: 0xC }
  - { offset: 0xA4418, size: 0x8, addend: 0x0, symName: _OUTLINED_FUNCTION_7, symObjAddr: 0x4F3D4, symBinAddr: 0x4973C, symSize: 0x10 }
  - { offset: 0xA4430, size: 0x8, addend: 0x0, symName: _OUTLINED_FUNCTION_8, symObjAddr: 0x4F3E4, symBinAddr: 0x4974C, symSize: 0x8 }
  - { offset: 0xA4448, size: 0x8, addend: 0x0, symName: _OUTLINED_FUNCTION_9, symObjAddr: 0x4F3EC, symBinAddr: 0x49754, symSize: 0x24 }
  - { offset: 0xA4460, size: 0x8, addend: 0x0, symName: _OUTLINED_FUNCTION_10, symObjAddr: 0x4F410, symBinAddr: 0x49778, symSize: 0x8 }
  - { offset: 0xA4478, size: 0x8, addend: 0x0, symName: _OUTLINED_FUNCTION_11, symObjAddr: 0x4F418, symBinAddr: 0x49780, symSize: 0x8 }
  - { offset: 0xA4490, size: 0x8, addend: 0x0, symName: _OUTLINED_FUNCTION_12, symObjAddr: 0x4F420, symBinAddr: 0x49788, symSize: 0x24 }
  - { offset: 0xA44A8, size: 0x8, addend: 0x0, symName: _OUTLINED_FUNCTION_13, symObjAddr: 0x4F444, symBinAddr: 0x497AC, symSize: 0x20 }
  - { offset: 0xA44C0, size: 0x8, addend: 0x0, symName: _OUTLINED_FUNCTION_14, symObjAddr: 0x4F464, symBinAddr: 0x497CC, symSize: 0x10 }
  - { offset: 0xA44D8, size: 0x8, addend: 0x0, symName: _OUTLINED_FUNCTION_15, symObjAddr: 0x4F474, symBinAddr: 0x497DC, symSize: 0x10 }
  - { offset: 0xA44F0, size: 0x8, addend: 0x0, symName: _OUTLINED_FUNCTION_16, symObjAddr: 0x4F484, symBinAddr: 0x497EC, symSize: 0x10 }
  - { offset: 0xA4508, size: 0x8, addend: 0x0, symName: _OUTLINED_FUNCTION_17, symObjAddr: 0x4F494, symBinAddr: 0x497FC, symSize: 0x10 }
  - { offset: 0xA4520, size: 0x8, addend: 0x0, symName: _OUTLINED_FUNCTION_18, symObjAddr: 0x4F4A4, symBinAddr: 0x4980C, symSize: 0x8 }
  - { offset: 0xA4538, size: 0x8, addend: 0x0, symName: _OUTLINED_FUNCTION_19, symObjAddr: 0x4F4AC, symBinAddr: 0x49814, symSize: 0x8 }
  - { offset: 0xA4550, size: 0x8, addend: 0x0, symName: _OUTLINED_FUNCTION_20, symObjAddr: 0x4F4B4, symBinAddr: 0x4981C, symSize: 0xC }
  - { offset: 0xA4568, size: 0x8, addend: 0x0, symName: _OUTLINED_FUNCTION_21, symObjAddr: 0x4F4C0, symBinAddr: 0x49828, symSize: 0x8 }
  - { offset: 0xA4580, size: 0x8, addend: 0x0, symName: _OUTLINED_FUNCTION_22, symObjAddr: 0x4F4C8, symBinAddr: 0x49830, symSize: 0x10 }
  - { offset: 0xA4598, size: 0x8, addend: 0x0, symName: _OUTLINED_FUNCTION_23, symObjAddr: 0x4F4D8, symBinAddr: 0x49840, symSize: 0x10 }
  - { offset: 0xA45B0, size: 0x8, addend: 0x0, symName: _OUTLINED_FUNCTION_24, symObjAddr: 0x4F4E8, symBinAddr: 0x49850, symSize: 0x18 }
  - { offset: 0xA45C8, size: 0x8, addend: 0x0, symName: _OUTLINED_FUNCTION_25, symObjAddr: 0x4F500, symBinAddr: 0x49868, symSize: 0xC }
  - { offset: 0xA45E0, size: 0x8, addend: 0x0, symName: _OUTLINED_FUNCTION_26, symObjAddr: 0x4F50C, symBinAddr: 0x49874, symSize: 0x8 }
  - { offset: 0xA45F8, size: 0x8, addend: 0x0, symName: _OUTLINED_FUNCTION_27, symObjAddr: 0x4F514, symBinAddr: 0x4987C, symSize: 0x8 }
  - { offset: 0xA4610, size: 0x8, addend: 0x0, symName: _OUTLINED_FUNCTION_28, symObjAddr: 0x4F51C, symBinAddr: 0x49884, symSize: 0xC }
  - { offset: 0xA4628, size: 0x8, addend: 0x0, symName: _OUTLINED_FUNCTION_29, symObjAddr: 0x4F528, symBinAddr: 0x49890, symSize: 0xC }
  - { offset: 0xA4640, size: 0x8, addend: 0x0, symName: _OUTLINED_FUNCTION_31, symObjAddr: 0x4F540, symBinAddr: 0x4989C, symSize: 0xC }
  - { offset: 0xA4658, size: 0x8, addend: 0x0, symName: _OUTLINED_FUNCTION_32, symObjAddr: 0x4F54C, symBinAddr: 0x498A8, symSize: 0x8 }
  - { offset: 0xA4670, size: 0x8, addend: 0x0, symName: _OUTLINED_FUNCTION_33, symObjAddr: 0x4F554, symBinAddr: 0x498B0, symSize: 0x10 }
  - { offset: 0xA4688, size: 0x8, addend: 0x0, symName: _OUTLINED_FUNCTION_34, symObjAddr: 0x4F564, symBinAddr: 0x498C0, symSize: 0x14 }
  - { offset: 0xA46A0, size: 0x8, addend: 0x0, symName: _OUTLINED_FUNCTION_35, symObjAddr: 0x4F578, symBinAddr: 0x498D4, symSize: 0x14 }
  - { offset: 0xA46B8, size: 0x8, addend: 0x0, symName: _OUTLINED_FUNCTION_36, symObjAddr: 0x4F58C, symBinAddr: 0x498E8, symSize: 0x14 }
  - { offset: 0xA46EE, size: 0x8, addend: 0x0, symName: __RNvCskdKJRKLKjqM_7___rustc18___rust_start_panic, symObjAddr: 0x0, symBinAddr: 0x498FC, symSize: 0xA0 }
  - { offset: 0xA47C9, size: 0x8, addend: 0x0, symName: __ZN12panic_unwind3imp5panic17exception_cleanup17h4266e266b2c9487cE, symObjAddr: 0x108, symBinAddr: 0x49A04, symSize: 0x18 }
  - { offset: 0xA47E5, size: 0x8, addend: 0x0, symName: __RNvCskdKJRKLKjqM_7___rustc18___rust_start_panic, symObjAddr: 0x0, symBinAddr: 0x498FC, symSize: 0xA0 }
  - { offset: 0xA486F, size: 0x8, addend: 0x0, symName: __RNvCskdKJRKLKjqM_7___rustc20___rust_panic_cleanup, symObjAddr: 0xA0, symBinAddr: 0x4999C, symSize: 0x68 }
  - { offset: 0xA4964, size: 0x8, addend: 0x0, symName: '__ZN4core3ptr49drop_in_place$LT$panic_unwind..imp..Exception$GT$17haf5bf9a577d18351E', symObjAddr: 0x120, symBinAddr: 0x49A1C, symSize: 0x78 }
  - { offset: 0xA4A6B, size: 0x8, addend: 0x0, symName: '__ZN4core3ptr74drop_in_place$LT$alloc..boxed..Box$LT$panic_unwind..imp..Exception$GT$$GT$17hfb07d84a22c2fe57E', symObjAddr: 0x198, symBinAddr: 0x49A94, symSize: 0x8C }
  - { offset: 0xA4C8A, size: 0x8, addend: 0x0, symName: __ZN9hashbrown3raw11Fallibility17capacity_overflow17h5345637d691a171bE, symObjAddr: 0x148, symBinAddr: 0x51570, symSize: 0x44 }
  - { offset: 0xA4CB9, size: 0x8, addend: 0x0, symName: __ZN9hashbrown3raw11Fallibility9alloc_err17h7ccfec3b6338a4a5E, symObjAddr: 0x18C, symBinAddr: 0x515B4, symSize: 0x24 }
  - { offset: 0xA4D4B, size: 0x8, addend: 0x0, symName: __ZN4core3fmt5Write9write_fmt17h4804216ef2799c76E, symObjAddr: 0x144, symBinAddr: 0x515F8, symSize: 0x38 }
  - { offset: 0xA4D8D, size: 0x8, addend: 0x0, symName: '__ZN53_$LT$core..fmt..Error$u20$as$u20$core..fmt..Debug$GT$3fmt17h2c60f2117c688a19E', symObjAddr: 0x434, symBinAddr: 0x51648, symSize: 0x14 }
  - { offset: 0xA4ED8, size: 0x8, addend: 0x0, symName: '__ZN69_$LT$core..alloc..layout..LayoutError$u20$as$u20$core..fmt..Debug$GT$3fmt17h64c9cb4b8dea4922E', symObjAddr: 0x4FA4, symBinAddr: 0x51DE4, symSize: 0x14 }
  - { offset: 0xA4F25, size: 0x8, addend: 0x0, symName: '__ZN4core3ptr42drop_in_place$LT$alloc..string..String$GT$17h125e75c66c8dab73E', symObjAddr: 0x194, symBinAddr: 0x51630, symSize: 0x18 }
  - { offset: 0xA52C9, size: 0x8, addend: 0x0, symName: __ZN5alloc5alloc18handle_alloc_error17h26baa107ca8d7d87E, symObjAddr: 0x3110, symBinAddr: 0x5B2E4, symSize: 0x18 }
  - { offset: 0xA5583, size: 0x8, addend: 0x0, symName: __ZN5alloc7raw_vec11finish_grow17hae2a77561b3eba9fE, symObjAddr: 0x4A98, symBinAddr: 0x5B2FC, symSize: 0x80 }
  - { offset: 0xA55F8, size: 0x8, addend: 0x0, symName: __ZN5alloc7raw_vec12handle_error17hda5280d2e54fe328E, symObjAddr: 0x4B18, symBinAddr: 0x5B37C, symSize: 0x18 }
  - { offset: 0xA5637, size: 0x8, addend: 0x0, symName: __ZN5alloc7raw_vec17capacity_overflow17h17d905a29a8903c6E, symObjAddr: 0x4B30, symBinAddr: 0x5B394, symSize: 0x34 }
  - { offset: 0xA5670, size: 0x8, addend: 0x0, symName: '__ZN5alloc7raw_vec20RawVecInner$LT$A$GT$7reserve21do_reserve_and_handle17h11d004b711ee78ceE', symObjAddr: 0x4C04, symBinAddr: 0x5B3C8, symSize: 0xAC }
  - { offset: 0xA57D6, size: 0x8, addend: 0x0, symName: '__ZN254_$LT$alloc..boxed..convert..$LT$impl$u20$core..convert..From$LT$alloc..string..String$GT$$u20$for$u20$alloc..boxed..Box$LT$dyn$u20$core..error..Error$u2b$core..marker..Sync$u2b$core..marker..Send$GT$$GT$..from..StringError$u20$as$u20$core..fmt..Debug$GT$3fmt17h75dec14bca657cd7E', symObjAddr: 0x114, symBinAddr: 0x515D8, symSize: 0x10 }
  - { offset: 0xA58A7, size: 0x8, addend: 0x0, symName: '__ZN256_$LT$alloc..boxed..convert..$LT$impl$u20$core..convert..From$LT$alloc..string..String$GT$$u20$for$u20$alloc..boxed..Box$LT$dyn$u20$core..error..Error$u2b$core..marker..Sync$u2b$core..marker..Send$GT$$GT$..from..StringError$u20$as$u20$core..fmt..Display$GT$3fmt17h47fcec3434e746beE', symObjAddr: 0x124, symBinAddr: 0x515E8, symSize: 0x10 }
  - { offset: 0xA5986, size: 0x8, addend: 0x0, symName: __ZN5alloc3ffi5c_str7CString19_from_vec_unchecked17ha9e4236e455233d9E, symObjAddr: 0xAA0, symBinAddr: 0x517EC, symSize: 0x160 }
  - { offset: 0xA5CCE, size: 0x8, addend: 0x0, symName: '__ZN72_$LT$$RF$str$u20$as$u20$alloc..ffi..c_str..CString..new..SpecNewImpl$GT$13spec_new_impl17h45e6a9b6841b9026E', symObjAddr: 0x4FB8, symBinAddr: 0x51DF8, symSize: 0x114 }
  - { offset: 0xA617E, size: 0x8, addend: 0x0, symName: __ZN5alloc6string6String15from_utf8_lossy17h3827377ec6f44505E, symObjAddr: 0x40B8, symBinAddr: 0x51BA8, symSize: 0x23C }
  - { offset: 0xA672C, size: 0x8, addend: 0x0, symName: '__ZN58_$LT$alloc..string..String$u20$as$u20$core..fmt..Write$GT$10write_char17hf5eb0556627f32e1E', symObjAddr: 0x4AC, symBinAddr: 0x5165C, symSize: 0x118 }
  - { offset: 0xA68CF, size: 0x8, addend: 0x0, symName: '__ZN58_$LT$alloc..string..String$u20$as$u20$core..fmt..Write$GT$9write_str17h4f289a0bc5411d70E', symObjAddr: 0x5C4, symBinAddr: 0x51774, symSize: 0x78 }
  - { offset: 0xA6A36, size: 0x8, addend: 0x0, symName: '__ZN98_$LT$alloc..string..String$u20$as$u20$core..convert..From$LT$alloc..borrow..Cow$LT$str$GT$$GT$$GT$4from17h5469e7f25801e42aE', symObjAddr: 0x58FC, symBinAddr: 0x51F0C, symSize: 0xB4 }
  - { offset: 0xA6C2A, size: 0x8, addend: 0x0, symName: __ZN5alloc3fmt6format12format_inner17h0dad41b42c4e8ea8E, symObjAddr: 0xCCC, symBinAddr: 0x5194C, symSize: 0x1E8 }
  - { offset: 0xA6EE4, size: 0x8, addend: 0x0, symName: __ZN5alloc4sync32arcinner_layout_for_value_layout17he81fe29099bd6304E, symObjAddr: 0x226C, symBinAddr: 0x51B34, symSize: 0x74 }
  - { offset: 0xA7039, size: 0x8, addend: 0x0, symName: '__ZN71_$LT$core..ops..range..Range$LT$Idx$GT$$u20$as$u20$core..fmt..Debug$GT$3fmt17h9ee395a326b5a38dE', symObjAddr: 0x1D05C, symBinAddr: 0x56B48, symSize: 0x5C }
  - { offset: 0xA72AE, size: 0x8, addend: 0x0, symName: '__ZN4core4char7methods22_$LT$impl$u20$char$GT$16escape_debug_ext17h65363754973cca06E', symObjAddr: 0x15EAC, symBinAddr: 0x56074, symSize: 0x284 }
  - { offset: 0xA747C, size: 0x8, addend: 0x0, symName: __ZN4core4char7methods15encode_utf8_raw8do_panic7runtime17hf09a7bf7d34256f1E, symObjAddr: 0x15DD4, symBinAddr: 0x5B570, symSize: 0x6C }
  - { offset: 0xA766E, size: 0x8, addend: 0x0, symName: __ZN4core3num22from_ascii_radix_panic8do_panic7runtime17h7f9501ed7945387fE, symObjAddr: 0xD48C, symBinAddr: 0x5B480, symSize: 0x44 }
  - { offset: 0xA76A1, size: 0x8, addend: 0x0, symName: __ZN4core3num22from_ascii_radix_panic17h9c5061ce301e38d1E, symObjAddr: 0xD480, symBinAddr: 0x5B474, symSize: 0xC }
  - { offset: 0xA7957, size: 0x8, addend: 0x0, symName: __ZN4core6option13expect_failed17ha7eb9005b8b6a5f0E, symObjAddr: 0x16714, symBinAddr: 0x5B7B4, symSize: 0x48 }
  - { offset: 0xA799F, size: 0x8, addend: 0x0, symName: __ZN4core6option13unwrap_failed17h5390b8bf3624dae4E, symObjAddr: 0x1675C, symBinAddr: 0x5B7FC, symSize: 0x1C }
  - { offset: 0xA7B04, size: 0x8, addend: 0x0, symName: __ZN4core5ascii14escape_default17ha2e8949a2cf573beE, symObjAddr: 0x161DC, symBinAddr: 0x56318, symSize: 0x74 }
  - { offset: 0xA7D1A, size: 0x8, addend: 0x0, symName: '__ZN4core5slice29_$LT$impl$u20$$u5b$T$u5d$$GT$15copy_from_slice17len_mismatch_fail8do_panic7runtime17h29e40c895778a000E', symObjAddr: 0x16268, symBinAddr: 0x5B5F4, symSize: 0x54 }
  - { offset: 0xA7D4D, size: 0x8, addend: 0x0, symName: '__ZN4core5slice29_$LT$impl$u20$$u5b$T$u5d$$GT$15copy_from_slice17len_mismatch_fail17h4c7e34d810a2f68eE', symObjAddr: 0x16250, symBinAddr: 0x5B5DC, symSize: 0x18 }
  - { offset: 0xA7F55, size: 0x8, addend: 0x0, symName: __ZN4core5slice5index16slice_index_fail8do_panic7runtime17h264a8ffb4962c84aE, symObjAddr: 0x16438, symBinAddr: 0x5B6C4, symSize: 0x50 }
  - { offset: 0xA7F86, size: 0x8, addend: 0x0, symName: __ZN4core5slice5index16slice_index_fail8do_panic7runtime17hc3cb4cb0f63d7a0dE, symObjAddr: 0x16488, symBinAddr: 0x5B714, symSize: 0x50 }
  - { offset: 0xA7FB7, size: 0x8, addend: 0x0, symName: __ZN4core5slice5index16slice_index_fail8do_panic7runtime17hdb76a588098e04d1E, symObjAddr: 0x164D8, symBinAddr: 0x5B764, symSize: 0x50 }
  - { offset: 0xA7FEA, size: 0x8, addend: 0x0, symName: __ZN4core5slice5index16slice_index_fail17hcba6beb3c7e54df7E, symObjAddr: 0x163F4, symBinAddr: 0x5B680, symSize: 0x44 }
  - { offset: 0xA80A3, size: 0x8, addend: 0x0, symName: __ZN4core5slice6memchr14memchr_aligned17h0fd76980ccaa34afE, symObjAddr: 0x16528, symBinAddr: 0x563B8, symSize: 0xDC }
  - { offset: 0xA80BA, size: 0x8, addend: 0x0, symName: __ZN4core5slice6memchr14memchr_aligned17h0fd76980ccaa34afE, symObjAddr: 0x16528, symBinAddr: 0x563B8, symSize: 0xDC }
  - { offset: 0xA80CF, size: 0x8, addend: 0x0, symName: __ZN4core5slice6memchr14memchr_aligned17h0fd76980ccaa34afE, symObjAddr: 0x16528, symBinAddr: 0x563B8, symSize: 0xDC }
  - { offset: 0xA80E3, size: 0x8, addend: 0x0, symName: __ZN4core5slice6memchr14memchr_aligned17h0fd76980ccaa34afE, symObjAddr: 0x16528, symBinAddr: 0x563B8, symSize: 0xDC }
  - { offset: 0xA80F8, size: 0x8, addend: 0x0, symName: __ZN4core5slice6memchr14memchr_aligned17h0fd76980ccaa34afE, symObjAddr: 0x16528, symBinAddr: 0x563B8, symSize: 0xDC }
  - { offset: 0xA820A, size: 0x8, addend: 0x0, symName: __ZN4core5slice4sort6shared9smallsort22panic_on_ord_violation17haee08cae494f9b76E, symObjAddr: 0x162E0, symBinAddr: 0x5B648, symSize: 0x38 }
  - { offset: 0xA8247, size: 0x8, addend: 0x0, symName: __ZN4core5slice4sort6stable5drift11sqrt_approx17h4d80f437b4f05e96E, symObjAddr: 0x16318, symBinAddr: 0x5638C, symSize: 0x2C }
  - { offset: 0xA833C, size: 0x8, addend: 0x0, symName: __ZN4core3fmt9Formatter10debug_list17hbc06b89459e82ed2E, symObjAddr: 0x9CA8, symBinAddr: 0x53C00, symSize: 0x48 }
  - { offset: 0xA837C, size: 0x8, addend: 0x0, symName: __ZN4core3fmt9Formatter11debug_tuple17h51c84851e9ce025eE, symObjAddr: 0x9CF0, symBinAddr: 0x53C48, symSize: 0x50 }
  - { offset: 0xA83CA, size: 0x8, addend: 0x0, symName: __ZN4core3fmt9Formatter12debug_struct17hff016019e19a1e59E, symObjAddr: 0x9D40, symBinAddr: 0x53C98, symSize: 0x3C }
  - { offset: 0xA8433, size: 0x8, addend: 0x0, symName: __ZN4core3fmt9Formatter12pad_integral17h6b76510de31552c4E, symObjAddr: 0x9DF8, symBinAddr: 0x53D50, symSize: 0x3B4 }
  - { offset: 0xA8734, size: 0x8, addend: 0x0, symName: __ZN4core3fmt9Formatter25debug_tuple_field1_finish17hd754385b76890be0E, symObjAddr: 0xA668, symBinAddr: 0x54104, symSize: 0x160 }
  - { offset: 0xA892F, size: 0x8, addend: 0x0, symName: __ZN4core3fmt9Formatter25debug_tuple_field2_finish17hd192ca962f3e76f9E, symObjAddr: 0xA7C8, symBinAddr: 0x54264, symSize: 0x1D8 }
  - { offset: 0xA8C27, size: 0x8, addend: 0x0, symName: __ZN4core3fmt9Formatter26debug_struct_field1_finish17hdf9e3e8cc9fad70bE, symObjAddr: 0xB580, symBinAddr: 0x5443C, symSize: 0xD0 }
  - { offset: 0xA8CFE, size: 0x8, addend: 0x0, symName: __ZN4core3fmt9Formatter26debug_struct_field2_finish17h3b83c18c70479e53E, symObjAddr: 0xB650, symBinAddr: 0x5450C, symSize: 0x104 }
  - { offset: 0xA8DD5, size: 0x8, addend: 0x0, symName: __ZN4core3fmt9Formatter3pad17hff1f0d89dcf14919E, symObjAddr: 0xBC68, symBinAddr: 0x54610, symSize: 0x304 }
  - { offset: 0xA9135, size: 0x8, addend: 0x0, symName: __ZN4core3fmt9Formatter9write_str17hc566c39ab04e0b97E, symObjAddr: 0xC018, symBinAddr: 0x54914, symSize: 0x10 }
  - { offset: 0xA91A5, size: 0x8, addend: 0x0, symName: __ZN4core3fmt8builders11DebugStruct5field17h207d6e7a951e3da0E, symObjAddr: 0x91AC, symBinAddr: 0x5383C, symSize: 0x1B4 }
  - { offset: 0xA93B1, size: 0x8, addend: 0x0, symName: __ZN4core3fmt8builders11DebugStruct6finish17h09aadd2fc45d6189E, symObjAddr: 0x9360, symBinAddr: 0x539F0, symSize: 0x7C }
  - { offset: 0xA94D9, size: 0x8, addend: 0x0, symName: __ZN4core3fmt8builders10DebugTuple5field17h05b75b880ca687fcE, symObjAddr: 0x8EC8, symBinAddr: 0x53640, symSize: 0x148 }
  - { offset: 0xA9657, size: 0x8, addend: 0x0, symName: __ZN4core3fmt8builders10DebugTuple6finish17hbdc58b7a910cf8f5E, symObjAddr: 0x9010, symBinAddr: 0x53788, symSize: 0xB4 }
  - { offset: 0xA9792, size: 0x8, addend: 0x0, symName: __ZN4core3fmt8builders8DebugSet5entry17h2d9f8a7b8dc85098E, symObjAddr: 0x9A00, symBinAddr: 0x53A6C, symSize: 0x148 }
  - { offset: 0xA9973, size: 0x8, addend: 0x0, symName: __ZN4core3fmt8builders9DebugList6finish17h1e2c90a4f4b268bbE, symObjAddr: 0x9C5C, symBinAddr: 0x53BB4, symSize: 0x4C }
  - { offset: 0xA99F0, size: 0x8, addend: 0x0, symName: '__ZN68_$LT$core..fmt..builders..PadAdapter$u20$as$u20$core..fmt..Write$GT$10write_char17h26ddfb0e18c0d503E', symObjAddr: 0x1BDC8, symBinAddr: 0x56884, symSize: 0x80 }
  - { offset: 0xA9A19, size: 0x8, addend: 0x0, symName: '__ZN68_$LT$core..fmt..builders..PadAdapter$u20$as$u20$core..fmt..Write$GT$9write_str17hc88595c259955ac6E', symObjAddr: 0x1BE48, symBinAddr: 0x56904, symSize: 0x244 }
  - { offset: 0xA9CD6, size: 0x8, addend: 0x0, symName: '__ZN57_$LT$core..fmt..Formatter$u20$as$u20$core..fmt..Write$GT$10write_char17ha628134952590ac5E', symObjAddr: 0x1880C, symBinAddr: 0x56840, symSize: 0x10 }
  - { offset: 0xA9D12, size: 0x8, addend: 0x0, symName: '__ZN40_$LT$str$u20$as$u20$core..fmt..Debug$GT$3fmt17h6237d1724b23f846E', symObjAddr: 0x278, symBinAddr: 0x51FC0, symSize: 0x398 }
  - { offset: 0xAA11E, size: 0x8, addend: 0x0, symName: '__ZN41_$LT$char$u20$as$u20$core..fmt..Debug$GT$3fmt17h59e0a889e40b0668E', symObjAddr: 0x610, symBinAddr: 0x52358, symSize: 0xA8 }
  - { offset: 0xAA228, size: 0x8, addend: 0x0, symName: '__ZN42_$LT$$RF$T$u20$as$u20$core..fmt..Debug$GT$3fmt17h64c69660141ac234E', symObjAddr: 0x6D8, symBinAddr: 0x52400, symSize: 0x10 }
  - { offset: 0xAA23C, size: 0x8, addend: 0x0, symName: '__ZN42_$LT$$RF$T$u20$as$u20$core..fmt..Debug$GT$3fmt17h69565c29f92b8fc4E', symObjAddr: 0x6E8, symBinAddr: 0x52410, symSize: 0x8 }
  - { offset: 0xAA250, size: 0x8, addend: 0x0, symName: '__ZN42_$LT$$RF$T$u20$as$u20$core..fmt..Debug$GT$3fmt17h94db8d2ef512e5afE', symObjAddr: 0x6F0, symBinAddr: 0x52418, symSize: 0xC }
  - { offset: 0xAA279, size: 0x8, addend: 0x0, symName: '__ZN42_$LT$$RF$T$u20$as$u20$core..fmt..Debug$GT$3fmt17hf3f2228147b0947aE', symObjAddr: 0x704, symBinAddr: 0x52424, symSize: 0x164 }
  - { offset: 0xAA4B3, size: 0x8, addend: 0x0, symName: '__ZN42_$LT$str$u20$as$u20$core..fmt..Display$GT$3fmt17h1e7192c885a6ee43E', symObjAddr: 0x868, symBinAddr: 0x52588, symSize: 0x14 }
  - { offset: 0xAA4DB, size: 0x8, addend: 0x0, symName: '__ZN43_$LT$char$u20$as$u20$core..fmt..Display$GT$3fmt17hdbc7e490592ff55fE', symObjAddr: 0x8B0, symBinAddr: 0x5259C, symSize: 0xD4 }
  - { offset: 0xAA551, size: 0x8, addend: 0x0, symName: '__ZN44_$LT$$RF$T$u20$as$u20$core..fmt..Display$GT$3fmt17hee11fbb5a7b19b29E', symObjAddr: 0xACC, symBinAddr: 0x52670, symSize: 0x10 }
  - { offset: 0xAA645, size: 0x8, addend: 0x0, symName: '__ZN4core3fmt3num3imp51_$LT$impl$u20$core..fmt..Display$u20$for$u20$u8$GT$3fmt17h96dad03e83fb5f48E', symObjAddr: 0x2680, symBinAddr: 0x52824, symSize: 0xB0 }
  - { offset: 0xAA72A, size: 0x8, addend: 0x0, symName: '__ZN4core3fmt3num3imp52_$LT$impl$u20$core..fmt..Display$u20$for$u20$i32$GT$3fmt17h52781b7f8b2f4a4fE', symObjAddr: 0x2848, symBinAddr: 0x528D4, symSize: 0x13C }
  - { offset: 0xAA82A, size: 0x8, addend: 0x0, symName: '__ZN4core3fmt3num3imp52_$LT$impl$u20$core..fmt..Display$u20$for$u20$u16$GT$3fmt17hf3e8240227294a4eE', symObjAddr: 0x2AC8, symBinAddr: 0x52A10, symSize: 0xFC }
  - { offset: 0xAA913, size: 0x8, addend: 0x0, symName: '__ZN4core3fmt3num3imp52_$LT$impl$u20$core..fmt..Display$u20$for$u20$u32$GT$3fmt17h5beaee6a6019d596E', symObjAddr: 0x2BC4, symBinAddr: 0x52B0C, symSize: 0x130 }
  - { offset: 0xAAA10, size: 0x8, addend: 0x0, symName: '__ZN4core3fmt3num3imp52_$LT$impl$u20$core..fmt..Display$u20$for$u20$u64$GT$3fmt17h14d52cab6e85bc6fE', symObjAddr: 0x2CF4, symBinAddr: 0x52C3C, symSize: 0x13C }
  - { offset: 0xAAB4B, size: 0x8, addend: 0x0, symName: '__ZN4core3fmt3num52_$LT$impl$u20$core..fmt..LowerHex$u20$for$u20$u8$GT$3fmt17hb13fce475fc222b2E', symObjAddr: 0x4BF0, symBinAddr: 0x5311C, symSize: 0x74 }
  - { offset: 0xAABBD, size: 0x8, addend: 0x0, symName: '__ZN4core3fmt3num52_$LT$impl$u20$core..fmt..UpperHex$u20$for$u20$u8$GT$3fmt17hb1de02a3a7bbd3c7E', symObjAddr: 0x4CD8, symBinAddr: 0x53190, symSize: 0x74 }
  - { offset: 0xAAC42, size: 0x8, addend: 0x0, symName: '__ZN4core3fmt3num53_$LT$impl$u20$core..fmt..UpperHex$u20$for$u20$u32$GT$3fmt17hb34391e4c80e6b6fE', symObjAddr: 0x52AC, symBinAddr: 0x53360, symSize: 0x74 }
  - { offset: 0xAACB4, size: 0x8, addend: 0x0, symName: '__ZN4core3fmt3num53_$LT$impl$u20$core..fmt..LowerHex$u20$for$u20$u64$GT$3fmt17h79a829e8e24e1101E', symObjAddr: 0x5068, symBinAddr: 0x53278, symSize: 0x74 }
  - { offset: 0xAAD26, size: 0x8, addend: 0x0, symName: '__ZN4core3fmt3num53_$LT$impl$u20$core..fmt..UpperHex$u20$for$u20$u64$GT$3fmt17hc53763e351945eb2E', symObjAddr: 0x5320, symBinAddr: 0x533D4, symSize: 0x74 }
  - { offset: 0xAAD8B, size: 0x8, addend: 0x0, symName: '__ZN4core3fmt3num50_$LT$impl$u20$core..fmt..Debug$u20$for$u20$u64$GT$3fmt17hc0c6345233f6992cE', symObjAddr: 0x3E30, symBinAddr: 0x52D78, symSize: 0x1CC }
  - { offset: 0xAAF07, size: 0x8, addend: 0x0, symName: '__ZN4core3fmt3num52_$LT$impl$u20$core..fmt..Debug$u20$for$u20$usize$GT$3fmt17hecd777b1c3510085E', symObjAddr: 0x49A4, symBinAddr: 0x52F44, symSize: 0x1D8 }
  - { offset: 0xAB070, size: 0x8, addend: 0x0, symName: '__ZN4core3fmt3num53_$LT$impl$u20$core..fmt..LowerHex$u20$for$u20$i32$GT$3fmt17hdfae8c5dbc559eecE', symObjAddr: 0x4E98, symBinAddr: 0x53204, symSize: 0x74 }
  - { offset: 0xAB0F7, size: 0x8, addend: 0x0, symName: '__ZN4core3fmt3num53_$LT$impl$u20$core..fmt..UpperHex$u20$for$u20$i32$GT$3fmt17h723ababa892c8d1fE', symObjAddr: 0x5150, symBinAddr: 0x532EC, symSize: 0x74 }
  - { offset: 0xAB347, size: 0x8, addend: 0x0, symName: __ZN4core3fmt17pointer_fmt_inner17h8bac0a374e702121E, symObjAddr: 0x10FC, symBinAddr: 0x52770, symSize: 0xB4 }
  - { offset: 0xAB404, size: 0x8, addend: 0x0, symName: __ZN4core3fmt5Write9write_fmt17h335a5c637617de5aE, symObjAddr: 0x640C, symBinAddr: 0x53448, symSize: 0x10 }
  - { offset: 0xAB483, size: 0x8, addend: 0x0, symName: __ZN4core3fmt5write17h2ddadfca81aeb692E, symObjAddr: 0x8C20, symBinAddr: 0x53458, symSize: 0x1E8 }
  - { offset: 0xAB64E, size: 0x8, addend: 0x0, symName: __ZN4core3fmt9Formatter12pad_integral12write_prefix17h1291243e63835aa1E, symObjAddr: 0x9D7C, symBinAddr: 0x53CD4, symSize: 0x7C }
  - { offset: 0xAB6B6, size: 0x8, addend: 0x0, symName: '__ZN59_$LT$core..fmt..Arguments$u20$as$u20$core..fmt..Display$GT$3fmt17hd8696728533e2ff8E', symObjAddr: 0x194B8, symBinAddr: 0x56850, symSize: 0xC }
  - { offset: 0xAB7D9, size: 0x8, addend: 0x0, symName: __ZN4core6result13unwrap_failed17h6d77827dc3df0d45E, symObjAddr: 0x16778, symBinAddr: 0x5B818, symSize: 0x5C }
  - { offset: 0xABA01, size: 0x8, addend: 0x0, symName: __ZN4core3str5count14do_count_chars17h843327bbee0854c3E, symObjAddr: 0x14570, symBinAddr: 0x54B90, symSize: 0x718 }
  - { offset: 0xABDFD, size: 0x8, addend: 0x0, symName: __ZN4core3str5count23char_count_general_case17habd9bffbcb484ba4E, symObjAddr: 0x14C88, symBinAddr: 0x552A8, symSize: 0x2A8 }
  - { offset: 0xABEA5, size: 0x8, addend: 0x0, symName: __ZN4core3str16slice_error_fail17h525eecae2eaa107fE, symObjAddr: 0x14198, symBinAddr: 0x5B4C4, symSize: 0xC }
  - { offset: 0xABEBF, size: 0x8, addend: 0x0, symName: __ZN4core3str19slice_error_fail_rt17hb42e3abad203a6cdE, symObjAddr: 0x141D8, symBinAddr: 0x54924, symSize: 0x26C }
  - { offset: 0xAC042, size: 0x8, addend: 0x0, symName: __ZN4core3str7pattern11StrSearcher3new17h08afc4e4b23bec43E, symObjAddr: 0x14F64, symBinAddr: 0x55550, symSize: 0x8B0 }
  - { offset: 0xAC2D9, size: 0x8, addend: 0x0, symName: __ZN4core3str8converts9from_utf817h919d4dab8ff84af4E, symObjAddr: 0x15A88, symBinAddr: 0x55E00, symSize: 0x274 }
  - { offset: 0xAC2F6, size: 0x8, addend: 0x0, symName: __ZN4core3str8converts9from_utf817h919d4dab8ff84af4E, symObjAddr: 0x15A88, symBinAddr: 0x55E00, symSize: 0x274 }
  - { offset: 0xAC377, size: 0x8, addend: 0x0, symName: '__ZN87_$LT$core..str..lossy..Utf8Chunks$u20$as$u20$core..iter..traits..iterator..Iterator$GT$4next17h95aaa406218940b3E', symObjAddr: 0x1F918, symBinAddr: 0x56BA4, symSize: 0x1C0 }
  - { offset: 0xAC58B, size: 0x8, addend: 0x0, symName: __ZN4core3ffi5c_str4CStr19from_bytes_with_nul17h949d50f69b18d62aE, symObjAddr: 0xF20, symBinAddr: 0x52680, symSize: 0xF0 }
  - { offset: 0xAC5A9, size: 0x8, addend: 0x0, symName: __ZN4core3ffi5c_str4CStr19from_bytes_with_nul17h949d50f69b18d62aE, symObjAddr: 0xF20, symBinAddr: 0x52680, symSize: 0xF0 }
  - { offset: 0xAC6C9, size: 0x8, addend: 0x0, symName: __ZN4core4cell22panic_already_borrowed8do_panic7runtime17hb049e5e6e3009115E, symObjAddr: 0x15D08, symBinAddr: 0x5B4DC, symSize: 0x44 }
  - { offset: 0xAC6FC, size: 0x8, addend: 0x0, symName: __ZN4core4cell22panic_already_borrowed17h2b3e251322659aa8E, symObjAddr: 0x15CFC, symBinAddr: 0x5B4D0, symSize: 0xC }
  - { offset: 0xAC743, size: 0x8, addend: 0x0, symName: __ZN4core4cell30panic_already_mutably_borrowed8do_panic7runtime17hc56c39f460c92134E, symObjAddr: 0x15D58, symBinAddr: 0x5B52C, symSize: 0x44 }
  - { offset: 0xAC776, size: 0x8, addend: 0x0, symName: __ZN4core4cell30panic_already_mutably_borrowed17hc273b3949a0f2027E, symObjAddr: 0x15D4C, symBinAddr: 0x5B520, symSize: 0xC }
  - { offset: 0xAC7AB, size: 0x8, addend: 0x0, symName: '__ZN62_$LT$core..cell..BorrowError$u20$as$u20$core..fmt..Display$GT$3fmt17hdeb9f5888c712754E', symObjAddr: 0x19FBC, symBinAddr: 0x5685C, symSize: 0x14 }
  - { offset: 0xAC7E2, size: 0x8, addend: 0x0, symName: '__ZN65_$LT$core..cell..BorrowMutError$u20$as$u20$core..fmt..Display$GT$3fmt17h88d30539f104455aE', symObjAddr: 0x1A498, symBinAddr: 0x56870, symSize: 0x14 }
  - { offset: 0xAC832, size: 0x8, addend: 0x0, symName: __ZN4core7unicode12unicode_data15grapheme_extend11lookup_slow17h7cfd3b15da7724b7E, symObjAddr: 0x16D14, symBinAddr: 0x56494, symSize: 0x108 }
  - { offset: 0xACA05, size: 0x8, addend: 0x0, symName: __ZN4core7unicode9printable12is_printable17h2705576d9a4eb781E, symObjAddr: 0x17234, symBinAddr: 0x5659C, symSize: 0x2A4 }
  - { offset: 0xACCF6, size: 0x8, addend: 0x0, symName: __ZN4core5alloc6layout6Layout19is_size_align_valid17he773f7fedf08cc11E, symObjAddr: 0x161BC, symBinAddr: 0x562F8, symSize: 0x20 }
  - { offset: 0xACD13, size: 0x8, addend: 0x0, symName: __ZN4core5alloc6layout6Layout19is_size_align_valid17he773f7fedf08cc11E, symObjAddr: 0x161BC, symBinAddr: 0x562F8, symSize: 0x20 }
  - { offset: 0xACD40, size: 0x8, addend: 0x0, symName: __ZN4core9panicking11panic_const23panic_const_div_by_zero17h4bab502c4a7f6f5bE, symObjAddr: 0x174D8, symBinAddr: 0x5B874, symSize: 0x34 }
  - { offset: 0xACD6F, size: 0x8, addend: 0x0, symName: __ZN4core9panicking11panic_const23panic_const_rem_by_zero17h6c478c7599da4a96E, symObjAddr: 0x17540, symBinAddr: 0x5B8A8, symSize: 0x34 }
  - { offset: 0xACD9E, size: 0x8, addend: 0x0, symName: __ZN4core9panicking11panic_const24panic_const_add_overflow17h88d62ca6e8482045E, symObjAddr: 0x17574, symBinAddr: 0x5B8DC, symSize: 0x34 }
  - { offset: 0xACDCD, size: 0x8, addend: 0x0, symName: __ZN4core9panicking11panic_const24panic_const_mul_overflow17h358e803f737c51ddE, symObjAddr: 0x175DC, symBinAddr: 0x5B910, symSize: 0x34 }
  - { offset: 0xACDFC, size: 0x8, addend: 0x0, symName: __ZN4core9panicking11panic_const24panic_const_sub_overflow17h3c928c26ff1cbe00E, symObjAddr: 0x176E0, symBinAddr: 0x5B944, symSize: 0x34 }
  - { offset: 0xACE2C, size: 0x8, addend: 0x0, symName: __ZN4core9panicking13assert_failed17h420d4be177614dd0E, symObjAddr: 0x17950, symBinAddr: 0x5B978, symSize: 0x24 }
  - { offset: 0xACE47, size: 0x8, addend: 0x0, symName: __ZN4core9panicking13assert_failed17h64f44d5d40da8280E, symObjAddr: 0x17974, symBinAddr: 0x5B99C, symSize: 0x24 }
  - { offset: 0xACE62, size: 0x8, addend: 0x0, symName: __ZN4core9panicking13assert_failed17hcd10705fda4a35e5E, symObjAddr: 0x17998, symBinAddr: 0x5B9C0, symSize: 0x24 }
  - { offset: 0xACE7D, size: 0x8, addend: 0x0, symName: __ZN4core9panicking14panic_nounwind17h50f882120c826ceeE, symObjAddr: 0x179BC, symBinAddr: 0x5B9E4, symSize: 0x3C }
  - { offset: 0xACEAC, size: 0x8, addend: 0x0, symName: __ZN4core9panicking16panic_in_cleanup17h8699c7095cf5e6c5E, symObjAddr: 0x17A5C, symBinAddr: 0x5BA20, symSize: 0x18 }
  - { offset: 0xACEC7, size: 0x8, addend: 0x0, symName: __ZN4core9panicking18panic_bounds_check17h8935b4e0a545757eE, symObjAddr: 0x17A74, symBinAddr: 0x5BA38, symSize: 0x50 }
  - { offset: 0xACF0D, size: 0x8, addend: 0x0, symName: __ZN4core9panicking18panic_nounwind_fmt17h3db3f511675e5bd7E, symObjAddr: 0x17AC4, symBinAddr: 0x5BA88, symSize: 0x3C }
  - { offset: 0xACF52, size: 0x8, addend: 0x0, symName: __ZN4core9panicking19assert_failed_inner17h13db5798706a154aE, symObjAddr: 0x17B00, symBinAddr: 0x5BAC4, symSize: 0xE4 }
  - { offset: 0xACF9A, size: 0x8, addend: 0x0, symName: __ZN4core9panicking19panic_cannot_unwind17h396781a6699a759fE, symObjAddr: 0x17BE4, symBinAddr: 0x5BBA8, symSize: 0x18 }
  - { offset: 0xACFB5, size: 0x8, addend: 0x0, symName: __ZN4core9panicking26panic_nounwind_nobacktrace17h779196fb6afb7816E, symObjAddr: 0x17BFC, symBinAddr: 0x5BBC0, symSize: 0x3C }
  - { offset: 0xACFE4, size: 0x8, addend: 0x0, symName: __ZN4core9panicking30panic_null_pointer_dereference17hb12f84c56ffbaba7E, symObjAddr: 0x17C38, symBinAddr: 0x5BBFC, symSize: 0x38 }
  - { offset: 0xAD015, size: 0x8, addend: 0x0, symName: __ZN4core9panicking36panic_misaligned_pointer_dereference17h369f2d4e498e3925E, symObjAddr: 0x17CB4, symBinAddr: 0x5BC34, symSize: 0x4C }
  - { offset: 0xAD047, size: 0x8, addend: 0x0, symName: __ZN4core9panicking5panic17hb13a99a9a5205e75E, symObjAddr: 0x17D00, symBinAddr: 0x5BC80, symSize: 0x34 }
  - { offset: 0xAD076, size: 0x8, addend: 0x0, symName: __ZN4core9panicking9panic_fmt17h96de7a67cc512650E, symObjAddr: 0x17D34, symBinAddr: 0x5BCB4, symSize: 0x20 }
  - { offset: 0xAD0E7, size: 0x8, addend: 0x0, symName: _OUTLINED_FUNCTION_0, symObjAddr: 0x1FB3C, symBinAddr: 0x56D64, symSize: 0x10 }
  - { offset: 0xAD0FF, size: 0x8, addend: 0x0, symName: _OUTLINED_FUNCTION_1, symObjAddr: 0x1FB4C, symBinAddr: 0x56D74, symSize: 0x10 }
...
