---
triple:          'arm64-apple-darwin'
binary-path:     '/Users/johnhjediny/Documents/GitHub/json-schema-x-graphql/converters/rust/target/debug/build/quote-7b5a8d1aaca6cafe/build_script_build-7b5a8d1aaca6cafe'
relocations:
  - { offset: 0x1E, size: 0x8, addend: 0x0, symName: __RINvMNtCs85QQFkKrybG_4core3stre5parsemECs3pn6iYmVvKb_18build_script_build, symObjAddr: 0x0, symBinAddr: 0x100000BF0, symSize: 0x38 }
  - { offset: 0x84, size: 0x8, addend: 0x0, symName: __RNvXNvNtCswz7ZwgBZOU_3std2io17default_write_fmtINtB2_7AdapterNtNtNtNtB6_3sys5stdio4unix6StderrENtNtCs85QQFkKrybG_4core3fmt5Write9write_strCs3pn6iYmVvKb_18build_script_build, symObjAddr: 0x49FC, symBinAddr: 0x100005540, symSize: 0xB4 }
  - { offset: 0x20A, size: 0x8, addend: 0x0, symName: __RNCNvXs1_NtNtNtCswz7ZwgBZOU_3std2io5error14repr_bitpackedNtB7_4ReprNtNtNtCs85QQFkKrybG_4core3ops4drop4Drop4drop0Cs3pn6iYmVvKb_18build_script_build, symObjAddr: 0x1B1C, symBinAddr: 0x100002664, symSize: 0x3C }
  - { offset: 0x2BF, size: 0x8, addend: 0x0, symName: __RNvXs1_NtNtNtCswz7ZwgBZOU_3std2io5error14repr_bitpackedNtB5_4ReprNtNtNtCs85QQFkKrybG_4core3ops4drop4Drop4dropCs3pn6iYmVvKb_18build_script_build, symObjAddr: 0x4C04, symBinAddr: 0x100005748, symSize: 0x38 }
  - { offset: 0x2E8, size: 0x8, addend: 0x0, symName: __RINvNtNtNtCswz7ZwgBZOU_3std2io5error14repr_bitpacked11decode_reprINtNtCsdFlNUEO95cG_5alloc5boxed3BoxNtB4_6CustomENCNvXs1_B2_NtB2_4ReprNtNtNtCs85QQFkKrybG_4core3ops4drop4Drop4drop0ECs3pn6iYmVvKb_18build_script_build, symObjAddr: 0x16C4, symBinAddr: 0x10000220C, symSize: 0x1DC }
  - { offset: 0x555, size: 0x8, addend: 0x0, symName: __RNCNvMs0_NtNtNtCswz7ZwgBZOU_3std2io5error14repr_bitpackedNtB7_4Repr4data0Cs3pn6iYmVvKb_18build_script_build, symObjAddr: 0x1B08, symBinAddr: 0x100002650, symSize: 0x14 }
  - { offset: 0x58D, size: 0x8, addend: 0x0, symName: __RINvNtNtNtCswz7ZwgBZOU_3std2io5error14repr_bitpacked11decode_reprRNtB4_6CustomNCNvMs0_B2_NtB2_4Repr4data0ECs3pn6iYmVvKb_18build_script_build, symObjAddr: 0x18A0, symBinAddr: 0x1000023E8, symSize: 0x1DC }
  - { offset: 0x7E9, size: 0x8, addend: 0x0, symName: __RNvNtNtNtCswz7ZwgBZOU_3std2io5error14repr_bitpacked14kind_from_primCs3pn6iYmVvKb_18build_script_build, symObjAddr: 0x39FC, symBinAddr: 0x100004540, symSize: 0x608 }
  - { offset: 0x12CD, size: 0x8, addend: 0x0, symName: __RINvNtCswz7ZwgBZOU_3std2io17default_write_fmtNtNtNtNtB4_3sys5stdio4unix6StderrECs3pn6iYmVvKb_18build_script_build, symObjAddr: 0x13EC, symBinAddr: 0x100001F34, symSize: 0x120 }
  - { offset: 0x1381, size: 0x8, addend: 0x0, symName: __RNvYNtNtNtNtCswz7ZwgBZOU_3std3sys5stdio4unix6StderrNtNtBa_2io5Write9write_allCs3pn6iYmVvKb_18build_script_build, symObjAddr: 0x6000, symBinAddr: 0x100006B44, symSize: 0x268 }
  - { offset: 0x1529, size: 0x8, addend: 0x0, symName: __RNvYNtNtNtNtCswz7ZwgBZOU_3std3sys5stdio4unix6StderrNtNtBa_2io5Write9write_fmtCs3pn6iYmVvKb_18build_script_build, symObjAddr: 0x6268, symBinAddr: 0x100006DAC, symSize: 0x154 }
  - { offset: 0x189A, size: 0x8, addend: 0x0, symName: __RINvNtNtCswz7ZwgBZOU_3std3sys9backtrace28___rust_begin_short_backtraceFEuuECs3pn6iYmVvKb_18build_script_build, symObjAddr: 0x15D4, symBinAddr: 0x10000211C, symSize: 0x24 }
  - { offset: 0x1957, size: 0x8, addend: 0x0, symName: __RNvNtNtNtCswz7ZwgBZOU_3std3sys2fs4unix23debug_assert_fd_is_openCs3pn6iYmVvKb_18build_script_build, symObjAddr: 0x4004, symBinAddr: 0x100004B48, symSize: 0xCC }
  - { offset: 0x19E8, size: 0x8, addend: 0x0, symName: __RNCINvNtCswz7ZwgBZOU_3std2rt10lang_startuE0Cs3pn6iYmVvKb_18build_script_build, symObjAddr: 0x1AD4, symBinAddr: 0x10000261C, symSize: 0x34 }
  - { offset: 0x1A52, size: 0x8, addend: 0x0, symName: __RINvNtCswz7ZwgBZOU_3std2rt10lang_startuECs3pn6iYmVvKb_18build_script_build, symObjAddr: 0x150C, symBinAddr: 0x100002054, symSize: 0x60 }
  - { offset: 0x1AD6, size: 0x8, addend: 0x0, symName: __RNvXs3_NtNtCswz7ZwgBZOU_3std3ffi6os_strNtB5_8OsStringINtNtNtCs85QQFkKrybG_4core3ops5index5IndexNtNtBU_5range9RangeFullE5indexCs3pn6iYmVvKb_18build_script_build, symObjAddr: 0x4D50, symBinAddr: 0x100005894, symSize: 0x80 }
  - { offset: 0x1C1E, size: 0x8, addend: 0x0, symName: __RNvXsV_NtNtCswz7ZwgBZOU_3std3ffi6os_strNtB5_8OsStringINtNtCs85QQFkKrybG_4core7convert5AsRefNtB5_5OsStrE6as_refCs3pn6iYmVvKb_18build_script_build, symObjAddr: 0x547C, symBinAddr: 0x100005FC0, symSize: 0x2C }
  - { offset: 0x1C70, size: 0x8, addend: 0x0, symName: __RNvXsW_NtNtCswz7ZwgBZOU_3std3ffi6os_streINtNtCs85QQFkKrybG_4core7convert5AsRefNtB5_5OsStrE6as_refCs3pn6iYmVvKb_18build_script_build, symObjAddr: 0x54A8, symBinAddr: 0x100005FEC, symSize: 0x18 }
  - { offset: 0x1D70, size: 0x8, addend: 0x0, symName: __RNvXsZ_NtCswz7ZwgBZOU_3std7processuNtB5_11Termination6reportCs3pn6iYmVvKb_18build_script_build, symObjAddr: 0x54E4, symBinAddr: 0x100006028, symSize: 0x10 }
  - { offset: 0x1DE6, size: 0x8, addend: 0x0, symName: __RNvXs5_NtNtNtCswz7ZwgBZOU_3std2os2fd5ownedNtB5_7OwnedFdNtNtNtCs85QQFkKrybG_4core3ops4drop4Drop4dropCs3pn6iYmVvKb_18build_script_build, symObjAddr: 0x4EB8, symBinAddr: 0x1000059FC, symSize: 0x40 }
  - { offset: 0x1E17, size: 0x8, addend: 0x0, symName: __RINvNtCswz7ZwgBZOU_3std3env6var_osReECs3pn6iYmVvKb_18build_script_build, symObjAddr: 0x156C, symBinAddr: 0x1000020B4, symSize: 0x68 }
  - { offset: 0x2544, size: 0x8, addend: 0x0, symName: __RNvNvMs1_NtNtCs85QQFkKrybG_4core3ptr8non_nullINtB7_7NonNullpE13new_unchecked18precondition_checkCs3pn6iYmVvKb_18build_script_build, symObjAddr: 0x418C, symBinAddr: 0x100004CD0, symSize: 0xA4 }
  - { offset: 0x2BE9, size: 0x8, addend: 0x0, symName: __RINvNtCs85QQFkKrybG_4core3ptr13drop_in_placeINtNtB4_6option6OptionINtNtCsdFlNUEO95cG_5alloc5boxed3BoxSmEEECs3pn6iYmVvKb_18build_script_build, symObjAddr: 0x8B0, symBinAddr: 0x1000013F8, symSize: 0x44 }
  - { offset: 0x2C18, size: 0x8, addend: 0x0, symName: __RINvNtCs85QQFkKrybG_4core3ptr13drop_in_placeINtNtB4_6option6OptionNtNtNtCsdFlNUEO95cG_5alloc3ffi5c_str7CStringEECs3pn6iYmVvKb_18build_script_build, symObjAddr: 0x8F4, symBinAddr: 0x10000143C, symSize: 0x44 }
  - { offset: 0x2C47, size: 0x8, addend: 0x0, symName: __RINvNtCs85QQFkKrybG_4core3ptr13drop_in_placeINtNtB4_6option6OptionNtNtNtCswz7ZwgBZOU_3std3ffi6os_str8OsStringEECs3pn6iYmVvKb_18build_script_build, symObjAddr: 0x938, symBinAddr: 0x100001480, symSize: 0x48 }
  - { offset: 0x2C76, size: 0x8, addend: 0x0, symName: __RINvNtCs85QQFkKrybG_4core3ptr13drop_in_placeINtNtB4_6option6OptionNtNtNtNtNtCswz7ZwgBZOU_3std3sys7process4unix6common5StdioEECs3pn6iYmVvKb_18build_script_build, symObjAddr: 0x980, symBinAddr: 0x1000014C8, symSize: 0x44 }
  - { offset: 0x2CA5, size: 0x8, addend: 0x0, symName: __RINvNtCs85QQFkKrybG_4core3ptr13drop_in_placeINtNtB4_6result6ResultNtNtCswz7ZwgBZOU_3std7process6OutputNtNtNtB16_2io5error5ErrorEECs3pn6iYmVvKb_18build_script_build, symObjAddr: 0x9C4, symBinAddr: 0x10000150C, symSize: 0x5C }
  - { offset: 0x2CD4, size: 0x8, addend: 0x0, symName: __RINvNtCs85QQFkKrybG_4core3ptr13drop_in_placeINtNtB4_6result6ResultuNtNtNtCswz7ZwgBZOU_3std2io5error5ErrorEECs3pn6iYmVvKb_18build_script_build, symObjAddr: 0xA20, symBinAddr: 0x100001568, symSize: 0x44 }
  - { offset: 0x2D03, size: 0x8, addend: 0x0, symName: __RINvNtCs85QQFkKrybG_4core3ptr13drop_in_placeINtNtCsdFlNUEO95cG_5alloc3vec3VecINtNtBL_5boxed3BoxDINtNtNtB4_3ops8function5FnMutuEp6OutputINtNtB4_6result6ResultuNtNtNtCswz7ZwgBZOU_3std2io5error5ErrorENtNtB4_6marker4SyncNtB3b_4SendEL_EEECs3pn6iYmVvKb_18build_script_build, symObjAddr: 0xA64, symBinAddr: 0x1000015AC, symSize: 0x5C }
  - { offset: 0x2D32, size: 0x8, addend: 0x0, symName: __RINvNtCs85QQFkKrybG_4core3ptr13drop_in_placeINtNtCsdFlNUEO95cG_5alloc3vec3VecPaEECs3pn6iYmVvKb_18build_script_build, symObjAddr: 0xAC0, symBinAddr: 0x100001608, symSize: 0x5C }
  - { offset: 0x2D61, size: 0x8, addend: 0x0, symName: __RINvNtCs85QQFkKrybG_4core3ptr13drop_in_placeINtNtCsdFlNUEO95cG_5alloc3vec3VechEECs3pn6iYmVvKb_18build_script_build, symObjAddr: 0xB1C, symBinAddr: 0x100001664, symSize: 0x5C }
  - { offset: 0x2D90, size: 0x8, addend: 0x0, symName: __RINvNtCs85QQFkKrybG_4core3ptr13drop_in_placeINtNtCsdFlNUEO95cG_5alloc5boxed3BoxDINtNtNtB4_3ops8function5FnMutuEp6OutputINtNtB4_6result6ResultuNtNtNtCswz7ZwgBZOU_3std2io5error5ErrorENtNtB4_6marker4SyncNtB2V_4SendEL_EECs3pn6iYmVvKb_18build_script_build, symObjAddr: 0xB78, symBinAddr: 0x1000016C0, symSize: 0x80 }
  - { offset: 0x2DBF, size: 0x8, addend: 0x0, symName: __RINvNtCs85QQFkKrybG_4core3ptr13drop_in_placeINtNtCsdFlNUEO95cG_5alloc5boxed3BoxDNtNtB4_5error5ErrorNtNtB4_6marker4SyncNtB1B_4SendEL_EECs3pn6iYmVvKb_18build_script_build, symObjAddr: 0xBF8, symBinAddr: 0x100001740, symSize: 0x80 }
  - { offset: 0x2DEE, size: 0x8, addend: 0x0, symName: __RINvNtCs85QQFkKrybG_4core3ptr13drop_in_placeINtNtCsdFlNUEO95cG_5alloc5boxed3BoxNtNtNtCswz7ZwgBZOU_3std2io5error6CustomEECs3pn6iYmVvKb_18build_script_build, symObjAddr: 0xC78, symBinAddr: 0x1000017C0, symSize: 0x60 }
  - { offset: 0x2E1D, size: 0x8, addend: 0x0, symName: __RINvNtCs85QQFkKrybG_4core3ptr13drop_in_placeINtNtCsdFlNUEO95cG_5alloc5boxed3BoxShEECs3pn6iYmVvKb_18build_script_build, symObjAddr: 0xCD8, symBinAddr: 0x100001820, symSize: 0x2C }
  - { offset: 0x2E4C, size: 0x8, addend: 0x0, symName: __RINvNtCs85QQFkKrybG_4core3ptr13drop_in_placeINtNtCsdFlNUEO95cG_5alloc5boxed3BoxSmEECs3pn6iYmVvKb_18build_script_build, symObjAddr: 0xD04, symBinAddr: 0x10000184C, symSize: 0x2C }
  - { offset: 0x2E7B, size: 0x8, addend: 0x0, symName: __RINvNtCs85QQFkKrybG_4core3ptr13drop_in_placeINtNtCsdFlNUEO95cG_5alloc7raw_vec6RawVecINtNtBL_5boxed3BoxDINtNtNtB4_3ops8function5FnMutuEp6OutputINtNtB4_6result6ResultuNtNtNtCswz7ZwgBZOU_3std2io5error5ErrorENtNtB4_6marker4SyncNtB3i_4SendEL_EEECs3pn6iYmVvKb_18build_script_build, symObjAddr: 0xD30, symBinAddr: 0x100001878, symSize: 0x24 }
  - { offset: 0x2EAA, size: 0x8, addend: 0x0, symName: __RINvNtCs85QQFkKrybG_4core3ptr13drop_in_placeINtNtCsdFlNUEO95cG_5alloc7raw_vec6RawVecPaEECs3pn6iYmVvKb_18build_script_build, symObjAddr: 0xD54, symBinAddr: 0x10000189C, symSize: 0x24 }
  - { offset: 0x2ED9, size: 0x8, addend: 0x0, symName: __RINvNtCs85QQFkKrybG_4core3ptr13drop_in_placeINtNtCsdFlNUEO95cG_5alloc7raw_vec6RawVechEECs3pn6iYmVvKb_18build_script_build, symObjAddr: 0xD78, symBinAddr: 0x1000018C0, symSize: 0x24 }
  - { offset: 0x2F08, size: 0x8, addend: 0x0, symName: __RINvNtCs85QQFkKrybG_4core3ptr13drop_in_placeINtNtNtCswz7ZwgBZOU_3std2io5error9ErrorDataINtNtCsdFlNUEO95cG_5alloc5boxed3BoxNtBJ_6CustomEEECs3pn6iYmVvKb_18build_script_build, symObjAddr: 0xD9C, symBinAddr: 0x1000018E4, symSize: 0x48 }
  - { offset: 0x2F37, size: 0x8, addend: 0x0, symName: __RINvNtCs85QQFkKrybG_4core3ptr13drop_in_placeINtNtNtNtCsdFlNUEO95cG_5alloc11collections5btree3map8BTreeMapNtNtNtCswz7ZwgBZOU_3std3ffi6os_str8OsStringINtNtB4_6option6OptionB1F_EEECs3pn6iYmVvKb_18build_script_build, symObjAddr: 0xDE4, symBinAddr: 0x10000192C, symSize: 0x24 }
  - { offset: 0x2F66, size: 0x8, addend: 0x0, symName: __RINvNtCs85QQFkKrybG_4core3ptr13drop_in_placeINtNtNtNtCsdFlNUEO95cG_5alloc11collections5btree3map8IntoIterNtNtNtCswz7ZwgBZOU_3std3ffi6os_str8OsStringINtNtB4_6option6OptionB1F_EEECs3pn6iYmVvKb_18build_script_build, symObjAddr: 0xE08, symBinAddr: 0x100001950, symSize: 0x24 }
  - { offset: 0x2F95, size: 0x8, addend: 0x0, symName: __RINvNtCs85QQFkKrybG_4core3ptr13drop_in_placeINtNvMsT_NtNtNtCsdFlNUEO95cG_5alloc11collections5btree4nodeINtBP_6HandleINtBP_7NodeRefNtNtBP_6marker5DyingpppENtB26_2KVE12drop_key_val7DropperINtNtB4_6option6OptionNtNtNtCswz7ZwgBZOU_3std3ffi6os_str8OsStringEEECs3pn6iYmVvKb_18build_script_build, symObjAddr: 0xE2C, symBinAddr: 0x100001974, symSize: 0x24 }
  - { offset: 0x2FC4, size: 0x8, addend: 0x0, symName: __RINvNtCs85QQFkKrybG_4core3ptr13drop_in_placeINtNvNtCswz7ZwgBZOU_3std2io17default_write_fmt7AdapterNtNtNtNtBN_3sys5stdio4unix6StderrEECs3pn6iYmVvKb_18build_script_build, symObjAddr: 0xE50, symBinAddr: 0x100001998, symSize: 0x24 }
  - { offset: 0x2FF3, size: 0x8, addend: 0x0, symName: __RINvNtCs85QQFkKrybG_4core3ptr13drop_in_placeINtNvXsw_NtNtNtCsdFlNUEO95cG_5alloc11collections5btree3mapINtBP_8IntoIterpppENtNtNtB4_3ops4drop4Drop4drop9DropGuardNtNtNtCswz7ZwgBZOU_3std3ffi6os_str8OsStringINtNtB4_6option6OptionB2x_ENtNtBV_5alloc6GlobalEECs3pn6iYmVvKb_18build_script_build, symObjAddr: 0xE74, symBinAddr: 0x1000019BC, symSize: 0x24 }
  - { offset: 0x3022, size: 0x8, addend: 0x0, symName: __RINvNtCs85QQFkKrybG_4core3ptr13drop_in_placeNtNtCswz7ZwgBZOU_3std7process6OutputECs3pn6iYmVvKb_18build_script_build, symObjAddr: 0xE98, symBinAddr: 0x1000019E0, symSize: 0x60 }
  - { offset: 0x3051, size: 0x8, addend: 0x0, symName: __RINvNtCs85QQFkKrybG_4core3ptr13drop_in_placeNtNtCswz7ZwgBZOU_3std7process7CommandECs3pn6iYmVvKb_18build_script_build, symObjAddr: 0xEF8, symBinAddr: 0x100001A40, symSize: 0x24 }
  - { offset: 0x3080, size: 0x8, addend: 0x0, symName: __RINvNtCs85QQFkKrybG_4core3ptr13drop_in_placeNtNtNtCsdFlNUEO95cG_5alloc3ffi5c_str7CStringECs3pn6iYmVvKb_18build_script_build, symObjAddr: 0xF1C, symBinAddr: 0x100001A64, symSize: 0x5C }
  - { offset: 0x30AF, size: 0x8, addend: 0x0, symName: __RINvNtCs85QQFkKrybG_4core3ptr13drop_in_placeNtNtNtCswz7ZwgBZOU_3std2io5error5ErrorECs3pn6iYmVvKb_18build_script_build, symObjAddr: 0xF78, symBinAddr: 0x100001AC0, symSize: 0x24 }
  - { offset: 0x30DE, size: 0x8, addend: 0x0, symName: __RINvNtCs85QQFkKrybG_4core3ptr13drop_in_placeNtNtNtCswz7ZwgBZOU_3std2io5error6CustomECs3pn6iYmVvKb_18build_script_build, symObjAddr: 0xF9C, symBinAddr: 0x100001AE4, symSize: 0x24 }
  - { offset: 0x310D, size: 0x8, addend: 0x0, symName: __RINvNtCs85QQFkKrybG_4core3ptr13drop_in_placeNtNtNtCswz7ZwgBZOU_3std3ffi6os_str8OsStringECs3pn6iYmVvKb_18build_script_build, symObjAddr: 0xFC0, symBinAddr: 0x100001B08, symSize: 0x24 }
  - { offset: 0x313C, size: 0x8, addend: 0x0, symName: __RINvNtCs85QQFkKrybG_4core3ptr13drop_in_placeNtNtNtNtCswz7ZwgBZOU_3std2io5error14repr_bitpacked4ReprECs3pn6iYmVvKb_18build_script_build, symObjAddr: 0xFE4, symBinAddr: 0x100001B2C, symSize: 0x24 }
  - { offset: 0x316B, size: 0x8, addend: 0x0, symName: __RINvNtCs85QQFkKrybG_4core3ptr13drop_in_placeNtNtNtNtCswz7ZwgBZOU_3std2os2fd5owned7OwnedFdECs3pn6iYmVvKb_18build_script_build, symObjAddr: 0x1008, symBinAddr: 0x100001B50, symSize: 0x24 }
  - { offset: 0x319A, size: 0x8, addend: 0x0, symName: __RINvNtCs85QQFkKrybG_4core3ptr13drop_in_placeNtNtNtNtCswz7ZwgBZOU_3std3sys2fd4unix8FileDescECs3pn6iYmVvKb_18build_script_build, symObjAddr: 0x102C, symBinAddr: 0x100001B74, symSize: 0x24 }
  - { offset: 0x31C9, size: 0x8, addend: 0x0, symName: __RINvNtCs85QQFkKrybG_4core3ptr13drop_in_placeNtNtNtNtCswz7ZwgBZOU_3std3sys6os_str5bytes3BufECs3pn6iYmVvKb_18build_script_build, symObjAddr: 0x1050, symBinAddr: 0x100001B98, symSize: 0x24 }
  - { offset: 0x31F8, size: 0x8, addend: 0x0, symName: __RINvNtCs85QQFkKrybG_4core3ptr13drop_in_placeNtNtNtNtCswz7ZwgBZOU_3std3sys7process3env10CommandEnvECs3pn6iYmVvKb_18build_script_build, symObjAddr: 0x1074, symBinAddr: 0x100001BBC, symSize: 0x24 }
  - { offset: 0x3227, size: 0x8, addend: 0x0, symName: __RINvNtCs85QQFkKrybG_4core3ptr13drop_in_placeNtNtNtNtNtCswz7ZwgBZOU_3std3sys7process4unix6common5StdioECs3pn6iYmVvKb_18build_script_build, symObjAddr: 0x1098, symBinAddr: 0x100001BE0, symSize: 0x44 }
  - { offset: 0x3256, size: 0x8, addend: 0x0, symName: __RINvNtCs85QQFkKrybG_4core3ptr13drop_in_placeNtNtNtNtNtCswz7ZwgBZOU_3std3sys7process4unix6common7CommandECs3pn6iYmVvKb_18build_script_build, symObjAddr: 0x10DC, symBinAddr: 0x100001C24, symSize: 0x1DC }
  - { offset: 0x3285, size: 0x8, addend: 0x0, symName: __RINvNtCs85QQFkKrybG_4core3ptr13drop_in_placeNtNtNtNtNtNtCswz7ZwgBZOU_3std3sys7process4unix6common13cstring_array12CStringArrayECs3pn6iYmVvKb_18build_script_build, symObjAddr: 0x12B8, symBinAddr: 0x100001E00, symSize: 0x5C }
  - { offset: 0x32B4, size: 0x8, addend: 0x0, symName: __RINvNtCs85QQFkKrybG_4core3ptr13drop_in_placeNtNvNtNtNtCsdFlNUEO95cG_5alloc11collections5btree3mem7replace10PanicGuardECs3pn6iYmVvKb_18build_script_build, symObjAddr: 0x1314, symBinAddr: 0x100001E5C, symSize: 0x24 }
  - { offset: 0x32E3, size: 0x8, addend: 0x0, symName: __RINvNtCs85QQFkKrybG_4core3ptr13drop_in_placeSINtNtCsdFlNUEO95cG_5alloc5boxed3BoxDINtNtNtB4_3ops8function5FnMutuEp6OutputINtNtB4_6result6ResultuNtNtNtCswz7ZwgBZOU_3std2io5error5ErrorENtNtB4_6marker4SyncNtB2W_4SendEL_EECs3pn6iYmVvKb_18build_script_build, symObjAddr: 0x1338, symBinAddr: 0x100001E80, symSize: 0xB4 }
  - { offset: 0x3A12, size: 0x8, addend: 0x0, symName: __RNvXs5_NtNtCs85QQFkKrybG_4core3num5errorNtB5_15TryFromIntErrorNtNtB9_3fmt5Debug3fmtCs3pn6iYmVvKb_18build_script_build, symObjAddr: 0x4DD0, symBinAddr: 0x100005914, symSize: 0x54 }
  - { offset: 0x3BEE, size: 0x8, addend: 0x0, symName: __RNvMsA_NtCs85QQFkKrybG_4core3numm16from_ascii_radixCs3pn6iYmVvKb_18build_script_build, symObjAddr: 0x2464, symBinAddr: 0x100002FAC, symSize: 0x59C }
  - { offset: 0x3F1D, size: 0x8, addend: 0x0, symName: __RNvXsz_NtCs85QQFkKrybG_4core3nummNtNtNtB7_3str6traits7FromStr8from_strCs3pn6iYmVvKb_18build_script_build, symObjAddr: 0x5E90, symBinAddr: 0x1000069D4, symSize: 0x40 }
  - { offset: 0x3F7D, size: 0x8, addend: 0x0, symName: __RINvMNtCs85QQFkKrybG_4core3stre5parsemECs3pn6iYmVvKb_18build_script_build, symObjAddr: 0x0, symBinAddr: 0x100000BF0, symSize: 0x38 }
  - { offset: 0x3FB4, size: 0x8, addend: 0x0, symName: __RINvMNtCs85QQFkKrybG_4core3stre5splitcECs3pn6iYmVvKb_18build_script_build, symObjAddr: 0x38, symBinAddr: 0x100000C28, symSize: 0x98 }
  - { offset: 0x4179, size: 0x8, addend: 0x0, symName: __RNvNvXs5_NtNtCs85QQFkKrybG_4core3str6traitsINtNtNtBb_3ops5range5RangejEINtNtNtBb_5slice5index10SliceIndexeE13get_unchecked18precondition_checkCs3pn6iYmVvKb_18build_script_build, symObjAddr: 0x4888, symBinAddr: 0x1000053CC, symSize: 0xCC }
  - { offset: 0x41F6, size: 0x8, addend: 0x0, symName: __RNvXs_NtNtCs85QQFkKrybG_4core3str6traitseNtNtB8_3cmp9PartialEq2eqCs3pn6iYmVvKb_18build_script_build, symObjAddr: 0x5574, symBinAddr: 0x1000060B8, symSize: 0xAC }
  - { offset: 0x43E3, size: 0x8, addend: 0x0, symName: __RNvXsX_NtNtCs85QQFkKrybG_4core3str4iterINtB5_5SplitcENtNtNtNtB9_4iter6traits8iterator8Iterator4nextCs3pn6iYmVvKb_18build_script_build, symObjAddr: 0x54C0, symBinAddr: 0x100006004, symSize: 0x24 }
  - { offset: 0x44AB, size: 0x8, addend: 0x0, symName: __RNvXs2_NtNtCs85QQFkKrybG_4core3str7patterncNtB5_7Pattern13into_searcherCs3pn6iYmVvKb_18build_script_build, symObjAddr: 0x4C3C, symBinAddr: 0x100005780, symSize: 0x114 }
  - { offset: 0x45C9, size: 0x8, addend: 0x0, symName: __RNvXs_NtNtCs85QQFkKrybG_4core3str7patternNtB4_12CharSearcherNtB4_8Searcher10next_matchCs3pn6iYmVvKb_18build_script_build, symObjAddr: 0x5620, symBinAddr: 0x100006164, symSize: 0x3BC }
  - { offset: 0x4AEC, size: 0x8, addend: 0x0, symName: __RNvXs_NtNtCs85QQFkKrybG_4core3str7patternNtB4_12CharSearcherNtB4_8Searcher8haystackCs3pn6iYmVvKb_18build_script_build, symObjAddr: 0x59DC, symBinAddr: 0x100006520, symSize: 0x20 }
  - { offset: 0x4D6A, size: 0x8, addend: 0x0, symName: __RNvXs_NvNtNtCs85QQFkKrybG_4core3fmt5Write9write_fmtQINtNvNtCswz7ZwgBZOU_3std2io17default_write_fmt7AdapterNtNtNtNtBV_3sys5stdio4unix6StderrENtB4_12SpecWriteFmt14spec_write_fmtCs3pn6iYmVvKb_18build_script_build, symObjAddr: 0x59FC, symBinAddr: 0x100006540, symSize: 0x160 }
  - { offset: 0x4E21, size: 0x8, addend: 0x0, symName: __RNvYINtNvNtCswz7ZwgBZOU_3std2io17default_write_fmt7AdapterNtNtNtNtB9_3sys5stdio4unix6StderrENtNtCs85QQFkKrybG_4core3fmt5Write10write_charCs3pn6iYmVvKb_18build_script_build, symObjAddr: 0x5F20, symBinAddr: 0x100006A64, symSize: 0x70 }
  - { offset: 0x4E89, size: 0x8, addend: 0x0, symName: __RNvYINtNvNtCswz7ZwgBZOU_3std2io17default_write_fmt7AdapterNtNtNtNtB9_3sys5stdio4unix6StderrENtNtCs85QQFkKrybG_4core3fmt5Write9write_fmtCs3pn6iYmVvKb_18build_script_build, symObjAddr: 0x5F90, symBinAddr: 0x100006AD4, symSize: 0x24 }
  - { offset: 0x56C8, size: 0x8, addend: 0x0, symName: __RNvXsC_NtCs85QQFkKrybG_4core6optionINtB5_6OptionNtNtCswz7ZwgBZOU_3std7process6OutputENtNtNtB7_3ops9try_trait3Try6branchCs3pn6iYmVvKb_18build_script_build, symObjAddr: 0x5338, symBinAddr: 0x100005E7C, symSize: 0x78 }
  - { offset: 0x571E, size: 0x8, addend: 0x0, symName: __RNvXsC_NtCs85QQFkKrybG_4core6optionINtB5_6OptionNtNtNtCswz7ZwgBZOU_3std3ffi6os_str8OsStringENtNtNtB7_3ops9try_trait3Try6branchCs3pn6iYmVvKb_18build_script_build, symObjAddr: 0x53B0, symBinAddr: 0x100005EF4, symSize: 0x68 }
  - { offset: 0x5774, size: 0x8, addend: 0x0, symName: __RNvXsC_NtCs85QQFkKrybG_4core6optionINtB5_6OptionReENtNtNtB7_3ops9try_trait3Try6branchCs3pn6iYmVvKb_18build_script_build, symObjAddr: 0x5418, symBinAddr: 0x100005F5C, symSize: 0x54 }
  - { offset: 0x5875, size: 0x8, addend: 0x0, symName: __RNvXsD_NtCs85QQFkKrybG_4core6optionINtB5_6OptionmEINtNtNtB7_3ops9try_trait12FromResidualIBy_NtNtB7_7convert10InfallibleEE13from_residualCs3pn6iYmVvKb_18build_script_build, symObjAddr: 0x546C, symBinAddr: 0x100005FB0, symSize: 0x10 }
  - { offset: 0x5B47, size: 0x8, addend: 0x0, symName: __RNvXsd_NtCs85QQFkKrybG_4core6optionINtB5_6OptionReENtNtB7_3cmp9PartialEq2eqCs3pn6iYmVvKb_18build_script_build, symObjAddr: 0x5B5C, symBinAddr: 0x1000066A0, symSize: 0xAC }
  - { offset: 0x6269, size: 0x8, addend: 0x0, symName: __RNvNvMNtNtCs85QQFkKrybG_4core5alloc6layoutNtB4_6Layout25from_size_align_unchecked18precondition_checkCs3pn6iYmVvKb_18build_script_build, symObjAddr: 0x40D0, symBinAddr: 0x100004C14, symSize: 0xBC }
  - { offset: 0x634B, size: 0x8, addend: 0x0, symName: __RNvNvNtCs85QQFkKrybG_4core4hint21unreachable_unchecked18precondition_checkCs3pn6iYmVvKb_18build_script_build, symObjAddr: 0x4230, symBinAddr: 0x100004D74, symSize: 0x84 }
  - { offset: 0x63B0, size: 0x8, addend: 0x0, symName: __RNSNvYNCINvNtCswz7ZwgBZOU_3std2rt10lang_startuE0INtNtNtCs85QQFkKrybG_4core3ops8function6FnOnceuE9call_once6vtableCs3pn6iYmVvKb_18build_script_build, symObjAddr: 0x1B58, symBinAddr: 0x1000026A0, symSize: 0x28 }
  - { offset: 0x63F4, size: 0x8, addend: 0x0, symName: __RNvYFEuINtNtNtCs85QQFkKrybG_4core3ops8function6FnOnceuE9call_onceCs3pn6iYmVvKb_18build_script_build, symObjAddr: 0x5ED0, symBinAddr: 0x100006A14, symSize: 0x20 }
  - { offset: 0x6434, size: 0x8, addend: 0x0, symName: __RNvYNCINvNtCswz7ZwgBZOU_3std2rt10lang_startuE0INtNtNtCs85QQFkKrybG_4core3ops8function6FnOnceuE9call_onceCs3pn6iYmVvKb_18build_script_build, symObjAddr: 0x5FB4, symBinAddr: 0x100006AF8, symSize: 0x4C }
  - { offset: 0x6770, size: 0x8, addend: 0x0, symName: __RNvMNtNtCs85QQFkKrybG_4core4char7methodsc8to_digitCs3pn6iYmVvKb_18build_script_build, symObjAddr: 0x2318, symBinAddr: 0x100002E60, symSize: 0x14C }
  - { offset: 0x68C4, size: 0x8, addend: 0x0, symName: __RNvNtNtCs85QQFkKrybG_4core4char7methods15encode_utf8_rawCs3pn6iYmVvKb_18build_script_build, symObjAddr: 0x3650, symBinAddr: 0x100004194, symSize: 0x110 }
  - { offset: 0x69C4, size: 0x8, addend: 0x0, symName: __RNvNtNtCs85QQFkKrybG_4core4char7methods25encode_utf8_raw_uncheckedCs3pn6iYmVvKb_18build_script_build, symObjAddr: 0x3760, symBinAddr: 0x1000042A4, symSize: 0x188 }
  - { offset: 0x6C14, size: 0x8, addend: 0x0, symName: __RNvNvXs0_NtNtCs85QQFkKrybG_4core5slice5indexjINtB7_10SliceIndexSpE13get_unchecked18precondition_checkCs3pn6iYmVvKb_18build_script_build, symObjAddr: 0x4664, symBinAddr: 0x1000051A8, symSize: 0xAC }
  - { offset: 0x6C82, size: 0x8, addend: 0x0, symName: __RNvNvXs0_NtNtCs85QQFkKrybG_4core5slice5indexjINtB7_10SliceIndexSpE17get_unchecked_mut18precondition_checkCs3pn6iYmVvKb_18build_script_build, symObjAddr: 0x4710, symBinAddr: 0x100005254, symSize: 0xAC }
  - { offset: 0x6D57, size: 0x8, addend: 0x0, symName: __RNvNvXs2_NtNtCs85QQFkKrybG_4core5slice5indexINtNtNtBb_3ops5range5RangejEINtB7_10SliceIndexSpE13get_unchecked18precondition_checkCs3pn6iYmVvKb_18build_script_build, symObjAddr: 0x47BC, symBinAddr: 0x100005300, symSize: 0xCC }
  - { offset: 0x6ECD, size: 0x8, addend: 0x0, symName: __RNvXs5_NtNtCs85QQFkKrybG_4core5slice5indexINtNtNtB9_3ops5range9RangeFromjEINtB5_10SliceIndexShE5indexCs3pn6iYmVvKb_18build_script_build, symObjAddr: 0x4E24, symBinAddr: 0x100005968, symSize: 0x94 }
  - { offset: 0x72E9, size: 0x8, addend: 0x0, symName: __RNvNvNtNtCs85QQFkKrybG_4core5slice3raw14from_raw_parts18precondition_checkCs3pn6iYmVvKb_18build_script_build, symObjAddr: 0x42B4, symBinAddr: 0x100004DF8, symSize: 0x1D8 }
  - { offset: 0x7487, size: 0x8, addend: 0x0, symName: __RNvNvNtNtCs85QQFkKrybG_4core5slice3raw18from_raw_parts_mut18precondition_checkCs3pn6iYmVvKb_18build_script_build, symObjAddr: 0x448C, symBinAddr: 0x100004FD0, symSize: 0x1D8 }
  - { offset: 0x768B, size: 0x8, addend: 0x0, symName: __RNvNtNtCs85QQFkKrybG_4core5slice6memchr6memchrCs3pn6iYmVvKb_18build_script_build, symObjAddr: 0x38E8, symBinAddr: 0x10000442C, symSize: 0x114 }
  - { offset: 0x781C, size: 0x8, addend: 0x0, symName: __RNvXNtCs85QQFkKrybG_4core7convertReINtB2_5AsRefNtNtNtCswz7ZwgBZOU_3std3ffi6os_str5OsStrE6as_refCs3pn6iYmVvKb_18build_script_build, symObjAddr: 0x4954, symBinAddr: 0x100005498, symSize: 0x30 }
  - { offset: 0x7A91, size: 0x8, addend: 0x0, symName: __RNvXs7_NtNtCs85QQFkKrybG_4core3cmp5implsReNtB7_9PartialEq2eqCs3pn6iYmVvKb_18build_script_build, symObjAddr: 0x52F4, symBinAddr: 0x100005E38, symSize: 0x44 }
  - { offset: 0x7B5F, size: 0x8, addend: 0x0, symName: __RNvYINtNtCs85QQFkKrybG_4core6option6OptionReENtNtB7_3cmp9PartialEq2neCs3pn6iYmVvKb_18build_script_build, symObjAddr: 0x5EF0, symBinAddr: 0x100006A34, symSize: 0x30 }
  - { offset: 0x7DC9, size: 0x8, addend: 0x0, symName: __RINvMs_NtNtCs85QQFkKrybG_4core3fmt2rtNtB7_9Arguments9new_constKj1_ECs3pn6iYmVvKb_18build_script_build, symObjAddr: 0xD0, symBinAddr: 0x100000CC0, symSize: 0x48 }
  - { offset: 0x7FBE, size: 0x8, addend: 0x0, symName: __RNCINvMsm_NtNtNtCsdFlNUEO95cG_5alloc11collections5btree8navigateINtNtBa_4node6HandleINtB13_7NodeRefNtNtB13_6marker5DyingNtNtNtCswz7ZwgBZOU_3std3ffi6os_str8OsStringINtNtCs85QQFkKrybG_4core6option6OptionB1U_ENtB1B_4LeafENtB1B_4EdgeE27deallocating_next_uncheckedNtNtBe_5alloc6GlobalE0Cs3pn6iYmVvKb_18build_script_build, symObjAddr: 0x1A7C, symBinAddr: 0x1000025C4, symSize: 0x58 }
  - { offset: 0x8B8D, size: 0x8, addend: 0x0, symName: __RNvXNvMsT_NtNtNtCsdFlNUEO95cG_5alloc11collections5btree4nodeINtB8_6HandleINtB8_7NodeRefNtNtB8_6marker5DyingpppENtB1p_2KVE12drop_key_valINtB2_7DropperINtNtCs85QQFkKrybG_4core6option6OptionNtNtNtCswz7ZwgBZOU_3std3ffi6os_str8OsStringEENtNtNtB2s_3ops4drop4Drop4dropCs3pn6iYmVvKb_18build_script_build, symObjAddr: 0x49D0, symBinAddr: 0x100005514, symSize: 0x2C }
  - { offset: 0x8CD7, size: 0x8, addend: 0x0, symName: __RNvXNtNtNtCsdFlNUEO95cG_5alloc11collections5btree3mapINtB2_8BTreeMapNtNtNtCswz7ZwgBZOU_3std3ffi6os_str8OsStringINtNtCs85QQFkKrybG_4core6option6OptionB14_EENtNtNtB1Q_3ops4drop4Drop4dropCs3pn6iYmVvKb_18build_script_build, symObjAddr: 0x4984, symBinAddr: 0x1000054C8, symSize: 0x4C }
  - { offset: 0x8D64, size: 0x8, addend: 0x0, symName: __RNvXNvXsw_NtNtNtCsdFlNUEO95cG_5alloc11collections5btree3mapINtB8_8IntoIterpppENtNtNtCs85QQFkKrybG_4core3ops4drop4Drop4dropINtB2_9DropGuardNtNtNtCswz7ZwgBZOU_3std3ffi6os_str8OsStringINtNtB1k_6option6OptionB2c_ENtNtBe_5alloc6GlobalEB1e_4dropCs3pn6iYmVvKb_18build_script_build, symObjAddr: 0x4ABC, symBinAddr: 0x100005600, symSize: 0x64 }
  - { offset: 0x8DF9, size: 0x8, addend: 0x0, symName: __RNvXsw_NtNtNtCsdFlNUEO95cG_5alloc11collections5btree3mapINtB5_8IntoIterNtNtNtCswz7ZwgBZOU_3std3ffi6os_str8OsStringINtNtCs85QQFkKrybG_4core6option6OptionB17_EENtNtNtB1T_3ops4drop4Drop4dropCs3pn6iYmVvKb_18build_script_build, symObjAddr: 0x5DF4, symBinAddr: 0x100006938, symSize: 0x9C }
  - { offset: 0x8E70, size: 0x8, addend: 0x0, symName: __RNvXsv_NtNtNtCsdFlNUEO95cG_5alloc11collections5btree3mapINtB5_8BTreeMapNtNtNtCswz7ZwgBZOU_3std3ffi6os_str8OsStringINtNtCs85QQFkKrybG_4core6option6OptionB17_EENtNtNtNtB1T_4iter6traits7collect12IntoIterator9into_iterCs3pn6iYmVvKb_18build_script_build, symObjAddr: 0x5C64, symBinAddr: 0x1000067A8, symSize: 0x190 }
  - { offset: 0x8FEF, size: 0x8, addend: 0x0, symName: __RINvNtNtNtCsdFlNUEO95cG_5alloc11collections5btree3mem7replaceINtNtB4_4node6HandleINtB10_7NodeRefNtNtB10_6marker5DyingNtNtNtCswz7ZwgBZOU_3std3ffi6os_str8OsStringINtNtCs85QQFkKrybG_4core6option6OptionB1R_ENtB1y_4LeafENtB1y_4EdgeEIBY_IB1i_B1w_B1R_B2y_NtB1y_14LeafOrInternalENtB1y_2KVENCINvMsm_NtB4_8navigateBX_27deallocating_next_uncheckedNtNtB8_5alloc6GlobalE0ECs3pn6iYmVvKb_18build_script_build, symObjAddr: 0x15F8, symBinAddr: 0x100002140, symSize: 0xCC }
  - { offset: 0x90E9, size: 0x8, addend: 0x0, symName: __RNvXNvNtNtNtCsdFlNUEO95cG_5alloc11collections5btree3mem7replaceNtB2_10PanicGuardNtNtNtCs85QQFkKrybG_4core3ops4drop4Drop4dropCs3pn6iYmVvKb_18build_script_build, symObjAddr: 0x4AB0, symBinAddr: 0x1000055F4, symSize: 0xC }
  - { offset: 0x9261, size: 0x8, addend: 0x0, symName: __RNvXs6_NtCsdFlNUEO95cG_5alloc3vecINtB5_3VechENtNtNtCs85QQFkKrybG_4core3ops5deref5Deref5derefCs3pn6iYmVvKb_18build_script_build, symObjAddr: 0x4EF8, symBinAddr: 0x100005A3C, symSize: 0x24 }
  - { offset: 0x92A7, size: 0x8, addend: 0x0, symName: __RNvXsn_NtCsdFlNUEO95cG_5alloc3vecINtB5_3VecINtNtB7_5boxed3BoxDINtNtNtCs85QQFkKrybG_4core3ops8function5FnMutuEp6OutputINtNtB15_6result6ResultuNtNtNtCswz7ZwgBZOU_3std2io5error5ErrorENtNtB15_6marker4SyncNtB2U_4SendEL_EENtNtB13_4drop4Drop4dropCs3pn6iYmVvKb_18build_script_build, symObjAddr: 0x5C08, symBinAddr: 0x10000674C, symSize: 0x38 }
  - { offset: 0x9357, size: 0x8, addend: 0x0, symName: __RNvXsn_NtCsdFlNUEO95cG_5alloc3vecINtB5_3VecPaENtNtNtCs85QQFkKrybG_4core3ops4drop4Drop4dropCs3pn6iYmVvKb_18build_script_build, symObjAddr: 0x5C40, symBinAddr: 0x100006784, symSize: 0x24 }
  - { offset: 0x941B, size: 0x8, addend: 0x0, symName: __RNvXs1_NtCsdFlNUEO95cG_5alloc5allocNtB5_6GlobalNtNtCs85QQFkKrybG_4core5clone5Clone5cloneCs3pn6iYmVvKb_18build_script_build, symObjAddr: 0x4B90, symBinAddr: 0x1000056D4, symSize: 0x10 }
  - { offset: 0x946C, size: 0x8, addend: 0x0, symName: __RNvXs_NtCsdFlNUEO95cG_5alloc5allocNtB4_6GlobalNtNtCs85QQFkKrybG_4core5alloc9Allocator10deallocateCs3pn6iYmVvKb_18build_script_build, symObjAddr: 0x54F4, symBinAddr: 0x100006038, symSize: 0x80 }
  - { offset: 0x9776, size: 0x8, addend: 0x0, symName: __RNvXs1_NtCsdFlNUEO95cG_5alloc7raw_vecINtB5_6RawVecINtNtB7_5boxed3BoxDINtNtNtCs85QQFkKrybG_4core3ops8function5FnMutuEp6OutputINtNtB1c_6result6ResultuNtNtNtCswz7ZwgBZOU_3std2io5error5ErrorENtNtB1c_6marker4SyncNtB31_4SendEL_EENtNtB1a_4drop4Drop4dropCs3pn6iYmVvKb_18build_script_build, symObjAddr: 0x4BA0, symBinAddr: 0x1000056E4, symSize: 0x34 }
  - { offset: 0x97B2, size: 0x8, addend: 0x0, symName: __RNvXs1_NtCsdFlNUEO95cG_5alloc7raw_vecINtB5_6RawVecPaENtNtNtCs85QQFkKrybG_4core3ops4drop4Drop4dropCs3pn6iYmVvKb_18build_script_build, symObjAddr: 0x4BD4, symBinAddr: 0x100005718, symSize: 0x30 }
  - { offset: 0x9814, size: 0x8, addend: 0x0, symName: __RNvXs0_NtNtCsdFlNUEO95cG_5alloc3ffi5c_strNtB5_7CStringNtNtNtCs85QQFkKrybG_4core3ops4drop4Drop4dropCs3pn6iYmVvKb_18build_script_build, symObjAddr: 0x4B20, symBinAddr: 0x100005664, symSize: 0x70 }
  - { offset: 0x98F7, size: 0x8, addend: 0x0, symName: __RNvXs6_NtCsdFlNUEO95cG_5alloc5boxedINtB5_3BoxDINtNtNtCs85QQFkKrybG_4core3ops8function5FnMutuEp6OutputINtNtBP_6result6ResultuNtNtNtCswz7ZwgBZOU_3std2io5error5ErrorENtNtBP_6marker4SyncNtB2D_4SendEL_ENtNtBN_4drop4Drop4dropCs3pn6iYmVvKb_18build_script_build, symObjAddr: 0x4F1C, symBinAddr: 0x100005A60, symSize: 0xCC }
  - { offset: 0x9A32, size: 0x8, addend: 0x0, symName: __RNvXs6_NtCsdFlNUEO95cG_5alloc5boxedINtB5_3BoxDNtNtCs85QQFkKrybG_4core5error5ErrorNtNtBM_6marker4SyncNtB1j_4SendEL_ENtNtNtBM_3ops4drop4Drop4dropCs3pn6iYmVvKb_18build_script_build, symObjAddr: 0x4FE8, symBinAddr: 0x100005B2C, symSize: 0xCC }
  - { offset: 0x9B6D, size: 0x8, addend: 0x0, symName: __RNvXs6_NtCsdFlNUEO95cG_5alloc5boxedINtB5_3BoxNtNtNtCswz7ZwgBZOU_3std2io5error6CustomENtNtNtCs85QQFkKrybG_4core3ops4drop4Drop4dropCs3pn6iYmVvKb_18build_script_build, symObjAddr: 0x50B4, symBinAddr: 0x100005BF8, symSize: 0xB8 }
  - { offset: 0x9CA8, size: 0x8, addend: 0x0, symName: __RNvXs6_NtCsdFlNUEO95cG_5alloc5boxedINtB5_3BoxShENtNtNtCs85QQFkKrybG_4core3ops4drop4Drop4dropCs3pn6iYmVvKb_18build_script_build, symObjAddr: 0x516C, symBinAddr: 0x100005CB0, symSize: 0xC4 }
  - { offset: 0x9DE3, size: 0x8, addend: 0x0, symName: __RNvXs6_NtCsdFlNUEO95cG_5alloc5boxedINtB5_3BoxSmENtNtNtCs85QQFkKrybG_4core3ops4drop4Drop4dropCs3pn6iYmVvKb_18build_script_build, symObjAddr: 0x5230, symBinAddr: 0x100005D74, symSize: 0xC4 }
  - { offset: 0x9FB8, size: 0x8, addend: 0x0, symName: __RINvMsb_NtNtNtCsdFlNUEO95cG_5alloc11collections5btree8navigateINtB6_13LazyLeafRangeNtNtNtB8_4node6marker5DyingNtNtNtCswz7ZwgBZOU_3std3ffi6os_str8OsStringINtNtCs85QQFkKrybG_4core6option6OptionB1K_EE16deallocating_endNtNtBc_5alloc6GlobalECs3pn6iYmVvKb_18build_script_build, symObjAddr: 0x118, symBinAddr: 0x100000D08, symSize: 0x98 }
  - { offset: 0xA0B5, size: 0x8, addend: 0x0, symName: __RINvMsb_NtNtNtCsdFlNUEO95cG_5alloc11collections5btree8navigateINtB6_13LazyLeafRangeNtNtNtB8_4node6marker5DyingNtNtNtCswz7ZwgBZOU_3std3ffi6os_str8OsStringINtNtCs85QQFkKrybG_4core6option6OptionB1K_EE27deallocating_next_uncheckedNtNtBc_5alloc6GlobalECs3pn6iYmVvKb_18build_script_build, symObjAddr: 0x1B0, symBinAddr: 0x100000DA0, symSize: 0xA8 }
  - { offset: 0xA238, size: 0x8, addend: 0x0, symName: __RINvMsh_NtNtNtCsdFlNUEO95cG_5alloc11collections5btree4nodeINtB6_7NodeRefNtNtB6_6marker5DyingNtNtNtCswz7ZwgBZOU_3std3ffi6os_str8OsStringINtNtCs85QQFkKrybG_4core6option6OptionB1s_ENtB1a_14LeafOrInternalE21deallocate_and_ascendNtNtBc_5alloc6GlobalECs3pn6iYmVvKb_18build_script_build, symObjAddr: 0x258, symBinAddr: 0x100000E48, symSize: 0x188 }
  - { offset: 0xA46C, size: 0x8, addend: 0x0, symName: __RINvMsj_NtNtNtCsdFlNUEO95cG_5alloc11collections5btree8navigateINtNtB8_4node6HandleINtB11_7NodeRefNtNtB11_6marker5DyingNtNtNtCswz7ZwgBZOU_3std3ffi6os_str8OsStringINtNtCs85QQFkKrybG_4core6option6OptionB1S_ENtB1z_4LeafENtB1z_4EdgeE16deallocating_endNtNtBc_5alloc6GlobalECs3pn6iYmVvKb_18build_script_build, symObjAddr: 0x3E0, symBinAddr: 0x100000FD0, symSize: 0xD4 }
  - { offset: 0xA6ED, size: 0x8, addend: 0x0, symName: __RINvMsj_NtNtNtCsdFlNUEO95cG_5alloc11collections5btree8navigateINtNtB8_4node6HandleINtB11_7NodeRefNtNtB11_6marker5DyingNtNtNtCswz7ZwgBZOU_3std3ffi6os_str8OsStringINtNtCs85QQFkKrybG_4core6option6OptionB1S_ENtB1z_4LeafENtB1z_4EdgeE17deallocating_nextNtNtBc_5alloc6GlobalECs3pn6iYmVvKb_18build_script_build, symObjAddr: 0x4B4, symBinAddr: 0x1000010A4, symSize: 0x254 }
  - { offset: 0xA9D2, size: 0x8, addend: 0x0, symName: __RINvMsk_NtCswz7ZwgBZOU_3std7processNtB6_7Command3argReECs3pn6iYmVvKb_18build_script_build, symObjAddr: 0x708, symBinAddr: 0x1000012F8, symSize: 0x70 }
  - { offset: 0xAA0D, size: 0x8, addend: 0x0, symName: __RINvMsk_NtCswz7ZwgBZOU_3std7processNtB6_7Command3newNtNtNtB8_3ffi6os_str8OsStringECs3pn6iYmVvKb_18build_script_build, symObjAddr: 0x778, symBinAddr: 0x100001368, symSize: 0x90 }
  - { offset: 0xACA3, size: 0x8, addend: 0x0, symName: __RNvCs3pn6iYmVvKb_18build_script_build19rustc_minor_version, symObjAddr: 0x1B80, symBinAddr: 0x1000026C8, symSize: 0x498 }
  - { offset: 0xADB4, size: 0x8, addend: 0x0, symName: __RNvCs3pn6iYmVvKb_18build_script_build4main, symObjAddr: 0x2018, symBinAddr: 0x100002B60, symSize: 0x118 }
  - { offset: 0xADE4, size: 0x8, addend: 0x0, symName: __RNvMNtCs85QQFkKrybG_4core6resultINtB2_6ResultNtNtCswz7ZwgBZOU_3std7process6OutputNtNtNtBL_2io5error5ErrorE2okCs3pn6iYmVvKb_18build_script_build, symObjAddr: 0x2130, symBinAddr: 0x100002C78, symSize: 0xA8 }
  - { offset: 0xAE38, size: 0x8, addend: 0x0, symName: __RNvMNtCs85QQFkKrybG_4core6resultINtB2_6ResultReNtNtNtB4_3str5error9Utf8ErrorE2okCs3pn6iYmVvKb_18build_script_build, symObjAddr: 0x21D8, symBinAddr: 0x100002D20, symSize: 0x60 }
  - { offset: 0xAE8C, size: 0x8, addend: 0x0, symName: __RNvMNtCs85QQFkKrybG_4core6resultINtB2_6ResulthNtNtNtB4_3num5error15TryFromIntErrorE6expectCs3pn6iYmVvKb_18build_script_build, symObjAddr: 0x2238, symBinAddr: 0x100002D80, symSize: 0x84 }
  - { offset: 0xAEEE, size: 0x8, addend: 0x0, symName: __RNvMNtCs85QQFkKrybG_4core6resultINtB2_6ResultmNtNtNtB4_3num5error13ParseIntErrorE2okCs3pn6iYmVvKb_18build_script_build, symObjAddr: 0x22BC, symBinAddr: 0x100002E04, symSize: 0x5C }
  - { offset: 0xB05E, size: 0x8, addend: 0x0, symName: __RNvMsO_NtNtNtCsdFlNUEO95cG_5alloc11collections5btree4nodeINtB5_6HandleINtB5_7NodeRefNtNtB5_6marker5DyingNtNtNtCswz7ZwgBZOU_3std3ffi6os_str8OsStringINtNtCs85QQFkKrybG_4core6option6OptionB1E_ENtB1m_8InternalENtB1m_4EdgeE7descendCs3pn6iYmVvKb_18build_script_build, symObjAddr: 0x2A00, symBinAddr: 0x100003548, symSize: 0x9C }
  - { offset: 0xB33D, size: 0x8, addend: 0x0, symName: __RNvMsT_NtNtNtCsdFlNUEO95cG_5alloc11collections5btree4nodeINtB5_6HandleINtB5_7NodeRefNtNtB5_6marker5DyingNtNtNtCswz7ZwgBZOU_3std3ffi6os_str8OsStringINtNtCs85QQFkKrybG_4core6option6OptionB1E_ENtB1m_14LeafOrInternalENtB1m_2KVE12drop_key_valCs3pn6iYmVvKb_18build_script_build, symObjAddr: 0x2A9C, symBinAddr: 0x1000035E4, symSize: 0x138 }
  - { offset: 0xB5A7, size: 0x8, addend: 0x0, symName: __RNvMs_NtCsdFlNUEO95cG_5alloc3vecINtB4_3VechE8as_sliceCs3pn6iYmVvKb_18build_script_build, symObjAddr: 0x2BD4, symBinAddr: 0x10000371C, symSize: 0x68 }
  - { offset: 0xB7D9, size: 0x8, addend: 0x0, symName: __RNvMsb_NtNtNtCsdFlNUEO95cG_5alloc11collections5btree8navigateINtB5_13LazyLeafRangeNtNtNtB7_4node6marker5DyingNtNtNtCswz7ZwgBZOU_3std3ffi6os_str8OsStringINtNtCs85QQFkKrybG_4core6option6OptionB1J_EE10take_frontCs3pn6iYmVvKb_18build_script_build, symObjAddr: 0x2C3C, symBinAddr: 0x100003784, symSize: 0x1C4 }
  - { offset: 0xBB3C, size: 0x8, addend: 0x0, symName: __RNvMsc_NtNtNtCsdFlNUEO95cG_5alloc11collections5btree8navigateINtB5_13LazyLeafRangeNtNtNtB7_4node6marker5DyingNtNtNtCswz7ZwgBZOU_3std3ffi6os_str8OsStringINtNtCs85QQFkKrybG_4core6option6OptionB1J_EE10init_frontCs3pn6iYmVvKb_18build_script_build, symObjAddr: 0x2E00, symBinAddr: 0x100003948, symSize: 0x1C8 }
  - { offset: 0xBDF1, size: 0x8, addend: 0x0, symName: __RNvMse_NtNtNtCsdFlNUEO95cG_5alloc11collections5btree4nodeINtB5_7NodeRefNtNtB5_6marker5DyingNtNtNtCswz7ZwgBZOU_3std3ffi6os_str8OsStringINtNtCs85QQFkKrybG_4core6option6OptionB1r_ENtB19_14LeafOrInternalE6ascendCs3pn6iYmVvKb_18build_script_build, symObjAddr: 0x2FC8, symBinAddr: 0x100003B10, symSize: 0x17C }
  - { offset: 0xBFD6, size: 0x8, addend: 0x0, symName: __RNvMsf_NtNtCs85QQFkKrybG_4core3str4iterINtB5_13SplitInternalcE4nextCs3pn6iYmVvKb_18build_script_build, symObjAddr: 0x3144, symBinAddr: 0x100003C8C, symSize: 0x140 }
  - { offset: 0xC11A, size: 0x8, addend: 0x0, symName: __RNvMsf_NtNtCs85QQFkKrybG_4core3str4iterINtB5_13SplitInternalcE7get_endCs3pn6iYmVvKb_18build_script_build, symObjAddr: 0x3284, symBinAddr: 0x100003DCC, symSize: 0x128 }
  - { offset: 0xC434, size: 0x8, addend: 0x0, symName: __RNvMsp_NtNtNtCsdFlNUEO95cG_5alloc11collections5btree8navigateINtNtB7_4node6HandleINtB10_7NodeRefNtNtB10_6marker5DyingNtNtNtCswz7ZwgBZOU_3std3ffi6os_str8OsStringINtNtCs85QQFkKrybG_4core6option6OptionB1R_ENtB1y_14LeafOrInternalENtB1y_2KVE14next_leaf_edgeCs3pn6iYmVvKb_18build_script_build, symObjAddr: 0x33AC, symBinAddr: 0x100003EF4, symSize: 0x210 }
  - { offset: 0xC6B1, size: 0x8, addend: 0x0, symName: __RNvMsx_NtNtNtCsdFlNUEO95cG_5alloc11collections5btree3mapINtB5_8IntoIterNtNtNtCswz7ZwgBZOU_3std3ffi6os_str8OsStringINtNtCs85QQFkKrybG_4core6option6OptionB17_EE10dying_nextCs3pn6iYmVvKb_18build_script_build, symObjAddr: 0x35BC, symBinAddr: 0x100004104, symSize: 0x90 }
  - { offset: 0xD406, size: 0x8, addend: 0x0, symName: ___llvm_profile_get_magic, symObjAddr: 0x28, symBinAddr: 0x100006F4C, symSize: 0x14 }
  - { offset: 0xD427, size: 0x8, addend: 0x0, symName: ___llvm_profile_get_num_padding_bytes, symObjAddr: 0x44, symBinAddr: 0x100006F60, symSize: 0xC }
  - { offset: 0xD42F, size: 0x8, addend: 0x0, symName: ___llvm_profile_get_version, symObjAddr: 0x50, symBinAddr: 0x100006F6C, symSize: 0xC }
  - { offset: 0xD458, size: 0x8, addend: 0x0, symName: ___llvm_profile_get_version, symObjAddr: 0x50, symBinAddr: 0x100006F6C, symSize: 0xC }
  - { offset: 0xD4CD, size: 0x8, addend: 0x0, symName: ___llvm_profile_is_continuous_mode_enabled, symObjAddr: 0x0, symBinAddr: 0x100006F78, symSize: 0x20 }
  - { offset: 0xD4EA, size: 0x8, addend: 0x0, symName: __MergedGlobals, symObjAddr: 0x3F10, symBinAddr: 0x100061010, symSize: 0x0 }
  - { offset: 0xD50C, size: 0x8, addend: 0x0, symName: __MergedGlobals, symObjAddr: 0x3F10, symBinAddr: 0x100061010, symSize: 0x0 }
  - { offset: 0xD53C, size: 0x8, addend: 0x0, symName: ___llvm_profile_is_continuous_mode_enabled, symObjAddr: 0x0, symBinAddr: 0x100006F78, symSize: 0x20 }
  - { offset: 0xD544, size: 0x8, addend: 0x0, symName: ___llvm_profile_enable_continuous_mode, symObjAddr: 0x20, symBinAddr: 0x100006F98, symSize: 0x10 }
  - { offset: 0xD554, size: 0x8, addend: 0x0, symName: ___llvm_profile_enable_continuous_mode, symObjAddr: 0x20, symBinAddr: 0x100006F98, symSize: 0x10 }
  - { offset: 0xD55C, size: 0x8, addend: 0x0, symName: ___llvm_profile_disable_continuous_mode, symObjAddr: 0x30, symBinAddr: 0x100006FA8, symSize: 0xC }
  - { offset: 0xD571, size: 0x8, addend: 0x0, symName: ___llvm_profile_disable_continuous_mode, symObjAddr: 0x30, symBinAddr: 0x100006FA8, symSize: 0xC }
  - { offset: 0xD579, size: 0x8, addend: 0x0, symName: ___llvm_profile_set_page_size, symObjAddr: 0x3C, symBinAddr: 0x100006FB4, symSize: 0xC }
  - { offset: 0xD58E, size: 0x8, addend: 0x0, symName: ___llvm_profile_set_page_size, symObjAddr: 0x3C, symBinAddr: 0x100006FB4, symSize: 0xC }
  - { offset: 0xD596, size: 0x8, addend: 0x0, symName: ___llvm_profile_get_size_for_buffer, symObjAddr: 0x48, symBinAddr: 0x100006FC0, symSize: 0xC4 }
  - { offset: 0xD5B9, size: 0x8, addend: 0x0, symName: ___llvm_profile_get_size_for_buffer, symObjAddr: 0x48, symBinAddr: 0x100006FC0, symSize: 0xC4 }
  - { offset: 0xD5C1, size: 0x8, addend: 0x0, symName: ___llvm_profile_get_size_for_buffer_internal, symObjAddr: 0x10C, symBinAddr: 0x100007084, symSize: 0x1C0 }
  - { offset: 0xDA24, size: 0x8, addend: 0x0, symName: ___llvm_profile_get_size_for_buffer_internal, symObjAddr: 0x10C, symBinAddr: 0x100007084, symSize: 0x1C0 }
  - { offset: 0xDA2C, size: 0x8, addend: 0x0, symName: ___llvm_profile_get_num_data, symObjAddr: 0x2CC, symBinAddr: 0x100007244, symSize: 0x10 }
  - { offset: 0xDE1B, size: 0x8, addend: 0x0, symName: ___llvm_profile_get_num_data, symObjAddr: 0x2CC, symBinAddr: 0x100007244, symSize: 0x10 }
  - { offset: 0xDE23, size: 0x8, addend: 0x0, symName: ___llvm_profile_get_data_size, symObjAddr: 0x2DC, symBinAddr: 0x100007254, symSize: 0x10 }
  - { offset: 0xDE54, size: 0x8, addend: 0x0, symName: ___llvm_profile_get_data_size, symObjAddr: 0x2DC, symBinAddr: 0x100007254, symSize: 0x10 }
  - { offset: 0xDE5C, size: 0x8, addend: 0x0, symName: ___llvm_profile_get_num_vtable, symObjAddr: 0x2EC, symBinAddr: 0x100007264, symSize: 0x18 }
  - { offset: 0xDE80, size: 0x8, addend: 0x0, symName: ___llvm_profile_get_data_size, symObjAddr: 0x2DC, symBinAddr: 0x100007254, symSize: 0x10 }
  - { offset: 0xDEB2, size: 0x8, addend: 0x0, symName: ___llvm_profile_get_num_vtable, symObjAddr: 0x2EC, symBinAddr: 0x100007264, symSize: 0x18 }
  - { offset: 0xDEBA, size: 0x8, addend: 0x0, symName: ___llvm_profile_get_vtable_section_size, symObjAddr: 0x304, symBinAddr: 0x10000727C, symSize: 0x8 }
  - { offset: 0xDF0C, size: 0x8, addend: 0x0, symName: ___llvm_profile_get_vtable_section_size, symObjAddr: 0x304, symBinAddr: 0x10000727C, symSize: 0x8 }
  - { offset: 0xDF14, size: 0x8, addend: 0x0, symName: ___llvm_profile_counter_entry_size, symObjAddr: 0x30C, symBinAddr: 0x100007284, symSize: 0x1C }
  - { offset: 0xDF35, size: 0x8, addend: 0x0, symName: ___llvm_profile_counter_entry_size, symObjAddr: 0x30C, symBinAddr: 0x100007284, symSize: 0x1C }
  - { offset: 0xDF3D, size: 0x8, addend: 0x0, symName: ___llvm_profile_get_num_counters, symObjAddr: 0x328, symBinAddr: 0x1000072A0, symSize: 0x48 }
  - { offset: 0xDF4D, size: 0x8, addend: 0x0, symName: ___llvm_profile_get_num_counters, symObjAddr: 0x328, symBinAddr: 0x1000072A0, symSize: 0x48 }
  - { offset: 0xDF55, size: 0x8, addend: 0x0, symName: ___llvm_profile_get_counters_size, symObjAddr: 0x370, symBinAddr: 0x1000072E8, symSize: 0x5C }
  - { offset: 0xDFBA, size: 0x8, addend: 0x0, symName: ___llvm_profile_get_counters_size, symObjAddr: 0x370, symBinAddr: 0x1000072E8, symSize: 0x5C }
  - { offset: 0xDFC2, size: 0x8, addend: 0x0, symName: ___llvm_profile_get_num_bitmap_bytes, symObjAddr: 0x3CC, symBinAddr: 0x100007344, symSize: 0x8 }
  - { offset: 0xE066, size: 0x8, addend: 0x0, symName: ___llvm_profile_get_num_bitmap_bytes, symObjAddr: 0x3CC, symBinAddr: 0x100007344, symSize: 0x8 }
  - { offset: 0xE06E, size: 0x8, addend: 0x0, symName: ___llvm_profile_get_name_size, symObjAddr: 0x3D4, symBinAddr: 0x10000734C, symSize: 0x8 }
  - { offset: 0xE08F, size: 0x8, addend: 0x0, symName: ___llvm_profile_get_name_size, symObjAddr: 0x3D4, symBinAddr: 0x10000734C, symSize: 0x8 }
  - { offset: 0xE097, size: 0x8, addend: 0x0, symName: ___llvm_profile_get_padding_sizes_for_counters, symObjAddr: 0x3DC, symBinAddr: 0x100007354, symSize: 0x15C }
  - { offset: 0xE0B8, size: 0x8, addend: 0x0, symName: ___llvm_profile_get_padding_sizes_for_counters, symObjAddr: 0x3DC, symBinAddr: 0x100007354, symSize: 0x15C }
  - { offset: 0xE0C0, size: 0x8, addend: 0x0, symName: _initBufferWriter, symObjAddr: 0x538, symBinAddr: 0x1000074B0, symSize: 0x10 }
  - { offset: 0xE214, size: 0x8, addend: 0x0, symName: _initBufferWriter, symObjAddr: 0x538, symBinAddr: 0x1000074B0, symSize: 0x10 }
  - { offset: 0xE37E, size: 0x8, addend: 0x0, symName: __MergedGlobals, symObjAddr: 0xA750, symBinAddr: 0x100061020, symSize: 0x0 }
  - { offset: 0xE4A9, size: 0x8, addend: 0x0, symName: __MergedGlobals, symObjAddr: 0xA750, symBinAddr: 0x100061020, symSize: 0x0 }
  - { offset: 0xE6D9, size: 0x8, addend: 0x0, symName: __MergedGlobals, symObjAddr: 0xA750, symBinAddr: 0x100061020, symSize: 0x0 }
  - { offset: 0xE879, size: 0x8, addend: 0x0, symName: _getCurFilenameLength, symObjAddr: 0x1C8, symBinAddr: 0x1000074C0, symSize: 0x104 }
  - { offset: 0xE881, size: 0x8, addend: 0x0, symName: _getCurFilename, symObjAddr: 0x2CC, symBinAddr: 0x1000075C4, symSize: 0x31C }
  - { offset: 0xE904, size: 0x8, addend: 0x0, symName: _getCurFilename, symObjAddr: 0x2CC, symBinAddr: 0x1000075C4, symSize: 0x31C }
  - { offset: 0xEB75, size: 0x8, addend: 0x0, symName: _parseAndSetFilename, symObjAddr: 0x6F0, symBinAddr: 0x1000078E0, symSize: 0x510 }
  - { offset: 0xEB7D, size: 0x8, addend: 0x0, symName: ___llvm_profile_initialize, symObjAddr: 0xC00, symBinAddr: 0x100007DF0, symSize: 0xB8 }
  - { offset: 0xED6E, size: 0x8, addend: 0x0, symName: ___llvm_profile_initialize, symObjAddr: 0xC00, symBinAddr: 0x100007DF0, symSize: 0xB8 }
  - { offset: 0xEDEA, size: 0x8, addend: 0x0, symName: ___llvm_profile_write_file, symObjAddr: 0xD34, symBinAddr: 0x100007EA8, symSize: 0x1B4 }
  - { offset: 0xEDF2, size: 0x8, addend: 0x0, symName: _writeFile, symObjAddr: 0xEE8, symBinAddr: 0x10000805C, symSize: 0x2E4 }
  - { offset: 0xEFCB, size: 0x8, addend: 0x0, symName: _writeFile, symObjAddr: 0xEE8, symBinAddr: 0x10000805C, symSize: 0x2E4 }
  - { offset: 0xF166, size: 0x8, addend: 0x0, symName: _writeFileWithoutReturn, symObjAddr: 0x1238, symBinAddr: 0x100008340, symSize: 0x4 }
  - { offset: 0xF19C, size: 0x8, addend: 0x0, symName: _getProfileFileSizeForMerging, symObjAddr: 0x148C, symBinAddr: 0x100008344, symSize: 0x110 }
  - { offset: 0xF1A4, size: 0x8, addend: 0x0, symName: _mmapForContinuousMode, symObjAddr: 0x159C, symBinAddr: 0x100008454, symSize: 0x264 }
  - { offset: 0xF1E1, size: 0x8, addend: 0x0, symName: _mmapForContinuousMode, symObjAddr: 0x159C, symBinAddr: 0x100008454, symSize: 0x264 }
  - { offset: 0xF1E9, size: 0x8, addend: 0x0, symName: _fileWriter, symObjAddr: 0x1800, symBinAddr: 0x1000086B8, symSize: 0x140 }
  - { offset: 0xF3A8, size: 0x8, addend: 0x0, symName: _fileWriter, symObjAddr: 0x1800, symBinAddr: 0x1000086B8, symSize: 0x140 }
  - { offset: 0xF3B0, size: 0x8, addend: 0x0, symName: _binaryIdsStringWriter, symObjAddr: 0x1940, symBinAddr: 0x1000087F8, symSize: 0xD4 }
  - { offset: 0xF478, size: 0x8, addend: 0x0, symName: _binaryIdsStringWriter, symObjAddr: 0x1940, symBinAddr: 0x1000087F8, symSize: 0xD4 }
  - { offset: 0xF480, size: 0x8, addend: 0x0, symName: _truncateCurrentFile, symObjAddr: 0x1A14, symBinAddr: 0x1000088CC, symSize: 0xD8 }
  - { offset: 0xF519, size: 0x8, addend: 0x0, symName: _truncateCurrentFile, symObjAddr: 0x1A14, symBinAddr: 0x1000088CC, symSize: 0xD8 }
  - { offset: 0xF521, size: 0x8, addend: 0x0, symName: _initializeProfileForContinuousMode, symObjAddr: 0x1AEC, symBinAddr: 0x1000089A4, symSize: 0x2BC }
  - { offset: 0xF5BF, size: 0x8, addend: 0x0, symName: _initializeProfileForContinuousMode, symObjAddr: 0x1AEC, symBinAddr: 0x1000089A4, symSize: 0x2BC }
  - { offset: 0xF5C7, size: 0x8, addend: 0x0, symName: _createProfileDir, symObjAddr: 0x1DA8, symBinAddr: 0x100008C60, symSize: 0xA4 }
  - { offset: 0xF7AF, size: 0x8, addend: 0x0, symName: _createProfileDir, symObjAddr: 0x1DA8, symBinAddr: 0x100008C60, symSize: 0xA4 }
  - { offset: 0xF7B7, size: 0x8, addend: 0x0, symName: _parseAndSetFilename.cold.1, symObjAddr: 0x1E4C, symBinAddr: 0x100041A54, symSize: 0x24 }
  - { offset: 0xF814, size: 0x8, addend: 0x0, symName: _parseAndSetFilename.cold.1, symObjAddr: 0x1E4C, symBinAddr: 0x100041A54, symSize: 0x24 }
  - { offset: 0xF81C, size: 0x8, addend: 0x0, symName: _parseAndSetFilename.cold.2, symObjAddr: 0x1E70, symBinAddr: 0x100041A78, symSize: 0x24 }
  - { offset: 0xF83E, size: 0x8, addend: 0x0, symName: _parseAndSetFilename.cold.2, symObjAddr: 0x1E70, symBinAddr: 0x100041A78, symSize: 0x24 }
  - { offset: 0xF858, size: 0x8, addend: 0x0, symName: _parseAndSetFilename.cold.2, symObjAddr: 0x1E70, symBinAddr: 0x100041A78, symSize: 0x24 }
  - { offset: 0xF868, size: 0x8, addend: 0x0, symName: _parseAndSetFilename.cold.2, symObjAddr: 0x1E70, symBinAddr: 0x100041A78, symSize: 0x24 }
  - { offset: 0xF9C8, size: 0x8, addend: 0x0, symName: _lprofProfileDumped, symObjAddr: 0x0, symBinAddr: 0x100008D04, symSize: 0xC }
  - { offset: 0xF9E5, size: 0x8, addend: 0x0, symName: _ProfileDumped, symObjAddr: 0x4E0, symBinAddr: 0x1000610F8, symSize: 0x0 }
  - { offset: 0xF9F5, size: 0x8, addend: 0x0, symName: _lprofProfileDumped, symObjAddr: 0x0, symBinAddr: 0x100008D04, symSize: 0xC }
  - { offset: 0xFA3D, size: 0x8, addend: 0x0, symName: _lprofGetLoadModuleSignature, symObjAddr: 0x0, symBinAddr: 0x100008D10, symSize: 0xD0 }
  - { offset: 0xFA6A, size: 0x8, addend: 0x0, symName: _VPMergeHook, symBinAddr: 0x100063330, symSize: 0x0 }
  - { offset: 0xFCCE, size: 0x8, addend: 0x0, symName: _lprofGetLoadModuleSignature, symObjAddr: 0x0, symBinAddr: 0x100008D10, symSize: 0xD0 }
  - { offset: 0xFCD6, size: 0x8, addend: 0x0, symName: ___llvm_profile_check_compatibility, symObjAddr: 0xD0, symBinAddr: 0x100008DE0, symSize: 0x1CC }
  - { offset: 0xFD46, size: 0x8, addend: 0x0, symName: ___llvm_profile_check_compatibility, symObjAddr: 0xD0, symBinAddr: 0x100008DE0, symSize: 0x1CC }
  - { offset: 0xFD4E, size: 0x8, addend: 0x0, symName: ___llvm_profile_merge_from_buffer, symObjAddr: 0x29C, symBinAddr: 0x100008FAC, symSize: 0x3E8 }
  - { offset: 0xFE26, size: 0x8, addend: 0x0, symName: ___llvm_profile_merge_from_buffer, symObjAddr: 0x29C, symBinAddr: 0x100008FAC, symSize: 0x3E8 }
  - { offset: 0x10098, size: 0x8, addend: 0x0, symName: _lprofMergeValueProfData, symObjAddr: 0x0, symBinAddr: 0x100009394, symSize: 0xF0 }
  - { offset: 0x100A9, size: 0x8, addend: 0x0, symName: _lprofMergeValueProfData, symObjAddr: 0x0, symBinAddr: 0x100009394, symSize: 0xF0 }
  - { offset: 0x10367, size: 0x8, addend: 0x0, symName: ___llvm_profile_begin_data, symObjAddr: 0x0, symBinAddr: 0x100009484, symSize: 0xC }
  - { offset: 0x1036F, size: 0x8, addend: 0x0, symName: _CurrentVNode, symObjAddr: 0xB0, symBinAddr: 0x100060500, symSize: 0x0 }
  - { offset: 0x10386, size: 0x8, addend: 0x0, symName: _CurrentVNode, symObjAddr: 0xB0, symBinAddr: 0x100060500, symSize: 0x0 }
  - { offset: 0x10402, size: 0x8, addend: 0x0, symName: _EndVNode, symObjAddr: 0xB8, symBinAddr: 0x100060508, symSize: 0x0 }
  - { offset: 0x1040B, size: 0x8, addend: 0x0, symName: ___llvm_profile_begin_data, symObjAddr: 0x0, symBinAddr: 0x100009484, symSize: 0xC }
  - { offset: 0x10413, size: 0x8, addend: 0x0, symName: ___llvm_profile_end_data, symObjAddr: 0xC, symBinAddr: 0x100009490, symSize: 0xC }
  - { offset: 0x1042C, size: 0x8, addend: 0x0, symName: ___llvm_profile_end_data, symObjAddr: 0xC, symBinAddr: 0x100009490, symSize: 0xC }
  - { offset: 0x10434, size: 0x8, addend: 0x0, symName: ___llvm_profile_begin_names, symObjAddr: 0x18, symBinAddr: 0x10000949C, symSize: 0xC }
  - { offset: 0x1044D, size: 0x8, addend: 0x0, symName: ___llvm_profile_begin_names, symObjAddr: 0x18, symBinAddr: 0x10000949C, symSize: 0xC }
  - { offset: 0x10455, size: 0x8, addend: 0x0, symName: ___llvm_profile_end_names, symObjAddr: 0x24, symBinAddr: 0x1000094A8, symSize: 0xC }
  - { offset: 0x1046E, size: 0x8, addend: 0x0, symName: ___llvm_profile_end_names, symObjAddr: 0x24, symBinAddr: 0x1000094A8, symSize: 0xC }
  - { offset: 0x10476, size: 0x8, addend: 0x0, symName: ___llvm_profile_begin_counters, symObjAddr: 0x30, symBinAddr: 0x1000094B4, symSize: 0xC }
  - { offset: 0x1048F, size: 0x8, addend: 0x0, symName: ___llvm_profile_begin_counters, symObjAddr: 0x30, symBinAddr: 0x1000094B4, symSize: 0xC }
  - { offset: 0x10497, size: 0x8, addend: 0x0, symName: ___llvm_profile_end_counters, symObjAddr: 0x3C, symBinAddr: 0x1000094C0, symSize: 0xC }
  - { offset: 0x104B0, size: 0x8, addend: 0x0, symName: ___llvm_profile_end_counters, symObjAddr: 0x3C, symBinAddr: 0x1000094C0, symSize: 0xC }
  - { offset: 0x104B8, size: 0x8, addend: 0x0, symName: ___llvm_profile_begin_bitmap, symObjAddr: 0x48, symBinAddr: 0x1000094CC, symSize: 0xC }
  - { offset: 0x104D1, size: 0x8, addend: 0x0, symName: ___llvm_profile_begin_bitmap, symObjAddr: 0x48, symBinAddr: 0x1000094CC, symSize: 0xC }
  - { offset: 0x104D9, size: 0x8, addend: 0x0, symName: ___llvm_profile_end_bitmap, symObjAddr: 0x54, symBinAddr: 0x1000094D8, symSize: 0xC }
  - { offset: 0x104F2, size: 0x8, addend: 0x0, symName: ___llvm_profile_end_bitmap, symObjAddr: 0x54, symBinAddr: 0x1000094D8, symSize: 0xC }
  - { offset: 0x104FA, size: 0x8, addend: 0x0, symName: ___llvm_profile_begin_vtables, symObjAddr: 0x60, symBinAddr: 0x1000094E4, symSize: 0xC }
  - { offset: 0x10513, size: 0x8, addend: 0x0, symName: ___llvm_profile_begin_vtables, symObjAddr: 0x60, symBinAddr: 0x1000094E4, symSize: 0xC }
  - { offset: 0x1051B, size: 0x8, addend: 0x0, symName: ___llvm_profile_end_vtables, symObjAddr: 0x6C, symBinAddr: 0x1000094F0, symSize: 0xC }
  - { offset: 0x10534, size: 0x8, addend: 0x0, symName: ___llvm_profile_end_vtables, symObjAddr: 0x6C, symBinAddr: 0x1000094F0, symSize: 0xC }
  - { offset: 0x1053C, size: 0x8, addend: 0x0, symName: ___llvm_profile_begin_vtabnames, symObjAddr: 0x78, symBinAddr: 0x1000094FC, symSize: 0xC }
  - { offset: 0x10555, size: 0x8, addend: 0x0, symName: ___llvm_profile_begin_vtabnames, symObjAddr: 0x78, symBinAddr: 0x1000094FC, symSize: 0xC }
  - { offset: 0x1055D, size: 0x8, addend: 0x0, symName: ___llvm_profile_end_vtabnames, symObjAddr: 0x84, symBinAddr: 0x100009508, symSize: 0xC }
  - { offset: 0x10576, size: 0x8, addend: 0x0, symName: ___llvm_profile_end_vtabnames, symObjAddr: 0x84, symBinAddr: 0x100009508, symSize: 0xC }
  - { offset: 0x1057E, size: 0x8, addend: 0x0, symName: ___llvm_profile_begin_vnodes, symObjAddr: 0x90, symBinAddr: 0x100009514, symSize: 0xC }
  - { offset: 0x10597, size: 0x8, addend: 0x0, symName: ___llvm_profile_begin_vnodes, symObjAddr: 0x90, symBinAddr: 0x100009514, symSize: 0xC }
  - { offset: 0x1059F, size: 0x8, addend: 0x0, symName: ___llvm_profile_end_vnodes, symObjAddr: 0x9C, symBinAddr: 0x100009520, symSize: 0xC }
  - { offset: 0x105B8, size: 0x8, addend: 0x0, symName: ___llvm_profile_end_vnodes, symObjAddr: 0x9C, symBinAddr: 0x100009520, symSize: 0xC }
  - { offset: 0x105C0, size: 0x8, addend: 0x0, symName: ___llvm_write_binary_ids, symObjAddr: 0xA8, symBinAddr: 0x10000952C, symSize: 0x8 }
  - { offset: 0x105D9, size: 0x8, addend: 0x0, symName: ___llvm_write_binary_ids, symObjAddr: 0xA8, symBinAddr: 0x10000952C, symSize: 0x8 }
  - { offset: 0x105E1, size: 0x8, addend: 0x0, symName: _CurrentVNode, symObjAddr: 0xB0, symBinAddr: 0x100060500, symSize: 0x0 }
  - { offset: 0x1085F, size: 0x8, addend: 0x0, symName: __GLOBAL__sub_I_InstrProfilingRuntime.cpp, symObjAddr: 0x0, symBinAddr: 0x100009534, symSize: 0x18 }
  - { offset: 0x10882, size: 0x8, addend: 0x0, symName: ___llvm_profile_runtime, symObjAddr: 0x590, symBinAddr: 0x1000632E0, symSize: 0x0 }
  - { offset: 0x108B2, size: 0x8, addend: 0x0, symName: __GLOBAL__sub_I_InstrProfilingRuntime.cpp, symObjAddr: 0x0, symBinAddr: 0x100009534, symSize: 0x18 }
  - { offset: 0x1092E, size: 0x8, addend: 0x0, symName: ___llvm_profile_recursive_mkdir, symObjAddr: 0x0, symBinAddr: 0x10000954C, symSize: 0x58 }
  - { offset: 0x10936, size: 0x8, addend: 0x0, symName: _lprofDirMode, symObjAddr: 0x850, symBinAddr: 0x100060510, symSize: 0x0 }
  - { offset: 0x1094D, size: 0x8, addend: 0x0, symName: _lprofDirMode, symObjAddr: 0x850, symBinAddr: 0x100060510, symSize: 0x0 }
  - { offset: 0x109B8, size: 0x8, addend: 0x0, symName: ___llvm_profile_recursive_mkdir, symObjAddr: 0x0, symBinAddr: 0x10000954C, symSize: 0x58 }
  - { offset: 0x10A37, size: 0x8, addend: 0x0, symName: _lprofGetHostName, symObjAddr: 0x70, symBinAddr: 0x1000095A4, symSize: 0x80 }
  - { offset: 0x10B66, size: 0x8, addend: 0x0, symName: _lprofLockFileHandle, symObjAddr: 0x208, symBinAddr: 0x100009624, symSize: 0x90 }
  - { offset: 0x10B6E, size: 0x8, addend: 0x0, symName: _lprofUnlockFileHandle, symObjAddr: 0x298, symBinAddr: 0x1000096B4, symSize: 0x90 }
  - { offset: 0x10BF4, size: 0x8, addend: 0x0, symName: _lprofUnlockFileHandle, symObjAddr: 0x298, symBinAddr: 0x1000096B4, symSize: 0x90 }
  - { offset: 0x10BFC, size: 0x8, addend: 0x0, symName: _lprofOpenFileEx, symObjAddr: 0x328, symBinAddr: 0x100009744, symSize: 0xD0 }
  - { offset: 0x10C5C, size: 0x8, addend: 0x0, symName: _lprofOpenFileEx, symObjAddr: 0x328, symBinAddr: 0x100009744, symSize: 0xD0 }
  - { offset: 0x10C64, size: 0x8, addend: 0x0, symName: _lprofGetFileContentBuffer, symObjAddr: 0x3F8, symBinAddr: 0x100009814, symSize: 0x204 }
  - { offset: 0x10CF1, size: 0x8, addend: 0x0, symName: _lprofGetFileContentBuffer, symObjAddr: 0x3F8, symBinAddr: 0x100009814, symSize: 0x204 }
  - { offset: 0x10CF9, size: 0x8, addend: 0x0, symName: _lprofReleaseBuffer, symObjAddr: 0x5FC, symBinAddr: 0x100009A18, symSize: 0xA0 }
  - { offset: 0x10D80, size: 0x8, addend: 0x0, symName: _lprofReleaseBuffer, symObjAddr: 0x5FC, symBinAddr: 0x100009A18, symSize: 0xA0 }
  - { offset: 0x10DC2, size: 0x8, addend: 0x0, symName: _lprofFindFirstDirSeparator, symObjAddr: 0x7DC, symBinAddr: 0x100009AB8, symSize: 0x8 }
  - { offset: 0x10E02, size: 0x8, addend: 0x0, symName: _lprofSuspendSigKill, symObjAddr: 0x7EC, symBinAddr: 0x100009AC0, symSize: 0x8 }
  - { offset: 0x10E0A, size: 0x8, addend: 0x0, symName: _lprofRestoreSigKill, symObjAddr: 0x7F4, symBinAddr: 0x100009AC8, symSize: 0x4 }
  - { offset: 0x10E25, size: 0x8, addend: 0x0, symName: _lprofRestoreSigKill, symObjAddr: 0x7F4, symBinAddr: 0x100009AC8, symSize: 0x4 }
  - { offset: 0x10E44, size: 0x8, addend: 0x0, symName: _lprofAtExit, symObjAddr: 0x84C, symBinAddr: 0x100009ACC, symSize: 0x4 }
  - { offset: 0x10E4C, size: 0x8, addend: 0x0, symName: _lprofDirMode, symObjAddr: 0x850, symBinAddr: 0x100060510, symSize: 0x0 }
  - { offset: 0x11155, size: 0x8, addend: 0x0, symName: _getValueProfRecordHeaderSize, symObjAddr: 0x0, symBinAddr: 0x100009AD0, symSize: 0xC }
  - { offset: 0x11174, size: 0x8, addend: 0x0, symName: _VPMaxNumValsPerSite, symObjAddr: 0x1740, symBinAddr: 0x100060518, symSize: 0x0 }
  - { offset: 0x11209, size: 0x8, addend: 0x0, symName: __MergedGlobals, symObjAddr: 0xEF50, symBinAddr: 0x100061128, symSize: 0x0 }
  - { offset: 0x11230, size: 0x8, addend: 0x0, symName: __MergedGlobals, symObjAddr: 0xEF50, symBinAddr: 0x100061128, symSize: 0x0 }
  - { offset: 0x11247, size: 0x8, addend: 0x0, symName: __MergedGlobals, symObjAddr: 0xEF50, symBinAddr: 0x100061128, symSize: 0x0 }
  - { offset: 0x11266, size: 0x8, addend: 0x0, symName: _TheVPDataReader, symObjAddr: 0x1748, symBinAddr: 0x100060520, symSize: 0x0 }
  - { offset: 0x114FC, size: 0x8, addend: 0x0, symName: _RTRecord, symObjAddr: 0xEF28, symBinAddr: 0x100061100, symSize: 0x0 }
  - { offset: 0x116DE, size: 0x8, addend: 0x0, symName: _getValueProfRecordHeaderSize, symObjAddr: 0x0, symBinAddr: 0x100009AD0, symSize: 0xC }
  - { offset: 0x11734, size: 0x8, addend: 0x0, symName: _getValueProfRecordValueData, symObjAddr: 0x1C, symBinAddr: 0x100009ADC, symSize: 0x14 }
  - { offset: 0x117E2, size: 0x8, addend: 0x0, symName: _getValueProfRecordNext, symObjAddr: 0x1B4, symBinAddr: 0x100009AF0, symSize: 0x1A4 }
  - { offset: 0x117EA, size: 0x8, addend: 0x0, symName: _getFirstValueProfRecord, symObjAddr: 0x358, symBinAddr: 0x100009C94, symSize: 0x8 }
  - { offset: 0x11851, size: 0x8, addend: 0x0, symName: _getFirstValueProfRecord, symObjAddr: 0x358, symBinAddr: 0x100009C94, symSize: 0x8 }
  - { offset: 0x11933, size: 0x8, addend: 0x0, symName: _lprofSetupValueProfiler, symObjAddr: 0xB38, symBinAddr: 0x100009C9C, symSize: 0x64 }
  - { offset: 0x11A45, size: 0x8, addend: 0x0, symName: ___llvm_profile_instrument_target_value, symObjAddr: 0xE30, symBinAddr: 0x100009D00, symSize: 0x290 }
  - { offset: 0x11B63, size: 0x8, addend: 0x0, symName: _lprofGetVPDataReader, symObjAddr: 0x1108, symBinAddr: 0x100009F90, symSize: 0xC }
  - { offset: 0x11B6B, size: 0x8, addend: 0x0, symName: _initializeValueProfRuntimeRecord, symObjAddr: 0x1114, symBinAddr: 0x100009F9C, symSize: 0x210 }
  - { offset: 0x11B86, size: 0x8, addend: 0x0, symName: _initializeValueProfRuntimeRecord, symObjAddr: 0x1114, symBinAddr: 0x100009F9C, symSize: 0x210 }
  - { offset: 0x11B8E, size: 0x8, addend: 0x0, symName: _getNumValueDataForSiteWrapper, symObjAddr: 0x1324, symBinAddr: 0x10000A1AC, symSize: 0x14 }
  - { offset: 0x11CA9, size: 0x8, addend: 0x0, symName: _getNumValueDataForSiteWrapper, symObjAddr: 0x1324, symBinAddr: 0x10000A1AC, symSize: 0x14 }
  - { offset: 0x11CB1, size: 0x8, addend: 0x0, symName: _getValueProfDataSizeWrapper, symObjAddr: 0x1338, symBinAddr: 0x10000A1C0, symSize: 0xDC }
  - { offset: 0x11CEF, size: 0x8, addend: 0x0, symName: _getNumValueDataForSiteWrapper, symObjAddr: 0x1324, symBinAddr: 0x10000A1AC, symSize: 0x14 }
  - { offset: 0x11D15, size: 0x8, addend: 0x0, symName: _getValueProfDataSizeWrapper, symObjAddr: 0x1338, symBinAddr: 0x10000A1C0, symSize: 0xDC }
  - { offset: 0x11D1D, size: 0x8, addend: 0x0, symName: _getNextNValueData, symObjAddr: 0x1414, symBinAddr: 0x10000A29C, symSize: 0x44 }
  - { offset: 0x11DB4, size: 0x8, addend: 0x0, symName: _getNextNValueData, symObjAddr: 0x1414, symBinAddr: 0x10000A29C, symSize: 0x44 }
  - { offset: 0x11DBC, size: 0x8, addend: 0x0, symName: _getNumValueSitesRT, symObjAddr: 0x1458, symBinAddr: 0x10000A2E0, symSize: 0x10 }
  - { offset: 0x11E4A, size: 0x8, addend: 0x0, symName: _getNumValueSitesRT, symObjAddr: 0x1458, symBinAddr: 0x10000A2E0, symSize: 0x10 }
  - { offset: 0x11E52, size: 0x8, addend: 0x0, symName: _getNumValueDataRT, symObjAddr: 0x1468, symBinAddr: 0x10000A2F0, symSize: 0x190 }
  - { offset: 0x11E8D, size: 0x8, addend: 0x0, symName: _getNumValueDataRT, symObjAddr: 0x1468, symBinAddr: 0x10000A2F0, symSize: 0x190 }
  - { offset: 0x11F03, size: 0x8, addend: 0x0, symName: ___llvm_profile_instrument_target_value.cold.1, symObjAddr: 0x161C, symBinAddr: 0x100041A9C, symSize: 0x24 }
  - { offset: 0x11F93, size: 0x8, addend: 0x0, symName: ___llvm_profile_raw_version, symObjAddr: 0x0, symBinAddr: 0x100060550, symSize: 0x0 }
  - { offset: 0x11FD5, size: 0x8, addend: 0x0, symName: _lprofBufferWriter, symObjAddr: 0x0, symBinAddr: 0x10000A480, symSize: 0x6C }
  - { offset: 0x11FF4, size: 0x8, addend: 0x0, symName: _FreeHook, symObjAddr: 0x4F98, symBinAddr: 0x1000632E8, symSize: 0x0 }
  - { offset: 0x1201A, size: 0x8, addend: 0x0, symName: _DynamicBufferIOBuffer, symObjAddr: 0x4FA0, symBinAddr: 0x1000632F0, symSize: 0x0 }
  - { offset: 0x12048, size: 0x8, addend: 0x0, symName: _VPBufferSize, symObjAddr: 0x4FA8, symBinAddr: 0x1000632F8, symSize: 0x0 }
  - { offset: 0x1206F, size: 0x8, addend: 0x0, symName: __MergedGlobals, symObjAddr: 0x6FB0, symBinAddr: 0x100063138, symSize: 0x0 }
  - { offset: 0x121B9, size: 0x8, addend: 0x0, symName: _BufferIOBuffer, symObjAddr: 0x4FB0, symBinAddr: 0x100061138, symSize: 0x0 }
  - { offset: 0x121E3, size: 0x8, addend: 0x0, symName: __MergedGlobals, symObjAddr: 0x6FB0, symBinAddr: 0x100063138, symSize: 0x0 }
  - { offset: 0x1225B, size: 0x8, addend: 0x0, symName: _lprofBufferWriter, symObjAddr: 0x0, symBinAddr: 0x10000A480, symSize: 0x6C }
  - { offset: 0x12373, size: 0x8, addend: 0x0, symName: _lprofBufferIOWrite, symObjAddr: 0x100, symBinAddr: 0x10000A4EC, symSize: 0x134 }
  - { offset: 0x12474, size: 0x8, addend: 0x0, symName: _lprofWriteData, symObjAddr: 0x2F4, symBinAddr: 0x10000A620, symSize: 0xE0 }
  - { offset: 0x1247C, size: 0x8, addend: 0x0, symName: _lprofWriteDataImpl, symObjAddr: 0x3D4, symBinAddr: 0x10000A700, symSize: 0x474 }
  - { offset: 0x128AC, size: 0x8, addend: 0x0, symName: _lprofWriteDataImpl, symObjAddr: 0x3D4, symBinAddr: 0x10000A700, symSize: 0x474 }
  - { offset: 0x12BE7, size: 0x8, addend: 0x0, symName: _writeOneValueProfData, symObjAddr: 0x8D4, symBinAddr: 0x10000AB74, symSize: 0x4A8 }
  - { offset: 0x12EAA, size: 0x8, addend: 0x0, symName: __RNvCskdKJRKLKjqM_7___rustc10rust_panic, symObjAddr: 0x0, symBinAddr: 0x100041AC0, symSize: 0x60 }
  - { offset: 0x131FE, size: 0x8, addend: 0x0, symName: '__ZN42_$LT$$RF$T$u20$as$u20$core..fmt..Debug$GT$3fmt17h1657bda62079795fE', symObjAddr: 0x22C30, symBinAddr: 0x10001A858, symSize: 0x74 }
  - { offset: 0x13315, size: 0x8, addend: 0x0, symName: '__ZN42_$LT$$RF$T$u20$as$u20$core..fmt..Debug$GT$3fmt17h1afb9163f1905b06E', symObjAddr: 0x22CA4, symBinAddr: 0x10001A8CC, symSize: 0x10 }
  - { offset: 0x13346, size: 0x8, addend: 0x0, symName: '__ZN42_$LT$$RF$T$u20$as$u20$core..fmt..Debug$GT$3fmt17h5dbecbf3553e1d6eE', symObjAddr: 0x230DC, symBinAddr: 0x10001A8DC, symSize: 0x14 }
  - { offset: 0x13377, size: 0x8, addend: 0x0, symName: '__ZN42_$LT$$RF$T$u20$as$u20$core..fmt..Debug$GT$3fmt17h624b3b1b2bc3ccaaE', symObjAddr: 0x230F0, symBinAddr: 0x10001A8F0, symSize: 0x10 }
  - { offset: 0x13399, size: 0x8, addend: 0x0, symName: '__ZN42_$LT$$RF$T$u20$as$u20$core..fmt..Debug$GT$3fmt17h90d58bddc1b11390E', symObjAddr: 0x23210, symBinAddr: 0x10001A900, symSize: 0x9C }
  - { offset: 0x13428, size: 0x8, addend: 0x0, symName: '__ZN42_$LT$$RF$T$u20$as$u20$core..fmt..Debug$GT$3fmt17h962ee5d805df0a43E', symObjAddr: 0x232AC, symBinAddr: 0x10001A99C, symSize: 0x1C }
  - { offset: 0x1348A, size: 0x8, addend: 0x0, symName: '__ZN42_$LT$$RF$T$u20$as$u20$core..fmt..Debug$GT$3fmt17h9b59bf8331fa675dE', symObjAddr: 0x232D8, symBinAddr: 0x10001A9B8, symSize: 0x74 }
  - { offset: 0x1351E, size: 0x8, addend: 0x0, symName: '__ZN42_$LT$$RF$T$u20$as$u20$core..fmt..Debug$GT$3fmt17hbd1e035ac7e08f25E', symObjAddr: 0x23400, symBinAddr: 0x10001AA2C, symSize: 0x1C }
  - { offset: 0x13586, size: 0x8, addend: 0x0, symName: '__ZN44_$LT$$RF$T$u20$as$u20$core..fmt..Display$GT$3fmt17h42b41cde78dd7a40E', symObjAddr: 0x23740, symBinAddr: 0x10001AA48, symSize: 0x10 }
  - { offset: 0x135A1, size: 0x8, addend: 0x0, symName: '__ZN44_$LT$$RF$T$u20$as$u20$core..fmt..Display$GT$3fmt17h97ddbbc1a338291fE', symObjAddr: 0x23760, symBinAddr: 0x10001AA58, symSize: 0x74 }
  - { offset: 0x1364C, size: 0x8, addend: 0x0, symName: '__ZN4core3fmt3num50_$LT$impl$u20$core..fmt..Debug$u20$for$u20$i32$GT$3fmt17h0ee72d503607d7feE', symObjAddr: 0x23AE0, symBinAddr: 0x10001AACC, symSize: 0x18 }
  - { offset: 0x13663, size: 0x8, addend: 0x0, symName: '__ZN4core3fmt3num50_$LT$impl$u20$core..fmt..Debug$u20$for$u20$i32$GT$3fmt17h0ee72d503607d7feE', symObjAddr: 0x23AE0, symBinAddr: 0x10001AACC, symSize: 0x18 }
  - { offset: 0x1368E, size: 0x8, addend: 0x0, symName: '__ZN4core3fmt3num52_$LT$impl$u20$core..fmt..Debug$u20$for$u20$usize$GT$3fmt17hecd777b1c3510085E', symObjAddr: 0x23B40, symBinAddr: 0x10001AAE4, symSize: 0x18 }
  - { offset: 0x136A5, size: 0x8, addend: 0x0, symName: '__ZN4core3fmt3num52_$LT$impl$u20$core..fmt..Debug$u20$for$u20$usize$GT$3fmt17hecd777b1c3510085E', symObjAddr: 0x23B40, symBinAddr: 0x10001AAE4, symSize: 0x18 }
  - { offset: 0x136DF, size: 0x8, addend: 0x0, symName: __ZN4core3fmt5Write10write_char17h69a3578dfe4b32e9E, symObjAddr: 0x23CC0, symBinAddr: 0x10001AAFC, symSize: 0x128 }
  - { offset: 0x1375A, size: 0x8, addend: 0x0, symName: __ZN4core3fmt5Write10write_char17h69d96c692ad3d067E, symObjAddr: 0x23DE8, symBinAddr: 0x10001AC24, symSize: 0x168 }
  - { offset: 0x138D5, size: 0x8, addend: 0x0, symName: __ZN4core3fmt5Write10write_char17hca427d9223c5b6e1E, symObjAddr: 0x23F50, symBinAddr: 0x10001AD8C, symSize: 0x138 }
  - { offset: 0x13A65, size: 0x8, addend: 0x0, symName: __ZN4core3fmt5Write10write_char17he9318f738a0331ecE, symObjAddr: 0x24088, symBinAddr: 0x10001AEC4, symSize: 0x110 }
  - { offset: 0x13C66, size: 0x8, addend: 0x0, symName: __ZN4core3fmt5Write9write_fmt17h09d57f97e1e98aabE, symObjAddr: 0x242C0, symBinAddr: 0x10001AFD4, symSize: 0x38 }
  - { offset: 0x13C95, size: 0x8, addend: 0x0, symName: __ZN4core3fmt5Write9write_fmt17h0e54e39e3cec6689E, symObjAddr: 0x242F8, symBinAddr: 0x10001B00C, symSize: 0x38 }
  - { offset: 0x13CC4, size: 0x8, addend: 0x0, symName: __ZN4core3fmt5Write9write_fmt17h19fd30b4ad025d60E, symObjAddr: 0x24330, symBinAddr: 0x10001B044, symSize: 0x38 }
  - { offset: 0x13CF3, size: 0x8, addend: 0x0, symName: __ZN4core3fmt5Write9write_fmt17h2a94cca2598c1fb1E, symObjAddr: 0x243A0, symBinAddr: 0x10001B07C, symSize: 0x38 }
  - { offset: 0x13D22, size: 0x8, addend: 0x0, symName: __ZN4core3fmt5Write9write_fmt17heb18d397fb6127d0E, symObjAddr: 0x24410, symBinAddr: 0x10001B0B4, symSize: 0x38 }
  - { offset: 0x13D7F, size: 0x8, addend: 0x0, symName: '__ZN50_$LT$$BP$mut$u20$T$u20$as$u20$core..fmt..Debug$GT$3fmt17hc506ef24e45fcfffE', symObjAddr: 0x31FD4, symBinAddr: 0x100024D78, symSize: 0x8 }
  - { offset: 0x13D9D, size: 0x8, addend: 0x0, symName: '__ZN50_$LT$$BP$mut$u20$T$u20$as$u20$core..fmt..Debug$GT$3fmt17hc506ef24e45fcfffE', symObjAddr: 0x31FD4, symBinAddr: 0x100024D78, symSize: 0x8 }
  - { offset: 0x13DCC, size: 0x8, addend: 0x0, symName: '__ZN52_$LT$$RF$mut$u20$T$u20$as$u20$core..fmt..Display$GT$3fmt17hbaf30795b8d3c4d8E', symObjAddr: 0x3262C, symBinAddr: 0x100024D80, symSize: 0x10 }
  - { offset: 0x16122, size: 0x8, addend: 0x0, symName: '__ZN4core3ptr107drop_in_place$LT$core..pin..Pin$LT$alloc..boxed..Box$LT$std..sys..pal..unix..sync..mutex..Mutex$GT$$GT$$GT$17hbd21784a02a2f8d1E', symObjAddr: 0x24A20, symBinAddr: 0x10001B2A4, symSize: 0x2C }
  - { offset: 0x161B9, size: 0x8, addend: 0x0, symName: '__ZN4core3ptr109drop_in_place$LT$alloc..sync..Arc$LT$std..sync..poison..mutex..Mutex$LT$alloc..vec..Vec$LT$u8$GT$$GT$$GT$$GT$17h5646c21d902a9b21E', symObjAddr: 0x24A4C, symBinAddr: 0x10001B2D0, symSize: 0x20 }
  - { offset: 0x161D0, size: 0x8, addend: 0x0, symName: '__ZN4core3ptr109drop_in_place$LT$alloc..sync..Arc$LT$std..sync..poison..mutex..Mutex$LT$alloc..vec..Vec$LT$u8$GT$$GT$$GT$$GT$17h5646c21d902a9b21E', symObjAddr: 0x24A4C, symBinAddr: 0x10001B2D0, symSize: 0x20 }
  - { offset: 0x161E5, size: 0x8, addend: 0x0, symName: '__ZN4core3ptr109drop_in_place$LT$alloc..sync..Arc$LT$std..sync..poison..mutex..Mutex$LT$alloc..vec..Vec$LT$u8$GT$$GT$$GT$$GT$17h5646c21d902a9b21E', symObjAddr: 0x24A4C, symBinAddr: 0x10001B2D0, symSize: 0x20 }
  - { offset: 0x161FA, size: 0x8, addend: 0x0, symName: '__ZN4core3ptr109drop_in_place$LT$alloc..sync..Arc$LT$std..sync..poison..mutex..Mutex$LT$alloc..vec..Vec$LT$u8$GT$$GT$$GT$$GT$17h5646c21d902a9b21E', symObjAddr: 0x24A4C, symBinAddr: 0x10001B2D0, symSize: 0x20 }
  - { offset: 0x1624E, size: 0x8, addend: 0x0, symName: '__ZN4core3ptr119drop_in_place$LT$std..io..default_write_fmt..Adapter$LT$std..io..cursor..Cursor$LT$$RF$mut$u20$$u5b$u8$u5d$$GT$$GT$$GT$17hd94de8f89bec7782E', symObjAddr: 0x24AE8, symBinAddr: 0x10001B2F0, symSize: 0x10 }
  - { offset: 0x16265, size: 0x8, addend: 0x0, symName: '__ZN4core3ptr119drop_in_place$LT$std..io..default_write_fmt..Adapter$LT$std..io..cursor..Cursor$LT$$RF$mut$u20$$u5b$u8$u5d$$GT$$GT$$GT$17hd94de8f89bec7782E', symObjAddr: 0x24AE8, symBinAddr: 0x10001B2F0, symSize: 0x10 }
  - { offset: 0x16278, size: 0x8, addend: 0x0, symName: '__ZN4core3ptr123drop_in_place$LT$addr2line..Context$LT$gimli..read..endian_slice..EndianSlice$LT$gimli..endianity..LittleEndian$GT$$GT$$GT$17h60120d8b61f786aeE', symObjAddr: 0x24AF8, symBinAddr: 0x10001B300, symSize: 0x70 }
  - { offset: 0x16331, size: 0x8, addend: 0x0, symName: '__ZN4core3ptr128drop_in_place$LT$core..result..Result$LT$$RF$std..thread..Thread$C$$LP$$RF$std..thread..Thread$C$std..thread..Thread$RP$$GT$$GT$17h75718b8337910809E', symObjAddr: 0x24B68, symBinAddr: 0x10001B370, symSize: 0x28 }
  - { offset: 0x16487, size: 0x8, addend: 0x0, symName: '__ZN4core3ptr129drop_in_place$LT$addr2line..unit..ResUnit$LT$gimli..read..endian_slice..EndianSlice$LT$gimli..endianity..LittleEndian$GT$$GT$$GT$17h61db7baa14403ae7E', symObjAddr: 0x24B90, symBinAddr: 0x10001B398, symSize: 0xE4 }
  - { offset: 0x166A9, size: 0x8, addend: 0x0, symName: '__ZN4core3ptr129drop_in_place$LT$addr2line..unit..SupUnit$LT$gimli..read..endian_slice..EndianSlice$LT$gimli..endianity..LittleEndian$GT$$GT$$GT$17hbd87d71db3a78ec7E', symObjAddr: 0x24C74, symBinAddr: 0x10001B47C, symSize: 0x54 }
  - { offset: 0x16768, size: 0x8, addend: 0x0, symName: '__ZN4core3ptr130drop_in_place$LT$addr2line..unit..ResUnits$LT$gimli..read..endian_slice..EndianSlice$LT$gimli..endianity..LittleEndian$GT$$GT$$GT$17hb2ce511d8969e07fE', symObjAddr: 0x24CC8, symBinAddr: 0x10001B4D0, symSize: 0xD0 }
  - { offset: 0x16911, size: 0x8, addend: 0x0, symName: '__ZN4core3ptr130drop_in_place$LT$addr2line..unit..SupUnits$LT$gimli..read..endian_slice..EndianSlice$LT$gimli..endianity..LittleEndian$GT$$GT$$GT$17h3d17c95ef0deb2d2E', symObjAddr: 0x24D98, symBinAddr: 0x10001B5A0, symSize: 0xE4 }
  - { offset: 0x16AC1, size: 0x8, addend: 0x0, symName: '__ZN4core3ptr130drop_in_place$LT$gimli..read..dwarf..Dwarf$LT$gimli..read..endian_slice..EndianSlice$LT$gimli..endianity..LittleEndian$GT$$GT$$GT$17hc9e7ef4be229448fE', symObjAddr: 0x24E7C, symBinAddr: 0x10001B684, symSize: 0x58 }
  - { offset: 0x16B57, size: 0x8, addend: 0x0, symName: '__ZN4core3ptr131drop_in_place$LT$$u5b$core..option..Option$LT$core..option..Option$LT$std..backtrace_rs..symbolize..gimli..Mapping$GT$$GT$$u5d$$GT$17hbc1f61e360e1245cE', symObjAddr: 0x24ED4, symBinAddr: 0x10001B6DC, symSize: 0xCC }
  - { offset: 0x16C01, size: 0x8, addend: 0x0, symName: '__ZN4core3ptr131drop_in_place$LT$alloc..boxed..Box$LT$dyn$u20$core..ops..function..FnOnce$LT$$LP$$RP$$GT$$u2b$Output$u20$$u3d$$u20$$LP$$RP$$GT$$GT$17hcd6787f4796be228E', symObjAddr: 0x24FA0, symBinAddr: 0x10001B7A8, symSize: 0x78 }
  - { offset: 0x16CEC, size: 0x8, addend: 0x0, symName: '__ZN4core3ptr137drop_in_place$LT$gimli..read..dwarf..Unit$LT$gimli..read..endian_slice..EndianSlice$LT$gimli..endianity..LittleEndian$GT$$C$usize$GT$$GT$17ha92b70ae8706df64E', symObjAddr: 0x25018, symBinAddr: 0x10001B820, symSize: 0x54 }
  - { offset: 0x16DE9, size: 0x8, addend: 0x0, symName: '__ZN4core3ptr138drop_in_place$LT$addr2line..function..LazyFunction$LT$gimli..read..endian_slice..EndianSlice$LT$gimli..endianity..LittleEndian$GT$$GT$$GT$17h5b1532da9ccb5096E', symObjAddr: 0x2506C, symBinAddr: 0x10001B874, symSize: 0x64 }
  - { offset: 0x16E00, size: 0x8, addend: 0x0, symName: '__ZN4core3ptr138drop_in_place$LT$addr2line..function..LazyFunction$LT$gimli..read..endian_slice..EndianSlice$LT$gimli..endianity..LittleEndian$GT$$GT$$GT$17h5b1532da9ccb5096E', symObjAddr: 0x2506C, symBinAddr: 0x10001B874, symSize: 0x64 }
  - { offset: 0x16E15, size: 0x8, addend: 0x0, symName: '__ZN4core3ptr138drop_in_place$LT$addr2line..function..LazyFunction$LT$gimli..read..endian_slice..EndianSlice$LT$gimli..endianity..LittleEndian$GT$$GT$$GT$17h5b1532da9ccb5096E', symObjAddr: 0x2506C, symBinAddr: 0x10001B874, symSize: 0x64 }
  - { offset: 0x16E2A, size: 0x8, addend: 0x0, symName: '__ZN4core3ptr138drop_in_place$LT$addr2line..function..LazyFunction$LT$gimli..read..endian_slice..EndianSlice$LT$gimli..endianity..LittleEndian$GT$$GT$$GT$17h5b1532da9ccb5096E', symObjAddr: 0x2506C, symBinAddr: 0x10001B874, symSize: 0x64 }
  - { offset: 0x16F5E, size: 0x8, addend: 0x0, symName: '__ZN4core3ptr144drop_in_place$LT$alloc..vec..Vec$LT$core..option..Option$LT$core..option..Option$LT$std..backtrace_rs..symbolize..gimli..Mapping$GT$$GT$$GT$$GT$17h76825e3abe87d450E', symObjAddr: 0x250D0, symBinAddr: 0x10001B8D8, symSize: 0x78 }
  - { offset: 0x170B8, size: 0x8, addend: 0x0, symName: '__ZN4core3ptr152drop_in_place$LT$alloc..vec..Vec$LT$addr2line..unit..ResUnit$LT$gimli..read..endian_slice..EndianSlice$LT$gimli..endianity..LittleEndian$GT$$GT$$GT$$GT$17h6c57a6c544237a87E', symObjAddr: 0x25204, symBinAddr: 0x10001B950, symSize: 0xC4 }
  - { offset: 0x17227, size: 0x8, addend: 0x0, symName: '__ZN4core3ptr152drop_in_place$LT$alloc..vec..Vec$LT$addr2line..unit..SupUnit$LT$gimli..read..endian_slice..EndianSlice$LT$gimli..endianity..LittleEndian$GT$$GT$$GT$$GT$17h5ad4c72a1632250dE', symObjAddr: 0x252C8, symBinAddr: 0x10001BA14, symSize: 0xF4 }
  - { offset: 0x1743F, size: 0x8, addend: 0x0, symName: '__ZN4core3ptr156drop_in_place$LT$alloc..boxed..Box$LT$$u5b$core..option..Option$LT$core..option..Option$LT$std..backtrace_rs..symbolize..gimli..Mapping$GT$$GT$$u5d$$GT$$GT$17hcb1b2da851a6d067E', symObjAddr: 0x253BC, symBinAddr: 0x10001BB08, symSize: 0xF8 }
  - { offset: 0x17569, size: 0x8, addend: 0x0, symName: '__ZN4core3ptr159drop_in_place$LT$alloc..sync..ArcInner$LT$gimli..read..dwarf..Dwarf$LT$gimli..read..endian_slice..EndianSlice$LT$gimli..endianity..LittleEndian$GT$$GT$$GT$$GT$17h7de780a0c68b30e9E', symObjAddr: 0x25544, symBinAddr: 0x10001BC00, symSize: 0x5C }
  - { offset: 0x1762E, size: 0x8, addend: 0x0, symName: '__ZN4core3ptr161drop_in_place$LT$alloc..vec..Vec$LT$addr2line..function..LazyFunction$LT$gimli..read..endian_slice..EndianSlice$LT$gimli..endianity..LittleEndian$GT$$GT$$GT$$GT$17h3d6d53657b9c2934E', symObjAddr: 0x255A0, symBinAddr: 0x10001BC5C, symSize: 0xAC }
  - { offset: 0x1786B, size: 0x8, addend: 0x0, symName: '__ZN4core3ptr172drop_in_place$LT$core..result..Result$LT$addr2line..Context$LT$gimli..read..endian_slice..EndianSlice$LT$gimli..endianity..LittleEndian$GT$$GT$$C$gimli..read..Error$GT$$GT$17h4bff534e67e3d6dbE', symObjAddr: 0x256F8, symBinAddr: 0x10001BD08, symSize: 0x80 }
  - { offset: 0x17900, size: 0x8, addend: 0x0, symName: '__ZN4core3ptr173drop_in_place$LT$alloc..boxed..Box$LT$$u5b$addr2line..function..LazyFunction$LT$gimli..read..endian_slice..EndianSlice$LT$gimli..endianity..LittleEndian$GT$$GT$$u5d$$GT$$GT$17h2cad5765df2f5de8E', symObjAddr: 0x25778, symBinAddr: 0x10001BD88, symSize: 0x9C }
  - { offset: 0x17917, size: 0x8, addend: 0x0, symName: '__ZN4core3ptr173drop_in_place$LT$alloc..boxed..Box$LT$$u5b$addr2line..function..LazyFunction$LT$gimli..read..endian_slice..EndianSlice$LT$gimli..endianity..LittleEndian$GT$$GT$$u5d$$GT$$GT$17h2cad5765df2f5de8E', symObjAddr: 0x25778, symBinAddr: 0x10001BD88, symSize: 0x9C }
  - { offset: 0x17AEC, size: 0x8, addend: 0x0, symName: '__ZN4core3ptr181drop_in_place$LT$core..option..Option$LT$gimli..read..line..IncompleteLineProgram$LT$gimli..read..endian_slice..EndianSlice$LT$gimli..endianity..LittleEndian$GT$$C$usize$GT$$GT$$GT$17h4072838a3a3bc029E', symObjAddr: 0x25884, symBinAddr: 0x10001BE24, symSize: 0x98 }
  - { offset: 0x17D45, size: 0x8, addend: 0x0, symName: '__ZN4core3ptr181drop_in_place$LT$core..result..Result$LT$addr2line..frame..FrameIter$LT$gimli..read..endian_slice..EndianSlice$LT$gimli..endianity..LittleEndian$GT$$GT$$C$gimli..read..Error$GT$$GT$17h1a8da6a3f705e13bE', symObjAddr: 0x2591C, symBinAddr: 0x10001BEBC, symSize: 0x34 }
  - { offset: 0x17E83, size: 0x8, addend: 0x0, symName: '__ZN4core3ptr184drop_in_place$LT$core..result..Result$LT$addr2line..function..Functions$LT$gimli..read..endian_slice..EndianSlice$LT$gimli..endianity..LittleEndian$GT$$GT$$C$gimli..read..Error$GT$$GT$17h9a3bad25e1bdcbe6E', symObjAddr: 0x25950, symBinAddr: 0x10001BEF0, symSize: 0xD8 }
  - { offset: 0x18113, size: 0x8, addend: 0x0, symName: '__ZN4core3ptr194drop_in_place$LT$core..result..Result$LT$std..sync..poison..mutex..MutexGuard$LT$$LP$$RP$$GT$$C$std..sync..poison..PoisonError$LT$std..sync..poison..mutex..MutexGuard$LT$$LP$$RP$$GT$$GT$$GT$$GT$17h0271d4bb6050713eE', symObjAddr: 0x25A9C, symBinAddr: 0x10001BFC8, symSize: 0x4C }
  - { offset: 0x18151, size: 0x8, addend: 0x0, symName: '__ZN4core3ptr231drop_in_place$LT$core..result..Result$LT$core..option..Option$LT$alloc..boxed..Box$LT$addr2line..unit..DwoUnit$LT$gimli..read..endian_slice..EndianSlice$LT$gimli..endianity..LittleEndian$GT$$GT$$GT$$GT$$C$gimli..read..Error$GT$$GT$17h6cb514b393938b83E', symObjAddr: 0x25AE8, symBinAddr: 0x10001C014, symSize: 0xD4 }
  - { offset: 0x1832C, size: 0x8, addend: 0x0, symName: '__ZN4core3ptr238drop_in_place$LT$alloc..boxed..convert..$LT$impl$u20$core..convert..From$LT$alloc..string..String$GT$$u20$for$u20$alloc..boxed..Box$LT$dyn$u20$core..error..Error$u2b$core..marker..Sync$u2b$core..marker..Send$GT$$GT$..from..StringError$GT$17h021cfce481c078aaE', symObjAddr: 0x25BBC, symBinAddr: 0x10001C0E8, symSize: 0x18 }
  - { offset: 0x18343, size: 0x8, addend: 0x0, symName: '__ZN4core3ptr238drop_in_place$LT$alloc..boxed..convert..$LT$impl$u20$core..convert..From$LT$alloc..string..String$GT$$u20$for$u20$alloc..boxed..Box$LT$dyn$u20$core..error..Error$u2b$core..marker..Sync$u2b$core..marker..Send$GT$$GT$..from..StringError$GT$17h021cfce481c078aaE', symObjAddr: 0x25BBC, symBinAddr: 0x10001C0E8, symSize: 0x18 }
  - { offset: 0x18358, size: 0x8, addend: 0x0, symName: '__ZN4core3ptr238drop_in_place$LT$alloc..boxed..convert..$LT$impl$u20$core..convert..From$LT$alloc..string..String$GT$$u20$for$u20$alloc..boxed..Box$LT$dyn$u20$core..error..Error$u2b$core..marker..Sync$u2b$core..marker..Send$GT$$GT$..from..StringError$GT$17h021cfce481c078aaE', symObjAddr: 0x25BBC, symBinAddr: 0x10001C0E8, symSize: 0x18 }
  - { offset: 0x183D7, size: 0x8, addend: 0x0, symName: '__ZN4core3ptr275drop_in_place$LT$gimli..read..line..LineRows$LT$gimli..read..endian_slice..EndianSlice$LT$gimli..endianity..LittleEndian$GT$$C$gimli..read..line..IncompleteLineProgram$LT$gimli..read..endian_slice..EndianSlice$LT$gimli..endianity..LittleEndian$GT$$C$usize$GT$$C$usize$GT$$GT$17h53f25b84add21487E', symObjAddr: 0x25BD4, symBinAddr: 0x10001C100, symSize: 0x8C }
  - { offset: 0x1864C, size: 0x8, addend: 0x0, symName: '__ZN4core3ptr280drop_in_place$LT$$LT$alloc..collections..btree..map..IntoIter$LT$K$C$V$C$A$GT$$u20$as$u20$core..ops..drop..Drop$GT$..drop..DropGuard$LT$u64$C$core..result..Result$LT$alloc..sync..Arc$LT$gimli..read..abbrev..Abbreviations$GT$$C$gimli..read..Error$GT$$C$alloc..alloc..Global$GT$$GT$17hcc27088c1e07f147E', symObjAddr: 0x25C60, symBinAddr: 0x10001C18C, symSize: 0x84 }
  - { offset: 0x187BC, size: 0x8, addend: 0x0, symName: '__ZN4core3ptr284drop_in_place$LT$core..result..Result$LT$$RF$core..result..Result$LT$addr2line..line..Lines$C$gimli..read..Error$GT$$C$$LP$$RF$core..result..Result$LT$addr2line..line..Lines$C$gimli..read..Error$GT$$C$core..result..Result$LT$addr2line..line..Lines$C$gimli..read..Error$GT$$RP$$GT$$GT$17hb193a9c217a4a4c1E', symObjAddr: 0x25CE4, symBinAddr: 0x10001C210, symSize: 0x10 }
  - { offset: 0x187ED, size: 0x8, addend: 0x0, symName: '__ZN4core3ptr37drop_in_place$LT$std..env..VarsOs$GT$17h72b80feb8ea238e8E', symObjAddr: 0x25CF4, symBinAddr: 0x10001C220, symSize: 0xAC }
  - { offset: 0x18AC2, size: 0x8, addend: 0x0, symName: '__ZN4core3ptr42drop_in_place$LT$alloc..string..String$GT$17hf6a0412a3add09b1E', symObjAddr: 0x25EA8, symBinAddr: 0x10001C2CC, symSize: 0x18 }
  - { offset: 0x18AD9, size: 0x8, addend: 0x0, symName: '__ZN4core3ptr42drop_in_place$LT$alloc..string..String$GT$17hf6a0412a3add09b1E', symObjAddr: 0x25EA8, symBinAddr: 0x10001C2CC, symSize: 0x18 }
  - { offset: 0x18B57, size: 0x8, addend: 0x0, symName: '__ZN4core3ptr42drop_in_place$LT$std..io..error..Error$GT$17hf851d76d73342388E', symObjAddr: 0x25EC0, symBinAddr: 0x10001C2E4, symSize: 0xAC }
  - { offset: 0x18D3B, size: 0x8, addend: 0x0, symName: '__ZN4core3ptr44drop_in_place$LT$object..read..ObjectMap$GT$17h0847af56bc5df22dE', symObjAddr: 0x25F6C, symBinAddr: 0x10001C390, symSize: 0x58 }
  - { offset: 0x18E6A, size: 0x8, addend: 0x0, symName: '__ZN4core3ptr46drop_in_place$LT$alloc..vec..Vec$LT$u8$GT$$GT$17hba5d5d275589670eE', symObjAddr: 0x26030, symBinAddr: 0x10001C3E8, symSize: 0x18 }
  - { offset: 0x18EE9, size: 0x8, addend: 0x0, symName: '__ZN4core3ptr46drop_in_place$LT$std..io..stdio..StdinLock$GT$17h0f6294c31e8bd6fbE', symObjAddr: 0x26048, symBinAddr: 0x10001C400, symSize: 0x54 }
  - { offset: 0x18F00, size: 0x8, addend: 0x0, symName: '__ZN4core3ptr46drop_in_place$LT$std..io..stdio..StdinLock$GT$17h0f6294c31e8bd6fbE', symObjAddr: 0x26048, symBinAddr: 0x10001C400, symSize: 0x54 }
  - { offset: 0x18F15, size: 0x8, addend: 0x0, symName: '__ZN4core3ptr46drop_in_place$LT$std..io..stdio..StdinLock$GT$17h0f6294c31e8bd6fbE', symObjAddr: 0x26048, symBinAddr: 0x10001C400, symSize: 0x54 }
  - { offset: 0x18FF9, size: 0x8, addend: 0x0, symName: '__ZN4core3ptr48drop_in_place$LT$alloc..ffi..c_str..NulError$GT$17h4b149f15bda11918E', symObjAddr: 0x26180, symBinAddr: 0x10001C454, symSize: 0x18 }
  - { offset: 0x19010, size: 0x8, addend: 0x0, symName: '__ZN4core3ptr48drop_in_place$LT$alloc..ffi..c_str..NulError$GT$17h4b149f15bda11918E', symObjAddr: 0x26180, symBinAddr: 0x10001C454, symSize: 0x18 }
  - { offset: 0x1909C, size: 0x8, addend: 0x0, symName: '__ZN4core3ptr557drop_in_place$LT$core..result..Result$LT$$RF$core..result..Result$LT$addr2line..function..Function$LT$gimli..read..endian_slice..EndianSlice$LT$gimli..endianity..LittleEndian$GT$$GT$$C$gimli..read..Error$GT$$C$$LP$$RF$core..result..Result$LT$addr2line..function..Function$LT$gimli..read..endian_slice..EndianSlice$LT$gimli..endianity..LittleEndian$GT$$GT$$C$gimli..read..Error$GT$$C$core..result..Result$LT$addr2line..function..Function$LT$gimli..read..endian_slice..EndianSlice$LT$gimli..endianity..LittleEndian$GT$$GT$$C$gimli..read..Error$GT$$RP$$GT$$GT$17hddd2d7300f8297eaE', symObjAddr: 0x26458, symBinAddr: 0x10001C46C, symSize: 0x64 }
  - { offset: 0x19286, size: 0x8, addend: 0x0, symName: '__ZN4core3ptr55drop_in_place$LT$gimli..read..abbrev..Abbreviations$GT$17h8587e1680933f2fcE', symObjAddr: 0x264BC, symBinAddr: 0x10001C4D0, symSize: 0x118 }
  - { offset: 0x195F7, size: 0x8, addend: 0x0, symName: '__ZN4core3ptr560drop_in_place$LT$core..result..Result$LT$$RF$core..result..Result$LT$addr2line..function..Functions$LT$gimli..read..endian_slice..EndianSlice$LT$gimli..endianity..LittleEndian$GT$$GT$$C$gimli..read..Error$GT$$C$$LP$$RF$core..result..Result$LT$addr2line..function..Functions$LT$gimli..read..endian_slice..EndianSlice$LT$gimli..endianity..LittleEndian$GT$$GT$$C$gimli..read..Error$GT$$C$core..result..Result$LT$addr2line..function..Functions$LT$gimli..read..endian_slice..EndianSlice$LT$gimli..endianity..LittleEndian$GT$$GT$$C$gimli..read..Error$GT$$RP$$GT$$GT$17he4dc02a625b1da45E', symObjAddr: 0x266E4, symBinAddr: 0x10001C5E8, symSize: 0x10 }
  - { offset: 0x19652, size: 0x8, addend: 0x0, symName: '__ZN4core3ptr60drop_in_place$LT$gimli..read..abbrev..AbbreviationsCache$GT$17h05dc331b510e23d9E', symObjAddr: 0x266F4, symBinAddr: 0x10001C5F8, symSize: 0xCC }
  - { offset: 0x197FD, size: 0x8, addend: 0x0, symName: '__ZN4core3ptr64drop_in_place$LT$std..sys..pal..unix..sync..mutex..AttrGuard$GT$17he7e52a9dfb22022eE', symObjAddr: 0x2682C, symBinAddr: 0x10001C6C4, symSize: 0x48 }
  - { offset: 0x19820, size: 0x8, addend: 0x0, symName: '__ZN4core3ptr64drop_in_place$LT$std..sys..process..unix..common..ChildPipes$GT$17hd9f6e3b60aa15aaeE', symObjAddr: 0x26874, symBinAddr: 0x10001C70C, symSize: 0x78 }
  - { offset: 0x19922, size: 0x8, addend: 0x0, symName: '__ZN4core3ptr64drop_in_place$LT$std..sys..process..unix..common..StdioPipes$GT$17hb8ed25505eeea22fE', symObjAddr: 0x268EC, symBinAddr: 0x10001C784, symSize: 0x54 }
  - { offset: 0x19A9A, size: 0x8, addend: 0x0, symName: '__ZN4core3ptr65drop_in_place$LT$alloc..vec..Vec$LT$alloc..string..String$GT$$GT$17h1a875569544aab8bE', symObjAddr: 0x26940, symBinAddr: 0x10001C7D8, symSize: 0x80 }
  - { offset: 0x19C00, size: 0x8, addend: 0x0, symName: '__ZN4core3ptr65drop_in_place$LT$std..backtrace_rs..symbolize..gimli..Context$GT$17h29923633989d7a97E', symObjAddr: 0x269C0, symBinAddr: 0x10001C858, symSize: 0xE8 }
  - { offset: 0x19E92, size: 0x8, addend: 0x0, symName: '__ZN4core3ptr66drop_in_place$LT$std..backtrace_rs..backtrace..libunwind..Bomb$GT$17hf3cf99a2a39305f3E', symObjAddr: 0x26AA8, symBinAddr: 0x10001C940, symSize: 0x40 }
  - { offset: 0x19EDE, size: 0x8, addend: 0x0, symName: '__ZN4core3ptr701drop_in_place$LT$core..result..Result$LT$$RF$core..result..Result$LT$core..option..Option$LT$alloc..boxed..Box$LT$addr2line..unit..DwoUnit$LT$gimli..read..endian_slice..EndianSlice$LT$gimli..endianity..LittleEndian$GT$$GT$$GT$$GT$$C$gimli..read..Error$GT$$C$$LP$$RF$core..result..Result$LT$core..option..Option$LT$alloc..boxed..Box$LT$addr2line..unit..DwoUnit$LT$gimli..read..endian_slice..EndianSlice$LT$gimli..endianity..LittleEndian$GT$$GT$$GT$$GT$$C$gimli..read..Error$GT$$C$core..result..Result$LT$core..option..Option$LT$alloc..boxed..Box$LT$addr2line..unit..DwoUnit$LT$gimli..read..endian_slice..EndianSlice$LT$gimli..endianity..LittleEndian$GT$$GT$$GT$$GT$$C$gimli..read..Error$GT$$RP$$GT$$GT$17hf93357a84d00fc7eE', symObjAddr: 0x26AE8, symBinAddr: 0x10001C980, symSize: 0x14 }
  - { offset: 0x19F7F, size: 0x8, addend: 0x0, symName: '__ZN4core3ptr70drop_in_place$LT$std..backtrace_rs..symbolize..gimli..stash..Stash$GT$17hed8a877d9cede334E', symObjAddr: 0x26AFC, symBinAddr: 0x10001C994, symSize: 0xB8 }
  - { offset: 0x1A225, size: 0x8, addend: 0x0, symName: '__ZN4core3ptr71drop_in_place$LT$std..backtrace_rs..symbolize..gimli..macho..Object$GT$17h869151e7b414cfd4E', symObjAddr: 0x26BB4, symBinAddr: 0x10001CA4C, symSize: 0xD8 }
  - { offset: 0x1A4EA, size: 0x8, addend: 0x0, symName: '__ZN4core3ptr71drop_in_place$LT$std..panicking..panic_handler..FormatStringPayload$GT$17h837459f0acb2901dE', symObjAddr: 0x26C8C, symBinAddr: 0x10001CB24, symSize: 0x1C }
  - { offset: 0x1A5A6, size: 0x8, addend: 0x0, symName: '__ZN4core3ptr72drop_in_place$LT$core..option..Option$LT$object..read..ObjectMap$GT$$GT$17h379eb7351ada8367E', symObjAddr: 0x26CA8, symBinAddr: 0x10001CB40, symSize: 0x64 }
  - { offset: 0x1A723, size: 0x8, addend: 0x0, symName: '__ZN4core3ptr73drop_in_place$LT$alloc..vec..Vec$LT$addr2line..line..LineSequence$GT$$GT$17h677f3e6952565af2E', symObjAddr: 0x26D0C, symBinAddr: 0x10001CBA4, symSize: 0x84 }
  - { offset: 0x1A87B, size: 0x8, addend: 0x0, symName: '__ZN4core3ptr77drop_in_place$LT$alloc..boxed..Box$LT$$u5b$alloc..string..String$u5d$$GT$$GT$17h78b274672de7575aE', symObjAddr: 0x26DC8, symBinAddr: 0x10001CC28, symSize: 0x70 }
  - { offset: 0x1A892, size: 0x8, addend: 0x0, symName: '__ZN4core3ptr77drop_in_place$LT$alloc..boxed..Box$LT$$u5b$alloc..string..String$u5d$$GT$$GT$17h78b274672de7575aE', symObjAddr: 0x26DC8, symBinAddr: 0x10001CC28, symSize: 0x70 }
  - { offset: 0x1A990, size: 0x8, addend: 0x0, symName: '__ZN4core3ptr78drop_in_place$LT$core..result..Result$LT$usize$C$std..io..error..Error$GT$$GT$17hc6788729ea2462fdE', symObjAddr: 0x26E38, symBinAddr: 0x10001CC98, symSize: 0x10 }
  - { offset: 0x1A9A4, size: 0x8, addend: 0x0, symName: '__ZN4core3ptr79drop_in_place$LT$std..sync..poison..rwlock..RwLockReadGuard$LT$$LP$$RP$$GT$$GT$17ha956672fedf200a4E', symObjAddr: 0x26E48, symBinAddr: 0x10001CCA8, symSize: 0x58 }
  - { offset: 0x1AA40, size: 0x8, addend: 0x0, symName: '__ZN4core3ptr81drop_in_place$LT$core..result..Result$LT$$LP$$RP$$C$std..io..error..Error$GT$$GT$17h655ff33c339b6cb1E', symObjAddr: 0x26F48, symBinAddr: 0x10001CD00, symSize: 0x10 }
  - { offset: 0x1AA70, size: 0x8, addend: 0x0, symName: '__ZN4core3ptr81drop_in_place$LT$std..sys..process..unix..common..cstring_array..CStringArray$GT$17h515599651e1fa0b6E', symObjAddr: 0x26F58, symBinAddr: 0x10001CD10, symSize: 0xD0 }
  - { offset: 0x1ADB8, size: 0x8, addend: 0x0, symName: '__ZN4core3ptr82drop_in_place$LT$alloc..sync..ArcInner$LT$std..sys..fs..unix..InnerReadDir$GT$$GT$17hef996e0988305eb0E', symObjAddr: 0x27028, symBinAddr: 0x10001CDE0, symSize: 0x60 }
  - { offset: 0x1AF5B, size: 0x8, addend: 0x0, symName: '__ZN4core3ptr84drop_in_place$LT$$LP$std..ffi..os_str..OsString$C$std..ffi..os_str..OsString$RP$$GT$17ha887c41ca18d2aecE', symObjAddr: 0x27088, symBinAddr: 0x10001CE40, symSize: 0x4C }
  - { offset: 0x1B0A8, size: 0x8, addend: 0x0, symName: '__ZN4core3ptr90drop_in_place$LT$std..io..buffered..bufwriter..BufWriter$LT$W$GT$..flush_buf..BufGuard$GT$17h43652e1c305a1ff2E', symObjAddr: 0x27110, symBinAddr: 0x10001CE8C, symSize: 0x5C }
  - { offset: 0x1B22F, size: 0x8, addend: 0x0, symName: '__ZN4core3ptr92drop_in_place$LT$core..result..Result$LT$addr2line..line..Lines$C$gimli..read..Error$GT$$GT$17ha1897ab6fc371eb0E', symObjAddr: 0x271BC, symBinAddr: 0x10001CEE8, symSize: 0xE4 }
  - { offset: 0x1B475, size: 0x8, addend: 0x0, symName: '__ZN4core3ptr93drop_in_place$LT$core..option..Option$LT$std..backtrace_rs..symbolize..gimli..Mapping$GT$$GT$17hd2c3071a4d1fdf1cE', symObjAddr: 0x272A0, symBinAddr: 0x10001CFCC, symSize: 0x6C }
  - { offset: 0x1B504, size: 0x8, addend: 0x0, symName: '__ZN4core3ptr95drop_in_place$LT$std..io..buffered..linewriter..LineWriter$LT$std..io..stdio..StdoutRaw$GT$$GT$17hcbf77a70a86af71fE', symObjAddr: 0x2730C, symBinAddr: 0x10001D038, symSize: 0xF8 }
  - { offset: 0x1D69F, size: 0x8, addend: 0x0, symName: __ZN4core5panic12PanicPayload6as_str17h1071335dd01dc3a9E, symObjAddr: 0x2A418, symBinAddr: 0x10001D25C, symSize: 0x8 }
  - { offset: 0x1DEF2, size: 0x8, addend: 0x0, symName: '__ZN70_$LT$core..num..error..TryFromIntError$u20$as$u20$core..fmt..Debug$GT$3fmt17h14ce7830233a5c8dE', symObjAddr: 0x46EFC, symBinAddr: 0x100030DB4, symSize: 0x40 }
  - { offset: 0x1FA42, size: 0x8, addend: 0x0, symName: __ZN4core5slice4sort8unstable7ipnsort17h5d7543a75d941cffE, symObjAddr: 0x310D0, symBinAddr: 0x100023F14, symSize: 0xEC }
  - { offset: 0x1FB84, size: 0x8, addend: 0x0, symName: __ZN4core5slice4sort8unstable7ipnsort17h62c8a47683a638f3E, symObjAddr: 0x311BC, symBinAddr: 0x100024000, symSize: 0x1A8 }
  - { offset: 0x1FE5F, size: 0x8, addend: 0x0, symName: __ZN4core5slice4sort8unstable8heapsort8heapsort17h301a034dfcc890faE, symObjAddr: 0x31364, symBinAddr: 0x1000241A8, symSize: 0x100 }
  - { offset: 0x2005B, size: 0x8, addend: 0x0, symName: __ZN4core5slice4sort8unstable8heapsort8heapsort17h5ff97107d3f154adE, symObjAddr: 0x31464, symBinAddr: 0x1000242A8, symSize: 0x160 }
  - { offset: 0x203FF, size: 0x8, addend: 0x0, symName: __ZN4core5slice4sort8unstable9quicksort9quicksort17h0ba40b7285a59f52E, symObjAddr: 0x315C4, symBinAddr: 0x100024408, symSize: 0x3F8 }
  - { offset: 0x20CC3, size: 0x8, addend: 0x0, symName: __ZN4core5slice4sort8unstable9quicksort9quicksort17h98476d76dc825101E, symObjAddr: 0x319BC, symBinAddr: 0x100024800, symSize: 0x578 }
  - { offset: 0x218CE, size: 0x8, addend: 0x0, symName: __ZN4core5slice4sort6stable14driftsort_main17h7ade04ab22cdd8f2E, symObjAddr: 0x2BCA0, symBinAddr: 0x10001EAE4, symSize: 0x140 }
  - { offset: 0x21B86, size: 0x8, addend: 0x0, symName: __ZN4core5slice4sort6stable14driftsort_main17h7b5faaae84c7cbb7E, symObjAddr: 0x2BDE0, symBinAddr: 0x10001EC24, symSize: 0x140 }
  - { offset: 0x21DBC, size: 0x8, addend: 0x0, symName: __ZN4core5slice4sort6stable14driftsort_main17ha9c3ec71caecf83fE, symObjAddr: 0x2BF20, symBinAddr: 0x10001ED64, symSize: 0x140 }
  - { offset: 0x22074, size: 0x8, addend: 0x0, symName: __ZN4core5slice4sort6stable14driftsort_main17had35389d5dd234b1E, symObjAddr: 0x2C060, symBinAddr: 0x10001EEA4, symSize: 0x158 }
  - { offset: 0x223A2, size: 0x8, addend: 0x0, symName: __ZN4core5slice4sort6stable14driftsort_main17hda7ba3b19d6fc900E, symObjAddr: 0x2C1B8, symBinAddr: 0x10001EFFC, symSize: 0x158 }
  - { offset: 0x226D0, size: 0x8, addend: 0x0, symName: __ZN4core5slice4sort6stable14driftsort_main17he0ade99dc0cb88f1E, symObjAddr: 0x2C310, symBinAddr: 0x10001F154, symSize: 0x140 }
  - { offset: 0x22B9C, size: 0x8, addend: 0x0, symName: __ZN4core5slice4sort6stable5drift4sort17h085f3b0b9c131daaE, symObjAddr: 0x2C450, symBinAddr: 0x10001F294, symSize: 0x53C }
  - { offset: 0x232A6, size: 0x8, addend: 0x0, symName: __ZN4core5slice4sort6stable5drift4sort17h0b0941fd53d2eb36E, symObjAddr: 0x2C98C, symBinAddr: 0x10001F7D0, symSize: 0x5EC }
  - { offset: 0x239D8, size: 0x8, addend: 0x0, symName: __ZN4core5slice4sort6stable5drift4sort17h6874b5ff9a1e9842E, symObjAddr: 0x2CF78, symBinAddr: 0x10001FDBC, symSize: 0x4F4 }
  - { offset: 0x240CC, size: 0x8, addend: 0x0, symName: __ZN4core5slice4sort6stable5drift4sort17hacafb250fe287f02E, symObjAddr: 0x2D46C, symBinAddr: 0x1000202B0, symSize: 0x4F4 }
  - { offset: 0x247C0, size: 0x8, addend: 0x0, symName: __ZN4core5slice4sort6stable5drift4sort17hb5c3f298be29b63dE, symObjAddr: 0x2D960, symBinAddr: 0x1000207A4, symSize: 0x4D8 }
  - { offset: 0x24E20, size: 0x8, addend: 0x0, symName: __ZN4core5slice4sort6stable5drift4sort17hd24339b1ba8572adE, symObjAddr: 0x2DE38, symBinAddr: 0x100020C7C, symSize: 0x538 }
  - { offset: 0x25727, size: 0x8, addend: 0x0, symName: __ZN4core5slice4sort6stable9quicksort9quicksort17h6b022558501172b1E, symObjAddr: 0x2E370, symBinAddr: 0x1000211B4, symSize: 0x820 }
  - { offset: 0x26719, size: 0x8, addend: 0x0, symName: __ZN4core5slice4sort6stable9quicksort9quicksort17h77925009546caf48E, symObjAddr: 0x2EB90, symBinAddr: 0x1000219D4, symSize: 0x834 }
  - { offset: 0x27364, size: 0x8, addend: 0x0, symName: __ZN4core5slice4sort6stable9quicksort9quicksort17h99c833017676aa53E, symObjAddr: 0x2F3C4, symBinAddr: 0x100022208, symSize: 0x6D8 }
  - { offset: 0x27E72, size: 0x8, addend: 0x0, symName: __ZN4core5slice4sort6stable9quicksort9quicksort17h9b2801c31f3c9e70E, symObjAddr: 0x2FA9C, symBinAddr: 0x1000228E0, symSize: 0x810 }
  - { offset: 0x28AB0, size: 0x8, addend: 0x0, symName: __ZN4core5slice4sort6stable9quicksort9quicksort17ha3ab17a848a79a77E, symObjAddr: 0x302AC, symBinAddr: 0x1000230F0, symSize: 0x6E0 }
  - { offset: 0x295BE, size: 0x8, addend: 0x0, symName: __ZN4core5slice4sort6stable9quicksort9quicksort17hd0cb711591baa19cE, symObjAddr: 0x3098C, symBinAddr: 0x1000237D0, symSize: 0x744 }
  - { offset: 0x29E1D, size: 0x8, addend: 0x0, symName: __ZN4core5slice4sort6shared9smallsort12sort4_stable17h0da1ce099c210ce9E, symObjAddr: 0x2AB44, symBinAddr: 0x10001D988, symSize: 0x180 }
  - { offset: 0x2A207, size: 0x8, addend: 0x0, symName: __ZN4core5slice4sort6shared9smallsort12sort4_stable17h139ca5c859589941E, symObjAddr: 0x2ACC4, symBinAddr: 0x10001DB08, symSize: 0x194 }
  - { offset: 0x2A3EC, size: 0x8, addend: 0x0, symName: __ZN4core5slice4sort6shared9smallsort12sort8_stable17h18703b6069e9c4ebE, symObjAddr: 0x2AE58, symBinAddr: 0x10001DC9C, symSize: 0x2B8 }
  - { offset: 0x2A8D5, size: 0x8, addend: 0x0, symName: __ZN4core5slice4sort6shared9smallsort18small_sort_general17h80ae0a6b297f62c8E, symObjAddr: 0x2B110, symBinAddr: 0x10001DF54, symSize: 0x4A0 }
  - { offset: 0x2AFE8, size: 0x8, addend: 0x0, symName: __ZN4core5slice4sort6shared9smallsort18small_sort_general17haab78fd802d5e9baE, symObjAddr: 0x2B5B0, symBinAddr: 0x10001E3F4, symSize: 0x408 }
  - { offset: 0x2B510, size: 0x8, addend: 0x0, symName: __ZN4core5slice4sort6shared9smallsort25insertion_sort_shift_left17h739d96d2d11fa27bE, symObjAddr: 0x2B9B8, symBinAddr: 0x10001E7FC, symSize: 0x94 }
  - { offset: 0x2B5E8, size: 0x8, addend: 0x0, symName: __ZN4core5slice4sort6shared9smallsort25insertion_sort_shift_left17hc977fb5c0688bf20E, symObjAddr: 0x2BA4C, symBinAddr: 0x10001E890, symSize: 0xB8 }
  - { offset: 0x2B708, size: 0x8, addend: 0x0, symName: __ZN4core5slice4sort6shared9smallsort25insertion_sort_shift_left17hcc529bd7abac8e25E, symObjAddr: 0x2BB04, symBinAddr: 0x10001E948, symSize: 0xF4 }
  - { offset: 0x2B8CE, size: 0x8, addend: 0x0, symName: __ZN4core5slice4sort6shared9smallsort25insertion_sort_shift_left17hdfffd6f60b981efdE, symObjAddr: 0x2BBF8, symBinAddr: 0x10001EA3C, symSize: 0xA8 }
  - { offset: 0x2BB98, size: 0x8, addend: 0x0, symName: __ZN4core5slice4sort6shared5pivot11median3_rec17h134b703ff6d407b9E, symObjAddr: 0x2A420, symBinAddr: 0x10001D264, symSize: 0xCC }
  - { offset: 0x2BCA3, size: 0x8, addend: 0x0, symName: __ZN4core5slice4sort6shared5pivot11median3_rec17h1e6e6b5a8f0d3c9dE, symObjAddr: 0x2A4EC, symBinAddr: 0x10001D330, symSize: 0xD0 }
  - { offset: 0x2BDB0, size: 0x8, addend: 0x0, symName: __ZN4core5slice4sort6shared5pivot11median3_rec17h4d263b5d0566d045E, symObjAddr: 0x2A5BC, symBinAddr: 0x10001D400, symSize: 0x11C }
  - { offset: 0x2BEC0, size: 0x8, addend: 0x0, symName: __ZN4core5slice4sort6shared5pivot11median3_rec17h6d7ff4f508e12b82E, symObjAddr: 0x2A6D8, symBinAddr: 0x10001D51C, symSize: 0xD0 }
  - { offset: 0x2BFCB, size: 0x8, addend: 0x0, symName: __ZN4core5slice4sort6shared5pivot11median3_rec17h988b88348782b889E, symObjAddr: 0x2A7A8, symBinAddr: 0x10001D5EC, symSize: 0xD0 }
  - { offset: 0x2C0D6, size: 0x8, addend: 0x0, symName: __ZN4core5slice4sort6shared5pivot11median3_rec17hb44c311f8a001b16E, symObjAddr: 0x2A878, symBinAddr: 0x10001D6BC, symSize: 0x134 }
  - { offset: 0x2C311, size: 0x8, addend: 0x0, symName: __ZN4core5slice4sort6shared5pivot11median3_rec17hd942f779595c303fE, symObjAddr: 0x2A9AC, symBinAddr: 0x10001D7F0, symSize: 0xCC }
  - { offset: 0x2C41C, size: 0x8, addend: 0x0, symName: __ZN4core5slice4sort6shared5pivot11median3_rec17hdd0991ed80ab6e2dE, symObjAddr: 0x2AA78, symBinAddr: 0x10001D8BC, symSize: 0xCC }
  - { offset: 0x2C654, size: 0x8, addend: 0x0, symName: '__ZN55_$LT$$RF$str$u20$as$u20$core..str..pattern..Pattern$GT$15is_contained_in17hc0a7ac267447aa23E', symObjAddr: 0x32C18, symBinAddr: 0x100024D90, symSize: 0x3C0 }
  - { offset: 0x2E317, size: 0x8, addend: 0x0, symName: '__ZN4core3ops8function6FnOnce40call_once$u7b$$u7b$vtable.shim$u7d$$u7d$17h08bb94a3fe447d9cE', symObjAddr: 0x246FC, symBinAddr: 0x10001B0EC, symSize: 0xC }
  - { offset: 0x2E368, size: 0x8, addend: 0x0, symName: '__ZN4core3ops8function6FnOnce40call_once$u7b$$u7b$vtable.shim$u7d$$u7d$17h26c3c42f9f96ed46E', symObjAddr: 0x24730, symBinAddr: 0x10001B0F8, symSize: 0x98 }
  - { offset: 0x2E4AE, size: 0x8, addend: 0x0, symName: '__ZN4core3ops8function6FnOnce40call_once$u7b$$u7b$vtable.shim$u7d$$u7d$17h38e4241864c84f10E', symObjAddr: 0x247C8, symBinAddr: 0x10001B190, symSize: 0x4 }
  - { offset: 0x2E4CB, size: 0x8, addend: 0x0, symName: '__ZN4core3ops8function6FnOnce40call_once$u7b$$u7b$vtable.shim$u7d$$u7d$17h38e4241864c84f10E', symObjAddr: 0x247C8, symBinAddr: 0x10001B190, symSize: 0x4 }
  - { offset: 0x2E4EA, size: 0x8, addend: 0x0, symName: '__ZN4core3ops8function6FnOnce40call_once$u7b$$u7b$vtable.shim$u7d$$u7d$17h3e7eda628a394e10E', symObjAddr: 0x247CC, symBinAddr: 0x10001B194, symSize: 0x60 }
  - { offset: 0x2E5CE, size: 0x8, addend: 0x0, symName: '__ZN4core3ops8function6FnOnce40call_once$u7b$$u7b$vtable.shim$u7d$$u7d$17h4e80488631bce74bE', symObjAddr: 0x2482C, symBinAddr: 0x10001B1F4, symSize: 0xC }
  - { offset: 0x2E61F, size: 0x8, addend: 0x0, symName: '__ZN4core3ops8function6FnOnce40call_once$u7b$$u7b$vtable.shim$u7d$$u7d$17h57a7baf643098919E', symObjAddr: 0x24838, symBinAddr: 0x10001B200, symSize: 0x4 }
  - { offset: 0x2E63C, size: 0x8, addend: 0x0, symName: '__ZN4core3ops8function6FnOnce40call_once$u7b$$u7b$vtable.shim$u7d$$u7d$17h57a7baf643098919E', symObjAddr: 0x24838, symBinAddr: 0x10001B200, symSize: 0x4 }
  - { offset: 0x2E65B, size: 0x8, addend: 0x0, symName: '__ZN4core3ops8function6FnOnce40call_once$u7b$$u7b$vtable.shim$u7d$$u7d$17h5f2b35dd19b33620E', symObjAddr: 0x2483C, symBinAddr: 0x10001B204, symSize: 0x28 }
  - { offset: 0x2E697, size: 0x8, addend: 0x0, symName: '__ZN4core3ops8function6FnOnce40call_once$u7b$$u7b$vtable.shim$u7d$$u7d$17h7c3cb17ef918f233E', symObjAddr: 0x24864, symBinAddr: 0x10001B22C, symSize: 0x78 }
  - { offset: 0x2F5B1, size: 0x8, addend: 0x0, symName: '__ZN36_$LT$T$u20$as$u20$core..any..Any$GT$7type_id17ha81a52e3b43c77a4E', symObjAddr: 0x1028, symBinAddr: 0x10000B504, symSize: 0x14 }
  - { offset: 0x2F5CE, size: 0x8, addend: 0x0, symName: '__ZN36_$LT$T$u20$as$u20$core..any..Any$GT$7type_id17ha81a52e3b43c77a4E', symObjAddr: 0x1028, symBinAddr: 0x10000B504, symSize: 0x14 }
  - { offset: 0x2F5E0, size: 0x8, addend: 0x0, symName: '__ZN36_$LT$T$u20$as$u20$core..any..Any$GT$7type_id17hb44d4c6033683273E', symObjAddr: 0x103C, symBinAddr: 0x10000B518, symSize: 0x14 }
  - { offset: 0x2F5FD, size: 0x8, addend: 0x0, symName: '__ZN36_$LT$T$u20$as$u20$core..any..Any$GT$7type_id17hb44d4c6033683273E', symObjAddr: 0x103C, symBinAddr: 0x10000B518, symSize: 0x14 }
  - { offset: 0x304B5, size: 0x8, addend: 0x0, symName: '__ZN4core5array69_$LT$impl$u20$core..fmt..Debug$u20$for$u20$$u5b$T$u3b$$u20$N$u5d$$GT$3fmt17hd123162ab8102d2aE', symObjAddr: 0x2A2BC, symBinAddr: 0x10001D130, symSize: 0xFC }
  - { offset: 0x305DB, size: 0x8, addend: 0x0, symName: '__ZN4core4cell4once17OnceCell$LT$T$GT$8try_init17h096ee8d6ab5f9ab5E', symObjAddr: 0x27404, symBinAddr: 0x1000425E8, symSize: 0x640 }
  - { offset: 0x31191, size: 0x8, addend: 0x0, symName: '__ZN4core4cell4once17OnceCell$LT$T$GT$8try_init17h0fe3646e0b88f6ceE', symObjAddr: 0x27A44, symBinAddr: 0x100042C28, symSize: 0x80 }
  - { offset: 0x31244, size: 0x8, addend: 0x0, symName: '__ZN4core4cell4once17OnceCell$LT$T$GT$8try_init17h4233e7fefa30ef91E', symObjAddr: 0x27AC4, symBinAddr: 0x100042CA8, symSize: 0x1A64 }
  - { offset: 0x346A0, size: 0x8, addend: 0x0, symName: '__ZN4core4cell4once17OnceCell$LT$T$GT$8try_init17hc6312a19a1a77d35E', symObjAddr: 0x29528, symBinAddr: 0x10004470C, symSize: 0xC24 }
  - { offset: 0x35FFD, size: 0x8, addend: 0x0, symName: '__ZN4core4cell4once17OnceCell$LT$T$GT$8try_init17hcb2a62d93e38dee1E', symObjAddr: 0x2A14C, symBinAddr: 0x100045330, symSize: 0x60 }
  - { offset: 0x3601B, size: 0x8, addend: 0x0, symName: '__ZN4core4cell4once17OnceCell$LT$T$GT$8try_init17hcb2a62d93e38dee1E', symObjAddr: 0x2A14C, symBinAddr: 0x100045330, symSize: 0x60 }
  - { offset: 0x36030, size: 0x8, addend: 0x0, symName: '__ZN4core4cell4once17OnceCell$LT$T$GT$8try_init17hcb2a62d93e38dee1E', symObjAddr: 0x2A14C, symBinAddr: 0x100045330, symSize: 0x60 }
  - { offset: 0x36044, size: 0x8, addend: 0x0, symName: '__ZN4core4cell4once17OnceCell$LT$T$GT$8try_init17hcb2a62d93e38dee1E', symObjAddr: 0x2A14C, symBinAddr: 0x100045330, symSize: 0x60 }
  - { offset: 0x3609B, size: 0x8, addend: 0x0, symName: '__ZN4core4cell4once17OnceCell$LT$T$GT$8try_init17hf4832393ad19d4f9E', symObjAddr: 0x2A1AC, symBinAddr: 0x100045390, symSize: 0x110 }
  - { offset: 0x36861, size: 0x8, addend: 0x0, symName: __ZN4core5error5Error11description17hcf90faf3be666b0fE, symObjAddr: 0x2A3C8, symBinAddr: 0x10001D22C, symSize: 0x10 }
  - { offset: 0x3687C, size: 0x8, addend: 0x0, symName: __ZN4core5error5Error5cause17h9d8e707b615b1dccE, symObjAddr: 0x2A3D8, symBinAddr: 0x10001D23C, symSize: 0x8 }
  - { offset: 0x36897, size: 0x8, addend: 0x0, symName: __ZN4core5error5Error7provide17hf6f11971797fe577E, symObjAddr: 0x2A3EC, symBinAddr: 0x10001D244, symSize: 0x4 }
  - { offset: 0x368B2, size: 0x8, addend: 0x0, symName: __ZN4core5error5Error7type_id17hcfbfefb73a50f493E, symObjAddr: 0x2A404, symBinAddr: 0x10001D248, symSize: 0x14 }
  - { offset: 0x368D1, size: 0x8, addend: 0x0, symName: __ZN4core5error5Error7type_id17hcfbfefb73a50f493E, symObjAddr: 0x2A404, symBinAddr: 0x10001D248, symSize: 0x14 }
  - { offset: 0x368EB, size: 0x8, addend: 0x0, symName: __ZN4core9panicking13assert_failed17h19670db3f6693dadE, symObjAddr: 0x31F34, symBinAddr: 0x1000454A0, symSize: 0x34 }
  - { offset: 0x36907, size: 0x8, addend: 0x0, symName: __ZN4core9panicking13assert_failed17h380ae13b39a456adE, symObjAddr: 0x31F68, symBinAddr: 0x1000454D4, symSize: 0x24 }
  - { offset: 0x3692F, size: 0x8, addend: 0x0, symName: __RNvCskdKJRKLKjqM_7___rustc10rust_panic, symObjAddr: 0x0, symBinAddr: 0x100041AC0, symSize: 0x60 }
  - { offset: 0x36960, size: 0x8, addend: 0x0, symName: __RNvCskdKJRKLKjqM_7___rustc17___rust_drop_panic, symObjAddr: 0x1B0, symBinAddr: 0x10000B160, symSize: 0xBC }
  - { offset: 0x36B55, size: 0x8, addend: 0x0, symName: __RNvCskdKJRKLKjqM_7___rustc17rust_begin_unwind, symObjAddr: 0x26C, symBinAddr: 0x10000B21C, symSize: 0x20 }
  - { offset: 0x36B86, size: 0x8, addend: 0x0, symName: __RNvCskdKJRKLKjqM_7___rustc24___rust_foreign_exception, symObjAddr: 0x31C, symBinAddr: 0x10000B2CC, symSize: 0xBC }
  - { offset: 0x36DF9, size: 0x8, addend: 0x0, symName: __ZN3std9panicking11panic_count17is_zero_slow_path17h24290651bb572e96E, symObjAddr: 0x21B78, symBinAddr: 0x1000425BC, symSize: 0x2C }
  - { offset: 0x36EA8, size: 0x8, addend: 0x0, symName: __ZN3std9panicking11panic_count8increase17h90668b12758c90deE, symObjAddr: 0x21C08, symBinAddr: 0x100019C38, symSize: 0x64 }
  - { offset: 0x36EBF, size: 0x8, addend: 0x0, symName: __ZN3std9panicking11panic_count8increase17h90668b12758c90deE, symObjAddr: 0x21C08, symBinAddr: 0x100019C38, symSize: 0x64 }
  - { offset: 0x36ED4, size: 0x8, addend: 0x0, symName: __ZN3std9panicking11panic_count8increase17h90668b12758c90deE, symObjAddr: 0x21C08, symBinAddr: 0x100019C38, symSize: 0x64 }
  - { offset: 0x37080, size: 0x8, addend: 0x0, symName: __ZN3std9panicking12default_hook17hff9145c2c6e89cdfE, symObjAddr: 0x21CD0, symBinAddr: 0x100019C9C, symSize: 0x13C }
  - { offset: 0x3720D, size: 0x8, addend: 0x0, symName: '__ZN3std9panicking12default_hook28_$u7b$$u7b$closure$u7d$$u7d$17hbcaf474e707f3b7dE', symObjAddr: 0x21E0C, symBinAddr: 0x100019DD8, symSize: 0x19C }
  - { offset: 0x373E4, size: 0x8, addend: 0x0, symName: '__ZN3std9panicking12default_hook28_$u7b$$u7b$closure$u7d$$u7d$28_$u7b$$u7b$closure$u7d$$u7d$17he4e4856f72e7e2dfE', symObjAddr: 0x21FA8, symBinAddr: 0x100019F74, symSize: 0x314 }
  - { offset: 0x37A11, size: 0x8, addend: 0x0, symName: __ZN3std9panicking13panic_handler19FormatStringPayload4fill17h49f06b785e976a61E, symObjAddr: 0x222BC, symBinAddr: 0x10001A288, symSize: 0xB8 }
  - { offset: 0x37B2E, size: 0x8, addend: 0x0, symName: '__ZN3std9panicking13panic_handler28_$u7b$$u7b$closure$u7d$$u7d$17h42f8d27eb97efb5cE', symObjAddr: 0x22374, symBinAddr: 0x10001A340, symSize: 0xC0 }
  - { offset: 0x37C8A, size: 0x8, addend: 0x0, symName: '__ZN86_$LT$std..panicking..panic_handler..StaticStrPayload$u20$as$u20$core..fmt..Display$GT$3fmt17h23daa1d361c20ad8E', symObjAddr: 0x4B230, symBinAddr: 0x100031708, symSize: 0x10 }
  - { offset: 0x37CAB, size: 0x8, addend: 0x0, symName: '__ZN89_$LT$std..panicking..panic_handler..FormatStringPayload$u20$as$u20$core..fmt..Display$GT$3fmt17h96c36f262cceff4fE', symObjAddr: 0x4B5E4, symBinAddr: 0x100031718, symSize: 0x6C }
  - { offset: 0x37D9F, size: 0x8, addend: 0x0, symName: '__ZN93_$LT$std..panicking..panic_handler..StaticStrPayload$u20$as$u20$core..panic..PanicPayload$GT$3get17h9446d3bfcd75a0d7E', symObjAddr: 0x4BC54, symBinAddr: 0x1000317EC, symSize: 0xC }
  - { offset: 0x37DBA, size: 0x8, addend: 0x0, symName: '__ZN93_$LT$std..panicking..panic_handler..StaticStrPayload$u20$as$u20$core..panic..PanicPayload$GT$6as_str17hdc3733a5b5cc28baE', symObjAddr: 0x4BC60, symBinAddr: 0x1000317F8, symSize: 0xC }
  - { offset: 0x37DD5, size: 0x8, addend: 0x0, symName: '__ZN93_$LT$std..panicking..panic_handler..StaticStrPayload$u20$as$u20$core..panic..PanicPayload$GT$8take_box17h6400803d1e475458E', symObjAddr: 0x4BC6C, symBinAddr: 0x100031804, symSize: 0x48 }
  - { offset: 0x37E52, size: 0x8, addend: 0x0, symName: '__ZN96_$LT$std..panicking..panic_handler..FormatStringPayload$u20$as$u20$core..panic..PanicPayload$GT$3get17he69c34545aa12e4dE', symObjAddr: 0x4C2D4, symBinAddr: 0x100031BAC, symSize: 0x1C }
  - { offset: 0x37E6D, size: 0x8, addend: 0x0, symName: '__ZN96_$LT$std..panicking..panic_handler..FormatStringPayload$u20$as$u20$core..panic..PanicPayload$GT$8take_box17hb2deabfa34b702e6E', symObjAddr: 0x4C2F0, symBinAddr: 0x100031BC8, symSize: 0x8C }
  - { offset: 0x37FBF, size: 0x8, addend: 0x0, symName: __ZN3std9panicking14payload_as_str17ha2e19316e5057f13E, symObjAddr: 0x224EC, symBinAddr: 0x10001A400, symSize: 0xC8 }
  - { offset: 0x38104, size: 0x8, addend: 0x0, symName: __ZN3std9panicking15panic_with_hook17he6431e171a67d1a5E, symObjAddr: 0x225B4, symBinAddr: 0x10001A4C8, symSize: 0x390 }
  - { offset: 0x389B5, size: 0x8, addend: 0x0, symName: '__ZN102_$LT$std..sys..process..unix..common..cstring_array..CStringArray$u20$as$u20$core..ops..drop..Drop$GT$4drop17hee720c09383e4bd2E', symObjAddr: 0x3F0, symBinAddr: 0x10000B388, symSize: 0x6C }
  - { offset: 0x38BFB, size: 0x8, addend: 0x0, symName: '__ZN3std3sys7process4unix4unix58_$LT$impl$u20$std..sys..process..unix..common..Command$GT$5spawn17hfcbbc52437fe5f4aE', symObjAddr: 0x18DCC, symBinAddr: 0x100016228, symSize: 0x95C }
  - { offset: 0x39CD1, size: 0x8, addend: 0x0, symName: '__ZN3std3sys7process4unix4unix58_$LT$impl$u20$std..sys..process..unix..common..Command$GT$7do_exec17h26b1e14ede09e6b2E', symObjAddr: 0x19728, symBinAddr: 0x100016B84, symSize: 0x32C }
  - { offset: 0x3A49A, size: 0x8, addend: 0x0, symName: __ZN3std3sys7process4unix6common7Command11capture_env17h8b4259b5459d513fE, symObjAddr: 0x19C2C, symBinAddr: 0x100017088, symSize: 0xB98 }
  - { offset: 0x3C753, size: 0x8, addend: 0x0, symName: __ZN3std3sys7process4unix6common7Command3arg17h5808cfe571359bb4E, symObjAddr: 0x1A7C4, symBinAddr: 0x100017C20, symSize: 0xEC }
  - { offset: 0x3CA6B, size: 0x8, addend: 0x0, symName: __ZN3std3sys7process4unix6common7Command3new17h311354af76aefa00E, symObjAddr: 0x1A984, symBinAddr: 0x100017D0C, symSize: 0x288 }
  - { offset: 0x3CFC5, size: 0x8, addend: 0x0, symName: __ZN3std3sys7process4unix6common7Command8setup_io17hfff349106e5eb2d7E, symObjAddr: 0x1AE48, symBinAddr: 0x100017F94, symSize: 0x2F8 }
  - { offset: 0x3D41B, size: 0x8, addend: 0x0, symName: __ZN3std3sys7process4unix6common5Stdio14to_child_stdio17hf579c16cd28b5667E, symObjAddr: 0x19AF0, symBinAddr: 0x100016F4C, symSize: 0x13C }
  - { offset: 0x3D5FE, size: 0x8, addend: 0x0, symName: __ZN3std3sys7process4unix4unix7Process4wait17h3cbedff82d34e9e8E, symObjAddr: 0x19A54, symBinAddr: 0x100016EB0, symSize: 0x9C }
  - { offset: 0x3D7A0, size: 0x8, addend: 0x0, symName: __ZN3std3sys3pal6common14small_c_string24run_with_cstr_allocating17h798411b79b11fd56E, symObjAddr: 0x16B5C, symBinAddr: 0x100041D90, symSize: 0xA4 }
  - { offset: 0x3D8F7, size: 0x8, addend: 0x0, symName: __ZN3std3sys3pal6common14small_c_string24run_with_cstr_allocating17h99e236d7e8506142E, symObjAddr: 0x16C00, symBinAddr: 0x100041E34, symSize: 0xB4 }
  - { offset: 0x3DAC0, size: 0x8, addend: 0x0, symName: __ZN3std3sys3pal6common14small_c_string24run_with_cstr_allocating17hee1175bf1c9e834cE, symObjAddr: 0x16EFC, symBinAddr: 0x100041EE8, symSize: 0xC0 }
  - { offset: 0x3DCCE, size: 0x8, addend: 0x0, symName: __ZN3std3sys3pal4unix14stack_overflow11thread_info16set_current_info17h02534502962db8e5E, symObjAddr: 0x14D00, symBinAddr: 0x100014688, symSize: 0x950 }
  - { offset: 0x3F069, size: 0x8, addend: 0x0, symName: __ZN3std3sys3pal4unix14stack_overflow3imp12drop_handler17hc9fb2befc4b4b16bE, symObjAddr: 0x15650, symBinAddr: 0x100014FD8, symSize: 0x3A4 }
  - { offset: 0x3F8A9, size: 0x8, addend: 0x0, symName: __ZN3std3sys3pal4unix14stack_overflow3imp12make_handler17h894f5618496a4a4dE, symObjAddr: 0x159F4, symBinAddr: 0x10001537C, symSize: 0x234 }
  - { offset: 0x3FC6C, size: 0x8, addend: 0x0, symName: __ZN3std3sys3pal4unix14stack_overflow3imp14signal_handler17h7e8c2c206c160b5eE, symObjAddr: 0x15C28, symBinAddr: 0x1000155B0, symSize: 0x2A8 }
  - { offset: 0x402C1, size: 0x8, addend: 0x0, symName: __ZN3std3sys3pal4unix4sync5mutex5Mutex4init17h3dc7e68cdddb15ffE, symObjAddr: 0x16564, symBinAddr: 0x100015D4C, symSize: 0x16C }
  - { offset: 0x40392, size: 0x8, addend: 0x0, symName: __ZN3std3sys3pal4unix4sync5mutex5Mutex4lock4fail17h626389f0d772d537E, symObjAddr: 0x166EC, symBinAddr: 0x100041CAC, symSize: 0xE4 }
  - { offset: 0x4065C, size: 0x8, addend: 0x0, symName: __ZN3std3sys3pal4unix14abort_internal17h8d76cac37bc1e660E, symObjAddr: 0x14CF4, symBinAddr: 0x100041CA0, symSize: 0xC }
  - { offset: 0x40677, size: 0x8, addend: 0x0, symName: __ZN3std3sys3pal4unix17decode_error_kind17hb6d24ea5e3e2f6a1E, symObjAddr: 0x15ED0, symBinAddr: 0x100015858, symSize: 0x150 }
  - { offset: 0x406C9, size: 0x8, addend: 0x0, symName: __ZN3std3sys3pal4unix4pipe5read217hebc7a8d2c573a493E, symObjAddr: 0x161C0, symBinAddr: 0x1000159A8, symSize: 0x22C }
  - { offset: 0x40AC7, size: 0x8, addend: 0x0, symName: __ZN3std3sys3pal4unix4pipe8AnonPipe5write17h29011c4a1bb3d17eE, symObjAddr: 0x163EC, symBinAddr: 0x100015BD4, symSize: 0x50 }
  - { offset: 0x40BBE, size: 0x8, addend: 0x0, symName: __ZN3std3sys3pal4unix4pipe9anon_pipe17h8d6a328f4fe59a7fE, symObjAddr: 0x1643C, symBinAddr: 0x100015C24, symSize: 0x128 }
  - { offset: 0x40F33, size: 0x8, addend: 0x0, symName: __ZN3std3sys12thread_local6native5eager7destroy17h30ed59e6126037efE, symObjAddr: 0xF88C, symBinAddr: 0x100013D84, symSize: 0x2C }
  - { offset: 0x410C9, size: 0x8, addend: 0x0, symName: __ZN3std3sys12thread_local5guard5apple6enable9run_dtors17h8979e0b3d1187c7fE, symObjAddr: 0xF794, symBinAddr: 0x100013C8C, symSize: 0xF8 }
  - { offset: 0x4159E, size: 0x8, addend: 0x0, symName: __ZN3std3sys12thread_local11destructors4list8register17he85c11a1c2ed5827E, symObjAddr: 0xF67C, symBinAddr: 0x100013B74, symSize: 0x118 }
  - { offset: 0x41904, size: 0x8, addend: 0x0, symName: __ZN3std3sys3env4unix13env_read_lock17h0f43be51d1951982E, symObjAddr: 0x1398C, symBinAddr: 0x100014310, symSize: 0x230 }
  - { offset: 0x41FEE, size: 0x8, addend: 0x0, symName: '__ZN3std3sys3env4unix6getenv28_$u7b$$u7b$closure$u7d$$u7d$17h8142d75fd75589c4E', symObjAddr: 0x13BBC, symBinAddr: 0x100014540, symSize: 0x148 }
  - { offset: 0x422C9, size: 0x8, addend: 0x0, symName: __ZN3std3sys2fs4unix4File6open_c17h8b4308debc18b247E, symObjAddr: 0x12348, symBinAddr: 0x100013FD4, symSize: 0x1A0 }
  - { offset: 0x4244C, size: 0x8, addend: 0x0, symName: '__ZN65_$LT$std..sys..fs..unix..Dir$u20$as$u20$core..ops..drop..Drop$GT$4drop17hb27d2dcfbde0f4f8E', symObjAddr: 0x45A50, symBinAddr: 0x1000304B8, symSize: 0xC8 }
  - { offset: 0x4252B, size: 0x8, addend: 0x0, symName: __ZN3std3sys2fs8read_dir17h01b537fe6e853e47E, symObjAddr: 0x13500, symBinAddr: 0x100014174, symSize: 0x19C }
  - { offset: 0x4293D, size: 0x8, addend: 0x0, symName: __ZN3std3sys2fd4unix8FileDesc11read_to_end17h90678055a872cb01E, symObjAddr: 0x10B8C, symBinAddr: 0x100013DB0, symSize: 0x224 }
  - { offset: 0x42DD6, size: 0x8, addend: 0x0, symName: '__ZN64_$LT$std..sys..stdio..unix..Stderr$u20$as$u20$std..io..Write$GT$14write_vectored17hc6a0fe94280856b7E', symObjAddr: 0x457B4, symBinAddr: 0x100030400, symSize: 0x54 }
  - { offset: 0x42EAC, size: 0x8, addend: 0x0, symName: '__ZN64_$LT$std..sys..stdio..unix..Stderr$u20$as$u20$std..io..Write$GT$17is_write_vectored17ha5fe1632aa356e69E', symObjAddr: 0x45808, symBinAddr: 0x100030454, symSize: 0x8 }
  - { offset: 0x42EC6, size: 0x8, addend: 0x0, symName: '__ZN64_$LT$std..sys..stdio..unix..Stderr$u20$as$u20$std..io..Write$GT$5flush17h9c44c0bc84723652E', symObjAddr: 0x45810, symBinAddr: 0x10003045C, symSize: 0x8 }
  - { offset: 0x42EE0, size: 0x8, addend: 0x0, symName: '__ZN64_$LT$std..sys..stdio..unix..Stderr$u20$as$u20$std..io..Write$GT$5write17hb65269e8ba794fd5E', symObjAddr: 0x45818, symBinAddr: 0x100030464, symSize: 0x54 }
  - { offset: 0x43041, size: 0x8, addend: 0x0, symName: '__ZN3std3sys4sync8once_box16OnceBox$LT$T$GT$10initialize17hb710239f2ab0be2bE', symObjAddr: 0x18054, symBinAddr: 0x100042240, symSize: 0xE4 }
  - { offset: 0x43303, size: 0x8, addend: 0x0, symName: __ZN3std3sys4sync4once5queue4Once4call17hd1bb46051256f23fE, symObjAddr: 0x1736C, symBinAddr: 0x100041FA8, symSize: 0x218 }
  - { offset: 0x435E5, size: 0x8, addend: 0x0, symName: '__ZN82_$LT$std..sys..sync..once..queue..WaiterQueue$u20$as$u20$core..ops..drop..Drop$GT$4drop17h7f1d4befd79eb70eE', symObjAddr: 0x4AD40, symBinAddr: 0x100031628, symSize: 0xE0 }
  - { offset: 0x437DC, size: 0x8, addend: 0x0, symName: __ZN3std3sys4sync4once5queue4wait17hfd76cbd9a064ab39E, symObjAddr: 0x17764, symBinAddr: 0x100015EB8, symSize: 0x184 }
  - { offset: 0x43D71, size: 0x8, addend: 0x0, symName: __ZN3std3sys4sync6rwlock5queue6RwLock12unlock_queue17h6341a139252af1a4E, symObjAddr: 0x178FC, symBinAddr: 0x10001603C, symSize: 0x1CC }
  - { offset: 0x443D3, size: 0x8, addend: 0x0, symName: __ZN3std3sys4sync6rwlock5queue6RwLock16unlock_contended17hd5d9b4bea5b136d5E, symObjAddr: 0x17DC4, symBinAddr: 0x1000421C0, symSize: 0x40 }
  - { offset: 0x4449A, size: 0x8, addend: 0x0, symName: __ZN3std3sys4sync6rwlock5queue6RwLock21read_unlock_contended17hf10ad3e8d16e983dE, symObjAddr: 0x17E04, symBinAddr: 0x100042200, symSize: 0x40 }
  - { offset: 0x444B8, size: 0x8, addend: 0x0, symName: __ZN3std3sys4sync6rwlock5queue6RwLock21read_unlock_contended17hf10ad3e8d16e983dE, symObjAddr: 0x17E04, symBinAddr: 0x100042200, symSize: 0x40 }
  - { offset: 0x444CD, size: 0x8, addend: 0x0, symName: __ZN3std3sys4sync6rwlock5queue6RwLock21read_unlock_contended17hf10ad3e8d16e983dE, symObjAddr: 0x17E04, symBinAddr: 0x100042200, symSize: 0x40 }
  - { offset: 0x446F2, size: 0x8, addend: 0x0, symName: __ZN3std3sys4sync6rwlock5queue9read_lock17he5ccf40565f845d6E, symObjAddr: 0x17E44, symBinAddr: 0x100016208, symSize: 0x20 }
  - { offset: 0x4470B, size: 0x8, addend: 0x0, symName: '__ZN83_$LT$std..sys..sync..rwlock..queue..PanicGuard$u20$as$u20$core..ops..drop..Drop$GT$4drop17h5297df96adf6f25aE', symObjAddr: 0x4AFC0, symBinAddr: 0x100045670, symSize: 0x44 }
  - { offset: 0x447D0, size: 0x8, addend: 0x0, symName: '__ZN3std3sys11personality3gcc14find_eh_action28_$u7b$$u7b$closure$u7d$$u7d$17h3ded5c67f5e06d18E', symObjAddr: 0xF51C, symBinAddr: 0x100013A14, symSize: 0xC }
  - { offset: 0x447E4, size: 0x8, addend: 0x0, symName: '__ZN3std3sys11personality3gcc14find_eh_action28_$u7b$$u7b$closure$u7d$$u7d$17hc6e49a652099b2faE', symObjAddr: 0xF528, symBinAddr: 0x100013A20, symSize: 0xC }
  - { offset: 0x44830, size: 0x8, addend: 0x0, symName: _rust_eh_personality, symObjAddr: 0x4F004, symBinAddr: 0x100034604, symSize: 0x378 }
  - { offset: 0x44B7A, size: 0x8, addend: 0x0, symName: __ZN3std3sys11personality5dwarf2eh19read_encoded_offset17h4247a370d6a78c9aE, symObjAddr: 0xF534, symBinAddr: 0x100013A2C, symSize: 0x148 }
  - { offset: 0x44CD0, size: 0x8, addend: 0x0, symName: '__ZN3std3sys9backtrace10_print_fmt28_$u7b$$u7b$closure$u7d$$u7d$17h64c635585236989fE', symObjAddr: 0x1B278, symBinAddr: 0x10001828C, symSize: 0x24 }
  - { offset: 0x44CF9, size: 0x8, addend: 0x0, symName: '__ZN3std3sys9backtrace10_print_fmt28_$u7b$$u7b$closure$u7d$$u7d$17ha7bccce4e6c2a239E', symObjAddr: 0x1B29C, symBinAddr: 0x1000182B0, symSize: 0x134 }
  - { offset: 0x44E0D, size: 0x8, addend: 0x0, symName: '__ZN3std3sys9backtrace10_print_fmt28_$u7b$$u7b$closure$u7d$$u7d$28_$u7b$$u7b$closure$u7d$$u7d$17h98603fdd5adbbfdcE', symObjAddr: 0x1B3D0, symBinAddr: 0x1000183E4, symSize: 0x25C }
  - { offset: 0x4502A, size: 0x8, addend: 0x0, symName: __ZN3std3sys9backtrace13BacktraceLock5print17hea663f6050de4073E, symObjAddr: 0x1B62C, symBinAddr: 0x100018640, symSize: 0x54 }
  - { offset: 0x4505B, size: 0x8, addend: 0x0, symName: __ZN3std3sys9backtrace15output_filename17h6da850852b2497bfE, symObjAddr: 0x1B680, symBinAddr: 0x100018694, symSize: 0xF4 }
  - { offset: 0x451A9, size: 0x8, addend: 0x0, symName: __ZN3std3sys9backtrace26__rust_end_short_backtrace17h0de35f7407a5e0d8E, symObjAddr: 0x1B774, symBinAddr: 0x100018788, symSize: 0xC }
  - { offset: 0x451C3, size: 0x8, addend: 0x0, symName: __ZN3std3sys9backtrace4lock17h2199d00fb77a2766E, symObjAddr: 0x1B78C, symBinAddr: 0x100018794, symSize: 0x70 }
  - { offset: 0x45330, size: 0x8, addend: 0x0, symName: '__ZN98_$LT$std..sys..backtrace..BacktraceLock..print..DisplayBacktrace$u20$as$u20$core..fmt..Display$GT$3fmt17hfd528c9d14c1136fE', symObjAddr: 0x4C548, symBinAddr: 0x100031C54, symSize: 0x210 }
  - { offset: 0x45821, size: 0x8, addend: 0x0, symName: __RNvCskdKJRKLKjqM_7___rustc11___rdl_alloc, symObjAddr: 0x60, symBinAddr: 0x10000B01C, symSize: 0x6C }
  - { offset: 0x4589F, size: 0x8, addend: 0x0, symName: __RNvCskdKJRKLKjqM_7___rustc13___rdl_dealloc, symObjAddr: 0xD8, symBinAddr: 0x10000B088, symSize: 0x4 }
  - { offset: 0x458BD, size: 0x8, addend: 0x0, symName: __RNvCskdKJRKLKjqM_7___rustc13___rdl_dealloc, symObjAddr: 0xD8, symBinAddr: 0x10000B088, symSize: 0x4 }
  - { offset: 0x458D0, size: 0x8, addend: 0x0, symName: __RNvCskdKJRKLKjqM_7___rustc13___rdl_realloc, symObjAddr: 0xDC, symBinAddr: 0x10000B08C, symSize: 0xD4 }
  - { offset: 0x459A4, size: 0x8, addend: 0x0, symName: __RNvCskdKJRKLKjqM_7___rustc18___rdl_alloc_zeroed, symObjAddr: 0x28C, symBinAddr: 0x10000B23C, symSize: 0x90 }
  - { offset: 0x45A49, size: 0x8, addend: 0x0, symName: __RNvCskdKJRKLKjqM_7___rustc8___rg_oom, symObjAddr: 0x3D8, symBinAddr: 0x100041B20, symSize: 0x18 }
  - { offset: 0x45A65, size: 0x8, addend: 0x0, symName: __ZN3std5alloc24default_alloc_error_hook17hda855b09bf8ce5bfE, symObjAddr: 0x1F3C0, symBinAddr: 0x100019510, symSize: 0x140 }
  - { offset: 0x45C9C, size: 0x8, addend: 0x0, symName: __ZN3std5alloc8rust_oom17h64a98ce1b291034bE, symObjAddr: 0x1F500, symBinAddr: 0x1000423E8, symSize: 0x2C }
  - { offset: 0x45CE9, size: 0x8, addend: 0x0, symName: __ZN3std2rt15handle_rt_panic17hd7a3741be038ff7bE, symObjAddr: 0xC6A4, symBinAddr: 0x100041C5C, symSize: 0x44 }
  - { offset: 0x45D79, size: 0x8, addend: 0x0, symName: __ZN3std2rt19lang_start_internal17hd700ba983d3377dcE, symObjAddr: 0xC6E8, symBinAddr: 0x100012C6C, symSize: 0x6E4 }
  - { offset: 0x469BC, size: 0x8, addend: 0x0, symName: __ZN3std2io5error14repr_bitpacked11decode_repr17he0232b2b9818a582E, symObjAddr: 0x9D4C, symBinAddr: 0x100011DC4, symSize: 0x60 }
  - { offset: 0x46A42, size: 0x8, addend: 0x0, symName: __ZN3std2io5error5Error3new17hb0366e1179bed02aE, symObjAddr: 0x9E70, symBinAddr: 0x100011E24, symSize: 0x128 }
  - { offset: 0x46E79, size: 0x8, addend: 0x0, symName: '__ZN3std2io5error83_$LT$impl$u20$core..fmt..Debug$u20$for$u20$std..io..error..repr_bitpacked..Repr$GT$3fmt17hc5e272b72661a34bE', symObjAddr: 0xA014, symBinAddr: 0x100011F4C, symSize: 0x294 }
  - { offset: 0x470D1, size: 0x8, addend: 0x0, symName: '__ZN58_$LT$std..io..error..Error$u20$as$u20$core..fmt..Debug$GT$3fmt17h4bd0f28bf79564b3E', symObjAddr: 0x34100, symBinAddr: 0x100025300, symSize: 0x4 }
  - { offset: 0x470EB, size: 0x8, addend: 0x0, symName: '__ZN60_$LT$std..io..error..Error$u20$as$u20$core..fmt..Display$GT$3fmt17h96a3add2cd05308dE', symObjAddr: 0x419AC, symBinAddr: 0x10002FBBC, symSize: 0x208 }
  - { offset: 0x4731E, size: 0x8, addend: 0x0, symName: '__ZN62_$LT$std..io..error..ErrorKind$u20$as$u20$core..fmt..Debug$GT$3fmt17hcbf070d750c729a3E', symObjAddr: 0x445F0, symBinAddr: 0x1000302E0, symSize: 0x28 }
  - { offset: 0x473A4, size: 0x8, addend: 0x0, symName: '__ZN3std2io8buffered9bufwriter18BufWriter$LT$W$GT$14write_all_cold17h513e838fe8161279E', symObjAddr: 0xB1E8, symBinAddr: 0x100041B38, symSize: 0x124 }
  - { offset: 0x475F8, size: 0x8, addend: 0x0, symName: '__ZN3std2io8buffered9bufwriter18BufWriter$LT$W$GT$9flush_buf17h29164ec56610038eE', symObjAddr: 0xB30C, symBinAddr: 0x100012A8C, symSize: 0x1E0 }
  - { offset: 0x47B4C, size: 0x8, addend: 0x0, symName: __ZN3std2io5Write18write_all_vectored17he688a1b06e8bbb4fE, symObjAddr: 0x9744, symBinAddr: 0x1000117BC, symSize: 0x1B4 }
  - { offset: 0x47DA6, size: 0x8, addend: 0x0, symName: __ZN3std2io5Write9write_all17hfca7eea50e527240E, symObjAddr: 0x98F8, symBinAddr: 0x100011970, symSize: 0xAC }
  - { offset: 0x47E96, size: 0x8, addend: 0x0, symName: __ZN3std2io5Write9write_fmt17h0a4c2886d71240f6E, symObjAddr: 0x99A4, symBinAddr: 0x100011A1C, symSize: 0x138 }
  - { offset: 0x480E0, size: 0x8, addend: 0x0, symName: __ZN3std2io5Write9write_fmt17h93365632ab64a6f8E, symObjAddr: 0x9ADC, symBinAddr: 0x100011B54, symSize: 0x138 }
  - { offset: 0x4832A, size: 0x8, addend: 0x0, symName: __ZN3std2io5Write9write_fmt17hc70e63382e9f29d2E, symObjAddr: 0x9C14, symBinAddr: 0x100011C8C, symSize: 0x138 }
  - { offset: 0x485DF, size: 0x8, addend: 0x0, symName: __ZN3std2io5stdio22try_set_output_capture17h95074c90c7962b08E, symObjAddr: 0xA79C, symBinAddr: 0x1000125D0, symSize: 0xEC }
  - { offset: 0x48880, size: 0x8, addend: 0x0, symName: __ZN3std2io5stdio31print_to_buffer_if_capture_used17hcb54b0daa9580ecfE, symObjAddr: 0xA95C, symBinAddr: 0x1000126BC, symSize: 0x20C }
  - { offset: 0x48F5D, size: 0x8, addend: 0x0, symName: __ZN3std2io5stdio6Stderr4lock17h60123d24c8f9e05cE, symObjAddr: 0xADCC, symBinAddr: 0x1000128C8, symSize: 0xE4 }
  - { offset: 0x4922C, size: 0x8, addend: 0x0, symName: __ZN3std2io5stdio6_print17h31727a912c7756f3E, symObjAddr: 0xAEB0, symBinAddr: 0x1000129AC, symSize: 0xE0 }
  - { offset: 0x4939A, size: 0x8, addend: 0x0, symName: '__ZN61_$LT$$RF$std..io..stdio..Stdout$u20$as$u20$std..io..Write$GT$9write_fmt17h15aba39edd7cf40aE', symObjAddr: 0x42EFC, symBinAddr: 0x10002FDC4, symSize: 0x1A0 }
  - { offset: 0x4978E, size: 0x8, addend: 0x0, symName: '__ZN61_$LT$std..io..stdio..StdoutLock$u20$as$u20$std..io..Write$GT$9write_all17ha54dfc02195772b6E', symObjAddr: 0x439C8, symBinAddr: 0x10002FF64, symSize: 0x248 }
  - { offset: 0x49EE9, size: 0x8, addend: 0x0, symName: '__ZN3std2io5impls74_$LT$impl$u20$std..io..Write$u20$for$u20$alloc..vec..Vec$LT$u8$C$A$GT$$GT$14write_vectored17h98b0b37e86837edcE', symObjAddr: 0xA2A8, symBinAddr: 0x1000121E0, symSize: 0x174 }
  - { offset: 0x4A136, size: 0x8, addend: 0x0, symName: '__ZN3std2io5impls74_$LT$impl$u20$std..io..Write$u20$for$u20$alloc..vec..Vec$LT$u8$C$A$GT$$GT$17is_write_vectored17h87e7f9fb9fdbeb17E', symObjAddr: 0xA41C, symBinAddr: 0x100012354, symSize: 0x8 }
  - { offset: 0x4A15F, size: 0x8, addend: 0x0, symName: '__ZN3std2io5impls74_$LT$impl$u20$std..io..Write$u20$for$u20$alloc..vec..Vec$LT$u8$C$A$GT$$GT$18write_all_vectored17h61357489be1d2a24E', symObjAddr: 0xA424, symBinAddr: 0x10001235C, symSize: 0x168 }
  - { offset: 0x4A18A, size: 0x8, addend: 0x0, symName: '__ZN3std2io5impls74_$LT$impl$u20$std..io..Write$u20$for$u20$alloc..vec..Vec$LT$u8$C$A$GT$$GT$18write_all_vectored17h61357489be1d2a24E', symObjAddr: 0xA424, symBinAddr: 0x10001235C, symSize: 0x168 }
  - { offset: 0x4A19F, size: 0x8, addend: 0x0, symName: '__ZN3std2io5impls74_$LT$impl$u20$std..io..Write$u20$for$u20$alloc..vec..Vec$LT$u8$C$A$GT$$GT$18write_all_vectored17h61357489be1d2a24E', symObjAddr: 0xA424, symBinAddr: 0x10001235C, symSize: 0x168 }
  - { offset: 0x4A1B4, size: 0x8, addend: 0x0, symName: '__ZN3std2io5impls74_$LT$impl$u20$std..io..Write$u20$for$u20$alloc..vec..Vec$LT$u8$C$A$GT$$GT$18write_all_vectored17h61357489be1d2a24E', symObjAddr: 0xA424, symBinAddr: 0x10001235C, symSize: 0x168 }
  - { offset: 0x4A1C8, size: 0x8, addend: 0x0, symName: '__ZN3std2io5impls74_$LT$impl$u20$std..io..Write$u20$for$u20$alloc..vec..Vec$LT$u8$C$A$GT$$GT$18write_all_vectored17h61357489be1d2a24E', symObjAddr: 0xA424, symBinAddr: 0x10001235C, symSize: 0x168 }
  - { offset: 0x4A3E1, size: 0x8, addend: 0x0, symName: '__ZN3std2io5impls74_$LT$impl$u20$std..io..Write$u20$for$u20$alloc..vec..Vec$LT$u8$C$A$GT$$GT$5flush17h7f80fd90e7fc18cdE', symObjAddr: 0xA58C, symBinAddr: 0x1000124C4, symSize: 0x8 }
  - { offset: 0x4A3FC, size: 0x8, addend: 0x0, symName: '__ZN3std2io5impls74_$LT$impl$u20$std..io..Write$u20$for$u20$alloc..vec..Vec$LT$u8$C$A$GT$$GT$5write17h4a6ebd7f00c1e3b6E', symObjAddr: 0xA594, symBinAddr: 0x1000124CC, symSize: 0x84 }
  - { offset: 0x4A541, size: 0x8, addend: 0x0, symName: '__ZN3std2io5impls74_$LT$impl$u20$std..io..Write$u20$for$u20$alloc..vec..Vec$LT$u8$C$A$GT$$GT$9write_all17h7a06a95410051fe1E', symObjAddr: 0xA618, symBinAddr: 0x100012550, symSize: 0x80 }
  - { offset: 0x4A6A8, size: 0x8, addend: 0x0, symName: __ZN3std2io19default_read_to_end16small_probe_read17hbff59304ba40a22dE, symObjAddr: 0x8DD8, symBinAddr: 0x1000116D0, symSize: 0xEC }
  - { offset: 0x4A9D9, size: 0x8, addend: 0x0, symName: '__ZN81_$LT$std..io..default_write_fmt..Adapter$LT$T$GT$$u20$as$u20$core..fmt..Write$GT$9write_str17h12683b88d4f37dd7E', symObjAddr: 0x4A168, symBinAddr: 0x1000313E0, symSize: 0x50 }
  - { offset: 0x4AA03, size: 0x8, addend: 0x0, symName: '__ZN81_$LT$std..io..default_write_fmt..Adapter$LT$T$GT$$u20$as$u20$core..fmt..Write$GT$9write_str17h284da73b654d1506E', symObjAddr: 0x4A1B8, symBinAddr: 0x100031430, symSize: 0xD8 }
  - { offset: 0x4AB16, size: 0x8, addend: 0x0, symName: '__ZN81_$LT$std..io..default_write_fmt..Adapter$LT$T$GT$$u20$as$u20$core..fmt..Write$GT$9write_str17h2db7b0298947a58eE', symObjAddr: 0x4A290, symBinAddr: 0x100031508, symSize: 0xA0 }
  - { offset: 0x4AC3E, size: 0x8, addend: 0x0, symName: '__ZN81_$LT$std..io..default_write_fmt..Adapter$LT$T$GT$$u20$as$u20$core..fmt..Write$GT$9write_str17h5b7b94f2f70b6cc9E', symObjAddr: 0x4A330, symBinAddr: 0x1000315A8, symSize: 0x80 }
  - { offset: 0x4AE85, size: 0x8, addend: 0x0, symName: __ZN3std4path4Path13_strip_prefix17h649cdf7fe52a9ca4E, symObjAddr: 0x1C7DC, symBinAddr: 0x100018DE0, symSize: 0x21C }
  - { offset: 0x4AF95, size: 0x8, addend: 0x0, symName: __ZN3std4path4Path5_join17h54f095185b763ad9E, symObjAddr: 0x1D0D4, symBinAddr: 0x100018FFC, symSize: 0x1A4 }
  - { offset: 0x4B56D, size: 0x8, addend: 0x0, symName: __ZN3std4path10Components15len_before_body17h183e6460ce02202dE, symObjAddr: 0x1B7FC, symBinAddr: 0x100018804, symSize: 0x18C }
  - { offset: 0x4B584, size: 0x8, addend: 0x0, symName: __ZN3std4path10Components15len_before_body17h183e6460ce02202dE, symObjAddr: 0x1B7FC, symBinAddr: 0x100018804, symSize: 0x18C }
  - { offset: 0x4B599, size: 0x8, addend: 0x0, symName: __ZN3std4path10Components15len_before_body17h183e6460ce02202dE, symObjAddr: 0x1B7FC, symBinAddr: 0x100018804, symSize: 0x18C }
  - { offset: 0x4B727, size: 0x8, addend: 0x0, symName: __ZN3std4path10Components25parse_next_component_back17h96bead52961e5974E, symObjAddr: 0x1B988, symBinAddr: 0x100018990, symSize: 0x12C }
  - { offset: 0x4B88C, size: 0x8, addend: 0x0, symName: __ZN3std4path10Components7as_path17h8b47be53b7bb02abE, symObjAddr: 0x1BAB4, symBinAddr: 0x100018ABC, symSize: 0x324 }
  - { offset: 0x4BC24, size: 0x8, addend: 0x0, symName: '__ZN61_$LT$std..path..Component$u20$as$u20$core..cmp..PartialEq$GT$2eq17hcac4c67d1f006796E', symObjAddr: 0x43C18, symBinAddr: 0x1000301AC, symSize: 0x134 }
  - { offset: 0x4BD7E, size: 0x8, addend: 0x0, symName: '__ZN80_$LT$std..path..Components$u20$as$u20$core..iter..traits..iterator..Iterator$GT$4next17hcff4524e130e7a04E', symObjAddr: 0x49B0C, symBinAddr: 0x100031084, symSize: 0x35C }
  - { offset: 0x4C093, size: 0x8, addend: 0x0, symName: '__ZN95_$LT$std..path..Components$u20$as$u20$core..iter..traits..double_ended..DoubleEndedIterator$GT$9next_back17hbbb48aeb24b30ac1E', symObjAddr: 0x4BF38, symBinAddr: 0x10003184C, symSize: 0x360 }
  - { offset: 0x4C262, size: 0x8, addend: 0x0, symName: __ZN3std7process5abort17he872d13fc606be41E, symObjAddr: 0x20DA8, symBinAddr: 0x1000425B0, symSize: 0xC }
  - { offset: 0x4C282, size: 0x8, addend: 0x0, symName: __ZN3std7process7Command6output17hf44e1086c78a62ecE, symObjAddr: 0x20EC8, symBinAddr: 0x10001994C, symSize: 0x2EC }
  - { offset: 0x4C80C, size: 0x8, addend: 0x0, symName: '__ZN118_$LT$std..thread..thread_name_string..ThreadNameString$u20$as$u20$core..convert..From$LT$alloc..string..String$GT$$GT$4from17h3cd36efdc78dbcc3E', symObjAddr: 0xEC0, symBinAddr: 0x10000B3F4, symSize: 0x110 }
  - { offset: 0x4CBC4, size: 0x8, addend: 0x0, symName: __ZN3std6thread7current12init_current17h76e9942ca4b6363dE, symObjAddr: 0x1FF38, symBinAddr: 0x100042414, symSize: 0x164 }
  - { offset: 0x4CEDC, size: 0x8, addend: 0x0, symName: __ZN3std6thread7current13current_os_id17h9bf74ead444ae1deE, symObjAddr: 0x2009C, symBinAddr: 0x1000198C4, symSize: 0x88 }
  - { offset: 0x4D0EF, size: 0x8, addend: 0x0, symName: __ZN3std6thread6Thread3new17hbf5aeb1736bec1e3E, symObjAddr: 0x1FB40, symBinAddr: 0x10001976C, symSize: 0x158 }
  - { offset: 0x4D41E, size: 0x8, addend: 0x0, symName: __ZN3std6thread8ThreadId3new9exhausted17ha73a828480ec4fa2E, symObjAddr: 0x2026C, symBinAddr: 0x100042578, symSize: 0x38 }
  - { offset: 0x4D49E, size: 0x8, addend: 0x0, symName: __ZN3std12backtrace_rs5print17BacktraceFrameFmt21print_raw_with_column17h3c81486fb0007567E, symObjAddr: 0x1050, symBinAddr: 0x10000B52C, symSize: 0x438 }
  - { offset: 0x4D6A6, size: 0x8, addend: 0x0, symName: __ZN3std12backtrace_rs9backtrace9libunwind5trace8trace_fn17h03c27b8c72497427E, symObjAddr: 0x1488, symBinAddr: 0x10000B964, symSize: 0x48 }
  - { offset: 0x4D761, size: 0x8, addend: 0x0, symName: __ZN3std12backtrace_rs9symbolize5gimli4mmap17h8dd225413c7073a4E, symObjAddr: 0x14D0, symBinAddr: 0x10000B9AC, symSize: 0x1DC }
  - { offset: 0x4DC5C, size: 0x8, addend: 0x0, symName: __ZN3std12backtrace_rs9symbolize5gimli5macho11find_header17h057a153a1489d815E, symObjAddr: 0x16AC, symBinAddr: 0x10000BB88, symSize: 0x1D4 }
  - { offset: 0x4DC79, size: 0x8, addend: 0x0, symName: __ZN3std12backtrace_rs9symbolize5gimli5macho11find_header17h057a153a1489d815E, symObjAddr: 0x16AC, symBinAddr: 0x10000BB88, symSize: 0x1D4 }
  - { offset: 0x4DC8D, size: 0x8, addend: 0x0, symName: __ZN3std12backtrace_rs9symbolize5gimli5macho11find_header17h057a153a1489d815E, symObjAddr: 0x16AC, symBinAddr: 0x10000BB88, symSize: 0x1D4 }
  - { offset: 0x4DCA1, size: 0x8, addend: 0x0, symName: __ZN3std12backtrace_rs9symbolize5gimli5macho11find_header17h057a153a1489d815E, symObjAddr: 0x16AC, symBinAddr: 0x10000BB88, symSize: 0x1D4 }
  - { offset: 0x4DCB5, size: 0x8, addend: 0x0, symName: __ZN3std12backtrace_rs9symbolize5gimli5macho11find_header17h057a153a1489d815E, symObjAddr: 0x16AC, symBinAddr: 0x10000BB88, symSize: 0x1D4 }
  - { offset: 0x4DCCA, size: 0x8, addend: 0x0, symName: __ZN3std12backtrace_rs9symbolize5gimli5macho11find_header17h057a153a1489d815E, symObjAddr: 0x16AC, symBinAddr: 0x10000BB88, symSize: 0x1D4 }
  - { offset: 0x4DCDF, size: 0x8, addend: 0x0, symName: __ZN3std12backtrace_rs9symbolize5gimli5macho11find_header17h057a153a1489d815E, symObjAddr: 0x16AC, symBinAddr: 0x10000BB88, symSize: 0x1D4 }
  - { offset: 0x4E3CC, size: 0x8, addend: 0x0, symName: __ZN3std12backtrace_rs9symbolize5gimli5macho6Object5parse17hbc26463257d20f2aE, symObjAddr: 0x1880, symBinAddr: 0x10000BD5C, symSize: 0xBFC }
  - { offset: 0x501A4, size: 0x8, addend: 0x0, symName: __ZN3std12backtrace_rs9symbolize5gimli5macho6Object7section17he22847e43a23fe6bE, symObjAddr: 0x247C, symBinAddr: 0x10000C958, symSize: 0x154 }
  - { offset: 0x505BD, size: 0x8, addend: 0x0, symName: __ZN3std12backtrace_rs9symbolize5gimli7Context11find_frames17h73caac78ce26352aE, symObjAddr: 0x25D0, symBinAddr: 0x10000CAAC, symSize: 0x394 }
  - { offset: 0x509A2, size: 0x8, addend: 0x0, symName: __ZN3std12backtrace_rs9symbolize5gimli7Context3new17h2384661d7d9b1f78E, symObjAddr: 0x2964, symBinAddr: 0x10000CE40, symSize: 0x2034 }
  - { offset: 0x54939, size: 0x8, addend: 0x0, symName: __ZN3std12backtrace_rs9symbolize5gimli7resolve17hf73b30071e9ea483E, symObjAddr: 0x4998, symBinAddr: 0x10000EE74, symSize: 0x2778 }
  - { offset: 0x5A2E7, size: 0x8, addend: 0x0, symName: __ZN3std12backtrace_rs9symbolize6Symbol4name17h06b8fd10d9b9a257E, symObjAddr: 0x7148, symBinAddr: 0x1000115EC, symSize: 0xE4 }
  - { offset: 0x5A499, size: 0x8, addend: 0x0, symName: '__ZN79_$LT$std..backtrace_rs..symbolize..SymbolName$u20$as$u20$core..fmt..Display$GT$3fmt17hb783e3698fc7e9b5E', symObjAddr: 0x492D0, symBinAddr: 0x100030F80, symSize: 0x104 }
  - { offset: 0x5A60F, size: 0x8, addend: 0x0, symName: '__ZN75_$LT$std..fs..ReadDir$u20$as$u20$core..iter..traits..iterator..Iterator$GT$4next17h1265719e5d52e8c4E', symObjAddr: 0x47B60, symBinAddr: 0x100030DF4, symSize: 0x18C }
  - { offset: 0x5AA67, size: 0x8, addend: 0x0, symName: '__ZN64_$LT$std..ffi..os_str..Display$u20$as$u20$core..fmt..Display$GT$3fmt17h85b477a581a14f44E', symObjAddr: 0x45488, symBinAddr: 0x100030354, symSize: 0xAC }
  - { offset: 0x5AAEC, size: 0x8, addend: 0x0, symName: '__ZN3std4sync6poison5mutex14Mutex$LT$T$GT$4lock17haf609da69215fe08E', symObjAddr: 0x1E94C, symBinAddr: 0x100019498, symSize: 0x78 }
  - { offset: 0x5AD4B, size: 0x8, addend: 0x0, symName: '__ZN3std4sync6poison4once4Once15call_once_force28_$u7b$$u7b$closure$u7d$$u7d$17ha4ab593fcc00fd4eE', symObjAddr: 0x1E638, symBinAddr: 0x1000191A0, symSize: 0x60 }
  - { offset: 0x5AE02, size: 0x8, addend: 0x0, symName: '__ZN3std4sync6poison4once4Once15call_once_force28_$u7b$$u7b$closure$u7d$$u7d$17hbc808b72c855c88aE', symObjAddr: 0x1E698, symBinAddr: 0x100019200, symSize: 0x78 }
  - { offset: 0x5AF5F, size: 0x8, addend: 0x0, symName: '__ZN3std4sync6poison4once4Once9call_once28_$u7b$$u7b$closure$u7d$$u7d$17hdd57cdd633d886a2E', symObjAddr: 0x1E72C, symBinAddr: 0x100019278, symSize: 0x220 }
  - { offset: 0x5B741, size: 0x8, addend: 0x0, symName: '__ZN3std4sync9once_lock17OnceLock$LT$T$GT$10initialize17h2b232360da4cbaedE', symObjAddr: 0x1EFF8, symBinAddr: 0x100042324, symSize: 0x68 }
  - { offset: 0x5B76C, size: 0x8, addend: 0x0, symName: '__ZN3std4sync9once_lock17OnceLock$LT$T$GT$10initialize17h2b232360da4cbaedE', symObjAddr: 0x1EFF8, symBinAddr: 0x100042324, symSize: 0x68 }
  - { offset: 0x5B780, size: 0x8, addend: 0x0, symName: '__ZN3std4sync9once_lock17OnceLock$LT$T$GT$10initialize17h2b232360da4cbaedE', symObjAddr: 0x1EFF8, symBinAddr: 0x100042324, symSize: 0x68 }
  - { offset: 0x5B794, size: 0x8, addend: 0x0, symName: '__ZN3std4sync9once_lock17OnceLock$LT$T$GT$10initialize17h2b232360da4cbaedE', symObjAddr: 0x1EFF8, symBinAddr: 0x100042324, symSize: 0x68 }
  - { offset: 0x5B7AA, size: 0x8, addend: 0x0, symName: '__ZN3std4sync9once_lock17OnceLock$LT$T$GT$10initialize17h3ac2c0cdefeecb80E', symObjAddr: 0x1F060, symBinAddr: 0x10004238C, symSize: 0x5C }
  - { offset: 0x5B7D5, size: 0x8, addend: 0x0, symName: '__ZN3std4sync9once_lock17OnceLock$LT$T$GT$10initialize17h3ac2c0cdefeecb80E', symObjAddr: 0x1F060, symBinAddr: 0x10004238C, symSize: 0x5C }
  - { offset: 0x5B7E9, size: 0x8, addend: 0x0, symName: '__ZN3std4sync9once_lock17OnceLock$LT$T$GT$10initialize17h3ac2c0cdefeecb80E', symObjAddr: 0x1F060, symBinAddr: 0x10004238C, symSize: 0x5C }
  - { offset: 0x5B7FD, size: 0x8, addend: 0x0, symName: '__ZN3std4sync9once_lock17OnceLock$LT$T$GT$10initialize17h3ac2c0cdefeecb80E', symObjAddr: 0x1F060, symBinAddr: 0x10004238C, symSize: 0x5C }
  - { offset: 0x5B97F, size: 0x8, addend: 0x0, symName: __ZN3std5panic19get_backtrace_style17h31f0dac9c1426532E, symObjAddr: 0x1F538, symBinAddr: 0x100019650, symSize: 0x11C }
  - { offset: 0x5B99D, size: 0x8, addend: 0x0, symName: __ZN3std5panic19get_backtrace_style17h31f0dac9c1426532E, symObjAddr: 0x1F538, symBinAddr: 0x100019650, symSize: 0x11C }
  - { offset: 0x5B9B2, size: 0x8, addend: 0x0, symName: __ZN3std5panic19get_backtrace_style17h31f0dac9c1426532E, symObjAddr: 0x1F538, symBinAddr: 0x100019650, symSize: 0x11C }
  - { offset: 0x5BE19, size: 0x8, addend: 0x0, symName: __ZN3std3env11current_dir17hc37cdc7315eb81a1E, symObjAddr: 0xCE2C, symBinAddr: 0x100013350, symSize: 0x19C }
  - { offset: 0x5C1F2, size: 0x8, addend: 0x0, symName: __ZN3std3env7_var_os17he408374094189780E, symObjAddr: 0xD13C, symBinAddr: 0x1000134EC, symSize: 0x164 }
  - { offset: 0x5C470, size: 0x8, addend: 0x0, symName: __ZN3std3env7vars_os17h331b2bf4375dda6aE, symObjAddr: 0xD49C, symBinAddr: 0x100013650, symSize: 0x3C4 }
  - { offset: 0x5D1C4, size: 0x8, addend: 0x0, symName: __ZN5alloc5alloc15exchange_malloc17h7a64f5364f308ae6E, symObjAddr: 0x39D7C, symBinAddr: 0x1000285C0, symSize: 0x48 }
  - { offset: 0x5E4E0, size: 0x8, addend: 0x0, symName: '__ZN64_$LT$alloc..ffi..c_str..NulError$u20$as$u20$core..fmt..Debug$GT$3fmt17hb528bfe231df95daE', symObjAddr: 0x44ED8, symBinAddr: 0x100030308, symSize: 0x4C }
  - { offset: 0x5EAC4, size: 0x8, addend: 0x0, symName: '__ZN5alloc11collections5btree4node208Handle$LT$alloc..collections..btree..node..NodeRef$LT$alloc..collections..btree..node..marker..Mut$C$K$C$V$C$alloc..collections..btree..node..marker..Leaf$GT$$C$alloc..collections..btree..node..marker..KV$GT$5split17ha6c8a03a837e8cecE', symObjAddr: 0x371FC, symBinAddr: 0x1000262B8, symSize: 0x140 }
  - { offset: 0x5EE97, size: 0x8, addend: 0x0, symName: '__ZN5alloc11collections5btree4node208Handle$LT$alloc..collections..btree..node..NodeRef$LT$alloc..collections..btree..node..marker..Mut$C$K$C$V$C$alloc..collections..btree..node..marker..Leaf$GT$$C$alloc..collections..btree..node..marker..KV$GT$5split17hdd415c88aa9df7f9E', symObjAddr: 0x3733C, symBinAddr: 0x1000263F8, symSize: 0x198 }
  - { offset: 0x5F2D7, size: 0x8, addend: 0x0, symName: '__ZN5alloc11collections5btree4node212Handle$LT$alloc..collections..btree..node..NodeRef$LT$alloc..collections..btree..node..marker..Mut$C$K$C$V$C$alloc..collections..btree..node..marker..Internal$GT$$C$alloc..collections..btree..node..marker..KV$GT$5split17h61b27ed46e18cc21E', symObjAddr: 0x374D4, symBinAddr: 0x100026590, symSize: 0x1FC }
  - { offset: 0x5F894, size: 0x8, addend: 0x0, symName: '__ZN5alloc11collections5btree4node212Handle$LT$alloc..collections..btree..node..NodeRef$LT$alloc..collections..btree..node..marker..Mut$C$K$C$V$C$alloc..collections..btree..node..marker..Internal$GT$$C$alloc..collections..btree..node..marker..KV$GT$5split17hb227b69ac0b3e3f9E', symObjAddr: 0x376D0, symBinAddr: 0x10002678C, symSize: 0x274 }
  - { offset: 0x5FF29, size: 0x8, addend: 0x0, symName: '__ZN5alloc11collections5btree6remove259_$LT$impl$u20$alloc..collections..btree..node..Handle$LT$alloc..collections..btree..node..NodeRef$LT$alloc..collections..btree..node..marker..Mut$C$K$C$V$C$alloc..collections..btree..node..marker..Leaf$GT$$C$alloc..collections..btree..node..marker..KV$GT$$GT$14remove_leaf_kv17h80c70ada1e450bd7E', symObjAddr: 0x38EE4, symBinAddr: 0x1000277C0, symSize: 0x568 }
  - { offset: 0x60B73, size: 0x8, addend: 0x0, symName: '__ZN5alloc11collections5btree6remove259_$LT$impl$u20$alloc..collections..btree..node..Handle$LT$alloc..collections..btree..node..NodeRef$LT$alloc..collections..btree..node..marker..Mut$C$K$C$V$C$alloc..collections..btree..node..marker..Leaf$GT$$C$alloc..collections..btree..node..marker..KV$GT$$GT$14remove_leaf_kv17hbb73ffc9875814dbE', symObjAddr: 0x3944C, symBinAddr: 0x100027D28, symSize: 0x524 }
  - { offset: 0x62836, size: 0x8, addend: 0x0, symName: '__ZN5alloc11collections5btree4node29BalancingContext$LT$K$C$V$GT$15bulk_steal_left17h2991e4cb8ce5f906E', symObjAddr: 0x37BBC, symBinAddr: 0x100026A00, symSize: 0x1F0 }
  - { offset: 0x62D66, size: 0x8, addend: 0x0, symName: '__ZN5alloc11collections5btree4node29BalancingContext$LT$K$C$V$GT$15bulk_steal_left17hcb35e3ceea232fdfE', symObjAddr: 0x37DAC, symBinAddr: 0x100026BF0, symSize: 0x280 }
  - { offset: 0x632CE, size: 0x8, addend: 0x0, symName: '__ZN5alloc11collections5btree4node29BalancingContext$LT$K$C$V$GT$16bulk_steal_right17h43a940da68472492E', symObjAddr: 0x3802C, symBinAddr: 0x100026E70, symSize: 0x2C8 }
  - { offset: 0x638EB, size: 0x8, addend: 0x0, symName: '__ZN5alloc11collections5btree4node29BalancingContext$LT$K$C$V$GT$16bulk_steal_right17hea11ac28cf98500dE', symObjAddr: 0x382F4, symBinAddr: 0x100027138, symSize: 0x23C }
  - { offset: 0x63F39, size: 0x8, addend: 0x0, symName: '__ZN5alloc11collections5btree4node29BalancingContext$LT$K$C$V$GT$8do_merge17h13333d6dfff3d928E', symObjAddr: 0x38530, symBinAddr: 0x100027374, symSize: 0x1F4 }
  - { offset: 0x6454D, size: 0x8, addend: 0x0, symName: '__ZN5alloc11collections5btree4node29BalancingContext$LT$K$C$V$GT$8do_merge17hac7b6a316cf9144aE', symObjAddr: 0x38724, symBinAddr: 0x100027568, symSize: 0x258 }
  - { offset: 0x64DE3, size: 0x8, addend: 0x0, symName: '__ZN5alloc11collections5btree3map25BTreeMap$LT$K$C$V$C$A$GT$6insert17ha4852dcd205f58ecE', symObjAddr: 0x360AC, symBinAddr: 0x100025304, symSize: 0x99C }
  - { offset: 0x66801, size: 0x8, addend: 0x0, symName: '__ZN5alloc11collections5btree3map25IntoIter$LT$K$C$V$C$A$GT$10dying_next17h0a5ca3d1aba591fbE', symObjAddr: 0x36A48, symBinAddr: 0x100025CA0, symSize: 0x208 }
  - { offset: 0x66BBD, size: 0x8, addend: 0x0, symName: '__ZN5alloc11collections5btree3map25IntoIter$LT$K$C$V$C$A$GT$10dying_next17h22b1c64eb370863dE', symObjAddr: 0x36C50, symBinAddr: 0x100025EA8, symSize: 0x208 }
  - { offset: 0x66F79, size: 0x8, addend: 0x0, symName: '__ZN5alloc11collections5btree3map25IntoIter$LT$K$C$V$C$A$GT$10dying_next17h80944ebf24a3bbadE', symObjAddr: 0x36E58, symBinAddr: 0x1000260B0, symSize: 0x208 }
  - { offset: 0x681FD, size: 0x8, addend: 0x0, symName: '__ZN5alloc7raw_vec19RawVec$LT$T$C$A$GT$8grow_one17h09f72ff2edcb7145E', symObjAddr: 0x39E44, symBinAddr: 0x100028608, symSize: 0xB4 }
  - { offset: 0x68328, size: 0x8, addend: 0x0, symName: '__ZN5alloc7raw_vec19RawVec$LT$T$C$A$GT$8grow_one17h0a83f3c2f81107feE', symObjAddr: 0x39EF8, symBinAddr: 0x1000286BC, symSize: 0xC0 }
  - { offset: 0x6843E, size: 0x8, addend: 0x0, symName: '__ZN5alloc7raw_vec19RawVec$LT$T$C$A$GT$8grow_one17h0b8cc8aaa4ca2627E', symObjAddr: 0x39FB8, symBinAddr: 0x10002877C, symSize: 0xB8 }
  - { offset: 0x68554, size: 0x8, addend: 0x0, symName: '__ZN5alloc7raw_vec19RawVec$LT$T$C$A$GT$8grow_one17h2538c3a76f8332d4E', symObjAddr: 0x3A070, symBinAddr: 0x100028834, symSize: 0xB4 }
  - { offset: 0x6867F, size: 0x8, addend: 0x0, symName: '__ZN5alloc7raw_vec19RawVec$LT$T$C$A$GT$8grow_one17h35b443c82a84d8f5E', symObjAddr: 0x3A124, symBinAddr: 0x1000288E8, symSize: 0xC0 }
  - { offset: 0x68795, size: 0x8, addend: 0x0, symName: '__ZN5alloc7raw_vec19RawVec$LT$T$C$A$GT$8grow_one17h3f245f84b3ab39cdE', symObjAddr: 0x3A1E4, symBinAddr: 0x1000289A8, symSize: 0xB4 }
  - { offset: 0x688C0, size: 0x8, addend: 0x0, symName: '__ZN5alloc7raw_vec19RawVec$LT$T$C$A$GT$8grow_one17h6539c0c099fe1986E', symObjAddr: 0x3A358, symBinAddr: 0x100028A5C, symSize: 0xB4 }
  - { offset: 0x689EB, size: 0x8, addend: 0x0, symName: '__ZN5alloc7raw_vec19RawVec$LT$T$C$A$GT$8grow_one17h94e06e2249cf7166E', symObjAddr: 0x3A40C, symBinAddr: 0x100028B10, symSize: 0xB8 }
  - { offset: 0x68B01, size: 0x8, addend: 0x0, symName: '__ZN5alloc7raw_vec19RawVec$LT$T$C$A$GT$8grow_one17hae47f4ea8854854fE', symObjAddr: 0x3A4C4, symBinAddr: 0x100028BC8, symSize: 0xC0 }
  - { offset: 0x68C17, size: 0x8, addend: 0x0, symName: '__ZN5alloc7raw_vec19RawVec$LT$T$C$A$GT$8grow_one17hb2be22af9cda6662E', symObjAddr: 0x3A584, symBinAddr: 0x100028C88, symSize: 0xC0 }
  - { offset: 0x68D2D, size: 0x8, addend: 0x0, symName: '__ZN5alloc7raw_vec19RawVec$LT$T$C$A$GT$8grow_one17hbb242b5a27216b95E', symObjAddr: 0x3A644, symBinAddr: 0x100028D48, symSize: 0xB8 }
  - { offset: 0x690F7, size: 0x8, addend: 0x0, symName: __ZN5alloc7raw_vec11finish_grow17h1fe80a46fbbf8c9aE, symObjAddr: 0x39DC4, symBinAddr: 0x1000454F8, symSize: 0x80 }
  - { offset: 0x69183, size: 0x8, addend: 0x0, symName: '__ZN5alloc7raw_vec20RawVecInner$LT$A$GT$7reserve21do_reserve_and_handle17h27d899f8eb2799c8E', symObjAddr: 0x3A6FC, symBinAddr: 0x100045578, symSize: 0xF8 }
  - { offset: 0x6943B, size: 0x8, addend: 0x0, symName: '__ZN58_$LT$alloc..string..String$u20$as$u20$core..fmt..Debug$GT$3fmt17h762f034d0b19a212E', symObjAddr: 0x33F2C, symBinAddr: 0x100025150, symSize: 0x10 }
  - { offset: 0x694F6, size: 0x8, addend: 0x0, symName: '__ZN58_$LT$alloc..string..String$u20$as$u20$core..fmt..Write$GT$10write_char17hf5eb0556627f32e1E', symObjAddr: 0x33F3C, symBinAddr: 0x100025160, symSize: 0x120 }
  - { offset: 0x69699, size: 0x8, addend: 0x0, symName: '__ZN58_$LT$alloc..string..String$u20$as$u20$core..fmt..Write$GT$9write_str17h4f289a0bc5411d70E', symObjAddr: 0x3405C, symBinAddr: 0x100025280, symSize: 0x80 }
  - { offset: 0x697F2, size: 0x8, addend: 0x0, symName: '__ZN60_$LT$alloc..string..String$u20$as$u20$core..fmt..Display$GT$3fmt17h40cb6c2d63a0400fE', symObjAddr: 0x415A0, symBinAddr: 0x10002FBAC, symSize: 0x10 }
  - { offset: 0x69C8F, size: 0x8, addend: 0x0, symName: '__ZN5alloc4sync16Arc$LT$T$C$A$GT$9drop_slow17h0590c51487cc0e78E', symObjAddr: 0x39970, symBinAddr: 0x10002824C, symSize: 0x78 }
  - { offset: 0x69E5D, size: 0x8, addend: 0x0, symName: '__ZN5alloc4sync16Arc$LT$T$C$A$GT$9drop_slow17h455f000bacbe8778E', symObjAddr: 0x399E8, symBinAddr: 0x1000282C4, symSize: 0x98 }
  - { offset: 0x69FFF, size: 0x8, addend: 0x0, symName: '__ZN5alloc4sync16Arc$LT$T$C$A$GT$9drop_slow17h58bfec597942d7c0E', symObjAddr: 0x39A80, symBinAddr: 0x10002835C, symSize: 0xC0 }
  - { offset: 0x6A328, size: 0x8, addend: 0x0, symName: '__ZN5alloc4sync16Arc$LT$T$C$A$GT$9drop_slow17h71ce5645e9f4e2faE', symObjAddr: 0x39BD8, symBinAddr: 0x10002841C, symSize: 0xD0 }
  - { offset: 0x6A541, size: 0x8, addend: 0x0, symName: '__ZN5alloc4sync16Arc$LT$T$C$A$GT$9drop_slow17hc514d4cb9a32a567E', symObjAddr: 0x39CA8, symBinAddr: 0x1000284EC, symSize: 0x34 }
  - { offset: 0x6A620, size: 0x8, addend: 0x0, symName: '__ZN5alloc4sync16Arc$LT$T$C$A$GT$9drop_slow17hed6f5b3a05cf41fbE', symObjAddr: 0x39CDC, symBinAddr: 0x100028520, symSize: 0xA0 }
  - { offset: 0x6B10D, size: 0x8, addend: 0x0, symName: __ZN6object4read7archive13ArchiveMember5parse17h0cf35c47a3262c28E, symObjAddr: 0x46924, symBinAddr: 0x1000307DC, symSize: 0x30C }
  - { offset: 0x6B7CE, size: 0x8, addend: 0x0, symName: __ZN6object4read7archive23parse_bsd_extended_name17hc2fd94417d200a20E, symObjAddr: 0x46C30, symBinAddr: 0x100030AE8, symSize: 0x2CC }
  - { offset: 0x6C16D, size: 0x8, addend: 0x0, symName: '__ZN6memchr6memchr6memchr28_$u7b$$u7b$closure$u7d$$u7d$17h397791b73b81e986E', symObjAddr: 0x466C8, symBinAddr: 0x100030580, symSize: 0x25C }
  - { offset: 0x6C938, size: 0x8, addend: 0x0, symName: '__ZN9addr2line4unit16ResUnit$LT$R$GT$25find_function_or_location28_$u7b$$u7b$closure$u7d$$u7d$17h0b2560d358ac4418E', symObjAddr: 0x4D0B0, symBinAddr: 0x1000327BC, symSize: 0x30C }
  - { offset: 0x6CCCD, size: 0x8, addend: 0x0, symName: '__ZN9addr2line4unit16ResUnit$LT$R$GT$25find_function_or_location17hb8c2717196c051f4E', symObjAddr: 0x4CD44, symBinAddr: 0x100032450, symSize: 0x36C }
  - { offset: 0x6D1F6, size: 0x8, addend: 0x0, symName: '__ZN9addr2line16Context$LT$R$GT$9find_unit17h6f93650cf3288060E', symObjAddr: 0x4C758, symBinAddr: 0x100031E64, symSize: 0x15C }
  - { offset: 0x6D378, size: 0x8, addend: 0x0, symName: '__ZN9addr2line6lookup30LoopingLookup$LT$T$C$L$C$F$GT$10new_lookup17h7be4a3ff02a5568bE', symObjAddr: 0x4D67C, symBinAddr: 0x100032D88, symSize: 0x438 }
  - { offset: 0x6D8DB, size: 0x8, addend: 0x0, symName: __ZN9addr2line4line11render_file17h6d17362951bb3a0fE, symObjAddr: 0x4C8B4, symBinAddr: 0x100031FC0, symSize: 0x490 }
  - { offset: 0x6E288, size: 0x8, addend: 0x0, symName: '__ZN9addr2line8function17Function$LT$R$GT$14parse_children17h94e2fbb278f6f4afE', symObjAddr: 0x4DE18, symBinAddr: 0x100033524, symSize: 0xF20 }
  - { offset: 0x6FB83, size: 0x8, addend: 0x0, symName: __ZN9addr2line8function10name_entry17hdcd9d55faa5b8559E, symObjAddr: 0x4DAB4, symBinAddr: 0x1000331C0, symSize: 0x364 }
  - { offset: 0x7005C, size: 0x8, addend: 0x0, symName: __ZN9addr2line8function9name_attr17h005d1ad1ee1bd9b3E, symObjAddr: 0x4ED38, symBinAddr: 0x100034444, symSize: 0x1C0 }
  - { offset: 0x70248, size: 0x8, addend: 0x0, symName: '__ZN9addr2line5frame18FrameIter$LT$R$GT$4next17h9c99cb3977d75464E', symObjAddr: 0x4D3BC, symBinAddr: 0x100032AC8, symSize: 0x2C0 }
  - { offset: 0x70AD8, size: 0x8, addend: 0x0, symName: '__ZN5gimli4read5dwarf14Dwarf$LT$R$GT$11attr_string17h61d81fbcbee62996E', symObjAddr: 0x3F804, symBinAddr: 0x10002DE10, symSize: 0x220 }
  - { offset: 0x71272, size: 0x8, addend: 0x0, symName: '__ZN5gimli4read5dwarf13Unit$LT$R$GT$3new17h58a22d42e2b88249E', symObjAddr: 0x3DB64, symBinAddr: 0x10002C170, symSize: 0x1CA0 }
  - { offset: 0x74A3D, size: 0x8, addend: 0x0, symName: '__ZN5gimli4read7aranges30ArangeHeader$LT$R$C$Offset$GT$5parse17h18ec296afb75f086E', symObjAddr: 0x40688, symBinAddr: 0x10002EC94, symSize: 0x2A8 }
  - { offset: 0x754AB, size: 0x8, addend: 0x0, symName: '__ZN5gimli4read4unit18Attribute$LT$R$GT$5value17hd84235d5f0589f1bE', symObjAddr: 0x3CD78, symBinAddr: 0x10002B384, symSize: 0x598 }
  - { offset: 0x758B6, size: 0x8, addend: 0x0, symName: '__ZN90_$LT$gimli..read..unit..AttributeValue$LT$R$C$Offset$GT$$u20$as$u20$core..clone..Clone$GT$5clone17h73aa6ddc12793aa1E', symObjAddr: 0x4B650, symBinAddr: 0x100031784, symSize: 0x68 }
  - { offset: 0x75916, size: 0x8, addend: 0x0, symName: '__ZN5gimli4read4unit32AttributeValue$LT$R$C$Offset$GT$11udata_value17ha8d2cb136f47175bE', symObjAddr: 0x3D5C8, symBinAddr: 0x10002BBD4, symSize: 0x84 }
  - { offset: 0x75971, size: 0x8, addend: 0x0, symName: __ZN5gimli4read4unit15parse_attribute17hc1d74b8eec228250E, symObjAddr: 0x3B990, symBinAddr: 0x100029F9C, symSize: 0xF74 }
  - { offset: 0x7851B, size: 0x8, addend: 0x0, symName: __ZN5gimli4read4unit15skip_attributes17hdc6142efc7264c05E, symObjAddr: 0x3C904, symBinAddr: 0x10002AF10, symSize: 0x474 }
  - { offset: 0x78F05, size: 0x8, addend: 0x0, symName: '__ZN5gimli4read4unit22EntriesCursor$LT$R$GT$10next_entry17h8f756747ff1f8396E', symObjAddr: 0x3D310, symBinAddr: 0x10002B91C, symSize: 0x2B8 }
  - { offset: 0x794C9, size: 0x8, addend: 0x0, symName: '__ZN5gimli4read4unit33DebugInfoUnitHeadersIter$LT$R$GT$4next17hb26e96162b5603e4E', symObjAddr: 0x3D64C, symBinAddr: 0x10002BC58, symSize: 0x518 }
  - { offset: 0x7A7B1, size: 0x8, addend: 0x0, symName: __ZN5gimli4read6reader6Reader11read_offset17ha6198688e6a6cc43E, symObjAddr: 0x401D4, symBinAddr: 0x10002E7E0, symSize: 0xB4 }
  - { offset: 0x7A9D0, size: 0x8, addend: 0x0, symName: __ZN5gimli4read6reader6Reader12read_sleb12817he7622149ed2ba8f3E, symObjAddr: 0x40288, symBinAddr: 0x10002E894, symSize: 0x23C }
  - { offset: 0x7AAAC, size: 0x8, addend: 0x0, symName: __ZN5gimli4read6reader6Reader12read_uleb12817hd0ba7762d4f5272cE, symObjAddr: 0x404C4, symBinAddr: 0x10002EAD0, symSize: 0xB8 }
  - { offset: 0x7AB53, size: 0x8, addend: 0x0, symName: __ZN5gimli4read6reader6Reader17read_sized_offset17h56144a8ee82a97f2E, symObjAddr: 0x4057C, symBinAddr: 0x10002EB88, symSize: 0x10C }
  - { offset: 0x7B1CA, size: 0x8, addend: 0x0, symName: '__ZN5gimli4read8rnglists20RngListIter$LT$R$GT$4next17hbfe62e2e23855b41E', symObjAddr: 0x40930, symBinAddr: 0x10002EF3C, symSize: 0xC70 }
  - { offset: 0x7DB41, size: 0x8, addend: 0x0, symName: '__ZN5gimli4read5index18UnitIndex$LT$R$GT$5parse17hf42bddb15b37e4adE', symObjAddr: 0x3FA24, symBinAddr: 0x10002E030, symSize: 0x7B0 }
  - { offset: 0x7E221, size: 0x8, addend: 0x0, symName: '__ZN5gimli4read4line27FileEntry$LT$R$C$Offset$GT$5parse17h809629ae1f90afdcE', symObjAddr: 0x3B774, symBinAddr: 0x100029D80, symSize: 0x21C }
  - { offset: 0x7E489, size: 0x8, addend: 0x0, symName: __ZN5gimli4read4line13parse_file_v517h46b7dbdd20cc86bdE, symObjAddr: 0x3A7F4, symBinAddr: 0x100028E00, symSize: 0x2B4 }
  - { offset: 0x7E611, size: 0x8, addend: 0x0, symName: __ZN5gimli4read4line15FileEntryFormat5parse17h8d770897394a1285E, symObjAddr: 0x3AAA8, symBinAddr: 0x1000290B4, symSize: 0x370 }
  - { offset: 0x7EE09, size: 0x8, addend: 0x0, symName: __ZN5gimli4read4line15parse_attribute17h8f693dd0ab51bc26E, symObjAddr: 0x3AE18, symBinAddr: 0x100029424, symSize: 0x874 }
  - { offset: 0x8060C, size: 0x8, addend: 0x0, symName: __ZN5gimli4read4line18parse_directory_v517hb83c7405e582bcc2E, symObjAddr: 0x3B68C, symBinAddr: 0x100029C98, symSize: 0xE8 }
  - { offset: 0x8089D, size: 0x8, addend: 0x0, symName: _OUTLINED_FUNCTION_0, symObjAddr: 0x4F37C, symBinAddr: 0x10003497C, symSize: 0x8 }
  - { offset: 0x808B5, size: 0x8, addend: 0x0, symName: _OUTLINED_FUNCTION_1, symObjAddr: 0x4F384, symBinAddr: 0x100034984, symSize: 0xC }
  - { offset: 0x808CD, size: 0x8, addend: 0x0, symName: _OUTLINED_FUNCTION_2, symObjAddr: 0x4F390, symBinAddr: 0x100034990, symSize: 0xC }
  - { offset: 0x808E5, size: 0x8, addend: 0x0, symName: _OUTLINED_FUNCTION_3, symObjAddr: 0x4F39C, symBinAddr: 0x10003499C, symSize: 0x10 }
  - { offset: 0x808FD, size: 0x8, addend: 0x0, symName: _OUTLINED_FUNCTION_4, symObjAddr: 0x4F3AC, symBinAddr: 0x1000349AC, symSize: 0x10 }
  - { offset: 0x80915, size: 0x8, addend: 0x0, symName: _OUTLINED_FUNCTION_5, symObjAddr: 0x4F3BC, symBinAddr: 0x1000349BC, symSize: 0xC }
  - { offset: 0x8092D, size: 0x8, addend: 0x0, symName: _OUTLINED_FUNCTION_6, symObjAddr: 0x4F3C8, symBinAddr: 0x1000349C8, symSize: 0xC }
  - { offset: 0x80945, size: 0x8, addend: 0x0, symName: _OUTLINED_FUNCTION_7, symObjAddr: 0x4F3D4, symBinAddr: 0x1000349D4, symSize: 0x10 }
  - { offset: 0x8095D, size: 0x8, addend: 0x0, symName: _OUTLINED_FUNCTION_8, symObjAddr: 0x4F3E4, symBinAddr: 0x1000349E4, symSize: 0x8 }
  - { offset: 0x80975, size: 0x8, addend: 0x0, symName: _OUTLINED_FUNCTION_9, symObjAddr: 0x4F3EC, symBinAddr: 0x1000349EC, symSize: 0x24 }
  - { offset: 0x8098D, size: 0x8, addend: 0x0, symName: _OUTLINED_FUNCTION_10, symObjAddr: 0x4F410, symBinAddr: 0x100034A10, symSize: 0x8 }
  - { offset: 0x809A5, size: 0x8, addend: 0x0, symName: _OUTLINED_FUNCTION_11, symObjAddr: 0x4F418, symBinAddr: 0x100034A18, symSize: 0x8 }
  - { offset: 0x809BD, size: 0x8, addend: 0x0, symName: _OUTLINED_FUNCTION_12, symObjAddr: 0x4F420, symBinAddr: 0x100034A20, symSize: 0x24 }
  - { offset: 0x809D5, size: 0x8, addend: 0x0, symName: _OUTLINED_FUNCTION_13, symObjAddr: 0x4F444, symBinAddr: 0x100034A44, symSize: 0x20 }
  - { offset: 0x809ED, size: 0x8, addend: 0x0, symName: _OUTLINED_FUNCTION_14, symObjAddr: 0x4F464, symBinAddr: 0x100034A64, symSize: 0x10 }
  - { offset: 0x80A05, size: 0x8, addend: 0x0, symName: _OUTLINED_FUNCTION_15, symObjAddr: 0x4F474, symBinAddr: 0x100034A74, symSize: 0x10 }
  - { offset: 0x80A1D, size: 0x8, addend: 0x0, symName: _OUTLINED_FUNCTION_16, symObjAddr: 0x4F484, symBinAddr: 0x100034A84, symSize: 0x10 }
  - { offset: 0x80A35, size: 0x8, addend: 0x0, symName: _OUTLINED_FUNCTION_17, symObjAddr: 0x4F494, symBinAddr: 0x100034A94, symSize: 0x10 }
  - { offset: 0x80A4D, size: 0x8, addend: 0x0, symName: _OUTLINED_FUNCTION_18, symObjAddr: 0x4F4A4, symBinAddr: 0x100034AA4, symSize: 0x8 }
  - { offset: 0x80A65, size: 0x8, addend: 0x0, symName: _OUTLINED_FUNCTION_19, symObjAddr: 0x4F4AC, symBinAddr: 0x100034AAC, symSize: 0x8 }
  - { offset: 0x80A7D, size: 0x8, addend: 0x0, symName: _OUTLINED_FUNCTION_20, symObjAddr: 0x4F4B4, symBinAddr: 0x100034AB4, symSize: 0xC }
  - { offset: 0x80A95, size: 0x8, addend: 0x0, symName: _OUTLINED_FUNCTION_21, symObjAddr: 0x4F4C0, symBinAddr: 0x100034AC0, symSize: 0x8 }
  - { offset: 0x80AAD, size: 0x8, addend: 0x0, symName: _OUTLINED_FUNCTION_22, symObjAddr: 0x4F4C8, symBinAddr: 0x100034AC8, symSize: 0x10 }
  - { offset: 0x80AC5, size: 0x8, addend: 0x0, symName: _OUTLINED_FUNCTION_23, symObjAddr: 0x4F4D8, symBinAddr: 0x100034AD8, symSize: 0x10 }
  - { offset: 0x80ADD, size: 0x8, addend: 0x0, symName: _OUTLINED_FUNCTION_24, symObjAddr: 0x4F4E8, symBinAddr: 0x100034AE8, symSize: 0x18 }
  - { offset: 0x80AF5, size: 0x8, addend: 0x0, symName: _OUTLINED_FUNCTION_25, symObjAddr: 0x4F500, symBinAddr: 0x100034B00, symSize: 0xC }
  - { offset: 0x80B0D, size: 0x8, addend: 0x0, symName: _OUTLINED_FUNCTION_26, symObjAddr: 0x4F50C, symBinAddr: 0x100034B0C, symSize: 0x8 }
  - { offset: 0x80B25, size: 0x8, addend: 0x0, symName: _OUTLINED_FUNCTION_27, symObjAddr: 0x4F514, symBinAddr: 0x100034B14, symSize: 0x8 }
  - { offset: 0x80B3D, size: 0x8, addend: 0x0, symName: _OUTLINED_FUNCTION_28, symObjAddr: 0x4F51C, symBinAddr: 0x100034B1C, symSize: 0xC }
  - { offset: 0x80B55, size: 0x8, addend: 0x0, symName: _OUTLINED_FUNCTION_29, symObjAddr: 0x4F528, symBinAddr: 0x100034B28, symSize: 0xC }
  - { offset: 0x80B6D, size: 0x8, addend: 0x0, symName: _OUTLINED_FUNCTION_30, symObjAddr: 0x4F534, symBinAddr: 0x100034B34, symSize: 0xC }
  - { offset: 0x80B85, size: 0x8, addend: 0x0, symName: _OUTLINED_FUNCTION_31, symObjAddr: 0x4F540, symBinAddr: 0x100034B40, symSize: 0xC }
  - { offset: 0x80B9D, size: 0x8, addend: 0x0, symName: _OUTLINED_FUNCTION_32, symObjAddr: 0x4F54C, symBinAddr: 0x100034B4C, symSize: 0x8 }
  - { offset: 0x80BB5, size: 0x8, addend: 0x0, symName: _OUTLINED_FUNCTION_33, symObjAddr: 0x4F554, symBinAddr: 0x100034B54, symSize: 0x10 }
  - { offset: 0x80BCD, size: 0x8, addend: 0x0, symName: _OUTLINED_FUNCTION_34, symObjAddr: 0x4F564, symBinAddr: 0x100034B64, symSize: 0x14 }
  - { offset: 0x80BE5, size: 0x8, addend: 0x0, symName: _OUTLINED_FUNCTION_35, symObjAddr: 0x4F578, symBinAddr: 0x100034B78, symSize: 0x14 }
  - { offset: 0x80BFD, size: 0x8, addend: 0x0, symName: _OUTLINED_FUNCTION_36, symObjAddr: 0x4F58C, symBinAddr: 0x100034B8C, symSize: 0x14 }
  - { offset: 0x80C33, size: 0x8, addend: 0x0, symName: __RNvCskdKJRKLKjqM_7___rustc18___rust_start_panic, symObjAddr: 0x0, symBinAddr: 0x100034BA0, symSize: 0xA0 }
  - { offset: 0x80D0E, size: 0x8, addend: 0x0, symName: __ZN12panic_unwind3imp5panic17exception_cleanup17h4266e266b2c9487cE, symObjAddr: 0x108, symBinAddr: 0x100034CA8, symSize: 0x18 }
  - { offset: 0x80D2A, size: 0x8, addend: 0x0, symName: __RNvCskdKJRKLKjqM_7___rustc18___rust_start_panic, symObjAddr: 0x0, symBinAddr: 0x100034BA0, symSize: 0xA0 }
  - { offset: 0x80DB4, size: 0x8, addend: 0x0, symName: __RNvCskdKJRKLKjqM_7___rustc20___rust_panic_cleanup, symObjAddr: 0xA0, symBinAddr: 0x100034C40, symSize: 0x68 }
  - { offset: 0x80EA9, size: 0x8, addend: 0x0, symName: '__ZN4core3ptr49drop_in_place$LT$panic_unwind..imp..Exception$GT$17haf5bf9a577d18351E', symObjAddr: 0x120, symBinAddr: 0x100034CC0, symSize: 0x78 }
  - { offset: 0x80FB0, size: 0x8, addend: 0x0, symName: '__ZN4core3ptr74drop_in_place$LT$alloc..boxed..Box$LT$panic_unwind..imp..Exception$GT$$GT$17hfb07d84a22c2fe57E', symObjAddr: 0x198, symBinAddr: 0x100034D38, symSize: 0x8C }
  - { offset: 0x812D2, size: 0x8, addend: 0x0, symName: '__ZN69_$LT$core..alloc..layout..LayoutError$u20$as$u20$core..fmt..Debug$GT$3fmt17h64c9cb4b8dea4922E', symObjAddr: 0x4FA4, symBinAddr: 0x10003CC9C, symSize: 0x14 }
  - { offset: 0x8155B, size: 0x8, addend: 0x0, symName: __ZN5alloc5alloc18handle_alloc_error17h26baa107ca8d7d87E, symObjAddr: 0x3110, symBinAddr: 0x100045760, symSize: 0x18 }
  - { offset: 0x817F8, size: 0x8, addend: 0x0, symName: __ZN5alloc7raw_vec11finish_grow17hae2a77561b3eba9fE, symObjAddr: 0x4A98, symBinAddr: 0x100045778, symSize: 0x80 }
  - { offset: 0x8186D, size: 0x8, addend: 0x0, symName: __ZN5alloc7raw_vec12handle_error17hda5280d2e54fe328E, symObjAddr: 0x4B18, symBinAddr: 0x1000457F8, symSize: 0x18 }
  - { offset: 0x818AC, size: 0x8, addend: 0x0, symName: __ZN5alloc7raw_vec17capacity_overflow17h17d905a29a8903c6E, symObjAddr: 0x4B30, symBinAddr: 0x100045810, symSize: 0x34 }
  - { offset: 0x818E5, size: 0x8, addend: 0x0, symName: '__ZN5alloc7raw_vec20RawVecInner$LT$A$GT$7reserve21do_reserve_and_handle17h11d004b711ee78ceE', symObjAddr: 0x4C04, symBinAddr: 0x100045844, symSize: 0xAC }
  - { offset: 0x81A71, size: 0x8, addend: 0x0, symName: '__ZN254_$LT$alloc..boxed..convert..$LT$impl$u20$core..convert..From$LT$alloc..string..String$GT$$u20$for$u20$alloc..boxed..Box$LT$dyn$u20$core..error..Error$u2b$core..marker..Sync$u2b$core..marker..Send$GT$$GT$..from..StringError$u20$as$u20$core..fmt..Debug$GT$3fmt17h75dec14bca657cd7E', symObjAddr: 0x114, symBinAddr: 0x10003C844, symSize: 0x10 }
  - { offset: 0x81B42, size: 0x8, addend: 0x0, symName: '__ZN256_$LT$alloc..boxed..convert..$LT$impl$u20$core..convert..From$LT$alloc..string..String$GT$$u20$for$u20$alloc..boxed..Box$LT$dyn$u20$core..error..Error$u2b$core..marker..Sync$u2b$core..marker..Send$GT$$GT$..from..StringError$u20$as$u20$core..fmt..Display$GT$3fmt17h47fcec3434e746beE', symObjAddr: 0x124, symBinAddr: 0x10003C854, symSize: 0x10 }
  - { offset: 0x81C35, size: 0x8, addend: 0x0, symName: '__ZN100_$LT$alloc..ffi..c_str..CString$u20$as$u20$core..convert..From$LT$$RF$core..ffi..c_str..CStr$GT$$GT$4from17ha0ae31de1f056ba8E', symObjAddr: 0x94, symBinAddr: 0x10003C7C4, symSize: 0x80 }
  - { offset: 0x81DA5, size: 0x8, addend: 0x0, symName: __ZN5alloc3ffi5c_str7CString19_from_vec_unchecked17ha9e4236e455233d9E, symObjAddr: 0xAA0, symBinAddr: 0x10003C864, symSize: 0x160 }
  - { offset: 0x820CF, size: 0x8, addend: 0x0, symName: __ZN5alloc3ffi5c_str7CString8from_raw17hd515aced8920cd6dE, symObjAddr: 0xCA4, symBinAddr: 0x10003C9C4, symSize: 0x28 }
  - { offset: 0x82108, size: 0x8, addend: 0x0, symName: '__ZN72_$LT$$RF$str$u20$as$u20$alloc..ffi..c_str..CString..new..SpecNewImpl$GT$13spec_new_impl17h45e6a9b6841b9026E', symObjAddr: 0x4FB8, symBinAddr: 0x10003CCB0, symSize: 0x114 }
  - { offset: 0x8251E, size: 0x8, addend: 0x0, symName: __ZN5alloc6string6String15from_utf8_lossy17h3827377ec6f44505E, symObjAddr: 0x40B8, symBinAddr: 0x10003CA60, symSize: 0x23C }
  - { offset: 0x82ADA, size: 0x8, addend: 0x0, symName: '__ZN98_$LT$alloc..string..String$u20$as$u20$core..convert..From$LT$alloc..borrow..Cow$LT$str$GT$$GT$$GT$4from17h5469e7f25801e42aE', symObjAddr: 0x58FC, symBinAddr: 0x10003CDC4, symSize: 0xB4 }
  - { offset: 0x82CE2, size: 0x8, addend: 0x0, symName: __ZN5alloc4sync32arcinner_layout_for_value_layout17he81fe29099bd6304E, symObjAddr: 0x226C, symBinAddr: 0x10003C9EC, symSize: 0x74 }
  - { offset: 0x82E37, size: 0x8, addend: 0x0, symName: '__ZN71_$LT$core..ops..range..Range$LT$Idx$GT$$u20$as$u20$core..fmt..Debug$GT$3fmt17h9ee395a326b5a38dE', symObjAddr: 0x1D05C, symBinAddr: 0x100041828, symSize: 0x5C }
  - { offset: 0x830AC, size: 0x8, addend: 0x0, symName: '__ZN4core4char7methods22_$LT$impl$u20$char$GT$16escape_debug_ext17h65363754973cca06E', symObjAddr: 0x15EAC, symBinAddr: 0x100040CCC, symSize: 0x284 }
  - { offset: 0x8327A, size: 0x8, addend: 0x0, symName: __ZN4core4char7methods15encode_utf8_raw8do_panic7runtime17hf09a7bf7d34256f1E, symObjAddr: 0x15DD4, symBinAddr: 0x10004599C, symSize: 0x6C }
  - { offset: 0x8347A, size: 0x8, addend: 0x0, symName: __ZN4core3num22from_ascii_radix_panic8do_panic7runtime17h7f9501ed7945387fE, symObjAddr: 0xD48C, symBinAddr: 0x1000458FC, symSize: 0x44 }
  - { offset: 0x834AD, size: 0x8, addend: 0x0, symName: __ZN4core3num22from_ascii_radix_panic17h9c5061ce301e38d1E, symObjAddr: 0xD480, symBinAddr: 0x1000458F0, symSize: 0xC }
  - { offset: 0x8374F, size: 0x8, addend: 0x0, symName: __ZN4core6option13expect_failed17ha7eb9005b8b6a5f0E, symObjAddr: 0x16714, symBinAddr: 0x100045B74, symSize: 0x48 }
  - { offset: 0x83797, size: 0x8, addend: 0x0, symName: __ZN4core6option13unwrap_failed17h5390b8bf3624dae4E, symObjAddr: 0x1675C, symBinAddr: 0x100045BBC, symSize: 0x1C }
  - { offset: 0x83C91, size: 0x8, addend: 0x0, symName: __ZN4core5slice5index16slice_index_fail8do_panic7runtime17h264a8ffb4962c84aE, symObjAddr: 0x16438, symBinAddr: 0x100045A84, symSize: 0x50 }
  - { offset: 0x83CC2, size: 0x8, addend: 0x0, symName: __ZN4core5slice5index16slice_index_fail8do_panic7runtime17hc3cb4cb0f63d7a0dE, symObjAddr: 0x16488, symBinAddr: 0x100045AD4, symSize: 0x50 }
  - { offset: 0x83CF3, size: 0x8, addend: 0x0, symName: __ZN4core5slice5index16slice_index_fail8do_panic7runtime17hdb76a588098e04d1E, symObjAddr: 0x164D8, symBinAddr: 0x100045B24, symSize: 0x50 }
  - { offset: 0x83D26, size: 0x8, addend: 0x0, symName: __ZN4core5slice5index16slice_index_fail17hcba6beb3c7e54df7E, symObjAddr: 0x163F4, symBinAddr: 0x100045A40, symSize: 0x44 }
  - { offset: 0x83DDF, size: 0x8, addend: 0x0, symName: __ZN4core5slice6memchr14memchr_aligned17h0fd76980ccaa34afE, symObjAddr: 0x16528, symBinAddr: 0x100040F9C, symSize: 0xDC }
  - { offset: 0x83DF6, size: 0x8, addend: 0x0, symName: __ZN4core5slice6memchr14memchr_aligned17h0fd76980ccaa34afE, symObjAddr: 0x16528, symBinAddr: 0x100040F9C, symSize: 0xDC }
  - { offset: 0x83E0B, size: 0x8, addend: 0x0, symName: __ZN4core5slice6memchr14memchr_aligned17h0fd76980ccaa34afE, symObjAddr: 0x16528, symBinAddr: 0x100040F9C, symSize: 0xDC }
  - { offset: 0x83E1F, size: 0x8, addend: 0x0, symName: __ZN4core5slice6memchr14memchr_aligned17h0fd76980ccaa34afE, symObjAddr: 0x16528, symBinAddr: 0x100040F9C, symSize: 0xDC }
  - { offset: 0x83E34, size: 0x8, addend: 0x0, symName: __ZN4core5slice6memchr14memchr_aligned17h0fd76980ccaa34afE, symObjAddr: 0x16528, symBinAddr: 0x100040F9C, symSize: 0xDC }
  - { offset: 0x83EE3, size: 0x8, addend: 0x0, symName: __ZN4core5slice6memchr7memrchr17h9d6664cc82317f7aE, symObjAddr: 0x16604, symBinAddr: 0x100041078, symSize: 0x110 }
  - { offset: 0x8407F, size: 0x8, addend: 0x0, symName: __ZN4core5slice4sort6shared9smallsort22panic_on_ord_violation17haee08cae494f9b76E, symObjAddr: 0x162E0, symBinAddr: 0x100045A08, symSize: 0x38 }
  - { offset: 0x840BC, size: 0x8, addend: 0x0, symName: __ZN4core5slice4sort6stable5drift11sqrt_approx17h4d80f437b4f05e96E, symObjAddr: 0x16318, symBinAddr: 0x100040F70, symSize: 0x2C }
  - { offset: 0x841B1, size: 0x8, addend: 0x0, symName: __ZN4core3fmt9Formatter10debug_list17hbc06b89459e82ed2E, symObjAddr: 0x9CA8, symBinAddr: 0x10003E858, symSize: 0x48 }
  - { offset: 0x841F1, size: 0x8, addend: 0x0, symName: __ZN4core3fmt9Formatter11debug_tuple17h51c84851e9ce025eE, symObjAddr: 0x9CF0, symBinAddr: 0x10003E8A0, symSize: 0x50 }
  - { offset: 0x8423F, size: 0x8, addend: 0x0, symName: __ZN4core3fmt9Formatter12debug_struct17hff016019e19a1e59E, symObjAddr: 0x9D40, symBinAddr: 0x10003E8F0, symSize: 0x3C }
  - { offset: 0x842A8, size: 0x8, addend: 0x0, symName: __ZN4core3fmt9Formatter12pad_integral17h6b76510de31552c4E, symObjAddr: 0x9DF8, symBinAddr: 0x10003E9A8, symSize: 0x3B4 }
  - { offset: 0x845A9, size: 0x8, addend: 0x0, symName: __ZN4core3fmt9Formatter25debug_tuple_field1_finish17hd754385b76890be0E, symObjAddr: 0xA668, symBinAddr: 0x10003ED5C, symSize: 0x160 }
  - { offset: 0x847A4, size: 0x8, addend: 0x0, symName: __ZN4core3fmt9Formatter25debug_tuple_field2_finish17hd192ca962f3e76f9E, symObjAddr: 0xA7C8, symBinAddr: 0x10003EEBC, symSize: 0x1D8 }
  - { offset: 0x84A9C, size: 0x8, addend: 0x0, symName: __ZN4core3fmt9Formatter26debug_struct_field1_finish17hdf9e3e8cc9fad70bE, symObjAddr: 0xB580, symBinAddr: 0x10003F094, symSize: 0xD0 }
  - { offset: 0x84B73, size: 0x8, addend: 0x0, symName: __ZN4core3fmt9Formatter26debug_struct_field2_finish17h3b83c18c70479e53E, symObjAddr: 0xB650, symBinAddr: 0x10003F164, symSize: 0x104 }
  - { offset: 0x84C4A, size: 0x8, addend: 0x0, symName: __ZN4core3fmt9Formatter3pad17hff1f0d89dcf14919E, symObjAddr: 0xBC68, symBinAddr: 0x10003F268, symSize: 0x304 }
  - { offset: 0x84FAA, size: 0x8, addend: 0x0, symName: __ZN4core3fmt9Formatter9write_str17hc566c39ab04e0b97E, symObjAddr: 0xC018, symBinAddr: 0x10003F56C, symSize: 0x10 }
  - { offset: 0x8501A, size: 0x8, addend: 0x0, symName: __ZN4core3fmt8builders11DebugStruct5field17h207d6e7a951e3da0E, symObjAddr: 0x91AC, symBinAddr: 0x10003E494, symSize: 0x1B4 }
  - { offset: 0x85226, size: 0x8, addend: 0x0, symName: __ZN4core3fmt8builders11DebugStruct6finish17h09aadd2fc45d6189E, symObjAddr: 0x9360, symBinAddr: 0x10003E648, symSize: 0x7C }
  - { offset: 0x8534E, size: 0x8, addend: 0x0, symName: __ZN4core3fmt8builders10DebugTuple5field17h05b75b880ca687fcE, symObjAddr: 0x8EC8, symBinAddr: 0x10003E298, symSize: 0x148 }
  - { offset: 0x854CC, size: 0x8, addend: 0x0, symName: __ZN4core3fmt8builders10DebugTuple6finish17hbdc58b7a910cf8f5E, symObjAddr: 0x9010, symBinAddr: 0x10003E3E0, symSize: 0xB4 }
  - { offset: 0x85607, size: 0x8, addend: 0x0, symName: __ZN4core3fmt8builders8DebugSet5entry17h2d9f8a7b8dc85098E, symObjAddr: 0x9A00, symBinAddr: 0x10003E6C4, symSize: 0x148 }
  - { offset: 0x857E8, size: 0x8, addend: 0x0, symName: __ZN4core3fmt8builders9DebugList6finish17h1e2c90a4f4b268bbE, symObjAddr: 0x9C5C, symBinAddr: 0x10003E80C, symSize: 0x4C }
  - { offset: 0x85865, size: 0x8, addend: 0x0, symName: '__ZN68_$LT$core..fmt..builders..PadAdapter$u20$as$u20$core..fmt..Write$GT$10write_char17h26ddfb0e18c0d503E', symObjAddr: 0x1BDC8, symBinAddr: 0x100041564, symSize: 0x80 }
  - { offset: 0x8588E, size: 0x8, addend: 0x0, symName: '__ZN68_$LT$core..fmt..builders..PadAdapter$u20$as$u20$core..fmt..Write$GT$9write_str17hc88595c259955ac6E', symObjAddr: 0x1BE48, symBinAddr: 0x1000415E4, symSize: 0x244 }
  - { offset: 0x85B4B, size: 0x8, addend: 0x0, symName: '__ZN57_$LT$core..fmt..Formatter$u20$as$u20$core..fmt..Write$GT$10write_char17ha628134952590ac5E', symObjAddr: 0x1880C, symBinAddr: 0x100041534, symSize: 0x10 }
  - { offset: 0x85B87, size: 0x8, addend: 0x0, symName: '__ZN40_$LT$str$u20$as$u20$core..fmt..Debug$GT$3fmt17h6237d1724b23f846E', symObjAddr: 0x278, symBinAddr: 0x10003CE78, symSize: 0x398 }
  - { offset: 0x85F93, size: 0x8, addend: 0x0, symName: '__ZN41_$LT$char$u20$as$u20$core..fmt..Debug$GT$3fmt17h59e0a889e40b0668E', symObjAddr: 0x610, symBinAddr: 0x10003D210, symSize: 0xA8 }
  - { offset: 0x8609D, size: 0x8, addend: 0x0, symName: '__ZN42_$LT$$RF$T$u20$as$u20$core..fmt..Debug$GT$3fmt17h64c69660141ac234E', symObjAddr: 0x6D8, symBinAddr: 0x10003D2B8, symSize: 0x10 }
  - { offset: 0x860B1, size: 0x8, addend: 0x0, symName: '__ZN42_$LT$$RF$T$u20$as$u20$core..fmt..Debug$GT$3fmt17h69565c29f92b8fc4E', symObjAddr: 0x6E8, symBinAddr: 0x10003D2C8, symSize: 0x8 }
  - { offset: 0x860C5, size: 0x8, addend: 0x0, symName: '__ZN42_$LT$$RF$T$u20$as$u20$core..fmt..Debug$GT$3fmt17h94db8d2ef512e5afE', symObjAddr: 0x6F0, symBinAddr: 0x10003D2D0, symSize: 0xC }
  - { offset: 0x86102, size: 0x8, addend: 0x0, symName: '__ZN42_$LT$str$u20$as$u20$core..fmt..Display$GT$3fmt17h1e7192c885a6ee43E', symObjAddr: 0x868, symBinAddr: 0x10003D2DC, symSize: 0x14 }
  - { offset: 0x8612A, size: 0x8, addend: 0x0, symName: '__ZN43_$LT$char$u20$as$u20$core..fmt..Display$GT$3fmt17hdbc7e490592ff55fE', symObjAddr: 0x8B0, symBinAddr: 0x10003D2F0, symSize: 0xD4 }
  - { offset: 0x861A0, size: 0x8, addend: 0x0, symName: '__ZN44_$LT$$RF$T$u20$as$u20$core..fmt..Display$GT$3fmt17hee11fbb5a7b19b29E', symObjAddr: 0xACC, symBinAddr: 0x10003D3C4, symSize: 0x10 }
  - { offset: 0x86274, size: 0x8, addend: 0x0, symName: '__ZN4core3fmt3num3imp51_$LT$impl$u20$core..fmt..Display$u20$for$u20$u8$GT$3fmt17h96dad03e83fb5f48E', symObjAddr: 0x2680, symBinAddr: 0x10003D578, symSize: 0xB0 }
  - { offset: 0x86359, size: 0x8, addend: 0x0, symName: '__ZN4core3fmt3num3imp52_$LT$impl$u20$core..fmt..Display$u20$for$u20$i32$GT$3fmt17h52781b7f8b2f4a4fE', symObjAddr: 0x2848, symBinAddr: 0x10003D628, symSize: 0x13C }
  - { offset: 0x86459, size: 0x8, addend: 0x0, symName: '__ZN4core3fmt3num3imp52_$LT$impl$u20$core..fmt..Display$u20$for$u20$u32$GT$3fmt17h5beaee6a6019d596E', symObjAddr: 0x2BC4, symBinAddr: 0x10003D764, symSize: 0x130 }
  - { offset: 0x86556, size: 0x8, addend: 0x0, symName: '__ZN4core3fmt3num3imp52_$LT$impl$u20$core..fmt..Display$u20$for$u20$u64$GT$3fmt17h14d52cab6e85bc6fE', symObjAddr: 0x2CF4, symBinAddr: 0x10003D894, symSize: 0x13C }
  - { offset: 0x86691, size: 0x8, addend: 0x0, symName: '__ZN4core3fmt3num52_$LT$impl$u20$core..fmt..LowerHex$u20$for$u20$u8$GT$3fmt17hb13fce475fc222b2E', symObjAddr: 0x4BF0, symBinAddr: 0x10003DD74, symSize: 0x74 }
  - { offset: 0x86703, size: 0x8, addend: 0x0, symName: '__ZN4core3fmt3num52_$LT$impl$u20$core..fmt..UpperHex$u20$for$u20$u8$GT$3fmt17hb1de02a3a7bbd3c7E', symObjAddr: 0x4CD8, symBinAddr: 0x10003DDE8, symSize: 0x74 }
  - { offset: 0x86788, size: 0x8, addend: 0x0, symName: '__ZN4core3fmt3num53_$LT$impl$u20$core..fmt..UpperHex$u20$for$u20$u32$GT$3fmt17hb34391e4c80e6b6fE', symObjAddr: 0x52AC, symBinAddr: 0x10003DFB8, symSize: 0x74 }
  - { offset: 0x867FA, size: 0x8, addend: 0x0, symName: '__ZN4core3fmt3num53_$LT$impl$u20$core..fmt..LowerHex$u20$for$u20$u64$GT$3fmt17h79a829e8e24e1101E', symObjAddr: 0x5068, symBinAddr: 0x10003DED0, symSize: 0x74 }
  - { offset: 0x8686C, size: 0x8, addend: 0x0, symName: '__ZN4core3fmt3num53_$LT$impl$u20$core..fmt..UpperHex$u20$for$u20$u64$GT$3fmt17hc53763e351945eb2E', symObjAddr: 0x5320, symBinAddr: 0x10003E02C, symSize: 0x74 }
  - { offset: 0x868D1, size: 0x8, addend: 0x0, symName: '__ZN4core3fmt3num50_$LT$impl$u20$core..fmt..Debug$u20$for$u20$u64$GT$3fmt17hc0c6345233f6992cE', symObjAddr: 0x3E30, symBinAddr: 0x10003D9D0, symSize: 0x1CC }
  - { offset: 0x86A4D, size: 0x8, addend: 0x0, symName: '__ZN4core3fmt3num52_$LT$impl$u20$core..fmt..Debug$u20$for$u20$usize$GT$3fmt17hecd777b1c3510085E', symObjAddr: 0x49A4, symBinAddr: 0x10003DB9C, symSize: 0x1D8 }
  - { offset: 0x86BB6, size: 0x8, addend: 0x0, symName: '__ZN4core3fmt3num53_$LT$impl$u20$core..fmt..LowerHex$u20$for$u20$i32$GT$3fmt17hdfae8c5dbc559eecE', symObjAddr: 0x4E98, symBinAddr: 0x10003DE5C, symSize: 0x74 }
  - { offset: 0x86C3D, size: 0x8, addend: 0x0, symName: '__ZN4core3fmt3num53_$LT$impl$u20$core..fmt..UpperHex$u20$for$u20$i32$GT$3fmt17h723ababa892c8d1fE', symObjAddr: 0x5150, symBinAddr: 0x10003DF44, symSize: 0x74 }
  - { offset: 0x86E32, size: 0x8, addend: 0x0, symName: __ZN4core3fmt17pointer_fmt_inner17h8bac0a374e702121E, symObjAddr: 0x10FC, symBinAddr: 0x10003D4C4, symSize: 0xB4 }
  - { offset: 0x86EEF, size: 0x8, addend: 0x0, symName: __ZN4core3fmt5Write9write_fmt17h335a5c637617de5aE, symObjAddr: 0x640C, symBinAddr: 0x10003E0A0, symSize: 0x10 }
  - { offset: 0x86F6E, size: 0x8, addend: 0x0, symName: __ZN4core3fmt5write17h2ddadfca81aeb692E, symObjAddr: 0x8C20, symBinAddr: 0x10003E0B0, symSize: 0x1E8 }
  - { offset: 0x87139, size: 0x8, addend: 0x0, symName: __ZN4core3fmt9Formatter12pad_integral12write_prefix17h1291243e63835aa1E, symObjAddr: 0x9D7C, symBinAddr: 0x10003E92C, symSize: 0x7C }
  - { offset: 0x871A1, size: 0x8, addend: 0x0, symName: '__ZN59_$LT$core..fmt..Arguments$u20$as$u20$core..fmt..Display$GT$3fmt17hd8696728533e2ff8E', symObjAddr: 0x194B8, symBinAddr: 0x100041544, symSize: 0xC }
  - { offset: 0x872C4, size: 0x8, addend: 0x0, symName: __ZN4core6result13unwrap_failed17h6d77827dc3df0d45E, symObjAddr: 0x16778, symBinAddr: 0x100045BD8, symSize: 0x5C }
  - { offset: 0x874EC, size: 0x8, addend: 0x0, symName: __ZN4core3str5count14do_count_chars17h843327bbee0854c3E, symObjAddr: 0x14570, symBinAddr: 0x10003F7E8, symSize: 0x718 }
  - { offset: 0x878E8, size: 0x8, addend: 0x0, symName: __ZN4core3str5count23char_count_general_case17habd9bffbcb484ba4E, symObjAddr: 0x14C88, symBinAddr: 0x10003FF00, symSize: 0x2A8 }
  - { offset: 0x87990, size: 0x8, addend: 0x0, symName: __ZN4core3str16slice_error_fail17h525eecae2eaa107fE, symObjAddr: 0x14198, symBinAddr: 0x100045940, symSize: 0xC }
  - { offset: 0x879AA, size: 0x8, addend: 0x0, symName: __ZN4core3str19slice_error_fail_rt17hb42e3abad203a6cdE, symObjAddr: 0x141D8, symBinAddr: 0x10003F57C, symSize: 0x26C }
  - { offset: 0x87B2D, size: 0x8, addend: 0x0, symName: __ZN4core3str7pattern11StrSearcher3new17h08afc4e4b23bec43E, symObjAddr: 0x14F64, symBinAddr: 0x1000401A8, symSize: 0x8B0 }
  - { offset: 0x87DC4, size: 0x8, addend: 0x0, symName: __ZN4core3str8converts9from_utf817h919d4dab8ff84af4E, symObjAddr: 0x15A88, symBinAddr: 0x100040A58, symSize: 0x274 }
  - { offset: 0x87DE1, size: 0x8, addend: 0x0, symName: __ZN4core3str8converts9from_utf817h919d4dab8ff84af4E, symObjAddr: 0x15A88, symBinAddr: 0x100040A58, symSize: 0x274 }
  - { offset: 0x87E62, size: 0x8, addend: 0x0, symName: '__ZN87_$LT$core..str..lossy..Utf8Chunks$u20$as$u20$core..iter..traits..iterator..Iterator$GT$4next17h95aaa406218940b3E', symObjAddr: 0x1F918, symBinAddr: 0x100041884, symSize: 0x1C0 }
  - { offset: 0x88076, size: 0x8, addend: 0x0, symName: __ZN4core3ffi5c_str4CStr19from_bytes_with_nul17h949d50f69b18d62aE, symObjAddr: 0xF20, symBinAddr: 0x10003D3D4, symSize: 0xF0 }
  - { offset: 0x88094, size: 0x8, addend: 0x0, symName: __ZN4core3ffi5c_str4CStr19from_bytes_with_nul17h949d50f69b18d62aE, symObjAddr: 0xF20, symBinAddr: 0x10003D3D4, symSize: 0xF0 }
  - { offset: 0x881B4, size: 0x8, addend: 0x0, symName: __ZN4core4cell22panic_already_borrowed8do_panic7runtime17hb049e5e6e3009115E, symObjAddr: 0x15D08, symBinAddr: 0x100045958, symSize: 0x44 }
  - { offset: 0x881E7, size: 0x8, addend: 0x0, symName: __ZN4core4cell22panic_already_borrowed17h2b3e251322659aa8E, symObjAddr: 0x15CFC, symBinAddr: 0x10004594C, symSize: 0xC }
  - { offset: 0x8821C, size: 0x8, addend: 0x0, symName: '__ZN65_$LT$core..cell..BorrowMutError$u20$as$u20$core..fmt..Display$GT$3fmt17h88d30539f104455aE', symObjAddr: 0x1A498, symBinAddr: 0x100041550, symSize: 0x14 }
  - { offset: 0x8826C, size: 0x8, addend: 0x0, symName: __ZN4core7unicode12unicode_data15grapheme_extend11lookup_slow17h7cfd3b15da7724b7E, symObjAddr: 0x16D14, symBinAddr: 0x100041188, symSize: 0x108 }
  - { offset: 0x8843F, size: 0x8, addend: 0x0, symName: __ZN4core7unicode9printable12is_printable17h2705576d9a4eb781E, symObjAddr: 0x17234, symBinAddr: 0x100041290, symSize: 0x2A4 }
  - { offset: 0x88730, size: 0x8, addend: 0x0, symName: __ZN4core5alloc6layout6Layout19is_size_align_valid17he773f7fedf08cc11E, symObjAddr: 0x161BC, symBinAddr: 0x100040F50, symSize: 0x20 }
  - { offset: 0x8874D, size: 0x8, addend: 0x0, symName: __ZN4core5alloc6layout6Layout19is_size_align_valid17he773f7fedf08cc11E, symObjAddr: 0x161BC, symBinAddr: 0x100040F50, symSize: 0x20 }
  - { offset: 0x8877A, size: 0x8, addend: 0x0, symName: __ZN4core9panicking11panic_const23panic_const_div_by_zero17h4bab502c4a7f6f5bE, symObjAddr: 0x174D8, symBinAddr: 0x100045C34, symSize: 0x34 }
  - { offset: 0x887A9, size: 0x8, addend: 0x0, symName: __ZN4core9panicking11panic_const23panic_const_rem_by_zero17h6c478c7599da4a96E, symObjAddr: 0x17540, symBinAddr: 0x100045C68, symSize: 0x34 }
  - { offset: 0x887D9, size: 0x8, addend: 0x0, symName: __ZN4core9panicking13assert_failed17h420d4be177614dd0E, symObjAddr: 0x17950, symBinAddr: 0x100045C9C, symSize: 0x24 }
  - { offset: 0x887F4, size: 0x8, addend: 0x0, symName: __ZN4core9panicking13assert_failed17hcd10705fda4a35e5E, symObjAddr: 0x17998, symBinAddr: 0x100045CC0, symSize: 0x24 }
  - { offset: 0x8880F, size: 0x8, addend: 0x0, symName: __ZN4core9panicking14panic_nounwind17h50f882120c826ceeE, symObjAddr: 0x179BC, symBinAddr: 0x100045CE4, symSize: 0x3C }
  - { offset: 0x8883E, size: 0x8, addend: 0x0, symName: __ZN4core9panicking16panic_in_cleanup17h8699c7095cf5e6c5E, symObjAddr: 0x17A5C, symBinAddr: 0x100045D20, symSize: 0x18 }
  - { offset: 0x88859, size: 0x8, addend: 0x0, symName: __ZN4core9panicking18panic_bounds_check17h8935b4e0a545757eE, symObjAddr: 0x17A74, symBinAddr: 0x100045D38, symSize: 0x50 }
  - { offset: 0x8889F, size: 0x8, addend: 0x0, symName: __ZN4core9panicking18panic_nounwind_fmt17h3db3f511675e5bd7E, symObjAddr: 0x17AC4, symBinAddr: 0x100045D88, symSize: 0x3C }
  - { offset: 0x888E4, size: 0x8, addend: 0x0, symName: __ZN4core9panicking19assert_failed_inner17h13db5798706a154aE, symObjAddr: 0x17B00, symBinAddr: 0x100045DC4, symSize: 0xE4 }
  - { offset: 0x8892C, size: 0x8, addend: 0x0, symName: __ZN4core9panicking19panic_cannot_unwind17h396781a6699a759fE, symObjAddr: 0x17BE4, symBinAddr: 0x100045EA8, symSize: 0x18 }
  - { offset: 0x88947, size: 0x8, addend: 0x0, symName: __ZN4core9panicking26panic_nounwind_nobacktrace17h779196fb6afb7816E, symObjAddr: 0x17BFC, symBinAddr: 0x100045EC0, symSize: 0x3C }
  - { offset: 0x88976, size: 0x8, addend: 0x0, symName: __ZN4core9panicking5panic17hb13a99a9a5205e75E, symObjAddr: 0x17D00, symBinAddr: 0x100045EFC, symSize: 0x34 }
  - { offset: 0x889A5, size: 0x8, addend: 0x0, symName: __ZN4core9panicking9panic_fmt17h96de7a67cc512650E, symObjAddr: 0x17D34, symBinAddr: 0x100045F30, symSize: 0x20 }
  - { offset: 0x88A16, size: 0x8, addend: 0x0, symName: _OUTLINED_FUNCTION_0, symObjAddr: 0x1FB3C, symBinAddr: 0x100041A44, symSize: 0x10 }
...
