---
triple:          'arm64-apple-darwin'
binary-path:     '/Users/johnhjediny/Documents/GitHub/json-schema-x-graphql/converters/rust/target/debug/build/zerocopy-7d3ac3a9e22c4182/build_script_build-7d3ac3a9e22c4182'
relocations:
  - { offset: 0x1E, size: 0x8, addend: 0x0, symName: __RINvMs3_NtCsdFlNUEO95cG_5alloc3stre7replacecECsk7Xz0eKShPU_18build_script_build, symObjAddr: 0x0, symBinAddr: 0x100000BF0, symSize: 0x6E4 }
  - { offset: 0xC87, size: 0x8, addend: 0x0, symName: __RINvNtCs85QQFkKrybG_4core9panicking13assert_failedINtNtB4_6option6OptionReEBM_ECsk7Xz0eKShPU_18build_script_build, symObjAddr: 0xCEC, symBinAddr: 0x10004B4C8, symSize: 0x3C }
  - { offset: 0xCF0, size: 0x8, addend: 0x0, symName: __RINvNtCs85QQFkKrybG_4core9panicking13assert_failedReBM_ECsk7Xz0eKShPU_18build_script_build, symObjAddr: 0xD28, symBinAddr: 0x10004B504, symSize: 0x3C }
  - { offset: 0xD59, size: 0x8, addend: 0x0, symName: __RINvNtCs85QQFkKrybG_4core9panicking13panic_displayNtNtCsdFlNUEO95cG_5alloc6string6StringECsk7Xz0eKShPU_18build_script_build, symObjAddr: 0xD64, symBinAddr: 0x1000018DC, symSize: 0x88 }
  - { offset: 0x1626, size: 0x8, addend: 0x0, symName: __RNvYNtCsk7Xz0eKShPU_18build_script_build7VersionNtNtCs85QQFkKrybG_4core3cmp10PartialOrd2geB4_, symObjAddr: 0x3A6C, symBinAddr: 0x1000045E4, symSize: 0x70 }
  - { offset: 0x1753, size: 0x8, addend: 0x0, symName: __RNvMNtNtCs85QQFkKrybG_4core4char7methodsc13is_whitespaceCsk7Xz0eKShPU_18build_script_build, symObjAddr: 0x2388, symBinAddr: 0x100002F00, symSize: 0x90 }
  - { offset: 0x1797, size: 0x8, addend: 0x0, symName: __RNvMNtNtCs85QQFkKrybG_4core4char7methodsc14is_ascii_digitCsk7Xz0eKShPU_18build_script_build, symObjAddr: 0x2418, symBinAddr: 0x100002F90, symSize: 0x64 }
  - { offset: 0x17C5, size: 0x8, addend: 0x0, symName: __RNvMNtNtCs85QQFkKrybG_4core4char7methodsc8to_digitCsk7Xz0eKShPU_18build_script_build, symObjAddr: 0x247C, symBinAddr: 0x100002FF4, symSize: 0x14C }
  - { offset: 0x18E3, size: 0x8, addend: 0x0, symName: __RNvNtNtCs85QQFkKrybG_4core4char7methods15encode_utf8_rawCsk7Xz0eKShPU_18build_script_build, symObjAddr: 0x2908, symBinAddr: 0x100003480, symSize: 0x110 }
  - { offset: 0x19E3, size: 0x8, addend: 0x0, symName: __RNvNtNtCs85QQFkKrybG_4core4char7methods25encode_utf8_raw_uncheckedCsk7Xz0eKShPU_18build_script_build, symObjAddr: 0x2A18, symBinAddr: 0x100003590, symSize: 0x188 }
  - { offset: 0x1F23, size: 0x8, addend: 0x0, symName: __RNvXs3_NtNtCs85QQFkKrybG_4core3str7patternNCNvCsk7Xz0eKShPU_18build_script_build13rustc_version0NtB5_11MultiCharEq7matchesBI_, symObjAddr: 0x332C, symBinAddr: 0x100003EA4, symSize: 0x28 }
  - { offset: 0x1F69, size: 0x8, addend: 0x0, symName: __RNvXs3_NtNtCs85QQFkKrybG_4core3str7patternNvMNtNtB9_4char7methodsc13is_whitespaceNtB5_11MultiCharEq7matchesCsk7Xz0eKShPU_18build_script_build, symObjAddr: 0x3354, symBinAddr: 0x100003ECC, symSize: 0x28 }
  - { offset: 0x1FB5, size: 0x8, addend: 0x0, symName: __RNvXsr_NtNtCs85QQFkKrybG_4core3str7patternNCNvCsk7Xz0eKShPU_18build_script_build13rustc_version0NtB5_7Pattern13into_searcherBI_, symObjAddr: 0x37B0, symBinAddr: 0x100004328, symSize: 0x48 }
  - { offset: 0x1FFB, size: 0x8, addend: 0x0, symName: __RNvXsr_NtNtCs85QQFkKrybG_4core3str7patternNvMNtNtB9_4char7methodsc13is_whitespaceNtB5_7Pattern13into_searcherCsk7Xz0eKShPU_18build_script_build, symObjAddr: 0x37F8, symBinAddr: 0x100004370, symSize: 0x48 }
  - { offset: 0x297C, size: 0x8, addend: 0x0, symName: __RNvXs1_NtNtNtCs85QQFkKrybG_4core3ops8function5implsQNCNvCsk7Xz0eKShPU_18build_script_build34parse_version_cfgs_from_cargo_toml0INtB7_5FnMutTReEE8call_mutBS_, symObjAddr: 0x31CC, symBinAddr: 0x100003D44, symSize: 0x38 }
  - { offset: 0x2C59, size: 0x8, addend: 0x0, symName: __RNvXs19_NtCs85QQFkKrybG_4core3fmtRReNtB6_5Debug3fmtCsk7Xz0eKShPU_18build_script_build, symObjAddr: 0x30F4, symBinAddr: 0x100003C6C, symSize: 0x30 }
  - { offset: 0x31A0, size: 0x8, addend: 0x0, symName: __RNvNvNtCs85QQFkKrybG_4core4hint16assert_unchecked18precondition_checkCsk7Xz0eKShPU_18build_script_build, symObjAddr: 0x2C4C, symBinAddr: 0x1000037C4, symSize: 0xA4 }
  - { offset: 0x3200, size: 0x8, addend: 0x0, symName: __RNvNvNtCs85QQFkKrybG_4core4hint21unreachable_unchecked18precondition_checkCsk7Xz0eKShPU_18build_script_build, symObjAddr: 0x2CF0, symBinAddr: 0x100003868, symSize: 0x84 }
  - { offset: 0x332F, size: 0x8, addend: 0x0, symName: __RNCINvNtCswz7ZwgBZOU_3std2rt10lang_startuE0Csk7Xz0eKShPU_18build_script_build, symObjAddr: 0xFC4, symBinAddr: 0x100001B3C, symSize: 0x34 }
  - { offset: 0x3399, size: 0x8, addend: 0x0, symName: __RINvNtCswz7ZwgBZOU_3std2rt10lang_startuECsk7Xz0eKShPU_18build_script_build, symObjAddr: 0xE54, symBinAddr: 0x1000019CC, symSize: 0x60 }
  - { offset: 0x39BC, size: 0x8, addend: 0x0, symName: __RNvXsZ_NtCswz7ZwgBZOU_3std7processuNtB5_11Termination6reportCsk7Xz0eKShPU_18build_script_build, symObjAddr: 0x337C, symBinAddr: 0x100003EF4, symSize: 0x10 }
  - { offset: 0x3A98, size: 0x8, addend: 0x0, symName: __RINvNtCswz7ZwgBZOU_3std2fs14read_to_stringReECsk7Xz0eKShPU_18build_script_build, symObjAddr: 0xDEC, symBinAddr: 0x100001964, symSize: 0x68 }
  - { offset: 0x3AD5, size: 0x8, addend: 0x0, symName: __RINvNtCswz7ZwgBZOU_3std3env6var_osReECsk7Xz0eKShPU_18build_script_build, symObjAddr: 0xEB4, symBinAddr: 0x100001A2C, symSize: 0x68 }
  - { offset: 0x3B17, size: 0x8, addend: 0x0, symName: __RNvXs1p_NtCswz7ZwgBZOU_3std4patheINtNtCs85QQFkKrybG_4core7convert5AsRefNtB6_4PathE6as_refCsk7Xz0eKShPU_18build_script_build, symObjAddr: 0x3204, symBinAddr: 0x100003D7C, symSize: 0x18 }
  - { offset: 0x3BA9, size: 0x8, addend: 0x0, symName: __RINvMs3_NtCsdFlNUEO95cG_5alloc3stre7replacecECsk7Xz0eKShPU_18build_script_build, symObjAddr: 0x0, symBinAddr: 0x100000BF0, symSize: 0x6E4 }
  - { offset: 0x46D7, size: 0x8, addend: 0x0, symName: __RNCNvNtCsdFlNUEO95cG_5alloc3str13replace_ascii0Csk7Xz0eKShPU_18build_script_build, symObjAddr: 0x167C, symBinAddr: 0x1000021F4, symSize: 0x60 }
  - { offset: 0x4731, size: 0x8, addend: 0x0, symName: __RNvXs2_NtCsdFlNUEO95cG_5alloc3streNtNtB7_6borrow7ToOwned8to_ownedCsk7Xz0eKShPU_18build_script_build, symObjAddr: 0x32DC, symBinAddr: 0x100003E54, symSize: 0x50 }
  - { offset: 0x4CE3, size: 0x8, addend: 0x0, symName: __RINvXsd_NtCsdFlNUEO95cG_5alloc3vecINtB6_3VecNtCsk7Xz0eKShPU_18build_script_build10VersionCfgEINtNtNtNtCs85QQFkKrybG_4core4iter6traits7collect12FromIteratorBG_E9from_iterINtNtNtB1A_8adapters10filter_map9FilterMapNtNtNtB1C_3str4iter5LinesNCNvBI_34parse_version_cfgs_from_cargo_toml0EEBI_, symObjAddr: 0xF1C, symBinAddr: 0x100001A94, symSize: 0x3C }
  - { offset: 0x4D24, size: 0x8, addend: 0x0, symName: __RINvXsd_NtCsdFlNUEO95cG_5alloc3vecINtB6_3VechEINtNtNtNtCs85QQFkKrybG_4core4iter6traits7collect12FromIteratorhE9from_iterINtNtNtBP_8adapters3map3MapINtNtNtBR_5slice4iter4IterhENCNvNtB8_3str13replace_ascii0EECsk7Xz0eKShPU_18build_script_build, symObjAddr: 0xF58, symBinAddr: 0x100001AD0, symSize: 0x3C }
  - { offset: 0x4D70, size: 0x8, addend: 0x0, symName: __RNCINvMsi_NtCsdFlNUEO95cG_5alloc3vecINtB8_3VechE14extend_trustedINtNtNtNtCs85QQFkKrybG_4core4iter8adapters3map3MapINtNtNtB19_5slice4iter4IterhENCNvNtBa_3str13replace_ascii0EE0Csk7Xz0eKShPU_18build_script_build, symObjAddr: 0xF94, symBinAddr: 0x100001B0C, symSize: 0x30 }
  - { offset: 0x4E24, size: 0x8, addend: 0x0, symName: __RNvNvMs_NtCsdFlNUEO95cG_5alloc3vecINtB6_3VecppE7set_len18precondition_checkCsk7Xz0eKShPU_18build_script_build, symObjAddr: 0x2BA0, symBinAddr: 0x100003718, symSize: 0xAC }
  - { offset: 0x4E98, size: 0x8, addend: 0x0, symName: __RNvXNtNtCsdFlNUEO95cG_5alloc3vec11spec_extendINtB4_3VecNtCsk7Xz0eKShPU_18build_script_build10VersionCfgEINtB2_10SpecExtendBR_INtNtNtNtCs85QQFkKrybG_4core4iter8adapters10filter_map9FilterMapNtNtNtB28_3str4iter5LinesNCNvBT_34parse_version_cfgs_from_cargo_toml0EE11spec_extendBT_, symObjAddr: 0x2D74, symBinAddr: 0x1000038EC, symSize: 0x24 }
  - { offset: 0x4EF0, size: 0x8, addend: 0x0, symName: __RNvXs_NtNtCsdFlNUEO95cG_5alloc3vec11spec_extendINtB6_3VechEINtB4_10SpecExtendhINtNtNtNtCs85QQFkKrybG_4core4iter8adapters3map3MapINtNtNtB1n_5slice4iter4IterhENCNvNtB8_3str13replace_ascii0EE11spec_extendCsk7Xz0eKShPU_18build_script_build, symObjAddr: 0x340C, symBinAddr: 0x100003F84, symSize: 0x24 }
  - { offset: 0x4F4E, size: 0x8, addend: 0x0, symName: __RNvXNtNtCsdFlNUEO95cG_5alloc3vec14spec_from_iterINtB4_3VecNtCsk7Xz0eKShPU_18build_script_build10VersionCfgEINtB2_12SpecFromIterBU_INtNtNtNtCs85QQFkKrybG_4core4iter8adapters10filter_map9FilterMapNtNtNtB2d_3str4iter5LinesNCNvBW_34parse_version_cfgs_from_cargo_toml0EE9from_iterBW_, symObjAddr: 0x2D98, symBinAddr: 0x100003910, symSize: 0x14 }
  - { offset: 0x4F8D, size: 0x8, addend: 0x0, symName: __RNvXNtNtCsdFlNUEO95cG_5alloc3vec14spec_from_iterINtB4_3VechEINtB2_12SpecFromIterhINtNtNtNtCs85QQFkKrybG_4core4iter8adapters3map3MapINtNtNtB1q_5slice4iter4IterhENCNvNtB6_3str13replace_ascii0EE9from_iterCsk7Xz0eKShPU_18build_script_build, symObjAddr: 0x2DAC, symBinAddr: 0x100003924, symSize: 0x14 }
  - { offset: 0x4FD8, size: 0x8, addend: 0x0, symName: __RNvXNtNtCsdFlNUEO95cG_5alloc3vec21spec_from_iter_nestedINtB4_3VecNtCsk7Xz0eKShPU_18build_script_build10VersionCfgEINtB2_18SpecFromIterNestedB11_INtNtNtNtCs85QQFkKrybG_4core4iter8adapters10filter_map9FilterMapNtNtNtB2r_3str4iter5LinesNCNvB13_34parse_version_cfgs_from_cargo_toml0EE9from_iterB13_, symObjAddr: 0x2DC0, symBinAddr: 0x100003938, symSize: 0x284 }
  - { offset: 0x5298, size: 0x8, addend: 0x0, symName: __RNvXs_NtNtCsdFlNUEO95cG_5alloc3vec21spec_from_iter_nestedINtB6_3VechEINtB4_18SpecFromIterNestedhINtNtNtNtCs85QQFkKrybG_4core4iter8adapters3map3MapINtNtNtB1F_5slice4iter4IterhENCNvNtB8_3str13replace_ascii0EE9from_iterCsk7Xz0eKShPU_18build_script_build, symObjAddr: 0x3430, symBinAddr: 0x100003FA8, symSize: 0x164 }
  - { offset: 0x5376, size: 0x8, addend: 0x0, symName: __RNvXse_NtCsdFlNUEO95cG_5alloc3vecINtB5_3VecNtCsk7Xz0eKShPU_18build_script_build10VersionCfgENtNtNtNtCs85QQFkKrybG_4core4iter6traits7collect12IntoIterator9into_iterBH_, symObjAddr: 0x3594, symBinAddr: 0x10000410C, symSize: 0xE4 }
  - { offset: 0x5644, size: 0x8, addend: 0x0, symName: __RNvXsf_NtCsdFlNUEO95cG_5alloc3vecRINtB5_3VecNtCsk7Xz0eKShPU_18build_script_build10VersionCfgENtNtNtNtCs85QQFkKrybG_4core4iter6traits7collect12IntoIterator9into_iterBI_, symObjAddr: 0x3678, symBinAddr: 0x1000041F0, symSize: 0xA4 }
  - { offset: 0x5877, size: 0x8, addend: 0x0, symName: __RNvXsn_NtCsdFlNUEO95cG_5alloc3vecINtB5_3VecINtNtB7_5boxed3BoxDINtNtNtCs85QQFkKrybG_4core3ops8function5FnMutuEp6OutputINtNtB15_6result6ResultuNtNtNtCswz7ZwgBZOU_3std2io5error5ErrorENtNtB15_6marker4SyncNtB2U_4SendEL_EENtNtB13_4drop4Drop4dropCsk7Xz0eKShPU_18build_script_build, symObjAddr: 0x371C, symBinAddr: 0x100004294, symSize: 0x38 }
  - { offset: 0x5927, size: 0x8, addend: 0x0, symName: __RNvXsn_NtCsdFlNUEO95cG_5alloc3vecINtB5_3VecNtCsk7Xz0eKShPU_18build_script_build10VersionCfgENtNtNtCs85QQFkKrybG_4core3ops4drop4Drop4dropBH_, symObjAddr: 0x3754, symBinAddr: 0x1000042CC, symSize: 0x38 }
  - { offset: 0x59D7, size: 0x8, addend: 0x0, symName: __RNvXsn_NtCsdFlNUEO95cG_5alloc3vecINtB5_3VecPaENtNtNtCs85QQFkKrybG_4core3ops4drop4Drop4dropCsk7Xz0eKShPU_18build_script_build, symObjAddr: 0x378C, symBinAddr: 0x100004304, symSize: 0x24 }
  - { offset: 0x5B04, size: 0x8, addend: 0x0, symName: __RNvXs1_NtCsdFlNUEO95cG_5alloc5allocNtB5_6GlobalNtNtCs85QQFkKrybG_4core5clone5Clone5cloneCsk7Xz0eKShPU_18build_script_build, symObjAddr: 0x3124, symBinAddr: 0x100003C9C, symSize: 0x10 }
  - { offset: 0x5B55, size: 0x8, addend: 0x0, symName: __RNvXs_NtCsdFlNUEO95cG_5alloc5allocNtB4_6GlobalNtNtCs85QQFkKrybG_4core5alloc9Allocator10deallocateCsk7Xz0eKShPU_18build_script_build, symObjAddr: 0x338C, symBinAddr: 0x100003F04, symSize: 0x80 }
  - { offset: 0x609E, size: 0x8, addend: 0x0, symName: __RNvXs1_NtCsdFlNUEO95cG_5alloc7raw_vecINtB5_6RawVecINtNtB7_5boxed3BoxDINtNtNtCs85QQFkKrybG_4core3ops8function5FnMutuEp6OutputINtNtB1c_6result6ResultuNtNtNtCswz7ZwgBZOU_3std2io5error5ErrorENtNtB1c_6marker4SyncNtB31_4SendEL_EENtNtB1a_4drop4Drop4dropCsk7Xz0eKShPU_18build_script_build, symObjAddr: 0x3134, symBinAddr: 0x100003CAC, symSize: 0x34 }
  - { offset: 0x60DA, size: 0x8, addend: 0x0, symName: __RNvXs1_NtCsdFlNUEO95cG_5alloc7raw_vecINtB5_6RawVecNtCsk7Xz0eKShPU_18build_script_build10VersionCfgENtNtNtCs85QQFkKrybG_4core3ops4drop4Drop4dropBO_, symObjAddr: 0x3168, symBinAddr: 0x100003CE0, symSize: 0x34 }
  - { offset: 0x6116, size: 0x8, addend: 0x0, symName: __RNvXs1_NtCsdFlNUEO95cG_5alloc7raw_vecINtB5_6RawVecPaENtNtNtCs85QQFkKrybG_4core3ops4drop4Drop4dropCsk7Xz0eKShPU_18build_script_build, symObjAddr: 0x319C, symBinAddr: 0x100003D14, symSize: 0x30 }
  - { offset: 0x6256, size: 0x8, addend: 0x0, symName: __RNvXNtNtNtCsdFlNUEO95cG_5alloc11collections5btree3mapINtB2_8BTreeMapNtNtNtCswz7ZwgBZOU_3std3ffi6os_str8OsStringINtNtCs85QQFkKrybG_4core6option6OptionB14_EENtNtNtB1Q_3ops4drop4Drop4dropCsk7Xz0eKShPU_18build_script_build, symObjAddr: 0x3044, symBinAddr: 0x100003BBC, symSize: 0x4C }
  - { offset: 0x62E3, size: 0x8, addend: 0x0, symName: __RNvXNvXsw_NtNtNtCsdFlNUEO95cG_5alloc11collections5btree3mapINtB8_8IntoIterpppENtNtNtCs85QQFkKrybG_4core3ops4drop4Drop4dropINtB2_9DropGuardNtNtNtCswz7ZwgBZOU_3std3ffi6os_str8OsStringINtNtB1k_6option6OptionB2c_ENtNtBe_5alloc6GlobalEB1e_4dropCsk7Xz0eKShPU_18build_script_build, symObjAddr: 0x3090, symBinAddr: 0x100003C08, symSize: 0x64 }
  - { offset: 0x6378, size: 0x8, addend: 0x0, symName: __RNvXsw_NtNtNtCsdFlNUEO95cG_5alloc11collections5btree3mapINtB5_8IntoIterNtNtNtCswz7ZwgBZOU_3std3ffi6os_str8OsStringINtNtCs85QQFkKrybG_4core6option6OptionB17_EENtNtNtB1T_3ops4drop4Drop4dropCsk7Xz0eKShPU_18build_script_build, symObjAddr: 0x39D0, symBinAddr: 0x100004548, symSize: 0x9C }
  - { offset: 0x63EF, size: 0x8, addend: 0x0, symName: __RNvXsv_NtNtNtCsdFlNUEO95cG_5alloc11collections5btree3mapINtB5_8BTreeMapNtNtNtCswz7ZwgBZOU_3std3ffi6os_str8OsStringINtNtCs85QQFkKrybG_4core6option6OptionB17_EENtNtNtNtB1T_4iter6traits7collect12IntoIterator9into_iterCsk7Xz0eKShPU_18build_script_build, symObjAddr: 0x3840, symBinAddr: 0x1000043B8, symSize: 0x190 }
  - { offset: 0x6FD5, size: 0x8, addend: 0x0, symName: __RINvMs_NtNtCs85QQFkKrybG_4core3fmt2rtNtB7_9Arguments6new_v1Kj1_KBW_ECsk7Xz0eKShPU_18build_script_build, symObjAddr: 0x6E4, symBinAddr: 0x1000012D4, symSize: 0x50 }
  - { offset: 0x7039, size: 0x8, addend: 0x0, symName: __RINvMs_NtNtCs85QQFkKrybG_4core3fmt2rtNtB7_9Arguments6new_v1Kj2_KBW_ECsk7Xz0eKShPU_18build_script_build, symObjAddr: 0x734, symBinAddr: 0x100001324, symSize: 0x50 }
  - { offset: 0x7069, size: 0x8, addend: 0x0, symName: __RINvMs_NtNtCs85QQFkKrybG_4core3fmt2rtNtB7_9Arguments6new_v1Kj2_Kj1_ECsk7Xz0eKShPU_18build_script_build, symObjAddr: 0x784, symBinAddr: 0x100001374, symSize: 0x54 }
  - { offset: 0x70CD, size: 0x8, addend: 0x0, symName: __RINvMs_NtNtCs85QQFkKrybG_4core3fmt2rtNtB7_9Arguments6new_v1Kj4_Kj3_ECsk7Xz0eKShPU_18build_script_build, symObjAddr: 0x7D8, symBinAddr: 0x1000013C8, symSize: 0x54 }
  - { offset: 0x70FD, size: 0x8, addend: 0x0, symName: __RINvMs_NtNtCs85QQFkKrybG_4core3fmt2rtNtB7_9Arguments9new_constKj1_ECsk7Xz0eKShPU_18build_script_build, symObjAddr: 0x82C, symBinAddr: 0x10000141C, symSize: 0x48 }
  - { offset: 0x717E, size: 0x8, addend: 0x0, symName: __RNCNvCsk7Xz0eKShPU_18build_script_build34parse_version_cfgs_from_cargo_toml0B3_, symObjAddr: 0x1078, symBinAddr: 0x100001BF0, symSize: 0x604 }
  - { offset: 0x73FC, size: 0x8, addend: 0x0, symName: __RNCNvCsk7Xz0eKShPU_18build_script_build13rustc_version0B3_, symObjAddr: 0xFF8, symBinAddr: 0x100001B70, symSize: 0x80 }
  - { offset: 0x743A, size: 0x8, addend: 0x0, symName: __RNvCsk7Xz0eKShPU_18build_script_build13rustc_version, symObjAddr: 0x16DC, symBinAddr: 0x100002254, symSize: 0x52C }
  - { offset: 0x75E0, size: 0x8, addend: 0x0, symName: __RNvCsk7Xz0eKShPU_18build_script_build34parse_version_cfgs_from_cargo_toml, symObjAddr: 0x1C08, symBinAddr: 0x100002780, symSize: 0x310 }
  - { offset: 0x76E3, size: 0x8, addend: 0x0, symName: __RNvCsk7Xz0eKShPU_18build_script_build4main, symObjAddr: 0x1F18, symBinAddr: 0x100002A90, symSize: 0x470 }
  - { offset: 0x783B, size: 0x8, addend: 0x0, symName: __RNvXs2_Csk7Xz0eKShPU_18build_script_buildNtB5_7VersionNtNtCs85QQFkKrybG_4core3cmp10PartialOrd11partial_cmpB5_, symObjAddr: 0x321C, symBinAddr: 0x100003D94, symSize: 0xC0 }
  - { offset: 0x7A59, size: 0x8, addend: 0x0, symName: __RINvMsi_NtCsdFlNUEO95cG_5alloc3vecINtB6_3VecNtCsk7Xz0eKShPU_18build_script_build10VersionCfgE16extend_desugaredINtNtNtNtCs85QQFkKrybG_4core4iter8adapters10filter_map9FilterMapNtNtNtB1U_3str4iter5LinesNCNvBI_34parse_version_cfgs_from_cargo_toml0EEBI_, symObjAddr: 0x874, symBinAddr: 0x100001464, symSize: 0x200 }
  - { offset: 0x7DF2, size: 0x8, addend: 0x0, symName: __RINvMsi_NtCsdFlNUEO95cG_5alloc3vecINtB6_3VechE14extend_trustedINtNtNtNtCs85QQFkKrybG_4core4iter8adapters3map3MapINtNtNtB17_5slice4iter4IterhENCNvNtB8_3str13replace_ascii0EECsk7Xz0eKShPU_18build_script_build, symObjAddr: 0xA74, symBinAddr: 0x100001664, symSize: 0x178 }
  - { offset: 0x812A, size: 0x8, addend: 0x0, symName: __RINvMsk_NtCswz7ZwgBZOU_3std7processNtB6_7Command3argReECsk7Xz0eKShPU_18build_script_build, symObjAddr: 0xBEC, symBinAddr: 0x1000017DC, symSize: 0x70 }
  - { offset: 0x8165, size: 0x8, addend: 0x0, symName: __RINvMsk_NtCswz7ZwgBZOU_3std7processNtB6_7Command3newNtNtNtB8_3ffi6os_str8OsStringECsk7Xz0eKShPU_18build_script_build, symObjAddr: 0xC5C, symBinAddr: 0x10000184C, symSize: 0x90 }
  - { offset: 0x82D1, size: 0x8, addend: 0x0, symName: __RNvMs2_NtCsdFlNUEO95cG_5alloc7raw_vecNtB5_11RawVecInner16with_capacity_inCsk7Xz0eKShPU_18build_script_build, symObjAddr: 0x25C8, symBinAddr: 0x100003140, symSize: 0x110 }
  - { offset: 0x84EE, size: 0x8, addend: 0x0, symName: __RNvMsI_NtCswz7ZwgBZOU_3std7processNtB5_10ExitStatus7successCsk7Xz0eKShPU_18build_script_build, symObjAddr: 0x26D8, symBinAddr: 0x100003250, symSize: 0x70 }
  - { offset: 0x86EC, size: 0x8, addend: 0x0, symName: __RNvMs_NtCsdFlNUEO95cG_5alloc3vecINtB4_3VecNtCsk7Xz0eKShPU_18build_script_build10VersionCfgE7reserveBG_, symObjAddr: 0x2748, symBinAddr: 0x1000032C0, symSize: 0xC8 }
  - { offset: 0x88D0, size: 0x8, addend: 0x0, symName: __RNvMs_NtCsdFlNUEO95cG_5alloc3vecINtB4_3VechE8as_sliceCsk7Xz0eKShPU_18build_script_build, symObjAddr: 0x2810, symBinAddr: 0x100003388, symSize: 0x68 }
  - { offset: 0x89D3, size: 0x8, addend: 0x0, symName: __RNvMsx_NtNtNtCsdFlNUEO95cG_5alloc11collections5btree3mapINtB5_8IntoIterNtNtNtCswz7ZwgBZOU_3std3ffi6os_str8OsStringINtNtCs85QQFkKrybG_4core6option6OptionB17_EE10dying_nextCsk7Xz0eKShPU_18build_script_build, symObjAddr: 0x2878, symBinAddr: 0x1000033F0, symSize: 0x90 }
  - { offset: 0x94C4, size: 0x8, addend: 0x0, symName: __RINvMNtNtCs85QQFkKrybG_4core3fmt2rtNtB3_8Argument11new_displayINtNtCsdFlNUEO95cG_5alloc6borrow3CoweEECsk7Xz0eKShPU_18build_script_build, symObjAddr: 0x0, symBinAddr: 0x100004680, symSize: 0x2C }
  - { offset: 0x952A, size: 0x8, addend: 0x0, symName: __RNvXNvNtCswz7ZwgBZOU_3std2io17default_write_fmtINtB2_7AdapterNtNtNtNtB6_3sys5stdio4unix6StderrENtNtCs85QQFkKrybG_4core3fmt5Write9write_strCsk7Xz0eKShPU_18build_script_build, symObjAddr: 0x2BF8, symBinAddr: 0x1000071E8, symSize: 0xB4 }
  - { offset: 0x9685, size: 0x8, addend: 0x0, symName: __RNCNvXs1_NtNtNtCswz7ZwgBZOU_3std2io5error14repr_bitpackedNtB7_4ReprNtNtNtCs85QQFkKrybG_4core3ops4drop4Drop4drop0Csk7Xz0eKShPU_18build_script_build, symObjAddr: 0x1C20, symBinAddr: 0x100006210, symSize: 0x3C }
  - { offset: 0x973A, size: 0x8, addend: 0x0, symName: __RNvXs1_NtNtNtCswz7ZwgBZOU_3std2io5error14repr_bitpackedNtB5_4ReprNtNtNtCs85QQFkKrybG_4core3ops4drop4Drop4dropCsk7Xz0eKShPU_18build_script_build, symObjAddr: 0x2DDC, symBinAddr: 0x1000073CC, symSize: 0x38 }
  - { offset: 0x9763, size: 0x8, addend: 0x0, symName: __RINvNtNtNtCswz7ZwgBZOU_3std2io5error14repr_bitpacked11decode_reprINtNtCsdFlNUEO95cG_5alloc5boxed3BoxNtB4_6CustomENCNvXs1_B2_NtB2_4ReprNtNtNtCs85QQFkKrybG_4core3ops4drop4Drop4drop0ECsk7Xz0eKShPU_18build_script_build, symObjAddr: 0x126C, symBinAddr: 0x10000585C, symSize: 0x1DC }
  - { offset: 0x99D0, size: 0x8, addend: 0x0, symName: __RNCNvMs0_NtNtNtCswz7ZwgBZOU_3std2io5error14repr_bitpackedNtB7_4Repr4data0Csk7Xz0eKShPU_18build_script_build, symObjAddr: 0x1C0C, symBinAddr: 0x1000061FC, symSize: 0x14 }
  - { offset: 0x9A08, size: 0x8, addend: 0x0, symName: __RINvNtNtNtCswz7ZwgBZOU_3std2io5error14repr_bitpacked11decode_reprRNtB4_6CustomNCNvMs0_B2_NtB2_4Repr4data0ECsk7Xz0eKShPU_18build_script_build, symObjAddr: 0x1448, symBinAddr: 0x100005A38, symSize: 0x1DC }
  - { offset: 0x9C64, size: 0x8, addend: 0x0, symName: __RNvNtNtNtCswz7ZwgBZOU_3std2io5error14repr_bitpacked14kind_from_primCsk7Xz0eKShPU_18build_script_build, symObjAddr: 0x2270, symBinAddr: 0x100006860, symSize: 0x608 }
  - { offset: 0xA71A, size: 0x8, addend: 0x0, symName: __RINvNtCswz7ZwgBZOU_3std2io17default_write_fmtNtNtNtNtB4_3sys5stdio4unix6StderrECsk7Xz0eKShPU_18build_script_build, symObjAddr: 0x1080, symBinAddr: 0x100005670, symSize: 0x120 }
  - { offset: 0xAAB8, size: 0x8, addend: 0x0, symName: __RNvXs5_NtNtNtCswz7ZwgBZOU_3std2os2fd5ownedNtB5_7OwnedFdNtNtNtCs85QQFkKrybG_4core3ops4drop4Drop4dropCsk7Xz0eKShPU_18build_script_build, symObjAddr: 0x3120, symBinAddr: 0x100007710, symSize: 0x40 }
  - { offset: 0xB05C, size: 0x8, addend: 0x0, symName: __RINvNtCs85QQFkKrybG_4core3ptr13drop_in_placeINtNtB4_6option6OptionINtNtCsdFlNUEO95cG_5alloc5boxed3BoxSmEEECsk7Xz0eKShPU_18build_script_build, symObjAddr: 0x2AC, symBinAddr: 0x10000489C, symSize: 0x44 }
  - { offset: 0xB08B, size: 0x8, addend: 0x0, symName: __RINvNtCs85QQFkKrybG_4core3ptr13drop_in_placeINtNtB4_6option6OptionNtNtNtCsdFlNUEO95cG_5alloc3ffi5c_str7CStringEECsk7Xz0eKShPU_18build_script_build, symObjAddr: 0x2F0, symBinAddr: 0x1000048E0, symSize: 0x44 }
  - { offset: 0xB0BA, size: 0x8, addend: 0x0, symName: __RINvNtCs85QQFkKrybG_4core3ptr13drop_in_placeINtNtB4_6option6OptionNtNtNtCswz7ZwgBZOU_3std3ffi6os_str8OsStringEECsk7Xz0eKShPU_18build_script_build, symObjAddr: 0x334, symBinAddr: 0x100004924, symSize: 0x48 }
  - { offset: 0xB0E9, size: 0x8, addend: 0x0, symName: __RINvNtCs85QQFkKrybG_4core3ptr13drop_in_placeINtNtB4_6option6OptionNtNtNtNtNtCswz7ZwgBZOU_3std3sys7process4unix6common5StdioEECsk7Xz0eKShPU_18build_script_build, symObjAddr: 0x37C, symBinAddr: 0x10000496C, symSize: 0x44 }
  - { offset: 0xB118, size: 0x8, addend: 0x0, symName: __RINvNtCs85QQFkKrybG_4core3ptr13drop_in_placeINtNtB4_6result6ResultuNtNtNtCswz7ZwgBZOU_3std2io5error5ErrorEECsk7Xz0eKShPU_18build_script_build, symObjAddr: 0x3C0, symBinAddr: 0x1000049B0, symSize: 0x44 }
  - { offset: 0xB147, size: 0x8, addend: 0x0, symName: __RINvNtCs85QQFkKrybG_4core3ptr13drop_in_placeINtNtCsdFlNUEO95cG_5alloc3vec3VecINtNtBL_5boxed3BoxDINtNtNtB4_3ops8function5FnMutuEp6OutputINtNtB4_6result6ResultuNtNtNtCswz7ZwgBZOU_3std2io5error5ErrorENtNtB4_6marker4SyncNtB3b_4SendEL_EEECsk7Xz0eKShPU_18build_script_build, symObjAddr: 0x404, symBinAddr: 0x1000049F4, symSize: 0x5C }
  - { offset: 0xB176, size: 0x8, addend: 0x0, symName: __RINvNtCs85QQFkKrybG_4core3ptr13drop_in_placeINtNtCsdFlNUEO95cG_5alloc3vec3VecNtCsk7Xz0eKShPU_18build_script_build10VersionCfgEEB1f_, symObjAddr: 0x460, symBinAddr: 0x100004A50, symSize: 0x5C }
  - { offset: 0xB1A5, size: 0x8, addend: 0x0, symName: __RINvNtCs85QQFkKrybG_4core3ptr13drop_in_placeINtNtCsdFlNUEO95cG_5alloc3vec3VecPaEECsk7Xz0eKShPU_18build_script_build, symObjAddr: 0x4BC, symBinAddr: 0x100004AAC, symSize: 0x5C }
  - { offset: 0xB1D4, size: 0x8, addend: 0x0, symName: __RINvNtCs85QQFkKrybG_4core3ptr13drop_in_placeINtNtCsdFlNUEO95cG_5alloc3vec3VechEECsk7Xz0eKShPU_18build_script_build, symObjAddr: 0x518, symBinAddr: 0x100004B08, symSize: 0x5C }
  - { offset: 0xB203, size: 0x8, addend: 0x0, symName: __RINvNtCs85QQFkKrybG_4core3ptr13drop_in_placeINtNtCsdFlNUEO95cG_5alloc5boxed3BoxDINtNtNtB4_3ops8function5FnMutuEp6OutputINtNtB4_6result6ResultuNtNtNtCswz7ZwgBZOU_3std2io5error5ErrorENtNtB4_6marker4SyncNtB2V_4SendEL_EECsk7Xz0eKShPU_18build_script_build, symObjAddr: 0x574, symBinAddr: 0x100004B64, symSize: 0x80 }
  - { offset: 0xB232, size: 0x8, addend: 0x0, symName: __RINvNtCs85QQFkKrybG_4core3ptr13drop_in_placeINtNtCsdFlNUEO95cG_5alloc5boxed3BoxDNtNtB4_5error5ErrorNtNtB4_6marker4SyncNtB1B_4SendEL_EECsk7Xz0eKShPU_18build_script_build, symObjAddr: 0x5F4, symBinAddr: 0x100004BE4, symSize: 0x80 }
  - { offset: 0xB261, size: 0x8, addend: 0x0, symName: __RINvNtCs85QQFkKrybG_4core3ptr13drop_in_placeINtNtCsdFlNUEO95cG_5alloc5boxed3BoxNtNtNtCswz7ZwgBZOU_3std2io5error6CustomEECsk7Xz0eKShPU_18build_script_build, symObjAddr: 0x674, symBinAddr: 0x100004C64, symSize: 0x60 }
  - { offset: 0xB290, size: 0x8, addend: 0x0, symName: __RINvNtCs85QQFkKrybG_4core3ptr13drop_in_placeINtNtCsdFlNUEO95cG_5alloc5boxed3BoxShEECsk7Xz0eKShPU_18build_script_build, symObjAddr: 0x6D4, symBinAddr: 0x100004CC4, symSize: 0x2C }
  - { offset: 0xB2BF, size: 0x8, addend: 0x0, symName: __RINvNtCs85QQFkKrybG_4core3ptr13drop_in_placeINtNtCsdFlNUEO95cG_5alloc5boxed3BoxSmEECsk7Xz0eKShPU_18build_script_build, symObjAddr: 0x700, symBinAddr: 0x100004CF0, symSize: 0x2C }
  - { offset: 0xB2EE, size: 0x8, addend: 0x0, symName: __RINvNtCs85QQFkKrybG_4core3ptr13drop_in_placeINtNtCsdFlNUEO95cG_5alloc6borrow3CoweEECsk7Xz0eKShPU_18build_script_build, symObjAddr: 0x72C, symBinAddr: 0x100004D1C, symSize: 0x48 }
  - { offset: 0xB31D, size: 0x8, addend: 0x0, symName: __RINvNtCs85QQFkKrybG_4core3ptr13drop_in_placeINtNtCsdFlNUEO95cG_5alloc7raw_vec6RawVecINtNtBL_5boxed3BoxDINtNtNtB4_3ops8function5FnMutuEp6OutputINtNtB4_6result6ResultuNtNtNtCswz7ZwgBZOU_3std2io5error5ErrorENtNtB4_6marker4SyncNtB3i_4SendEL_EEECsk7Xz0eKShPU_18build_script_build, symObjAddr: 0x774, symBinAddr: 0x100004D64, symSize: 0x24 }
  - { offset: 0xB34C, size: 0x8, addend: 0x0, symName: __RINvNtCs85QQFkKrybG_4core3ptr13drop_in_placeINtNtCsdFlNUEO95cG_5alloc7raw_vec6RawVecNtCsk7Xz0eKShPU_18build_script_build10VersionCfgEEB1m_, symObjAddr: 0x798, symBinAddr: 0x100004D88, symSize: 0x24 }
  - { offset: 0xB37B, size: 0x8, addend: 0x0, symName: __RINvNtCs85QQFkKrybG_4core3ptr13drop_in_placeINtNtCsdFlNUEO95cG_5alloc7raw_vec6RawVecPaEECsk7Xz0eKShPU_18build_script_build, symObjAddr: 0x7BC, symBinAddr: 0x100004DAC, symSize: 0x24 }
  - { offset: 0xB3AA, size: 0x8, addend: 0x0, symName: __RINvNtCs85QQFkKrybG_4core3ptr13drop_in_placeINtNtCsdFlNUEO95cG_5alloc7raw_vec6RawVechEECsk7Xz0eKShPU_18build_script_build, symObjAddr: 0x7E0, symBinAddr: 0x100004DD0, symSize: 0x24 }
  - { offset: 0xB3D9, size: 0x8, addend: 0x0, symName: __RINvNtCs85QQFkKrybG_4core3ptr13drop_in_placeINtNtNtB4_3ops12control_flow11ControlFlowNtCsk7Xz0eKShPU_18build_script_build10VersionCfgEEB1n_, symObjAddr: 0x804, symBinAddr: 0x100004DF4, symSize: 0x48 }
  - { offset: 0xB408, size: 0x8, addend: 0x0, symName: __RINvNtCs85QQFkKrybG_4core3ptr13drop_in_placeINtNtNtCsdFlNUEO95cG_5alloc3vec9into_iter8IntoIterNtCsk7Xz0eKShPU_18build_script_build10VersionCfgEEB1w_, symObjAddr: 0x84C, symBinAddr: 0x100004E3C, symSize: 0x24 }
  - { offset: 0xB437, size: 0x8, addend: 0x0, symName: __RINvNtCs85QQFkKrybG_4core3ptr13drop_in_placeINtNtNtCswz7ZwgBZOU_3std2io5error9ErrorDataINtNtCsdFlNUEO95cG_5alloc5boxed3BoxNtBJ_6CustomEEECsk7Xz0eKShPU_18build_script_build, symObjAddr: 0x870, symBinAddr: 0x100004E60, symSize: 0x48 }
  - { offset: 0xB466, size: 0x8, addend: 0x0, symName: __RINvNtCs85QQFkKrybG_4core3ptr13drop_in_placeINtNtNtNtCsdFlNUEO95cG_5alloc11collections5btree3map8BTreeMapNtNtNtCswz7ZwgBZOU_3std3ffi6os_str8OsStringINtNtB4_6option6OptionB1F_EEECsk7Xz0eKShPU_18build_script_build, symObjAddr: 0x8B8, symBinAddr: 0x100004EA8, symSize: 0x24 }
  - { offset: 0xB495, size: 0x8, addend: 0x0, symName: __RINvNtCs85QQFkKrybG_4core3ptr13drop_in_placeINtNtNtNtCsdFlNUEO95cG_5alloc11collections5btree3map8IntoIterNtNtNtCswz7ZwgBZOU_3std3ffi6os_str8OsStringINtNtB4_6option6OptionB1F_EEECsk7Xz0eKShPU_18build_script_build, symObjAddr: 0x8DC, symBinAddr: 0x100004ECC, symSize: 0x24 }
  - { offset: 0xB4C4, size: 0x8, addend: 0x0, symName: __RINvNtCs85QQFkKrybG_4core3ptr13drop_in_placeINtNvMsT_NtNtNtCsdFlNUEO95cG_5alloc11collections5btree4nodeINtBP_6HandleINtBP_7NodeRefNtNtBP_6marker5DyingpppENtB26_2KVE12drop_key_val7DropperINtNtB4_6option6OptionNtNtNtCswz7ZwgBZOU_3std3ffi6os_str8OsStringEEECsk7Xz0eKShPU_18build_script_build, symObjAddr: 0x900, symBinAddr: 0x100004EF0, symSize: 0x24 }
  - { offset: 0xB4F3, size: 0x8, addend: 0x0, symName: __RINvNtCs85QQFkKrybG_4core3ptr13drop_in_placeINtNvNtCswz7ZwgBZOU_3std2io17default_write_fmt7AdapterNtNtNtNtBN_3sys5stdio4unix6StderrEECsk7Xz0eKShPU_18build_script_build, symObjAddr: 0x924, symBinAddr: 0x100004F14, symSize: 0x24 }
  - { offset: 0xB522, size: 0x8, addend: 0x0, symName: __RINvNtCs85QQFkKrybG_4core3ptr13drop_in_placeINtNvXsd_NtNtCsdFlNUEO95cG_5alloc3vec9into_iterINtBP_8IntoIterppENtNtNtB4_3ops4drop4Drop4drop9DropGuardNtCsk7Xz0eKShPU_18build_script_build10VersionCfgNtNtBT_5alloc6GlobalEEB2n_, symObjAddr: 0x948, symBinAddr: 0x100004F38, symSize: 0x24 }
  - { offset: 0xB551, size: 0x8, addend: 0x0, symName: __RINvNtCs85QQFkKrybG_4core3ptr13drop_in_placeINtNvXsw_NtNtNtCsdFlNUEO95cG_5alloc11collections5btree3mapINtBP_8IntoIterpppENtNtNtB4_3ops4drop4Drop4drop9DropGuardNtNtNtCswz7ZwgBZOU_3std3ffi6os_str8OsStringINtNtB4_6option6OptionB2x_ENtNtBV_5alloc6GlobalEECsk7Xz0eKShPU_18build_script_build, symObjAddr: 0x96C, symBinAddr: 0x100004F5C, symSize: 0x24 }
  - { offset: 0xB580, size: 0x8, addend: 0x0, symName: __RINvNtCs85QQFkKrybG_4core3ptr13drop_in_placeNCINvMsi_NtCsdFlNUEO95cG_5alloc3vecINtBP_3VechE14extend_trustedINtNtNtNtB4_4iter8adapters3map3MapINtNtNtB4_5slice4iter4IterhENCNvNtBR_3str13replace_ascii0EE0ECsk7Xz0eKShPU_18build_script_build, symObjAddr: 0x990, symBinAddr: 0x100004F80, symSize: 0x24 }
  - { offset: 0xB5AF, size: 0x8, addend: 0x0, symName: __RINvNtCs85QQFkKrybG_4core3ptr13drop_in_placeNCINvNtNtNtB4_4iter8adapters3map8map_foldRhhuNCNvNtCsdFlNUEO95cG_5alloc3str13replace_ascii0NCINvNvNtNtNtBP_6traits8iterator8Iterator8for_each4callhNCINvMsi_NtB1v_3vecINtB3c_3VechE14extend_trustedINtBL_3MapINtNtNtB4_5slice4iter4IterhEB1p_EE0E0E0ECsk7Xz0eKShPU_18build_script_build, symObjAddr: 0x9B4, symBinAddr: 0x100004FA4, symSize: 0x24 }
  - { offset: 0xB5DE, size: 0x8, addend: 0x0, symName: __RINvNtCs85QQFkKrybG_4core3ptr13drop_in_placeNCINvNvNtNtNtNtB4_4iter6traits8iterator8Iterator8for_each4callhNCINvMsi_NtCsdFlNUEO95cG_5alloc3vecINtB1Q_3VechE14extend_trustedINtNtNtBT_8adapters3map3MapINtNtNtB4_5slice4iter4IterhENCNvNtB1S_3str13replace_ascii0EE0E0ECsk7Xz0eKShPU_18build_script_build, symObjAddr: 0x9D8, symBinAddr: 0x100004FC8, symSize: 0x24 }
  - { offset: 0xB60D, size: 0x8, addend: 0x0, symName: __RINvNtCs85QQFkKrybG_4core3ptr13drop_in_placeNtCsk7Xz0eKShPU_18build_script_build10VersionCfgEBI_, symObjAddr: 0x9FC, symBinAddr: 0x100004FEC, symSize: 0x24 }
  - { offset: 0xB63C, size: 0x8, addend: 0x0, symName: __RINvNtCs85QQFkKrybG_4core3ptr13drop_in_placeNtNtCsdFlNUEO95cG_5alloc6string6StringECsk7Xz0eKShPU_18build_script_build, symObjAddr: 0xA20, symBinAddr: 0x100005010, symSize: 0x24 }
  - { offset: 0xB66B, size: 0x8, addend: 0x0, symName: __RINvNtCs85QQFkKrybG_4core3ptr13drop_in_placeNtNtCswz7ZwgBZOU_3std7process6OutputECsk7Xz0eKShPU_18build_script_build, symObjAddr: 0xA44, symBinAddr: 0x100005034, symSize: 0x60 }
  - { offset: 0xB69A, size: 0x8, addend: 0x0, symName: __RINvNtCs85QQFkKrybG_4core3ptr13drop_in_placeNtNtCswz7ZwgBZOU_3std7process7CommandECsk7Xz0eKShPU_18build_script_build, symObjAddr: 0xAA4, symBinAddr: 0x100005094, symSize: 0x24 }
  - { offset: 0xB6C9, size: 0x8, addend: 0x0, symName: __RINvNtCs85QQFkKrybG_4core3ptr13drop_in_placeNtNtNtCsdFlNUEO95cG_5alloc3ffi5c_str7CStringECsk7Xz0eKShPU_18build_script_build, symObjAddr: 0xAC8, symBinAddr: 0x1000050B8, symSize: 0x5C }
  - { offset: 0xB6F8, size: 0x8, addend: 0x0, symName: __RINvNtCs85QQFkKrybG_4core3ptr13drop_in_placeNtNtNtCsdFlNUEO95cG_5alloc3vec15set_len_on_drop12SetLenOnDropECsk7Xz0eKShPU_18build_script_build, symObjAddr: 0xB24, symBinAddr: 0x100005114, symSize: 0x24 }
  - { offset: 0xB727, size: 0x8, addend: 0x0, symName: __RINvNtCs85QQFkKrybG_4core3ptr13drop_in_placeNtNtNtCswz7ZwgBZOU_3std2io5error5ErrorECsk7Xz0eKShPU_18build_script_build, symObjAddr: 0xB48, symBinAddr: 0x100005138, symSize: 0x24 }
  - { offset: 0xB756, size: 0x8, addend: 0x0, symName: __RINvNtCs85QQFkKrybG_4core3ptr13drop_in_placeNtNtNtCswz7ZwgBZOU_3std2io5error6CustomECsk7Xz0eKShPU_18build_script_build, symObjAddr: 0xB6C, symBinAddr: 0x10000515C, symSize: 0x24 }
  - { offset: 0xB785, size: 0x8, addend: 0x0, symName: __RINvNtCs85QQFkKrybG_4core3ptr13drop_in_placeNtNtNtCswz7ZwgBZOU_3std3ffi6os_str8OsStringECsk7Xz0eKShPU_18build_script_build, symObjAddr: 0xB90, symBinAddr: 0x100005180, symSize: 0x24 }
  - { offset: 0xB7B4, size: 0x8, addend: 0x0, symName: __RINvNtCs85QQFkKrybG_4core3ptr13drop_in_placeNtNtNtNtCswz7ZwgBZOU_3std2io5error14repr_bitpacked4ReprECsk7Xz0eKShPU_18build_script_build, symObjAddr: 0xBB4, symBinAddr: 0x1000051A4, symSize: 0x24 }
  - { offset: 0xB7E3, size: 0x8, addend: 0x0, symName: __RINvNtCs85QQFkKrybG_4core3ptr13drop_in_placeNtNtNtNtCswz7ZwgBZOU_3std2os2fd5owned7OwnedFdECsk7Xz0eKShPU_18build_script_build, symObjAddr: 0xBD8, symBinAddr: 0x1000051C8, symSize: 0x24 }
  - { offset: 0xB812, size: 0x8, addend: 0x0, symName: __RINvNtCs85QQFkKrybG_4core3ptr13drop_in_placeNtNtNtNtCswz7ZwgBZOU_3std3sys2fd4unix8FileDescECsk7Xz0eKShPU_18build_script_build, symObjAddr: 0xBFC, symBinAddr: 0x1000051EC, symSize: 0x24 }
  - { offset: 0xB841, size: 0x8, addend: 0x0, symName: __RINvNtCs85QQFkKrybG_4core3ptr13drop_in_placeNtNtNtNtCswz7ZwgBZOU_3std3sys6os_str5bytes3BufECsk7Xz0eKShPU_18build_script_build, symObjAddr: 0xC20, symBinAddr: 0x100005210, symSize: 0x24 }
  - { offset: 0xB870, size: 0x8, addend: 0x0, symName: __RINvNtCs85QQFkKrybG_4core3ptr13drop_in_placeNtNtNtNtCswz7ZwgBZOU_3std3sys7process3env10CommandEnvECsk7Xz0eKShPU_18build_script_build, symObjAddr: 0xC44, symBinAddr: 0x100005234, symSize: 0x24 }
  - { offset: 0xB89F, size: 0x8, addend: 0x0, symName: __RINvNtCs85QQFkKrybG_4core3ptr13drop_in_placeNtNtNtNtNtCswz7ZwgBZOU_3std3sys7process4unix6common5StdioECsk7Xz0eKShPU_18build_script_build, symObjAddr: 0xC68, symBinAddr: 0x100005258, symSize: 0x44 }
  - { offset: 0xB8CE, size: 0x8, addend: 0x0, symName: __RINvNtCs85QQFkKrybG_4core3ptr13drop_in_placeNtNtNtNtNtCswz7ZwgBZOU_3std3sys7process4unix6common7CommandECsk7Xz0eKShPU_18build_script_build, symObjAddr: 0xCAC, symBinAddr: 0x10000529C, symSize: 0x1DC }
  - { offset: 0xB8FD, size: 0x8, addend: 0x0, symName: __RINvNtCs85QQFkKrybG_4core3ptr13drop_in_placeNtNtNtNtNtNtCswz7ZwgBZOU_3std3sys7process4unix6common13cstring_array12CStringArrayECsk7Xz0eKShPU_18build_script_build, symObjAddr: 0xE88, symBinAddr: 0x100005478, symSize: 0x5C }
  - { offset: 0xB92C, size: 0x8, addend: 0x0, symName: __RINvNtCs85QQFkKrybG_4core3ptr13drop_in_placeNtNvNtNtNtCsdFlNUEO95cG_5alloc11collections5btree3mem7replace10PanicGuardECsk7Xz0eKShPU_18build_script_build, symObjAddr: 0xEE4, symBinAddr: 0x1000054D4, symSize: 0x24 }
  - { offset: 0xB95B, size: 0x8, addend: 0x0, symName: __RINvNtCs85QQFkKrybG_4core3ptr13drop_in_placeSINtNtCsdFlNUEO95cG_5alloc5boxed3BoxDINtNtNtB4_3ops8function5FnMutuEp6OutputINtNtB4_6result6ResultuNtNtNtCswz7ZwgBZOU_3std2io5error5ErrorENtNtB4_6marker4SyncNtB2W_4SendEL_EECsk7Xz0eKShPU_18build_script_build, symObjAddr: 0xF08, symBinAddr: 0x1000054F8, symSize: 0xB4 }
  - { offset: 0xB98A, size: 0x8, addend: 0x0, symName: __RINvNtCs85QQFkKrybG_4core3ptr13drop_in_placeSNtCsk7Xz0eKShPU_18build_script_build10VersionCfgEBJ_, symObjAddr: 0xFBC, symBinAddr: 0x1000055AC, symSize: 0xC4 }
  - { offset: 0xBE6B, size: 0x8, addend: 0x0, symName: __RNvNvNtCs85QQFkKrybG_4core3ptr19copy_nonoverlapping18precondition_checkCsk7Xz0eKShPU_18build_script_build, symObjAddr: 0x2878, symBinAddr: 0x100006E68, symSize: 0x36C }
  - { offset: 0xCC23, size: 0x8, addend: 0x0, symName: __RNvXs5_NtNtCs85QQFkKrybG_4core3num5errorNtB5_15TryFromIntErrorNtNtB9_3fmt5Debug3fmtCsk7Xz0eKShPU_18build_script_build, symObjAddr: 0x30CC, symBinAddr: 0x1000076BC, symSize: 0x54 }
  - { offset: 0xCC63, size: 0x8, addend: 0x0, symName: __RNvXsb_NtNtCs85QQFkKrybG_4core3num5errorNtB5_13ParseIntErrorNtNtB9_3fmt5Debug3fmtCsk7Xz0eKShPU_18build_script_build, symObjAddr: 0x34E0, symBinAddr: 0x100007AD0, symSize: 0x64 }
  - { offset: 0xCE60, size: 0x8, addend: 0x0, symName: __RNvXs7_NtNtCs85QQFkKrybG_4core3cmp5implsReNtB7_9PartialEq2eqCsk7Xz0eKShPU_18build_script_build, symObjAddr: 0x3160, symBinAddr: 0x100007750, symSize: 0x44 }
  - { offset: 0xCEB5, size: 0x8, addend: 0x0, symName: __RNvXsU_NtNtCs85QQFkKrybG_4core3cmp5implsjNtB7_10PartialOrd11partial_cmpCsk7Xz0eKShPU_18build_script_build, symObjAddr: 0x322C, symBinAddr: 0x10000781C, symSize: 0x38 }
  - { offset: 0xD1DD, size: 0x8, addend: 0x0, symName: __RNvXsZ_NtNtCs85QQFkKrybG_4core3fmt3numjNtB7_5Debug3fmtCsk7Xz0eKShPU_18build_script_build, symObjAddr: 0x3264, symBinAddr: 0x100007854, symSize: 0x90 }
  - { offset: 0xD262, size: 0x8, addend: 0x0, symName: __RNvXs_NvNtNtCs85QQFkKrybG_4core3fmt5Write9write_fmtQINtNvNtCswz7ZwgBZOU_3std2io17default_write_fmt7AdapterNtNtNtNtBV_3sys5stdio4unix6StderrENtB4_12SpecWriteFmt14spec_write_fmtCsk7Xz0eKShPU_18build_script_build, symObjAddr: 0x32F4, symBinAddr: 0x1000078E4, symSize: 0x160 }
  - { offset: 0xD319, size: 0x8, addend: 0x0, symName: __RNvYINtNvNtCswz7ZwgBZOU_3std2io17default_write_fmt7AdapterNtNtNtNtB9_3sys5stdio4unix6StderrENtNtCs85QQFkKrybG_4core3fmt5Write10write_charCsk7Xz0eKShPU_18build_script_build, symObjAddr: 0x3564, symBinAddr: 0x100007B54, symSize: 0x70 }
  - { offset: 0xD381, size: 0x8, addend: 0x0, symName: __RNvYINtNvNtCswz7ZwgBZOU_3std2io17default_write_fmt7AdapterNtNtNtNtB9_3sys5stdio4unix6StderrENtNtCs85QQFkKrybG_4core3fmt5Write9write_fmtCsk7Xz0eKShPU_18build_script_build, symObjAddr: 0x35D4, symBinAddr: 0x100007BC4, symSize: 0x24 }
  - { offset: 0xD67B, size: 0x8, addend: 0x0, symName: __RNCINvNtNtNtCs85QQFkKrybG_4core4iter8adapters3map8map_foldRhhuNCNvNtCsdFlNUEO95cG_5alloc3str13replace_ascii0NCINvNvNtNtNtB8_6traits8iterator8Iterator8for_each4callhNCINvMsi_NtB14_3vecINtB2L_3VechE14extend_trustedINtB4_3MapINtNtNtBa_5slice4iter4IterhEBY_EE0E0E0Csk7Xz0eKShPU_18build_script_build, symObjAddr: 0x1A54, symBinAddr: 0x100006044, symSize: 0x7C }
  - { offset: 0xD706, size: 0x8, addend: 0x0, symName: __RINvXs0_NtNtNtCs85QQFkKrybG_4core4iter8adapters3mapINtB6_3MapINtNtNtBc_5slice4iter4IterhENCNvNtCsdFlNUEO95cG_5alloc3str13replace_ascii0ENtNtNtBa_6traits8iterator8Iterator4folduNCINvNvB2a_8for_each4callhNCINvMsi_NtB1v_3vecINtB3n_3VechE14extend_trustedBN_E0E0ECsk7Xz0eKShPU_18build_script_build, symObjAddr: 0x1624, symBinAddr: 0x100005C14, symSize: 0x58 }
  - { offset: 0xD79F, size: 0x8, addend: 0x0, symName: __RNvXs0_NtNtNtCs85QQFkKrybG_4core4iter8adapters3mapINtB5_3MapINtNtNtBb_3str4iter14SplitInclusivecENtB11_8LinesMapENtNtNtB9_6traits8iterator8Iterator4nextCsk7Xz0eKShPU_18build_script_build, symObjAddr: 0x2D28, symBinAddr: 0x100007318, symSize: 0x90 }
  - { offset: 0xD83B, size: 0x8, addend: 0x0, symName: __RNvXs0_NtNtNtCs85QQFkKrybG_4core4iter8adapters3mapINtB5_3MapINtNtNtBb_5slice4iter4IterhENCNvNtCsdFlNUEO95cG_5alloc3str13replace_ascii0ENtNtNtB9_6traits8iterator8Iterator9size_hintCsk7Xz0eKShPU_18build_script_build, symObjAddr: 0x2DB8, symBinAddr: 0x1000073A8, symSize: 0x24 }
  - { offset: 0xD917, size: 0x8, addend: 0x0, symName: __RNCINvNvNtNtNtNtCs85QQFkKrybG_4core4iter6traits8iterator8Iterator8for_each4callhNCINvMsi_NtCsdFlNUEO95cG_5alloc3vecINtB1p_3VechE14extend_trustedINtNtNtBc_8adapters3map3MapINtNtNtBe_5slice4iter4IterhENCNvNtB1r_3str13replace_ascii0EE0E0Csk7Xz0eKShPU_18build_script_build, symObjAddr: 0x1BE4, symBinAddr: 0x1000061D4, symSize: 0x28 }
  - { offset: 0xD9A1, size: 0x8, addend: 0x0, symName: __RINvYINtNtNtNtCs85QQFkKrybG_4core4iter8adapters3map3MapINtNtNtBc_5slice4iter4IterhENCNvNtCsdFlNUEO95cG_5alloc3str13replace_ascii0ENtNtNtBa_6traits8iterator8Iterator7collectINtNtB1p_3vec3VechEECsk7Xz0eKShPU_18build_script_build, symObjAddr: 0x1960, symBinAddr: 0x100005F50, symSize: 0x68 }
  - { offset: 0xDA37, size: 0x8, addend: 0x0, symName: __RINvYINtNtNtNtCs85QQFkKrybG_4core4iter8adapters3map3MapINtNtNtBc_5slice4iter4IterhENCNvNtCsdFlNUEO95cG_5alloc3str13replace_ascii0ENtNtNtBa_6traits8iterator8Iterator8for_eachNCINvMsi_NtB1p_3vecINtB2U_3VechE14extend_trustedB3_E0ECsk7Xz0eKShPU_18build_script_build, symObjAddr: 0x19C8, symBinAddr: 0x100005FB8, symSize: 0x34 }
  - { offset: 0xDAAD, size: 0x8, addend: 0x0, symName: __RNCINvNvNtNtNtNtCs85QQFkKrybG_4core4iter6traits8iterator8Iterator4find5checkReQNtNtBe_3str10IsNotEmptyE0Csk7Xz0eKShPU_18build_script_build, symObjAddr: 0x1AD0, symBinAddr: 0x1000060C0, symSize: 0x84 }
  - { offset: 0xDB15, size: 0x8, addend: 0x0, symName: __RNCINvNvNtNtNtNtCs85QQFkKrybG_4core4iter6traits8iterator8Iterator8find_map5checkReNtCsk7Xz0eKShPU_18build_script_build10VersionCfgQNCNvB1k_34parse_version_cfgs_from_cargo_toml0E0B1k_, symObjAddr: 0x1B54, symBinAddr: 0x100006144, symSize: 0x90 }
  - { offset: 0xDBA7, size: 0x8, addend: 0x0, symName: __RNvXNtNtNtCs85QQFkKrybG_4core4iter6traits7collectINtNtNtB6_8adapters3map3MapINtNtNtB8_5slice4iter4IterhENCNvNtCsdFlNUEO95cG_5alloc3str13replace_ascii0ENtB2_12IntoIterator9into_iterCsk7Xz0eKShPU_18build_script_build, symObjAddr: 0x2BE4, symBinAddr: 0x1000071D4, symSize: 0x14 }
  - { offset: 0xDBF1, size: 0x8, addend: 0x0, symName: __RINvXs2E_NtNtCs85QQFkKrybG_4core5slice4iterINtB7_4IterhENtNtNtNtBb_4iter6traits8iterator8Iterator4folduNCINvNtNtBY_8adapters3map8map_foldRhhuNCNvNtCsdFlNUEO95cG_5alloc3str13replace_ascii0NCINvNvBS_8for_each4callhNCINvMsi_NtB2l_3vecINtB3x_3VechE14extend_trustedINtB1I_3MapBF_B2f_EE0E0E0ECsk7Xz0eKShPU_18build_script_build, symObjAddr: 0x167C, symBinAddr: 0x100005C6C, symSize: 0x1B8 }
  - { offset: 0xDD46, size: 0x8, addend: 0x0, symName: __RNvXs2E_NtNtCs85QQFkKrybG_4core5slice4iterINtB6_4IterNtCsk7Xz0eKShPU_18build_script_build10VersionCfgENtNtNtNtBa_4iter6traits8iterator8Iterator4nextBR_, symObjAddr: 0x2E14, symBinAddr: 0x100007404, symSize: 0xA8 }
  - { offset: 0xDE80, size: 0x8, addend: 0x0, symName: __RNvXs2E_NtNtCs85QQFkKrybG_4core5slice4iterINtB6_4IterhENtNtNtNtBa_4iter6traits8iterator8Iterator4nextCsk7Xz0eKShPU_18build_script_build, symObjAddr: 0x2EBC, symBinAddr: 0x1000074AC, symSize: 0xA8 }
  - { offset: 0xDFBA, size: 0x8, addend: 0x0, symName: __RNvXs2E_NtNtCs85QQFkKrybG_4core5slice4iterINtB6_4IterhENtNtNtNtBa_4iter6traits8iterator8Iterator9size_hintCsk7Xz0eKShPU_18build_script_build, symObjAddr: 0x2F64, symBinAddr: 0x100007554, symSize: 0x60 }
  - { offset: 0xE0A6, size: 0x8, addend: 0x0, symName: __RNvXs2F_NtNtCs85QQFkKrybG_4core5slice4iterINtB6_4IterhENtNtNtNtBa_4iter6traits12double_ended19DoubleEndedIterator9next_backCsk7Xz0eKShPU_18build_script_build, symObjAddr: 0x2FC4, symBinAddr: 0x1000075B4, symSize: 0x108 }
  - { offset: 0xE2E2, size: 0x8, addend: 0x0, symName: __RNvNtNtCs85QQFkKrybG_4core5slice6memchr6memchrCsk7Xz0eKShPU_18build_script_build, symObjAddr: 0x2010, symBinAddr: 0x100006600, symSize: 0x114 }
  - { offset: 0xE399, size: 0x8, addend: 0x0, symName: __RNSNvYNCINvNtCswz7ZwgBZOU_3std2rt10lang_startuE0INtNtNtCs85QQFkKrybG_4core3ops8function6FnOnceuE9call_once6vtableCsk7Xz0eKShPU_18build_script_build, symObjAddr: 0x1C5C, symBinAddr: 0x10000624C, symSize: 0x28 }
  - { offset: 0xE3DD, size: 0x8, addend: 0x0, symName: __RNvYFEuINtNtNtCs85QQFkKrybG_4core3ops8function6FnOnceuE9call_onceCsk7Xz0eKShPU_18build_script_build, symObjAddr: 0x3544, symBinAddr: 0x100007B34, symSize: 0x20 }
  - { offset: 0xE41D, size: 0x8, addend: 0x0, symName: __RNvYNCINvNtCswz7ZwgBZOU_3std2rt10lang_startuE0INtNtNtCs85QQFkKrybG_4core3ops8function6FnOnceuE9call_onceCsk7Xz0eKShPU_18build_script_build, symObjAddr: 0x35F8, symBinAddr: 0x100007BE8, symSize: 0x4C }
  - { offset: 0xE461, size: 0x8, addend: 0x0, symName: __RNvYNvYeNtNtCsdFlNUEO95cG_5alloc6borrow7ToOwned8to_ownedINtNtNtCs85QQFkKrybG_4core3ops8function6FnOnceTReEE9call_onceCsk7Xz0eKShPU_18build_script_build, symObjAddr: 0x366C, symBinAddr: 0x100007C5C, symSize: 0x2C }
  - { offset: 0xE4F3, size: 0x8, addend: 0x0, symName: __RNvYNvMNtNtCs85QQFkKrybG_4core4char7methodsc13is_whitespaceINtNtNtB9_3ops8function5FnMutTcEE8call_mutCsk7Xz0eKShPU_18build_script_build, symObjAddr: 0x3644, symBinAddr: 0x100007C34, symSize: 0x28 }
  - { offset: 0xE6E4, size: 0x8, addend: 0x0, symName: __RNvNtNtNtCs85QQFkKrybG_4core7unicode12unicode_data11white_space6lookupCsk7Xz0eKShPU_18build_script_build, symObjAddr: 0x2124, symBinAddr: 0x100006714, symSize: 0x14C }
  - { offset: 0xE7F8, size: 0x8, addend: 0x0, symName: __RNvXs8_NtNtCs85QQFkKrybG_4core3str5errorNtB5_9Utf8ErrorNtNtB9_3fmt5Debug3fmtCsk7Xz0eKShPU_18build_script_build, symObjAddr: 0x31A4, symBinAddr: 0x100007794, symSize: 0x88 }
  - { offset: 0xEB20, size: 0x8, addend: 0x0, symName: __RNvXsb_NtCsdFlNUEO95cG_5alloc6borrowINtB5_3CoweENtNtCs85QQFkKrybG_4core3fmt7Display3fmtCsk7Xz0eKShPU_18build_script_build, symObjAddr: 0x3454, symBinAddr: 0x100007A44, symSize: 0x8C }
  - { offset: 0xF1FD, size: 0x8, addend: 0x0, symName: __RNCINvMsm_NtNtNtCsdFlNUEO95cG_5alloc11collections5btree8navigateINtNtBa_4node6HandleINtB13_7NodeRefNtNtB13_6marker5DyingNtNtNtCswz7ZwgBZOU_3std3ffi6os_str8OsStringINtNtCs85QQFkKrybG_4core6option6OptionB1U_ENtB1B_4LeafENtB1B_4EdgeE27deallocating_next_uncheckedNtNtBe_5alloc6GlobalE0Csk7Xz0eKShPU_18build_script_build, symObjAddr: 0x19FC, symBinAddr: 0x100005FEC, symSize: 0x58 }
  - { offset: 0xF79F, size: 0x8, addend: 0x0, symName: __RINvNtNtNtCsdFlNUEO95cG_5alloc11collections5btree3mem7replaceINtNtB4_4node6HandleINtB10_7NodeRefNtNtB10_6marker5DyingNtNtNtCswz7ZwgBZOU_3std3ffi6os_str8OsStringINtNtCs85QQFkKrybG_4core6option6OptionB1R_ENtB1y_4LeafENtB1y_4EdgeEIBY_IB1i_B1w_B1R_B2y_NtB1y_14LeafOrInternalENtB1y_2KVENCINvMsm_NtB4_8navigateBX_27deallocating_next_uncheckedNtNtB8_5alloc6GlobalE0ECsk7Xz0eKShPU_18build_script_build, symObjAddr: 0x11A0, symBinAddr: 0x100005790, symSize: 0xCC }
  - { offset: 0xF899, size: 0x8, addend: 0x0, symName: __RNvXNvNtNtNtCsdFlNUEO95cG_5alloc11collections5btree3mem7replaceNtB2_10PanicGuardNtNtNtCs85QQFkKrybG_4core3ops4drop4Drop4dropCsk7Xz0eKShPU_18build_script_build, symObjAddr: 0x2CAC, symBinAddr: 0x10000729C, symSize: 0xC }
  - { offset: 0xF9EA, size: 0x8, addend: 0x0, symName: __RINvXs_NvMNtCsdFlNUEO95cG_5alloc5sliceSp9to_vec_inhNtB5_10ConvertVec6to_vecNtNtBa_5alloc6GlobalECsk7Xz0eKShPU_18build_script_build, symObjAddr: 0x1834, symBinAddr: 0x100005E24, symSize: 0x12C }
  - { offset: 0xFCE0, size: 0x8, addend: 0x0, symName: __RNvXs0_NtNtCsdFlNUEO95cG_5alloc3ffi5c_strNtB5_7CStringNtNtNtCs85QQFkKrybG_4core3ops4drop4Drop4dropCsk7Xz0eKShPU_18build_script_build, symObjAddr: 0x2CB8, symBinAddr: 0x1000072A8, symSize: 0x70 }
  - { offset: 0xFD79, size: 0x8, addend: 0x0, symName: __RINvMNtNtCs85QQFkKrybG_4core3fmt2rtNtB3_8Argument11new_displayINtNtCsdFlNUEO95cG_5alloc6borrow3CoweEECsk7Xz0eKShPU_18build_script_build, symObjAddr: 0x0, symBinAddr: 0x100004680, symSize: 0x2C }
  - { offset: 0xFDB1, size: 0x8, addend: 0x0, symName: __RINvMNtNtCs85QQFkKrybG_4core3fmt2rtNtB3_8Argument11new_displayNtNtCsdFlNUEO95cG_5alloc6string6StringECsk7Xz0eKShPU_18build_script_build, symObjAddr: 0x2C, symBinAddr: 0x1000046AC, symSize: 0x2C }
  - { offset: 0xFDE9, size: 0x8, addend: 0x0, symName: __RINvMNtNtCs85QQFkKrybG_4core3fmt2rtNtB3_8Argument11new_displayNtNtCswz7ZwgBZOU_3std7process10ExitStatusECsk7Xz0eKShPU_18build_script_build, symObjAddr: 0x58, symBinAddr: 0x1000046D8, symSize: 0x2C }
  - { offset: 0xFE21, size: 0x8, addend: 0x0, symName: __RINvMNtNtCs85QQFkKrybG_4core3fmt2rtNtB3_8Argument11new_displayReECsk7Xz0eKShPU_18build_script_build, symObjAddr: 0x84, symBinAddr: 0x100004704, symSize: 0x2C }
  - { offset: 0xFE59, size: 0x8, addend: 0x0, symName: __RINvMNtNtCs85QQFkKrybG_4core3fmt2rtNtB3_8Argument11new_displayjECsk7Xz0eKShPU_18build_script_build, symObjAddr: 0xB0, symBinAddr: 0x100004730, symSize: 0x2C }
  - { offset: 0xFF0E, size: 0x8, addend: 0x0, symName: __RINvMsb_NtNtNtCsdFlNUEO95cG_5alloc11collections5btree8navigateINtB6_13LazyLeafRangeNtNtNtB8_4node6marker5DyingNtNtNtCswz7ZwgBZOU_3std3ffi6os_str8OsStringINtNtCs85QQFkKrybG_4core6option6OptionB1K_EE16deallocating_endNtNtBc_5alloc6GlobalECsk7Xz0eKShPU_18build_script_build, symObjAddr: 0xDC, symBinAddr: 0x10000475C, symSize: 0x98 }
  - { offset: 0x1000B, size: 0x8, addend: 0x0, symName: __RINvMsb_NtNtNtCsdFlNUEO95cG_5alloc11collections5btree8navigateINtB6_13LazyLeafRangeNtNtNtB8_4node6marker5DyingNtNtNtCswz7ZwgBZOU_3std3ffi6os_str8OsStringINtNtCs85QQFkKrybG_4core6option6OptionB1K_EE27deallocating_next_uncheckedNtNtBc_5alloc6GlobalECsk7Xz0eKShPU_18build_script_build, symObjAddr: 0x174, symBinAddr: 0x1000047F4, symSize: 0xA8 }
  - { offset: 0x107A5, size: 0x8, addend: 0x0, symName: __RNvMsb_NtNtNtCsdFlNUEO95cG_5alloc11collections5btree8navigateINtB5_13LazyLeafRangeNtNtNtB7_4node6marker5DyingNtNtNtCswz7ZwgBZOU_3std3ffi6os_str8OsStringINtNtCs85QQFkKrybG_4core6option6OptionB1J_EE10take_frontCsk7Xz0eKShPU_18build_script_build, symObjAddr: 0x1C84, symBinAddr: 0x100006274, symSize: 0x1C4 }
  - { offset: 0x10B08, size: 0x8, addend: 0x0, symName: __RNvMsc_NtNtNtCsdFlNUEO95cG_5alloc11collections5btree8navigateINtB5_13LazyLeafRangeNtNtNtB7_4node6marker5DyingNtNtNtCswz7ZwgBZOU_3std3ffi6os_str8OsStringINtNtCs85QQFkKrybG_4core6option6OptionB1J_EE10init_frontCsk7Xz0eKShPU_18build_script_build, symObjAddr: 0x1E48, symBinAddr: 0x100006438, symSize: 0x1C8 }
  - { offset: 0x115CC, size: 0x8, addend: 0x0, symName: __RINvMNtCs85QQFkKrybG_4core3stre16trim_end_matchescECsk7Xz0eKShPU_18build_script_build, symObjAddr: 0x0, symBinAddr: 0x100007C88, symSize: 0xF0 }
  - { offset: 0x1176D, size: 0x8, addend: 0x0, symName: __RNvNvMs9_NtCs85QQFkKrybG_4core3numj13unchecked_add18precondition_checkCsk7Xz0eKShPU_18build_script_build, symObjAddr: 0x2190, symBinAddr: 0x100009E18, symSize: 0xB0 }
  - { offset: 0x11801, size: 0x8, addend: 0x0, symName: __RNvNvMs9_NtCs85QQFkKrybG_4core3numj13unchecked_sub18precondition_checkCsk7Xz0eKShPU_18build_script_build, symObjAddr: 0x2240, symBinAddr: 0x100009EC8, symSize: 0xAC }
  - { offset: 0x11870, size: 0x8, addend: 0x0, symName: __RNvMsu_NtCs85QQFkKrybG_4core3numj16from_ascii_radixCsk7Xz0eKShPU_18build_script_build, symObjAddr: 0x17B0, symBinAddr: 0x100009438, symSize: 0x57C }
  - { offset: 0x11B0C, size: 0x8, addend: 0x0, symName: __RNvNvMs3_NtCs85QQFkKrybG_4core3numi13unchecked_neg18precondition_checkCsk7Xz0eKShPU_18build_script_build, symObjAddr: 0x20D8, symBinAddr: 0x100009D60, symSize: 0xB8 }
  - { offset: 0x11BFE, size: 0x8, addend: 0x0, symName: __RNvXst_NtCs85QQFkKrybG_4core3numjNtNtNtB7_3str6traits7FromStr8from_strCsk7Xz0eKShPU_18build_script_build, symObjAddr: 0x2DD0, symBinAddr: 0x10000AA58, symSize: 0x30 }
  - { offset: 0x12074, size: 0x8, addend: 0x0, symName: __RNvNvMNtNtCs85QQFkKrybG_4core3ptr9const_ptrPp20offset_from_unsigned18precondition_checkCsk7Xz0eKShPU_18build_script_build, symObjAddr: 0x1ECC, symBinAddr: 0x100009B54, symSize: 0xAC }
  - { offset: 0x12373, size: 0x8, addend: 0x0, symName: __RNvNvMs1_NtNtCs85QQFkKrybG_4core3ptr8non_nullINtB7_7NonNullpE13new_unchecked18precondition_checkCsk7Xz0eKShPU_18build_script_build, symObjAddr: 0x2034, symBinAddr: 0x100009CBC, symSize: 0xA4 }
  - { offset: 0x125F2, size: 0x8, addend: 0x0, symName: __RINvMNtCs85QQFkKrybG_4core3stre16trim_end_matchescECsk7Xz0eKShPU_18build_script_build, symObjAddr: 0x0, symBinAddr: 0x100007C88, symSize: 0xF0 }
  - { offset: 0x1277E, size: 0x8, addend: 0x0, symName: __RINvMNtCs85QQFkKrybG_4core3stre18trim_start_matchesNvMNtNtB5_4char7methodsc13is_whitespaceECsk7Xz0eKShPU_18build_script_build, symObjAddr: 0xF0, symBinAddr: 0x100007D78, symSize: 0xE0 }
  - { offset: 0x12966, size: 0x8, addend: 0x0, symName: __RINvMNtCs85QQFkKrybG_4core3stre18trim_start_matchescECsk7Xz0eKShPU_18build_script_build, symObjAddr: 0x1D0, symBinAddr: 0x100007E58, symSize: 0xF4 }
  - { offset: 0x12AFE, size: 0x8, addend: 0x0, symName: __RINvMNtCs85QQFkKrybG_4core3stre5parsejECsk7Xz0eKShPU_18build_script_build, symObjAddr: 0x2C4, symBinAddr: 0x100007F4C, symSize: 0x28 }
  - { offset: 0x12B35, size: 0x8, addend: 0x0, symName: __RINvMNtCs85QQFkKrybG_4core3stre5splitNCNvCsk7Xz0eKShPU_18build_script_build13rustc_version0EBD_, symObjAddr: 0x2EC, symBinAddr: 0x100007F74, symSize: 0x80 }
  - { offset: 0x12B7B, size: 0x8, addend: 0x0, symName: __RINvMNtCs85QQFkKrybG_4core3stre5splitReECsk7Xz0eKShPU_18build_script_build, symObjAddr: 0x36C, symBinAddr: 0x100007FF4, symSize: 0xA4 }
  - { offset: 0x12BC1, size: 0x8, addend: 0x0, symName: __RINvMNtCs85QQFkKrybG_4core3stre5splitcECsk7Xz0eKShPU_18build_script_build, symObjAddr: 0x410, symBinAddr: 0x100008098, symSize: 0x98 }
  - { offset: 0x12C07, size: 0x8, addend: 0x0, symName: __RINvMNtCs85QQFkKrybG_4core3stre8containsReECsk7Xz0eKShPU_18build_script_build, symObjAddr: 0x4A8, symBinAddr: 0x100008130, symSize: 0x4C }
  - { offset: 0x12C4D, size: 0x8, addend: 0x0, symName: __RNvMNtCs85QQFkKrybG_4core3stre10trim_startCsk7Xz0eKShPU_18build_script_build, symObjAddr: 0xEEC, symBinAddr: 0x100008B74, symSize: 0x28 }
  - { offset: 0x12CAF, size: 0x8, addend: 0x0, symName: __RNvMNtCs85QQFkKrybG_4core3stre16split_whitespaceCsk7Xz0eKShPU_18build_script_build, symObjAddr: 0xF14, symBinAddr: 0x100008B9C, symSize: 0xCC }
  - { offset: 0x12D65, size: 0x8, addend: 0x0, symName: __RNvMNtCs85QQFkKrybG_4core3stre5charsCsk7Xz0eKShPU_18build_script_build, symObjAddr: 0xFE0, symBinAddr: 0x100008C68, symSize: 0x20 }
  - { offset: 0x12E07, size: 0x8, addend: 0x0, symName: __RNvMNtCs85QQFkKrybG_4core3stre5linesCsk7Xz0eKShPU_18build_script_build, symObjAddr: 0x1000, symBinAddr: 0x100008C88, symSize: 0xC4 }
  - { offset: 0x12E97, size: 0x8, addend: 0x0, symName: __RNvMNtCs85QQFkKrybG_4core3stre8is_emptyCsk7Xz0eKShPU_18build_script_build, symObjAddr: 0x10C4, symBinAddr: 0x100008D4C, symSize: 0x1C }
  - { offset: 0x1302B, size: 0x8, addend: 0x0, symName: __RNvNvXs5_NtNtCs85QQFkKrybG_4core3str6traitsINtNtNtBb_3ops5range5RangejEINtNtNtBb_5slice5index10SliceIndexeE13get_unchecked18precondition_checkCsk7Xz0eKShPU_18build_script_build, symObjAddr: 0x2614, symBinAddr: 0x10000A29C, symSize: 0xCC }
  - { offset: 0x13126, size: 0x8, addend: 0x0, symName: __RNvXs9_NtNtCs85QQFkKrybG_4core3str6traitsINtNtNtB9_3ops5range9RangeFromjEINtNtNtB9_5slice5index10SliceIndexeE3getCsk7Xz0eKShPU_18build_script_build, symObjAddr: 0x2AB8, symBinAddr: 0x10000A740, symSize: 0x150 }
  - { offset: 0x132A7, size: 0x8, addend: 0x0, symName: __RNvXs_NtNtCs85QQFkKrybG_4core3str6traitseNtNtB8_3cmp9PartialEq2eqCsk7Xz0eKShPU_18build_script_build, symObjAddr: 0x2C08, symBinAddr: 0x10000A890, symSize: 0xAC }
  - { offset: 0x13452, size: 0x8, addend: 0x0, symName: __RINvNtNtCs85QQFkKrybG_4core3str11validations15next_code_pointINtNtNtB6_5slice4iter4IterhEECsk7Xz0eKShPU_18build_script_build, symObjAddr: 0x9A4, symBinAddr: 0x10000862C, symSize: 0x224 }
  - { offset: 0x13708, size: 0x8, addend: 0x0, symName: __RINvNtNtCs85QQFkKrybG_4core3str11validations23next_code_point_reverseINtNtNtB6_5slice4iter4IterhEECsk7Xz0eKShPU_18build_script_build, symObjAddr: 0xBC8, symBinAddr: 0x100008850, symSize: 0x244 }
  - { offset: 0x13AE3, size: 0x8, addend: 0x0, symName: __RNvXs3_NtNtCs85QQFkKrybG_4core3str7patternNtB7_12IsWhitespaceNtB5_11MultiCharEq7matchesCsk7Xz0eKShPU_18build_script_build, symObjAddr: 0x29B8, symBinAddr: 0x10000A640, symSize: 0x28 }
  - { offset: 0x13F5B, size: 0x8, addend: 0x0, symName: __RNvXs3_NtCs85QQFkKrybG_4core3strNtB5_8LinesMapINtNtNtB7_3ops8function2FnTReEE4callCsk7Xz0eKShPU_18build_script_build, symObjAddr: 0x2844, symBinAddr: 0x10000A4CC, symSize: 0x174 }
  - { offset: 0x14086, size: 0x8, addend: 0x0, symName: __RNvXs4_NtCs85QQFkKrybG_4core3strNtB5_8LinesMapINtNtNtB7_3ops8function5FnMutTReEE8call_mutCsk7Xz0eKShPU_18build_script_build, symObjAddr: 0x29E0, symBinAddr: 0x10000A668, symSize: 0x44 }
  - { offset: 0x1410F, size: 0x8, addend: 0x0, symName: __RNvXsg_NtCs85QQFkKrybG_4core3strNtB5_12IsWhitespaceINtNtNtB7_3ops8function5FnMutTcEE8call_mutCsk7Xz0eKShPU_18build_script_build, symObjAddr: 0x2CD4, symBinAddr: 0x10000A95C, symSize: 0x2C }
  - { offset: 0x141C1, size: 0x8, addend: 0x0, symName: __RNvXsm_NtCs85QQFkKrybG_4core3strNtB5_10IsNotEmptyINtNtNtB7_3ops8function5FnMutTRReEE8call_mutCsk7Xz0eKShPU_18build_script_build, symObjAddr: 0x2D88, symBinAddr: 0x10000AA10, symSize: 0x24 }
  - { offset: 0x14312, size: 0x8, addend: 0x0, symName: __RNvXs1_NtNtNtCs85QQFkKrybG_4core3ops8function5implsQNtNtBb_3str10IsNotEmptyINtB7_5FnMutTRReEE8call_mutCsk7Xz0eKShPU_18build_script_build, symObjAddr: 0x2814, symBinAddr: 0x10000A49C, symSize: 0x30 }
  - { offset: 0x15045, size: 0x8, addend: 0x0, symName: __RNvNvMNtNtCs85QQFkKrybG_4core5alloc6layoutNtB4_6Layout25from_size_align_unchecked18precondition_checkCsk7Xz0eKShPU_18build_script_build, symObjAddr: 0x1F78, symBinAddr: 0x100009C00, symSize: 0xBC }
  - { offset: 0x1510A, size: 0x8, addend: 0x0, symName: __RNvXNtCs85QQFkKrybG_4core7convertReINtB2_5AsRefNtNtCswz7ZwgBZOU_3std4path4PathE6as_refCsk7Xz0eKShPU_18build_script_build, symObjAddr: 0x26E0, symBinAddr: 0x10000A368, symSize: 0x30 }
  - { offset: 0x1514A, size: 0x8, addend: 0x0, symName: __RNvXNtCs85QQFkKrybG_4core7convertReINtB2_5AsRefNtNtNtCswz7ZwgBZOU_3std3ffi6os_str5OsStrE6as_refCsk7Xz0eKShPU_18build_script_build, symObjAddr: 0x2710, symBinAddr: 0x10000A398, symSize: 0x30 }
  - { offset: 0x15403, size: 0x8, addend: 0x0, symName: __RINvYINtNtNtNtCs85QQFkKrybG_4core4iter8adapters10filter_map9FilterMapNtNtNtBc_3str4iter5LinesNCNvCsk7Xz0eKShPU_18build_script_build34parse_version_cfgs_from_cargo_toml0ENtNtNtBa_6traits8iterator8Iterator7collectINtNtCsdFlNUEO95cG_5alloc3vec3VecNtB1x_10VersionCfgEEB1x_, symObjAddr: 0xE30, symBinAddr: 0x100008AB8, symSize: 0x74 }
  - { offset: 0x15528, size: 0x8, addend: 0x0, symName: __RNvXNtNtNtCs85QQFkKrybG_4core4iter6traits7collectINtNtNtB6_8adapters10filter_map9FilterMapNtNtNtB8_3str4iter5LinesNCNvCsk7Xz0eKShPU_18build_script_build34parse_version_cfgs_from_cargo_toml0ENtB2_12IntoIterator9into_iterB1S_, symObjAddr: 0x2740, symBinAddr: 0x10000A3C8, symSize: 0x30 }
  - { offset: 0x1563C, size: 0x8, addend: 0x0, symName: __RNvXs0_NtNtNtCs85QQFkKrybG_4core4iter8adapters10filter_mapINtB5_9FilterMapNtNtNtBb_3str4iter5LinesNCNvCsk7Xz0eKShPU_18build_script_build34parse_version_cfgs_from_cargo_toml0ENtNtNtB9_6traits8iterator8Iterator4nextB1C_, symObjAddr: 0x279C, symBinAddr: 0x10000A424, symSize: 0x2C }
  - { offset: 0x15683, size: 0x8, addend: 0x0, symName: __RNvXs0_NtNtNtCs85QQFkKrybG_4core4iter8adapters10filter_mapINtB5_9FilterMapNtNtNtBb_3str4iter5LinesNCNvCsk7Xz0eKShPU_18build_script_build34parse_version_cfgs_from_cargo_toml0ENtNtNtB9_6traits8iterator8Iterator9size_hintB1C_, symObjAddr: 0x27C8, symBinAddr: 0x10000A450, symSize: 0x4C }
  - { offset: 0x1597E, size: 0x8, addend: 0x0, symName: __RNvNvXs0_NtNtCs85QQFkKrybG_4core5slice5indexjINtB7_10SliceIndexSpE13get_unchecked18precondition_checkCsk7Xz0eKShPU_18build_script_build, symObjAddr: 0x23F0, symBinAddr: 0x10000A078, symSize: 0xAC }
  - { offset: 0x159EC, size: 0x8, addend: 0x0, symName: __RNvNvXs0_NtNtCs85QQFkKrybG_4core5slice5indexjINtB7_10SliceIndexSpE17get_unchecked_mut18precondition_checkCsk7Xz0eKShPU_18build_script_build, symObjAddr: 0x249C, symBinAddr: 0x10000A124, symSize: 0xAC }
  - { offset: 0x15A60, size: 0x8, addend: 0x0, symName: __RNvNvXs2_NtNtCs85QQFkKrybG_4core5slice5indexINtNtNtBb_3ops5range5RangejEINtB7_10SliceIndexSpE13get_unchecked18precondition_checkCsk7Xz0eKShPU_18build_script_build, symObjAddr: 0x2548, symBinAddr: 0x10000A1D0, symSize: 0xCC }
  - { offset: 0x15B54, size: 0x8, addend: 0x0, symName: __RNvXs5_NtNtCs85QQFkKrybG_4core5slice5indexINtNtNtB9_3ops5range9RangeFromjEINtB5_10SliceIndexShE5indexCsk7Xz0eKShPU_18build_script_build, symObjAddr: 0x2A24, symBinAddr: 0x10000A6AC, symSize: 0x94 }
  - { offset: 0x15D76, size: 0x8, addend: 0x0, symName: __RNvNvNtNtCs85QQFkKrybG_4core4char7convert18from_u32_unchecked18precondition_checkCsk7Xz0eKShPU_18build_script_build, symObjAddr: 0x22EC, symBinAddr: 0x100009F74, symSize: 0x104 }
  - { offset: 0x16976, size: 0x8, addend: 0x0, symName: __RNvXNvMsT_NtNtNtCsdFlNUEO95cG_5alloc11collections5btree4nodeINtB8_6HandleINtB8_7NodeRefNtNtB8_6marker5DyingpppENtB1p_2KVE12drop_key_valINtB2_7DropperINtNtCs85QQFkKrybG_4core6option6OptionNtNtNtCswz7ZwgBZOU_3std3ffi6os_str8OsStringEENtNtNtB2s_3ops4drop4Drop4dropCsk7Xz0eKShPU_18build_script_build, symObjAddr: 0x2770, symBinAddr: 0x10000A3F8, symSize: 0x2C }
  - { offset: 0x16A7D, size: 0x8, addend: 0x0, symName: __RNvXs_NtNtCsdFlNUEO95cG_5alloc3vec15set_len_on_dropNtB4_12SetLenOnDropNtNtNtCs85QQFkKrybG_4core3ops4drop4Drop4dropCsk7Xz0eKShPU_18build_script_build, symObjAddr: 0x2CB4, symBinAddr: 0x10000A93C, symSize: 0x20 }
  - { offset: 0x16C2E, size: 0x8, addend: 0x0, symName: __RNCNvNtCsdFlNUEO95cG_5alloc3fmt6format0Csk7Xz0eKShPU_18build_script_build, symObjAddr: 0xEA4, symBinAddr: 0x100008B2C, symSize: 0x48 }
  - { offset: 0x16C5F, size: 0x8, addend: 0x0, symName: __RNvNtCsdFlNUEO95cG_5alloc3fmt6formatCsk7Xz0eKShPU_18build_script_build, symObjAddr: 0x1D2C, symBinAddr: 0x1000099B4, symSize: 0xD4 }
  - { offset: 0x16D12, size: 0x8, addend: 0x0, symName: __RNvXss_NtCsdFlNUEO95cG_5alloc6stringNtB5_6StringNtNtNtCs85QQFkKrybG_4core3ops5deref5Deref5derefCsk7Xz0eKShPU_18build_script_build, symObjAddr: 0x2DAC, symBinAddr: 0x10000AA34, symSize: 0x24 }
  - { offset: 0x16D46, size: 0x8, addend: 0x0, symName: __RNvXsl_NtCsdFlNUEO95cG_5alloc6stringNtB5_6StringNtNtCs85QQFkKrybG_4core3fmt7Display3fmtCsk7Xz0eKShPU_18build_script_build, symObjAddr: 0x2D00, symBinAddr: 0x10000A988, symSize: 0x88 }
  - { offset: 0x16F23, size: 0x8, addend: 0x0, symName: __RINvNtNtCswz7ZwgBZOU_3std3sys9backtrace28___rust_begin_short_backtraceFEuuECsk7Xz0eKShPU_18build_script_build, symObjAddr: 0xE0C, symBinAddr: 0x100008A94, symSize: 0x24 }
  - { offset: 0x16FC4, size: 0x8, addend: 0x0, symName: __RNvNtNtNtCswz7ZwgBZOU_3std3sys2fs4unix23debug_assert_fd_is_openCsk7Xz0eKShPU_18build_script_build, symObjAddr: 0x1E00, symBinAddr: 0x100009A88, symSize: 0xCC }
  - { offset: 0x171D1, size: 0x8, addend: 0x0, symName: __RINvMsh_NtNtNtCsdFlNUEO95cG_5alloc11collections5btree4nodeINtB6_7NodeRefNtNtB6_6marker5DyingNtNtNtCswz7ZwgBZOU_3std3ffi6os_str8OsStringINtNtCs85QQFkKrybG_4core6option6OptionB1s_ENtB1a_14LeafOrInternalE21deallocate_and_ascendNtNtBc_5alloc6GlobalECsk7Xz0eKShPU_18build_script_build, symObjAddr: 0x4F4, symBinAddr: 0x10000817C, symSize: 0x188 }
  - { offset: 0x17423, size: 0x8, addend: 0x0, symName: __RINvMsj_NtNtNtCsdFlNUEO95cG_5alloc11collections5btree8navigateINtNtB8_4node6HandleINtB11_7NodeRefNtNtB11_6marker5DyingNtNtNtCswz7ZwgBZOU_3std3ffi6os_str8OsStringINtNtCs85QQFkKrybG_4core6option6OptionB1S_ENtB1z_4LeafENtB1z_4EdgeE16deallocating_endNtNtBc_5alloc6GlobalECsk7Xz0eKShPU_18build_script_build, symObjAddr: 0x67C, symBinAddr: 0x100008304, symSize: 0xD4 }
  - { offset: 0x176A4, size: 0x8, addend: 0x0, symName: __RINvMsj_NtNtNtCsdFlNUEO95cG_5alloc11collections5btree8navigateINtNtB8_4node6HandleINtB11_7NodeRefNtNtB11_6marker5DyingNtNtNtCswz7ZwgBZOU_3std3ffi6os_str8OsStringINtNtCs85QQFkKrybG_4core6option6OptionB1S_ENtB1z_4LeafENtB1z_4EdgeE17deallocating_nextNtNtBc_5alloc6GlobalECsk7Xz0eKShPU_18build_script_build, symObjAddr: 0x750, symBinAddr: 0x1000083D8, symSize: 0x254 }
  - { offset: 0x17BC1, size: 0x8, addend: 0x0, symName: __RNvMNtCsdFlNUEO95cG_5alloc6stringNtB2_6String6as_strCsk7Xz0eKShPU_18build_script_build, symObjAddr: 0x10E0, symBinAddr: 0x100008D68, symSize: 0x78 }
  - { offset: 0x17D6E, size: 0x8, addend: 0x0, symName: __RNvMs1_NtNtCs85QQFkKrybG_4core3ptr8non_nullINtB5_7NonNullNtCsk7Xz0eKShPU_18build_script_build10VersionCfgE20offset_from_unsignedBV_, symObjAddr: 0x1158, symBinAddr: 0x100008DE0, symSize: 0x7C }
  - { offset: 0x17E5E, size: 0x8, addend: 0x0, symName: __RNvMs1_NtNtCs85QQFkKrybG_4core3ptr8non_nullINtB5_7NonNullhE20offset_from_unsignedCsk7Xz0eKShPU_18build_script_build, symObjAddr: 0x11D4, symBinAddr: 0x100008E5C, symSize: 0x7C }
  - { offset: 0x18000, size: 0x8, addend: 0x0, symName: __RNvMsO_NtNtNtCsdFlNUEO95cG_5alloc11collections5btree4nodeINtB5_6HandleINtB5_7NodeRefNtNtB5_6marker5DyingNtNtNtCswz7ZwgBZOU_3std3ffi6os_str8OsStringINtNtCs85QQFkKrybG_4core6option6OptionB1E_ENtB1m_8InternalENtB1m_4EdgeE7descendCsk7Xz0eKShPU_18build_script_build, symObjAddr: 0x1250, symBinAddr: 0x100008ED8, symSize: 0x9C }
  - { offset: 0x182DF, size: 0x8, addend: 0x0, symName: __RNvMsT_NtNtNtCsdFlNUEO95cG_5alloc11collections5btree4nodeINtB5_6HandleINtB5_7NodeRefNtNtB5_6marker5DyingNtNtNtCswz7ZwgBZOU_3std3ffi6os_str8OsStringINtNtCs85QQFkKrybG_4core6option6OptionB1E_ENtB1m_14LeafOrInternalENtB1m_2KVE12drop_key_valCsk7Xz0eKShPU_18build_script_build, symObjAddr: 0x12EC, symBinAddr: 0x100008F74, symSize: 0x138 }
  - { offset: 0x185E2, size: 0x8, addend: 0x0, symName: __RNvMse_NtNtNtCsdFlNUEO95cG_5alloc11collections5btree4nodeINtB5_7NodeRefNtNtB5_6marker5DyingNtNtNtCswz7ZwgBZOU_3std3ffi6os_str8OsStringINtNtCs85QQFkKrybG_4core6option6OptionB1r_ENtB19_14LeafOrInternalE6ascendCsk7Xz0eKShPU_18build_script_build, symObjAddr: 0x1424, symBinAddr: 0x1000090AC, symSize: 0x17C }
  - { offset: 0x1899C, size: 0x8, addend: 0x0, symName: __RNvMsp_NtNtNtCsdFlNUEO95cG_5alloc11collections5btree8navigateINtNtB7_4node6HandleINtB10_7NodeRefNtNtB10_6marker5DyingNtNtNtCswz7ZwgBZOU_3std3ffi6os_str8OsStringINtNtCs85QQFkKrybG_4core6option6OptionB1R_ENtB1y_14LeafOrInternalENtB1y_2KVE14next_leaf_edgeCsk7Xz0eKShPU_18build_script_build, symObjAddr: 0x15A0, symBinAddr: 0x100009228, symSize: 0x210 }
  - { offset: 0x19055, size: 0x8, addend: 0x0, symName: __RINvMsx_NtNtCs85QQFkKrybG_4core3str7patternNtB6_14TwoWaySearcher4nextNtB6_14RejectAndMatchECsk7Xz0eKShPU_18build_script_build, symObjAddr: 0x0, symBinAddr: 0x10000AA88, symSize: 0x540 }
  - { offset: 0x1A469, size: 0x8, addend: 0x0, symName: __RNvXs0_NtNtCs85QQFkKrybG_4core3str7patternNtB5_12CharSearcherNtB5_15ReverseSearcher9next_backCsk7Xz0eKShPU_18build_script_build, symObjAddr: 0xA80, symBinAddr: 0x10000B508, symSize: 0x1E4 }
  - { offset: 0x1A73F, size: 0x8, addend: 0x0, symName: __RNvXs2_NtNtCs85QQFkKrybG_4core3str7patterncNtB5_7Pattern13into_searcherCsk7Xz0eKShPU_18build_script_build, symObjAddr: 0xC64, symBinAddr: 0x10000B6EC, symSize: 0x114 }
  - { offset: 0x1A857, size: 0x8, addend: 0x0, symName: __RNvXs2_NtNtCs85QQFkKrybG_4core3str7patterncNtB5_7Pattern15as_utf8_patternCsk7Xz0eKShPU_18build_script_build, symObjAddr: 0xD78, symBinAddr: 0x10000B800, symSize: 0x34 }
  - { offset: 0x1A88B, size: 0x8, addend: 0x0, symName: __RNvXs7_NtNtCs85QQFkKrybG_4core3str7patternINtB5_18MultiCharEqPatternNCNvCsk7Xz0eKShPU_18build_script_build13rustc_version0ENtB5_7Pattern13into_searcherB18_, symObjAddr: 0xDAC, symBinAddr: 0x10000B834, symSize: 0x90 }
  - { offset: 0x1A8E7, size: 0x8, addend: 0x0, symName: __RNvXs7_NtNtCs85QQFkKrybG_4core3str7patternINtB5_18MultiCharEqPatternNtB7_12IsWhitespaceENtB5_7Pattern13into_searcherCsk7Xz0eKShPU_18build_script_build, symObjAddr: 0xE3C, symBinAddr: 0x10000B8C4, symSize: 0x90 }
  - { offset: 0x1A943, size: 0x8, addend: 0x0, symName: __RNvXs7_NtNtCs85QQFkKrybG_4core3str7patternINtB5_18MultiCharEqPatternNvMNtNtB9_4char7methodsc13is_whitespaceENtB5_7Pattern13into_searcherCsk7Xz0eKShPU_18build_script_build, symObjAddr: 0xECC, symBinAddr: 0x10000B954, symSize: 0x90 }
  - { offset: 0x1A9A5, size: 0x8, addend: 0x0, symName: __RNvXs8_NtNtCs85QQFkKrybG_4core3str7patternINtB5_19MultiCharEqSearcherNCNvCsk7Xz0eKShPU_18build_script_build13rustc_version0ENtB5_8Searcher4nextB19_, symObjAddr: 0xF5C, symBinAddr: 0x10000B9E4, symSize: 0x138 }
  - { offset: 0x1AACD, size: 0x8, addend: 0x0, symName: __RNvXs8_NtNtCs85QQFkKrybG_4core3str7patternINtB5_19MultiCharEqSearcherNtB7_12IsWhitespaceENtB5_8Searcher4nextCsk7Xz0eKShPU_18build_script_build, symObjAddr: 0x1094, symBinAddr: 0x10000BB1C, symSize: 0x138 }
  - { offset: 0x1ABF5, size: 0x8, addend: 0x0, symName: __RNvXs8_NtNtCs85QQFkKrybG_4core3str7patternINtB5_19MultiCharEqSearcherNvMNtNtB9_4char7methodsc13is_whitespaceENtB5_8Searcher4nextCsk7Xz0eKShPU_18build_script_build, symObjAddr: 0x11CC, symBinAddr: 0x10000BC54, symSize: 0x138 }
  - { offset: 0x1ADC0, size: 0x8, addend: 0x0, symName: __RNvXs_NtNtCs85QQFkKrybG_4core3str7patternNtB4_12CharSearcherNtB4_8Searcher10next_matchCsk7Xz0eKShPU_18build_script_build, symObjAddr: 0x1304, symBinAddr: 0x10000BD8C, symSize: 0x3BC }
  - { offset: 0x1B2E3, size: 0x8, addend: 0x0, symName: __RNvXs_NtNtCs85QQFkKrybG_4core3str7patternNtB4_12CharSearcherNtB4_8Searcher4nextCsk7Xz0eKShPU_18build_script_build, symObjAddr: 0x16C0, symBinAddr: 0x10000C148, symSize: 0x1E4 }
  - { offset: 0x1B5B3, size: 0x8, addend: 0x0, symName: __RNvXs_NtNtCs85QQFkKrybG_4core3str7patternNtB4_12CharSearcherNtB4_8Searcher8haystackCsk7Xz0eKShPU_18build_script_build, symObjAddr: 0x18A4, symBinAddr: 0x10000C32C, symSize: 0x20 }
  - { offset: 0x1B5E7, size: 0x8, addend: 0x0, symName: __RNvXso_NtNtCs85QQFkKrybG_4core3str7patternINtB5_21CharPredicateSearcherNCNvCsk7Xz0eKShPU_18build_script_build13rustc_version0ENtB5_8Searcher10next_matchB1b_, symObjAddr: 0x18C4, symBinAddr: 0x10000C34C, symSize: 0x24 }
  - { offset: 0x1B61E, size: 0x8, addend: 0x0, symName: __RNvXso_NtNtCs85QQFkKrybG_4core3str7patternINtB5_21CharPredicateSearcherNCNvCsk7Xz0eKShPU_18build_script_build13rustc_version0ENtB5_8Searcher8haystackB1b_, symObjAddr: 0x18E8, symBinAddr: 0x10000C370, symSize: 0x20 }
  - { offset: 0x1B66A, size: 0x8, addend: 0x0, symName: __RNvXso_NtNtCs85QQFkKrybG_4core3str7patternINtB5_21CharPredicateSearcherNtB7_12IsWhitespaceENtB5_8Searcher10next_matchCsk7Xz0eKShPU_18build_script_build, symObjAddr: 0x1908, symBinAddr: 0x10000C390, symSize: 0x24 }
  - { offset: 0x1B6A1, size: 0x8, addend: 0x0, symName: __RNvXso_NtNtCs85QQFkKrybG_4core3str7patternINtB5_21CharPredicateSearcherNtB7_12IsWhitespaceENtB5_8Searcher8haystackCsk7Xz0eKShPU_18build_script_build, symObjAddr: 0x192C, symBinAddr: 0x10000C3B4, symSize: 0x20 }
  - { offset: 0x1B6ED, size: 0x8, addend: 0x0, symName: __RNvXso_NtNtCs85QQFkKrybG_4core3str7patternINtB5_21CharPredicateSearcherNvMNtNtB9_4char7methodsc13is_whitespaceENtB5_8Searcher11next_rejectCsk7Xz0eKShPU_18build_script_build, symObjAddr: 0x194C, symBinAddr: 0x10000C3D4, symSize: 0x24 }
  - { offset: 0x1B72A, size: 0x8, addend: 0x0, symName: __RNvXst_NtNtCs85QQFkKrybG_4core3str7patternReNtB5_7Pattern13into_searcherCsk7Xz0eKShPU_18build_script_build, symObjAddr: 0x1970, symBinAddr: 0x10000C3F8, symSize: 0x4C }
  - { offset: 0x1B791, size: 0x8, addend: 0x0, symName: __RNvXst_NtNtCs85QQFkKrybG_4core3str7patternReNtB5_7Pattern15is_contained_inCsk7Xz0eKShPU_18build_script_build, symObjAddr: 0x19BC, symBinAddr: 0x10000C444, symSize: 0x210 }
  - { offset: 0x1BA7B, size: 0x8, addend: 0x0, symName: __RNvXst_NtNtCs85QQFkKrybG_4core3str7patternReNtB5_7Pattern15strip_suffix_ofCsk7Xz0eKShPU_18build_script_build, symObjAddr: 0x1BCC, symBinAddr: 0x10000C654, symSize: 0xE8 }
  - { offset: 0x1BC90, size: 0x8, addend: 0x0, symName: __RNvXsv_NtNtCs85QQFkKrybG_4core3str7patternNtB5_11StrSearcherNtB5_8Searcher10next_matchCsk7Xz0eKShPU_18build_script_build, symObjAddr: 0x1CB4, symBinAddr: 0x10000C73C, symSize: 0x148 }
  - { offset: 0x1BD1C, size: 0x8, addend: 0x0, symName: __RNvXsv_NtNtCs85QQFkKrybG_4core3str7patternNtB5_11StrSearcherNtB5_8Searcher4nextCsk7Xz0eKShPU_18build_script_build, symObjAddr: 0x1DFC, symBinAddr: 0x10000C884, symSize: 0x454 }
  - { offset: 0x1C029, size: 0x8, addend: 0x0, symName: __RNvXsv_NtNtCs85QQFkKrybG_4core3str7patternNtB5_11StrSearcherNtB5_8Searcher8haystackCsk7Xz0eKShPU_18build_script_build, symObjAddr: 0x2250, symBinAddr: 0x10000CCD8, symSize: 0x20 }
  - { offset: 0x1C05D, size: 0x8, addend: 0x0, symName: __RNvXsy_NtNtCs85QQFkKrybG_4core3str7patternNtB5_9MatchOnlyNtB5_14TwoWayStrategy16use_early_rejectCsk7Xz0eKShPU_18build_script_build, symObjAddr: 0x2270, symBinAddr: 0x10000CCF8, symSize: 0xC }
  - { offset: 0x1C07B, size: 0x8, addend: 0x0, symName: __RNvXsy_NtNtCs85QQFkKrybG_4core3str7patternNtB5_9MatchOnlyNtB5_14TwoWayStrategy8matchingCsk7Xz0eKShPU_18build_script_build, symObjAddr: 0x227C, symBinAddr: 0x10000CD04, symSize: 0x28 }
  - { offset: 0x1C0B8, size: 0x8, addend: 0x0, symName: __RNvXsy_NtNtCs85QQFkKrybG_4core3str7patternNtB5_9MatchOnlyNtB5_14TwoWayStrategy9rejectingCsk7Xz0eKShPU_18build_script_build, symObjAddr: 0x22A4, symBinAddr: 0x10000CD2C, symSize: 0x18 }
  - { offset: 0x1C0FB, size: 0x8, addend: 0x0, symName: __RNvXsz_NtNtCs85QQFkKrybG_4core3str7patternNtB5_14RejectAndMatchNtB5_14TwoWayStrategy16use_early_rejectCsk7Xz0eKShPU_18build_script_build, symObjAddr: 0x22BC, symBinAddr: 0x10000CD44, symSize: 0xC }
  - { offset: 0x1C119, size: 0x8, addend: 0x0, symName: __RNvXsz_NtNtCs85QQFkKrybG_4core3str7patternNtB5_14RejectAndMatchNtB5_14TwoWayStrategy8matchingCsk7Xz0eKShPU_18build_script_build, symObjAddr: 0x22C8, symBinAddr: 0x10000CD50, symSize: 0x20 }
  - { offset: 0x1C156, size: 0x8, addend: 0x0, symName: __RNvXsz_NtNtCs85QQFkKrybG_4core3str7patternNtB5_14RejectAndMatchNtB5_14TwoWayStrategy9rejectingCsk7Xz0eKShPU_18build_script_build, symObjAddr: 0x22E8, symBinAddr: 0x10000CD70, symSize: 0x28 }
  - { offset: 0x1C199, size: 0x8, addend: 0x0, symName: __RNvYINtNtNtCs85QQFkKrybG_4core3str7pattern19MultiCharEqSearcherNCNvCsk7Xz0eKShPU_18build_script_build13rustc_version0ENtB5_8Searcher10next_matchB13_, symObjAddr: 0x2310, symBinAddr: 0x10000CD98, symSize: 0x90 }
  - { offset: 0x1C1FA, size: 0x8, addend: 0x0, symName: __RNvYINtNtNtCs85QQFkKrybG_4core3str7pattern19MultiCharEqSearcherNtB7_12IsWhitespaceENtB5_8Searcher10next_matchCsk7Xz0eKShPU_18build_script_build, symObjAddr: 0x23A0, symBinAddr: 0x10000CE28, symSize: 0x90 }
  - { offset: 0x1C25B, size: 0x8, addend: 0x0, symName: __RNvYINtNtNtCs85QQFkKrybG_4core3str7pattern19MultiCharEqSearcherNvMNtNtB9_4char7methodsc13is_whitespaceENtB5_8Searcher11next_rejectCsk7Xz0eKShPU_18build_script_build, symObjAddr: 0x2430, symBinAddr: 0x10000CEB8, symSize: 0x90 }
  - { offset: 0x1C2C0, size: 0x8, addend: 0x0, symName: __RNvYNtNtNtCs85QQFkKrybG_4core3str7pattern12CharSearcherNtB4_8Searcher11next_rejectCsk7Xz0eKShPU_18build_script_build, symObjAddr: 0x2550, symBinAddr: 0x10000CFD8, symSize: 0x90 }
  - { offset: 0x1C32B, size: 0x8, addend: 0x0, symName: __RNvYNtNtNtCs85QQFkKrybG_4core3str7pattern12CharSearcherNtB4_15ReverseSearcher16next_reject_backCsk7Xz0eKShPU_18build_script_build, symObjAddr: 0x24C0, symBinAddr: 0x10000CF48, symSize: 0x90 }
  - { offset: 0x1CFD6, size: 0x8, addend: 0x0, symName: __RINvMsx_NtNtCs85QQFkKrybG_4core3str7patternNtB6_14TwoWaySearcher4nextNtB6_14RejectAndMatchECsk7Xz0eKShPU_18build_script_build, symObjAddr: 0x0, symBinAddr: 0x10000AA88, symSize: 0x540 }
  - { offset: 0x1D376, size: 0x8, addend: 0x0, symName: __RINvMsx_NtNtCs85QQFkKrybG_4core3str7patternNtB6_14TwoWaySearcher4nextNtB6_9MatchOnlyECsk7Xz0eKShPU_18build_script_build, symObjAddr: 0x540, symBinAddr: 0x10000AFC8, symSize: 0x540 }
  - { offset: 0x1DA80, size: 0x8, addend: 0x0, symName: __RINvMNtCs85QQFkKrybG_4core6optionINtB3_6OptionReE11map_or_elseNtNtCsdFlNUEO95cG_5alloc6string6StringNCNvNtB12_3fmt6format0NvYeNtNtB12_6borrow7ToOwned8to_ownedECsk7Xz0eKShPU_18build_script_build, symObjAddr: 0x0, symBinAddr: 0x10000D068, symSize: 0xCC }
  - { offset: 0x1DE28, size: 0x8, addend: 0x0, symName: __RNvYNtNtNtNtCswz7ZwgBZOU_3std3sys5stdio4unix6StderrNtNtBa_2io5Write9write_allCsk7Xz0eKShPU_18build_script_build, symObjAddr: 0x26F8, symBinAddr: 0x10000F744, symSize: 0x268 }
  - { offset: 0x1DFD0, size: 0x8, addend: 0x0, symName: __RNvYNtNtNtNtCswz7ZwgBZOU_3std3sys5stdio4unix6StderrNtNtBa_2io5Write9write_fmtCsk7Xz0eKShPU_18build_script_build, symObjAddr: 0x2960, symBinAddr: 0x10000F9AC, symSize: 0x154 }
  - { offset: 0x1E0B0, size: 0x8, addend: 0x0, symName: __RNvXs3_NtNtCswz7ZwgBZOU_3std3ffi6os_strNtB5_8OsStringINtNtNtCs85QQFkKrybG_4core3ops5index5IndexNtNtBU_5range9RangeFullE5indexCsk7Xz0eKShPU_18build_script_build, symObjAddr: 0x1D84, symBinAddr: 0x10000EDD0, symSize: 0x80 }
  - { offset: 0x1E1F8, size: 0x8, addend: 0x0, symName: __RNvXsV_NtNtCswz7ZwgBZOU_3std3ffi6os_strNtB5_8OsStringINtNtCs85QQFkKrybG_4core7convert5AsRefNtB5_5OsStrE6as_refCsk7Xz0eKShPU_18build_script_build, symObjAddr: 0x2334, symBinAddr: 0x10000F380, symSize: 0x2C }
  - { offset: 0x1E24A, size: 0x8, addend: 0x0, symName: __RNvXsW_NtNtCswz7ZwgBZOU_3std3ffi6os_streINtNtCs85QQFkKrybG_4core7convert5AsRefNtB5_5OsStrE6as_refCsk7Xz0eKShPU_18build_script_build, symObjAddr: 0x2360, symBinAddr: 0x10000F3AC, symSize: 0x18 }
  - { offset: 0x1F150, size: 0x8, addend: 0x0, symName: __RNCNvMsp_NtNtCs85QQFkKrybG_4core3str4iterINtB7_20MatchIndicesInternalcE4next0Csk7Xz0eKShPU_18build_script_build, symObjAddr: 0x538, symBinAddr: 0x10000D588, symSize: 0xA8 }
  - { offset: 0x1F4C0, size: 0x8, addend: 0x0, symName: __RNvXs3_NtNtCs85QQFkKrybG_4core3str4iterNtB5_11CharIndicesNtNtNtNtB9_4iter6traits8iterator8Iterator4nextCsk7Xz0eKShPU_18build_script_build, symObjAddr: 0x1B1C, symBinAddr: 0x10000EB68, symSize: 0x130 }
  - { offset: 0x1F654, size: 0x8, addend: 0x0, symName: __RNvXsH_NtNtCs85QQFkKrybG_4core3str4iterINtB5_14SplitInclusivecENtNtNtNtB9_4iter6traits8iterator8Iterator4nextCsk7Xz0eKShPU_18build_script_build, symObjAddr: 0x21DC, symBinAddr: 0x10000F228, symSize: 0x24 }
  - { offset: 0x1F691, size: 0x8, addend: 0x0, symName: __RNvXsX_NtNtCs85QQFkKrybG_4core3str4iterINtB5_5SplitNCNvCsk7Xz0eKShPU_18build_script_build13rustc_version0ENtNtNtNtB9_4iter6traits8iterator8Iterator4nextBR_, symObjAddr: 0x2378, symBinAddr: 0x10000F3C4, symSize: 0x24 }
  - { offset: 0x1F6C8, size: 0x8, addend: 0x0, symName: __RNvXsX_NtNtCs85QQFkKrybG_4core3str4iterINtB5_5SplitNtB7_12IsWhitespaceENtNtNtNtB9_4iter6traits8iterator8Iterator4nextCsk7Xz0eKShPU_18build_script_build, symObjAddr: 0x239C, symBinAddr: 0x10000F3E8, symSize: 0x24 }
  - { offset: 0x1F6FF, size: 0x8, addend: 0x0, symName: __RNvXsX_NtNtCs85QQFkKrybG_4core3str4iterINtB5_5SplitReENtNtNtNtB9_4iter6traits8iterator8Iterator4nextCsk7Xz0eKShPU_18build_script_build, symObjAddr: 0x23C0, symBinAddr: 0x10000F40C, symSize: 0x24 }
  - { offset: 0x1F736, size: 0x8, addend: 0x0, symName: __RNvXsX_NtNtCs85QQFkKrybG_4core3str4iterINtB5_5SplitcENtNtNtNtB9_4iter6traits8iterator8Iterator4nextCsk7Xz0eKShPU_18build_script_build, symObjAddr: 0x23E4, symBinAddr: 0x10000F430, symSize: 0x24 }
  - { offset: 0x1F773, size: 0x8, addend: 0x0, symName: __RNvXss_NtNtCs85QQFkKrybG_4core3str4iterNtB5_5LinesNtNtNtNtB9_4iter6traits8iterator8Iterator4nextCsk7Xz0eKShPU_18build_script_build, symObjAddr: 0x25AC, symBinAddr: 0x10000F5F8, symSize: 0x24 }
  - { offset: 0x1F7A1, size: 0x8, addend: 0x0, symName: __RNvXss_NtNtCs85QQFkKrybG_4core3str4iterNtB5_5LinesNtNtNtNtB9_4iter6traits8iterator8Iterator9size_hintCsk7Xz0eKShPU_18build_script_build, symObjAddr: 0x25D0, symBinAddr: 0x10000F61C, symSize: 0x34 }
  - { offset: 0x1F81D, size: 0x8, addend: 0x0, symName: __RNvXsz_NtNtCs85QQFkKrybG_4core3str4iterNtB5_15SplitWhitespaceNtNtNtNtB9_4iter6traits8iterator8Iterator4nextCsk7Xz0eKShPU_18build_script_build, symObjAddr: 0x2604, symBinAddr: 0x10000F650, symSize: 0x30 }
  - { offset: 0x203DD, size: 0x8, addend: 0x0, symName: __RNvXsI_NtCs85QQFkKrybG_4core6optionINtB5_6OptionReENtNtB7_3fmt5Debug3fmtCsk7Xz0eKShPU_18build_script_build, symObjAddr: 0x2200, symBinAddr: 0x10000F24C, symSize: 0x9C }
  - { offset: 0x20441, size: 0x8, addend: 0x0, symName: __RNvXsI_NtCs85QQFkKrybG_4core6optionINtB5_6OptionhENtNtB7_3fmt5Debug3fmtCsk7Xz0eKShPU_18build_script_build, symObjAddr: 0x229C, symBinAddr: 0x10000F2E8, symSize: 0x98 }
  - { offset: 0x204AB, size: 0x8, addend: 0x0, symName: __RNvXsd_NtCs85QQFkKrybG_4core6optionINtB5_6OptionReENtNtB7_3cmp9PartialEq2eqCsk7Xz0eKShPU_18build_script_build, symObjAddr: 0x2468, symBinAddr: 0x10000F4B4, symSize: 0xAC }
  - { offset: 0x209C8, size: 0x8, addend: 0x0, symName: __RNvXs19_NtCs85QQFkKrybG_4core3fmtRINtNtB8_6option6OptionReENtB6_5Debug3fmtCsk7Xz0eKShPU_18build_script_build, symObjAddr: 0x1ABC, symBinAddr: 0x10000EB08, symSize: 0x30 }
  - { offset: 0x20A0E, size: 0x8, addend: 0x0, symName: __RNvXs19_NtCs85QQFkKrybG_4core3fmtRINtNtB8_6option6OptionhENtB6_5Debug3fmtCsk7Xz0eKShPU_18build_script_build, symObjAddr: 0x1AEC, symBinAddr: 0x10000EB38, symSize: 0x30 }
  - { offset: 0x21067, size: 0x8, addend: 0x0, symName: __RNvXNtNtCs85QQFkKrybG_4core3ops12control_flowINtB2_11ControlFlowNtCsk7Xz0eKShPU_18build_script_build10VersionCfgENtNtB4_9try_trait3Try11from_outputB12_, symObjAddr: 0x1938, symBinAddr: 0x10000E984, symSize: 0x18 }
  - { offset: 0x210A5, size: 0x8, addend: 0x0, symName: __RNvXNtNtCs85QQFkKrybG_4core3ops12control_flowINtB2_11ControlFlowNtCsk7Xz0eKShPU_18build_script_build10VersionCfgENtNtB4_9try_trait3Try6branchB12_, symObjAddr: 0x1950, symBinAddr: 0x10000E99C, symSize: 0x8C }
  - { offset: 0x2111E, size: 0x8, addend: 0x0, symName: __RNvXNtNtCs85QQFkKrybG_4core3ops12control_flowINtB2_11ControlFlowReENtNtB4_9try_trait3Try11from_outputCsk7Xz0eKShPU_18build_script_build, symObjAddr: 0x19DC, symBinAddr: 0x10000EA28, symSize: 0x10 }
  - { offset: 0x2115C, size: 0x8, addend: 0x0, symName: __RNvXNtNtCs85QQFkKrybG_4core3ops12control_flowINtB2_11ControlFlowReENtNtB4_9try_trait3Try6branchCsk7Xz0eKShPU_18build_script_build, symObjAddr: 0x19EC, symBinAddr: 0x10000EA38, symSize: 0x54 }
  - { offset: 0x211DA, size: 0x8, addend: 0x0, symName: __RNvXs_NtNtCs85QQFkKrybG_4core3ops12control_flowINtB4_11ControlFlowNtCsk7Xz0eKShPU_18build_script_build10VersionCfgEINtNtB6_9try_trait12FromResidualIBK_B12_NtNtB8_7convert10InfallibleEE13from_residualB14_, symObjAddr: 0x2408, symBinAddr: 0x10000F454, symSize: 0x48 }
  - { offset: 0x21219, size: 0x8, addend: 0x0, symName: __RNvXs_NtNtCs85QQFkKrybG_4core3ops12control_flowINtB4_11ControlFlowReEINtNtB6_9try_trait12FromResidualIBK_B12_NtNtB8_7convert10InfallibleEE13from_residualCsk7Xz0eKShPU_18build_script_build, symObjAddr: 0x2450, symBinAddr: 0x10000F49C, symSize: 0x18 }
  - { offset: 0x214AF, size: 0x8, addend: 0x0, symName: __RINvYINtNtNtCs85QQFkKrybG_4core3str4iter5SplitNtB8_12IsWhitespaceENtNtNtNtBa_4iter6traits8iterator8Iterator4findQNtB8_10IsNotEmptyECsk7Xz0eKShPU_18build_script_build, symObjAddr: 0xE4, symBinAddr: 0x10000D134, symSize: 0x8C }
  - { offset: 0x2152E, size: 0x8, addend: 0x0, symName: __RINvYINtNtNtCs85QQFkKrybG_4core3str4iter5SplitNtB8_12IsWhitespaceENtNtNtNtBa_4iter6traits8iterator8Iterator8try_folduNCINvNvB12_4find5checkReQNtB8_10IsNotEmptyE0INtNtNtBa_3ops12control_flow11ControlFlowB2d_EECsk7Xz0eKShPU_18build_script_build, symObjAddr: 0x170, symBinAddr: 0x10000D1C0, symSize: 0x190 }
  - { offset: 0x215E4, size: 0x8, addend: 0x0, symName: __RINvYNtNtNtCs85QQFkKrybG_4core3str4iter5LinesNtNtNtNtB9_4iter6traits8iterator8Iterator10filter_mapNtCsk7Xz0eKShPU_18build_script_build10VersionCfgNCNvB1A_34parse_version_cfgs_from_cargo_toml0EB1A_, symObjAddr: 0x300, symBinAddr: 0x10000D350, symSize: 0x30 }
  - { offset: 0x21652, size: 0x8, addend: 0x0, symName: __RINvYNtNtNtCs85QQFkKrybG_4core3str4iter5LinesNtNtNtNtB9_4iter6traits8iterator8Iterator8find_mapNtCsk7Xz0eKShPU_18build_script_build10VersionCfgQNCNvB1x_34parse_version_cfgs_from_cargo_toml0EB1x_, symObjAddr: 0x330, symBinAddr: 0x10000D380, symSize: 0xB0 }
  - { offset: 0x216DA, size: 0x8, addend: 0x0, symName: __RINvYNtNtNtCs85QQFkKrybG_4core3str4iter5LinesNtNtNtNtB9_4iter6traits8iterator8Iterator8try_folduNCINvNvBH_8find_map5checkReNtCsk7Xz0eKShPU_18build_script_build10VersionCfgQNCNvB1Z_34parse_version_cfgs_from_cargo_toml0E0INtNtNtB9_3ops12control_flow11ControlFlowB1X_EEB1Z_, symObjAddr: 0x3E0, symBinAddr: 0x10000D430, symSize: 0x158 }
  - { offset: 0x21825, size: 0x8, addend: 0x0, symName: __RNvYINtNtNtCsdFlNUEO95cG_5alloc3vec9into_iter8IntoIterNtCsk7Xz0eKShPU_18build_script_build10VersionCfgENtNtNtNtCs85QQFkKrybG_4core4iter6traits10exact_size17ExactSizeIterator3lenBS_, symObjAddr: 0x2634, symBinAddr: 0x10000F680, symSize: 0xC4 }
  - { offset: 0x21B5E, size: 0x8, addend: 0x0, symName: __RNvNvNtNtCs85QQFkKrybG_4core5slice3raw14from_raw_parts18precondition_checkCsk7Xz0eKShPU_18build_script_build, symObjAddr: 0x1588, symBinAddr: 0x10000E5D4, symSize: 0x1D8 }
  - { offset: 0x21CFC, size: 0x8, addend: 0x0, symName: __RNvNvNtNtCs85QQFkKrybG_4core5slice3raw18from_raw_parts_mut18precondition_checkCsk7Xz0eKShPU_18build_script_build, symObjAddr: 0x1760, symBinAddr: 0x10000E7AC, symSize: 0x1D8 }
  - { offset: 0x21F16, size: 0x8, addend: 0x0, symName: __RNvNvNtCs85QQFkKrybG_4core9ub_checks23maybe_is_nonoverlapping7runtimeCsk7Xz0eKShPU_18build_script_build, symObjAddr: 0x14B0, symBinAddr: 0x10000E4FC, symSize: 0xD8 }
  - { offset: 0x2258D, size: 0x8, addend: 0x0, symName: __RNvYjNtNtCs85QQFkKrybG_4core3cmp3Ord3maxCsk7Xz0eKShPU_18build_script_build, symObjAddr: 0x2AB4, symBinAddr: 0x10000FB00, symSize: 0x80 }
  - { offset: 0x22789, size: 0x8, addend: 0x0, symName: __RNvXNvXsd_NtNtCsdFlNUEO95cG_5alloc3vec9into_iterINtB8_8IntoIterppENtNtNtCs85QQFkKrybG_4core3ops4drop4Drop4dropINtB2_9DropGuardNtCsk7Xz0eKShPU_18build_script_build10VersionCfgNtNtBc_5alloc6GlobalEB12_4dropB22_, symObjAddr: 0x1A40, symBinAddr: 0x10000EA8C, symSize: 0x7C }
  - { offset: 0x228C7, size: 0x8, addend: 0x0, symName: __RNvXsd_NtNtCsdFlNUEO95cG_5alloc3vec9into_iterINtB5_8IntoIterNtCsk7Xz0eKShPU_18build_script_build10VersionCfgENtNtNtCs85QQFkKrybG_4core3ops4drop4Drop4dropBY_, symObjAddr: 0x2514, symBinAddr: 0x10000F560, symSize: 0x98 }
  - { offset: 0x22967, size: 0x8, addend: 0x0, symName: __RNvXs3_NtNtCsdFlNUEO95cG_5alloc3vec9into_iterINtB5_8IntoIterNtCsk7Xz0eKShPU_18build_script_build10VersionCfgENtNtNtNtCs85QQFkKrybG_4core4iter6traits8iterator8Iterator4nextBY_, symObjAddr: 0x1C4C, symBinAddr: 0x10000EC98, symSize: 0xDC }
  - { offset: 0x22AD9, size: 0x8, addend: 0x0, symName: __RNvXs3_NtNtCsdFlNUEO95cG_5alloc3vec9into_iterINtB5_8IntoIterNtCsk7Xz0eKShPU_18build_script_build10VersionCfgENtNtNtNtCs85QQFkKrybG_4core4iter6traits8iterator8Iterator9size_hintBY_, symObjAddr: 0x1D28, symBinAddr: 0x10000ED74, symSize: 0x5C }
  - { offset: 0x22D69, size: 0x8, addend: 0x0, symName: __RNvXs6_NtCsdFlNUEO95cG_5alloc5boxedINtB5_3BoxDINtNtNtCs85QQFkKrybG_4core3ops8function5FnMutuEp6OutputINtNtBP_6result6ResultuNtNtNtCswz7ZwgBZOU_3std2io5error5ErrorENtNtBP_6marker4SyncNtB2D_4SendEL_ENtNtBN_4drop4Drop4dropCsk7Xz0eKShPU_18build_script_build, symObjAddr: 0x1E04, symBinAddr: 0x10000EE50, symSize: 0xCC }
  - { offset: 0x22EA4, size: 0x8, addend: 0x0, symName: __RNvXs6_NtCsdFlNUEO95cG_5alloc5boxedINtB5_3BoxDNtNtCs85QQFkKrybG_4core5error5ErrorNtNtBM_6marker4SyncNtB1j_4SendEL_ENtNtNtBM_3ops4drop4Drop4dropCsk7Xz0eKShPU_18build_script_build, symObjAddr: 0x1ED0, symBinAddr: 0x10000EF1C, symSize: 0xCC }
  - { offset: 0x22FDF, size: 0x8, addend: 0x0, symName: __RNvXs6_NtCsdFlNUEO95cG_5alloc5boxedINtB5_3BoxNtNtNtCswz7ZwgBZOU_3std2io5error6CustomENtNtNtCs85QQFkKrybG_4core3ops4drop4Drop4dropCsk7Xz0eKShPU_18build_script_build, symObjAddr: 0x1F9C, symBinAddr: 0x10000EFE8, symSize: 0xB8 }
  - { offset: 0x2311A, size: 0x8, addend: 0x0, symName: __RNvXs6_NtCsdFlNUEO95cG_5alloc5boxedINtB5_3BoxShENtNtNtCs85QQFkKrybG_4core3ops4drop4Drop4dropCsk7Xz0eKShPU_18build_script_build, symObjAddr: 0x2054, symBinAddr: 0x10000F0A0, symSize: 0xC4 }
  - { offset: 0x23255, size: 0x8, addend: 0x0, symName: __RNvXs6_NtCsdFlNUEO95cG_5alloc5boxedINtB5_3BoxSmENtNtNtCs85QQFkKrybG_4core3ops4drop4Drop4dropCsk7Xz0eKShPU_18build_script_build, symObjAddr: 0x2118, symBinAddr: 0x10000F164, symSize: 0xC4 }
  - { offset: 0x234C7, size: 0x8, addend: 0x0, symName: __RINvMNtCs85QQFkKrybG_4core6optionINtB3_6OptionReE11map_or_elseNtNtCsdFlNUEO95cG_5alloc6string6StringNCNvNtB12_3fmt6format0NvYeNtNtB12_6borrow7ToOwned8to_ownedECsk7Xz0eKShPU_18build_script_build, symObjAddr: 0x0, symBinAddr: 0x10000D068, symSize: 0xCC }
  - { offset: 0x23699, size: 0x8, addend: 0x0, symName: __RNvMNtCs85QQFkKrybG_4core6optionINtB2_6OptionNtNtNtCswz7ZwgBZOU_3std3ffi6os_str8OsStringE6expectCsk7Xz0eKShPU_18build_script_build, symObjAddr: 0x5E0, symBinAddr: 0x10000D630, symSize: 0x74 }
  - { offset: 0x236D5, size: 0x8, addend: 0x0, symName: __RNvMNtCs85QQFkKrybG_4core6optionINtB2_6OptionReE6expectCsk7Xz0eKShPU_18build_script_build, symObjAddr: 0x654, symBinAddr: 0x10000D6A4, symSize: 0x68 }
  - { offset: 0x23710, size: 0x8, addend: 0x0, symName: __RNvMNtCs85QQFkKrybG_4core6resultINtB2_6ResultNtNtCsdFlNUEO95cG_5alloc6string6StringNtNtNtCswz7ZwgBZOU_3std2io5error5ErrorE6expectCsk7Xz0eKShPU_18build_script_build, symObjAddr: 0x6BC, symBinAddr: 0x10000D70C, symSize: 0xC0 }
  - { offset: 0x23773, size: 0x8, addend: 0x0, symName: __RNvMNtCs85QQFkKrybG_4core6resultINtB2_6ResultNtNtCswz7ZwgBZOU_3std7process6OutputNtNtNtBL_2io5error5ErrorE6expectCsk7Xz0eKShPU_18build_script_build, symObjAddr: 0x77C, symBinAddr: 0x10000D7CC, symSize: 0xBC }
  - { offset: 0x237D6, size: 0x8, addend: 0x0, symName: __RNvMNtCs85QQFkKrybG_4core6resultINtB2_6ResultReNtNtNtB4_3str5error9Utf8ErrorE6expectCsk7Xz0eKShPU_18build_script_build, symObjAddr: 0x838, symBinAddr: 0x10000D888, symSize: 0x98 }
  - { offset: 0x23839, size: 0x8, addend: 0x0, symName: __RNvMNtCs85QQFkKrybG_4core6resultINtB2_6ResulthNtNtNtB4_3num5error15TryFromIntErrorE6expectCsk7Xz0eKShPU_18build_script_build, symObjAddr: 0x8D0, symBinAddr: 0x10000D920, symSize: 0x84 }
  - { offset: 0x2389B, size: 0x8, addend: 0x0, symName: __RNvMNtCs85QQFkKrybG_4core6resultINtB2_6ResultjNtNtNtB4_3num5error13ParseIntErrorE6expectCsk7Xz0eKShPU_18build_script_build, symObjAddr: 0x954, symBinAddr: 0x10000D9A4, symSize: 0x90 }
  - { offset: 0x2390B, size: 0x8, addend: 0x0, symName: __RNvMsf_NtNtCs85QQFkKrybG_4core3str4iterINtB5_13SplitInternalNCNvCsk7Xz0eKShPU_18build_script_build13rustc_version0E4nextB10_, symObjAddr: 0x9E4, symBinAddr: 0x10000DA34, symSize: 0x140 }
  - { offset: 0x23A4F, size: 0x8, addend: 0x0, symName: __RNvMsf_NtNtCs85QQFkKrybG_4core3str4iterINtB5_13SplitInternalNCNvCsk7Xz0eKShPU_18build_script_build13rustc_version0E7get_endB10_, symObjAddr: 0xB24, symBinAddr: 0x10000DB74, symSize: 0x128 }
  - { offset: 0x23B62, size: 0x8, addend: 0x0, symName: __RNvMsf_NtNtCs85QQFkKrybG_4core3str4iterINtB5_13SplitInternalNtB7_12IsWhitespaceE4nextCsk7Xz0eKShPU_18build_script_build, symObjAddr: 0xC4C, symBinAddr: 0x10000DC9C, symSize: 0x140 }
  - { offset: 0x23CA6, size: 0x8, addend: 0x0, symName: __RNvMsf_NtNtCs85QQFkKrybG_4core3str4iterINtB5_13SplitInternalNtB7_12IsWhitespaceE7get_endCsk7Xz0eKShPU_18build_script_build, symObjAddr: 0xD8C, symBinAddr: 0x10000DDDC, symSize: 0x128 }
  - { offset: 0x23DB9, size: 0x8, addend: 0x0, symName: __RNvMsf_NtNtCs85QQFkKrybG_4core3str4iterINtB5_13SplitInternalReE4nextCsk7Xz0eKShPU_18build_script_build, symObjAddr: 0xEB4, symBinAddr: 0x10000DF04, symSize: 0x13C }
  - { offset: 0x23EFD, size: 0x8, addend: 0x0, symName: __RNvMsf_NtNtCs85QQFkKrybG_4core3str4iterINtB5_13SplitInternalReE7get_endCsk7Xz0eKShPU_18build_script_build, symObjAddr: 0xFF0, symBinAddr: 0x10000E040, symSize: 0x124 }
  - { offset: 0x24010, size: 0x8, addend: 0x0, symName: __RNvMsf_NtNtCs85QQFkKrybG_4core3str4iterINtB5_13SplitInternalcE14next_inclusiveCsk7Xz0eKShPU_18build_script_build, symObjAddr: 0x1114, symBinAddr: 0x10000E164, symSize: 0x130 }
  - { offset: 0x24143, size: 0x8, addend: 0x0, symName: __RNvMsf_NtNtCs85QQFkKrybG_4core3str4iterINtB5_13SplitInternalcE4nextCsk7Xz0eKShPU_18build_script_build, symObjAddr: 0x1244, symBinAddr: 0x10000E294, symSize: 0x140 }
  - { offset: 0x24287, size: 0x8, addend: 0x0, symName: __RNvMsf_NtNtCs85QQFkKrybG_4core3str4iterINtB5_13SplitInternalcE7get_endCsk7Xz0eKShPU_18build_script_build, symObjAddr: 0x1384, symBinAddr: 0x10000E3D4, symSize: 0x128 }
  - { offset: 0x24E2D, size: 0x8, addend: 0x0, symName: ___llvm_profile_get_magic, symObjAddr: 0x28, symBinAddr: 0x10000FBA0, symSize: 0x14 }
  - { offset: 0x24E4E, size: 0x8, addend: 0x0, symName: ___llvm_profile_get_num_padding_bytes, symObjAddr: 0x44, symBinAddr: 0x10000FBB4, symSize: 0xC }
  - { offset: 0x24E56, size: 0x8, addend: 0x0, symName: ___llvm_profile_get_version, symObjAddr: 0x50, symBinAddr: 0x10000FBC0, symSize: 0xC }
  - { offset: 0x24E7F, size: 0x8, addend: 0x0, symName: ___llvm_profile_get_version, symObjAddr: 0x50, symBinAddr: 0x10000FBC0, symSize: 0xC }
  - { offset: 0x24EF4, size: 0x8, addend: 0x0, symName: ___llvm_profile_is_continuous_mode_enabled, symObjAddr: 0x0, symBinAddr: 0x10000FBCC, symSize: 0x20 }
  - { offset: 0x24F11, size: 0x8, addend: 0x0, symName: __MergedGlobals, symObjAddr: 0x3F10, symBinAddr: 0x100071120, symSize: 0x0 }
  - { offset: 0x24F33, size: 0x8, addend: 0x0, symName: __MergedGlobals, symObjAddr: 0x3F10, symBinAddr: 0x100071120, symSize: 0x0 }
  - { offset: 0x24F63, size: 0x8, addend: 0x0, symName: ___llvm_profile_is_continuous_mode_enabled, symObjAddr: 0x0, symBinAddr: 0x10000FBCC, symSize: 0x20 }
  - { offset: 0x24F6B, size: 0x8, addend: 0x0, symName: ___llvm_profile_enable_continuous_mode, symObjAddr: 0x20, symBinAddr: 0x10000FBEC, symSize: 0x10 }
  - { offset: 0x24F7B, size: 0x8, addend: 0x0, symName: ___llvm_profile_enable_continuous_mode, symObjAddr: 0x20, symBinAddr: 0x10000FBEC, symSize: 0x10 }
  - { offset: 0x24F83, size: 0x8, addend: 0x0, symName: ___llvm_profile_disable_continuous_mode, symObjAddr: 0x30, symBinAddr: 0x10000FBFC, symSize: 0xC }
  - { offset: 0x24F98, size: 0x8, addend: 0x0, symName: ___llvm_profile_disable_continuous_mode, symObjAddr: 0x30, symBinAddr: 0x10000FBFC, symSize: 0xC }
  - { offset: 0x24FA0, size: 0x8, addend: 0x0, symName: ___llvm_profile_set_page_size, symObjAddr: 0x3C, symBinAddr: 0x10000FC08, symSize: 0xC }
  - { offset: 0x24FB5, size: 0x8, addend: 0x0, symName: ___llvm_profile_set_page_size, symObjAddr: 0x3C, symBinAddr: 0x10000FC08, symSize: 0xC }
  - { offset: 0x24FBD, size: 0x8, addend: 0x0, symName: ___llvm_profile_get_size_for_buffer, symObjAddr: 0x48, symBinAddr: 0x10000FC14, symSize: 0xC4 }
  - { offset: 0x24FE0, size: 0x8, addend: 0x0, symName: ___llvm_profile_get_size_for_buffer, symObjAddr: 0x48, symBinAddr: 0x10000FC14, symSize: 0xC4 }
  - { offset: 0x24FE8, size: 0x8, addend: 0x0, symName: ___llvm_profile_get_size_for_buffer_internal, symObjAddr: 0x10C, symBinAddr: 0x10000FCD8, symSize: 0x1C0 }
  - { offset: 0x2544B, size: 0x8, addend: 0x0, symName: ___llvm_profile_get_size_for_buffer_internal, symObjAddr: 0x10C, symBinAddr: 0x10000FCD8, symSize: 0x1C0 }
  - { offset: 0x25453, size: 0x8, addend: 0x0, symName: ___llvm_profile_get_num_data, symObjAddr: 0x2CC, symBinAddr: 0x10000FE98, symSize: 0x10 }
  - { offset: 0x25842, size: 0x8, addend: 0x0, symName: ___llvm_profile_get_num_data, symObjAddr: 0x2CC, symBinAddr: 0x10000FE98, symSize: 0x10 }
  - { offset: 0x2584A, size: 0x8, addend: 0x0, symName: ___llvm_profile_get_data_size, symObjAddr: 0x2DC, symBinAddr: 0x10000FEA8, symSize: 0x10 }
  - { offset: 0x2587B, size: 0x8, addend: 0x0, symName: ___llvm_profile_get_data_size, symObjAddr: 0x2DC, symBinAddr: 0x10000FEA8, symSize: 0x10 }
  - { offset: 0x25883, size: 0x8, addend: 0x0, symName: ___llvm_profile_get_num_vtable, symObjAddr: 0x2EC, symBinAddr: 0x10000FEB8, symSize: 0x18 }
  - { offset: 0x258A7, size: 0x8, addend: 0x0, symName: ___llvm_profile_get_data_size, symObjAddr: 0x2DC, symBinAddr: 0x10000FEA8, symSize: 0x10 }
  - { offset: 0x258D9, size: 0x8, addend: 0x0, symName: ___llvm_profile_get_num_vtable, symObjAddr: 0x2EC, symBinAddr: 0x10000FEB8, symSize: 0x18 }
  - { offset: 0x258E1, size: 0x8, addend: 0x0, symName: ___llvm_profile_get_vtable_section_size, symObjAddr: 0x304, symBinAddr: 0x10000FED0, symSize: 0x8 }
  - { offset: 0x25933, size: 0x8, addend: 0x0, symName: ___llvm_profile_get_vtable_section_size, symObjAddr: 0x304, symBinAddr: 0x10000FED0, symSize: 0x8 }
  - { offset: 0x2593B, size: 0x8, addend: 0x0, symName: ___llvm_profile_counter_entry_size, symObjAddr: 0x30C, symBinAddr: 0x10000FED8, symSize: 0x1C }
  - { offset: 0x2595C, size: 0x8, addend: 0x0, symName: ___llvm_profile_counter_entry_size, symObjAddr: 0x30C, symBinAddr: 0x10000FED8, symSize: 0x1C }
  - { offset: 0x25964, size: 0x8, addend: 0x0, symName: ___llvm_profile_get_num_counters, symObjAddr: 0x328, symBinAddr: 0x10000FEF4, symSize: 0x48 }
  - { offset: 0x25974, size: 0x8, addend: 0x0, symName: ___llvm_profile_get_num_counters, symObjAddr: 0x328, symBinAddr: 0x10000FEF4, symSize: 0x48 }
  - { offset: 0x2597C, size: 0x8, addend: 0x0, symName: ___llvm_profile_get_counters_size, symObjAddr: 0x370, symBinAddr: 0x10000FF3C, symSize: 0x5C }
  - { offset: 0x259E1, size: 0x8, addend: 0x0, symName: ___llvm_profile_get_counters_size, symObjAddr: 0x370, symBinAddr: 0x10000FF3C, symSize: 0x5C }
  - { offset: 0x259E9, size: 0x8, addend: 0x0, symName: ___llvm_profile_get_num_bitmap_bytes, symObjAddr: 0x3CC, symBinAddr: 0x10000FF98, symSize: 0x8 }
  - { offset: 0x25A8D, size: 0x8, addend: 0x0, symName: ___llvm_profile_get_num_bitmap_bytes, symObjAddr: 0x3CC, symBinAddr: 0x10000FF98, symSize: 0x8 }
  - { offset: 0x25A95, size: 0x8, addend: 0x0, symName: ___llvm_profile_get_name_size, symObjAddr: 0x3D4, symBinAddr: 0x10000FFA0, symSize: 0x8 }
  - { offset: 0x25AB6, size: 0x8, addend: 0x0, symName: ___llvm_profile_get_name_size, symObjAddr: 0x3D4, symBinAddr: 0x10000FFA0, symSize: 0x8 }
  - { offset: 0x25ABE, size: 0x8, addend: 0x0, symName: ___llvm_profile_get_padding_sizes_for_counters, symObjAddr: 0x3DC, symBinAddr: 0x10000FFA8, symSize: 0x15C }
  - { offset: 0x25ADF, size: 0x8, addend: 0x0, symName: ___llvm_profile_get_padding_sizes_for_counters, symObjAddr: 0x3DC, symBinAddr: 0x10000FFA8, symSize: 0x15C }
  - { offset: 0x25AE7, size: 0x8, addend: 0x0, symName: _initBufferWriter, symObjAddr: 0x538, symBinAddr: 0x100010104, symSize: 0x10 }
  - { offset: 0x25C3B, size: 0x8, addend: 0x0, symName: _initBufferWriter, symObjAddr: 0x538, symBinAddr: 0x100010104, symSize: 0x10 }
  - { offset: 0x25DA5, size: 0x8, addend: 0x0, symName: __MergedGlobals, symObjAddr: 0xA750, symBinAddr: 0x100071130, symSize: 0x0 }
  - { offset: 0x25ED1, size: 0x8, addend: 0x0, symName: __MergedGlobals, symObjAddr: 0xA750, symBinAddr: 0x100071130, symSize: 0x0 }
  - { offset: 0x26102, size: 0x8, addend: 0x0, symName: __MergedGlobals, symObjAddr: 0xA750, symBinAddr: 0x100071130, symSize: 0x0 }
  - { offset: 0x262A7, size: 0x8, addend: 0x0, symName: _getCurFilenameLength, symObjAddr: 0x1C8, symBinAddr: 0x100010114, symSize: 0x104 }
  - { offset: 0x262AF, size: 0x8, addend: 0x0, symName: _getCurFilename, symObjAddr: 0x2CC, symBinAddr: 0x100010218, symSize: 0x31C }
  - { offset: 0x26332, size: 0x8, addend: 0x0, symName: _getCurFilename, symObjAddr: 0x2CC, symBinAddr: 0x100010218, symSize: 0x31C }
  - { offset: 0x265A3, size: 0x8, addend: 0x0, symName: _parseAndSetFilename, symObjAddr: 0x6F0, symBinAddr: 0x100010534, symSize: 0x510 }
  - { offset: 0x265AB, size: 0x8, addend: 0x0, symName: ___llvm_profile_initialize, symObjAddr: 0xC00, symBinAddr: 0x100010A44, symSize: 0xB8 }
  - { offset: 0x2679C, size: 0x8, addend: 0x0, symName: ___llvm_profile_initialize, symObjAddr: 0xC00, symBinAddr: 0x100010A44, symSize: 0xB8 }
  - { offset: 0x26818, size: 0x8, addend: 0x0, symName: ___llvm_profile_write_file, symObjAddr: 0xD34, symBinAddr: 0x100010AFC, symSize: 0x1B4 }
  - { offset: 0x26820, size: 0x8, addend: 0x0, symName: _writeFile, symObjAddr: 0xEE8, symBinAddr: 0x100010CB0, symSize: 0x2E4 }
  - { offset: 0x269FB, size: 0x8, addend: 0x0, symName: _writeFile, symObjAddr: 0xEE8, symBinAddr: 0x100010CB0, symSize: 0x2E4 }
  - { offset: 0x26B96, size: 0x8, addend: 0x0, symName: _writeFileWithoutReturn, symObjAddr: 0x1238, symBinAddr: 0x100010F94, symSize: 0x4 }
  - { offset: 0x26BCD, size: 0x8, addend: 0x0, symName: _getProfileFileSizeForMerging, symObjAddr: 0x148C, symBinAddr: 0x100010F98, symSize: 0x110 }
  - { offset: 0x26BD5, size: 0x8, addend: 0x0, symName: _mmapForContinuousMode, symObjAddr: 0x159C, symBinAddr: 0x1000110A8, symSize: 0x264 }
  - { offset: 0x26C12, size: 0x8, addend: 0x0, symName: _mmapForContinuousMode, symObjAddr: 0x159C, symBinAddr: 0x1000110A8, symSize: 0x264 }
  - { offset: 0x26C1A, size: 0x8, addend: 0x0, symName: _fileWriter, symObjAddr: 0x1800, symBinAddr: 0x10001130C, symSize: 0x140 }
  - { offset: 0x26DD9, size: 0x8, addend: 0x0, symName: _fileWriter, symObjAddr: 0x1800, symBinAddr: 0x10001130C, symSize: 0x140 }
  - { offset: 0x26DE1, size: 0x8, addend: 0x0, symName: _binaryIdsStringWriter, symObjAddr: 0x1940, symBinAddr: 0x10001144C, symSize: 0xD4 }
  - { offset: 0x26EA9, size: 0x8, addend: 0x0, symName: _binaryIdsStringWriter, symObjAddr: 0x1940, symBinAddr: 0x10001144C, symSize: 0xD4 }
  - { offset: 0x26EB1, size: 0x8, addend: 0x0, symName: _truncateCurrentFile, symObjAddr: 0x1A14, symBinAddr: 0x100011520, symSize: 0xD8 }
  - { offset: 0x26F4A, size: 0x8, addend: 0x0, symName: _truncateCurrentFile, symObjAddr: 0x1A14, symBinAddr: 0x100011520, symSize: 0xD8 }
  - { offset: 0x26F52, size: 0x8, addend: 0x0, symName: _initializeProfileForContinuousMode, symObjAddr: 0x1AEC, symBinAddr: 0x1000115F8, symSize: 0x2BC }
  - { offset: 0x26FF0, size: 0x8, addend: 0x0, symName: _initializeProfileForContinuousMode, symObjAddr: 0x1AEC, symBinAddr: 0x1000115F8, symSize: 0x2BC }
  - { offset: 0x26FF8, size: 0x8, addend: 0x0, symName: _createProfileDir, symObjAddr: 0x1DA8, symBinAddr: 0x1000118B4, symSize: 0xA4 }
  - { offset: 0x271E0, size: 0x8, addend: 0x0, symName: _createProfileDir, symObjAddr: 0x1DA8, symBinAddr: 0x1000118B4, symSize: 0xA4 }
  - { offset: 0x271E8, size: 0x8, addend: 0x0, symName: _parseAndSetFilename.cold.1, symObjAddr: 0x1E4C, symBinAddr: 0x10004B540, symSize: 0x24 }
  - { offset: 0x27245, size: 0x8, addend: 0x0, symName: _parseAndSetFilename.cold.1, symObjAddr: 0x1E4C, symBinAddr: 0x10004B540, symSize: 0x24 }
  - { offset: 0x2724D, size: 0x8, addend: 0x0, symName: _parseAndSetFilename.cold.2, symObjAddr: 0x1E70, symBinAddr: 0x10004B564, symSize: 0x24 }
  - { offset: 0x2726F, size: 0x8, addend: 0x0, symName: _parseAndSetFilename.cold.2, symObjAddr: 0x1E70, symBinAddr: 0x10004B564, symSize: 0x24 }
  - { offset: 0x27289, size: 0x8, addend: 0x0, symName: _parseAndSetFilename.cold.2, symObjAddr: 0x1E70, symBinAddr: 0x10004B564, symSize: 0x24 }
  - { offset: 0x27299, size: 0x8, addend: 0x0, symName: _parseAndSetFilename.cold.2, symObjAddr: 0x1E70, symBinAddr: 0x10004B564, symSize: 0x24 }
  - { offset: 0x273F9, size: 0x8, addend: 0x0, symName: _lprofProfileDumped, symObjAddr: 0x0, symBinAddr: 0x100011958, symSize: 0xC }
  - { offset: 0x27416, size: 0x8, addend: 0x0, symName: _ProfileDumped, symObjAddr: 0x4E0, symBinAddr: 0x100071208, symSize: 0x0 }
  - { offset: 0x27426, size: 0x8, addend: 0x0, symName: _lprofProfileDumped, symObjAddr: 0x0, symBinAddr: 0x100011958, symSize: 0xC }
  - { offset: 0x2746E, size: 0x8, addend: 0x0, symName: _lprofGetLoadModuleSignature, symObjAddr: 0x0, symBinAddr: 0x100011964, symSize: 0xD0 }
  - { offset: 0x2749B, size: 0x8, addend: 0x0, symName: _VPMergeHook, symBinAddr: 0x100073440, symSize: 0x0 }
  - { offset: 0x27703, size: 0x8, addend: 0x0, symName: _lprofGetLoadModuleSignature, symObjAddr: 0x0, symBinAddr: 0x100011964, symSize: 0xD0 }
  - { offset: 0x2770B, size: 0x8, addend: 0x0, symName: ___llvm_profile_check_compatibility, symObjAddr: 0xD0, symBinAddr: 0x100011A34, symSize: 0x1CC }
  - { offset: 0x2777B, size: 0x8, addend: 0x0, symName: ___llvm_profile_check_compatibility, symObjAddr: 0xD0, symBinAddr: 0x100011A34, symSize: 0x1CC }
  - { offset: 0x27783, size: 0x8, addend: 0x0, symName: ___llvm_profile_merge_from_buffer, symObjAddr: 0x29C, symBinAddr: 0x100011C00, symSize: 0x3E8 }
  - { offset: 0x2785B, size: 0x8, addend: 0x0, symName: ___llvm_profile_merge_from_buffer, symObjAddr: 0x29C, symBinAddr: 0x100011C00, symSize: 0x3E8 }
  - { offset: 0x27ACD, size: 0x8, addend: 0x0, symName: _lprofMergeValueProfData, symObjAddr: 0x0, symBinAddr: 0x100011FE8, symSize: 0xF0 }
  - { offset: 0x27ADE, size: 0x8, addend: 0x0, symName: _lprofMergeValueProfData, symObjAddr: 0x0, symBinAddr: 0x100011FE8, symSize: 0xF0 }
  - { offset: 0x27DA9, size: 0x8, addend: 0x0, symName: ___llvm_profile_begin_data, symObjAddr: 0x0, symBinAddr: 0x1000120D8, symSize: 0xC }
  - { offset: 0x27DB1, size: 0x8, addend: 0x0, symName: _CurrentVNode, symObjAddr: 0xB0, symBinAddr: 0x100070610, symSize: 0x0 }
  - { offset: 0x27DC8, size: 0x8, addend: 0x0, symName: _CurrentVNode, symObjAddr: 0xB0, symBinAddr: 0x100070610, symSize: 0x0 }
  - { offset: 0x27E44, size: 0x8, addend: 0x0, symName: _EndVNode, symObjAddr: 0xB8, symBinAddr: 0x100070618, symSize: 0x0 }
  - { offset: 0x27E4D, size: 0x8, addend: 0x0, symName: ___llvm_profile_begin_data, symObjAddr: 0x0, symBinAddr: 0x1000120D8, symSize: 0xC }
  - { offset: 0x27E55, size: 0x8, addend: 0x0, symName: ___llvm_profile_end_data, symObjAddr: 0xC, symBinAddr: 0x1000120E4, symSize: 0xC }
  - { offset: 0x27E6E, size: 0x8, addend: 0x0, symName: ___llvm_profile_end_data, symObjAddr: 0xC, symBinAddr: 0x1000120E4, symSize: 0xC }
  - { offset: 0x27E76, size: 0x8, addend: 0x0, symName: ___llvm_profile_begin_names, symObjAddr: 0x18, symBinAddr: 0x1000120F0, symSize: 0xC }
  - { offset: 0x27E8F, size: 0x8, addend: 0x0, symName: ___llvm_profile_begin_names, symObjAddr: 0x18, symBinAddr: 0x1000120F0, symSize: 0xC }
  - { offset: 0x27E97, size: 0x8, addend: 0x0, symName: ___llvm_profile_end_names, symObjAddr: 0x24, symBinAddr: 0x1000120FC, symSize: 0xC }
  - { offset: 0x27EB0, size: 0x8, addend: 0x0, symName: ___llvm_profile_end_names, symObjAddr: 0x24, symBinAddr: 0x1000120FC, symSize: 0xC }
  - { offset: 0x27EB8, size: 0x8, addend: 0x0, symName: ___llvm_profile_begin_counters, symObjAddr: 0x30, symBinAddr: 0x100012108, symSize: 0xC }
  - { offset: 0x27ED1, size: 0x8, addend: 0x0, symName: ___llvm_profile_begin_counters, symObjAddr: 0x30, symBinAddr: 0x100012108, symSize: 0xC }
  - { offset: 0x27ED9, size: 0x8, addend: 0x0, symName: ___llvm_profile_end_counters, symObjAddr: 0x3C, symBinAddr: 0x100012114, symSize: 0xC }
  - { offset: 0x27EF2, size: 0x8, addend: 0x0, symName: ___llvm_profile_end_counters, symObjAddr: 0x3C, symBinAddr: 0x100012114, symSize: 0xC }
  - { offset: 0x27EFA, size: 0x8, addend: 0x0, symName: ___llvm_profile_begin_bitmap, symObjAddr: 0x48, symBinAddr: 0x100012120, symSize: 0xC }
  - { offset: 0x27F13, size: 0x8, addend: 0x0, symName: ___llvm_profile_begin_bitmap, symObjAddr: 0x48, symBinAddr: 0x100012120, symSize: 0xC }
  - { offset: 0x27F1B, size: 0x8, addend: 0x0, symName: ___llvm_profile_end_bitmap, symObjAddr: 0x54, symBinAddr: 0x10001212C, symSize: 0xC }
  - { offset: 0x27F34, size: 0x8, addend: 0x0, symName: ___llvm_profile_end_bitmap, symObjAddr: 0x54, symBinAddr: 0x10001212C, symSize: 0xC }
  - { offset: 0x27F3C, size: 0x8, addend: 0x0, symName: ___llvm_profile_begin_vtables, symObjAddr: 0x60, symBinAddr: 0x100012138, symSize: 0xC }
  - { offset: 0x27F55, size: 0x8, addend: 0x0, symName: ___llvm_profile_begin_vtables, symObjAddr: 0x60, symBinAddr: 0x100012138, symSize: 0xC }
  - { offset: 0x27F5D, size: 0x8, addend: 0x0, symName: ___llvm_profile_end_vtables, symObjAddr: 0x6C, symBinAddr: 0x100012144, symSize: 0xC }
  - { offset: 0x27F76, size: 0x8, addend: 0x0, symName: ___llvm_profile_end_vtables, symObjAddr: 0x6C, symBinAddr: 0x100012144, symSize: 0xC }
  - { offset: 0x27F7E, size: 0x8, addend: 0x0, symName: ___llvm_profile_begin_vtabnames, symObjAddr: 0x78, symBinAddr: 0x100012150, symSize: 0xC }
  - { offset: 0x27F97, size: 0x8, addend: 0x0, symName: ___llvm_profile_begin_vtabnames, symObjAddr: 0x78, symBinAddr: 0x100012150, symSize: 0xC }
  - { offset: 0x27F9F, size: 0x8, addend: 0x0, symName: ___llvm_profile_end_vtabnames, symObjAddr: 0x84, symBinAddr: 0x10001215C, symSize: 0xC }
  - { offset: 0x27FB8, size: 0x8, addend: 0x0, symName: ___llvm_profile_end_vtabnames, symObjAddr: 0x84, symBinAddr: 0x10001215C, symSize: 0xC }
  - { offset: 0x27FC0, size: 0x8, addend: 0x0, symName: ___llvm_profile_begin_vnodes, symObjAddr: 0x90, symBinAddr: 0x100012168, symSize: 0xC }
  - { offset: 0x27FD9, size: 0x8, addend: 0x0, symName: ___llvm_profile_begin_vnodes, symObjAddr: 0x90, symBinAddr: 0x100012168, symSize: 0xC }
  - { offset: 0x27FE1, size: 0x8, addend: 0x0, symName: ___llvm_profile_end_vnodes, symObjAddr: 0x9C, symBinAddr: 0x100012174, symSize: 0xC }
  - { offset: 0x27FFA, size: 0x8, addend: 0x0, symName: ___llvm_profile_end_vnodes, symObjAddr: 0x9C, symBinAddr: 0x100012174, symSize: 0xC }
  - { offset: 0x28002, size: 0x8, addend: 0x0, symName: ___llvm_write_binary_ids, symObjAddr: 0xA8, symBinAddr: 0x100012180, symSize: 0x8 }
  - { offset: 0x2801B, size: 0x8, addend: 0x0, symName: ___llvm_write_binary_ids, symObjAddr: 0xA8, symBinAddr: 0x100012180, symSize: 0x8 }
  - { offset: 0x28023, size: 0x8, addend: 0x0, symName: _CurrentVNode, symObjAddr: 0xB0, symBinAddr: 0x100070610, symSize: 0x0 }
  - { offset: 0x282A1, size: 0x8, addend: 0x0, symName: __GLOBAL__sub_I_InstrProfilingRuntime.cpp, symObjAddr: 0x0, symBinAddr: 0x100012188, symSize: 0x18 }
  - { offset: 0x282C4, size: 0x8, addend: 0x0, symName: ___llvm_profile_runtime, symObjAddr: 0x590, symBinAddr: 0x1000733F0, symSize: 0x0 }
  - { offset: 0x282F4, size: 0x8, addend: 0x0, symName: __GLOBAL__sub_I_InstrProfilingRuntime.cpp, symObjAddr: 0x0, symBinAddr: 0x100012188, symSize: 0x18 }
  - { offset: 0x28370, size: 0x8, addend: 0x0, symName: ___llvm_profile_recursive_mkdir, symObjAddr: 0x0, symBinAddr: 0x1000121A0, symSize: 0x58 }
  - { offset: 0x28378, size: 0x8, addend: 0x0, symName: _lprofDirMode, symObjAddr: 0x850, symBinAddr: 0x100070620, symSize: 0x0 }
  - { offset: 0x2838F, size: 0x8, addend: 0x0, symName: _lprofDirMode, symObjAddr: 0x850, symBinAddr: 0x100070620, symSize: 0x0 }
  - { offset: 0x283FA, size: 0x8, addend: 0x0, symName: ___llvm_profile_recursive_mkdir, symObjAddr: 0x0, symBinAddr: 0x1000121A0, symSize: 0x58 }
  - { offset: 0x28479, size: 0x8, addend: 0x0, symName: _lprofGetHostName, symObjAddr: 0x70, symBinAddr: 0x1000121F8, symSize: 0x80 }
  - { offset: 0x285AE, size: 0x8, addend: 0x0, symName: _lprofLockFileHandle, symObjAddr: 0x208, symBinAddr: 0x100012278, symSize: 0x90 }
  - { offset: 0x285B6, size: 0x8, addend: 0x0, symName: _lprofUnlockFileHandle, symObjAddr: 0x298, symBinAddr: 0x100012308, symSize: 0x90 }
  - { offset: 0x2863C, size: 0x8, addend: 0x0, symName: _lprofUnlockFileHandle, symObjAddr: 0x298, symBinAddr: 0x100012308, symSize: 0x90 }
  - { offset: 0x28644, size: 0x8, addend: 0x0, symName: _lprofOpenFileEx, symObjAddr: 0x328, symBinAddr: 0x100012398, symSize: 0xD0 }
  - { offset: 0x286A4, size: 0x8, addend: 0x0, symName: _lprofOpenFileEx, symObjAddr: 0x328, symBinAddr: 0x100012398, symSize: 0xD0 }
  - { offset: 0x286AC, size: 0x8, addend: 0x0, symName: _lprofGetFileContentBuffer, symObjAddr: 0x3F8, symBinAddr: 0x100012468, symSize: 0x204 }
  - { offset: 0x28739, size: 0x8, addend: 0x0, symName: _lprofGetFileContentBuffer, symObjAddr: 0x3F8, symBinAddr: 0x100012468, symSize: 0x204 }
  - { offset: 0x28741, size: 0x8, addend: 0x0, symName: _lprofReleaseBuffer, symObjAddr: 0x5FC, symBinAddr: 0x10001266C, symSize: 0xA0 }
  - { offset: 0x287C8, size: 0x8, addend: 0x0, symName: _lprofReleaseBuffer, symObjAddr: 0x5FC, symBinAddr: 0x10001266C, symSize: 0xA0 }
  - { offset: 0x2880A, size: 0x8, addend: 0x0, symName: _lprofFindFirstDirSeparator, symObjAddr: 0x7DC, symBinAddr: 0x10001270C, symSize: 0x8 }
  - { offset: 0x2884A, size: 0x8, addend: 0x0, symName: _lprofSuspendSigKill, symObjAddr: 0x7EC, symBinAddr: 0x100012714, symSize: 0x8 }
  - { offset: 0x28852, size: 0x8, addend: 0x0, symName: _lprofRestoreSigKill, symObjAddr: 0x7F4, symBinAddr: 0x10001271C, symSize: 0x4 }
  - { offset: 0x2886D, size: 0x8, addend: 0x0, symName: _lprofRestoreSigKill, symObjAddr: 0x7F4, symBinAddr: 0x10001271C, symSize: 0x4 }
  - { offset: 0x2888C, size: 0x8, addend: 0x0, symName: _lprofAtExit, symObjAddr: 0x84C, symBinAddr: 0x100012720, symSize: 0x4 }
  - { offset: 0x28894, size: 0x8, addend: 0x0, symName: _lprofDirMode, symObjAddr: 0x850, symBinAddr: 0x100070620, symSize: 0x0 }
  - { offset: 0x28B9E, size: 0x8, addend: 0x0, symName: _getValueProfRecordHeaderSize, symObjAddr: 0x0, symBinAddr: 0x100012724, symSize: 0xC }
  - { offset: 0x28BBD, size: 0x8, addend: 0x0, symName: _VPMaxNumValsPerSite, symObjAddr: 0x1740, symBinAddr: 0x100070628, symSize: 0x0 }
  - { offset: 0x28C52, size: 0x8, addend: 0x0, symName: __MergedGlobals, symObjAddr: 0xEF50, symBinAddr: 0x100071238, symSize: 0x0 }
  - { offset: 0x28C79, size: 0x8, addend: 0x0, symName: __MergedGlobals, symObjAddr: 0xEF50, symBinAddr: 0x100071238, symSize: 0x0 }
  - { offset: 0x28C90, size: 0x8, addend: 0x0, symName: __MergedGlobals, symObjAddr: 0xEF50, symBinAddr: 0x100071238, symSize: 0x0 }
  - { offset: 0x28CB0, size: 0x8, addend: 0x0, symName: _TheVPDataReader, symObjAddr: 0x1748, symBinAddr: 0x100070630, symSize: 0x0 }
  - { offset: 0x28F51, size: 0x8, addend: 0x0, symName: _RTRecord, symObjAddr: 0xEF28, symBinAddr: 0x100071210, symSize: 0x0 }
  - { offset: 0x29145, size: 0x8, addend: 0x0, symName: _getValueProfRecordHeaderSize, symObjAddr: 0x0, symBinAddr: 0x100012724, symSize: 0xC }
  - { offset: 0x2919B, size: 0x8, addend: 0x0, symName: _getValueProfRecordValueData, symObjAddr: 0x1C, symBinAddr: 0x100012730, symSize: 0x14 }
  - { offset: 0x29249, size: 0x8, addend: 0x0, symName: _getValueProfRecordNext, symObjAddr: 0x1B4, symBinAddr: 0x100012744, symSize: 0x1A4 }
  - { offset: 0x29251, size: 0x8, addend: 0x0, symName: _getFirstValueProfRecord, symObjAddr: 0x358, symBinAddr: 0x1000128E8, symSize: 0x8 }
  - { offset: 0x292B8, size: 0x8, addend: 0x0, symName: _getFirstValueProfRecord, symObjAddr: 0x358, symBinAddr: 0x1000128E8, symSize: 0x8 }
  - { offset: 0x2939A, size: 0x8, addend: 0x0, symName: _lprofSetupValueProfiler, symObjAddr: 0xB38, symBinAddr: 0x1000128F0, symSize: 0x64 }
  - { offset: 0x294AC, size: 0x8, addend: 0x0, symName: ___llvm_profile_instrument_target_value, symObjAddr: 0xE30, symBinAddr: 0x100012954, symSize: 0x290 }
  - { offset: 0x295CA, size: 0x8, addend: 0x0, symName: _lprofGetVPDataReader, symObjAddr: 0x1108, symBinAddr: 0x100012BE4, symSize: 0xC }
  - { offset: 0x295D2, size: 0x8, addend: 0x0, symName: _initializeValueProfRuntimeRecord, symObjAddr: 0x1114, symBinAddr: 0x100012BF0, symSize: 0x210 }
  - { offset: 0x295ED, size: 0x8, addend: 0x0, symName: _initializeValueProfRuntimeRecord, symObjAddr: 0x1114, symBinAddr: 0x100012BF0, symSize: 0x210 }
  - { offset: 0x295F5, size: 0x8, addend: 0x0, symName: _getNumValueDataForSiteWrapper, symObjAddr: 0x1324, symBinAddr: 0x100012E00, symSize: 0x14 }
  - { offset: 0x29710, size: 0x8, addend: 0x0, symName: _getNumValueDataForSiteWrapper, symObjAddr: 0x1324, symBinAddr: 0x100012E00, symSize: 0x14 }
  - { offset: 0x29718, size: 0x8, addend: 0x0, symName: _getValueProfDataSizeWrapper, symObjAddr: 0x1338, symBinAddr: 0x100012E14, symSize: 0xDC }
  - { offset: 0x29756, size: 0x8, addend: 0x0, symName: _getNumValueDataForSiteWrapper, symObjAddr: 0x1324, symBinAddr: 0x100012E00, symSize: 0x14 }
  - { offset: 0x2977C, size: 0x8, addend: 0x0, symName: _getValueProfDataSizeWrapper, symObjAddr: 0x1338, symBinAddr: 0x100012E14, symSize: 0xDC }
  - { offset: 0x29784, size: 0x8, addend: 0x0, symName: _getNextNValueData, symObjAddr: 0x1414, symBinAddr: 0x100012EF0, symSize: 0x44 }
  - { offset: 0x2981B, size: 0x8, addend: 0x0, symName: _getNextNValueData, symObjAddr: 0x1414, symBinAddr: 0x100012EF0, symSize: 0x44 }
  - { offset: 0x29823, size: 0x8, addend: 0x0, symName: _getNumValueSitesRT, symObjAddr: 0x1458, symBinAddr: 0x100012F34, symSize: 0x10 }
  - { offset: 0x298B1, size: 0x8, addend: 0x0, symName: _getNumValueSitesRT, symObjAddr: 0x1458, symBinAddr: 0x100012F34, symSize: 0x10 }
  - { offset: 0x298B9, size: 0x8, addend: 0x0, symName: _getNumValueDataRT, symObjAddr: 0x1468, symBinAddr: 0x100012F44, symSize: 0x190 }
  - { offset: 0x298F4, size: 0x8, addend: 0x0, symName: _getNumValueDataRT, symObjAddr: 0x1468, symBinAddr: 0x100012F44, symSize: 0x190 }
  - { offset: 0x2996A, size: 0x8, addend: 0x0, symName: ___llvm_profile_instrument_target_value.cold.1, symObjAddr: 0x161C, symBinAddr: 0x10004B588, symSize: 0x24 }
  - { offset: 0x299FA, size: 0x8, addend: 0x0, symName: ___llvm_profile_raw_version, symObjAddr: 0x0, symBinAddr: 0x100070660, symSize: 0x0 }
  - { offset: 0x29A3C, size: 0x8, addend: 0x0, symName: _lprofBufferWriter, symObjAddr: 0x0, symBinAddr: 0x1000130D4, symSize: 0x6C }
  - { offset: 0x29A5B, size: 0x8, addend: 0x0, symName: _FreeHook, symObjAddr: 0x4F98, symBinAddr: 0x1000733F8, symSize: 0x0 }
  - { offset: 0x29A81, size: 0x8, addend: 0x0, symName: _DynamicBufferIOBuffer, symObjAddr: 0x4FA0, symBinAddr: 0x100073400, symSize: 0x0 }
  - { offset: 0x29AAF, size: 0x8, addend: 0x0, symName: _VPBufferSize, symObjAddr: 0x4FA8, symBinAddr: 0x100073408, symSize: 0x0 }
  - { offset: 0x29AD6, size: 0x8, addend: 0x0, symName: __MergedGlobals, symObjAddr: 0x6FB0, symBinAddr: 0x100073248, symSize: 0x0 }
  - { offset: 0x29C20, size: 0x8, addend: 0x0, symName: _BufferIOBuffer, symObjAddr: 0x4FB0, symBinAddr: 0x100071248, symSize: 0x0 }
  - { offset: 0x29C4A, size: 0x8, addend: 0x0, symName: __MergedGlobals, symObjAddr: 0x6FB0, symBinAddr: 0x100073248, symSize: 0x0 }
  - { offset: 0x29CC6, size: 0x8, addend: 0x0, symName: _lprofBufferWriter, symObjAddr: 0x0, symBinAddr: 0x1000130D4, symSize: 0x6C }
  - { offset: 0x29DDE, size: 0x8, addend: 0x0, symName: _lprofBufferIOWrite, symObjAddr: 0x100, symBinAddr: 0x100013140, symSize: 0x134 }
  - { offset: 0x29EDF, size: 0x8, addend: 0x0, symName: _lprofWriteData, symObjAddr: 0x2F4, symBinAddr: 0x100013274, symSize: 0xE0 }
  - { offset: 0x29EE7, size: 0x8, addend: 0x0, symName: _lprofWriteDataImpl, symObjAddr: 0x3D4, symBinAddr: 0x100013354, symSize: 0x474 }
  - { offset: 0x2A31E, size: 0x8, addend: 0x0, symName: _lprofWriteDataImpl, symObjAddr: 0x3D4, symBinAddr: 0x100013354, symSize: 0x474 }
  - { offset: 0x2A659, size: 0x8, addend: 0x0, symName: _writeOneValueProfData, symObjAddr: 0x8D4, symBinAddr: 0x1000137C8, symSize: 0x4A8 }
  - { offset: 0x2A91E, size: 0x8, addend: 0x0, symName: __RNvCskdKJRKLKjqM_7___rustc10rust_panic, symObjAddr: 0x0, symBinAddr: 0x10004B5AC, symSize: 0x60 }
  - { offset: 0x2AC72, size: 0x8, addend: 0x0, symName: '__ZN42_$LT$$RF$T$u20$as$u20$core..fmt..Debug$GT$3fmt17h1657bda62079795fE', symObjAddr: 0x22C30, symBinAddr: 0x100023A74, symSize: 0x74 }
  - { offset: 0x2AD89, size: 0x8, addend: 0x0, symName: '__ZN42_$LT$$RF$T$u20$as$u20$core..fmt..Debug$GT$3fmt17h1afb9163f1905b06E', symObjAddr: 0x22CA4, symBinAddr: 0x100023AE8, symSize: 0x10 }
  - { offset: 0x2ADBA, size: 0x8, addend: 0x0, symName: '__ZN42_$LT$$RF$T$u20$as$u20$core..fmt..Debug$GT$3fmt17h5dbecbf3553e1d6eE', symObjAddr: 0x230DC, symBinAddr: 0x100023AF8, symSize: 0x14 }
  - { offset: 0x2ADEB, size: 0x8, addend: 0x0, symName: '__ZN42_$LT$$RF$T$u20$as$u20$core..fmt..Debug$GT$3fmt17h624b3b1b2bc3ccaaE', symObjAddr: 0x230F0, symBinAddr: 0x100023B0C, symSize: 0x10 }
  - { offset: 0x2AE0D, size: 0x8, addend: 0x0, symName: '__ZN42_$LT$$RF$T$u20$as$u20$core..fmt..Debug$GT$3fmt17h90d58bddc1b11390E', symObjAddr: 0x23210, symBinAddr: 0x100023B1C, symSize: 0x9C }
  - { offset: 0x2AE9C, size: 0x8, addend: 0x0, symName: '__ZN42_$LT$$RF$T$u20$as$u20$core..fmt..Debug$GT$3fmt17h962ee5d805df0a43E', symObjAddr: 0x232AC, symBinAddr: 0x100023BB8, symSize: 0x1C }
  - { offset: 0x2AEFE, size: 0x8, addend: 0x0, symName: '__ZN42_$LT$$RF$T$u20$as$u20$core..fmt..Debug$GT$3fmt17h9b59bf8331fa675dE', symObjAddr: 0x232D8, symBinAddr: 0x100023BD4, symSize: 0x74 }
  - { offset: 0x2AF92, size: 0x8, addend: 0x0, symName: '__ZN42_$LT$$RF$T$u20$as$u20$core..fmt..Debug$GT$3fmt17hbd1e035ac7e08f25E', symObjAddr: 0x23400, symBinAddr: 0x100023C48, symSize: 0x1C }
  - { offset: 0x2AFFA, size: 0x8, addend: 0x0, symName: '__ZN44_$LT$$RF$T$u20$as$u20$core..fmt..Display$GT$3fmt17h42b41cde78dd7a40E', symObjAddr: 0x23740, symBinAddr: 0x100023C64, symSize: 0x10 }
  - { offset: 0x2B015, size: 0x8, addend: 0x0, symName: '__ZN44_$LT$$RF$T$u20$as$u20$core..fmt..Display$GT$3fmt17h97ddbbc1a338291fE', symObjAddr: 0x23760, symBinAddr: 0x100023C74, symSize: 0x74 }
  - { offset: 0x2B0C0, size: 0x8, addend: 0x0, symName: '__ZN4core3fmt3num50_$LT$impl$u20$core..fmt..Debug$u20$for$u20$i32$GT$3fmt17h0ee72d503607d7feE', symObjAddr: 0x23AE0, symBinAddr: 0x100023CE8, symSize: 0x18 }
  - { offset: 0x2B0D7, size: 0x8, addend: 0x0, symName: '__ZN4core3fmt3num50_$LT$impl$u20$core..fmt..Debug$u20$for$u20$i32$GT$3fmt17h0ee72d503607d7feE', symObjAddr: 0x23AE0, symBinAddr: 0x100023CE8, symSize: 0x18 }
  - { offset: 0x2B102, size: 0x8, addend: 0x0, symName: '__ZN4core3fmt3num52_$LT$impl$u20$core..fmt..Debug$u20$for$u20$usize$GT$3fmt17hecd777b1c3510085E', symObjAddr: 0x23B40, symBinAddr: 0x100023D00, symSize: 0x18 }
  - { offset: 0x2B119, size: 0x8, addend: 0x0, symName: '__ZN4core3fmt3num52_$LT$impl$u20$core..fmt..Debug$u20$for$u20$usize$GT$3fmt17hecd777b1c3510085E', symObjAddr: 0x23B40, symBinAddr: 0x100023D00, symSize: 0x18 }
  - { offset: 0x2B153, size: 0x8, addend: 0x0, symName: __ZN4core3fmt5Write10write_char17h69a3578dfe4b32e9E, symObjAddr: 0x23CC0, symBinAddr: 0x100023D18, symSize: 0x128 }
  - { offset: 0x2B1CE, size: 0x8, addend: 0x0, symName: __ZN4core3fmt5Write10write_char17h69d96c692ad3d067E, symObjAddr: 0x23DE8, symBinAddr: 0x100023E40, symSize: 0x168 }
  - { offset: 0x2B349, size: 0x8, addend: 0x0, symName: __ZN4core3fmt5Write10write_char17hca427d9223c5b6e1E, symObjAddr: 0x23F50, symBinAddr: 0x100023FA8, symSize: 0x138 }
  - { offset: 0x2B4D9, size: 0x8, addend: 0x0, symName: __ZN4core3fmt5Write10write_char17he9318f738a0331ecE, symObjAddr: 0x24088, symBinAddr: 0x1000240E0, symSize: 0x110 }
  - { offset: 0x2B6DA, size: 0x8, addend: 0x0, symName: __ZN4core3fmt5Write9write_fmt17h09d57f97e1e98aabE, symObjAddr: 0x242C0, symBinAddr: 0x1000241F0, symSize: 0x38 }
  - { offset: 0x2B709, size: 0x8, addend: 0x0, symName: __ZN4core3fmt5Write9write_fmt17h0e54e39e3cec6689E, symObjAddr: 0x242F8, symBinAddr: 0x100024228, symSize: 0x38 }
  - { offset: 0x2B738, size: 0x8, addend: 0x0, symName: __ZN4core3fmt5Write9write_fmt17h19fd30b4ad025d60E, symObjAddr: 0x24330, symBinAddr: 0x100024260, symSize: 0x38 }
  - { offset: 0x2B767, size: 0x8, addend: 0x0, symName: __ZN4core3fmt5Write9write_fmt17h2a94cca2598c1fb1E, symObjAddr: 0x243A0, symBinAddr: 0x100024298, symSize: 0x38 }
  - { offset: 0x2B796, size: 0x8, addend: 0x0, symName: __ZN4core3fmt5Write9write_fmt17heb18d397fb6127d0E, symObjAddr: 0x24410, symBinAddr: 0x1000242D0, symSize: 0x38 }
  - { offset: 0x2B7F3, size: 0x8, addend: 0x0, symName: '__ZN50_$LT$$BP$mut$u20$T$u20$as$u20$core..fmt..Debug$GT$3fmt17hc506ef24e45fcfffE', symObjAddr: 0x31FD4, symBinAddr: 0x10002DF94, symSize: 0x8 }
  - { offset: 0x2B811, size: 0x8, addend: 0x0, symName: '__ZN50_$LT$$BP$mut$u20$T$u20$as$u20$core..fmt..Debug$GT$3fmt17hc506ef24e45fcfffE', symObjAddr: 0x31FD4, symBinAddr: 0x10002DF94, symSize: 0x8 }
  - { offset: 0x2B840, size: 0x8, addend: 0x0, symName: '__ZN52_$LT$$RF$mut$u20$T$u20$as$u20$core..fmt..Display$GT$3fmt17hbaf30795b8d3c4d8E', symObjAddr: 0x3262C, symBinAddr: 0x10002DF9C, symSize: 0x10 }
  - { offset: 0x2DBB2, size: 0x8, addend: 0x0, symName: '__ZN4core3ptr107drop_in_place$LT$core..pin..Pin$LT$alloc..boxed..Box$LT$std..sys..pal..unix..sync..mutex..Mutex$GT$$GT$$GT$17hbd21784a02a2f8d1E', symObjAddr: 0x24A20, symBinAddr: 0x1000244C0, symSize: 0x2C }
  - { offset: 0x2DC49, size: 0x8, addend: 0x0, symName: '__ZN4core3ptr109drop_in_place$LT$alloc..sync..Arc$LT$std..sync..poison..mutex..Mutex$LT$alloc..vec..Vec$LT$u8$GT$$GT$$GT$$GT$17h5646c21d902a9b21E', symObjAddr: 0x24A4C, symBinAddr: 0x1000244EC, symSize: 0x20 }
  - { offset: 0x2DC60, size: 0x8, addend: 0x0, symName: '__ZN4core3ptr109drop_in_place$LT$alloc..sync..Arc$LT$std..sync..poison..mutex..Mutex$LT$alloc..vec..Vec$LT$u8$GT$$GT$$GT$$GT$17h5646c21d902a9b21E', symObjAddr: 0x24A4C, symBinAddr: 0x1000244EC, symSize: 0x20 }
  - { offset: 0x2DC75, size: 0x8, addend: 0x0, symName: '__ZN4core3ptr109drop_in_place$LT$alloc..sync..Arc$LT$std..sync..poison..mutex..Mutex$LT$alloc..vec..Vec$LT$u8$GT$$GT$$GT$$GT$17h5646c21d902a9b21E', symObjAddr: 0x24A4C, symBinAddr: 0x1000244EC, symSize: 0x20 }
  - { offset: 0x2DC8A, size: 0x8, addend: 0x0, symName: '__ZN4core3ptr109drop_in_place$LT$alloc..sync..Arc$LT$std..sync..poison..mutex..Mutex$LT$alloc..vec..Vec$LT$u8$GT$$GT$$GT$$GT$17h5646c21d902a9b21E', symObjAddr: 0x24A4C, symBinAddr: 0x1000244EC, symSize: 0x20 }
  - { offset: 0x2DCDE, size: 0x8, addend: 0x0, symName: '__ZN4core3ptr119drop_in_place$LT$std..io..default_write_fmt..Adapter$LT$std..io..cursor..Cursor$LT$$RF$mut$u20$$u5b$u8$u5d$$GT$$GT$$GT$17hd94de8f89bec7782E', symObjAddr: 0x24AE8, symBinAddr: 0x10002450C, symSize: 0x10 }
  - { offset: 0x2DCF5, size: 0x8, addend: 0x0, symName: '__ZN4core3ptr119drop_in_place$LT$std..io..default_write_fmt..Adapter$LT$std..io..cursor..Cursor$LT$$RF$mut$u20$$u5b$u8$u5d$$GT$$GT$$GT$17hd94de8f89bec7782E', symObjAddr: 0x24AE8, symBinAddr: 0x10002450C, symSize: 0x10 }
  - { offset: 0x2DD08, size: 0x8, addend: 0x0, symName: '__ZN4core3ptr123drop_in_place$LT$addr2line..Context$LT$gimli..read..endian_slice..EndianSlice$LT$gimli..endianity..LittleEndian$GT$$GT$$GT$17h60120d8b61f786aeE', symObjAddr: 0x24AF8, symBinAddr: 0x10002451C, symSize: 0x70 }
  - { offset: 0x2DDC1, size: 0x8, addend: 0x0, symName: '__ZN4core3ptr128drop_in_place$LT$core..result..Result$LT$$RF$std..thread..Thread$C$$LP$$RF$std..thread..Thread$C$std..thread..Thread$RP$$GT$$GT$17h75718b8337910809E', symObjAddr: 0x24B68, symBinAddr: 0x10002458C, symSize: 0x28 }
  - { offset: 0x2DF17, size: 0x8, addend: 0x0, symName: '__ZN4core3ptr129drop_in_place$LT$addr2line..unit..ResUnit$LT$gimli..read..endian_slice..EndianSlice$LT$gimli..endianity..LittleEndian$GT$$GT$$GT$17h61db7baa14403ae7E', symObjAddr: 0x24B90, symBinAddr: 0x1000245B4, symSize: 0xE4 }
  - { offset: 0x2E139, size: 0x8, addend: 0x0, symName: '__ZN4core3ptr129drop_in_place$LT$addr2line..unit..SupUnit$LT$gimli..read..endian_slice..EndianSlice$LT$gimli..endianity..LittleEndian$GT$$GT$$GT$17hbd87d71db3a78ec7E', symObjAddr: 0x24C74, symBinAddr: 0x100024698, symSize: 0x54 }
  - { offset: 0x2E1F8, size: 0x8, addend: 0x0, symName: '__ZN4core3ptr130drop_in_place$LT$addr2line..unit..ResUnits$LT$gimli..read..endian_slice..EndianSlice$LT$gimli..endianity..LittleEndian$GT$$GT$$GT$17hb2ce511d8969e07fE', symObjAddr: 0x24CC8, symBinAddr: 0x1000246EC, symSize: 0xD0 }
  - { offset: 0x2E3A1, size: 0x8, addend: 0x0, symName: '__ZN4core3ptr130drop_in_place$LT$addr2line..unit..SupUnits$LT$gimli..read..endian_slice..EndianSlice$LT$gimli..endianity..LittleEndian$GT$$GT$$GT$17h3d17c95ef0deb2d2E', symObjAddr: 0x24D98, symBinAddr: 0x1000247BC, symSize: 0xE4 }
  - { offset: 0x2E551, size: 0x8, addend: 0x0, symName: '__ZN4core3ptr130drop_in_place$LT$gimli..read..dwarf..Dwarf$LT$gimli..read..endian_slice..EndianSlice$LT$gimli..endianity..LittleEndian$GT$$GT$$GT$17hc9e7ef4be229448fE', symObjAddr: 0x24E7C, symBinAddr: 0x1000248A0, symSize: 0x58 }
  - { offset: 0x2E5E7, size: 0x8, addend: 0x0, symName: '__ZN4core3ptr131drop_in_place$LT$$u5b$core..option..Option$LT$core..option..Option$LT$std..backtrace_rs..symbolize..gimli..Mapping$GT$$GT$$u5d$$GT$17hbc1f61e360e1245cE', symObjAddr: 0x24ED4, symBinAddr: 0x1000248F8, symSize: 0xCC }
  - { offset: 0x2E691, size: 0x8, addend: 0x0, symName: '__ZN4core3ptr131drop_in_place$LT$alloc..boxed..Box$LT$dyn$u20$core..ops..function..FnOnce$LT$$LP$$RP$$GT$$u2b$Output$u20$$u3d$$u20$$LP$$RP$$GT$$GT$17hcd6787f4796be228E', symObjAddr: 0x24FA0, symBinAddr: 0x1000249C4, symSize: 0x78 }
  - { offset: 0x2E77C, size: 0x8, addend: 0x0, symName: '__ZN4core3ptr137drop_in_place$LT$gimli..read..dwarf..Unit$LT$gimli..read..endian_slice..EndianSlice$LT$gimli..endianity..LittleEndian$GT$$C$usize$GT$$GT$17ha92b70ae8706df64E', symObjAddr: 0x25018, symBinAddr: 0x100024A3C, symSize: 0x54 }
  - { offset: 0x2E879, size: 0x8, addend: 0x0, symName: '__ZN4core3ptr138drop_in_place$LT$addr2line..function..LazyFunction$LT$gimli..read..endian_slice..EndianSlice$LT$gimli..endianity..LittleEndian$GT$$GT$$GT$17h5b1532da9ccb5096E', symObjAddr: 0x2506C, symBinAddr: 0x100024A90, symSize: 0x64 }
  - { offset: 0x2E890, size: 0x8, addend: 0x0, symName: '__ZN4core3ptr138drop_in_place$LT$addr2line..function..LazyFunction$LT$gimli..read..endian_slice..EndianSlice$LT$gimli..endianity..LittleEndian$GT$$GT$$GT$17h5b1532da9ccb5096E', symObjAddr: 0x2506C, symBinAddr: 0x100024A90, symSize: 0x64 }
  - { offset: 0x2E8A5, size: 0x8, addend: 0x0, symName: '__ZN4core3ptr138drop_in_place$LT$addr2line..function..LazyFunction$LT$gimli..read..endian_slice..EndianSlice$LT$gimli..endianity..LittleEndian$GT$$GT$$GT$17h5b1532da9ccb5096E', symObjAddr: 0x2506C, symBinAddr: 0x100024A90, symSize: 0x64 }
  - { offset: 0x2E8BA, size: 0x8, addend: 0x0, symName: '__ZN4core3ptr138drop_in_place$LT$addr2line..function..LazyFunction$LT$gimli..read..endian_slice..EndianSlice$LT$gimli..endianity..LittleEndian$GT$$GT$$GT$17h5b1532da9ccb5096E', symObjAddr: 0x2506C, symBinAddr: 0x100024A90, symSize: 0x64 }
  - { offset: 0x2E9EE, size: 0x8, addend: 0x0, symName: '__ZN4core3ptr144drop_in_place$LT$alloc..vec..Vec$LT$core..option..Option$LT$core..option..Option$LT$std..backtrace_rs..symbolize..gimli..Mapping$GT$$GT$$GT$$GT$17h76825e3abe87d450E', symObjAddr: 0x250D0, symBinAddr: 0x100024AF4, symSize: 0x78 }
  - { offset: 0x2EB48, size: 0x8, addend: 0x0, symName: '__ZN4core3ptr152drop_in_place$LT$alloc..vec..Vec$LT$addr2line..unit..ResUnit$LT$gimli..read..endian_slice..EndianSlice$LT$gimli..endianity..LittleEndian$GT$$GT$$GT$$GT$17h6c57a6c544237a87E', symObjAddr: 0x25204, symBinAddr: 0x100024B6C, symSize: 0xC4 }
  - { offset: 0x2ECB7, size: 0x8, addend: 0x0, symName: '__ZN4core3ptr152drop_in_place$LT$alloc..vec..Vec$LT$addr2line..unit..SupUnit$LT$gimli..read..endian_slice..EndianSlice$LT$gimli..endianity..LittleEndian$GT$$GT$$GT$$GT$17h5ad4c72a1632250dE', symObjAddr: 0x252C8, symBinAddr: 0x100024C30, symSize: 0xF4 }
  - { offset: 0x2EECF, size: 0x8, addend: 0x0, symName: '__ZN4core3ptr156drop_in_place$LT$alloc..boxed..Box$LT$$u5b$core..option..Option$LT$core..option..Option$LT$std..backtrace_rs..symbolize..gimli..Mapping$GT$$GT$$u5d$$GT$$GT$17hcb1b2da851a6d067E', symObjAddr: 0x253BC, symBinAddr: 0x100024D24, symSize: 0xF8 }
  - { offset: 0x2EFF9, size: 0x8, addend: 0x0, symName: '__ZN4core3ptr159drop_in_place$LT$alloc..sync..ArcInner$LT$gimli..read..dwarf..Dwarf$LT$gimli..read..endian_slice..EndianSlice$LT$gimli..endianity..LittleEndian$GT$$GT$$GT$$GT$17h7de780a0c68b30e9E', symObjAddr: 0x25544, symBinAddr: 0x100024E1C, symSize: 0x5C }
  - { offset: 0x2F0BE, size: 0x8, addend: 0x0, symName: '__ZN4core3ptr161drop_in_place$LT$alloc..vec..Vec$LT$addr2line..function..LazyFunction$LT$gimli..read..endian_slice..EndianSlice$LT$gimli..endianity..LittleEndian$GT$$GT$$GT$$GT$17h3d6d53657b9c2934E', symObjAddr: 0x255A0, symBinAddr: 0x100024E78, symSize: 0xAC }
  - { offset: 0x2F2FB, size: 0x8, addend: 0x0, symName: '__ZN4core3ptr172drop_in_place$LT$core..result..Result$LT$addr2line..Context$LT$gimli..read..endian_slice..EndianSlice$LT$gimli..endianity..LittleEndian$GT$$GT$$C$gimli..read..Error$GT$$GT$17h4bff534e67e3d6dbE', symObjAddr: 0x256F8, symBinAddr: 0x100024F24, symSize: 0x80 }
  - { offset: 0x2F390, size: 0x8, addend: 0x0, symName: '__ZN4core3ptr173drop_in_place$LT$alloc..boxed..Box$LT$$u5b$addr2line..function..LazyFunction$LT$gimli..read..endian_slice..EndianSlice$LT$gimli..endianity..LittleEndian$GT$$GT$$u5d$$GT$$GT$17h2cad5765df2f5de8E', symObjAddr: 0x25778, symBinAddr: 0x100024FA4, symSize: 0x9C }
  - { offset: 0x2F3A7, size: 0x8, addend: 0x0, symName: '__ZN4core3ptr173drop_in_place$LT$alloc..boxed..Box$LT$$u5b$addr2line..function..LazyFunction$LT$gimli..read..endian_slice..EndianSlice$LT$gimli..endianity..LittleEndian$GT$$GT$$u5d$$GT$$GT$17h2cad5765df2f5de8E', symObjAddr: 0x25778, symBinAddr: 0x100024FA4, symSize: 0x9C }
  - { offset: 0x2F57C, size: 0x8, addend: 0x0, symName: '__ZN4core3ptr181drop_in_place$LT$core..option..Option$LT$gimli..read..line..IncompleteLineProgram$LT$gimli..read..endian_slice..EndianSlice$LT$gimli..endianity..LittleEndian$GT$$C$usize$GT$$GT$$GT$17h4072838a3a3bc029E', symObjAddr: 0x25884, symBinAddr: 0x100025040, symSize: 0x98 }
  - { offset: 0x2F7D5, size: 0x8, addend: 0x0, symName: '__ZN4core3ptr181drop_in_place$LT$core..result..Result$LT$addr2line..frame..FrameIter$LT$gimli..read..endian_slice..EndianSlice$LT$gimli..endianity..LittleEndian$GT$$GT$$C$gimli..read..Error$GT$$GT$17h1a8da6a3f705e13bE', symObjAddr: 0x2591C, symBinAddr: 0x1000250D8, symSize: 0x34 }
  - { offset: 0x2F913, size: 0x8, addend: 0x0, symName: '__ZN4core3ptr184drop_in_place$LT$core..result..Result$LT$addr2line..function..Functions$LT$gimli..read..endian_slice..EndianSlice$LT$gimli..endianity..LittleEndian$GT$$GT$$C$gimli..read..Error$GT$$GT$17h9a3bad25e1bdcbe6E', symObjAddr: 0x25950, symBinAddr: 0x10002510C, symSize: 0xD8 }
  - { offset: 0x2FBA3, size: 0x8, addend: 0x0, symName: '__ZN4core3ptr194drop_in_place$LT$core..result..Result$LT$std..sync..poison..mutex..MutexGuard$LT$$LP$$RP$$GT$$C$std..sync..poison..PoisonError$LT$std..sync..poison..mutex..MutexGuard$LT$$LP$$RP$$GT$$GT$$GT$$GT$17h0271d4bb6050713eE', symObjAddr: 0x25A9C, symBinAddr: 0x1000251E4, symSize: 0x4C }
  - { offset: 0x2FBE1, size: 0x8, addend: 0x0, symName: '__ZN4core3ptr231drop_in_place$LT$core..result..Result$LT$core..option..Option$LT$alloc..boxed..Box$LT$addr2line..unit..DwoUnit$LT$gimli..read..endian_slice..EndianSlice$LT$gimli..endianity..LittleEndian$GT$$GT$$GT$$GT$$C$gimli..read..Error$GT$$GT$17h6cb514b393938b83E', symObjAddr: 0x25AE8, symBinAddr: 0x100025230, symSize: 0xD4 }
  - { offset: 0x2FDBC, size: 0x8, addend: 0x0, symName: '__ZN4core3ptr238drop_in_place$LT$alloc..boxed..convert..$LT$impl$u20$core..convert..From$LT$alloc..string..String$GT$$u20$for$u20$alloc..boxed..Box$LT$dyn$u20$core..error..Error$u2b$core..marker..Sync$u2b$core..marker..Send$GT$$GT$..from..StringError$GT$17h021cfce481c078aaE', symObjAddr: 0x25BBC, symBinAddr: 0x100025304, symSize: 0x18 }
  - { offset: 0x2FDD3, size: 0x8, addend: 0x0, symName: '__ZN4core3ptr238drop_in_place$LT$alloc..boxed..convert..$LT$impl$u20$core..convert..From$LT$alloc..string..String$GT$$u20$for$u20$alloc..boxed..Box$LT$dyn$u20$core..error..Error$u2b$core..marker..Sync$u2b$core..marker..Send$GT$$GT$..from..StringError$GT$17h021cfce481c078aaE', symObjAddr: 0x25BBC, symBinAddr: 0x100025304, symSize: 0x18 }
  - { offset: 0x2FDE8, size: 0x8, addend: 0x0, symName: '__ZN4core3ptr238drop_in_place$LT$alloc..boxed..convert..$LT$impl$u20$core..convert..From$LT$alloc..string..String$GT$$u20$for$u20$alloc..boxed..Box$LT$dyn$u20$core..error..Error$u2b$core..marker..Sync$u2b$core..marker..Send$GT$$GT$..from..StringError$GT$17h021cfce481c078aaE', symObjAddr: 0x25BBC, symBinAddr: 0x100025304, symSize: 0x18 }
  - { offset: 0x2FE67, size: 0x8, addend: 0x0, symName: '__ZN4core3ptr275drop_in_place$LT$gimli..read..line..LineRows$LT$gimli..read..endian_slice..EndianSlice$LT$gimli..endianity..LittleEndian$GT$$C$gimli..read..line..IncompleteLineProgram$LT$gimli..read..endian_slice..EndianSlice$LT$gimli..endianity..LittleEndian$GT$$C$usize$GT$$C$usize$GT$$GT$17h53f25b84add21487E', symObjAddr: 0x25BD4, symBinAddr: 0x10002531C, symSize: 0x8C }
  - { offset: 0x300DC, size: 0x8, addend: 0x0, symName: '__ZN4core3ptr280drop_in_place$LT$$LT$alloc..collections..btree..map..IntoIter$LT$K$C$V$C$A$GT$$u20$as$u20$core..ops..drop..Drop$GT$..drop..DropGuard$LT$u64$C$core..result..Result$LT$alloc..sync..Arc$LT$gimli..read..abbrev..Abbreviations$GT$$C$gimli..read..Error$GT$$C$alloc..alloc..Global$GT$$GT$17hcc27088c1e07f147E', symObjAddr: 0x25C60, symBinAddr: 0x1000253A8, symSize: 0x84 }
  - { offset: 0x3024C, size: 0x8, addend: 0x0, symName: '__ZN4core3ptr284drop_in_place$LT$core..result..Result$LT$$RF$core..result..Result$LT$addr2line..line..Lines$C$gimli..read..Error$GT$$C$$LP$$RF$core..result..Result$LT$addr2line..line..Lines$C$gimli..read..Error$GT$$C$core..result..Result$LT$addr2line..line..Lines$C$gimli..read..Error$GT$$RP$$GT$$GT$17hb193a9c217a4a4c1E', symObjAddr: 0x25CE4, symBinAddr: 0x10002542C, symSize: 0x10 }
  - { offset: 0x3027D, size: 0x8, addend: 0x0, symName: '__ZN4core3ptr37drop_in_place$LT$std..env..VarsOs$GT$17h72b80feb8ea238e8E', symObjAddr: 0x25CF4, symBinAddr: 0x10002543C, symSize: 0xAC }
  - { offset: 0x30552, size: 0x8, addend: 0x0, symName: '__ZN4core3ptr42drop_in_place$LT$alloc..string..String$GT$17hf6a0412a3add09b1E', symObjAddr: 0x25EA8, symBinAddr: 0x1000254E8, symSize: 0x18 }
  - { offset: 0x30569, size: 0x8, addend: 0x0, symName: '__ZN4core3ptr42drop_in_place$LT$alloc..string..String$GT$17hf6a0412a3add09b1E', symObjAddr: 0x25EA8, symBinAddr: 0x1000254E8, symSize: 0x18 }
  - { offset: 0x305E7, size: 0x8, addend: 0x0, symName: '__ZN4core3ptr42drop_in_place$LT$std..io..error..Error$GT$17hf851d76d73342388E', symObjAddr: 0x25EC0, symBinAddr: 0x100025500, symSize: 0xAC }
  - { offset: 0x307CB, size: 0x8, addend: 0x0, symName: '__ZN4core3ptr44drop_in_place$LT$object..read..ObjectMap$GT$17h0847af56bc5df22dE', symObjAddr: 0x25F6C, symBinAddr: 0x1000255AC, symSize: 0x58 }
  - { offset: 0x308FA, size: 0x8, addend: 0x0, symName: '__ZN4core3ptr46drop_in_place$LT$alloc..vec..Vec$LT$u8$GT$$GT$17hba5d5d275589670eE', symObjAddr: 0x26030, symBinAddr: 0x100025604, symSize: 0x18 }
  - { offset: 0x30979, size: 0x8, addend: 0x0, symName: '__ZN4core3ptr46drop_in_place$LT$std..io..stdio..StdinLock$GT$17h0f6294c31e8bd6fbE', symObjAddr: 0x26048, symBinAddr: 0x10002561C, symSize: 0x54 }
  - { offset: 0x30990, size: 0x8, addend: 0x0, symName: '__ZN4core3ptr46drop_in_place$LT$std..io..stdio..StdinLock$GT$17h0f6294c31e8bd6fbE', symObjAddr: 0x26048, symBinAddr: 0x10002561C, symSize: 0x54 }
  - { offset: 0x309A5, size: 0x8, addend: 0x0, symName: '__ZN4core3ptr46drop_in_place$LT$std..io..stdio..StdinLock$GT$17h0f6294c31e8bd6fbE', symObjAddr: 0x26048, symBinAddr: 0x10002561C, symSize: 0x54 }
  - { offset: 0x30A89, size: 0x8, addend: 0x0, symName: '__ZN4core3ptr48drop_in_place$LT$alloc..ffi..c_str..NulError$GT$17h4b149f15bda11918E', symObjAddr: 0x26180, symBinAddr: 0x100025670, symSize: 0x18 }
  - { offset: 0x30AA0, size: 0x8, addend: 0x0, symName: '__ZN4core3ptr48drop_in_place$LT$alloc..ffi..c_str..NulError$GT$17h4b149f15bda11918E', symObjAddr: 0x26180, symBinAddr: 0x100025670, symSize: 0x18 }
  - { offset: 0x30B2C, size: 0x8, addend: 0x0, symName: '__ZN4core3ptr557drop_in_place$LT$core..result..Result$LT$$RF$core..result..Result$LT$addr2line..function..Function$LT$gimli..read..endian_slice..EndianSlice$LT$gimli..endianity..LittleEndian$GT$$GT$$C$gimli..read..Error$GT$$C$$LP$$RF$core..result..Result$LT$addr2line..function..Function$LT$gimli..read..endian_slice..EndianSlice$LT$gimli..endianity..LittleEndian$GT$$GT$$C$gimli..read..Error$GT$$C$core..result..Result$LT$addr2line..function..Function$LT$gimli..read..endian_slice..EndianSlice$LT$gimli..endianity..LittleEndian$GT$$GT$$C$gimli..read..Error$GT$$RP$$GT$$GT$17hddd2d7300f8297eaE', symObjAddr: 0x26458, symBinAddr: 0x100025688, symSize: 0x64 }
  - { offset: 0x30D16, size: 0x8, addend: 0x0, symName: '__ZN4core3ptr55drop_in_place$LT$gimli..read..abbrev..Abbreviations$GT$17h8587e1680933f2fcE', symObjAddr: 0x264BC, symBinAddr: 0x1000256EC, symSize: 0x118 }
  - { offset: 0x31087, size: 0x8, addend: 0x0, symName: '__ZN4core3ptr560drop_in_place$LT$core..result..Result$LT$$RF$core..result..Result$LT$addr2line..function..Functions$LT$gimli..read..endian_slice..EndianSlice$LT$gimli..endianity..LittleEndian$GT$$GT$$C$gimli..read..Error$GT$$C$$LP$$RF$core..result..Result$LT$addr2line..function..Functions$LT$gimli..read..endian_slice..EndianSlice$LT$gimli..endianity..LittleEndian$GT$$GT$$C$gimli..read..Error$GT$$C$core..result..Result$LT$addr2line..function..Functions$LT$gimli..read..endian_slice..EndianSlice$LT$gimli..endianity..LittleEndian$GT$$GT$$C$gimli..read..Error$GT$$RP$$GT$$GT$17he4dc02a625b1da45E', symObjAddr: 0x266E4, symBinAddr: 0x100025804, symSize: 0x10 }
  - { offset: 0x310E2, size: 0x8, addend: 0x0, symName: '__ZN4core3ptr60drop_in_place$LT$gimli..read..abbrev..AbbreviationsCache$GT$17h05dc331b510e23d9E', symObjAddr: 0x266F4, symBinAddr: 0x100025814, symSize: 0xCC }
  - { offset: 0x3128D, size: 0x8, addend: 0x0, symName: '__ZN4core3ptr64drop_in_place$LT$std..sys..pal..unix..sync..mutex..AttrGuard$GT$17he7e52a9dfb22022eE', symObjAddr: 0x2682C, symBinAddr: 0x1000258E0, symSize: 0x48 }
  - { offset: 0x312B0, size: 0x8, addend: 0x0, symName: '__ZN4core3ptr64drop_in_place$LT$std..sys..process..unix..common..ChildPipes$GT$17hd9f6e3b60aa15aaeE', symObjAddr: 0x26874, symBinAddr: 0x100025928, symSize: 0x78 }
  - { offset: 0x313B2, size: 0x8, addend: 0x0, symName: '__ZN4core3ptr64drop_in_place$LT$std..sys..process..unix..common..StdioPipes$GT$17hb8ed25505eeea22fE', symObjAddr: 0x268EC, symBinAddr: 0x1000259A0, symSize: 0x54 }
  - { offset: 0x3152A, size: 0x8, addend: 0x0, symName: '__ZN4core3ptr65drop_in_place$LT$alloc..vec..Vec$LT$alloc..string..String$GT$$GT$17h1a875569544aab8bE', symObjAddr: 0x26940, symBinAddr: 0x1000259F4, symSize: 0x80 }
  - { offset: 0x31690, size: 0x8, addend: 0x0, symName: '__ZN4core3ptr65drop_in_place$LT$std..backtrace_rs..symbolize..gimli..Context$GT$17h29923633989d7a97E', symObjAddr: 0x269C0, symBinAddr: 0x100025A74, symSize: 0xE8 }
  - { offset: 0x31922, size: 0x8, addend: 0x0, symName: '__ZN4core3ptr66drop_in_place$LT$std..backtrace_rs..backtrace..libunwind..Bomb$GT$17hf3cf99a2a39305f3E', symObjAddr: 0x26AA8, symBinAddr: 0x100025B5C, symSize: 0x40 }
  - { offset: 0x3196E, size: 0x8, addend: 0x0, symName: '__ZN4core3ptr701drop_in_place$LT$core..result..Result$LT$$RF$core..result..Result$LT$core..option..Option$LT$alloc..boxed..Box$LT$addr2line..unit..DwoUnit$LT$gimli..read..endian_slice..EndianSlice$LT$gimli..endianity..LittleEndian$GT$$GT$$GT$$GT$$C$gimli..read..Error$GT$$C$$LP$$RF$core..result..Result$LT$core..option..Option$LT$alloc..boxed..Box$LT$addr2line..unit..DwoUnit$LT$gimli..read..endian_slice..EndianSlice$LT$gimli..endianity..LittleEndian$GT$$GT$$GT$$GT$$C$gimli..read..Error$GT$$C$core..result..Result$LT$core..option..Option$LT$alloc..boxed..Box$LT$addr2line..unit..DwoUnit$LT$gimli..read..endian_slice..EndianSlice$LT$gimli..endianity..LittleEndian$GT$$GT$$GT$$GT$$C$gimli..read..Error$GT$$RP$$GT$$GT$17hf93357a84d00fc7eE', symObjAddr: 0x26AE8, symBinAddr: 0x100025B9C, symSize: 0x14 }
  - { offset: 0x31A0F, size: 0x8, addend: 0x0, symName: '__ZN4core3ptr70drop_in_place$LT$std..backtrace_rs..symbolize..gimli..stash..Stash$GT$17hed8a877d9cede334E', symObjAddr: 0x26AFC, symBinAddr: 0x100025BB0, symSize: 0xB8 }
  - { offset: 0x31CB5, size: 0x8, addend: 0x0, symName: '__ZN4core3ptr71drop_in_place$LT$std..backtrace_rs..symbolize..gimli..macho..Object$GT$17h869151e7b414cfd4E', symObjAddr: 0x26BB4, symBinAddr: 0x100025C68, symSize: 0xD8 }
  - { offset: 0x31F7A, size: 0x8, addend: 0x0, symName: '__ZN4core3ptr71drop_in_place$LT$std..panicking..panic_handler..FormatStringPayload$GT$17h837459f0acb2901dE', symObjAddr: 0x26C8C, symBinAddr: 0x100025D40, symSize: 0x1C }
  - { offset: 0x32036, size: 0x8, addend: 0x0, symName: '__ZN4core3ptr72drop_in_place$LT$core..option..Option$LT$object..read..ObjectMap$GT$$GT$17h379eb7351ada8367E', symObjAddr: 0x26CA8, symBinAddr: 0x100025D5C, symSize: 0x64 }
  - { offset: 0x321B3, size: 0x8, addend: 0x0, symName: '__ZN4core3ptr73drop_in_place$LT$alloc..vec..Vec$LT$addr2line..line..LineSequence$GT$$GT$17h677f3e6952565af2E', symObjAddr: 0x26D0C, symBinAddr: 0x100025DC0, symSize: 0x84 }
  - { offset: 0x3230B, size: 0x8, addend: 0x0, symName: '__ZN4core3ptr77drop_in_place$LT$alloc..boxed..Box$LT$$u5b$alloc..string..String$u5d$$GT$$GT$17h78b274672de7575aE', symObjAddr: 0x26DC8, symBinAddr: 0x100025E44, symSize: 0x70 }
  - { offset: 0x32322, size: 0x8, addend: 0x0, symName: '__ZN4core3ptr77drop_in_place$LT$alloc..boxed..Box$LT$$u5b$alloc..string..String$u5d$$GT$$GT$17h78b274672de7575aE', symObjAddr: 0x26DC8, symBinAddr: 0x100025E44, symSize: 0x70 }
  - { offset: 0x32420, size: 0x8, addend: 0x0, symName: '__ZN4core3ptr78drop_in_place$LT$core..result..Result$LT$usize$C$std..io..error..Error$GT$$GT$17hc6788729ea2462fdE', symObjAddr: 0x26E38, symBinAddr: 0x100025EB4, symSize: 0x10 }
  - { offset: 0x32434, size: 0x8, addend: 0x0, symName: '__ZN4core3ptr79drop_in_place$LT$std..sync..poison..rwlock..RwLockReadGuard$LT$$LP$$RP$$GT$$GT$17ha956672fedf200a4E', symObjAddr: 0x26E48, symBinAddr: 0x100025EC4, symSize: 0x58 }
  - { offset: 0x324D0, size: 0x8, addend: 0x0, symName: '__ZN4core3ptr81drop_in_place$LT$core..result..Result$LT$$LP$$RP$$C$std..io..error..Error$GT$$GT$17h655ff33c339b6cb1E', symObjAddr: 0x26F48, symBinAddr: 0x100025F1C, symSize: 0x10 }
  - { offset: 0x32500, size: 0x8, addend: 0x0, symName: '__ZN4core3ptr81drop_in_place$LT$std..sys..process..unix..common..cstring_array..CStringArray$GT$17h515599651e1fa0b6E', symObjAddr: 0x26F58, symBinAddr: 0x100025F2C, symSize: 0xD0 }
  - { offset: 0x32848, size: 0x8, addend: 0x0, symName: '__ZN4core3ptr82drop_in_place$LT$alloc..sync..ArcInner$LT$std..sys..fs..unix..InnerReadDir$GT$$GT$17hef996e0988305eb0E', symObjAddr: 0x27028, symBinAddr: 0x100025FFC, symSize: 0x60 }
  - { offset: 0x329EB, size: 0x8, addend: 0x0, symName: '__ZN4core3ptr84drop_in_place$LT$$LP$std..ffi..os_str..OsString$C$std..ffi..os_str..OsString$RP$$GT$17ha887c41ca18d2aecE', symObjAddr: 0x27088, symBinAddr: 0x10002605C, symSize: 0x4C }
  - { offset: 0x32B38, size: 0x8, addend: 0x0, symName: '__ZN4core3ptr90drop_in_place$LT$std..io..buffered..bufwriter..BufWriter$LT$W$GT$..flush_buf..BufGuard$GT$17h43652e1c305a1ff2E', symObjAddr: 0x27110, symBinAddr: 0x1000260A8, symSize: 0x5C }
  - { offset: 0x32CBF, size: 0x8, addend: 0x0, symName: '__ZN4core3ptr92drop_in_place$LT$core..result..Result$LT$addr2line..line..Lines$C$gimli..read..Error$GT$$GT$17ha1897ab6fc371eb0E', symObjAddr: 0x271BC, symBinAddr: 0x100026104, symSize: 0xE4 }
  - { offset: 0x32F05, size: 0x8, addend: 0x0, symName: '__ZN4core3ptr93drop_in_place$LT$core..option..Option$LT$std..backtrace_rs..symbolize..gimli..Mapping$GT$$GT$17hd2c3071a4d1fdf1cE', symObjAddr: 0x272A0, symBinAddr: 0x1000261E8, symSize: 0x6C }
  - { offset: 0x32F94, size: 0x8, addend: 0x0, symName: '__ZN4core3ptr95drop_in_place$LT$std..io..buffered..linewriter..LineWriter$LT$std..io..stdio..StdoutRaw$GT$$GT$17hcbf77a70a86af71fE', symObjAddr: 0x2730C, symBinAddr: 0x100026254, symSize: 0xF8 }
  - { offset: 0x3513D, size: 0x8, addend: 0x0, symName: __ZN4core5panic12PanicPayload6as_str17h1071335dd01dc3a9E, symObjAddr: 0x2A418, symBinAddr: 0x100026478, symSize: 0x8 }
  - { offset: 0x359BA, size: 0x8, addend: 0x0, symName: '__ZN70_$LT$core..num..error..TryFromIntError$u20$as$u20$core..fmt..Debug$GT$3fmt17h14ce7830233a5c8dE', symObjAddr: 0x46EFC, symBinAddr: 0x100039FD4, symSize: 0x40 }
  - { offset: 0x37586, size: 0x8, addend: 0x0, symName: __ZN4core5slice4sort8unstable7ipnsort17h5d7543a75d941cffE, symObjAddr: 0x310D0, symBinAddr: 0x10002D130, symSize: 0xEC }
  - { offset: 0x376C8, size: 0x8, addend: 0x0, symName: __ZN4core5slice4sort8unstable7ipnsort17h62c8a47683a638f3E, symObjAddr: 0x311BC, symBinAddr: 0x10002D21C, symSize: 0x1A8 }
  - { offset: 0x379A3, size: 0x8, addend: 0x0, symName: __ZN4core5slice4sort8unstable8heapsort8heapsort17h301a034dfcc890faE, symObjAddr: 0x31364, symBinAddr: 0x10002D3C4, symSize: 0x100 }
  - { offset: 0x37B9F, size: 0x8, addend: 0x0, symName: __ZN4core5slice4sort8unstable8heapsort8heapsort17h5ff97107d3f154adE, symObjAddr: 0x31464, symBinAddr: 0x10002D4C4, symSize: 0x160 }
  - { offset: 0x37F43, size: 0x8, addend: 0x0, symName: __ZN4core5slice4sort8unstable9quicksort9quicksort17h0ba40b7285a59f52E, symObjAddr: 0x315C4, symBinAddr: 0x10002D624, symSize: 0x3F8 }
  - { offset: 0x38807, size: 0x8, addend: 0x0, symName: __ZN4core5slice4sort8unstable9quicksort9quicksort17h98476d76dc825101E, symObjAddr: 0x319BC, symBinAddr: 0x10002DA1C, symSize: 0x578 }
  - { offset: 0x39412, size: 0x8, addend: 0x0, symName: __ZN4core5slice4sort6stable14driftsort_main17h7ade04ab22cdd8f2E, symObjAddr: 0x2BCA0, symBinAddr: 0x100027D00, symSize: 0x140 }
  - { offset: 0x396CA, size: 0x8, addend: 0x0, symName: __ZN4core5slice4sort6stable14driftsort_main17h7b5faaae84c7cbb7E, symObjAddr: 0x2BDE0, symBinAddr: 0x100027E40, symSize: 0x140 }
  - { offset: 0x39900, size: 0x8, addend: 0x0, symName: __ZN4core5slice4sort6stable14driftsort_main17ha9c3ec71caecf83fE, symObjAddr: 0x2BF20, symBinAddr: 0x100027F80, symSize: 0x140 }
  - { offset: 0x39BB8, size: 0x8, addend: 0x0, symName: __ZN4core5slice4sort6stable14driftsort_main17had35389d5dd234b1E, symObjAddr: 0x2C060, symBinAddr: 0x1000280C0, symSize: 0x158 }
  - { offset: 0x39EE6, size: 0x8, addend: 0x0, symName: __ZN4core5slice4sort6stable14driftsort_main17hda7ba3b19d6fc900E, symObjAddr: 0x2C1B8, symBinAddr: 0x100028218, symSize: 0x158 }
  - { offset: 0x3A214, size: 0x8, addend: 0x0, symName: __ZN4core5slice4sort6stable14driftsort_main17he0ade99dc0cb88f1E, symObjAddr: 0x2C310, symBinAddr: 0x100028370, symSize: 0x140 }
  - { offset: 0x3A6E0, size: 0x8, addend: 0x0, symName: __ZN4core5slice4sort6stable5drift4sort17h085f3b0b9c131daaE, symObjAddr: 0x2C450, symBinAddr: 0x1000284B0, symSize: 0x53C }
  - { offset: 0x3ADEA, size: 0x8, addend: 0x0, symName: __ZN4core5slice4sort6stable5drift4sort17h0b0941fd53d2eb36E, symObjAddr: 0x2C98C, symBinAddr: 0x1000289EC, symSize: 0x5EC }
  - { offset: 0x3B51C, size: 0x8, addend: 0x0, symName: __ZN4core5slice4sort6stable5drift4sort17h6874b5ff9a1e9842E, symObjAddr: 0x2CF78, symBinAddr: 0x100028FD8, symSize: 0x4F4 }
  - { offset: 0x3BC10, size: 0x8, addend: 0x0, symName: __ZN4core5slice4sort6stable5drift4sort17hacafb250fe287f02E, symObjAddr: 0x2D46C, symBinAddr: 0x1000294CC, symSize: 0x4F4 }
  - { offset: 0x3C304, size: 0x8, addend: 0x0, symName: __ZN4core5slice4sort6stable5drift4sort17hb5c3f298be29b63dE, symObjAddr: 0x2D960, symBinAddr: 0x1000299C0, symSize: 0x4D8 }
  - { offset: 0x3C964, size: 0x8, addend: 0x0, symName: __ZN4core5slice4sort6stable5drift4sort17hd24339b1ba8572adE, symObjAddr: 0x2DE38, symBinAddr: 0x100029E98, symSize: 0x538 }
  - { offset: 0x3D26B, size: 0x8, addend: 0x0, symName: __ZN4core5slice4sort6stable9quicksort9quicksort17h6b022558501172b1E, symObjAddr: 0x2E370, symBinAddr: 0x10002A3D0, symSize: 0x820 }
  - { offset: 0x3E25D, size: 0x8, addend: 0x0, symName: __ZN4core5slice4sort6stable9quicksort9quicksort17h77925009546caf48E, symObjAddr: 0x2EB90, symBinAddr: 0x10002ABF0, symSize: 0x834 }
  - { offset: 0x3EEA8, size: 0x8, addend: 0x0, symName: __ZN4core5slice4sort6stable9quicksort9quicksort17h99c833017676aa53E, symObjAddr: 0x2F3C4, symBinAddr: 0x10002B424, symSize: 0x6D8 }
  - { offset: 0x3F9B6, size: 0x8, addend: 0x0, symName: __ZN4core5slice4sort6stable9quicksort9quicksort17h9b2801c31f3c9e70E, symObjAddr: 0x2FA9C, symBinAddr: 0x10002BAFC, symSize: 0x810 }
  - { offset: 0x405F4, size: 0x8, addend: 0x0, symName: __ZN4core5slice4sort6stable9quicksort9quicksort17ha3ab17a848a79a77E, symObjAddr: 0x302AC, symBinAddr: 0x10002C30C, symSize: 0x6E0 }
  - { offset: 0x41102, size: 0x8, addend: 0x0, symName: __ZN4core5slice4sort6stable9quicksort9quicksort17hd0cb711591baa19cE, symObjAddr: 0x3098C, symBinAddr: 0x10002C9EC, symSize: 0x744 }
  - { offset: 0x41961, size: 0x8, addend: 0x0, symName: __ZN4core5slice4sort6shared9smallsort12sort4_stable17h0da1ce099c210ce9E, symObjAddr: 0x2AB44, symBinAddr: 0x100026BA4, symSize: 0x180 }
  - { offset: 0x41D4B, size: 0x8, addend: 0x0, symName: __ZN4core5slice4sort6shared9smallsort12sort4_stable17h139ca5c859589941E, symObjAddr: 0x2ACC4, symBinAddr: 0x100026D24, symSize: 0x194 }
  - { offset: 0x41F30, size: 0x8, addend: 0x0, symName: __ZN4core5slice4sort6shared9smallsort12sort8_stable17h18703b6069e9c4ebE, symObjAddr: 0x2AE58, symBinAddr: 0x100026EB8, symSize: 0x2B8 }
  - { offset: 0x42419, size: 0x8, addend: 0x0, symName: __ZN4core5slice4sort6shared9smallsort18small_sort_general17h80ae0a6b297f62c8E, symObjAddr: 0x2B110, symBinAddr: 0x100027170, symSize: 0x4A0 }
  - { offset: 0x42B2C, size: 0x8, addend: 0x0, symName: __ZN4core5slice4sort6shared9smallsort18small_sort_general17haab78fd802d5e9baE, symObjAddr: 0x2B5B0, symBinAddr: 0x100027610, symSize: 0x408 }
  - { offset: 0x43054, size: 0x8, addend: 0x0, symName: __ZN4core5slice4sort6shared9smallsort25insertion_sort_shift_left17h739d96d2d11fa27bE, symObjAddr: 0x2B9B8, symBinAddr: 0x100027A18, symSize: 0x94 }
  - { offset: 0x4312C, size: 0x8, addend: 0x0, symName: __ZN4core5slice4sort6shared9smallsort25insertion_sort_shift_left17hc977fb5c0688bf20E, symObjAddr: 0x2BA4C, symBinAddr: 0x100027AAC, symSize: 0xB8 }
  - { offset: 0x4324C, size: 0x8, addend: 0x0, symName: __ZN4core5slice4sort6shared9smallsort25insertion_sort_shift_left17hcc529bd7abac8e25E, symObjAddr: 0x2BB04, symBinAddr: 0x100027B64, symSize: 0xF4 }
  - { offset: 0x43412, size: 0x8, addend: 0x0, symName: __ZN4core5slice4sort6shared9smallsort25insertion_sort_shift_left17hdfffd6f60b981efdE, symObjAddr: 0x2BBF8, symBinAddr: 0x100027C58, symSize: 0xA8 }
  - { offset: 0x436DC, size: 0x8, addend: 0x0, symName: __ZN4core5slice4sort6shared5pivot11median3_rec17h134b703ff6d407b9E, symObjAddr: 0x2A420, symBinAddr: 0x100026480, symSize: 0xCC }
  - { offset: 0x437E7, size: 0x8, addend: 0x0, symName: __ZN4core5slice4sort6shared5pivot11median3_rec17h1e6e6b5a8f0d3c9dE, symObjAddr: 0x2A4EC, symBinAddr: 0x10002654C, symSize: 0xD0 }
  - { offset: 0x438F4, size: 0x8, addend: 0x0, symName: __ZN4core5slice4sort6shared5pivot11median3_rec17h4d263b5d0566d045E, symObjAddr: 0x2A5BC, symBinAddr: 0x10002661C, symSize: 0x11C }
  - { offset: 0x43A04, size: 0x8, addend: 0x0, symName: __ZN4core5slice4sort6shared5pivot11median3_rec17h6d7ff4f508e12b82E, symObjAddr: 0x2A6D8, symBinAddr: 0x100026738, symSize: 0xD0 }
  - { offset: 0x43B0F, size: 0x8, addend: 0x0, symName: __ZN4core5slice4sort6shared5pivot11median3_rec17h988b88348782b889E, symObjAddr: 0x2A7A8, symBinAddr: 0x100026808, symSize: 0xD0 }
  - { offset: 0x43C1A, size: 0x8, addend: 0x0, symName: __ZN4core5slice4sort6shared5pivot11median3_rec17hb44c311f8a001b16E, symObjAddr: 0x2A878, symBinAddr: 0x1000268D8, symSize: 0x134 }
  - { offset: 0x43E55, size: 0x8, addend: 0x0, symName: __ZN4core5slice4sort6shared5pivot11median3_rec17hd942f779595c303fE, symObjAddr: 0x2A9AC, symBinAddr: 0x100026A0C, symSize: 0xCC }
  - { offset: 0x43F60, size: 0x8, addend: 0x0, symName: __ZN4core5slice4sort6shared5pivot11median3_rec17hdd0991ed80ab6e2dE, symObjAddr: 0x2AA78, symBinAddr: 0x100026AD8, symSize: 0xCC }
  - { offset: 0x44198, size: 0x8, addend: 0x0, symName: '__ZN55_$LT$$RF$str$u20$as$u20$core..str..pattern..Pattern$GT$15is_contained_in17hc0a7ac267447aa23E', symObjAddr: 0x32C18, symBinAddr: 0x10002DFAC, symSize: 0x3C0 }
  - { offset: 0x45EA1, size: 0x8, addend: 0x0, symName: '__ZN4core3ops8function6FnOnce40call_once$u7b$$u7b$vtable.shim$u7d$$u7d$17h08bb94a3fe447d9cE', symObjAddr: 0x246FC, symBinAddr: 0x100024308, symSize: 0xC }
  - { offset: 0x45EF2, size: 0x8, addend: 0x0, symName: '__ZN4core3ops8function6FnOnce40call_once$u7b$$u7b$vtable.shim$u7d$$u7d$17h26c3c42f9f96ed46E', symObjAddr: 0x24730, symBinAddr: 0x100024314, symSize: 0x98 }
  - { offset: 0x46038, size: 0x8, addend: 0x0, symName: '__ZN4core3ops8function6FnOnce40call_once$u7b$$u7b$vtable.shim$u7d$$u7d$17h38e4241864c84f10E', symObjAddr: 0x247C8, symBinAddr: 0x1000243AC, symSize: 0x4 }
  - { offset: 0x46055, size: 0x8, addend: 0x0, symName: '__ZN4core3ops8function6FnOnce40call_once$u7b$$u7b$vtable.shim$u7d$$u7d$17h38e4241864c84f10E', symObjAddr: 0x247C8, symBinAddr: 0x1000243AC, symSize: 0x4 }
  - { offset: 0x46074, size: 0x8, addend: 0x0, symName: '__ZN4core3ops8function6FnOnce40call_once$u7b$$u7b$vtable.shim$u7d$$u7d$17h3e7eda628a394e10E', symObjAddr: 0x247CC, symBinAddr: 0x1000243B0, symSize: 0x60 }
  - { offset: 0x46158, size: 0x8, addend: 0x0, symName: '__ZN4core3ops8function6FnOnce40call_once$u7b$$u7b$vtable.shim$u7d$$u7d$17h4e80488631bce74bE', symObjAddr: 0x2482C, symBinAddr: 0x100024410, symSize: 0xC }
  - { offset: 0x461A9, size: 0x8, addend: 0x0, symName: '__ZN4core3ops8function6FnOnce40call_once$u7b$$u7b$vtable.shim$u7d$$u7d$17h57a7baf643098919E', symObjAddr: 0x24838, symBinAddr: 0x10002441C, symSize: 0x4 }
  - { offset: 0x461C6, size: 0x8, addend: 0x0, symName: '__ZN4core3ops8function6FnOnce40call_once$u7b$$u7b$vtable.shim$u7d$$u7d$17h57a7baf643098919E', symObjAddr: 0x24838, symBinAddr: 0x10002441C, symSize: 0x4 }
  - { offset: 0x461E5, size: 0x8, addend: 0x0, symName: '__ZN4core3ops8function6FnOnce40call_once$u7b$$u7b$vtable.shim$u7d$$u7d$17h5f2b35dd19b33620E', symObjAddr: 0x2483C, symBinAddr: 0x100024420, symSize: 0x28 }
  - { offset: 0x46221, size: 0x8, addend: 0x0, symName: '__ZN4core3ops8function6FnOnce40call_once$u7b$$u7b$vtable.shim$u7d$$u7d$17h7c3cb17ef918f233E', symObjAddr: 0x24864, symBinAddr: 0x100024448, symSize: 0x78 }
  - { offset: 0x47181, size: 0x8, addend: 0x0, symName: '__ZN36_$LT$T$u20$as$u20$core..any..Any$GT$7type_id17ha81a52e3b43c77a4E', symObjAddr: 0x1028, symBinAddr: 0x100014158, symSize: 0x14 }
  - { offset: 0x4719E, size: 0x8, addend: 0x0, symName: '__ZN36_$LT$T$u20$as$u20$core..any..Any$GT$7type_id17ha81a52e3b43c77a4E', symObjAddr: 0x1028, symBinAddr: 0x100014158, symSize: 0x14 }
  - { offset: 0x471B0, size: 0x8, addend: 0x0, symName: '__ZN36_$LT$T$u20$as$u20$core..any..Any$GT$7type_id17hb44d4c6033683273E', symObjAddr: 0x103C, symBinAddr: 0x10001416C, symSize: 0x14 }
  - { offset: 0x471CD, size: 0x8, addend: 0x0, symName: '__ZN36_$LT$T$u20$as$u20$core..any..Any$GT$7type_id17hb44d4c6033683273E', symObjAddr: 0x103C, symBinAddr: 0x10001416C, symSize: 0x14 }
  - { offset: 0x48093, size: 0x8, addend: 0x0, symName: '__ZN4core5array69_$LT$impl$u20$core..fmt..Debug$u20$for$u20$$u5b$T$u3b$$u20$N$u5d$$GT$3fmt17hd123162ab8102d2aE', symObjAddr: 0x2A2BC, symBinAddr: 0x10002634C, symSize: 0xFC }
  - { offset: 0x481B9, size: 0x8, addend: 0x0, symName: '__ZN4core4cell4once17OnceCell$LT$T$GT$8try_init17h096ee8d6ab5f9ab5E', symObjAddr: 0x27404, symBinAddr: 0x10004C0D4, symSize: 0x640 }
  - { offset: 0x48D6F, size: 0x8, addend: 0x0, symName: '__ZN4core4cell4once17OnceCell$LT$T$GT$8try_init17h0fe3646e0b88f6ceE', symObjAddr: 0x27A44, symBinAddr: 0x10004C714, symSize: 0x80 }
  - { offset: 0x48E22, size: 0x8, addend: 0x0, symName: '__ZN4core4cell4once17OnceCell$LT$T$GT$8try_init17h4233e7fefa30ef91E', symObjAddr: 0x27AC4, symBinAddr: 0x10004C794, symSize: 0x1A64 }
  - { offset: 0x4C27E, size: 0x8, addend: 0x0, symName: '__ZN4core4cell4once17OnceCell$LT$T$GT$8try_init17hc6312a19a1a77d35E', symObjAddr: 0x29528, symBinAddr: 0x10004E1F8, symSize: 0xC24 }
  - { offset: 0x4DBDB, size: 0x8, addend: 0x0, symName: '__ZN4core4cell4once17OnceCell$LT$T$GT$8try_init17hcb2a62d93e38dee1E', symObjAddr: 0x2A14C, symBinAddr: 0x10004EE1C, symSize: 0x60 }
  - { offset: 0x4DBF9, size: 0x8, addend: 0x0, symName: '__ZN4core4cell4once17OnceCell$LT$T$GT$8try_init17hcb2a62d93e38dee1E', symObjAddr: 0x2A14C, symBinAddr: 0x10004EE1C, symSize: 0x60 }
  - { offset: 0x4DC0E, size: 0x8, addend: 0x0, symName: '__ZN4core4cell4once17OnceCell$LT$T$GT$8try_init17hcb2a62d93e38dee1E', symObjAddr: 0x2A14C, symBinAddr: 0x10004EE1C, symSize: 0x60 }
  - { offset: 0x4DC22, size: 0x8, addend: 0x0, symName: '__ZN4core4cell4once17OnceCell$LT$T$GT$8try_init17hcb2a62d93e38dee1E', symObjAddr: 0x2A14C, symBinAddr: 0x10004EE1C, symSize: 0x60 }
  - { offset: 0x4DC79, size: 0x8, addend: 0x0, symName: '__ZN4core4cell4once17OnceCell$LT$T$GT$8try_init17hf4832393ad19d4f9E', symObjAddr: 0x2A1AC, symBinAddr: 0x10004EE7C, symSize: 0x110 }
  - { offset: 0x4E465, size: 0x8, addend: 0x0, symName: __ZN4core5error5Error11description17hcf90faf3be666b0fE, symObjAddr: 0x2A3C8, symBinAddr: 0x100026448, symSize: 0x10 }
  - { offset: 0x4E480, size: 0x8, addend: 0x0, symName: __ZN4core5error5Error5cause17h9d8e707b615b1dccE, symObjAddr: 0x2A3D8, symBinAddr: 0x100026458, symSize: 0x8 }
  - { offset: 0x4E49B, size: 0x8, addend: 0x0, symName: __ZN4core5error5Error7provide17hf6f11971797fe577E, symObjAddr: 0x2A3EC, symBinAddr: 0x100026460, symSize: 0x4 }
  - { offset: 0x4E4B6, size: 0x8, addend: 0x0, symName: __ZN4core5error5Error7type_id17hcfbfefb73a50f493E, symObjAddr: 0x2A404, symBinAddr: 0x100026464, symSize: 0x14 }
  - { offset: 0x4E4D5, size: 0x8, addend: 0x0, symName: __ZN4core5error5Error7type_id17hcfbfefb73a50f493E, symObjAddr: 0x2A404, symBinAddr: 0x100026464, symSize: 0x14 }
  - { offset: 0x4E4EF, size: 0x8, addend: 0x0, symName: __ZN4core9panicking13assert_failed17h19670db3f6693dadE, symObjAddr: 0x31F34, symBinAddr: 0x10004EF8C, symSize: 0x34 }
  - { offset: 0x4E50B, size: 0x8, addend: 0x0, symName: __ZN4core9panicking13assert_failed17h380ae13b39a456adE, symObjAddr: 0x31F68, symBinAddr: 0x10004EFC0, symSize: 0x24 }
  - { offset: 0x4E533, size: 0x8, addend: 0x0, symName: __RNvCskdKJRKLKjqM_7___rustc10rust_panic, symObjAddr: 0x0, symBinAddr: 0x10004B5AC, symSize: 0x60 }
  - { offset: 0x4E564, size: 0x8, addend: 0x0, symName: __RNvCskdKJRKLKjqM_7___rustc17___rust_drop_panic, symObjAddr: 0x1B0, symBinAddr: 0x100013DB4, symSize: 0xBC }
  - { offset: 0x4E759, size: 0x8, addend: 0x0, symName: __RNvCskdKJRKLKjqM_7___rustc17rust_begin_unwind, symObjAddr: 0x26C, symBinAddr: 0x100013E70, symSize: 0x20 }
  - { offset: 0x4E78A, size: 0x8, addend: 0x0, symName: __RNvCskdKJRKLKjqM_7___rustc24___rust_foreign_exception, symObjAddr: 0x31C, symBinAddr: 0x100013F20, symSize: 0xBC }
  - { offset: 0x4E9FD, size: 0x8, addend: 0x0, symName: __ZN3std9panicking11panic_count17is_zero_slow_path17h24290651bb572e96E, symObjAddr: 0x21B78, symBinAddr: 0x10004C0A8, symSize: 0x2C }
  - { offset: 0x4EAAC, size: 0x8, addend: 0x0, symName: __ZN3std9panicking11panic_count8increase17h90668b12758c90deE, symObjAddr: 0x21C08, symBinAddr: 0x100022E54, symSize: 0x64 }
  - { offset: 0x4EAC3, size: 0x8, addend: 0x0, symName: __ZN3std9panicking11panic_count8increase17h90668b12758c90deE, symObjAddr: 0x21C08, symBinAddr: 0x100022E54, symSize: 0x64 }
  - { offset: 0x4EAD8, size: 0x8, addend: 0x0, symName: __ZN3std9panicking11panic_count8increase17h90668b12758c90deE, symObjAddr: 0x21C08, symBinAddr: 0x100022E54, symSize: 0x64 }
  - { offset: 0x4EC84, size: 0x8, addend: 0x0, symName: __ZN3std9panicking12default_hook17hff9145c2c6e89cdfE, symObjAddr: 0x21CD0, symBinAddr: 0x100022EB8, symSize: 0x13C }
  - { offset: 0x4EE11, size: 0x8, addend: 0x0, symName: '__ZN3std9panicking12default_hook28_$u7b$$u7b$closure$u7d$$u7d$17hbcaf474e707f3b7dE', symObjAddr: 0x21E0C, symBinAddr: 0x100022FF4, symSize: 0x19C }
  - { offset: 0x4EFE8, size: 0x8, addend: 0x0, symName: '__ZN3std9panicking12default_hook28_$u7b$$u7b$closure$u7d$$u7d$28_$u7b$$u7b$closure$u7d$$u7d$17he4e4856f72e7e2dfE', symObjAddr: 0x21FA8, symBinAddr: 0x100023190, symSize: 0x314 }
  - { offset: 0x4F615, size: 0x8, addend: 0x0, symName: __ZN3std9panicking13panic_handler19FormatStringPayload4fill17h49f06b785e976a61E, symObjAddr: 0x222BC, symBinAddr: 0x1000234A4, symSize: 0xB8 }
  - { offset: 0x4F732, size: 0x8, addend: 0x0, symName: '__ZN3std9panicking13panic_handler28_$u7b$$u7b$closure$u7d$$u7d$17h42f8d27eb97efb5cE', symObjAddr: 0x22374, symBinAddr: 0x10002355C, symSize: 0xC0 }
  - { offset: 0x4F88E, size: 0x8, addend: 0x0, symName: '__ZN86_$LT$std..panicking..panic_handler..StaticStrPayload$u20$as$u20$core..fmt..Display$GT$3fmt17h23daa1d361c20ad8E', symObjAddr: 0x4B230, symBinAddr: 0x10003AB30, symSize: 0x10 }
  - { offset: 0x4F8AF, size: 0x8, addend: 0x0, symName: '__ZN89_$LT$std..panicking..panic_handler..FormatStringPayload$u20$as$u20$core..fmt..Display$GT$3fmt17h96c36f262cceff4fE', symObjAddr: 0x4B5E4, symBinAddr: 0x10003AB40, symSize: 0x6C }
  - { offset: 0x4F9A3, size: 0x8, addend: 0x0, symName: '__ZN93_$LT$std..panicking..panic_handler..StaticStrPayload$u20$as$u20$core..panic..PanicPayload$GT$3get17h9446d3bfcd75a0d7E', symObjAddr: 0x4BC54, symBinAddr: 0x10003AC14, symSize: 0xC }
  - { offset: 0x4F9BE, size: 0x8, addend: 0x0, symName: '__ZN93_$LT$std..panicking..panic_handler..StaticStrPayload$u20$as$u20$core..panic..PanicPayload$GT$6as_str17hdc3733a5b5cc28baE', symObjAddr: 0x4BC60, symBinAddr: 0x10003AC20, symSize: 0xC }
  - { offset: 0x4F9D9, size: 0x8, addend: 0x0, symName: '__ZN93_$LT$std..panicking..panic_handler..StaticStrPayload$u20$as$u20$core..panic..PanicPayload$GT$8take_box17h6400803d1e475458E', symObjAddr: 0x4BC6C, symBinAddr: 0x10003AC2C, symSize: 0x48 }
  - { offset: 0x4FA56, size: 0x8, addend: 0x0, symName: '__ZN96_$LT$std..panicking..panic_handler..FormatStringPayload$u20$as$u20$core..panic..PanicPayload$GT$3get17he69c34545aa12e4dE', symObjAddr: 0x4C2D4, symBinAddr: 0x10003AFD4, symSize: 0x1C }
  - { offset: 0x4FA71, size: 0x8, addend: 0x0, symName: '__ZN96_$LT$std..panicking..panic_handler..FormatStringPayload$u20$as$u20$core..panic..PanicPayload$GT$8take_box17hb2deabfa34b702e6E', symObjAddr: 0x4C2F0, symBinAddr: 0x10003AFF0, symSize: 0x8C }
  - { offset: 0x4FBC3, size: 0x8, addend: 0x0, symName: __ZN3std9panicking14payload_as_str17ha2e19316e5057f13E, symObjAddr: 0x224EC, symBinAddr: 0x10002361C, symSize: 0xC8 }
  - { offset: 0x4FD08, size: 0x8, addend: 0x0, symName: __ZN3std9panicking15panic_with_hook17he6431e171a67d1a5E, symObjAddr: 0x225B4, symBinAddr: 0x1000236E4, symSize: 0x390 }
  - { offset: 0x505B9, size: 0x8, addend: 0x0, symName: '__ZN102_$LT$std..sys..process..unix..common..cstring_array..CStringArray$u20$as$u20$core..ops..drop..Drop$GT$4drop17hee720c09383e4bd2E', symObjAddr: 0x3F0, symBinAddr: 0x100013FDC, symSize: 0x6C }
  - { offset: 0x507FF, size: 0x8, addend: 0x0, symName: '__ZN3std3sys7process4unix4unix58_$LT$impl$u20$std..sys..process..unix..common..Command$GT$5spawn17hfcbbc52437fe5f4aE', symObjAddr: 0x18DCC, symBinAddr: 0x10001F444, symSize: 0x95C }
  - { offset: 0x518D5, size: 0x8, addend: 0x0, symName: '__ZN3std3sys7process4unix4unix58_$LT$impl$u20$std..sys..process..unix..common..Command$GT$7do_exec17h26b1e14ede09e6b2E', symObjAddr: 0x19728, symBinAddr: 0x10001FDA0, symSize: 0x32C }
  - { offset: 0x5209E, size: 0x8, addend: 0x0, symName: __ZN3std3sys7process4unix6common7Command11capture_env17h8b4259b5459d513fE, symObjAddr: 0x19C2C, symBinAddr: 0x1000202A4, symSize: 0xB98 }
  - { offset: 0x54357, size: 0x8, addend: 0x0, symName: __ZN3std3sys7process4unix6common7Command3arg17h5808cfe571359bb4E, symObjAddr: 0x1A7C4, symBinAddr: 0x100020E3C, symSize: 0xEC }
  - { offset: 0x5466F, size: 0x8, addend: 0x0, symName: __ZN3std3sys7process4unix6common7Command3new17h311354af76aefa00E, symObjAddr: 0x1A984, symBinAddr: 0x100020F28, symSize: 0x288 }
  - { offset: 0x54BC9, size: 0x8, addend: 0x0, symName: __ZN3std3sys7process4unix6common7Command8setup_io17hfff349106e5eb2d7E, symObjAddr: 0x1AE48, symBinAddr: 0x1000211B0, symSize: 0x2F8 }
  - { offset: 0x5501F, size: 0x8, addend: 0x0, symName: __ZN3std3sys7process4unix6common5Stdio14to_child_stdio17hf579c16cd28b5667E, symObjAddr: 0x19AF0, symBinAddr: 0x100020168, symSize: 0x13C }
  - { offset: 0x55202, size: 0x8, addend: 0x0, symName: __ZN3std3sys7process4unix4unix7Process4wait17h3cbedff82d34e9e8E, symObjAddr: 0x19A54, symBinAddr: 0x1000200CC, symSize: 0x9C }
  - { offset: 0x5533C, size: 0x8, addend: 0x0, symName: '__ZN80_$LT$std..sys..process..unix..unix..ExitStatus$u20$as$u20$core..fmt..Display$GT$3fmt17h9fe35effc79578f5E', symObjAddr: 0x49E68, symBinAddr: 0x10003A600, symSize: 0x208 }
  - { offset: 0x555AB, size: 0x8, addend: 0x0, symName: __ZN3std3sys3pal6common14small_c_string24run_with_cstr_allocating17h798411b79b11fd56E, symObjAddr: 0x16B5C, symBinAddr: 0x10004B87C, symSize: 0xA4 }
  - { offset: 0x55702, size: 0x8, addend: 0x0, symName: __ZN3std3sys3pal6common14small_c_string24run_with_cstr_allocating17h99e236d7e8506142E, symObjAddr: 0x16C00, symBinAddr: 0x10004B920, symSize: 0xB4 }
  - { offset: 0x558CB, size: 0x8, addend: 0x0, symName: __ZN3std3sys3pal6common14small_c_string24run_with_cstr_allocating17hee1175bf1c9e834cE, symObjAddr: 0x16EFC, symBinAddr: 0x10004B9D4, symSize: 0xC0 }
  - { offset: 0x55AD9, size: 0x8, addend: 0x0, symName: __ZN3std3sys3pal4unix14stack_overflow11thread_info16set_current_info17h02534502962db8e5E, symObjAddr: 0x14D00, symBinAddr: 0x10001D8A4, symSize: 0x950 }
  - { offset: 0x56E74, size: 0x8, addend: 0x0, symName: __ZN3std3sys3pal4unix14stack_overflow3imp12drop_handler17hc9fb2befc4b4b16bE, symObjAddr: 0x15650, symBinAddr: 0x10001E1F4, symSize: 0x3A4 }
  - { offset: 0x576B4, size: 0x8, addend: 0x0, symName: __ZN3std3sys3pal4unix14stack_overflow3imp12make_handler17h894f5618496a4a4dE, symObjAddr: 0x159F4, symBinAddr: 0x10001E598, symSize: 0x234 }
  - { offset: 0x57A77, size: 0x8, addend: 0x0, symName: __ZN3std3sys3pal4unix14stack_overflow3imp14signal_handler17h7e8c2c206c160b5eE, symObjAddr: 0x15C28, symBinAddr: 0x10001E7CC, symSize: 0x2A8 }
  - { offset: 0x580CC, size: 0x8, addend: 0x0, symName: __ZN3std3sys3pal4unix4sync5mutex5Mutex4init17h3dc7e68cdddb15ffE, symObjAddr: 0x16564, symBinAddr: 0x10001EF68, symSize: 0x16C }
  - { offset: 0x5819D, size: 0x8, addend: 0x0, symName: __ZN3std3sys3pal4unix4sync5mutex5Mutex4lock4fail17h626389f0d772d537E, symObjAddr: 0x166EC, symBinAddr: 0x10004B798, symSize: 0xE4 }
  - { offset: 0x58467, size: 0x8, addend: 0x0, symName: __ZN3std3sys3pal4unix14abort_internal17h8d76cac37bc1e660E, symObjAddr: 0x14CF4, symBinAddr: 0x10004B78C, symSize: 0xC }
  - { offset: 0x58482, size: 0x8, addend: 0x0, symName: __ZN3std3sys3pal4unix17decode_error_kind17hb6d24ea5e3e2f6a1E, symObjAddr: 0x15ED0, symBinAddr: 0x10001EA74, symSize: 0x150 }
  - { offset: 0x584D4, size: 0x8, addend: 0x0, symName: __ZN3std3sys3pal4unix4pipe5read217hebc7a8d2c573a493E, symObjAddr: 0x161C0, symBinAddr: 0x10001EBC4, symSize: 0x22C }
  - { offset: 0x588D2, size: 0x8, addend: 0x0, symName: __ZN3std3sys3pal4unix4pipe8AnonPipe5write17h29011c4a1bb3d17eE, symObjAddr: 0x163EC, symBinAddr: 0x10001EDF0, symSize: 0x50 }
  - { offset: 0x589C9, size: 0x8, addend: 0x0, symName: __ZN3std3sys3pal4unix4pipe9anon_pipe17h8d6a328f4fe59a7fE, symObjAddr: 0x1643C, symBinAddr: 0x10001EE40, symSize: 0x128 }
  - { offset: 0x58D3E, size: 0x8, addend: 0x0, symName: __ZN3std3sys12thread_local6native5eager7destroy17h30ed59e6126037efE, symObjAddr: 0xF88C, symBinAddr: 0x10001CFA0, symSize: 0x2C }
  - { offset: 0x58ED4, size: 0x8, addend: 0x0, symName: __ZN3std3sys12thread_local5guard5apple6enable9run_dtors17h8979e0b3d1187c7fE, symObjAddr: 0xF794, symBinAddr: 0x10001CEA8, symSize: 0xF8 }
  - { offset: 0x593A9, size: 0x8, addend: 0x0, symName: __ZN3std3sys12thread_local11destructors4list8register17he85c11a1c2ed5827E, symObjAddr: 0xF67C, symBinAddr: 0x10001CD90, symSize: 0x118 }
  - { offset: 0x5970F, size: 0x8, addend: 0x0, symName: __ZN3std3sys3env4unix13env_read_lock17h0f43be51d1951982E, symObjAddr: 0x1398C, symBinAddr: 0x10001D52C, symSize: 0x230 }
  - { offset: 0x59DF9, size: 0x8, addend: 0x0, symName: '__ZN3std3sys3env4unix6getenv28_$u7b$$u7b$closure$u7d$$u7d$17h8142d75fd75589c4E', symObjAddr: 0x13BBC, symBinAddr: 0x10001D75C, symSize: 0x148 }
  - { offset: 0x5A0F0, size: 0x8, addend: 0x0, symName: __ZN3std3sys2fs4unix4File6open_c17h8b4308debc18b247E, symObjAddr: 0x12348, symBinAddr: 0x10001D1F0, symSize: 0x1A0 }
  - { offset: 0x5A273, size: 0x8, addend: 0x0, symName: '__ZN65_$LT$std..sys..fs..unix..Dir$u20$as$u20$core..ops..drop..Drop$GT$4drop17hb27d2dcfbde0f4f8E', symObjAddr: 0x45A50, symBinAddr: 0x1000396D8, symSize: 0xC8 }
  - { offset: 0x5A352, size: 0x8, addend: 0x0, symName: __ZN3std3sys2fs8read_dir17h01b537fe6e853e47E, symObjAddr: 0x13500, symBinAddr: 0x10001D390, symSize: 0x19C }
  - { offset: 0x5A764, size: 0x8, addend: 0x0, symName: __ZN3std3sys2fd4unix8FileDesc11read_to_end17h90678055a872cb01E, symObjAddr: 0x10B8C, symBinAddr: 0x10001CFCC, symSize: 0x224 }
  - { offset: 0x5ABFD, size: 0x8, addend: 0x0, symName: '__ZN64_$LT$std..sys..stdio..unix..Stderr$u20$as$u20$std..io..Write$GT$14write_vectored17hc6a0fe94280856b7E', symObjAddr: 0x457B4, symBinAddr: 0x100039620, symSize: 0x54 }
  - { offset: 0x5ACD3, size: 0x8, addend: 0x0, symName: '__ZN64_$LT$std..sys..stdio..unix..Stderr$u20$as$u20$std..io..Write$GT$17is_write_vectored17ha5fe1632aa356e69E', symObjAddr: 0x45808, symBinAddr: 0x100039674, symSize: 0x8 }
  - { offset: 0x5ACED, size: 0x8, addend: 0x0, symName: '__ZN64_$LT$std..sys..stdio..unix..Stderr$u20$as$u20$std..io..Write$GT$5flush17h9c44c0bc84723652E', symObjAddr: 0x45810, symBinAddr: 0x10003967C, symSize: 0x8 }
  - { offset: 0x5AD07, size: 0x8, addend: 0x0, symName: '__ZN64_$LT$std..sys..stdio..unix..Stderr$u20$as$u20$std..io..Write$GT$5write17hb65269e8ba794fd5E', symObjAddr: 0x45818, symBinAddr: 0x100039684, symSize: 0x54 }
  - { offset: 0x5AE68, size: 0x8, addend: 0x0, symName: '__ZN3std3sys4sync8once_box16OnceBox$LT$T$GT$10initialize17hb710239f2ab0be2bE', symObjAddr: 0x18054, symBinAddr: 0x10004BD2C, symSize: 0xE4 }
  - { offset: 0x5B12A, size: 0x8, addend: 0x0, symName: __ZN3std3sys4sync4once5queue4Once4call17hd1bb46051256f23fE, symObjAddr: 0x1736C, symBinAddr: 0x10004BA94, symSize: 0x218 }
  - { offset: 0x5B40C, size: 0x8, addend: 0x0, symName: '__ZN82_$LT$std..sys..sync..once..queue..WaiterQueue$u20$as$u20$core..ops..drop..Drop$GT$4drop17h7f1d4befd79eb70eE', symObjAddr: 0x4AD40, symBinAddr: 0x10003AA50, symSize: 0xE0 }
  - { offset: 0x5B603, size: 0x8, addend: 0x0, symName: __ZN3std3sys4sync4once5queue4wait17hfd76cbd9a064ab39E, symObjAddr: 0x17764, symBinAddr: 0x10001F0D4, symSize: 0x184 }
  - { offset: 0x5BB98, size: 0x8, addend: 0x0, symName: __ZN3std3sys4sync6rwlock5queue6RwLock12unlock_queue17h6341a139252af1a4E, symObjAddr: 0x178FC, symBinAddr: 0x10001F258, symSize: 0x1CC }
  - { offset: 0x5C1FA, size: 0x8, addend: 0x0, symName: __ZN3std3sys4sync6rwlock5queue6RwLock16unlock_contended17hd5d9b4bea5b136d5E, symObjAddr: 0x17DC4, symBinAddr: 0x10004BCAC, symSize: 0x40 }
  - { offset: 0x5C2C1, size: 0x8, addend: 0x0, symName: __ZN3std3sys4sync6rwlock5queue6RwLock21read_unlock_contended17hf10ad3e8d16e983dE, symObjAddr: 0x17E04, symBinAddr: 0x10004BCEC, symSize: 0x40 }
  - { offset: 0x5C2DF, size: 0x8, addend: 0x0, symName: __ZN3std3sys4sync6rwlock5queue6RwLock21read_unlock_contended17hf10ad3e8d16e983dE, symObjAddr: 0x17E04, symBinAddr: 0x10004BCEC, symSize: 0x40 }
  - { offset: 0x5C2F4, size: 0x8, addend: 0x0, symName: __ZN3std3sys4sync6rwlock5queue6RwLock21read_unlock_contended17hf10ad3e8d16e983dE, symObjAddr: 0x17E04, symBinAddr: 0x10004BCEC, symSize: 0x40 }
  - { offset: 0x5C519, size: 0x8, addend: 0x0, symName: __ZN3std3sys4sync6rwlock5queue9read_lock17he5ccf40565f845d6E, symObjAddr: 0x17E44, symBinAddr: 0x10001F424, symSize: 0x20 }
  - { offset: 0x5C532, size: 0x8, addend: 0x0, symName: '__ZN83_$LT$std..sys..sync..rwlock..queue..PanicGuard$u20$as$u20$core..ops..drop..Drop$GT$4drop17h5297df96adf6f25aE', symObjAddr: 0x4AFC0, symBinAddr: 0x10004F15C, symSize: 0x44 }
  - { offset: 0x5C5F7, size: 0x8, addend: 0x0, symName: '__ZN3std3sys11personality3gcc14find_eh_action28_$u7b$$u7b$closure$u7d$$u7d$17h3ded5c67f5e06d18E', symObjAddr: 0xF51C, symBinAddr: 0x10001CC30, symSize: 0xC }
  - { offset: 0x5C60B, size: 0x8, addend: 0x0, symName: '__ZN3std3sys11personality3gcc14find_eh_action28_$u7b$$u7b$closure$u7d$$u7d$17hc6e49a652099b2faE', symObjAddr: 0xF528, symBinAddr: 0x10001CC3C, symSize: 0xC }
  - { offset: 0x5C657, size: 0x8, addend: 0x0, symName: _rust_eh_personality, symObjAddr: 0x4F004, symBinAddr: 0x10003DA2C, symSize: 0x378 }
  - { offset: 0x5C9A1, size: 0x8, addend: 0x0, symName: __ZN3std3sys11personality5dwarf2eh19read_encoded_offset17h4247a370d6a78c9aE, symObjAddr: 0xF534, symBinAddr: 0x10001CC48, symSize: 0x148 }
  - { offset: 0x5CAF7, size: 0x8, addend: 0x0, symName: '__ZN3std3sys9backtrace10_print_fmt28_$u7b$$u7b$closure$u7d$$u7d$17h64c635585236989fE', symObjAddr: 0x1B278, symBinAddr: 0x1000214A8, symSize: 0x24 }
  - { offset: 0x5CB20, size: 0x8, addend: 0x0, symName: '__ZN3std3sys9backtrace10_print_fmt28_$u7b$$u7b$closure$u7d$$u7d$17ha7bccce4e6c2a239E', symObjAddr: 0x1B29C, symBinAddr: 0x1000214CC, symSize: 0x134 }
  - { offset: 0x5CC34, size: 0x8, addend: 0x0, symName: '__ZN3std3sys9backtrace10_print_fmt28_$u7b$$u7b$closure$u7d$$u7d$28_$u7b$$u7b$closure$u7d$$u7d$17h98603fdd5adbbfdcE', symObjAddr: 0x1B3D0, symBinAddr: 0x100021600, symSize: 0x25C }
  - { offset: 0x5CE51, size: 0x8, addend: 0x0, symName: __ZN3std3sys9backtrace13BacktraceLock5print17hea663f6050de4073E, symObjAddr: 0x1B62C, symBinAddr: 0x10002185C, symSize: 0x54 }
  - { offset: 0x5CE82, size: 0x8, addend: 0x0, symName: __ZN3std3sys9backtrace15output_filename17h6da850852b2497bfE, symObjAddr: 0x1B680, symBinAddr: 0x1000218B0, symSize: 0xF4 }
  - { offset: 0x5CFD0, size: 0x8, addend: 0x0, symName: __ZN3std3sys9backtrace26__rust_end_short_backtrace17h0de35f7407a5e0d8E, symObjAddr: 0x1B774, symBinAddr: 0x1000219A4, symSize: 0xC }
  - { offset: 0x5CFEA, size: 0x8, addend: 0x0, symName: __ZN3std3sys9backtrace4lock17h2199d00fb77a2766E, symObjAddr: 0x1B78C, symBinAddr: 0x1000219B0, symSize: 0x70 }
  - { offset: 0x5D157, size: 0x8, addend: 0x0, symName: '__ZN98_$LT$std..sys..backtrace..BacktraceLock..print..DisplayBacktrace$u20$as$u20$core..fmt..Display$GT$3fmt17hfd528c9d14c1136fE', symObjAddr: 0x4C548, symBinAddr: 0x10003B07C, symSize: 0x210 }
  - { offset: 0x5D648, size: 0x8, addend: 0x0, symName: __RNvCskdKJRKLKjqM_7___rustc11___rdl_alloc, symObjAddr: 0x60, symBinAddr: 0x100013C70, symSize: 0x6C }
  - { offset: 0x5D6C6, size: 0x8, addend: 0x0, symName: __RNvCskdKJRKLKjqM_7___rustc13___rdl_dealloc, symObjAddr: 0xD8, symBinAddr: 0x100013CDC, symSize: 0x4 }
  - { offset: 0x5D6E4, size: 0x8, addend: 0x0, symName: __RNvCskdKJRKLKjqM_7___rustc13___rdl_dealloc, symObjAddr: 0xD8, symBinAddr: 0x100013CDC, symSize: 0x4 }
  - { offset: 0x5D6F7, size: 0x8, addend: 0x0, symName: __RNvCskdKJRKLKjqM_7___rustc13___rdl_realloc, symObjAddr: 0xDC, symBinAddr: 0x100013CE0, symSize: 0xD4 }
  - { offset: 0x5D7CB, size: 0x8, addend: 0x0, symName: __RNvCskdKJRKLKjqM_7___rustc18___rdl_alloc_zeroed, symObjAddr: 0x28C, symBinAddr: 0x100013E90, symSize: 0x90 }
  - { offset: 0x5D870, size: 0x8, addend: 0x0, symName: __RNvCskdKJRKLKjqM_7___rustc8___rg_oom, symObjAddr: 0x3D8, symBinAddr: 0x10004B60C, symSize: 0x18 }
  - { offset: 0x5D88C, size: 0x8, addend: 0x0, symName: __ZN3std5alloc24default_alloc_error_hook17hda855b09bf8ce5bfE, symObjAddr: 0x1F3C0, symBinAddr: 0x10002272C, symSize: 0x140 }
  - { offset: 0x5DAC3, size: 0x8, addend: 0x0, symName: __ZN3std5alloc8rust_oom17h64a98ce1b291034bE, symObjAddr: 0x1F500, symBinAddr: 0x10004BED4, symSize: 0x2C }
  - { offset: 0x5DB10, size: 0x8, addend: 0x0, symName: __ZN3std2rt15handle_rt_panic17hd7a3741be038ff7bE, symObjAddr: 0xC6A4, symBinAddr: 0x10004B748, symSize: 0x44 }
  - { offset: 0x5DBA0, size: 0x8, addend: 0x0, symName: __ZN3std2rt19lang_start_internal17hd700ba983d3377dcE, symObjAddr: 0xC6E8, symBinAddr: 0x10001BE88, symSize: 0x6E4 }
  - { offset: 0x5E7E3, size: 0x8, addend: 0x0, symName: __ZN3std2io5error14repr_bitpacked11decode_repr17he0232b2b9818a582E, symObjAddr: 0x9D4C, symBinAddr: 0x10001AFE0, symSize: 0x60 }
  - { offset: 0x5E869, size: 0x8, addend: 0x0, symName: __ZN3std2io5error5Error3new17hb0366e1179bed02aE, symObjAddr: 0x9E70, symBinAddr: 0x10001B040, symSize: 0x128 }
  - { offset: 0x5ECA0, size: 0x8, addend: 0x0, symName: '__ZN3std2io5error83_$LT$impl$u20$core..fmt..Debug$u20$for$u20$std..io..error..repr_bitpacked..Repr$GT$3fmt17hc5e272b72661a34bE', symObjAddr: 0xA014, symBinAddr: 0x10001B168, symSize: 0x294 }
  - { offset: 0x5EEF8, size: 0x8, addend: 0x0, symName: '__ZN58_$LT$std..io..error..Error$u20$as$u20$core..fmt..Debug$GT$3fmt17h4bd0f28bf79564b3E', symObjAddr: 0x34100, symBinAddr: 0x10002E51C, symSize: 0x4 }
  - { offset: 0x5EF12, size: 0x8, addend: 0x0, symName: '__ZN60_$LT$std..io..error..Error$u20$as$u20$core..fmt..Display$GT$3fmt17h96a3add2cd05308dE', symObjAddr: 0x419AC, symBinAddr: 0x100038DD8, symSize: 0x208 }
  - { offset: 0x5F145, size: 0x8, addend: 0x0, symName: '__ZN62_$LT$std..io..error..ErrorKind$u20$as$u20$core..fmt..Debug$GT$3fmt17hcbf070d750c729a3E', symObjAddr: 0x445F0, symBinAddr: 0x1000394FC, symSize: 0x28 }
  - { offset: 0x5F1CB, size: 0x8, addend: 0x0, symName: '__ZN3std2io8buffered9bufwriter18BufWriter$LT$W$GT$14write_all_cold17h513e838fe8161279E', symObjAddr: 0xB1E8, symBinAddr: 0x10004B624, symSize: 0x124 }
  - { offset: 0x5F41F, size: 0x8, addend: 0x0, symName: '__ZN3std2io8buffered9bufwriter18BufWriter$LT$W$GT$9flush_buf17h29164ec56610038eE', symObjAddr: 0xB30C, symBinAddr: 0x10001BCA8, symSize: 0x1E0 }
  - { offset: 0x5F9B7, size: 0x8, addend: 0x0, symName: __ZN3std2io5Write18write_all_vectored17he688a1b06e8bbb4fE, symObjAddr: 0x9744, symBinAddr: 0x10001A9D8, symSize: 0x1B4 }
  - { offset: 0x5FC11, size: 0x8, addend: 0x0, symName: __ZN3std2io5Write9write_all17hfca7eea50e527240E, symObjAddr: 0x98F8, symBinAddr: 0x10001AB8C, symSize: 0xAC }
  - { offset: 0x5FD01, size: 0x8, addend: 0x0, symName: __ZN3std2io5Write9write_fmt17h0a4c2886d71240f6E, symObjAddr: 0x99A4, symBinAddr: 0x10001AC38, symSize: 0x138 }
  - { offset: 0x5FF4B, size: 0x8, addend: 0x0, symName: __ZN3std2io5Write9write_fmt17h93365632ab64a6f8E, symObjAddr: 0x9ADC, symBinAddr: 0x10001AD70, symSize: 0x138 }
  - { offset: 0x60195, size: 0x8, addend: 0x0, symName: __ZN3std2io5Write9write_fmt17hc70e63382e9f29d2E, symObjAddr: 0x9C14, symBinAddr: 0x10001AEA8, symSize: 0x138 }
  - { offset: 0x6044A, size: 0x8, addend: 0x0, symName: __ZN3std2io5stdio22try_set_output_capture17h95074c90c7962b08E, symObjAddr: 0xA79C, symBinAddr: 0x10001B7EC, symSize: 0xEC }
  - { offset: 0x606EB, size: 0x8, addend: 0x0, symName: __ZN3std2io5stdio31print_to_buffer_if_capture_used17hcb54b0daa9580ecfE, symObjAddr: 0xA95C, symBinAddr: 0x10001B8D8, symSize: 0x20C }
  - { offset: 0x60DC8, size: 0x8, addend: 0x0, symName: __ZN3std2io5stdio6Stderr4lock17h60123d24c8f9e05cE, symObjAddr: 0xADCC, symBinAddr: 0x10001BAE4, symSize: 0xE4 }
  - { offset: 0x61097, size: 0x8, addend: 0x0, symName: __ZN3std2io5stdio6_print17h31727a912c7756f3E, symObjAddr: 0xAEB0, symBinAddr: 0x10001BBC8, symSize: 0xE0 }
  - { offset: 0x61205, size: 0x8, addend: 0x0, symName: '__ZN61_$LT$$RF$std..io..stdio..Stdout$u20$as$u20$std..io..Write$GT$9write_fmt17h15aba39edd7cf40aE', symObjAddr: 0x42EFC, symBinAddr: 0x100038FE0, symSize: 0x1A0 }
  - { offset: 0x615F9, size: 0x8, addend: 0x0, symName: '__ZN61_$LT$std..io..stdio..StdoutLock$u20$as$u20$std..io..Write$GT$9write_all17ha54dfc02195772b6E', symObjAddr: 0x439C8, symBinAddr: 0x100039180, symSize: 0x248 }
  - { offset: 0x61D54, size: 0x8, addend: 0x0, symName: '__ZN3std2io5impls74_$LT$impl$u20$std..io..Write$u20$for$u20$alloc..vec..Vec$LT$u8$C$A$GT$$GT$14write_vectored17h98b0b37e86837edcE', symObjAddr: 0xA2A8, symBinAddr: 0x10001B3FC, symSize: 0x174 }
  - { offset: 0x61FA1, size: 0x8, addend: 0x0, symName: '__ZN3std2io5impls74_$LT$impl$u20$std..io..Write$u20$for$u20$alloc..vec..Vec$LT$u8$C$A$GT$$GT$17is_write_vectored17h87e7f9fb9fdbeb17E', symObjAddr: 0xA41C, symBinAddr: 0x10001B570, symSize: 0x8 }
  - { offset: 0x61FCA, size: 0x8, addend: 0x0, symName: '__ZN3std2io5impls74_$LT$impl$u20$std..io..Write$u20$for$u20$alloc..vec..Vec$LT$u8$C$A$GT$$GT$18write_all_vectored17h61357489be1d2a24E', symObjAddr: 0xA424, symBinAddr: 0x10001B578, symSize: 0x168 }
  - { offset: 0x61FF5, size: 0x8, addend: 0x0, symName: '__ZN3std2io5impls74_$LT$impl$u20$std..io..Write$u20$for$u20$alloc..vec..Vec$LT$u8$C$A$GT$$GT$18write_all_vectored17h61357489be1d2a24E', symObjAddr: 0xA424, symBinAddr: 0x10001B578, symSize: 0x168 }
  - { offset: 0x6200A, size: 0x8, addend: 0x0, symName: '__ZN3std2io5impls74_$LT$impl$u20$std..io..Write$u20$for$u20$alloc..vec..Vec$LT$u8$C$A$GT$$GT$18write_all_vectored17h61357489be1d2a24E', symObjAddr: 0xA424, symBinAddr: 0x10001B578, symSize: 0x168 }
  - { offset: 0x6201F, size: 0x8, addend: 0x0, symName: '__ZN3std2io5impls74_$LT$impl$u20$std..io..Write$u20$for$u20$alloc..vec..Vec$LT$u8$C$A$GT$$GT$18write_all_vectored17h61357489be1d2a24E', symObjAddr: 0xA424, symBinAddr: 0x10001B578, symSize: 0x168 }
  - { offset: 0x62033, size: 0x8, addend: 0x0, symName: '__ZN3std2io5impls74_$LT$impl$u20$std..io..Write$u20$for$u20$alloc..vec..Vec$LT$u8$C$A$GT$$GT$18write_all_vectored17h61357489be1d2a24E', symObjAddr: 0xA424, symBinAddr: 0x10001B578, symSize: 0x168 }
  - { offset: 0x6224C, size: 0x8, addend: 0x0, symName: '__ZN3std2io5impls74_$LT$impl$u20$std..io..Write$u20$for$u20$alloc..vec..Vec$LT$u8$C$A$GT$$GT$5flush17h7f80fd90e7fc18cdE', symObjAddr: 0xA58C, symBinAddr: 0x10001B6E0, symSize: 0x8 }
  - { offset: 0x62267, size: 0x8, addend: 0x0, symName: '__ZN3std2io5impls74_$LT$impl$u20$std..io..Write$u20$for$u20$alloc..vec..Vec$LT$u8$C$A$GT$$GT$5write17h4a6ebd7f00c1e3b6E', symObjAddr: 0xA594, symBinAddr: 0x10001B6E8, symSize: 0x84 }
  - { offset: 0x623AC, size: 0x8, addend: 0x0, symName: '__ZN3std2io5impls74_$LT$impl$u20$std..io..Write$u20$for$u20$alloc..vec..Vec$LT$u8$C$A$GT$$GT$9write_all17h7a06a95410051fe1E', symObjAddr: 0xA618, symBinAddr: 0x10001B76C, symSize: 0x80 }
  - { offset: 0x62513, size: 0x8, addend: 0x0, symName: __ZN3std2io19default_read_to_end16small_probe_read17hbff59304ba40a22dE, symObjAddr: 0x8DD8, symBinAddr: 0x10001A594, symSize: 0xEC }
  - { offset: 0x6271B, size: 0x8, addend: 0x0, symName: __ZN3std2io19default_read_to_end16small_probe_read17hf462e356365ca663E, symObjAddr: 0x8EC4, symBinAddr: 0x10001A680, symSize: 0xEC }
  - { offset: 0x6294E, size: 0x8, addend: 0x0, symName: __ZN3std2io19default_read_to_end17hd99b2e7f6410edc7E, symObjAddr: 0x9470, symBinAddr: 0x10001A76C, symSize: 0x26C }
  - { offset: 0x62EF4, size: 0x8, addend: 0x0, symName: '__ZN81_$LT$std..io..default_write_fmt..Adapter$LT$T$GT$$u20$as$u20$core..fmt..Write$GT$9write_str17h12683b88d4f37dd7E', symObjAddr: 0x4A168, symBinAddr: 0x10003A808, symSize: 0x50 }
  - { offset: 0x62F1E, size: 0x8, addend: 0x0, symName: '__ZN81_$LT$std..io..default_write_fmt..Adapter$LT$T$GT$$u20$as$u20$core..fmt..Write$GT$9write_str17h284da73b654d1506E', symObjAddr: 0x4A1B8, symBinAddr: 0x10003A858, symSize: 0xD8 }
  - { offset: 0x63031, size: 0x8, addend: 0x0, symName: '__ZN81_$LT$std..io..default_write_fmt..Adapter$LT$T$GT$$u20$as$u20$core..fmt..Write$GT$9write_str17h2db7b0298947a58eE', symObjAddr: 0x4A290, symBinAddr: 0x10003A930, symSize: 0xA0 }
  - { offset: 0x63159, size: 0x8, addend: 0x0, symName: '__ZN81_$LT$std..io..default_write_fmt..Adapter$LT$T$GT$$u20$as$u20$core..fmt..Write$GT$9write_str17h5b7b94f2f70b6cc9E', symObjAddr: 0x4A330, symBinAddr: 0x10003A9D0, symSize: 0x80 }
  - { offset: 0x633A0, size: 0x8, addend: 0x0, symName: __ZN3std4path4Path13_strip_prefix17h649cdf7fe52a9ca4E, symObjAddr: 0x1C7DC, symBinAddr: 0x100021FFC, symSize: 0x21C }
  - { offset: 0x634B0, size: 0x8, addend: 0x0, symName: __ZN3std4path4Path5_join17h54f095185b763ad9E, symObjAddr: 0x1D0D4, symBinAddr: 0x100022218, symSize: 0x1A4 }
  - { offset: 0x63A88, size: 0x8, addend: 0x0, symName: __ZN3std4path10Components15len_before_body17h183e6460ce02202dE, symObjAddr: 0x1B7FC, symBinAddr: 0x100021A20, symSize: 0x18C }
  - { offset: 0x63A9F, size: 0x8, addend: 0x0, symName: __ZN3std4path10Components15len_before_body17h183e6460ce02202dE, symObjAddr: 0x1B7FC, symBinAddr: 0x100021A20, symSize: 0x18C }
  - { offset: 0x63AB4, size: 0x8, addend: 0x0, symName: __ZN3std4path10Components15len_before_body17h183e6460ce02202dE, symObjAddr: 0x1B7FC, symBinAddr: 0x100021A20, symSize: 0x18C }
  - { offset: 0x63C42, size: 0x8, addend: 0x0, symName: __ZN3std4path10Components25parse_next_component_back17h96bead52961e5974E, symObjAddr: 0x1B988, symBinAddr: 0x100021BAC, symSize: 0x12C }
  - { offset: 0x63DA7, size: 0x8, addend: 0x0, symName: __ZN3std4path10Components7as_path17h8b47be53b7bb02abE, symObjAddr: 0x1BAB4, symBinAddr: 0x100021CD8, symSize: 0x324 }
  - { offset: 0x6413F, size: 0x8, addend: 0x0, symName: '__ZN61_$LT$std..path..Component$u20$as$u20$core..cmp..PartialEq$GT$2eq17hcac4c67d1f006796E', symObjAddr: 0x43C18, symBinAddr: 0x1000393C8, symSize: 0x134 }
  - { offset: 0x64299, size: 0x8, addend: 0x0, symName: '__ZN80_$LT$std..path..Components$u20$as$u20$core..iter..traits..iterator..Iterator$GT$4next17hcff4524e130e7a04E', symObjAddr: 0x49B0C, symBinAddr: 0x10003A2A4, symSize: 0x35C }
  - { offset: 0x645AE, size: 0x8, addend: 0x0, symName: '__ZN95_$LT$std..path..Components$u20$as$u20$core..iter..traits..double_ended..DoubleEndedIterator$GT$9next_back17hbbb48aeb24b30ac1E', symObjAddr: 0x4BF38, symBinAddr: 0x10003AC74, symSize: 0x360 }
  - { offset: 0x6477D, size: 0x8, addend: 0x0, symName: __ZN3std7process5abort17he872d13fc606be41E, symObjAddr: 0x20DA8, symBinAddr: 0x10004C09C, symSize: 0xC }
  - { offset: 0x6479D, size: 0x8, addend: 0x0, symName: __ZN3std7process7Command6output17hf44e1086c78a62ecE, symObjAddr: 0x20EC8, symBinAddr: 0x100022B68, symSize: 0x2EC }
  - { offset: 0x64D1C, size: 0x8, addend: 0x0, symName: '__ZN63_$LT$std..process..ExitStatus$u20$as$u20$core..fmt..Display$GT$3fmt17h6601c7b12f077dccE', symObjAddr: 0x44CBC, symBinAddr: 0x100039524, symSize: 0x4 }
  - { offset: 0x64D48, size: 0x8, addend: 0x0, symName: '__ZN118_$LT$std..thread..thread_name_string..ThreadNameString$u20$as$u20$core..convert..From$LT$alloc..string..String$GT$$GT$4from17h3cd36efdc78dbcc3E', symObjAddr: 0xEC0, symBinAddr: 0x100014048, symSize: 0x110 }
  - { offset: 0x65100, size: 0x8, addend: 0x0, symName: __ZN3std6thread7current12init_current17h76e9942ca4b6363dE, symObjAddr: 0x1FF38, symBinAddr: 0x10004BF00, symSize: 0x164 }
  - { offset: 0x65418, size: 0x8, addend: 0x0, symName: __ZN3std6thread7current13current_os_id17h9bf74ead444ae1deE, symObjAddr: 0x2009C, symBinAddr: 0x100022AE0, symSize: 0x88 }
  - { offset: 0x6562B, size: 0x8, addend: 0x0, symName: __ZN3std6thread6Thread3new17hbf5aeb1736bec1e3E, symObjAddr: 0x1FB40, symBinAddr: 0x100022988, symSize: 0x158 }
  - { offset: 0x6595A, size: 0x8, addend: 0x0, symName: __ZN3std6thread8ThreadId3new9exhausted17ha73a828480ec4fa2E, symObjAddr: 0x2026C, symBinAddr: 0x10004C064, symSize: 0x38 }
  - { offset: 0x659DA, size: 0x8, addend: 0x0, symName: __ZN3std12backtrace_rs5print17BacktraceFrameFmt21print_raw_with_column17h3c81486fb0007567E, symObjAddr: 0x1050, symBinAddr: 0x100014180, symSize: 0x438 }
  - { offset: 0x65BE2, size: 0x8, addend: 0x0, symName: __ZN3std12backtrace_rs9backtrace9libunwind5trace8trace_fn17h03c27b8c72497427E, symObjAddr: 0x1488, symBinAddr: 0x1000145B8, symSize: 0x48 }
  - { offset: 0x65C9D, size: 0x8, addend: 0x0, symName: __ZN3std12backtrace_rs9symbolize5gimli4mmap17h8dd225413c7073a4E, symObjAddr: 0x14D0, symBinAddr: 0x100014600, symSize: 0x1DC }
  - { offset: 0x66198, size: 0x8, addend: 0x0, symName: __ZN3std12backtrace_rs9symbolize5gimli5macho11find_header17h057a153a1489d815E, symObjAddr: 0x16AC, symBinAddr: 0x1000147DC, symSize: 0x1D4 }
  - { offset: 0x661B5, size: 0x8, addend: 0x0, symName: __ZN3std12backtrace_rs9symbolize5gimli5macho11find_header17h057a153a1489d815E, symObjAddr: 0x16AC, symBinAddr: 0x1000147DC, symSize: 0x1D4 }
  - { offset: 0x661C9, size: 0x8, addend: 0x0, symName: __ZN3std12backtrace_rs9symbolize5gimli5macho11find_header17h057a153a1489d815E, symObjAddr: 0x16AC, symBinAddr: 0x1000147DC, symSize: 0x1D4 }
  - { offset: 0x661DD, size: 0x8, addend: 0x0, symName: __ZN3std12backtrace_rs9symbolize5gimli5macho11find_header17h057a153a1489d815E, symObjAddr: 0x16AC, symBinAddr: 0x1000147DC, symSize: 0x1D4 }
  - { offset: 0x661F1, size: 0x8, addend: 0x0, symName: __ZN3std12backtrace_rs9symbolize5gimli5macho11find_header17h057a153a1489d815E, symObjAddr: 0x16AC, symBinAddr: 0x1000147DC, symSize: 0x1D4 }
  - { offset: 0x66206, size: 0x8, addend: 0x0, symName: __ZN3std12backtrace_rs9symbolize5gimli5macho11find_header17h057a153a1489d815E, symObjAddr: 0x16AC, symBinAddr: 0x1000147DC, symSize: 0x1D4 }
  - { offset: 0x6621B, size: 0x8, addend: 0x0, symName: __ZN3std12backtrace_rs9symbolize5gimli5macho11find_header17h057a153a1489d815E, symObjAddr: 0x16AC, symBinAddr: 0x1000147DC, symSize: 0x1D4 }
  - { offset: 0x66908, size: 0x8, addend: 0x0, symName: __ZN3std12backtrace_rs9symbolize5gimli5macho6Object5parse17hbc26463257d20f2aE, symObjAddr: 0x1880, symBinAddr: 0x1000149B0, symSize: 0xBFC }
  - { offset: 0x686E0, size: 0x8, addend: 0x0, symName: __ZN3std12backtrace_rs9symbolize5gimli5macho6Object7section17he22847e43a23fe6bE, symObjAddr: 0x247C, symBinAddr: 0x1000155AC, symSize: 0x154 }
  - { offset: 0x68AF9, size: 0x8, addend: 0x0, symName: __ZN3std12backtrace_rs9symbolize5gimli7Context11find_frames17h73caac78ce26352aE, symObjAddr: 0x25D0, symBinAddr: 0x100015700, symSize: 0x394 }
  - { offset: 0x68EDE, size: 0x8, addend: 0x0, symName: __ZN3std12backtrace_rs9symbolize5gimli7Context3new17h2384661d7d9b1f78E, symObjAddr: 0x2964, symBinAddr: 0x100015A94, symSize: 0x2034 }
  - { offset: 0x6CE75, size: 0x8, addend: 0x0, symName: __ZN3std12backtrace_rs9symbolize5gimli7resolve17hf73b30071e9ea483E, symObjAddr: 0x4998, symBinAddr: 0x100017AC8, symSize: 0x2778 }
  - { offset: 0x72823, size: 0x8, addend: 0x0, symName: __ZN3std12backtrace_rs9symbolize6Symbol4name17h06b8fd10d9b9a257E, symObjAddr: 0x7148, symBinAddr: 0x10001A240, symSize: 0xE4 }
  - { offset: 0x729D5, size: 0x8, addend: 0x0, symName: '__ZN79_$LT$std..backtrace_rs..symbolize..SymbolName$u20$as$u20$core..fmt..Display$GT$3fmt17hb783e3698fc7e9b5E', symObjAddr: 0x492D0, symBinAddr: 0x10003A1A0, symSize: 0x104 }
  - { offset: 0x72B37, size: 0x8, addend: 0x0, symName: __ZN3std2fs14read_to_string5inner17hdc714e12ae102d35E, symObjAddr: 0x784C, symBinAddr: 0x10001A324, symSize: 0x270 }
  - { offset: 0x7318F, size: 0x8, addend: 0x0, symName: '__ZN75_$LT$std..fs..ReadDir$u20$as$u20$core..iter..traits..iterator..Iterator$GT$4next17h1265719e5d52e8c4E', symObjAddr: 0x47B60, symBinAddr: 0x10003A014, symSize: 0x18C }
  - { offset: 0x735E7, size: 0x8, addend: 0x0, symName: '__ZN64_$LT$std..ffi..os_str..Display$u20$as$u20$core..fmt..Display$GT$3fmt17h85b477a581a14f44E', symObjAddr: 0x45488, symBinAddr: 0x100039574, symSize: 0xAC }
  - { offset: 0x7366C, size: 0x8, addend: 0x0, symName: '__ZN3std4sync6poison5mutex14Mutex$LT$T$GT$4lock17haf609da69215fe08E', symObjAddr: 0x1E94C, symBinAddr: 0x1000226B4, symSize: 0x78 }
  - { offset: 0x738CB, size: 0x8, addend: 0x0, symName: '__ZN3std4sync6poison4once4Once15call_once_force28_$u7b$$u7b$closure$u7d$$u7d$17ha4ab593fcc00fd4eE', symObjAddr: 0x1E638, symBinAddr: 0x1000223BC, symSize: 0x60 }
  - { offset: 0x73982, size: 0x8, addend: 0x0, symName: '__ZN3std4sync6poison4once4Once15call_once_force28_$u7b$$u7b$closure$u7d$$u7d$17hbc808b72c855c88aE', symObjAddr: 0x1E698, symBinAddr: 0x10002241C, symSize: 0x78 }
  - { offset: 0x73ADF, size: 0x8, addend: 0x0, symName: '__ZN3std4sync6poison4once4Once9call_once28_$u7b$$u7b$closure$u7d$$u7d$17hdd57cdd633d886a2E', symObjAddr: 0x1E72C, symBinAddr: 0x100022494, symSize: 0x220 }
  - { offset: 0x742C1, size: 0x8, addend: 0x0, symName: '__ZN3std4sync9once_lock17OnceLock$LT$T$GT$10initialize17h2b232360da4cbaedE', symObjAddr: 0x1EFF8, symBinAddr: 0x10004BE10, symSize: 0x68 }
  - { offset: 0x742EC, size: 0x8, addend: 0x0, symName: '__ZN3std4sync9once_lock17OnceLock$LT$T$GT$10initialize17h2b232360da4cbaedE', symObjAddr: 0x1EFF8, symBinAddr: 0x10004BE10, symSize: 0x68 }
  - { offset: 0x74300, size: 0x8, addend: 0x0, symName: '__ZN3std4sync9once_lock17OnceLock$LT$T$GT$10initialize17h2b232360da4cbaedE', symObjAddr: 0x1EFF8, symBinAddr: 0x10004BE10, symSize: 0x68 }
  - { offset: 0x74314, size: 0x8, addend: 0x0, symName: '__ZN3std4sync9once_lock17OnceLock$LT$T$GT$10initialize17h2b232360da4cbaedE', symObjAddr: 0x1EFF8, symBinAddr: 0x10004BE10, symSize: 0x68 }
  - { offset: 0x7432A, size: 0x8, addend: 0x0, symName: '__ZN3std4sync9once_lock17OnceLock$LT$T$GT$10initialize17h3ac2c0cdefeecb80E', symObjAddr: 0x1F060, symBinAddr: 0x10004BE78, symSize: 0x5C }
  - { offset: 0x74355, size: 0x8, addend: 0x0, symName: '__ZN3std4sync9once_lock17OnceLock$LT$T$GT$10initialize17h3ac2c0cdefeecb80E', symObjAddr: 0x1F060, symBinAddr: 0x10004BE78, symSize: 0x5C }
  - { offset: 0x74369, size: 0x8, addend: 0x0, symName: '__ZN3std4sync9once_lock17OnceLock$LT$T$GT$10initialize17h3ac2c0cdefeecb80E', symObjAddr: 0x1F060, symBinAddr: 0x10004BE78, symSize: 0x5C }
  - { offset: 0x7437D, size: 0x8, addend: 0x0, symName: '__ZN3std4sync9once_lock17OnceLock$LT$T$GT$10initialize17h3ac2c0cdefeecb80E', symObjAddr: 0x1F060, symBinAddr: 0x10004BE78, symSize: 0x5C }
  - { offset: 0x744FF, size: 0x8, addend: 0x0, symName: __ZN3std5panic19get_backtrace_style17h31f0dac9c1426532E, symObjAddr: 0x1F538, symBinAddr: 0x10002286C, symSize: 0x11C }
  - { offset: 0x7451D, size: 0x8, addend: 0x0, symName: __ZN3std5panic19get_backtrace_style17h31f0dac9c1426532E, symObjAddr: 0x1F538, symBinAddr: 0x10002286C, symSize: 0x11C }
  - { offset: 0x74532, size: 0x8, addend: 0x0, symName: __ZN3std5panic19get_backtrace_style17h31f0dac9c1426532E, symObjAddr: 0x1F538, symBinAddr: 0x10002286C, symSize: 0x11C }
  - { offset: 0x74999, size: 0x8, addend: 0x0, symName: __ZN3std3env11current_dir17hc37cdc7315eb81a1E, symObjAddr: 0xCE2C, symBinAddr: 0x10001C56C, symSize: 0x19C }
  - { offset: 0x74D72, size: 0x8, addend: 0x0, symName: __ZN3std3env7_var_os17he408374094189780E, symObjAddr: 0xD13C, symBinAddr: 0x10001C708, symSize: 0x164 }
  - { offset: 0x74FF0, size: 0x8, addend: 0x0, symName: __ZN3std3env7vars_os17h331b2bf4375dda6aE, symObjAddr: 0xD49C, symBinAddr: 0x10001C86C, symSize: 0x3C4 }
  - { offset: 0x75D44, size: 0x8, addend: 0x0, symName: __ZN5alloc5alloc15exchange_malloc17h7a64f5364f308ae6E, symObjAddr: 0x39D7C, symBinAddr: 0x1000317DC, symSize: 0x48 }
  - { offset: 0x77108, size: 0x8, addend: 0x0, symName: '__ZN64_$LT$alloc..ffi..c_str..NulError$u20$as$u20$core..fmt..Debug$GT$3fmt17hb528bfe231df95daE', symObjAddr: 0x44ED8, symBinAddr: 0x100039528, symSize: 0x4C }
  - { offset: 0x776EC, size: 0x8, addend: 0x0, symName: '__ZN5alloc11collections5btree4node208Handle$LT$alloc..collections..btree..node..NodeRef$LT$alloc..collections..btree..node..marker..Mut$C$K$C$V$C$alloc..collections..btree..node..marker..Leaf$GT$$C$alloc..collections..btree..node..marker..KV$GT$5split17ha6c8a03a837e8cecE', symObjAddr: 0x371FC, symBinAddr: 0x10002F4D4, symSize: 0x140 }
  - { offset: 0x77ABF, size: 0x8, addend: 0x0, symName: '__ZN5alloc11collections5btree4node208Handle$LT$alloc..collections..btree..node..NodeRef$LT$alloc..collections..btree..node..marker..Mut$C$K$C$V$C$alloc..collections..btree..node..marker..Leaf$GT$$C$alloc..collections..btree..node..marker..KV$GT$5split17hdd415c88aa9df7f9E', symObjAddr: 0x3733C, symBinAddr: 0x10002F614, symSize: 0x198 }
  - { offset: 0x77EFF, size: 0x8, addend: 0x0, symName: '__ZN5alloc11collections5btree4node212Handle$LT$alloc..collections..btree..node..NodeRef$LT$alloc..collections..btree..node..marker..Mut$C$K$C$V$C$alloc..collections..btree..node..marker..Internal$GT$$C$alloc..collections..btree..node..marker..KV$GT$5split17h61b27ed46e18cc21E', symObjAddr: 0x374D4, symBinAddr: 0x10002F7AC, symSize: 0x1FC }
  - { offset: 0x784BC, size: 0x8, addend: 0x0, symName: '__ZN5alloc11collections5btree4node212Handle$LT$alloc..collections..btree..node..NodeRef$LT$alloc..collections..btree..node..marker..Mut$C$K$C$V$C$alloc..collections..btree..node..marker..Internal$GT$$C$alloc..collections..btree..node..marker..KV$GT$5split17hb227b69ac0b3e3f9E', symObjAddr: 0x376D0, symBinAddr: 0x10002F9A8, symSize: 0x274 }
  - { offset: 0x78B51, size: 0x8, addend: 0x0, symName: '__ZN5alloc11collections5btree6remove259_$LT$impl$u20$alloc..collections..btree..node..Handle$LT$alloc..collections..btree..node..NodeRef$LT$alloc..collections..btree..node..marker..Mut$C$K$C$V$C$alloc..collections..btree..node..marker..Leaf$GT$$C$alloc..collections..btree..node..marker..KV$GT$$GT$14remove_leaf_kv17h80c70ada1e450bd7E', symObjAddr: 0x38EE4, symBinAddr: 0x1000309DC, symSize: 0x568 }
  - { offset: 0x7979B, size: 0x8, addend: 0x0, symName: '__ZN5alloc11collections5btree6remove259_$LT$impl$u20$alloc..collections..btree..node..Handle$LT$alloc..collections..btree..node..NodeRef$LT$alloc..collections..btree..node..marker..Mut$C$K$C$V$C$alloc..collections..btree..node..marker..Leaf$GT$$C$alloc..collections..btree..node..marker..KV$GT$$GT$14remove_leaf_kv17hbb73ffc9875814dbE', symObjAddr: 0x3944C, symBinAddr: 0x100030F44, symSize: 0x524 }
  - { offset: 0x7B45E, size: 0x8, addend: 0x0, symName: '__ZN5alloc11collections5btree4node29BalancingContext$LT$K$C$V$GT$15bulk_steal_left17h2991e4cb8ce5f906E', symObjAddr: 0x37BBC, symBinAddr: 0x10002FC1C, symSize: 0x1F0 }
  - { offset: 0x7B98E, size: 0x8, addend: 0x0, symName: '__ZN5alloc11collections5btree4node29BalancingContext$LT$K$C$V$GT$15bulk_steal_left17hcb35e3ceea232fdfE', symObjAddr: 0x37DAC, symBinAddr: 0x10002FE0C, symSize: 0x280 }
  - { offset: 0x7BEF6, size: 0x8, addend: 0x0, symName: '__ZN5alloc11collections5btree4node29BalancingContext$LT$K$C$V$GT$16bulk_steal_right17h43a940da68472492E', symObjAddr: 0x3802C, symBinAddr: 0x10003008C, symSize: 0x2C8 }
  - { offset: 0x7C513, size: 0x8, addend: 0x0, symName: '__ZN5alloc11collections5btree4node29BalancingContext$LT$K$C$V$GT$16bulk_steal_right17hea11ac28cf98500dE', symObjAddr: 0x382F4, symBinAddr: 0x100030354, symSize: 0x23C }
  - { offset: 0x7CB61, size: 0x8, addend: 0x0, symName: '__ZN5alloc11collections5btree4node29BalancingContext$LT$K$C$V$GT$8do_merge17h13333d6dfff3d928E', symObjAddr: 0x38530, symBinAddr: 0x100030590, symSize: 0x1F4 }
  - { offset: 0x7D175, size: 0x8, addend: 0x0, symName: '__ZN5alloc11collections5btree4node29BalancingContext$LT$K$C$V$GT$8do_merge17hac7b6a316cf9144aE', symObjAddr: 0x38724, symBinAddr: 0x100030784, symSize: 0x258 }
  - { offset: 0x7DA0B, size: 0x8, addend: 0x0, symName: '__ZN5alloc11collections5btree3map25BTreeMap$LT$K$C$V$C$A$GT$6insert17ha4852dcd205f58ecE', symObjAddr: 0x360AC, symBinAddr: 0x10002E520, symSize: 0x99C }
  - { offset: 0x7F429, size: 0x8, addend: 0x0, symName: '__ZN5alloc11collections5btree3map25IntoIter$LT$K$C$V$C$A$GT$10dying_next17h0a5ca3d1aba591fbE', symObjAddr: 0x36A48, symBinAddr: 0x10002EEBC, symSize: 0x208 }
  - { offset: 0x7F7E5, size: 0x8, addend: 0x0, symName: '__ZN5alloc11collections5btree3map25IntoIter$LT$K$C$V$C$A$GT$10dying_next17h22b1c64eb370863dE', symObjAddr: 0x36C50, symBinAddr: 0x10002F0C4, symSize: 0x208 }
  - { offset: 0x7FBA1, size: 0x8, addend: 0x0, symName: '__ZN5alloc11collections5btree3map25IntoIter$LT$K$C$V$C$A$GT$10dying_next17h80944ebf24a3bbadE', symObjAddr: 0x36E58, symBinAddr: 0x10002F2CC, symSize: 0x208 }
  - { offset: 0x80EA3, size: 0x8, addend: 0x0, symName: '__ZN5alloc7raw_vec19RawVec$LT$T$C$A$GT$8grow_one17h09f72ff2edcb7145E', symObjAddr: 0x39E44, symBinAddr: 0x100031824, symSize: 0xB4 }
  - { offset: 0x80FCE, size: 0x8, addend: 0x0, symName: '__ZN5alloc7raw_vec19RawVec$LT$T$C$A$GT$8grow_one17h0a83f3c2f81107feE', symObjAddr: 0x39EF8, symBinAddr: 0x1000318D8, symSize: 0xC0 }
  - { offset: 0x810E4, size: 0x8, addend: 0x0, symName: '__ZN5alloc7raw_vec19RawVec$LT$T$C$A$GT$8grow_one17h0b8cc8aaa4ca2627E', symObjAddr: 0x39FB8, symBinAddr: 0x100031998, symSize: 0xB8 }
  - { offset: 0x811FA, size: 0x8, addend: 0x0, symName: '__ZN5alloc7raw_vec19RawVec$LT$T$C$A$GT$8grow_one17h2538c3a76f8332d4E', symObjAddr: 0x3A070, symBinAddr: 0x100031A50, symSize: 0xB4 }
  - { offset: 0x81325, size: 0x8, addend: 0x0, symName: '__ZN5alloc7raw_vec19RawVec$LT$T$C$A$GT$8grow_one17h35b443c82a84d8f5E', symObjAddr: 0x3A124, symBinAddr: 0x100031B04, symSize: 0xC0 }
  - { offset: 0x8143B, size: 0x8, addend: 0x0, symName: '__ZN5alloc7raw_vec19RawVec$LT$T$C$A$GT$8grow_one17h3f245f84b3ab39cdE', symObjAddr: 0x3A1E4, symBinAddr: 0x100031BC4, symSize: 0xB4 }
  - { offset: 0x81566, size: 0x8, addend: 0x0, symName: '__ZN5alloc7raw_vec19RawVec$LT$T$C$A$GT$8grow_one17h6539c0c099fe1986E', symObjAddr: 0x3A358, symBinAddr: 0x100031C78, symSize: 0xB4 }
  - { offset: 0x81691, size: 0x8, addend: 0x0, symName: '__ZN5alloc7raw_vec19RawVec$LT$T$C$A$GT$8grow_one17h94e06e2249cf7166E', symObjAddr: 0x3A40C, symBinAddr: 0x100031D2C, symSize: 0xB8 }
  - { offset: 0x817A7, size: 0x8, addend: 0x0, symName: '__ZN5alloc7raw_vec19RawVec$LT$T$C$A$GT$8grow_one17hae47f4ea8854854fE', symObjAddr: 0x3A4C4, symBinAddr: 0x100031DE4, symSize: 0xC0 }
  - { offset: 0x818BD, size: 0x8, addend: 0x0, symName: '__ZN5alloc7raw_vec19RawVec$LT$T$C$A$GT$8grow_one17hb2be22af9cda6662E', symObjAddr: 0x3A584, symBinAddr: 0x100031EA4, symSize: 0xC0 }
  - { offset: 0x819D3, size: 0x8, addend: 0x0, symName: '__ZN5alloc7raw_vec19RawVec$LT$T$C$A$GT$8grow_one17hbb242b5a27216b95E', symObjAddr: 0x3A644, symBinAddr: 0x100031F64, symSize: 0xB8 }
  - { offset: 0x81D9D, size: 0x8, addend: 0x0, symName: __ZN5alloc7raw_vec11finish_grow17h1fe80a46fbbf8c9aE, symObjAddr: 0x39DC4, symBinAddr: 0x10004EFE4, symSize: 0x80 }
  - { offset: 0x81E29, size: 0x8, addend: 0x0, symName: '__ZN5alloc7raw_vec20RawVecInner$LT$A$GT$7reserve21do_reserve_and_handle17h27d899f8eb2799c8E', symObjAddr: 0x3A6FC, symBinAddr: 0x10004F064, symSize: 0xF8 }
  - { offset: 0x820FD, size: 0x8, addend: 0x0, symName: '__ZN58_$LT$alloc..string..String$u20$as$u20$core..fmt..Debug$GT$3fmt17h762f034d0b19a212E', symObjAddr: 0x33F2C, symBinAddr: 0x10002E36C, symSize: 0x10 }
  - { offset: 0x821B8, size: 0x8, addend: 0x0, symName: '__ZN58_$LT$alloc..string..String$u20$as$u20$core..fmt..Write$GT$10write_char17hf5eb0556627f32e1E', symObjAddr: 0x33F3C, symBinAddr: 0x10002E37C, symSize: 0x120 }
  - { offset: 0x8235B, size: 0x8, addend: 0x0, symName: '__ZN58_$LT$alloc..string..String$u20$as$u20$core..fmt..Write$GT$9write_str17h4f289a0bc5411d70E', symObjAddr: 0x3405C, symBinAddr: 0x10002E49C, symSize: 0x80 }
  - { offset: 0x824B4, size: 0x8, addend: 0x0, symName: '__ZN60_$LT$alloc..string..String$u20$as$u20$core..fmt..Display$GT$3fmt17h40cb6c2d63a0400fE', symObjAddr: 0x415A0, symBinAddr: 0x100038DC8, symSize: 0x10 }
  - { offset: 0x82951, size: 0x8, addend: 0x0, symName: '__ZN5alloc4sync16Arc$LT$T$C$A$GT$9drop_slow17h0590c51487cc0e78E', symObjAddr: 0x39970, symBinAddr: 0x100031468, symSize: 0x78 }
  - { offset: 0x82B1F, size: 0x8, addend: 0x0, symName: '__ZN5alloc4sync16Arc$LT$T$C$A$GT$9drop_slow17h455f000bacbe8778E', symObjAddr: 0x399E8, symBinAddr: 0x1000314E0, symSize: 0x98 }
  - { offset: 0x82CC1, size: 0x8, addend: 0x0, symName: '__ZN5alloc4sync16Arc$LT$T$C$A$GT$9drop_slow17h58bfec597942d7c0E', symObjAddr: 0x39A80, symBinAddr: 0x100031578, symSize: 0xC0 }
  - { offset: 0x82FEA, size: 0x8, addend: 0x0, symName: '__ZN5alloc4sync16Arc$LT$T$C$A$GT$9drop_slow17h71ce5645e9f4e2faE', symObjAddr: 0x39BD8, symBinAddr: 0x100031638, symSize: 0xD0 }
  - { offset: 0x83203, size: 0x8, addend: 0x0, symName: '__ZN5alloc4sync16Arc$LT$T$C$A$GT$9drop_slow17hc514d4cb9a32a567E', symObjAddr: 0x39CA8, symBinAddr: 0x100031708, symSize: 0x34 }
  - { offset: 0x832E2, size: 0x8, addend: 0x0, symName: '__ZN5alloc4sync16Arc$LT$T$C$A$GT$9drop_slow17hed6f5b3a05cf41fbE', symObjAddr: 0x39CDC, symBinAddr: 0x10003173C, symSize: 0xA0 }
  - { offset: 0x83DCF, size: 0x8, addend: 0x0, symName: __ZN6object4read7archive13ArchiveMember5parse17h0cf35c47a3262c28E, symObjAddr: 0x46924, symBinAddr: 0x1000399FC, symSize: 0x30C }
  - { offset: 0x84490, size: 0x8, addend: 0x0, symName: __ZN6object4read7archive23parse_bsd_extended_name17hc2fd94417d200a20E, symObjAddr: 0x46C30, symBinAddr: 0x100039D08, symSize: 0x2CC }
  - { offset: 0x84E2F, size: 0x8, addend: 0x0, symName: '__ZN6memchr6memchr6memchr28_$u7b$$u7b$closure$u7d$$u7d$17h397791b73b81e986E', symObjAddr: 0x466C8, symBinAddr: 0x1000397A0, symSize: 0x25C }
  - { offset: 0x855FA, size: 0x8, addend: 0x0, symName: '__ZN9addr2line4unit16ResUnit$LT$R$GT$25find_function_or_location28_$u7b$$u7b$closure$u7d$$u7d$17h0b2560d358ac4418E', symObjAddr: 0x4D0B0, symBinAddr: 0x10003BBE4, symSize: 0x30C }
  - { offset: 0x8598F, size: 0x8, addend: 0x0, symName: '__ZN9addr2line4unit16ResUnit$LT$R$GT$25find_function_or_location17hb8c2717196c051f4E', symObjAddr: 0x4CD44, symBinAddr: 0x10003B878, symSize: 0x36C }
  - { offset: 0x85EB8, size: 0x8, addend: 0x0, symName: '__ZN9addr2line16Context$LT$R$GT$9find_unit17h6f93650cf3288060E', symObjAddr: 0x4C758, symBinAddr: 0x10003B28C, symSize: 0x15C }
  - { offset: 0x8603A, size: 0x8, addend: 0x0, symName: '__ZN9addr2line6lookup30LoopingLookup$LT$T$C$L$C$F$GT$10new_lookup17h7be4a3ff02a5568bE', symObjAddr: 0x4D67C, symBinAddr: 0x10003C1B0, symSize: 0x438 }
  - { offset: 0x8659D, size: 0x8, addend: 0x0, symName: __ZN9addr2line4line11render_file17h6d17362951bb3a0fE, symObjAddr: 0x4C8B4, symBinAddr: 0x10003B3E8, symSize: 0x490 }
  - { offset: 0x86F4A, size: 0x8, addend: 0x0, symName: '__ZN9addr2line8function17Function$LT$R$GT$14parse_children17h94e2fbb278f6f4afE', symObjAddr: 0x4DE18, symBinAddr: 0x10003C94C, symSize: 0xF20 }
  - { offset: 0x88845, size: 0x8, addend: 0x0, symName: __ZN9addr2line8function10name_entry17hdcd9d55faa5b8559E, symObjAddr: 0x4DAB4, symBinAddr: 0x10003C5E8, symSize: 0x364 }
  - { offset: 0x88D1E, size: 0x8, addend: 0x0, symName: __ZN9addr2line8function9name_attr17h005d1ad1ee1bd9b3E, symObjAddr: 0x4ED38, symBinAddr: 0x10003D86C, symSize: 0x1C0 }
  - { offset: 0x88F0A, size: 0x8, addend: 0x0, symName: '__ZN9addr2line5frame18FrameIter$LT$R$GT$4next17h9c99cb3977d75464E', symObjAddr: 0x4D3BC, symBinAddr: 0x10003BEF0, symSize: 0x2C0 }
  - { offset: 0x8979A, size: 0x8, addend: 0x0, symName: '__ZN5gimli4read5dwarf14Dwarf$LT$R$GT$11attr_string17h61d81fbcbee62996E', symObjAddr: 0x3F804, symBinAddr: 0x10003702C, symSize: 0x220 }
  - { offset: 0x89F34, size: 0x8, addend: 0x0, symName: '__ZN5gimli4read5dwarf13Unit$LT$R$GT$3new17h58a22d42e2b88249E', symObjAddr: 0x3DB64, symBinAddr: 0x10003538C, symSize: 0x1CA0 }
  - { offset: 0x8D6FF, size: 0x8, addend: 0x0, symName: '__ZN5gimli4read7aranges30ArangeHeader$LT$R$C$Offset$GT$5parse17h18ec296afb75f086E', symObjAddr: 0x40688, symBinAddr: 0x100037EB0, symSize: 0x2A8 }
  - { offset: 0x8E16D, size: 0x8, addend: 0x0, symName: '__ZN5gimli4read4unit18Attribute$LT$R$GT$5value17hd84235d5f0589f1bE', symObjAddr: 0x3CD78, symBinAddr: 0x1000345A0, symSize: 0x598 }
  - { offset: 0x8E578, size: 0x8, addend: 0x0, symName: '__ZN90_$LT$gimli..read..unit..AttributeValue$LT$R$C$Offset$GT$$u20$as$u20$core..clone..Clone$GT$5clone17h73aa6ddc12793aa1E', symObjAddr: 0x4B650, symBinAddr: 0x10003ABAC, symSize: 0x68 }
  - { offset: 0x8E5D8, size: 0x8, addend: 0x0, symName: '__ZN5gimli4read4unit32AttributeValue$LT$R$C$Offset$GT$11udata_value17ha8d2cb136f47175bE', symObjAddr: 0x3D5C8, symBinAddr: 0x100034DF0, symSize: 0x84 }
  - { offset: 0x8E633, size: 0x8, addend: 0x0, symName: __ZN5gimli4read4unit15parse_attribute17hc1d74b8eec228250E, symObjAddr: 0x3B990, symBinAddr: 0x1000331B8, symSize: 0xF74 }
  - { offset: 0x911DD, size: 0x8, addend: 0x0, symName: __ZN5gimli4read4unit15skip_attributes17hdc6142efc7264c05E, symObjAddr: 0x3C904, symBinAddr: 0x10003412C, symSize: 0x474 }
  - { offset: 0x91BC7, size: 0x8, addend: 0x0, symName: '__ZN5gimli4read4unit22EntriesCursor$LT$R$GT$10next_entry17h8f756747ff1f8396E', symObjAddr: 0x3D310, symBinAddr: 0x100034B38, symSize: 0x2B8 }
  - { offset: 0x9218B, size: 0x8, addend: 0x0, symName: '__ZN5gimli4read4unit33DebugInfoUnitHeadersIter$LT$R$GT$4next17hb26e96162b5603e4E', symObjAddr: 0x3D64C, symBinAddr: 0x100034E74, symSize: 0x518 }
  - { offset: 0x93473, size: 0x8, addend: 0x0, symName: __ZN5gimli4read6reader6Reader11read_offset17ha6198688e6a6cc43E, symObjAddr: 0x401D4, symBinAddr: 0x1000379FC, symSize: 0xB4 }
  - { offset: 0x93692, size: 0x8, addend: 0x0, symName: __ZN5gimli4read6reader6Reader12read_sleb12817he7622149ed2ba8f3E, symObjAddr: 0x40288, symBinAddr: 0x100037AB0, symSize: 0x23C }
  - { offset: 0x9376E, size: 0x8, addend: 0x0, symName: __ZN5gimli4read6reader6Reader12read_uleb12817hd0ba7762d4f5272cE, symObjAddr: 0x404C4, symBinAddr: 0x100037CEC, symSize: 0xB8 }
  - { offset: 0x93815, size: 0x8, addend: 0x0, symName: __ZN5gimli4read6reader6Reader17read_sized_offset17h56144a8ee82a97f2E, symObjAddr: 0x4057C, symBinAddr: 0x100037DA4, symSize: 0x10C }
  - { offset: 0x93E8C, size: 0x8, addend: 0x0, symName: '__ZN5gimli4read8rnglists20RngListIter$LT$R$GT$4next17hbfe62e2e23855b41E', symObjAddr: 0x40930, symBinAddr: 0x100038158, symSize: 0xC70 }
  - { offset: 0x96803, size: 0x8, addend: 0x0, symName: '__ZN5gimli4read5index18UnitIndex$LT$R$GT$5parse17hf42bddb15b37e4adE', symObjAddr: 0x3FA24, symBinAddr: 0x10003724C, symSize: 0x7B0 }
  - { offset: 0x96EE3, size: 0x8, addend: 0x0, symName: '__ZN5gimli4read4line27FileEntry$LT$R$C$Offset$GT$5parse17h809629ae1f90afdcE', symObjAddr: 0x3B774, symBinAddr: 0x100032F9C, symSize: 0x21C }
  - { offset: 0x9714B, size: 0x8, addend: 0x0, symName: __ZN5gimli4read4line13parse_file_v517h46b7dbdd20cc86bdE, symObjAddr: 0x3A7F4, symBinAddr: 0x10003201C, symSize: 0x2B4 }
  - { offset: 0x972D3, size: 0x8, addend: 0x0, symName: __ZN5gimli4read4line15FileEntryFormat5parse17h8d770897394a1285E, symObjAddr: 0x3AAA8, symBinAddr: 0x1000322D0, symSize: 0x370 }
  - { offset: 0x97ACB, size: 0x8, addend: 0x0, symName: __ZN5gimli4read4line15parse_attribute17h8f693dd0ab51bc26E, symObjAddr: 0x3AE18, symBinAddr: 0x100032640, symSize: 0x874 }
  - { offset: 0x992CE, size: 0x8, addend: 0x0, symName: __ZN5gimli4read4line18parse_directory_v517hb83c7405e582bcc2E, symObjAddr: 0x3B68C, symBinAddr: 0x100032EB4, symSize: 0xE8 }
  - { offset: 0x99597, size: 0x8, addend: 0x0, symName: _OUTLINED_FUNCTION_0, symObjAddr: 0x4F37C, symBinAddr: 0x10003DDA4, symSize: 0x8 }
  - { offset: 0x995AF, size: 0x8, addend: 0x0, symName: _OUTLINED_FUNCTION_1, symObjAddr: 0x4F384, symBinAddr: 0x10003DDAC, symSize: 0xC }
  - { offset: 0x995C7, size: 0x8, addend: 0x0, symName: _OUTLINED_FUNCTION_2, symObjAddr: 0x4F390, symBinAddr: 0x10003DDB8, symSize: 0xC }
  - { offset: 0x995DF, size: 0x8, addend: 0x0, symName: _OUTLINED_FUNCTION_3, symObjAddr: 0x4F39C, symBinAddr: 0x10003DDC4, symSize: 0x10 }
  - { offset: 0x995F7, size: 0x8, addend: 0x0, symName: _OUTLINED_FUNCTION_4, symObjAddr: 0x4F3AC, symBinAddr: 0x10003DDD4, symSize: 0x10 }
  - { offset: 0x9960F, size: 0x8, addend: 0x0, symName: _OUTLINED_FUNCTION_5, symObjAddr: 0x4F3BC, symBinAddr: 0x10003DDE4, symSize: 0xC }
  - { offset: 0x99627, size: 0x8, addend: 0x0, symName: _OUTLINED_FUNCTION_6, symObjAddr: 0x4F3C8, symBinAddr: 0x10003DDF0, symSize: 0xC }
  - { offset: 0x9963F, size: 0x8, addend: 0x0, symName: _OUTLINED_FUNCTION_7, symObjAddr: 0x4F3D4, symBinAddr: 0x10003DDFC, symSize: 0x10 }
  - { offset: 0x99657, size: 0x8, addend: 0x0, symName: _OUTLINED_FUNCTION_8, symObjAddr: 0x4F3E4, symBinAddr: 0x10003DE0C, symSize: 0x8 }
  - { offset: 0x9966F, size: 0x8, addend: 0x0, symName: _OUTLINED_FUNCTION_9, symObjAddr: 0x4F3EC, symBinAddr: 0x10003DE14, symSize: 0x24 }
  - { offset: 0x99687, size: 0x8, addend: 0x0, symName: _OUTLINED_FUNCTION_10, symObjAddr: 0x4F410, symBinAddr: 0x10003DE38, symSize: 0x8 }
  - { offset: 0x9969F, size: 0x8, addend: 0x0, symName: _OUTLINED_FUNCTION_11, symObjAddr: 0x4F418, symBinAddr: 0x10003DE40, symSize: 0x8 }
  - { offset: 0x996B7, size: 0x8, addend: 0x0, symName: _OUTLINED_FUNCTION_12, symObjAddr: 0x4F420, symBinAddr: 0x10003DE48, symSize: 0x24 }
  - { offset: 0x996CF, size: 0x8, addend: 0x0, symName: _OUTLINED_FUNCTION_13, symObjAddr: 0x4F444, symBinAddr: 0x10003DE6C, symSize: 0x20 }
  - { offset: 0x996E7, size: 0x8, addend: 0x0, symName: _OUTLINED_FUNCTION_14, symObjAddr: 0x4F464, symBinAddr: 0x10003DE8C, symSize: 0x10 }
  - { offset: 0x996FF, size: 0x8, addend: 0x0, symName: _OUTLINED_FUNCTION_15, symObjAddr: 0x4F474, symBinAddr: 0x10003DE9C, symSize: 0x10 }
  - { offset: 0x99717, size: 0x8, addend: 0x0, symName: _OUTLINED_FUNCTION_16, symObjAddr: 0x4F484, symBinAddr: 0x10003DEAC, symSize: 0x10 }
  - { offset: 0x9972F, size: 0x8, addend: 0x0, symName: _OUTLINED_FUNCTION_17, symObjAddr: 0x4F494, symBinAddr: 0x10003DEBC, symSize: 0x10 }
  - { offset: 0x99747, size: 0x8, addend: 0x0, symName: _OUTLINED_FUNCTION_18, symObjAddr: 0x4F4A4, symBinAddr: 0x10003DECC, symSize: 0x8 }
  - { offset: 0x9975F, size: 0x8, addend: 0x0, symName: _OUTLINED_FUNCTION_19, symObjAddr: 0x4F4AC, symBinAddr: 0x10003DED4, symSize: 0x8 }
  - { offset: 0x99777, size: 0x8, addend: 0x0, symName: _OUTLINED_FUNCTION_20, symObjAddr: 0x4F4B4, symBinAddr: 0x10003DEDC, symSize: 0xC }
  - { offset: 0x9978F, size: 0x8, addend: 0x0, symName: _OUTLINED_FUNCTION_21, symObjAddr: 0x4F4C0, symBinAddr: 0x10003DEE8, symSize: 0x8 }
  - { offset: 0x997A7, size: 0x8, addend: 0x0, symName: _OUTLINED_FUNCTION_22, symObjAddr: 0x4F4C8, symBinAddr: 0x10003DEF0, symSize: 0x10 }
  - { offset: 0x997BF, size: 0x8, addend: 0x0, symName: _OUTLINED_FUNCTION_23, symObjAddr: 0x4F4D8, symBinAddr: 0x10003DF00, symSize: 0x10 }
  - { offset: 0x997D7, size: 0x8, addend: 0x0, symName: _OUTLINED_FUNCTION_24, symObjAddr: 0x4F4E8, symBinAddr: 0x10003DF10, symSize: 0x18 }
  - { offset: 0x997EF, size: 0x8, addend: 0x0, symName: _OUTLINED_FUNCTION_25, symObjAddr: 0x4F500, symBinAddr: 0x10003DF28, symSize: 0xC }
  - { offset: 0x99807, size: 0x8, addend: 0x0, symName: _OUTLINED_FUNCTION_26, symObjAddr: 0x4F50C, symBinAddr: 0x10003DF34, symSize: 0x8 }
  - { offset: 0x9981F, size: 0x8, addend: 0x0, symName: _OUTLINED_FUNCTION_27, symObjAddr: 0x4F514, symBinAddr: 0x10003DF3C, symSize: 0x8 }
  - { offset: 0x99837, size: 0x8, addend: 0x0, symName: _OUTLINED_FUNCTION_28, symObjAddr: 0x4F51C, symBinAddr: 0x10003DF44, symSize: 0xC }
  - { offset: 0x9984F, size: 0x8, addend: 0x0, symName: _OUTLINED_FUNCTION_29, symObjAddr: 0x4F528, symBinAddr: 0x10003DF50, symSize: 0xC }
  - { offset: 0x99867, size: 0x8, addend: 0x0, symName: _OUTLINED_FUNCTION_30, symObjAddr: 0x4F534, symBinAddr: 0x10003DF5C, symSize: 0xC }
  - { offset: 0x9987F, size: 0x8, addend: 0x0, symName: _OUTLINED_FUNCTION_31, symObjAddr: 0x4F540, symBinAddr: 0x10003DF68, symSize: 0xC }
  - { offset: 0x99897, size: 0x8, addend: 0x0, symName: _OUTLINED_FUNCTION_32, symObjAddr: 0x4F54C, symBinAddr: 0x10003DF74, symSize: 0x8 }
  - { offset: 0x998AF, size: 0x8, addend: 0x0, symName: _OUTLINED_FUNCTION_33, symObjAddr: 0x4F554, symBinAddr: 0x10003DF7C, symSize: 0x10 }
  - { offset: 0x998C7, size: 0x8, addend: 0x0, symName: _OUTLINED_FUNCTION_34, symObjAddr: 0x4F564, symBinAddr: 0x10003DF8C, symSize: 0x14 }
  - { offset: 0x998DF, size: 0x8, addend: 0x0, symName: _OUTLINED_FUNCTION_35, symObjAddr: 0x4F578, symBinAddr: 0x10003DFA0, symSize: 0x14 }
  - { offset: 0x998F7, size: 0x8, addend: 0x0, symName: _OUTLINED_FUNCTION_36, symObjAddr: 0x4F58C, symBinAddr: 0x10003DFB4, symSize: 0x14 }
  - { offset: 0x9992D, size: 0x8, addend: 0x0, symName: __RNvCskdKJRKLKjqM_7___rustc18___rust_start_panic, symObjAddr: 0x0, symBinAddr: 0x10003DFC8, symSize: 0xA0 }
  - { offset: 0x99A08, size: 0x8, addend: 0x0, symName: __ZN12panic_unwind3imp5panic17exception_cleanup17h4266e266b2c9487cE, symObjAddr: 0x108, symBinAddr: 0x10003E0D0, symSize: 0x18 }
  - { offset: 0x99A24, size: 0x8, addend: 0x0, symName: __RNvCskdKJRKLKjqM_7___rustc18___rust_start_panic, symObjAddr: 0x0, symBinAddr: 0x10003DFC8, symSize: 0xA0 }
  - { offset: 0x99AAE, size: 0x8, addend: 0x0, symName: __RNvCskdKJRKLKjqM_7___rustc20___rust_panic_cleanup, symObjAddr: 0xA0, symBinAddr: 0x10003E068, symSize: 0x68 }
  - { offset: 0x99BA3, size: 0x8, addend: 0x0, symName: '__ZN4core3ptr49drop_in_place$LT$panic_unwind..imp..Exception$GT$17haf5bf9a577d18351E', symObjAddr: 0x120, symBinAddr: 0x10003E0E8, symSize: 0x78 }
  - { offset: 0x99CAA, size: 0x8, addend: 0x0, symName: '__ZN4core3ptr74drop_in_place$LT$alloc..boxed..Box$LT$panic_unwind..imp..Exception$GT$$GT$17hfb07d84a22c2fe57E', symObjAddr: 0x198, symBinAddr: 0x10003E160, symSize: 0x8C }
  - { offset: 0x99EE4, size: 0x8, addend: 0x0, symName: __ZN4core3fmt5Write9write_fmt17h4804216ef2799c76E, symObjAddr: 0x144, symBinAddr: 0x100045CFC, symSize: 0x38 }
  - { offset: 0x99F26, size: 0x8, addend: 0x0, symName: '__ZN53_$LT$core..fmt..Error$u20$as$u20$core..fmt..Debug$GT$3fmt17h2c60f2117c688a19E', symObjAddr: 0x434, symBinAddr: 0x100045D4C, symSize: 0x14 }
  - { offset: 0x9A07F, size: 0x8, addend: 0x0, symName: '__ZN69_$LT$core..alloc..layout..LayoutError$u20$as$u20$core..fmt..Debug$GT$3fmt17h64c9cb4b8dea4922E', symObjAddr: 0x4FA4, symBinAddr: 0x1000465AC, symSize: 0x14 }
  - { offset: 0x9A0F4, size: 0x8, addend: 0x0, symName: '__ZN4core3ptr42drop_in_place$LT$alloc..string..String$GT$17h125e75c66c8dab73E', symObjAddr: 0x194, symBinAddr: 0x100045D34, symSize: 0x18 }
  - { offset: 0x9A498, size: 0x8, addend: 0x0, symName: __ZN5alloc5alloc18handle_alloc_error17h26baa107ca8d7d87E, symObjAddr: 0x3110, symBinAddr: 0x10004F24C, symSize: 0x18 }
  - { offset: 0x9A77A, size: 0x8, addend: 0x0, symName: __ZN5alloc7raw_vec11finish_grow17hae2a77561b3eba9fE, symObjAddr: 0x4A98, symBinAddr: 0x10004F264, symSize: 0x80 }
  - { offset: 0x9A7EF, size: 0x8, addend: 0x0, symName: __ZN5alloc7raw_vec12handle_error17hda5280d2e54fe328E, symObjAddr: 0x4B18, symBinAddr: 0x10004F2E4, symSize: 0x18 }
  - { offset: 0x9A82E, size: 0x8, addend: 0x0, symName: __ZN5alloc7raw_vec17capacity_overflow17h17d905a29a8903c6E, symObjAddr: 0x4B30, symBinAddr: 0x10004F2FC, symSize: 0x34 }
  - { offset: 0x9A867, size: 0x8, addend: 0x0, symName: '__ZN5alloc7raw_vec20RawVecInner$LT$A$GT$7reserve21do_reserve_and_handle17h11d004b711ee78ceE', symObjAddr: 0x4C04, symBinAddr: 0x10004F330, symSize: 0xAC }
  - { offset: 0x9A9F3, size: 0x8, addend: 0x0, symName: '__ZN254_$LT$alloc..boxed..convert..$LT$impl$u20$core..convert..From$LT$alloc..string..String$GT$$u20$for$u20$alloc..boxed..Box$LT$dyn$u20$core..error..Error$u2b$core..marker..Sync$u2b$core..marker..Send$GT$$GT$..from..StringError$u20$as$u20$core..fmt..Debug$GT$3fmt17h75dec14bca657cd7E', symObjAddr: 0x114, symBinAddr: 0x100045CDC, symSize: 0x10 }
  - { offset: 0x9AAC4, size: 0x8, addend: 0x0, symName: '__ZN256_$LT$alloc..boxed..convert..$LT$impl$u20$core..convert..From$LT$alloc..string..String$GT$$u20$for$u20$alloc..boxed..Box$LT$dyn$u20$core..error..Error$u2b$core..marker..Sync$u2b$core..marker..Send$GT$$GT$..from..StringError$u20$as$u20$core..fmt..Display$GT$3fmt17h47fcec3434e746beE', symObjAddr: 0x124, symBinAddr: 0x100045CEC, symSize: 0x10 }
  - { offset: 0x9ABB7, size: 0x8, addend: 0x0, symName: '__ZN100_$LT$alloc..ffi..c_str..CString$u20$as$u20$core..convert..From$LT$$RF$core..ffi..c_str..CStr$GT$$GT$4from17ha0ae31de1f056ba8E', symObjAddr: 0x94, symBinAddr: 0x100045C5C, symSize: 0x80 }
  - { offset: 0x9AD27, size: 0x8, addend: 0x0, symName: __ZN5alloc3ffi5c_str7CString19_from_vec_unchecked17ha9e4236e455233d9E, symObjAddr: 0xAA0, symBinAddr: 0x100045EF0, symSize: 0x160 }
  - { offset: 0x9B051, size: 0x8, addend: 0x0, symName: __ZN5alloc3ffi5c_str7CString8from_raw17hd515aced8920cd6dE, symObjAddr: 0xCA4, symBinAddr: 0x100046050, symSize: 0x28 }
  - { offset: 0x9B08A, size: 0x8, addend: 0x0, symName: '__ZN72_$LT$$RF$str$u20$as$u20$alloc..ffi..c_str..CString..new..SpecNewImpl$GT$13spec_new_impl17h45e6a9b6841b9026E', symObjAddr: 0x4FB8, symBinAddr: 0x1000465C0, symSize: 0x114 }
  - { offset: 0x9B548, size: 0x8, addend: 0x0, symName: __ZN5alloc6string6String15from_utf8_lossy17h3827377ec6f44505E, symObjAddr: 0x40B8, symBinAddr: 0x1000462D4, symSize: 0x23C }
  - { offset: 0x9BA98, size: 0x8, addend: 0x0, symName: __ZN5alloc6string6String17try_reserve_exact17h03ce5d27ae9a95beE, symObjAddr: 0x42F4, symBinAddr: 0x100046510, symSize: 0x9C }
  - { offset: 0x9BBE6, size: 0x8, addend: 0x0, symName: '__ZN58_$LT$alloc..string..String$u20$as$u20$core..fmt..Write$GT$10write_char17hf5eb0556627f32e1E', symObjAddr: 0x4AC, symBinAddr: 0x100045D60, symSize: 0x118 }
  - { offset: 0x9BD89, size: 0x8, addend: 0x0, symName: '__ZN58_$LT$alloc..string..String$u20$as$u20$core..fmt..Write$GT$9write_str17h4f289a0bc5411d70E', symObjAddr: 0x5C4, symBinAddr: 0x100045E78, symSize: 0x78 }
  - { offset: 0x9BEF0, size: 0x8, addend: 0x0, symName: '__ZN98_$LT$alloc..string..String$u20$as$u20$core..convert..From$LT$alloc..borrow..Cow$LT$str$GT$$GT$$GT$4from17h5469e7f25801e42aE', symObjAddr: 0x58FC, symBinAddr: 0x1000466D4, symSize: 0xB4 }
  - { offset: 0x9C0E4, size: 0x8, addend: 0x0, symName: __ZN5alloc3fmt6format12format_inner17h0dad41b42c4e8ea8E, symObjAddr: 0xCCC, symBinAddr: 0x100046078, symSize: 0x1E8 }
  - { offset: 0x9C39E, size: 0x8, addend: 0x0, symName: __ZN5alloc4sync32arcinner_layout_for_value_layout17he81fe29099bd6304E, symObjAddr: 0x226C, symBinAddr: 0x100046260, symSize: 0x74 }
  - { offset: 0x9C4F3, size: 0x8, addend: 0x0, symName: '__ZN71_$LT$core..ops..range..Range$LT$Idx$GT$$u20$as$u20$core..fmt..Debug$GT$3fmt17h9ee395a326b5a38dE', symObjAddr: 0x1D05C, symBinAddr: 0x10004B29C, symSize: 0x5C }
  - { offset: 0x9C768, size: 0x8, addend: 0x0, symName: '__ZN4core4char7methods22_$LT$impl$u20$char$GT$16escape_debug_ext17h65363754973cca06E', symObjAddr: 0x15EAC, symBinAddr: 0x10004A740, symSize: 0x284 }
  - { offset: 0x9C936, size: 0x8, addend: 0x0, symName: __ZN4core4char7methods15encode_utf8_raw8do_panic7runtime17hf09a7bf7d34256f1E, symObjAddr: 0x15DD4, symBinAddr: 0x10004F488, symSize: 0x6C }
  - { offset: 0x9CB36, size: 0x8, addend: 0x0, symName: __ZN4core3num22from_ascii_radix_panic8do_panic7runtime17h7f9501ed7945387fE, symObjAddr: 0xD48C, symBinAddr: 0x10004F3E8, symSize: 0x44 }
  - { offset: 0x9CB69, size: 0x8, addend: 0x0, symName: __ZN4core3num22from_ascii_radix_panic17h9c5061ce301e38d1E, symObjAddr: 0xD480, symBinAddr: 0x10004F3DC, symSize: 0xC }
  - { offset: 0x9CE1F, size: 0x8, addend: 0x0, symName: __ZN4core6option13expect_failed17ha7eb9005b8b6a5f0E, symObjAddr: 0x16714, symBinAddr: 0x10004F660, symSize: 0x48 }
  - { offset: 0x9CE67, size: 0x8, addend: 0x0, symName: __ZN4core6option13unwrap_failed17h5390b8bf3624dae4E, symObjAddr: 0x1675C, symBinAddr: 0x10004F6A8, symSize: 0x1C }
  - { offset: 0x9D361, size: 0x8, addend: 0x0, symName: __ZN4core5slice5index16slice_index_fail8do_panic7runtime17h264a8ffb4962c84aE, symObjAddr: 0x16438, symBinAddr: 0x10004F570, symSize: 0x50 }
  - { offset: 0x9D392, size: 0x8, addend: 0x0, symName: __ZN4core5slice5index16slice_index_fail8do_panic7runtime17hc3cb4cb0f63d7a0dE, symObjAddr: 0x16488, symBinAddr: 0x10004F5C0, symSize: 0x50 }
  - { offset: 0x9D3C3, size: 0x8, addend: 0x0, symName: __ZN4core5slice5index16slice_index_fail8do_panic7runtime17hdb76a588098e04d1E, symObjAddr: 0x164D8, symBinAddr: 0x10004F610, symSize: 0x50 }
  - { offset: 0x9D3F6, size: 0x8, addend: 0x0, symName: __ZN4core5slice5index16slice_index_fail17hcba6beb3c7e54df7E, symObjAddr: 0x163F4, symBinAddr: 0x10004F52C, symSize: 0x44 }
  - { offset: 0x9D4AF, size: 0x8, addend: 0x0, symName: __ZN4core5slice6memchr14memchr_aligned17h0fd76980ccaa34afE, symObjAddr: 0x16528, symBinAddr: 0x10004AA10, symSize: 0xDC }
  - { offset: 0x9D4C6, size: 0x8, addend: 0x0, symName: __ZN4core5slice6memchr14memchr_aligned17h0fd76980ccaa34afE, symObjAddr: 0x16528, symBinAddr: 0x10004AA10, symSize: 0xDC }
  - { offset: 0x9D4DB, size: 0x8, addend: 0x0, symName: __ZN4core5slice6memchr14memchr_aligned17h0fd76980ccaa34afE, symObjAddr: 0x16528, symBinAddr: 0x10004AA10, symSize: 0xDC }
  - { offset: 0x9D4EF, size: 0x8, addend: 0x0, symName: __ZN4core5slice6memchr14memchr_aligned17h0fd76980ccaa34afE, symObjAddr: 0x16528, symBinAddr: 0x10004AA10, symSize: 0xDC }
  - { offset: 0x9D504, size: 0x8, addend: 0x0, symName: __ZN4core5slice6memchr14memchr_aligned17h0fd76980ccaa34afE, symObjAddr: 0x16528, symBinAddr: 0x10004AA10, symSize: 0xDC }
  - { offset: 0x9D5B3, size: 0x8, addend: 0x0, symName: __ZN4core5slice6memchr7memrchr17h9d6664cc82317f7aE, symObjAddr: 0x16604, symBinAddr: 0x10004AAEC, symSize: 0x110 }
  - { offset: 0x9D74F, size: 0x8, addend: 0x0, symName: __ZN4core5slice4sort6shared9smallsort22panic_on_ord_violation17haee08cae494f9b76E, symObjAddr: 0x162E0, symBinAddr: 0x10004F4F4, symSize: 0x38 }
  - { offset: 0x9D78C, size: 0x8, addend: 0x0, symName: __ZN4core5slice4sort6stable5drift11sqrt_approx17h4d80f437b4f05e96E, symObjAddr: 0x16318, symBinAddr: 0x10004A9E4, symSize: 0x2C }
  - { offset: 0x9D881, size: 0x8, addend: 0x0, symName: __ZN4core3fmt9Formatter10debug_list17hbc06b89459e82ed2E, symObjAddr: 0x9CA8, symBinAddr: 0x1000482CC, symSize: 0x48 }
  - { offset: 0x9D8C1, size: 0x8, addend: 0x0, symName: __ZN4core3fmt9Formatter11debug_tuple17h51c84851e9ce025eE, symObjAddr: 0x9CF0, symBinAddr: 0x100048314, symSize: 0x50 }
  - { offset: 0x9D90F, size: 0x8, addend: 0x0, symName: __ZN4core3fmt9Formatter12debug_struct17hff016019e19a1e59E, symObjAddr: 0x9D40, symBinAddr: 0x100048364, symSize: 0x3C }
  - { offset: 0x9D978, size: 0x8, addend: 0x0, symName: __ZN4core3fmt9Formatter12pad_integral17h6b76510de31552c4E, symObjAddr: 0x9DF8, symBinAddr: 0x10004841C, symSize: 0x3B4 }
  - { offset: 0x9DC79, size: 0x8, addend: 0x0, symName: __ZN4core3fmt9Formatter25debug_tuple_field1_finish17hd754385b76890be0E, symObjAddr: 0xA668, symBinAddr: 0x1000487D0, symSize: 0x160 }
  - { offset: 0x9DE74, size: 0x8, addend: 0x0, symName: __ZN4core3fmt9Formatter25debug_tuple_field2_finish17hd192ca962f3e76f9E, symObjAddr: 0xA7C8, symBinAddr: 0x100048930, symSize: 0x1D8 }
  - { offset: 0x9E16C, size: 0x8, addend: 0x0, symName: __ZN4core3fmt9Formatter26debug_struct_field1_finish17hdf9e3e8cc9fad70bE, symObjAddr: 0xB580, symBinAddr: 0x100048B08, symSize: 0xD0 }
  - { offset: 0x9E243, size: 0x8, addend: 0x0, symName: __ZN4core3fmt9Formatter26debug_struct_field2_finish17h3b83c18c70479e53E, symObjAddr: 0xB650, symBinAddr: 0x100048BD8, symSize: 0x104 }
  - { offset: 0x9E31A, size: 0x8, addend: 0x0, symName: __ZN4core3fmt9Formatter3pad17hff1f0d89dcf14919E, symObjAddr: 0xBC68, symBinAddr: 0x100048CDC, symSize: 0x304 }
  - { offset: 0x9E67A, size: 0x8, addend: 0x0, symName: __ZN4core3fmt9Formatter9write_str17hc566c39ab04e0b97E, symObjAddr: 0xC018, symBinAddr: 0x100048FE0, symSize: 0x10 }
  - { offset: 0x9E6EA, size: 0x8, addend: 0x0, symName: __ZN4core3fmt8builders11DebugStruct5field17h207d6e7a951e3da0E, symObjAddr: 0x91AC, symBinAddr: 0x100047F08, symSize: 0x1B4 }
  - { offset: 0x9E8F6, size: 0x8, addend: 0x0, symName: __ZN4core3fmt8builders11DebugStruct6finish17h09aadd2fc45d6189E, symObjAddr: 0x9360, symBinAddr: 0x1000480BC, symSize: 0x7C }
  - { offset: 0x9EA1E, size: 0x8, addend: 0x0, symName: __ZN4core3fmt8builders10DebugTuple5field17h05b75b880ca687fcE, symObjAddr: 0x8EC8, symBinAddr: 0x100047D0C, symSize: 0x148 }
  - { offset: 0x9EB9C, size: 0x8, addend: 0x0, symName: __ZN4core3fmt8builders10DebugTuple6finish17hbdc58b7a910cf8f5E, symObjAddr: 0x9010, symBinAddr: 0x100047E54, symSize: 0xB4 }
  - { offset: 0x9ECD7, size: 0x8, addend: 0x0, symName: __ZN4core3fmt8builders8DebugSet5entry17h2d9f8a7b8dc85098E, symObjAddr: 0x9A00, symBinAddr: 0x100048138, symSize: 0x148 }
  - { offset: 0x9EEB8, size: 0x8, addend: 0x0, symName: __ZN4core3fmt8builders9DebugList6finish17h1e2c90a4f4b268bbE, symObjAddr: 0x9C5C, symBinAddr: 0x100048280, symSize: 0x4C }
  - { offset: 0x9EF35, size: 0x8, addend: 0x0, symName: '__ZN68_$LT$core..fmt..builders..PadAdapter$u20$as$u20$core..fmt..Write$GT$10write_char17h26ddfb0e18c0d503E', symObjAddr: 0x1BDC8, symBinAddr: 0x10004AFD8, symSize: 0x80 }
  - { offset: 0x9EF5E, size: 0x8, addend: 0x0, symName: '__ZN68_$LT$core..fmt..builders..PadAdapter$u20$as$u20$core..fmt..Write$GT$9write_str17hc88595c259955ac6E', symObjAddr: 0x1BE48, symBinAddr: 0x10004B058, symSize: 0x244 }
  - { offset: 0x9F21B, size: 0x8, addend: 0x0, symName: '__ZN57_$LT$core..fmt..Formatter$u20$as$u20$core..fmt..Write$GT$10write_char17ha628134952590ac5E', symObjAddr: 0x1880C, symBinAddr: 0x10004AFA8, symSize: 0x10 }
  - { offset: 0x9F257, size: 0x8, addend: 0x0, symName: '__ZN40_$LT$str$u20$as$u20$core..fmt..Debug$GT$3fmt17h6237d1724b23f846E', symObjAddr: 0x278, symBinAddr: 0x100046788, symSize: 0x398 }
  - { offset: 0x9F663, size: 0x8, addend: 0x0, symName: '__ZN41_$LT$char$u20$as$u20$core..fmt..Debug$GT$3fmt17h59e0a889e40b0668E', symObjAddr: 0x610, symBinAddr: 0x100046B20, symSize: 0xA8 }
  - { offset: 0x9F76D, size: 0x8, addend: 0x0, symName: '__ZN42_$LT$$RF$T$u20$as$u20$core..fmt..Debug$GT$3fmt17h64c69660141ac234E', symObjAddr: 0x6D8, symBinAddr: 0x100046BC8, symSize: 0x10 }
  - { offset: 0x9F781, size: 0x8, addend: 0x0, symName: '__ZN42_$LT$$RF$T$u20$as$u20$core..fmt..Debug$GT$3fmt17h69565c29f92b8fc4E', symObjAddr: 0x6E8, symBinAddr: 0x100046BD8, symSize: 0x8 }
  - { offset: 0x9F795, size: 0x8, addend: 0x0, symName: '__ZN42_$LT$$RF$T$u20$as$u20$core..fmt..Debug$GT$3fmt17h94db8d2ef512e5afE', symObjAddr: 0x6F0, symBinAddr: 0x100046BE0, symSize: 0xC }
  - { offset: 0x9F7BE, size: 0x8, addend: 0x0, symName: '__ZN42_$LT$$RF$T$u20$as$u20$core..fmt..Debug$GT$3fmt17hf3f2228147b0947aE', symObjAddr: 0x704, symBinAddr: 0x100046BEC, symSize: 0x164 }
  - { offset: 0x9F9F8, size: 0x8, addend: 0x0, symName: '__ZN42_$LT$str$u20$as$u20$core..fmt..Display$GT$3fmt17h1e7192c885a6ee43E', symObjAddr: 0x868, symBinAddr: 0x100046D50, symSize: 0x14 }
  - { offset: 0x9FA20, size: 0x8, addend: 0x0, symName: '__ZN43_$LT$char$u20$as$u20$core..fmt..Display$GT$3fmt17hdbc7e490592ff55fE', symObjAddr: 0x8B0, symBinAddr: 0x100046D64, symSize: 0xD4 }
  - { offset: 0x9FA96, size: 0x8, addend: 0x0, symName: '__ZN44_$LT$$RF$T$u20$as$u20$core..fmt..Display$GT$3fmt17hee11fbb5a7b19b29E', symObjAddr: 0xACC, symBinAddr: 0x100046E38, symSize: 0x10 }
  - { offset: 0x9FB6A, size: 0x8, addend: 0x0, symName: '__ZN4core3fmt3num3imp51_$LT$impl$u20$core..fmt..Display$u20$for$u20$u8$GT$3fmt17h96dad03e83fb5f48E', symObjAddr: 0x2680, symBinAddr: 0x100046FEC, symSize: 0xB0 }
  - { offset: 0x9FC4F, size: 0x8, addend: 0x0, symName: '__ZN4core3fmt3num3imp52_$LT$impl$u20$core..fmt..Display$u20$for$u20$i32$GT$3fmt17h52781b7f8b2f4a4fE', symObjAddr: 0x2848, symBinAddr: 0x10004709C, symSize: 0x13C }
  - { offset: 0x9FD4F, size: 0x8, addend: 0x0, symName: '__ZN4core3fmt3num3imp52_$LT$impl$u20$core..fmt..Display$u20$for$u20$u32$GT$3fmt17h5beaee6a6019d596E', symObjAddr: 0x2BC4, symBinAddr: 0x1000471D8, symSize: 0x130 }
  - { offset: 0x9FE4C, size: 0x8, addend: 0x0, symName: '__ZN4core3fmt3num3imp52_$LT$impl$u20$core..fmt..Display$u20$for$u20$u64$GT$3fmt17h14d52cab6e85bc6fE', symObjAddr: 0x2CF4, symBinAddr: 0x100047308, symSize: 0x13C }
  - { offset: 0x9FF87, size: 0x8, addend: 0x0, symName: '__ZN4core3fmt3num52_$LT$impl$u20$core..fmt..LowerHex$u20$for$u20$u8$GT$3fmt17hb13fce475fc222b2E', symObjAddr: 0x4BF0, symBinAddr: 0x1000477E8, symSize: 0x74 }
  - { offset: 0x9FFF9, size: 0x8, addend: 0x0, symName: '__ZN4core3fmt3num52_$LT$impl$u20$core..fmt..UpperHex$u20$for$u20$u8$GT$3fmt17hb1de02a3a7bbd3c7E', symObjAddr: 0x4CD8, symBinAddr: 0x10004785C, symSize: 0x74 }
  - { offset: 0xA007E, size: 0x8, addend: 0x0, symName: '__ZN4core3fmt3num53_$LT$impl$u20$core..fmt..UpperHex$u20$for$u20$u32$GT$3fmt17hb34391e4c80e6b6fE', symObjAddr: 0x52AC, symBinAddr: 0x100047A2C, symSize: 0x74 }
  - { offset: 0xA00F0, size: 0x8, addend: 0x0, symName: '__ZN4core3fmt3num53_$LT$impl$u20$core..fmt..LowerHex$u20$for$u20$u64$GT$3fmt17h79a829e8e24e1101E', symObjAddr: 0x5068, symBinAddr: 0x100047944, symSize: 0x74 }
  - { offset: 0xA0162, size: 0x8, addend: 0x0, symName: '__ZN4core3fmt3num53_$LT$impl$u20$core..fmt..UpperHex$u20$for$u20$u64$GT$3fmt17hc53763e351945eb2E', symObjAddr: 0x5320, symBinAddr: 0x100047AA0, symSize: 0x74 }
  - { offset: 0xA01C7, size: 0x8, addend: 0x0, symName: '__ZN4core3fmt3num50_$LT$impl$u20$core..fmt..Debug$u20$for$u20$u64$GT$3fmt17hc0c6345233f6992cE', symObjAddr: 0x3E30, symBinAddr: 0x100047444, symSize: 0x1CC }
  - { offset: 0xA0343, size: 0x8, addend: 0x0, symName: '__ZN4core3fmt3num52_$LT$impl$u20$core..fmt..Debug$u20$for$u20$usize$GT$3fmt17hecd777b1c3510085E', symObjAddr: 0x49A4, symBinAddr: 0x100047610, symSize: 0x1D8 }
  - { offset: 0xA04AC, size: 0x8, addend: 0x0, symName: '__ZN4core3fmt3num53_$LT$impl$u20$core..fmt..LowerHex$u20$for$u20$i32$GT$3fmt17hdfae8c5dbc559eecE', symObjAddr: 0x4E98, symBinAddr: 0x1000478D0, symSize: 0x74 }
  - { offset: 0xA0533, size: 0x8, addend: 0x0, symName: '__ZN4core3fmt3num53_$LT$impl$u20$core..fmt..UpperHex$u20$for$u20$i32$GT$3fmt17h723ababa892c8d1fE', symObjAddr: 0x5150, symBinAddr: 0x1000479B8, symSize: 0x74 }
  - { offset: 0xA0728, size: 0x8, addend: 0x0, symName: __ZN4core3fmt17pointer_fmt_inner17h8bac0a374e702121E, symObjAddr: 0x10FC, symBinAddr: 0x100046F38, symSize: 0xB4 }
  - { offset: 0xA07E5, size: 0x8, addend: 0x0, symName: __ZN4core3fmt5Write9write_fmt17h335a5c637617de5aE, symObjAddr: 0x640C, symBinAddr: 0x100047B14, symSize: 0x10 }
  - { offset: 0xA0864, size: 0x8, addend: 0x0, symName: __ZN4core3fmt5write17h2ddadfca81aeb692E, symObjAddr: 0x8C20, symBinAddr: 0x100047B24, symSize: 0x1E8 }
  - { offset: 0xA0A2F, size: 0x8, addend: 0x0, symName: __ZN4core3fmt9Formatter12pad_integral12write_prefix17h1291243e63835aa1E, symObjAddr: 0x9D7C, symBinAddr: 0x1000483A0, symSize: 0x7C }
  - { offset: 0xA0A97, size: 0x8, addend: 0x0, symName: '__ZN59_$LT$core..fmt..Arguments$u20$as$u20$core..fmt..Display$GT$3fmt17hd8696728533e2ff8E', symObjAddr: 0x194B8, symBinAddr: 0x10004AFB8, symSize: 0xC }
  - { offset: 0xA0BBA, size: 0x8, addend: 0x0, symName: __ZN4core6result13unwrap_failed17h6d77827dc3df0d45E, symObjAddr: 0x16778, symBinAddr: 0x10004F6C4, symSize: 0x5C }
  - { offset: 0xA0DE2, size: 0x8, addend: 0x0, symName: __ZN4core3str5count14do_count_chars17h843327bbee0854c3E, symObjAddr: 0x14570, symBinAddr: 0x10004925C, symSize: 0x718 }
  - { offset: 0xA11DE, size: 0x8, addend: 0x0, symName: __ZN4core3str5count23char_count_general_case17habd9bffbcb484ba4E, symObjAddr: 0x14C88, symBinAddr: 0x100049974, symSize: 0x2A8 }
  - { offset: 0xA1286, size: 0x8, addend: 0x0, symName: __ZN4core3str16slice_error_fail17h525eecae2eaa107fE, symObjAddr: 0x14198, symBinAddr: 0x10004F42C, symSize: 0xC }
  - { offset: 0xA12A0, size: 0x8, addend: 0x0, symName: __ZN4core3str19slice_error_fail_rt17hb42e3abad203a6cdE, symObjAddr: 0x141D8, symBinAddr: 0x100048FF0, symSize: 0x26C }
  - { offset: 0xA1423, size: 0x8, addend: 0x0, symName: __ZN4core3str7pattern11StrSearcher3new17h08afc4e4b23bec43E, symObjAddr: 0x14F64, symBinAddr: 0x100049C1C, symSize: 0x8B0 }
  - { offset: 0xA16BA, size: 0x8, addend: 0x0, symName: __ZN4core3str8converts9from_utf817h919d4dab8ff84af4E, symObjAddr: 0x15A88, symBinAddr: 0x10004A4CC, symSize: 0x274 }
  - { offset: 0xA16D7, size: 0x8, addend: 0x0, symName: __ZN4core3str8converts9from_utf817h919d4dab8ff84af4E, symObjAddr: 0x15A88, symBinAddr: 0x10004A4CC, symSize: 0x274 }
  - { offset: 0xA1758, size: 0x8, addend: 0x0, symName: '__ZN87_$LT$core..str..lossy..Utf8Chunks$u20$as$u20$core..iter..traits..iterator..Iterator$GT$4next17h95aaa406218940b3E', symObjAddr: 0x1F918, symBinAddr: 0x10004B2F8, symSize: 0x1C0 }
  - { offset: 0xA196C, size: 0x8, addend: 0x0, symName: __ZN4core3ffi5c_str4CStr19from_bytes_with_nul17h949d50f69b18d62aE, symObjAddr: 0xF20, symBinAddr: 0x100046E48, symSize: 0xF0 }
  - { offset: 0xA198A, size: 0x8, addend: 0x0, symName: __ZN4core3ffi5c_str4CStr19from_bytes_with_nul17h949d50f69b18d62aE, symObjAddr: 0xF20, symBinAddr: 0x100046E48, symSize: 0xF0 }
  - { offset: 0xA1AAA, size: 0x8, addend: 0x0, symName: __ZN4core4cell22panic_already_borrowed8do_panic7runtime17hb049e5e6e3009115E, symObjAddr: 0x15D08, symBinAddr: 0x10004F444, symSize: 0x44 }
  - { offset: 0xA1ADD, size: 0x8, addend: 0x0, symName: __ZN4core4cell22panic_already_borrowed17h2b3e251322659aa8E, symObjAddr: 0x15CFC, symBinAddr: 0x10004F438, symSize: 0xC }
  - { offset: 0xA1B12, size: 0x8, addend: 0x0, symName: '__ZN65_$LT$core..cell..BorrowMutError$u20$as$u20$core..fmt..Display$GT$3fmt17h88d30539f104455aE', symObjAddr: 0x1A498, symBinAddr: 0x10004AFC4, symSize: 0x14 }
  - { offset: 0xA1B62, size: 0x8, addend: 0x0, symName: __ZN4core7unicode12unicode_data15grapheme_extend11lookup_slow17h7cfd3b15da7724b7E, symObjAddr: 0x16D14, symBinAddr: 0x10004ABFC, symSize: 0x108 }
  - { offset: 0xA1D35, size: 0x8, addend: 0x0, symName: __ZN4core7unicode9printable12is_printable17h2705576d9a4eb781E, symObjAddr: 0x17234, symBinAddr: 0x10004AD04, symSize: 0x2A4 }
  - { offset: 0xA2026, size: 0x8, addend: 0x0, symName: __ZN4core5alloc6layout6Layout19is_size_align_valid17he773f7fedf08cc11E, symObjAddr: 0x161BC, symBinAddr: 0x10004A9C4, symSize: 0x20 }
  - { offset: 0xA2043, size: 0x8, addend: 0x0, symName: __ZN4core5alloc6layout6Layout19is_size_align_valid17he773f7fedf08cc11E, symObjAddr: 0x161BC, symBinAddr: 0x10004A9C4, symSize: 0x20 }
  - { offset: 0xA2070, size: 0x8, addend: 0x0, symName: __ZN4core9panicking11panic_const23panic_const_div_by_zero17h4bab502c4a7f6f5bE, symObjAddr: 0x174D8, symBinAddr: 0x10004F720, symSize: 0x34 }
  - { offset: 0xA209F, size: 0x8, addend: 0x0, symName: __ZN4core9panicking11panic_const23panic_const_rem_by_zero17h6c478c7599da4a96E, symObjAddr: 0x17540, symBinAddr: 0x10004F754, symSize: 0x34 }
  - { offset: 0xA20CF, size: 0x8, addend: 0x0, symName: __ZN4core9panicking13assert_failed17h420d4be177614dd0E, symObjAddr: 0x17950, symBinAddr: 0x10004F788, symSize: 0x24 }
  - { offset: 0xA20EA, size: 0x8, addend: 0x0, symName: __ZN4core9panicking13assert_failed17h64f44d5d40da8280E, symObjAddr: 0x17974, symBinAddr: 0x10004F7AC, symSize: 0x24 }
  - { offset: 0xA2105, size: 0x8, addend: 0x0, symName: __ZN4core9panicking13assert_failed17hcd10705fda4a35e5E, symObjAddr: 0x17998, symBinAddr: 0x10004F7D0, symSize: 0x24 }
  - { offset: 0xA2120, size: 0x8, addend: 0x0, symName: __ZN4core9panicking14panic_nounwind17h50f882120c826ceeE, symObjAddr: 0x179BC, symBinAddr: 0x10004F7F4, symSize: 0x3C }
  - { offset: 0xA214F, size: 0x8, addend: 0x0, symName: __ZN4core9panicking16panic_in_cleanup17h8699c7095cf5e6c5E, symObjAddr: 0x17A5C, symBinAddr: 0x10004F830, symSize: 0x18 }
  - { offset: 0xA216A, size: 0x8, addend: 0x0, symName: __ZN4core9panicking18panic_bounds_check17h8935b4e0a545757eE, symObjAddr: 0x17A74, symBinAddr: 0x10004F848, symSize: 0x50 }
  - { offset: 0xA21B0, size: 0x8, addend: 0x0, symName: __ZN4core9panicking18panic_nounwind_fmt17h3db3f511675e5bd7E, symObjAddr: 0x17AC4, symBinAddr: 0x10004F898, symSize: 0x3C }
  - { offset: 0xA21F5, size: 0x8, addend: 0x0, symName: __ZN4core9panicking19assert_failed_inner17h13db5798706a154aE, symObjAddr: 0x17B00, symBinAddr: 0x10004F8D4, symSize: 0xE4 }
  - { offset: 0xA223D, size: 0x8, addend: 0x0, symName: __ZN4core9panicking19panic_cannot_unwind17h396781a6699a759fE, symObjAddr: 0x17BE4, symBinAddr: 0x10004F9B8, symSize: 0x18 }
  - { offset: 0xA2258, size: 0x8, addend: 0x0, symName: __ZN4core9panicking26panic_nounwind_nobacktrace17h779196fb6afb7816E, symObjAddr: 0x17BFC, symBinAddr: 0x10004F9D0, symSize: 0x3C }
  - { offset: 0xA2287, size: 0x8, addend: 0x0, symName: __ZN4core9panicking5panic17hb13a99a9a5205e75E, symObjAddr: 0x17D00, symBinAddr: 0x10004FA0C, symSize: 0x34 }
  - { offset: 0xA22B6, size: 0x8, addend: 0x0, symName: __ZN4core9panicking9panic_fmt17h96de7a67cc512650E, symObjAddr: 0x17D34, symBinAddr: 0x10004FA40, symSize: 0x20 }
  - { offset: 0xA2327, size: 0x8, addend: 0x0, symName: _OUTLINED_FUNCTION_0, symObjAddr: 0x1FB3C, symBinAddr: 0x10004B4B8, symSize: 0x10 }
...
